 ohNet

 Timestamp is 4e1c17e7 (Tue Jul 12 10:46:15 2011)

 Preferred load address is 10000000

 Start         Length     Name                   Class
 0001:00000000 0017808fH .text                   CODE
 0001:00178090 00017934H .text$x                 CODE
 0001:0018f9d0 00006330H .text$yc                CODE
 0001:00195d00 00002c95H .text$yd                CODE
 0002:00000000 00000104H .CRT$XCA                DATA
 0002:00000104 00000104H .CRT$XCC                DATA
 0002:00000208 00000503H .CRT$XCU                DATA
 0002:0000070c 00000104H .CRT$XCZ                DATA
 0002:00000810 00000104H .CRT$XIA                DATA
 0002:00000914 00000113H .CRT$XIC                DATA
 0002:00000a28 00000104H .CRT$XIZ                DATA
 0002:00000b2c 00000104H .CRT$XPA                DATA
 0002:00000c30 00000109H .CRT$XPX                DATA
 0002:00000d3c 00000104H .CRT$XPXA               DATA
 0002:00000e40 00000104H .CRT$XPZ                DATA
 0002:00000f44 00000104H .CRT$XTA                DATA
 0002:00001048 00000104H .CRT$XTZ                DATA
 0002:00001150 000292f3H .rdata                  DATA
 0002:0002a444 0000015bH .rdata$debug            DATA
 0002:0002a5a0 00006f26H .rdata$r                DATA
 0002:000314d0 00001ad1H .rdata$sxdata           DATA
 0002:00032fa4 00000104H .rtc$IAA                DATA
 0002:000330a8 00000293H .rtc$IMZ                DATA
 0002:0003333c 00000104H .rtc$IZZ                DATA
 0002:00033440 00000104H .rtc$TAA                DATA
 0002:00033544 00000293H .rtc$TMZ                DATA
 0002:000337d8 00000104H .rtc$TZZ                DATA
 0002:000338e0 0001984eH .xdata$x                DATA
 0002:0004d130 000050eaH .edata                  DATA
 0003:00000000 0000a43fH .data                   DATA
 0003:0000a440 00003c64H .bss                    DATA
 0004:00000000 0000003cH .idata$2                DATA
 0004:0000003c 00000014H .idata$3                DATA
 0004:00000050 000002b0H .idata$4                DATA
 0004:00000300 000002b0H .idata$5                DATA
 0004:000005b0 0000091cH .idata$6                DATA

  Address         Publics by Value              Rva+Base       Lib:Object

 0000:00000000       __except_list              00000000     <absolute>
 0000:00000561       ___safe_se_handler_count   00000561     <absolute>
 0000:00000000       ___ImageBase               10000000     <linker-defined>
 0001:0000f650       ?IsHex@Ascii@OpenHome@@SG_ND@Z 10010650 f   Ascii.obj
 0001:0000f6b0       ?IsDigit@Ascii@OpenHome@@SG_ND@Z 100106b0 f   Ascii.obj
 0001:0000f6f0       ?IsWhitespace@Ascii@OpenHome@@SG_ND@Z 100106f0 f   Ascii.obj
 0001:0000f710       ?IsLineEnding@Ascii@OpenHome@@SG_ND@Z 10010710 f   Ascii.obj
 0001:0000f750       ?IsAlphabetic@Ascii@OpenHome@@SG_ND@Z 10010750 f   Ascii.obj
 0001:0000f7a0       ?IsUpperCase@Ascii@OpenHome@@SG_ND@Z 100107a0 f   Ascii.obj
 0001:0000f7e0       ?IsLowerCase@Ascii@OpenHome@@SG_ND@Z 100107e0 f   Ascii.obj
 0001:0000f820       ?ToLowerCase@Ascii@OpenHome@@SGDD@Z 10010820 f   Ascii.obj
 0001:0000f870       ?ToUpperCase@Ascii@OpenHome@@SGDD@Z 10010870 f   Ascii.obj
 0001:0000f8c0       ?CaseInsensitiveEquals@Ascii@OpenHome@@SG_NDD@Z 100108c0 f   Ascii.obj
 0001:0000f910       ?CaseInsensitiveEquals@Ascii@OpenHome@@SG_NABVBrx@2@0@Z 10010910 f   Ascii.obj
 0001:0000f9a0       ?RemoveTheFromStart@Ascii@OpenHome@@SG_NABVBrx@2@AAVBwx@2@@Z 100109a0 f   Ascii.obj
 0001:0000fae0       ?HexChar@Ascii@OpenHome@@SGDI@Z 10010ae0 f   Ascii.obj
 0001:0000fbb0       ?HexValue@Ascii@OpenHome@@SGID@Z 10010bb0 f   Ascii.obj
 0001:0000fcb0       ?DecChar@Ascii@OpenHome@@SGDI@Z 10010cb0 f   Ascii.obj
 0001:0000fd70       ?DecValue@Ascii@OpenHome@@SGID@Z 10010d70 f   Ascii.obj
 0001:0000fe40       ?AppendDec@Ascii@OpenHome@@SGIAAVBwx@2@E@Z 10010e40 f   Ascii.obj
 0001:0000fe60       ?AppendDec@Ascii@OpenHome@@SGIAAVBwx@2@C@Z 10010e60 f   Ascii.obj
 0001:0000fe80       ?AppendDec@Ascii@OpenHome@@SGIAAVBwx@2@H@Z 10010e80 f   Ascii.obj
 0001:00010000       ?AppendDec@Ascii@OpenHome@@SGIAAVBwx@2@I@Z 10011000 f   Ascii.obj
 0001:00010160       ?AppendDec@Ascii@OpenHome@@SGIAAVBwx@2@_J@Z 10011160 f   Ascii.obj
 0001:00010310       ?AppendDec@Ascii@OpenHome@@SGIAAVBwx@2@_K@Z 10011310 f   Ascii.obj
 0001:00010480       ?AppendHex@Ascii@OpenHome@@SGIAAVBwx@2@I@Z 10011480 f   Ascii.obj
 0001:00010520       ?AppendHex@Ascii@OpenHome@@SGIAAVBwx@2@E@Z 10011520 f   Ascii.obj
 0001:00010570       ?AppendHexPrefix@Ascii@OpenHome@@SGIAAVBwx@2@@Z 10011570 f   Ascii.obj
 0001:00010590       ?Contains@Ascii@OpenHome@@SG_NABVBrx@2@D@Z 10011590 f   Ascii.obj
 0001:000105f0       ?ContainsWhitespace@Ascii@OpenHome@@SG_NABVBrx@2@@Z 100115f0 f   Ascii.obj
 0001:00010650       ?IndexOf@Ascii@OpenHome@@SGIABVBrx@2@D@Z 10011650 f   Ascii.obj
 0001:000106e0       ?Substitute@Ascii@OpenHome@@SGXAAVBwx@2@DD@Z 100116e0 f   Ascii.obj
 0001:00010770       ?Trim@Ascii@OpenHome@@SG?AVBrn@2@ABVBrx@2@@Z 10011770 f   Ascii.obj
 0001:00010870       ?Int@Ascii@OpenHome@@SGHABVBrx@2@@Z 10011870 f   Ascii.obj
 0001:00010af0       ?Uint@Ascii@OpenHome@@SGIABVBrx@2@@Z 10011af0 f   Ascii.obj
 0001:00010cb0       ?Int64@Ascii@OpenHome@@SG_JABVBrx@2@@Z 10011cb0 f   Ascii.obj
 0001:00010f80       ?Uint64@Ascii@OpenHome@@SG_KABVBrx@2@@Z 10011f80 f   Ascii.obj
 0001:00011160       ?UintHex@Ascii@OpenHome@@SGIABVBrx@2@@Z 10012160 f   Ascii.obj
 0001:00011320       ??0ReaderAscii@OpenHome@@QAE@AAVIReader@1@@Z 10012320 f   Ascii.obj
 0001:000113a0       ?ReadInt@ReaderAscii@OpenHome@@QAEHE@Z 100123a0 f   Ascii.obj
 0001:00011460       ?ReadUint@ReaderAscii@OpenHome@@QAEIE@Z 10012460 f   Ascii.obj
 0001:00011520       ?Read@ReaderAscii@OpenHome@@UAE?AVBrn@2@I@Z 10012520 f   Ascii.obj
 0001:00011580       ?ReadUntil@ReaderAscii@OpenHome@@UAE?AVBrn@2@E@Z 10012580 f   Ascii.obj
 0001:000115f0       ??0WriterAscii@OpenHome@@QAE@AAVIWriter@1@@Z 100125f0 f   Ascii.obj
 0001:00011670       ?WriteSpace@WriterAscii@OpenHome@@UAEXXZ 10012670 f   Ascii.obj
 0001:000116b0       ?WriteNewline@WriterAscii@OpenHome@@UAEXXZ 100126b0 f   Ascii.obj
 0001:000116f0       ?WriteTab@WriterAscii@OpenHome@@UAEXXZ 100126f0 f   Ascii.obj
 0001:00011730       ?WriteInt@WriterAscii@OpenHome@@UAEXH@Z 10012730 f   Ascii.obj
 0001:00011810       ?WriteIntPadded@WriterAscii@OpenHome@@UAEXH@Z 10012810 f   Ascii.obj
 0001:00011910       ?WriteUint@WriterAscii@OpenHome@@UAEXI@Z 10012910 f   Ascii.obj
 0001:000119f0       ?WriteUintPadded@WriterAscii@OpenHome@@UAEXI@Z 100129f0 f   Ascii.obj
 0001:00011af0       ?WriteInt64@WriterAscii@OpenHome@@UAEX_J@Z 10012af0 f   Ascii.obj
 0001:00011bd0       ?WriteUint64@WriterAscii@OpenHome@@UAEX_K@Z 10012bd0 f   Ascii.obj
 0001:00011cb0       ?WriteHex@WriterAscii@OpenHome@@UAEXI@Z 10012cb0 f   Ascii.obj
 0001:00011da0       ?WriteHex@WriterAscii@OpenHome@@UAEXE@Z 10012da0 f   Ascii.obj
 0001:00011e90       ?WriteHexPrefix@WriterAscii@OpenHome@@UAEXXZ 10012e90 f   Ascii.obj
 0001:00011ed0       ?Write@WriterAscii@OpenHome@@UAEXE@Z 10012ed0 f   Ascii.obj
 0001:00011f20       ?Write@WriterAscii@OpenHome@@UAEXABVBrx@2@@Z 10012f20 f   Ascii.obj
 0001:00011f60       ?WriteFlush@WriterAscii@OpenHome@@UAEXXZ 10012f60 f   Ascii.obj
 0001:00011fa0       ?StreamWriteUint@Ascii@OpenHome@@SGXAAVIWriter@2@I@Z 10012fa0 f   Ascii.obj
 0001:00012080       ?StreamWriteInt@Ascii@OpenHome@@SGXAAVIWriter@2@H@Z 10013080 f   Ascii.obj
 0001:00012c30       ?Bytes@Brx@OpenHome@@QBEIXZ 10013c30 f i Ascii.obj
 0001:00012c50       ??ABrx@OpenHome@@QBEABEI@Z 10013c50 f i Ascii.obj
 0001:00012c90       ??1Brn@OpenHome@@UAE@XZ    10013c90 f i Ascii.obj
 0001:00012cc0       ??1Brx@OpenHome@@UAE@XZ    10013cc0 f i Ascii.obj
 0001:00012cf0       ??_GBrx@OpenHome@@UAEPAXI@Z 10013cf0 f i Ascii.obj
 0001:00012cf0       ??_EBrx@OpenHome@@UAEPAXI@Z 10013cf0 f i Ascii.obj
 0001:00012d40       ??0AsciiError@OpenHome@@QAE@PBDI@Z 10013d40 f i Ascii.obj
 0001:00012d90       ??1AsciiError@OpenHome@@QAE@XZ 10013d90 f i Ascii.obj
 0001:00012dc0       ?Append@Bwx@OpenHome@@QAEXD@Z 10013dc0 f i Ascii.obj
 0001:00012e00       ?Append@Bwx@OpenHome@@QAEXE@Z 10013e00 f i Ascii.obj
 0001:00012e40       ??ABwx@OpenHome@@QAEAAEI@Z 10013e40 f i Ascii.obj
 0001:00012e80       ??1?$Bws@$09@OpenHome@@UAE@XZ 10013e80 f i Ascii.obj
 0001:00012eb0       ??1Bwx@OpenHome@@UAE@XZ    10013eb0 f i Ascii.obj
 0001:00012ee0       ??1?$Bws@$0BE@@OpenHome@@UAE@XZ 10013ee0 f i Ascii.obj
 0001:00012f10       ??0Brn@OpenHome@@QAE@ABV01@@Z 10013f10 f i Ascii.obj
 0001:00012fc0       ??0Brx@OpenHome@@IAE@ABV01@@Z 10013fc0 f i Ascii.obj
 0001:00013010       ??_GBrn@OpenHome@@UAEPAXI@Z 10014010 f i Ascii.obj
 0001:00013010       ??_EBrn@OpenHome@@UAEPAXI@Z 10014010 f i Ascii.obj
 0001:00013060       ??0ReaderError@OpenHome@@QAE@PBDI@Z 10014060 f i Ascii.obj
 0001:000130b0       ??1ReaderError@OpenHome@@QAE@XZ 100140b0 f i Ascii.obj
 0001:000130e0       ??0INonCopyable@OpenHome@@IAE@XZ 100140e0 f i Ascii.obj
 0001:00013100       ??1IReader@OpenHome@@UAE@XZ 10014100 f i Ascii.obj
 0001:00013130       ??_GIReader@OpenHome@@UAEPAXI@Z 10014130 f i Ascii.obj
 0001:00013130       ??_EIReader@OpenHome@@UAEPAXI@Z 10014130 f i Ascii.obj
 0001:00013180       ??_GReaderAscii@OpenHome@@UAEPAXI@Z 10014180 f i Ascii.obj
 0001:00013180       ??_EReaderAscii@OpenHome@@UAEPAXI@Z 10014180 f i Ascii.obj
 0001:000131d0       ??0IReader@OpenHome@@QAE@XZ 100141d0 f i Ascii.obj
 0001:00013200       ??1ReaderAscii@OpenHome@@UAE@XZ 10014200 f i Ascii.obj
 0001:00013230       ??1IWriterAscii@OpenHome@@UAE@XZ 10014230 f i Ascii.obj
 0001:00013270       ??1IWriter@OpenHome@@UAE@XZ 10014270 f i Ascii.obj
 0001:000132a0       ??_EIWriter@OpenHome@@UAEPAXI@Z 100142a0 f i Ascii.obj
 0001:000132a0       ??_GIWriter@OpenHome@@UAEPAXI@Z 100142a0 f i Ascii.obj
 0001:000132f0       ??_EIWriterAscii@OpenHome@@UAEPAXI@Z 100142f0 f i Ascii.obj
 0001:000132f0       ??_GIWriterAscii@OpenHome@@UAEPAXI@Z 100142f0 f i Ascii.obj
 0001:00013340       ??_EWriterAscii@OpenHome@@UAEPAXI@Z 10014340 f i Ascii.obj
 0001:00013340       ??_GWriterAscii@OpenHome@@UAEPAXI@Z 10014340 f i Ascii.obj
 0001:00013390       ??0IWriterAscii@OpenHome@@QAE@XZ 10014390 f i Ascii.obj
 0001:000133d0       ??1WriterAscii@OpenHome@@UAE@XZ 100143d0 f i Ascii.obj
 0001:00013400       ??0IWriter@OpenHome@@QAE@XZ 10014400 f i Ascii.obj
 0001:00013430       ??1?$Bws@$0L@@OpenHome@@UAE@XZ 10014430 f i Ascii.obj
 0001:00013460       ??1?$Bws@$07@OpenHome@@UAE@XZ 10014460 f i Ascii.obj
 0001:00013490       ??1?$Bws@$01@OpenHome@@UAE@XZ 10014490 f i Ascii.obj
 0001:000134c0       ??0?$Bws@$09@OpenHome@@QAE@XZ 100144c0 f i Ascii.obj
 0001:00013510       ?Ptr@?$Bws@$09@OpenHome@@UBEPBEXZ 10014510 f i Ascii.obj
 0001:00013530       ??0?$Bws@$0BE@@OpenHome@@QAE@XZ 10014530 f i Ascii.obj
 0001:00013580       ?Ptr@?$Bws@$0BE@@OpenHome@@UBEPBEXZ 10014580 f i Ascii.obj
 0001:000135a0       ??0?$Bws@$0L@@OpenHome@@QAE@XZ 100145a0 f i Ascii.obj
 0001:000135f0       ?Ptr@?$Bws@$0L@@OpenHome@@UBEPBEXZ 100145f0 f i Ascii.obj
 0001:00013610       ??0?$Bws@$07@OpenHome@@QAE@XZ 10014610 f i Ascii.obj
 0001:00013660       ?Ptr@?$Bws@$07@OpenHome@@UBEPBEXZ 10014660 f i Ascii.obj
 0001:00013680       ??0?$Bws@$01@OpenHome@@QAE@XZ 10014680 f i Ascii.obj
 0001:000136d0       ?Ptr@?$Bws@$01@OpenHome@@UBEPBEXZ 100146d0 f i Ascii.obj
 0001:000136f0       ??_G?$Bws@$09@OpenHome@@UAEPAXI@Z 100146f0 f i Ascii.obj
 0001:000136f0       ??_E?$Bws@$09@OpenHome@@UAEPAXI@Z 100146f0 f i Ascii.obj
 0001:00013740       ??_G?$Bws@$0BE@@OpenHome@@UAEPAXI@Z 10014740 f i Ascii.obj
 0001:00013740       ??_E?$Bws@$0BE@@OpenHome@@UAEPAXI@Z 10014740 f i Ascii.obj
 0001:00013790       ??_G?$Bws@$0L@@OpenHome@@UAEPAXI@Z 10014790 f i Ascii.obj
 0001:00013790       ??_E?$Bws@$0L@@OpenHome@@UAEPAXI@Z 10014790 f i Ascii.obj
 0001:000137e0       ??_E?$Bws@$07@OpenHome@@UAEPAXI@Z 100147e0 f i Ascii.obj
 0001:000137e0       ??_G?$Bws@$07@OpenHome@@UAEPAXI@Z 100147e0 f i Ascii.obj
 0001:00013830       ??_G?$Bws@$01@OpenHome@@UAEPAXI@Z 10014830 f i Ascii.obj
 0001:00013830       ??_E?$Bws@$01@OpenHome@@UAEPAXI@Z 10014830 f i Ascii.obj
 0001:00013880       ??0AsyncOutput@@QAE@P6GXPBD0@Z@Z 10014880 f   AsyncC.obj
 0001:000138c0       ?Output@AsyncOutput@@UAEXPBD0@Z 100148c0 f   AsyncC.obj
 0001:00013900       _OhNetAsyncOutput@8        10014900 f   AsyncC.obj
 0001:000139c0       ??0IAsyncOutput@Net@OpenHome@@QAE@XZ 100149c0 f i AsyncC.obj
 0001:000139f0       ?Functor@SyncProxyAction@Net@OpenHome@@QAEAAVFunctorAsync@23@XZ 100149f0 f   AsyncPrivate.obj
 0001:00013a10       ?Wait@SyncProxyAction@Net@OpenHome@@QAEXXZ 10014a10 f   AsyncPrivate.obj
 0001:00013ae0       ??0SyncProxyAction@Net@OpenHome@@IAE@XZ 10014ae0 f   AsyncPrivate.obj
 0001:00013bb0       ??1SyncProxyAction@Net@OpenHome@@IAE@XZ 10014bb0 f   AsyncPrivate.obj
 0001:00013be0       ?Completed@SyncProxyAction@Net@OpenHome@@AAEXAAVIAsync@23@@Z 10014be0 f   AsyncPrivate.obj
 0001:00013db0       ??0ProxyError@OpenHome@@QAE@PBDI@Z 10014db0 f i AsyncPrivate.obj
 0001:00013e00       ??1ProxyError@OpenHome@@QAE@XZ 10014e00 f i AsyncPrivate.obj
 0001:00013e30       ??0FunctorAsync@Net@OpenHome@@QAE@XZ 10014e30 f i AsyncPrivate.obj
 0001:00013e70       ??$MakeFunctorAsync@VSyncProxyAction@Net@OpenHome@@V123@@Net@OpenHome@@YG?AV?$MemberTranslatorAsync@VSyncProxyAction@Net@OpenHome@@P8123@AEXAAVIAsync@23@@Z@01@AAVSyncProxyAction@01@ABQ8301@AEXAAVIAsync@01@@Z@Z 10014e70 f i AsyncPrivate.obj
 0001:00013ea0       ??0?$MemberTranslatorAsync@VSyncProxyAction@Net@OpenHome@@P8123@AEXAAVIAsync@23@@Z@Net@OpenHome@@QAE@AAVSyncProxyAction@12@ABQ8312@AEXAAVIAsync@12@@Z@Z 10014ea0 f i AsyncPrivate.obj
 0001:00013ef0       ??0FunctorAsync@Net@OpenHome@@IAE@P6GXABV012@AAVIAsync@12@@ZPBX3I@Z 10014ef0 f i AsyncPrivate.obj
 0001:00013f50       ?Thunk@?$MemberTranslatorAsync@VSyncProxyAction@Net@OpenHome@@P8123@AEXAAVIAsync@23@@Z@Net@OpenHome@@SGXABVFunctorAsync@23@AAVIAsync@23@@Z 10014f50 f i AsyncPrivate.obj
 0001:00013fb0       ??0BonjourWebPage@Net@OpenHome@@QAE@AAVIMdnsProvider@12@@Z 10014fb0 f   Bonjour.obj
 0001:00014010       ??1BonjourWebPage@Net@OpenHome@@QAE@XZ 10015010 f   Bonjour.obj
 0001:00014050       ?SetEnabled@BonjourWebPage@Net@OpenHome@@QAEXPBDII0@Z 10015050 f   Bonjour.obj
 0001:00014130       ?SetDisabled@BonjourWebPage@Net@OpenHome@@QAEXXZ 10015130 f   Bonjour.obj
 0001:000141e0       ?Empty@Brx@OpenHome@@SGABVBrn@2@XZ 100151e0 f   Buffer.obj
 0001:000141f0       ?Equals@Brx@OpenHome@@QBE_NABV12@@Z 100151f0 f   Buffer.obj
 0001:00014270       ?At@Brx@OpenHome@@QBEABEI@Z 10015270 f   Buffer.obj
 0001:000142d0       ?Split@Brx@OpenHome@@QBE?AVBrn@2@I@Z 100152d0 f   Buffer.obj
 0001:00014360       ?Split@Brx@OpenHome@@QBE?AVBrn@2@II@Z 10015360 f   Buffer.obj
 0001:000143e0       ?BeginsWith@Brx@OpenHome@@QBE_NABV12@@Z 100153e0 f   Buffer.obj
 0001:00014460       ??0Brn@OpenHome@@QAE@PBD@Z 10015460 f   Buffer.obj
 0001:000144b0       ?Set@Brn@OpenHome@@QAEXPBD@Z 100154b0 f   Buffer.obj
 0001:000144f0       ?Ptr@Brn@OpenHome@@UBEPBEXZ 100154f0 f   Buffer.obj
 0001:00014530       ??1Brv@OpenHome@@UAE@XZ    10015530 f   Buffer.obj
 0001:00014570       ?Ptr@Brv@OpenHome@@UBEPBEXZ 10015570 f   Buffer.obj
 0001:00014590       ??0Brh@OpenHome@@QAE@ABVBrx@1@@Z 10015590 f   Buffer.obj
 0001:00014610       ??0Brh@OpenHome@@QAE@PBD@Z 10015610 f   Buffer.obj
 0001:00014690       ?Set@Brh@OpenHome@@QAEXPBEI@Z 10015690 f   Buffer.obj
 0001:000146f0       ?Set@Brh@OpenHome@@QAEXPBD@Z 100156f0 f   Buffer.obj
 0001:00014730       ?TransferTo@Brh@OpenHome@@QAEXAAV12@@Z 10015730 f   Buffer.obj
 0001:00014790       ?Extract@Brh@OpenHome@@QAEPADXZ 10015790 f   Buffer.obj
 0001:000147d0       ??0Brhz@OpenHome@@QAE@ABVBrx@1@@Z 100157d0 f   Buffer.obj
 0001:00014850       ??0Brhz@OpenHome@@QAE@PBD@Z 10015850 f   Buffer.obj
 0001:000148d0       ?Set@Brhz@OpenHome@@QAEXPBEI@Z 100158d0 f   Buffer.obj
 0001:00014990       ?Set@Brhz@OpenHome@@QAEXPBD@Z 10015990 f   Buffer.obj
 0001:000149d0       ?Shrink@Brhz@OpenHome@@QAEXI@Z 100159d0 f   Buffer.obj
 0001:00014a70       ?TransferTo@Brhz@OpenHome@@QAEXAAVBrh@2@@Z 10015a70 f   Buffer.obj
 0001:00014ad0       ?TransferTo@Brhz@OpenHome@@QAEXAAV12@@Z 10015ad0 f   Buffer.obj
 0001:00014b30       ?Transfer@Brhz@OpenHome@@QAEPADXZ 10015b30 f   Buffer.obj
 0001:00014b70       ??0Bwx@OpenHome@@IAE@II@Z  10015b70 f   Buffer.obj
 0001:00014c10       ?Replace@Bwx@OpenHome@@QAEXABVBrx@2@@Z 10015c10 f   Buffer.obj
 0001:00014ca0       ?ReplaceThrow@Bwx@OpenHome@@QAEXABVBrx@2@@Z 10015ca0 f   Buffer.obj
 0001:00014dc0       ?Replace@Bwx@OpenHome@@QAEXPBEI@Z 10015dc0 f   Buffer.obj
 0001:00014e30       ?Replace@Bwx@OpenHome@@QAEXPBD@Z 10015e30 f   Buffer.obj
 0001:00014ec0       ?Append@Bwx@OpenHome@@QAEXPBD@Z 10015ec0 f   Buffer.obj
 0001:00014f00       ?Append@Bwx@OpenHome@@QAEXABVBrx@2@@Z 10015f00 f   Buffer.obj
 0001:00014f50       ?Append@Bwx@OpenHome@@QAEXPBEI@Z 10015f50 f   Buffer.obj
 0001:00014fe0       ?AppendPrintf@Bwx@OpenHome@@QAAXPBDZZ 10015fe0 f   Buffer.obj
 0001:00015120       ?PtrZ@Bwx@OpenHome@@QBEPBDXZ 10016120 f   Buffer.obj
 0001:000151a0       ?Fill@Bwx@OpenHome@@QAEXE@Z 100161a0 f   Buffer.obj
 0001:000151f0       ?SetBytes@Bwx@OpenHome@@QAEXI@Z 100161f0 f   Buffer.obj
 0001:00015240       ?At@Bwx@OpenHome@@QAEAAEI@Z 10016240 f   Buffer.obj
 0001:000152a0       ??0Bwn@OpenHome@@QAE@XZ    100162a0 f   Buffer.obj
 0001:000152e0       ??0Bwn@OpenHome@@QAE@ABVBwx@1@@Z 100162e0 f   Buffer.obj
 0001:00015380       ??0Bwn@OpenHome@@QAE@ABV01@@Z 10016380 f   Buffer.obj
 0001:00015420       ??0Bwn@OpenHome@@QAE@PBEI@Z 10016420 f   Buffer.obj
 0001:00015470       ??0Bwn@OpenHome@@QAE@PBEII@Z 10016470 f   Buffer.obj
 0001:000154c0       ??0Bwn@OpenHome@@QAE@PBDI@Z 100164c0 f   Buffer.obj
 0001:00015510       ??0Bwn@OpenHome@@QAE@PBDII@Z 10016510 f   Buffer.obj
 0001:00015560       ?Set@Bwn@OpenHome@@QAEXABVBwx@2@@Z 10016560 f   Buffer.obj
 0001:000155c0       ?Set@Bwn@OpenHome@@QAEXPBEI@Z 100165c0 f   Buffer.obj
 0001:000155f0       ?Set@Bwn@OpenHome@@QAEXPBEII@Z 100165f0 f   Buffer.obj
 0001:00015640       ?Ptr@Bwn@OpenHome@@UBEPBEXZ 10016640 f   Buffer.obj
 0001:00015660       ??0Bwh@OpenHome@@QAE@XZ    10016660 f   Buffer.obj
 0001:000156a0       ??0Bwh@OpenHome@@QAE@I@Z   100166a0 f   Buffer.obj
 0001:000156f0       ??0Bwh@OpenHome@@QAE@II@Z  100166f0 f   Buffer.obj
 0001:00015740       ??1Bwh@OpenHome@@UAE@XZ    10016740 f   Buffer.obj
 0001:00015780       ?Ptr@Bwh@OpenHome@@UBEPBEXZ 10016780 f   Buffer.obj
 0001:000157c0       ??0Bwh@OpenHome@@QAE@PBD@Z 100167c0 f   Buffer.obj
 0001:00015860       ??0Bwh@OpenHome@@QAE@PBEI@Z 10016860 f   Buffer.obj
 0001:00015900       ??0Bwh@OpenHome@@QAE@ABVBrx@1@@Z 10016900 f   Buffer.obj
 0001:000159a0       ??0Bwh@OpenHome@@QAE@ABV01@@Z 100169a0 f   Buffer.obj
 0001:00015a40       ?Grow@Bwh@OpenHome@@QAEXI@Z 10016a40 f   Buffer.obj
 0001:00015af0       ?TransferTo@Bwh@OpenHome@@QAEXAAVBrh@2@@Z 10016af0 f   Buffer.obj
 0001:00015b50       ?TransferTo@Bwh@OpenHome@@QAEXAAVBrhz@2@@Z 10016b50 f   Buffer.obj
 0001:00015bb0       ?TransferTo@Bwh@OpenHome@@QAEXAAV12@@Z 10016bb0 f   Buffer.obj
 0001:00015c10       ??RBufferCmp@OpenHome@@QBE_NABVBrx@1@0@Z 10016c10 f   Buffer.obj
 0001:000163e0       ??0Brn@OpenHome@@QAE@PBEI@Z 100173e0 f i Buffer.obj
 0001:00016430       ??0Brx@OpenHome@@IAE@I@Z   10017430 f i Buffer.obj
 0001:00016470       ??_EBrv@OpenHome@@UAEPAXI@Z 10017470 f i Buffer.obj
 0001:00016510       ??0Brv@OpenHome@@IAE@XZ    10017510 f i Buffer.obj
 0001:000165b0       ??_EBrh@OpenHome@@UAEPAXI@Z 100175b0 f i Buffer.obj
 0001:000165b0       ??_GBrh@OpenHome@@UAEPAXI@Z 100175b0 f i Buffer.obj
 0001:00016600       ??1Brh@OpenHome@@UAE@XZ    10017600 f i Buffer.obj
 0001:00016630       ?Set@Brh@OpenHome@@QAEXABVBrx@2@@Z 10017630 f i Buffer.obj
 0001:00016690       ??_GBrhz@OpenHome@@UAEPAXI@Z 10017690 f i Buffer.obj
 0001:00016690       ??_EBrhz@OpenHome@@UAEPAXI@Z 10017690 f i Buffer.obj
 0001:000166e0       ??1Brhz@OpenHome@@UAE@XZ   100176e0 f i Buffer.obj
 0001:00016710       ?Set@Brhz@OpenHome@@QAEXABVBrx@2@@Z 10017710 f i Buffer.obj
 0001:00016770       ?MaxBytes@Bwx@OpenHome@@QBEIXZ 10017770 f i Buffer.obj
 0001:00016790       ??_GBwx@OpenHome@@UAEPAXI@Z 10017790 f i Buffer.obj
 0001:00016790       ??_EBwx@OpenHome@@UAEPAXI@Z 10017790 f i Buffer.obj
 0001:000167e0       ??0BufferOverflow@OpenHome@@QAE@PBDI@Z 100177e0 f i Buffer.obj
 0001:00016830       ??1BufferOverflow@OpenHome@@QAE@XZ 10017830 f i Buffer.obj
 0001:00016860       ??0BufferFull@OpenHome@@QAE@PBDI@Z 10017860 f i Buffer.obj
 0001:000168b0       ??1BufferFull@OpenHome@@QAE@XZ 100178b0 f i Buffer.obj
 0001:000168e0       ??_EBwn@OpenHome@@UAEPAXI@Z 100178e0 f i Buffer.obj
 0001:000168e0       ??_GBwn@OpenHome@@UAEPAXI@Z 100178e0 f i Buffer.obj
 0001:00016930       ??1Bwn@OpenHome@@UAE@XZ    10017930 f i Buffer.obj
 0001:00016960       ??_EBwh@OpenHome@@UAEPAXI@Z 10017960 f i Buffer.obj
 0001:00016960       ??_GBwh@OpenHome@@UAEPAXI@Z 10017960 f i Buffer.obj
 0001:000169b0       ??0SsdpSocketReader@Net@OpenHome@@QAE@IABVEndpoint@2@@Z 100179b0 f   Discovery.obj
 0001:00016aa0       ??1SsdpSocketReader@Net@OpenHome@@UAE@XZ 10017aa0 f   Discovery.obj
 0001:00016b70       ?Sender@SsdpSocketReader@Net@OpenHome@@QBE?AVEndpoint@3@XZ 10017b70 f   Discovery.obj
 0001:00016ba0       ?Read@SsdpSocketReader@Net@OpenHome@@UAEXAAVBwx@3@@Z 10017ba0 f   Discovery.obj
 0001:00016be0       ?ReadFlush@SsdpSocketReader@Net@OpenHome@@UAEXXZ 10017be0 f   Discovery.obj
 0001:00016c20       ?ReadInterrupt@SsdpSocketReader@Net@OpenHome@@UAEXXZ 10017c20 f   Discovery.obj
 0001:00016c60       ??0SsdpListener@Net@OpenHome@@IAE@XZ 10017c60 f   Discovery.obj
 0001:00016d30       ??0SsdpListenerMulticast@Net@OpenHome@@QAE@I@Z 10017d30 f   Discovery.obj
 0001:00017010       ?Run@SsdpListenerMulticast@Net@OpenHome@@EAEXXZ 10018010 f   Discovery.obj
 0001:00017450       ?Msearch@SsdpListenerMulticast@Net@OpenHome@@AAEXAAVMsearchHandler@123@@Z 10018450 f   Discovery.obj
 0001:00017520       ?Msearch@SsdpListenerMulticast@Net@OpenHome@@AAEXAAVISsdpMsearchHandler@23@@Z 10018520 f   Discovery.obj
 0001:000177e0       ?Notify@SsdpListenerMulticast@Net@OpenHome@@AAEXAAVNotifyHandler@123@@Z 100187e0 f   Discovery.obj
 0001:000178b0       ?Notify@SsdpListenerMulticast@Net@OpenHome@@AAEXAAVISsdpNotifyHandler@23@@Z 100188b0 f   Discovery.obj
 0001:000180b0       ??1SsdpListenerMulticast@Net@OpenHome@@UAE@XZ 100190b0 f   Discovery.obj
 0001:00018280       ?AddNotifyHandler@SsdpListenerMulticast@Net@OpenHome@@QAEHPAVISsdpNotifyHandler@23@@Z 10019280 f   Discovery.obj
 0001:000183d0       ?AddMsearchHandler@SsdpListenerMulticast@Net@OpenHome@@QAEHPAVISsdpMsearchHandler@23@@Z 100193d0 f   Discovery.obj
 0001:00018520       ?RemoveNotifyHandler@SsdpListenerMulticast@Net@OpenHome@@QAEXH@Z 10019520 f   Discovery.obj
 0001:000185e0       ?RemoveMsearchHandler@SsdpListenerMulticast@Net@OpenHome@@QAEXH@Z 100195e0 f   Discovery.obj
 0001:000186a0       ?Interface@SsdpListenerMulticast@Net@OpenHome@@QBEIXZ 100196a0 f   Discovery.obj
 0001:000186c0       ?EraseDisabled@SsdpListenerMulticast@Net@OpenHome@@AAEXAAV?$vector@PAVNotifyHandler@SsdpListenerMulticast@Net@OpenHome@@V?$allocator@PAVNotifyHandler@SsdpListenerMulticast@Net@OpenHome@@@std@@@std@@@Z 100196c0 f   Discovery.obj
 0001:00018860       ?EraseDisabled@SsdpListenerMulticast@Net@OpenHome@@AAEXAAV?$vector@PAVMsearchHandler@SsdpListenerMulticast@Net@OpenHome@@V?$allocator@PAVMsearchHandler@SsdpListenerMulticast@Net@OpenHome@@@std@@@std@@@Z 10019860 f   Discovery.obj
 0001:00018a00       ??0SsdpListenerUnicast@Net@OpenHome@@QAE@AAVISsdpNotifyHandler@12@I@Z 10019a00 f   Discovery.obj
 0001:00018c60       ??1SsdpListenerUnicast@Net@OpenHome@@UAE@XZ 10019c60 f   Discovery.obj
 0001:00018da0       ?Run@SsdpListenerUnicast@Net@OpenHome@@EAEXXZ 10019da0 f   Discovery.obj
 0001:000194d0       ?MsearchRoot@SsdpListenerUnicast@Net@OpenHome@@QAEXXZ 1001a4d0 f   Discovery.obj
 0001:00019510       ?MsearchUuid@SsdpListenerUnicast@Net@OpenHome@@QAEXABVBrx@3@@Z 1001a510 f   Discovery.obj
 0001:00019550       ?MsearchDeviceType@SsdpListenerUnicast@Net@OpenHome@@QAEXABVBrx@3@0I@Z 1001a550 f   Discovery.obj
 0001:000195a0       ?MsearchServiceType@SsdpListenerUnicast@Net@OpenHome@@QAEXABVBrx@3@0I@Z 1001a5a0 f   Discovery.obj
 0001:000195f0       ?MsearchAll@SsdpListenerUnicast@Net@OpenHome@@QAEXXZ 1001a5f0 f   Discovery.obj
 0001:00019630       ?MsearchDurationSeconds@SsdpListenerUnicast@Net@OpenHome@@ABEIXZ 1001a630 f   Discovery.obj
 0001:0001a190       ??1IReaderSource@OpenHome@@UAE@XZ 1001b190 f i Discovery.obj
 0001:0001a1c0       ??_EIReaderSource@OpenHome@@UAEPAXI@Z 1001b1c0 f i Discovery.obj
 0001:0001a1c0       ??_GIReaderSource@OpenHome@@UAEPAXI@Z 1001b1c0 f i Discovery.obj
 0001:0001a210       ??_ESsdpSocketReader@Net@OpenHome@@UAEPAXI@Z 1001b210 f i Discovery.obj
 0001:0001a210       ??_GSsdpSocketReader@Net@OpenHome@@UAEPAXI@Z 1001b210 f i Discovery.obj
 0001:0001a260       ??0IReaderSource@OpenHome@@QAE@XZ 1001b260 f i Discovery.obj
 0001:0001a290       ??_GSsdpListener@Net@OpenHome@@UAEPAXI@Z 1001b290 f i Discovery.obj
 0001:0001a290       ??_ESsdpListener@Net@OpenHome@@UAEPAXI@Z 1001b290 f i Discovery.obj
 0001:0001a2e0       ??0SsdpHeaderCacheControl@Net@OpenHome@@QAE@XZ 1001b2e0 f i Discovery.obj
 0001:0001a320       ??1SsdpHeaderCacheControl@Net@OpenHome@@UAE@XZ 1001b320 f i Discovery.obj
 0001:0001a350       ??0HttpHeaderLocation@OpenHome@@QAE@XZ 1001b350 f i Discovery.obj
 0001:0001a3e0       ??1HttpHeaderLocation@OpenHome@@UAE@XZ 1001b3e0 f i Discovery.obj
 0001:0001a460       ??0SsdpHeaderServer@Net@OpenHome@@QAE@XZ 1001b460 f i Discovery.obj
 0001:0001a4a0       ??1SsdpHeaderServer@Net@OpenHome@@UAE@XZ 1001b4a0 f i Discovery.obj
 0001:0001a4d0       ??0SsdpHeaderSt@Net@OpenHome@@QAE@XZ 1001b4d0 f i Discovery.obj
 0001:0001a590       ??1SsdpHeaderSt@Net@OpenHome@@UAE@XZ 1001b590 f i Discovery.obj
 0001:0001a640       ??0SsdpHeaderUsn@Net@OpenHome@@QAE@XZ 1001b640 f i Discovery.obj
 0001:0001a700       ??1SsdpListener@Net@OpenHome@@UAE@XZ 1001b700 f i Discovery.obj
 0001:0001a7e0       ??1SsdpHeaderUsn@Net@OpenHome@@UAE@XZ 1001b7e0 f i Discovery.obj
 0001:0001a890       ??_GSsdpHeaderCacheControl@Net@OpenHome@@UAEPAXI@Z 1001b890 f i Discovery.obj
 0001:0001a890       ??_ESsdpHeaderCacheControl@Net@OpenHome@@UAEPAXI@Z 1001b890 f i Discovery.obj
 0001:0001a8e0       ??1HttpHeader@OpenHome@@UAE@XZ 1001b8e0 f i Discovery.obj
 0001:0001a910       ??1IHttpHeader@OpenHome@@UAE@XZ 1001b910 f i Discovery.obj
 0001:0001a940       ??_EIHttpHeader@OpenHome@@UAEPAXI@Z 1001b940 f i Discovery.obj
 0001:0001a940       ??_GIHttpHeader@OpenHome@@UAEPAXI@Z 1001b940 f i Discovery.obj
 0001:0001a990       ??_GHttpHeaderLocation@OpenHome@@UAEPAXI@Z 1001b990 f i Discovery.obj
 0001:0001a990       ??_EHttpHeaderLocation@OpenHome@@UAEPAXI@Z 1001b990 f i Discovery.obj
 0001:0001a9e0       ??1?$Bws@$0DOI@@OpenHome@@UAE@XZ 1001b9e0 f i Discovery.obj
 0001:0001aa10       ??_ESsdpHeaderServer@Net@OpenHome@@UAEPAXI@Z 1001ba10 f i Discovery.obj
 0001:0001aa10       ??_GSsdpHeaderServer@Net@OpenHome@@UAEPAXI@Z 1001ba10 f i Discovery.obj
 0001:0001aa60       ??_GSsdpHeaderSt@Net@OpenHome@@UAEPAXI@Z 1001ba60 f i Discovery.obj
 0001:0001aa60       ??_ESsdpHeaderSt@Net@OpenHome@@UAEPAXI@Z 1001ba60 f i Discovery.obj
 0001:0001aab0       ??1?$Bws@$0EA@@OpenHome@@UAE@XZ 1001bab0 f i Discovery.obj
 0001:0001aae0       ??_GSsdpHeaderUsn@Net@OpenHome@@UAEPAXI@Z 1001bae0 f i Discovery.obj
 0001:0001aae0       ??_ESsdpHeaderUsn@Net@OpenHome@@UAEPAXI@Z 1001bae0 f i Discovery.obj
 0001:0001ab30       ??_GSsdpListenerMulticast@Net@OpenHome@@UAEPAXI@Z 1001bb30 f i Discovery.obj
 0001:0001ab30       ??_ESsdpListenerMulticast@Net@OpenHome@@UAEPAXI@Z 1001bb30 f i Discovery.obj
 0001:0001ab80       ??1?$Srs@$0EAA@@OpenHome@@UAE@XZ 1001bb80 f i Discovery.obj
 0001:0001abb0       ??1ReaderHttpRequest@OpenHome@@QAE@XZ 1001bbb0 f i Discovery.obj
 0001:0001ac50       ??0SsdpHeaderHost@Net@OpenHome@@QAE@XZ 1001bc50 f i Discovery.obj
 0001:0001ac90       ??1SsdpHeaderHost@Net@OpenHome@@UAE@XZ 1001bc90 f i Discovery.obj
 0001:0001acc0       ??0SsdpHeaderMan@Net@OpenHome@@QAE@XZ 1001bcc0 f i Discovery.obj
 0001:0001ad00       ??1SsdpHeaderMan@Net@OpenHome@@UAE@XZ 1001bd00 f i Discovery.obj
 0001:0001ad30       ??0SsdpHeaderMx@Net@OpenHome@@QAE@XZ 1001bd30 f i Discovery.obj
 0001:0001ad70       ??1SsdpHeaderMx@Net@OpenHome@@UAE@XZ 1001bd70 f i Discovery.obj
 0001:0001ada0       ??0SsdpHeaderNt@Net@OpenHome@@QAE@XZ 1001bda0 f i Discovery.obj
 0001:0001ae60       ??1SsdpHeaderNt@Net@OpenHome@@UAE@XZ 1001be60 f i Discovery.obj
 0001:0001af10       ??0SsdpHeaderNts@Net@OpenHome@@QAE@XZ 1001bf10 f i Discovery.obj
 0001:0001af50       ??1SsdpHeaderNts@Net@OpenHome@@UAE@XZ 1001bf50 f i Discovery.obj
 0001:0001af80       ??1Srx@OpenHome@@UAE@XZ    1001bf80 f i Discovery.obj
 0001:0001b000       ??1ReaderHttpHeader@OpenHome@@QAE@XZ 1001c000 f i Discovery.obj
 0001:0001b030       ??1?$Bws@$0MI@@OpenHome@@UAE@XZ 1001c030 f i Discovery.obj
 0001:0001b060       ??_ESsdpHeaderHost@Net@OpenHome@@UAEPAXI@Z 1001c060 f i Discovery.obj
 0001:0001b060       ??_GSsdpHeaderHost@Net@OpenHome@@UAEPAXI@Z 1001c060 f i Discovery.obj
 0001:0001b0b0       ??_GSsdpHeaderMan@Net@OpenHome@@UAEPAXI@Z 1001c0b0 f i Discovery.obj
 0001:0001b0b0       ??_ESsdpHeaderMan@Net@OpenHome@@UAEPAXI@Z 1001c0b0 f i Discovery.obj
 0001:0001b100       ??_GSsdpHeaderMx@Net@OpenHome@@UAEPAXI@Z 1001c100 f i Discovery.obj
 0001:0001b100       ??_ESsdpHeaderMx@Net@OpenHome@@UAEPAXI@Z 1001c100 f i Discovery.obj
 0001:0001b150       ??_ESsdpHeaderNt@Net@OpenHome@@UAEPAXI@Z 1001c150 f i Discovery.obj
 0001:0001b150       ??_GSsdpHeaderNt@Net@OpenHome@@UAEPAXI@Z 1001c150 f i Discovery.obj
 0001:0001b1a0       ??_ESsdpHeaderNts@Net@OpenHome@@UAEPAXI@Z 1001c1a0 f i Discovery.obj
 0001:0001b1a0       ??_GSsdpHeaderNts@Net@OpenHome@@UAEPAXI@Z 1001c1a0 f i Discovery.obj
 0001:0001b1f0       ??8Brx@OpenHome@@QBE_NABV01@@Z 1001c1f0 f i Discovery.obj
 0001:0001b230       ?Mutex@Handler@SsdpListenerMulticast@Net@OpenHome@@QAEAAV04@XZ 1001c230 f i Discovery.obj
 0001:0001b250       ?IsDisabled@Handler@SsdpListenerMulticast@Net@OpenHome@@QBE_NXZ 1001c250 f i Discovery.obj
 0001:0001b270       ?Handler@MsearchHandler@SsdpListenerMulticast@Net@OpenHome@@QAEPAVISsdpMsearchHandler@34@XZ 1001c270 f i Discovery.obj
 0001:0001b290       ?Handler@NotifyHandler@SsdpListenerMulticast@Net@OpenHome@@QAEPAVISsdpNotifyHandler@34@XZ 1001c290 f i Discovery.obj
 0001:0001b2b0       ??0NotifyHandler@SsdpListenerMulticast@Net@OpenHome@@QAE@PAVISsdpNotifyHandler@23@H@Z 1001c2b0 f i Discovery.obj
 0001:0001b300       ??0Handler@SsdpListenerMulticast@Net@OpenHome@@IAE@H@Z 1001c300 f i Discovery.obj
 0001:0001b350       ??0MsearchHandler@SsdpListenerMulticast@Net@OpenHome@@QAE@PAVISsdpMsearchHandler@23@H@Z 1001c350 f i Discovery.obj
 0001:0001b3a0       ?Id@Handler@SsdpListenerMulticast@Net@OpenHome@@QBEHXZ 1001c3a0 f i Discovery.obj
 0001:0001b3c0       ?Lock@Handler@SsdpListenerMulticast@Net@OpenHome@@QAEXXZ 1001c3c0 f i Discovery.obj
 0001:0001b3f0       ?Unlock@Handler@SsdpListenerMulticast@Net@OpenHome@@QAEXXZ 1001c3f0 f i Discovery.obj
 0001:0001b420       ?Disable@Handler@SsdpListenerMulticast@Net@OpenHome@@QAEXXZ 1001c420 f i Discovery.obj
 0001:0001b440       ??1?$_Vector_iterator@V?$_Vector_val@PAVNotifyHandler@SsdpListenerMulticast@Net@OpenHome@@V?$allocator@PAVNotifyHandler@SsdpListenerMulticast@Net@OpenHome@@@std@@@std@@@std@@QAE@XZ 1001c440 f i Discovery.obj
 0001:0001b470       ??_GNotifyHandler@SsdpListenerMulticast@Net@OpenHome@@QAEPAXI@Z 1001c470 f i Discovery.obj
 0001:0001b4c0       ??0?$_Vector_const_iterator@V?$_Vector_val@PAVNotifyHandler@SsdpListenerMulticast@Net@OpenHome@@V?$allocator@PAVNotifyHandler@SsdpListenerMulticast@Net@OpenHome@@@std@@@std@@@std@@QAE@ABV01@@Z 1001c4c0 f i Discovery.obj
 0001:0001b510       ??1?$_Vector_const_iterator@V?$_Vector_val@PAVNotifyHandler@SsdpListenerMulticast@Net@OpenHome@@V?$allocator@PAVNotifyHandler@SsdpListenerMulticast@Net@OpenHome@@@std@@@std@@@std@@QAE@XZ 1001c510 f i Discovery.obj
 0001:0001b540       ??4?$_Vector_iterator@V?$_Vector_val@PAVNotifyHandler@SsdpListenerMulticast@Net@OpenHome@@V?$allocator@PAVNotifyHandler@SsdpListenerMulticast@Net@OpenHome@@@std@@@std@@@std@@QAEAAV01@ABV01@@Z 1001c540 f i Discovery.obj
 0001:0001b580       ??1NotifyHandler@SsdpListenerMulticast@Net@OpenHome@@QAE@XZ 1001c580 f i Discovery.obj
 0001:0001b5b0       ??1Handler@SsdpListenerMulticast@Net@OpenHome@@QAE@XZ 1001c5b0 f i Discovery.obj
 0001:0001b5e0       ??0?$_Iterator012@Urandom_access_iterator_tag@std@@PAVNotifyHandler@SsdpListenerMulticast@Net@OpenHome@@HPBQAV3456@ABQAV3456@U_Iterator_base12@2@@std@@QAE@ABU01@@Z 1001c5e0 f i Discovery.obj
 0001:0001b620       ??0_Iterator_base12@std@@QAE@ABU01@@Z 1001c620 f i Discovery.obj
 0001:0001b670       ??4_Iterator_base12@std@@QAEAAU01@ABU01@@Z 1001c670 f i Discovery.obj
 0001:0001b6c0       ?_Adopt@_Iterator_base12@std@@QAEXPBU_Container_base12@2@@Z 1001c6c0 f i Discovery.obj
 0001:0001b7e0       ?_Orphan_me@_Iterator_base12@std@@QAEXXZ 1001c7e0 f i Discovery.obj
 0001:0001b890       ??1?$_Iterator012@Urandom_access_iterator_tag@std@@PAVNotifyHandler@SsdpListenerMulticast@Net@OpenHome@@HPBQAV3456@ABQAV3456@U_Iterator_base12@2@@std@@QAE@XZ 1001c890 f i Discovery.obj
 0001:0001b8c0       ??1_Iterator_base12@std@@QAE@XZ 1001c8c0 f i Discovery.obj
 0001:0001b990       ??4?$_Vector_const_iterator@V?$_Vector_val@PAVNotifyHandler@SsdpListenerMulticast@Net@OpenHome@@V?$allocator@PAVNotifyHandler@SsdpListenerMulticast@Net@OpenHome@@@std@@@std@@@std@@QAEAAV01@ABV01@@Z 1001c990 f i Discovery.obj
 0001:0001b9e0       ??4?$_Iterator012@Urandom_access_iterator_tag@std@@PAVNotifyHandler@SsdpListenerMulticast@Net@OpenHome@@HPBQAV3456@ABQAV3456@U_Iterator_base12@2@@std@@QAEAAU01@ABU01@@Z 1001c9e0 f i Discovery.obj
 0001:0001ba20       ??1?$_Vector_iterator@V?$_Vector_val@PAVMsearchHandler@SsdpListenerMulticast@Net@OpenHome@@V?$allocator@PAVMsearchHandler@SsdpListenerMulticast@Net@OpenHome@@@std@@@std@@@std@@QAE@XZ 1001ca20 f i Discovery.obj
 0001:0001ba50       ??_GMsearchHandler@SsdpListenerMulticast@Net@OpenHome@@QAEPAXI@Z 1001ca50 f i Discovery.obj
 0001:0001baa0       ??0?$_Vector_const_iterator@V?$_Vector_val@PAVMsearchHandler@SsdpListenerMulticast@Net@OpenHome@@V?$allocator@PAVMsearchHandler@SsdpListenerMulticast@Net@OpenHome@@@std@@@std@@@std@@QAE@ABV01@@Z 1001caa0 f i Discovery.obj
 0001:0001baf0       ??1?$_Vector_const_iterator@V?$_Vector_val@PAVMsearchHandler@SsdpListenerMulticast@Net@OpenHome@@V?$allocator@PAVMsearchHandler@SsdpListenerMulticast@Net@OpenHome@@@std@@@std@@@std@@QAE@XZ 1001caf0 f i Discovery.obj
 0001:0001bb20       ??4?$_Vector_iterator@V?$_Vector_val@PAVMsearchHandler@SsdpListenerMulticast@Net@OpenHome@@V?$allocator@PAVMsearchHandler@SsdpListenerMulticast@Net@OpenHome@@@std@@@std@@@std@@QAEAAV01@ABV01@@Z 1001cb20 f i Discovery.obj
 0001:0001bb60       ??1MsearchHandler@SsdpListenerMulticast@Net@OpenHome@@QAE@XZ 1001cb60 f i Discovery.obj
 0001:0001bb90       ??0?$_Iterator012@Urandom_access_iterator_tag@std@@PAVMsearchHandler@SsdpListenerMulticast@Net@OpenHome@@HPBQAV3456@ABQAV3456@U_Iterator_base12@2@@std@@QAE@ABU01@@Z 1001cb90 f i Discovery.obj
 0001:0001bbd0       ??1?$_Iterator012@Urandom_access_iterator_tag@std@@PAVMsearchHandler@SsdpListenerMulticast@Net@OpenHome@@HPBQAV3456@ABQAV3456@U_Iterator_base12@2@@std@@QAE@XZ 1001cbd0 f i Discovery.obj
 0001:0001bc00       ??4?$_Vector_const_iterator@V?$_Vector_val@PAVMsearchHandler@SsdpListenerMulticast@Net@OpenHome@@V?$allocator@PAVMsearchHandler@SsdpListenerMulticast@Net@OpenHome@@@std@@@std@@@std@@QAEAAV01@ABV01@@Z 1001cc00 f i Discovery.obj
 0001:0001bc50       ??4?$_Iterator012@Urandom_access_iterator_tag@std@@PAVMsearchHandler@SsdpListenerMulticast@Net@OpenHome@@HPBQAV3456@ABQAV3456@U_Iterator_base12@2@@std@@QAEAAU01@ABU01@@Z 1001cc50 f i Discovery.obj
 0001:0001bc90       ??_GSsdpListenerUnicast@Net@OpenHome@@UAEPAXI@Z 1001cc90 f i Discovery.obj
 0001:0001bc90       ??_ESsdpListenerUnicast@Net@OpenHome@@UAEPAXI@Z 1001cc90 f i Discovery.obj
 0001:0001bce0       ??1UdpWriter@OpenHome@@UAE@XZ 1001cce0 f i Discovery.obj
 0001:0001bd10       ??1UdpReader@OpenHome@@UAE@XZ 1001cd10 f i Discovery.obj
 0001:0001bd40       ??1?$Sws@$0EAA@@OpenHome@@UAE@XZ 1001cd40 f i Discovery.obj
 0001:0001bd70       ??1SsdpWriterMsearchRequest@Net@OpenHome@@QAE@XZ 1001cd70 f i Discovery.obj
 0001:0001bda0       ??1ReaderHttpResponse@OpenHome@@QAE@XZ 1001cda0 f i Discovery.obj
 0001:0001be40       ??0SsdpHeaderExt@Net@OpenHome@@QAE@XZ 1001ce40 f i Discovery.obj
 0001:0001be80       ??1SsdpHeaderExt@Net@OpenHome@@UAE@XZ 1001ce80 f i Discovery.obj
 0001:0001beb0       ??1Swx@OpenHome@@UAE@XZ    1001ceb0 f i Discovery.obj
 0001:0001bf30       ??1WriterHttpRequest@OpenHome@@UAE@XZ 1001cf30 f i Discovery.obj
 0001:0001bfb0       ??1IWriterHttpMethod@OpenHome@@UAE@XZ 1001cfb0 f i Discovery.obj
 0001:0001bfe0       ??_EIWriterHttpMethod@OpenHome@@UAEPAXI@Z 1001cfe0 f i Discovery.obj
 0001:0001bfe0       ??_GIWriterHttpMethod@OpenHome@@UAEPAXI@Z 1001cfe0 f i Discovery.obj
 0001:0001c030       ??1StatusWritable@ReaderHttpResponse@OpenHome@@QAE@XZ 1001d030 f i Discovery.obj
 0001:0001c060       ??1?$Bws@$0GE@@OpenHome@@UAE@XZ 1001d060 f i Discovery.obj
 0001:0001c090       ??_ESsdpHeaderExt@Net@OpenHome@@UAEPAXI@Z 1001d090 f i Discovery.obj
 0001:0001c090       ??_GSsdpHeaderExt@Net@OpenHome@@UAEPAXI@Z 1001d090 f i Discovery.obj
 0001:0001c0e0       ??1WriterHttpHeader@OpenHome@@UAE@XZ 1001d0e0 f i Discovery.obj
 0001:0001c160       ??1IWriterHttpHeader@OpenHome@@UAE@XZ 1001d160 f i Discovery.obj
 0001:0001c1a0       ??_GIWriterHttpHeader@OpenHome@@UAEPAXI@Z 1001d1a0 f i Discovery.obj
 0001:0001c1a0       ??_EIWriterHttpHeader@OpenHome@@UAEPAXI@Z 1001d1a0 f i Discovery.obj
 0001:0001c1f0       ??1HttpStatus@OpenHome@@QAE@XZ 1001d1f0 f i Discovery.obj
 0001:0001c220       ??1WriterHttpField@OpenHome@@UAE@XZ 1001d220 f i Discovery.obj
 0001:0001c250       ??1?$vector@PAVIHttpHeader@OpenHome@@V?$allocator@PAVIHttpHeader@OpenHome@@@std@@@std@@QAE@XZ 1001d250 f i Discovery.obj
 0001:0001c2d0       ??1?$vector@PBVBrx@OpenHome@@V?$allocator@PBVBrx@OpenHome@@@std@@@std@@QAE@XZ 1001d2d0 f i Discovery.obj
 0001:0001c350       ??0?$Sws@$0EAA@@OpenHome@@QAE@AAVIWriter@1@@Z 1001d350 f i Discovery.obj
 0001:0001c3b0       ?Ptr@?$Sws@$0EAA@@OpenHome@@EAEPAEXZ 1001d3b0 f i Discovery.obj
 0001:0001c3d0       ??0?$vector@PAVNotifyHandler@SsdpListenerMulticast@Net@OpenHome@@V?$allocator@PAVNotifyHandler@SsdpListenerMulticast@Net@OpenHome@@@std@@@std@@QAE@XZ 1001d3d0 f i Discovery.obj
 0001:0001c420       ??1?$vector@PAVNotifyHandler@SsdpListenerMulticast@Net@OpenHome@@V?$allocator@PAVNotifyHandler@SsdpListenerMulticast@Net@OpenHome@@@std@@@std@@QAE@XZ 1001d420 f i Discovery.obj
 0001:0001c4a0       ?begin@?$vector@PAVNotifyHandler@SsdpListenerMulticast@Net@OpenHome@@V?$allocator@PAVNotifyHandler@SsdpListenerMulticast@Net@OpenHome@@@std@@@std@@QAE?AV?$_Vector_iterator@V?$_Vector_val@PAVNotifyHandler@SsdpListenerMulticast@Net@OpenHome@@V?$allocator@PAVNotifyHandler@SsdpListenerMulticast@Net@OpenHome@@@std@@@std@@@2@XZ 1001d4a0 f i Discovery.obj
 0001:0001c500       ?end@?$vector@PAVNotifyHandler@SsdpListenerMulticast@Net@OpenHome@@V?$allocator@PAVNotifyHandler@SsdpListenerMulticast@Net@OpenHome@@@std@@@std@@QAE?AV?$_Vector_iterator@V?$_Vector_val@PAVNotifyHandler@SsdpListenerMulticast@Net@OpenHome@@V?$allocator@PAVNotifyHandler@SsdpListenerMulticast@Net@OpenHome@@@std@@@std@@@2@XZ 1001d500 f i Discovery.obj
 0001:0001c560       ?size@?$vector@PAVNotifyHandler@SsdpListenerMulticast@Net@OpenHome@@V?$allocator@PAVNotifyHandler@SsdpListenerMulticast@Net@OpenHome@@@std@@@std@@QBEIXZ 1001d560 f i Discovery.obj
 0001:0001c590       ??A?$vector@PAVNotifyHandler@SsdpListenerMulticast@Net@OpenHome@@V?$allocator@PAVNotifyHandler@SsdpListenerMulticast@Net@OpenHome@@@std@@@std@@QAEAAPAVNotifyHandler@SsdpListenerMulticast@Net@OpenHome@@I@Z 1001d590 f i Discovery.obj
 0001:0001c650       ?push_back@?$vector@PAVNotifyHandler@SsdpListenerMulticast@Net@OpenHome@@V?$allocator@PAVNotifyHandler@SsdpListenerMulticast@Net@OpenHome@@@std@@@std@@QAEXABQAVNotifyHandler@SsdpListenerMulticast@Net@OpenHome@@@Z 1001d650 f i Discovery.obj
 0001:0001c7a0       ?erase@?$vector@PAVNotifyHandler@SsdpListenerMulticast@Net@OpenHome@@V?$allocator@PAVNotifyHandler@SsdpListenerMulticast@Net@OpenHome@@@std@@@std@@QAE?AV?$_Vector_iterator@V?$_Vector_val@PAVNotifyHandler@SsdpListenerMulticast@Net@OpenHome@@V?$allocator@PAVNotifyHandler@SsdpListenerMulticast@Net@OpenHome@@@std@@@std@@@2@V?$_Vector_const_iterator@V?$_Vector_val@PAVNotifyHandler@SsdpListenerMulticast@Net@OpenHome@@V?$allocator@PAVNotifyHandler@SsdpListenerMulticast@Net@OpenHome@@@std@@@std@@@2@@Z 1001d7a0 f i Discovery.obj
 0001:0001c920       ?_Getcont@_Iterator_base12@std@@QBEPBU_Container_base12@2@XZ 1001d920 f i Discovery.obj
 0001:0001c970       ??0?$vector@PAVMsearchHandler@SsdpListenerMulticast@Net@OpenHome@@V?$allocator@PAVMsearchHandler@SsdpListenerMulticast@Net@OpenHome@@@std@@@std@@QAE@XZ 1001d970 f i Discovery.obj
 0001:0001c9c0       ??1?$vector@PAVMsearchHandler@SsdpListenerMulticast@Net@OpenHome@@V?$allocator@PAVMsearchHandler@SsdpListenerMulticast@Net@OpenHome@@@std@@@std@@QAE@XZ 1001d9c0 f i Discovery.obj
 0001:0001ca40       ?begin@?$vector@PAVMsearchHandler@SsdpListenerMulticast@Net@OpenHome@@V?$allocator@PAVMsearchHandler@SsdpListenerMulticast@Net@OpenHome@@@std@@@std@@QAE?AV?$_Vector_iterator@V?$_Vector_val@PAVMsearchHandler@SsdpListenerMulticast@Net@OpenHome@@V?$allocator@PAVMsearchHandler@SsdpListenerMulticast@Net@OpenHome@@@std@@@std@@@2@XZ 1001da40 f i Discovery.obj
 0001:0001caa0       ?end@?$vector@PAVMsearchHandler@SsdpListenerMulticast@Net@OpenHome@@V?$allocator@PAVMsearchHandler@SsdpListenerMulticast@Net@OpenHome@@@std@@@std@@QAE?AV?$_Vector_iterator@V?$_Vector_val@PAVMsearchHandler@SsdpListenerMulticast@Net@OpenHome@@V?$allocator@PAVMsearchHandler@SsdpListenerMulticast@Net@OpenHome@@@std@@@std@@@2@XZ 1001daa0 f i Discovery.obj
 0001:0001cb00       ?size@?$vector@PAVMsearchHandler@SsdpListenerMulticast@Net@OpenHome@@V?$allocator@PAVMsearchHandler@SsdpListenerMulticast@Net@OpenHome@@@std@@@std@@QBEIXZ 1001db00 f i Discovery.obj
 0001:0001cb30       ??A?$vector@PAVMsearchHandler@SsdpListenerMulticast@Net@OpenHome@@V?$allocator@PAVMsearchHandler@SsdpListenerMulticast@Net@OpenHome@@@std@@@std@@QAEAAPAVMsearchHandler@SsdpListenerMulticast@Net@OpenHome@@I@Z 1001db30 f i Discovery.obj
 0001:0001cbf0       ?push_back@?$vector@PAVMsearchHandler@SsdpListenerMulticast@Net@OpenHome@@V?$allocator@PAVMsearchHandler@SsdpListenerMulticast@Net@OpenHome@@@std@@@std@@QAEXABQAVMsearchHandler@SsdpListenerMulticast@Net@OpenHome@@@Z 1001dbf0 f i Discovery.obj
 0001:0001cd40       ?erase@?$vector@PAVMsearchHandler@SsdpListenerMulticast@Net@OpenHome@@V?$allocator@PAVMsearchHandler@SsdpListenerMulticast@Net@OpenHome@@@std@@@std@@QAE?AV?$_Vector_iterator@V?$_Vector_val@PAVMsearchHandler@SsdpListenerMulticast@Net@OpenHome@@V?$allocator@PAVMsearchHandler@SsdpListenerMulticast@Net@OpenHome@@@std@@@std@@@2@V?$_Vector_const_iterator@V?$_Vector_val@PAVMsearchHandler@SsdpListenerMulticast@Net@OpenHome@@V?$allocator@PAVMsearchHandler@SsdpListenerMulticast@Net@OpenHome@@@std@@@std@@@2@@Z 1001dd40 f i Discovery.obj
 0001:0001cec0       ??0?$Srs@$0EAA@@OpenHome@@QAE@AAVIReaderSource@1@@Z 1001dec0 f i Discovery.obj
 0001:0001cf20       ?Ptr@?$Srs@$0EAA@@OpenHome@@EAEPAEXZ 1001df20 f i Discovery.obj
 0001:0001cf40       ??D?$_Vector_iterator@V?$_Vector_val@PAVNotifyHandler@SsdpListenerMulticast@Net@OpenHome@@V?$allocator@PAVNotifyHandler@SsdpListenerMulticast@Net@OpenHome@@@std@@@std@@@std@@QBEAAPAVNotifyHandler@SsdpListenerMulticast@Net@OpenHome@@XZ 1001df40 f i Discovery.obj
 0001:0001cf70       ??E?$_Vector_iterator@V?$_Vector_val@PAVNotifyHandler@SsdpListenerMulticast@Net@OpenHome@@V?$allocator@PAVNotifyHandler@SsdpListenerMulticast@Net@OpenHome@@@std@@@std@@@std@@QAE?AV01@H@Z 1001df70 f i Discovery.obj
 0001:0001d070       ??9?$_Vector_const_iterator@V?$_Vector_val@PAVNotifyHandler@SsdpListenerMulticast@Net@OpenHome@@V?$allocator@PAVNotifyHandler@SsdpListenerMulticast@Net@OpenHome@@@std@@@std@@@std@@QBE_NABV01@@Z 1001e070 f i Discovery.obj
 0001:0001d0c0       ??D?$_Vector_iterator@V?$_Vector_val@PAVMsearchHandler@SsdpListenerMulticast@Net@OpenHome@@V?$allocator@PAVMsearchHandler@SsdpListenerMulticast@Net@OpenHome@@@std@@@std@@@std@@QBEAAPAVMsearchHandler@SsdpListenerMulticast@Net@OpenHome@@XZ 1001e0c0 f i Discovery.obj
 0001:0001d0f0       ??E?$_Vector_iterator@V?$_Vector_val@PAVMsearchHandler@SsdpListenerMulticast@Net@OpenHome@@V?$allocator@PAVMsearchHandler@SsdpListenerMulticast@Net@OpenHome@@@std@@@std@@@std@@QAE?AV01@H@Z 1001e0f0 f i Discovery.obj
 0001:0001d1f0       ??9?$_Vector_const_iterator@V?$_Vector_val@PAVMsearchHandler@SsdpListenerMulticast@Net@OpenHome@@V?$allocator@PAVMsearchHandler@SsdpListenerMulticast@Net@OpenHome@@@std@@@std@@@std@@QBE_NABV01@@Z 1001e1f0 f i Discovery.obj
 0001:0001d240       ??_E?$Sws@$0EAA@@OpenHome@@UAEPAXI@Z 1001e240 f i Discovery.obj
 0001:0001d240       ??_G?$Sws@$0EAA@@OpenHome@@UAEPAXI@Z 1001e240 f i Discovery.obj
 0001:0001d290       ??_G?$Srs@$0EAA@@OpenHome@@UAEPAXI@Z 1001e290 f i Discovery.obj
 0001:0001d290       ??_E?$Srs@$0EAA@@OpenHome@@UAEPAXI@Z 1001e290 f i Discovery.obj
 0001:0001d2e0       ??0?$_Vector_iterator@V?$_Vector_val@PAVNotifyHandler@SsdpListenerMulticast@Net@OpenHome@@V?$allocator@PAVNotifyHandler@SsdpListenerMulticast@Net@OpenHome@@@std@@@std@@@std@@QAE@ABV01@@Z 1001e2e0 f i Discovery.obj
 0001:0001d320       ??0?$_Vector_iterator@V?$_Vector_val@PAVMsearchHandler@SsdpListenerMulticast@Net@OpenHome@@V?$allocator@PAVMsearchHandler@SsdpListenerMulticast@Net@OpenHome@@@std@@@std@@@std@@QAE@ABV01@@Z 1001e320 f i Discovery.obj
 0001:0001d360       ?_Tidy@?$vector@PAVIHttpHeader@OpenHome@@V?$allocator@PAVIHttpHeader@OpenHome@@@std@@@std@@IAEXXZ 1001e360 f i Discovery.obj
 0001:0001d410       ?_Orphan_all@_Container_base12@std@@QAEXXZ 1001e410 f i Discovery.obj
 0001:0001d4f0       ??1?$_Vector_val@PAVIHttpHeader@OpenHome@@V?$allocator@PAVIHttpHeader@OpenHome@@@std@@@std@@QAE@XZ 1001e4f0 f i Discovery.obj
 0001:0001d600       ??1_Container_base12@std@@QAE@XZ 1001e600 f i Discovery.obj
 0001:0001d630       ?_Tidy@?$vector@PBVBrx@OpenHome@@V?$allocator@PBVBrx@OpenHome@@@std@@@std@@IAEXXZ 1001e630 f i Discovery.obj
 0001:0001d6e0       ??1?$_Vector_val@PBVBrx@OpenHome@@V?$allocator@PBVBrx@OpenHome@@@std@@@std@@QAE@XZ 1001e6e0 f i Discovery.obj
 0001:0001d7f0       ?_Make_iter@?$vector@PAVNotifyHandler@SsdpListenerMulticast@Net@OpenHome@@V?$allocator@PAVNotifyHandler@SsdpListenerMulticast@Net@OpenHome@@@std@@@std@@QBE?AV?$_Vector_iterator@V?$_Vector_val@PAVNotifyHandler@SsdpListenerMulticast@Net@OpenHome@@V?$allocator@PAVNotifyHandler@SsdpListenerMulticast@Net@OpenHome@@@std@@@std@@@2@V?$_Vector_const_iterator@V?$_Vector_val@PAVNotifyHandler@SsdpListenerMulticast@Net@OpenHome@@V?$allocator@PAVNotifyHandler@SsdpListenerMulticast@Net@OpenHome@@@std@@@std@@@2@@Z 1001e7f0 f i Discovery.obj
 0001:0001d8a0       ?_Destroy@?$vector@PAVNotifyHandler@SsdpListenerMulticast@Net@OpenHome@@V?$allocator@PAVNotifyHandler@SsdpListenerMulticast@Net@OpenHome@@@std@@@std@@IAEXPAPAVNotifyHandler@SsdpListenerMulticast@Net@OpenHome@@0@Z 1001e8a0 f i Discovery.obj
 0001:0001d8e0       ?_Inside@?$vector@PAVNotifyHandler@SsdpListenerMulticast@Net@OpenHome@@V?$allocator@PAVNotifyHandler@SsdpListenerMulticast@Net@OpenHome@@@std@@@std@@IBE_NPBQAVNotifyHandler@SsdpListenerMulticast@Net@OpenHome@@@Z 1001e8e0 f i Discovery.obj
 0001:0001d940       ?_Reserve@?$vector@PAVNotifyHandler@SsdpListenerMulticast@Net@OpenHome@@V?$allocator@PAVNotifyHandler@SsdpListenerMulticast@Net@OpenHome@@@std@@@std@@IAEXI@Z 1001e940 f i Discovery.obj
 0001:0001d9e0       ?_Tidy@?$vector@PAVNotifyHandler@SsdpListenerMulticast@Net@OpenHome@@V?$allocator@PAVNotifyHandler@SsdpListenerMulticast@Net@OpenHome@@@std@@@std@@IAEXXZ 1001e9e0 f i Discovery.obj
 0001:0001da90       ?_Orphan_range@?$vector@PAVNotifyHandler@SsdpListenerMulticast@Net@OpenHome@@V?$allocator@PAVNotifyHandler@SsdpListenerMulticast@Net@OpenHome@@@std@@@std@@IBEXPAPAVNotifyHandler@SsdpListenerMulticast@Net@OpenHome@@0@Z 1001ea90 f i Discovery.obj
 0001:0001dbe0       ?_Getpfirst@_Container_base12@std@@QBEPAPAU_Iterator_base12@2@XZ 1001ebe0 f i Discovery.obj
 0001:0001dc30       ?_Clrcont@_Iterator_base12@std@@QAEXXZ 1001ec30 f i Discovery.obj
 0001:0001dc60       ?_Getpnext@_Iterator_base12@std@@QAEPAPAU12@XZ 1001ec60 f i Discovery.obj
 0001:0001dc80       ??0?$_Vector_val@PAVNotifyHandler@SsdpListenerMulticast@Net@OpenHome@@V?$allocator@PAVNotifyHandler@SsdpListenerMulticast@Net@OpenHome@@@std@@@std@@QAE@V?$allocator@PAVNotifyHandler@SsdpListenerMulticast@Net@OpenHome@@@1@@Z 1001ec80 f i Discovery.obj
 0001:0001dde0       ??0_Container_proxy@std@@QAE@XZ 1001ede0 f i Discovery.obj
 0001:0001de20       ??0_Container_base12@std@@QAE@XZ 1001ee20 f i Discovery.obj
 0001:0001de50       ??1?$_Vector_val@PAVNotifyHandler@SsdpListenerMulticast@Net@OpenHome@@V?$allocator@PAVNotifyHandler@SsdpListenerMulticast@Net@OpenHome@@@std@@@std@@QAE@XZ 1001ee50 f i Discovery.obj
 0001:0001df60       ??0?$allocator@PAVNotifyHandler@SsdpListenerMulticast@Net@OpenHome@@@std@@QAE@XZ 1001ef60 f i Discovery.obj
 0001:0001df80       ?_Make_iter@?$vector@PAVMsearchHandler@SsdpListenerMulticast@Net@OpenHome@@V?$allocator@PAVMsearchHandler@SsdpListenerMulticast@Net@OpenHome@@@std@@@std@@QBE?AV?$_Vector_iterator@V?$_Vector_val@PAVMsearchHandler@SsdpListenerMulticast@Net@OpenHome@@V?$allocator@PAVMsearchHandler@SsdpListenerMulticast@Net@OpenHome@@@std@@@std@@@2@V?$_Vector_const_iterator@V?$_Vector_val@PAVMsearchHandler@SsdpListenerMulticast@Net@OpenHome@@V?$allocator@PAVMsearchHandler@SsdpListenerMulticast@Net@OpenHome@@@std@@@std@@@2@@Z 1001ef80 f i Discovery.obj
 0001:0001e030       ?_Destroy@?$vector@PAVMsearchHandler@SsdpListenerMulticast@Net@OpenHome@@V?$allocator@PAVMsearchHandler@SsdpListenerMulticast@Net@OpenHome@@@std@@@std@@IAEXPAPAVMsearchHandler@SsdpListenerMulticast@Net@OpenHome@@0@Z 1001f030 f i Discovery.obj
 0001:0001e070       ?_Inside@?$vector@PAVMsearchHandler@SsdpListenerMulticast@Net@OpenHome@@V?$allocator@PAVMsearchHandler@SsdpListenerMulticast@Net@OpenHome@@@std@@@std@@IBE_NPBQAVMsearchHandler@SsdpListenerMulticast@Net@OpenHome@@@Z 1001f070 f i Discovery.obj
 0001:0001e0d0       ?_Reserve@?$vector@PAVMsearchHandler@SsdpListenerMulticast@Net@OpenHome@@V?$allocator@PAVMsearchHandler@SsdpListenerMulticast@Net@OpenHome@@@std@@@std@@IAEXI@Z 1001f0d0 f i Discovery.obj
 0001:0001e170       ?_Tidy@?$vector@PAVMsearchHandler@SsdpListenerMulticast@Net@OpenHome@@V?$allocator@PAVMsearchHandler@SsdpListenerMulticast@Net@OpenHome@@@std@@@std@@IAEXXZ 1001f170 f i Discovery.obj
 0001:0001e220       ?_Orphan_range@?$vector@PAVMsearchHandler@SsdpListenerMulticast@Net@OpenHome@@V?$allocator@PAVMsearchHandler@SsdpListenerMulticast@Net@OpenHome@@@std@@@std@@IBEXPAPAVMsearchHandler@SsdpListenerMulticast@Net@OpenHome@@0@Z 1001f220 f i Discovery.obj
 0001:0001e370       ??0?$_Vector_val@PAVMsearchHandler@SsdpListenerMulticast@Net@OpenHome@@V?$allocator@PAVMsearchHandler@SsdpListenerMulticast@Net@OpenHome@@@std@@@std@@QAE@V?$allocator@PAVMsearchHandler@SsdpListenerMulticast@Net@OpenHome@@@1@@Z 1001f370 f i Discovery.obj
 0001:0001e4d0       ??1?$_Vector_val@PAVMsearchHandler@SsdpListenerMulticast@Net@OpenHome@@V?$allocator@PAVMsearchHandler@SsdpListenerMulticast@Net@OpenHome@@@std@@@std@@QAE@XZ 1001f4d0 f i Discovery.obj
 0001:0001e5e0       ??0?$allocator@PAVMsearchHandler@SsdpListenerMulticast@Net@OpenHome@@@std@@QAE@XZ 1001f5e0 f i Discovery.obj
 0001:0001e600       ??0?$_Vector_iterator@V?$_Vector_val@PAVNotifyHandler@SsdpListenerMulticast@Net@OpenHome@@V?$allocator@PAVNotifyHandler@SsdpListenerMulticast@Net@OpenHome@@@std@@@std@@@std@@QAE@PAPAVNotifyHandler@SsdpListenerMulticast@Net@OpenHome@@PBU_Container_base12@1@@Z 1001f600 f i Discovery.obj
 0001:0001e640       ??E?$_Vector_iterator@V?$_Vector_val@PAVNotifyHandler@SsdpListenerMulticast@Net@OpenHome@@V?$allocator@PAVNotifyHandler@SsdpListenerMulticast@Net@OpenHome@@@std@@@std@@@std@@QAEAAV01@XZ 1001f640 f i Discovery.obj
 0001:0001e670       ??D?$_Vector_const_iterator@V?$_Vector_val@PAVNotifyHandler@SsdpListenerMulticast@Net@OpenHome@@V?$allocator@PAVNotifyHandler@SsdpListenerMulticast@Net@OpenHome@@@std@@@std@@@std@@QBEABQAVNotifyHandler@SsdpListenerMulticast@Net@OpenHome@@XZ 1001f670 f i Discovery.obj
 0001:0001e760       ??8?$_Vector_const_iterator@V?$_Vector_val@PAVNotifyHandler@SsdpListenerMulticast@Net@OpenHome@@V?$allocator@PAVNotifyHandler@SsdpListenerMulticast@Net@OpenHome@@@std@@@std@@@std@@QBE_NABV01@@Z 1001f760 f i Discovery.obj
 0001:0001e7b0       ??0?$_Vector_iterator@V?$_Vector_val@PAVMsearchHandler@SsdpListenerMulticast@Net@OpenHome@@V?$allocator@PAVMsearchHandler@SsdpListenerMulticast@Net@OpenHome@@@std@@@std@@@std@@QAE@PAPAVMsearchHandler@SsdpListenerMulticast@Net@OpenHome@@PBU_Container_base12@1@@Z 1001f7b0 f i Discovery.obj
 0001:0001e7f0       ??E?$_Vector_iterator@V?$_Vector_val@PAVMsearchHandler@SsdpListenerMulticast@Net@OpenHome@@V?$allocator@PAVMsearchHandler@SsdpListenerMulticast@Net@OpenHome@@@std@@@std@@@std@@QAEAAV01@XZ 1001f7f0 f i Discovery.obj
 0001:0001e820       ??D?$_Vector_const_iterator@V?$_Vector_val@PAVMsearchHandler@SsdpListenerMulticast@Net@OpenHome@@V?$allocator@PAVMsearchHandler@SsdpListenerMulticast@Net@OpenHome@@@std@@@std@@@std@@QBEABQAVMsearchHandler@SsdpListenerMulticast@Net@OpenHome@@XZ 1001f820 f i Discovery.obj
 0001:0001e910       ??8?$_Vector_const_iterator@V?$_Vector_val@PAVMsearchHandler@SsdpListenerMulticast@Net@OpenHome@@V?$allocator@PAVMsearchHandler@SsdpListenerMulticast@Net@OpenHome@@@std@@@std@@@std@@QBE_NABV01@@Z 1001f910 f i Discovery.obj
 0001:0001e960       ?_Destroy@?$vector@PAVIHttpHeader@OpenHome@@V?$allocator@PAVIHttpHeader@OpenHome@@@std@@@std@@IAEXPAPAVIHttpHeader@OpenHome@@0@Z 1001f960 f i Discovery.obj
 0001:0001e9a0       ?deallocate@?$allocator@PAVIHttpHeader@OpenHome@@@std@@QAEXPAPAVIHttpHeader@OpenHome@@I@Z 1001f9a0 f i Discovery.obj
 0001:0001e9e0       ?_Destroy@?$vector@PBVBrx@OpenHome@@V?$allocator@PBVBrx@OpenHome@@@std@@@std@@IAEXPAPBVBrx@OpenHome@@0@Z 1001f9e0 f i Discovery.obj
 0001:0001ea20       ?deallocate@?$allocator@PBVBrx@OpenHome@@@std@@QAEXPAPBVBrx@OpenHome@@I@Z 1001fa20 f i Discovery.obj
 0001:0001ea60       ?reserve@?$vector@PAVNotifyHandler@SsdpListenerMulticast@Net@OpenHome@@V?$allocator@PAVNotifyHandler@SsdpListenerMulticast@Net@OpenHome@@@std@@@std@@QAEXI@Z 1001fa60 f i Discovery.obj
 0001:0001ec30       ?capacity@?$vector@PAVNotifyHandler@SsdpListenerMulticast@Net@OpenHome@@V?$allocator@PAVNotifyHandler@SsdpListenerMulticast@Net@OpenHome@@@std@@@std@@QBEIXZ 1001fc30 f i Discovery.obj
 0001:0001ec60       ?max_size@?$vector@PAVNotifyHandler@SsdpListenerMulticast@Net@OpenHome@@V?$allocator@PAVNotifyHandler@SsdpListenerMulticast@Net@OpenHome@@@std@@@std@@QBEIXZ 1001fc60 f i Discovery.obj
 0001:0001ec90       ?_Grow_to@?$vector@PAVNotifyHandler@SsdpListenerMulticast@Net@OpenHome@@V?$allocator@PAVNotifyHandler@SsdpListenerMulticast@Net@OpenHome@@@std@@@std@@IBEII@Z 1001fc90 f i Discovery.obj
 0001:0001ed30       ?_Xlen@?$vector@PAVNotifyHandler@SsdpListenerMulticast@Net@OpenHome@@V?$allocator@PAVNotifyHandler@SsdpListenerMulticast@Net@OpenHome@@@std@@@std@@IBEXXZ 1001fd30 f i Discovery.obj
 0001:0001ed60       ??0?$allocator@PAVNotifyHandler@SsdpListenerMulticast@Net@OpenHome@@@std@@QAE@ABV01@@Z 1001fd60 f i Discovery.obj
 0001:0001ed80       ?deallocate@?$allocator@PAVNotifyHandler@SsdpListenerMulticast@Net@OpenHome@@@std@@QAEXPAPAVNotifyHandler@SsdpListenerMulticast@Net@OpenHome@@I@Z 1001fd80 f i Discovery.obj
 0001:0001edc0       ?reserve@?$vector@PAVMsearchHandler@SsdpListenerMulticast@Net@OpenHome@@V?$allocator@PAVMsearchHandler@SsdpListenerMulticast@Net@OpenHome@@@std@@@std@@QAEXI@Z 1001fdc0 f i Discovery.obj
 0001:0001ef90       ?capacity@?$vector@PAVMsearchHandler@SsdpListenerMulticast@Net@OpenHome@@V?$allocator@PAVMsearchHandler@SsdpListenerMulticast@Net@OpenHome@@@std@@@std@@QBEIXZ 1001ff90 f i Discovery.obj
 0001:0001efc0       ?max_size@?$vector@PAVMsearchHandler@SsdpListenerMulticast@Net@OpenHome@@V?$allocator@PAVMsearchHandler@SsdpListenerMulticast@Net@OpenHome@@@std@@@std@@QBEIXZ 1001ffc0 f i Discovery.obj
 0001:0001eff0       ?_Grow_to@?$vector@PAVMsearchHandler@SsdpListenerMulticast@Net@OpenHome@@V?$allocator@PAVMsearchHandler@SsdpListenerMulticast@Net@OpenHome@@@std@@@std@@IBEII@Z 1001fff0 f i Discovery.obj
 0001:0001f090       ?_Xlen@?$vector@PAVMsearchHandler@SsdpListenerMulticast@Net@OpenHome@@V?$allocator@PAVMsearchHandler@SsdpListenerMulticast@Net@OpenHome@@@std@@@std@@IBEXXZ 10020090 f i Discovery.obj
 0001:0001f0c0       ??0?$allocator@PAVMsearchHandler@SsdpListenerMulticast@Net@OpenHome@@@std@@QAE@ABV01@@Z 100200c0 f i Discovery.obj
 0001:0001f0e0       ?deallocate@?$allocator@PAVMsearchHandler@SsdpListenerMulticast@Net@OpenHome@@@std@@QAEXPAPAVMsearchHandler@SsdpListenerMulticast@Net@OpenHome@@I@Z 100200e0 f i Discovery.obj
 0001:0001f120       ??0?$_Vector_const_iterator@V?$_Vector_val@PAVNotifyHandler@SsdpListenerMulticast@Net@OpenHome@@V?$allocator@PAVNotifyHandler@SsdpListenerMulticast@Net@OpenHome@@@std@@@std@@@std@@QAE@PAPAVNotifyHandler@SsdpListenerMulticast@Net@OpenHome@@PBU_Container_base12@1@@Z 10020120 f i Discovery.obj
 0001:0001f1c0       ??E?$_Vector_const_iterator@V?$_Vector_val@PAVNotifyHandler@SsdpListenerMulticast@Net@OpenHome@@V?$allocator@PAVNotifyHandler@SsdpListenerMulticast@Net@OpenHome@@@std@@@std@@@std@@QAEAAV01@XZ 100201c0 f i Discovery.obj
 0001:0001f2a0       ?_Compat@?$_Vector_const_iterator@V?$_Vector_val@PAVNotifyHandler@SsdpListenerMulticast@Net@OpenHome@@V?$allocator@PAVNotifyHandler@SsdpListenerMulticast@Net@OpenHome@@@std@@@std@@@std@@QBEXABV12@@Z 100202a0 f i Discovery.obj
 0001:0001f370       ??0?$_Vector_const_iterator@V?$_Vector_val@PAVMsearchHandler@SsdpListenerMulticast@Net@OpenHome@@V?$allocator@PAVMsearchHandler@SsdpListenerMulticast@Net@OpenHome@@@std@@@std@@@std@@QAE@PAPAVMsearchHandler@SsdpListenerMulticast@Net@OpenHome@@PBU_Container_base12@1@@Z 10020370 f i Discovery.obj
 0001:0001f410       ??E?$_Vector_const_iterator@V?$_Vector_val@PAVMsearchHandler@SsdpListenerMulticast@Net@OpenHome@@V?$allocator@PAVMsearchHandler@SsdpListenerMulticast@Net@OpenHome@@@std@@@std@@@std@@QAEAAV01@XZ 10020410 f i Discovery.obj
 0001:0001f4f0       ?_Compat@?$_Vector_const_iterator@V?$_Vector_val@PAVMsearchHandler@SsdpListenerMulticast@Net@OpenHome@@V?$allocator@PAVMsearchHandler@SsdpListenerMulticast@Net@OpenHome@@@std@@@std@@@std@@QBEXABV12@@Z 100204f0 f i Discovery.obj
 0001:0001f5c0       ?deallocate@?$allocator@U_Container_proxy@std@@@std@@QAEXPAU_Container_proxy@2@I@Z 100205c0 f i Discovery.obj
 0001:0001f600       ?allocate@?$allocator@U_Container_proxy@std@@@std@@QAEPAU_Container_proxy@2@I@Z 10020600 f i Discovery.obj
 0001:0001f640       ??0?$_Iterator012@Urandom_access_iterator_tag@std@@PAVNotifyHandler@SsdpListenerMulticast@Net@OpenHome@@HPBQAV3456@ABQAV3456@U_Iterator_base12@2@@std@@QAE@XZ 10020640 f i Discovery.obj
 0001:0001f670       ??0_Iterator_base12@std@@QAE@XZ 10020670 f i Discovery.obj
 0001:0001f6b0       ??0?$_Iterator012@Urandom_access_iterator_tag@std@@PAVMsearchHandler@SsdpListenerMulticast@Net@OpenHome@@HPBQAV3456@ABQAV3456@U_Iterator_base12@2@@std@@QAE@XZ 100206b0 f i Discovery.obj
 0001:0001f6e0       ?allocate@?$allocator@PAVNotifyHandler@SsdpListenerMulticast@Net@OpenHome@@@std@@QAEPAPAVNotifyHandler@SsdpListenerMulticast@Net@OpenHome@@I@Z 100206e0 f i Discovery.obj
 0001:0001f720       ?max_size@?$allocator@PAVNotifyHandler@SsdpListenerMulticast@Net@OpenHome@@@std@@QBEIXZ 10020720 f i Discovery.obj
 0001:0001f780       ?allocate@?$allocator@PAVMsearchHandler@SsdpListenerMulticast@Net@OpenHome@@@std@@QAEPAPAVMsearchHandler@SsdpListenerMulticast@Net@OpenHome@@I@Z 10020780 f i Discovery.obj
 0001:0001f7c0       ?max_size@?$allocator@PAVMsearchHandler@SsdpListenerMulticast@Net@OpenHome@@@std@@QBEIXZ 100207c0 f i Discovery.obj
 0001:0001f820       ??0?$Bws@$0DOI@@OpenHome@@QAE@XZ 10020820 f i Discovery.obj
 0001:0001f870       ?Ptr@?$Bws@$0DOI@@OpenHome@@UBEPBEXZ 10020870 f i Discovery.obj
 0001:0001f890       ??0?$Bws@$0EA@@OpenHome@@QAE@XZ 10020890 f i Discovery.obj
 0001:0001f8e0       ?Ptr@?$Bws@$0EA@@OpenHome@@UBEPBEXZ 100208e0 f i Discovery.obj
 0001:0001f900       ??$addressof@QAVNotifyHandler@SsdpListenerMulticast@Net@OpenHome@@@std@@YGPBQAVNotifyHandler@SsdpListenerMulticast@Net@OpenHome@@ABQAV1234@@Z 10020900 f i Discovery.obj
 0001:0001f910       ??$_Cons_val@V?$allocator@PAVNotifyHandler@SsdpListenerMulticast@Net@OpenHome@@@std@@PAVNotifyHandler@SsdpListenerMulticast@Net@OpenHome@@AAPAV3456@@std@@YGXAAV?$allocator@PAVNotifyHandler@SsdpListenerMulticast@Net@OpenHome@@@0@PAPAVNotifyHandler@SsdpListenerMulticast@Net@OpenHome@@AAPAV2345@@Z 10020910 f i Discovery.obj
 0001:0001f940       ??$_Cons_val@V?$allocator@PAVNotifyHandler@SsdpListenerMulticast@Net@OpenHome@@@std@@PAVNotifyHandler@SsdpListenerMulticast@Net@OpenHome@@ABQAV3456@@std@@YGXAAV?$allocator@PAVNotifyHandler@SsdpListenerMulticast@Net@OpenHome@@@0@PAPAVNotifyHandler@SsdpListenerMulticast@Net@OpenHome@@ABQAV2345@@Z 10020940 f i Discovery.obj
 0001:0001f970       ??$_Move@PAPAVNotifyHandler@SsdpListenerMulticast@Net@OpenHome@@PAPAV1234@@std@@YGPAPAVNotifyHandler@SsdpListenerMulticast@Net@OpenHome@@PAPAV1234@00@Z 10020970 f i Discovery.obj
 0001:0001f9d0       ??$addressof@QAVMsearchHandler@SsdpListenerMulticast@Net@OpenHome@@@std@@YGPBQAVMsearchHandler@SsdpListenerMulticast@Net@OpenHome@@ABQAV1234@@Z 100209d0 f i Discovery.obj
 0001:0001f9e0       ??$_Cons_val@V?$allocator@PAVMsearchHandler@SsdpListenerMulticast@Net@OpenHome@@@std@@PAVMsearchHandler@SsdpListenerMulticast@Net@OpenHome@@AAPAV3456@@std@@YGXAAV?$allocator@PAVMsearchHandler@SsdpListenerMulticast@Net@OpenHome@@@0@PAPAVMsearchHandler@SsdpListenerMulticast@Net@OpenHome@@AAPAV2345@@Z 100209e0 f i Discovery.obj
 0001:0001fa10       ??$_Cons_val@V?$allocator@PAVMsearchHandler@SsdpListenerMulticast@Net@OpenHome@@@std@@PAVMsearchHandler@SsdpListenerMulticast@Net@OpenHome@@ABQAV3456@@std@@YGXAAV?$allocator@PAVMsearchHandler@SsdpListenerMulticast@Net@OpenHome@@@0@PAPAVMsearchHandler@SsdpListenerMulticast@Net@OpenHome@@ABQAV2345@@Z 10020a10 f i Discovery.obj
 0001:0001fa40       ??$_Move@PAPAVMsearchHandler@SsdpListenerMulticast@Net@OpenHome@@PAPAV1234@@std@@YGPAPAVMsearchHandler@SsdpListenerMulticast@Net@OpenHome@@PAPAV1234@00@Z 10020a40 f i Discovery.obj
 0001:0001faa0       ??$?0PAVIHttpHeader@OpenHome@@@?$allocator@U_Container_proxy@std@@@std@@QAE@ABV?$allocator@PAVIHttpHeader@OpenHome@@@1@@Z 10020aa0 f i Discovery.obj
 0001:0001fac0       ??$_Dest_val@V?$allocator@U_Container_proxy@std@@@std@@U_Container_proxy@2@@std@@YGXAAV?$allocator@U_Container_proxy@std@@@0@PAU_Container_proxy@0@@Z 10020ac0 f i Discovery.obj
 0001:0001fae0       ??$?0PBVBrx@OpenHome@@@?$allocator@U_Container_proxy@std@@@std@@QAE@ABV?$allocator@PBVBrx@OpenHome@@@1@@Z 10020ae0 f i Discovery.obj
 0001:0001fb00       ??$_Destroy_range@V?$allocator@PAVNotifyHandler@SsdpListenerMulticast@Net@OpenHome@@@std@@@std@@YGXPAPAVNotifyHandler@SsdpListenerMulticast@Net@OpenHome@@0AAV?$allocator@PAVNotifyHandler@SsdpListenerMulticast@Net@OpenHome@@@0@@Z 10020b00 f i Discovery.obj
 0001:0001fb60       ??$?0PAVNotifyHandler@SsdpListenerMulticast@Net@OpenHome@@@?$allocator@U_Container_proxy@std@@@std@@QAE@ABV?$allocator@PAVNotifyHandler@SsdpListenerMulticast@Net@OpenHome@@@1@@Z 10020b60 f i Discovery.obj
 0001:0001fb80       ??$_Cons_val@V?$allocator@U_Container_proxy@std@@@std@@U_Container_proxy@2@U32@@std@@YGXAAV?$allocator@U_Container_proxy@std@@@0@PAU_Container_proxy@0@$$QAU20@@Z 10020b80 f i Discovery.obj
 0001:0001fbb0       ??$_Destroy_range@V?$allocator@PAVMsearchHandler@SsdpListenerMulticast@Net@OpenHome@@@std@@@std@@YGXPAPAVMsearchHandler@SsdpListenerMulticast@Net@OpenHome@@0AAV?$allocator@PAVMsearchHandler@SsdpListenerMulticast@Net@OpenHome@@@0@@Z 10020bb0 f i Discovery.obj
 0001:0001fc10       ??$?0PAVMsearchHandler@SsdpListenerMulticast@Net@OpenHome@@@?$allocator@U_Container_proxy@std@@@std@@QAE@ABV?$allocator@PAVMsearchHandler@SsdpListenerMulticast@Net@OpenHome@@@1@@Z 10020c10 f i Discovery.obj
 0001:0001fc30       ??$_Destroy_range@V?$allocator@PAVIHttpHeader@OpenHome@@@std@@@std@@YGXPAPAVIHttpHeader@OpenHome@@0AAV?$allocator@PAVIHttpHeader@OpenHome@@@0@@Z 10020c30 f i Discovery.obj
 0001:0001fc90       ??$_Destroy_range@V?$allocator@PBVBrx@OpenHome@@@std@@@std@@YGXPAPBVBrx@OpenHome@@0AAV?$allocator@PBVBrx@OpenHome@@@0@@Z 10020c90 f i Discovery.obj
 0001:0001fcf0       ??$_Umove@PAPAVNotifyHandler@SsdpListenerMulticast@Net@OpenHome@@@?$vector@PAVNotifyHandler@SsdpListenerMulticast@Net@OpenHome@@V?$allocator@PAVNotifyHandler@SsdpListenerMulticast@Net@OpenHome@@@std@@@std@@IAEPAPAVNotifyHandler@SsdpListenerMulticast@Net@OpenHome@@PAPAV2345@00@Z 10020cf0 f i Discovery.obj
 0001:0001fd40       ??$_Umove@PAPAVMsearchHandler@SsdpListenerMulticast@Net@OpenHome@@@?$vector@PAVMsearchHandler@SsdpListenerMulticast@Net@OpenHome@@V?$allocator@PAVMsearchHandler@SsdpListenerMulticast@Net@OpenHome@@@std@@@std@@IAEPAPAVMsearchHandler@SsdpListenerMulticast@Net@OpenHome@@PAPAV2345@00@Z 10020d40 f i Discovery.obj
 0001:0001fd90       ??$_Allocate@U_Container_proxy@std@@@std@@YGPAU_Container_proxy@0@IPAU10@@Z 10020d90 f i Discovery.obj
 0001:0001fe30       ??0bad_alloc@std@@QAE@PBD@Z 10020e30 f i Discovery.obj
 0001:0001fe80       ??1bad_alloc@std@@UAE@XZ   10020e80 f i Discovery.obj
 0001:0001fec0       ??_Ebad_alloc@std@@UAEPAXI@Z 10020ec0 f i Discovery.obj
 0001:0001fec0       ??_Gbad_alloc@std@@UAEPAXI@Z 10020ec0 f i Discovery.obj
 0001:0001ff10       ??$_Allocate@PAVNotifyHandler@SsdpListenerMulticast@Net@OpenHome@@@std@@YGPAPAVNotifyHandler@SsdpListenerMulticast@Net@OpenHome@@IPAPAV1234@@Z 10020f10 f i Discovery.obj
 0001:0001ffb0       ??$_Allocate@PAVMsearchHandler@SsdpListenerMulticast@Net@OpenHome@@@std@@YGPAPAVMsearchHandler@SsdpListenerMulticast@Net@OpenHome@@IPAPAV1234@@Z 10020fb0 f i Discovery.obj
 0001:00020050       ??_G?$Bws@$0DOI@@OpenHome@@UAEPAXI@Z 10021050 f i Discovery.obj
 0001:00020050       ??_E?$Bws@$0DOI@@OpenHome@@UAEPAXI@Z 10021050 f i Discovery.obj
 0001:000200a0       ??_E?$Bws@$0EA@@OpenHome@@UAEPAXI@Z 100210a0 f i Discovery.obj
 0001:000200a0       ??_G?$Bws@$0EA@@OpenHome@@UAEPAXI@Z 100210a0 f i Discovery.obj
 0001:000200f0       ??0bad_alloc@std@@QAE@ABV01@@Z 100210f0 f i Discovery.obj
 0001:00020140       ?construct@?$allocator@PAVNotifyHandler@SsdpListenerMulticast@Net@OpenHome@@@std@@QAEXPAPAVNotifyHandler@SsdpListenerMulticast@Net@OpenHome@@ABQAV3456@@Z 10021140 f i Discovery.obj
 0001:00020180       ?construct@?$allocator@PAVMsearchHandler@SsdpListenerMulticast@Net@OpenHome@@@std@@QAEXPAPAVMsearchHandler@SsdpListenerMulticast@Net@OpenHome@@ABQAV3456@@Z 10021180 f i Discovery.obj
 0001:000201c0       ?construct@?$allocator@U_Container_proxy@std@@@std@@QAEXPAU_Container_proxy@2@$$QAU32@@Z 100211c0 f i Discovery.obj
 0001:00020290       ??2@YAPAXIPAX@Z            10021290 f i Discovery.obj
 0001:000202a0       ??3@YAXPAX0@Z              100212a0 f i Discovery.obj
 0001:000202b0       ?destroy@?$allocator@U_Container_proxy@std@@@std@@QAEXPAU_Container_proxy@2@@Z 100212b0 f i Discovery.obj
 0001:000202e0       ??$forward@AAPAVNotifyHandler@SsdpListenerMulticast@Net@OpenHome@@@std@@YGAAPAVNotifyHandler@SsdpListenerMulticast@Net@OpenHome@@AAPAV1234@@Z 100212e0 f i Discovery.obj
 0001:000202f0       ??$construct@AAPAVNotifyHandler@SsdpListenerMulticast@Net@OpenHome@@@?$allocator@PAVNotifyHandler@SsdpListenerMulticast@Net@OpenHome@@@std@@QAEXPAPAVNotifyHandler@SsdpListenerMulticast@Net@OpenHome@@AAPAV2345@@Z 100212f0 f i Discovery.obj
 0001:000203c0       ??$forward@ABQAVNotifyHandler@SsdpListenerMulticast@Net@OpenHome@@@std@@YGABQAVNotifyHandler@SsdpListenerMulticast@Net@OpenHome@@ABQAV1234@@Z 100213c0 f i Discovery.obj
 0001:000203d0       ??$_Ptr_cat@PAVNotifyHandler@SsdpListenerMulticast@Net@OpenHome@@PAV1234@@std@@YG?AU_Scalar_ptr_iterator_tag@0@PAPAVNotifyHandler@SsdpListenerMulticast@Net@OpenHome@@0@Z 100213d0 f i Discovery.obj
 0001:00020440       ??$_Move@PAPAVNotifyHandler@SsdpListenerMulticast@Net@OpenHome@@PAPAV1234@@std@@YGPAPAVNotifyHandler@SsdpListenerMulticast@Net@OpenHome@@PAPAV1234@00U_Scalar_ptr_iterator_tag@0@@Z 10021440 f i Discovery.obj
 0001:000204a0       ??$forward@AAPAVMsearchHandler@SsdpListenerMulticast@Net@OpenHome@@@std@@YGAAPAVMsearchHandler@SsdpListenerMulticast@Net@OpenHome@@AAPAV1234@@Z 100214a0 f i Discovery.obj
 0001:000204b0       ??$construct@AAPAVMsearchHandler@SsdpListenerMulticast@Net@OpenHome@@@?$allocator@PAVMsearchHandler@SsdpListenerMulticast@Net@OpenHome@@@std@@QAEXPAPAVMsearchHandler@SsdpListenerMulticast@Net@OpenHome@@AAPAV2345@@Z 100214b0 f i Discovery.obj
 0001:00020580       ??$forward@ABQAVMsearchHandler@SsdpListenerMulticast@Net@OpenHome@@@std@@YGABQAVMsearchHandler@SsdpListenerMulticast@Net@OpenHome@@ABQAV1234@@Z 10021580 f i Discovery.obj
 0001:00020590       ??$_Ptr_cat@PAVMsearchHandler@SsdpListenerMulticast@Net@OpenHome@@PAV1234@@std@@YG?AU_Scalar_ptr_iterator_tag@0@PAPAVMsearchHandler@SsdpListenerMulticast@Net@OpenHome@@0@Z 10021590 f i Discovery.obj
 0001:00020600       ??$_Move@PAPAVMsearchHandler@SsdpListenerMulticast@Net@OpenHome@@PAPAV1234@@std@@YGPAPAVMsearchHandler@SsdpListenerMulticast@Net@OpenHome@@PAPAV1234@00U_Scalar_ptr_iterator_tag@0@@Z 10021600 f i Discovery.obj
 0001:00020660       ??$_Destroy_range@V?$allocator@PAVNotifyHandler@SsdpListenerMulticast@Net@OpenHome@@@std@@@std@@YGXPAPAVNotifyHandler@SsdpListenerMulticast@Net@OpenHome@@0AAV?$allocator@PAVNotifyHandler@SsdpListenerMulticast@Net@OpenHome@@@0@U_Scalar_ptr_iterator_tag@0@@Z 10021660 f i Discovery.obj
 0001:00020670       ??$forward@U_Container_proxy@std@@@std@@YG$$QAU_Container_proxy@0@AAU10@@Z 10021670 f i Discovery.obj
 0001:00020680       ??$_Destroy_range@V?$allocator@PAVMsearchHandler@SsdpListenerMulticast@Net@OpenHome@@@std@@@std@@YGXPAPAVMsearchHandler@SsdpListenerMulticast@Net@OpenHome@@0AAV?$allocator@PAVMsearchHandler@SsdpListenerMulticast@Net@OpenHome@@@0@U_Scalar_ptr_iterator_tag@0@@Z 10021680 f i Discovery.obj
 0001:00020690       ??$_Ptr_cat@PAVIHttpHeader@OpenHome@@PAV12@@std@@YG?AU_Scalar_ptr_iterator_tag@0@PAPAVIHttpHeader@OpenHome@@0@Z 10021690 f i Discovery.obj
 0001:00020700       ??$_Destroy_range@V?$allocator@PAVIHttpHeader@OpenHome@@@std@@@std@@YGXPAPAVIHttpHeader@OpenHome@@0AAV?$allocator@PAVIHttpHeader@OpenHome@@@0@U_Scalar_ptr_iterator_tag@0@@Z 10021700 f i Discovery.obj
 0001:00020710       ??$_Ptr_cat@PBVBrx@OpenHome@@PBV12@@std@@YG?AU_Scalar_ptr_iterator_tag@0@PAPBVBrx@OpenHome@@0@Z 10021710 f i Discovery.obj
 0001:00020780       ??$_Destroy_range@V?$allocator@PBVBrx@OpenHome@@@std@@@std@@YGXPAPBVBrx@OpenHome@@0AAV?$allocator@PBVBrx@OpenHome@@@0@U_Scalar_ptr_iterator_tag@0@@Z 10021780 f i Discovery.obj
 0001:00020790       ??$_Uninitialized_move@PAPAVNotifyHandler@SsdpListenerMulticast@Net@OpenHome@@PAPAV1234@V?$allocator@PAVNotifyHandler@SsdpListenerMulticast@Net@OpenHome@@@std@@@std@@YGPAPAVNotifyHandler@SsdpListenerMulticast@Net@OpenHome@@PAPAV1234@00AAV?$allocator@PAVNotifyHandler@SsdpListenerMulticast@Net@OpenHome@@@0@@Z 10021790 f i Discovery.obj
 0001:00020800       ??$_Uninitialized_move@PAPAVMsearchHandler@SsdpListenerMulticast@Net@OpenHome@@PAPAV1234@V?$allocator@PAVMsearchHandler@SsdpListenerMulticast@Net@OpenHome@@@std@@@std@@YGPAPAVMsearchHandler@SsdpListenerMulticast@Net@OpenHome@@PAPAV1234@00AAV?$allocator@PAVMsearchHandler@SsdpListenerMulticast@Net@OpenHome@@@0@@Z 10021800 f i Discovery.obj
 0001:00020870       ??$_Construct@PAVNotifyHandler@SsdpListenerMulticast@Net@OpenHome@@ABQAV1234@@std@@YGXPAPAVNotifyHandler@SsdpListenerMulticast@Net@OpenHome@@ABQAV1234@@Z 10021870 f i Discovery.obj
 0001:00020940       ??$_Construct@PAVMsearchHandler@SsdpListenerMulticast@Net@OpenHome@@ABQAV1234@@std@@YGXPAPAVMsearchHandler@SsdpListenerMulticast@Net@OpenHome@@ABQAV1234@@Z 10021940 f i Discovery.obj
 0001:00020a10       ??$_Destroy@U_Container_proxy@std@@@std@@YGXPAU_Container_proxy@0@@Z 10021a10 f i Discovery.obj
 0001:00020a20       ??$_Val_type@PAPAVNotifyHandler@SsdpListenerMulticast@Net@OpenHome@@@std@@YGPAPAVNotifyHandler@SsdpListenerMulticast@Net@OpenHome@@PAPAV1234@@Z 10021a20 f i Discovery.obj
 0001:00020a30       ??$_Uninit_move@PAVNotifyHandler@SsdpListenerMulticast@Net@OpenHome@@PAV1234@PAV1234@@std@@YGPAPAVNotifyHandler@SsdpListenerMulticast@Net@OpenHome@@PAPAV1234@00AAV?$allocator@PAVNotifyHandler@SsdpListenerMulticast@Net@OpenHome@@@0@0U_Scalar_ptr_iterator_tag@0@@Z 10021a30 f i Discovery.obj
 0001:00020ac0       ??$_Val_type@PAPAVMsearchHandler@SsdpListenerMulticast@Net@OpenHome@@@std@@YGPAPAVMsearchHandler@SsdpListenerMulticast@Net@OpenHome@@PAPAV1234@@Z 10021ac0 f i Discovery.obj
 0001:00020ad0       ??$_Uninit_move@PAVMsearchHandler@SsdpListenerMulticast@Net@OpenHome@@PAV1234@PAV1234@@std@@YGPAPAVMsearchHandler@SsdpListenerMulticast@Net@OpenHome@@PAPAV1234@00AAV?$allocator@PAVMsearchHandler@SsdpListenerMulticast@Net@OpenHome@@@0@0U_Scalar_ptr_iterator_tag@0@@Z 10021ad0 f i Discovery.obj
 0001:00020b60       ??$_Debug_range@PAPAVNotifyHandler@SsdpListenerMulticast@Net@OpenHome@@@std@@YGXPAPAVNotifyHandler@SsdpListenerMulticast@Net@OpenHome@@0PB_WI@Z 10021b60 f i Discovery.obj
 0001:00020bc0       ??$_Debug_pointer@PAVNotifyHandler@SsdpListenerMulticast@Net@OpenHome@@@std@@YGXPAPAVNotifyHandler@SsdpListenerMulticast@Net@OpenHome@@PB_WI@Z 10021bc0 f i Discovery.obj
 0001:00020c00       ??$_Debug_range@PAPAVMsearchHandler@SsdpListenerMulticast@Net@OpenHome@@@std@@YGXPAPAVMsearchHandler@SsdpListenerMulticast@Net@OpenHome@@0PB_WI@Z 10021c00 f i Discovery.obj
 0001:00020c60       ??$_Debug_pointer@PAVMsearchHandler@SsdpListenerMulticast@Net@OpenHome@@@std@@YGXPAPAVMsearchHandler@SsdpListenerMulticast@Net@OpenHome@@PB_WI@Z 10021c60 f i Discovery.obj
 0001:00020ca0       ??$_Iter_cat@PAPAVNotifyHandler@SsdpListenerMulticast@Net@OpenHome@@@std@@YG?AUrandom_access_iterator_tag@0@ABQAPAVNotifyHandler@SsdpListenerMulticast@Net@OpenHome@@@Z 10021ca0 f i Discovery.obj
 0001:00020d10       ??$_Debug_range2@PAPAVNotifyHandler@SsdpListenerMulticast@Net@OpenHome@@@std@@YGXPAPAVNotifyHandler@SsdpListenerMulticast@Net@OpenHome@@0PB_WIUrandom_access_iterator_tag@0@@Z 10021d10 f i Discovery.obj
 0001:00020d80       ??$_Iter_cat@PAPAVMsearchHandler@SsdpListenerMulticast@Net@OpenHome@@@std@@YG?AUrandom_access_iterator_tag@0@ABQAPAVMsearchHandler@SsdpListenerMulticast@Net@OpenHome@@@Z 10021d80 f i Discovery.obj
 0001:00020df0       ??$_Debug_range2@PAPAVMsearchHandler@SsdpListenerMulticast@Net@OpenHome@@@std@@YGXPAPAVMsearchHandler@SsdpListenerMulticast@Net@OpenHome@@0PB_WIUrandom_access_iterator_tag@0@@Z 10021df0 f i Discovery.obj
 0001:00020e60       ??_ESsdpSocketReader@Net@OpenHome@@WBI@AEPAXI@Z 10021e60 f i Discovery.obj
 0001:00020e70       ??_E?$Sws@$0EAA@@OpenHome@@WM@AEPAXI@Z 10021e70 f i Discovery.obj
 0001:00020e80       ??_E?$Srs@$0EAA@@OpenHome@@WM@AEPAXI@Z 10021e80 f i Discovery.obj
 0001:00020e90       ?Level@Debug@OpenHome@@SGIXZ 10021e90 f   Debug.obj
 0001:00020ea0       ?SetLevel@Debug@OpenHome@@SGXI@Z 10021ea0 f   Debug.obj
 0001:00020eb0       ?TestLevel@Debug@OpenHome@@SG_NI@Z 10021eb0 f   Debug.obj
 0001:00020ed0       ?BreakBeforeThrow@Debug@OpenHome@@SG_NXZ 10021ed0 f   Debug.obj
 0001:00020ee0       ?SetBreakBeforeThrow@Debug@OpenHome@@SGX_N@Z 10021ee0 f   Debug.obj
 0001:00020ef0       ??0AutoLog@@QAE@IPBD@Z     10021ef0 f   Debug.obj
 0001:00020f50       ??1AutoLog@@QAE@XZ         10021f50 f   Debug.obj
 0001:00020fe0       ?ToXmlEscaped@Converter@OpenHome@@SGXAAVIWriter@2@E@Z 10021fe0 f   Converter.obj
 0001:00021220       ?ToXmlEscaped@Converter@OpenHome@@SGXAAVIWriter@2@ABVBrx@2@@Z 10022220 f   Converter.obj
 0001:00021280       ?ToBase64@Converter@OpenHome@@SGXAAVIWriter@2@ABVBrx@2@@Z 10022280 f   Converter.obj
 0001:00021560       ?FromBase64@Converter@OpenHome@@SGXAAVBwx@2@@Z 10022560 f   Converter.obj
 0001:00021730       ?FromXmlEscaped@Converter@OpenHome@@SGXAAVBwx@2@@Z 10022730 f   Converter.obj
 0001:00021e30       ?Udn@CpDevice@Net@OpenHome@@QBEABVBrx@3@XZ 10022e30 f   CpDeviceCore.obj
 0001:00021e60       ??8CpDevice@Net@OpenHome@@QBE_NABV012@@Z 10022e60 f   CpDeviceCore.obj
 0001:00021e90       ??9CpDevice@Net@OpenHome@@QBE_NABV012@@Z 10022e90 f   CpDeviceCore.obj
 0001:00021ec0       ?AddRef@CpDevice@Net@OpenHome@@QAEXXZ 10022ec0 f   CpDeviceCore.obj
 0001:00021f00       ?RemoveRef@CpDevice@Net@OpenHome@@QAEXXZ 10022f00 f   CpDeviceCore.obj
 0001:00021f90       ?GetAttribute@CpDevice@Net@OpenHome@@QBE_NPBDAAVBrh@3@@Z 10022f90 f   CpDeviceCore.obj
 0001:00021fe0       ?Device@CpDevice@Net@OpenHome@@QAEAAVCpiDevice@23@XZ 10022fe0 f   CpDeviceCore.obj
 0001:00022000       ??0CpDevice@Net@OpenHome@@QAE@AAVCpiDevice@12@@Z 10023000 f   CpDeviceCore.obj
 0001:00022050       ??1CpDevice@Net@OpenHome@@MAE@XZ 10023050 f   CpDeviceCore.obj
 0001:00022070       ??1CpDeviceList@Net@OpenHome@@QAE@XZ 10023070 f   CpDeviceCore.obj
 0001:000221e0       ?Refresh@CpDeviceList@Net@OpenHome@@QAEXXZ 100231e0 f   CpDeviceCore.obj
 0001:00022220       ??0CpDeviceList@Net@OpenHome@@IAE@VFunctorCpDevice@12@0@Z 10023220 f   CpDeviceCore.obj
 0001:00022340       ?GetAddedFunctor@CpDeviceList@Net@OpenHome@@IAEXAAVFunctorCpiDevice@23@@Z 10023340 f   CpDeviceCore.obj
 0001:000223b0       ?GetRemovedFunctor@CpDeviceList@Net@OpenHome@@IAEXAAVFunctorCpiDevice@23@@Z 100233b0 f   CpDeviceCore.obj
 0001:00022420       ?Added@CpDeviceList@Net@OpenHome@@AAEXAAVCpiDevice@23@@Z 10023420 f   CpDeviceCore.obj
 0001:00022580       ?Removed@CpDeviceList@Net@OpenHome@@AAEXAAVCpiDevice@23@@Z 10023580 f   CpDeviceCore.obj
 0001:00022920       ??_ECpDevice@Net@OpenHome@@MAEPAXI@Z 10023920 f i CpDeviceCore.obj
 0001:00022920       ??_GCpDevice@Net@OpenHome@@MAEPAXI@Z 10023920 f i CpDeviceCore.obj
 0001:00022970       ??1?$map@VBrn@OpenHome@@PAVCpDevice@Net@2@VBufferCmp@2@V?$allocator@U?$pair@$$CBVBrn@OpenHome@@PAVCpDevice@Net@2@@std@@@std@@@std@@QAE@XZ 10023970 f i CpDeviceCore.obj
 0001:000229a0       ??1?$_Tree_iterator@V?$_Tree_val@V?$_Tmap_traits@VBrn@OpenHome@@PAVCpDevice@Net@2@VBufferCmp@2@V?$allocator@U?$pair@$$CBVBrn@OpenHome@@PAVCpDevice@Net@2@@std@@@std@@$0A@@std@@@std@@@std@@QAE@XZ 100239a0 f i CpDeviceCore.obj
 0001:000229d0       ??1?$_Tree_const_iterator@V?$_Tree_val@V?$_Tmap_traits@VBrn@OpenHome@@PAVCpDevice@Net@2@VBufferCmp@2@V?$allocator@U?$pair@$$CBVBrn@OpenHome@@PAVCpDevice@Net@2@@std@@@std@@$0A@@std@@@std@@@std@@QAE@XZ 100239d0 f i CpDeviceCore.obj
 0001:00022a00       ??1?$_Tree_unchecked_const_iterator@V?$_Tree_val@V?$_Tmap_traits@VBrn@OpenHome@@PAVCpDevice@Net@2@VBufferCmp@2@V?$allocator@U?$pair@$$CBVBrn@OpenHome@@PAVCpDevice@Net@2@@std@@@std@@$0A@@std@@@std@@U_Iterator_base12@2@@std@@QAE@XZ 10023a00 f i CpDeviceCore.obj
 0001:00022a30       ??1?$_Iterator012@Ubidirectional_iterator_tag@std@@U?$pair@$$CBVBrn@OpenHome@@PAVCpDevice@Net@2@@2@HPBU32@ABU32@U_Iterator_base12@2@@std@@QAE@XZ 10023a30 f i CpDeviceCore.obj
 0001:00022a60       ??BFunctorCpDevice@Net@OpenHome@@QBE_NXZ 10023a60 f i CpDeviceCore.obj
 0001:00022a90       ??0Brn@OpenHome@@QAE@ABVBrx@1@@Z 10023a90 f i CpDeviceCore.obj
 0001:00022b40       ??RFunctorCpDevice@Net@OpenHome@@QBEXAAVCpDevice@12@@Z 10023b40 f i CpDeviceCore.obj
 0001:00022b90       ??1?$pair@VBrn@OpenHome@@PAVCpDevice@Net@2@@std@@QAE@XZ 10023b90 f i CpDeviceCore.obj
 0001:00022bc0       ??1?$pair@V?$_Tree_iterator@V?$_Tree_val@V?$_Tmap_traits@VBrn@OpenHome@@PAVCpDevice@Net@2@VBufferCmp@2@V?$allocator@U?$pair@$$CBVBrn@OpenHome@@PAVCpDevice@Net@2@@std@@@std@@$0A@@std@@@std@@@std@@_N@std@@QAE@XZ 10023bc0 f i CpDeviceCore.obj
 0001:00022bf0       ??1?$_Pair_base@VBrn@OpenHome@@PAVCpDevice@Net@2@@std@@QAE@XZ 10023bf0 f i CpDeviceCore.obj
 0001:00022c20       ??1?$_Pair_base@V?$_Tree_iterator@V?$_Tree_val@V?$_Tmap_traits@VBrn@OpenHome@@PAVCpDevice@Net@2@VBufferCmp@2@V?$allocator@U?$pair@$$CBVBrn@OpenHome@@PAVCpDevice@Net@2@@std@@@std@@$0A@@std@@@std@@@std@@_N@std@@QAE@XZ 10023c20 f i CpDeviceCore.obj
 0001:00022c50       ??0?$_Tree_const_iterator@V?$_Tree_val@V?$_Tmap_traits@VBrn@OpenHome@@PAVCpDevice@Net@2@VBufferCmp@2@V?$allocator@U?$pair@$$CBVBrn@OpenHome@@PAVCpDevice@Net@2@@std@@@std@@$0A@@std@@@std@@@std@@QAE@ABV01@@Z 10023c50 f i CpDeviceCore.obj
 0001:00022c90       ??0?$_Tree_unchecked_const_iterator@V?$_Tree_val@V?$_Tmap_traits@VBrn@OpenHome@@PAVCpDevice@Net@2@VBufferCmp@2@V?$allocator@U?$pair@$$CBVBrn@OpenHome@@PAVCpDevice@Net@2@@std@@@std@@$0A@@std@@@std@@U_Iterator_base12@2@@std@@QAE@ABV01@@Z 10023c90 f i CpDeviceCore.obj
 0001:00022ce0       ??0?$_Iterator012@Ubidirectional_iterator_tag@std@@U?$pair@$$CBVBrn@OpenHome@@PAVCpDevice@Net@2@@2@HPBU32@ABU32@U_Iterator_base12@2@@std@@QAE@ABU01@@Z 10023ce0 f i CpDeviceCore.obj
 0001:00022d20       ??0?$map@VBrn@OpenHome@@PAVCpDevice@Net@2@VBufferCmp@2@V?$allocator@U?$pair@$$CBVBrn@OpenHome@@PAVCpDevice@Net@2@@std@@@std@@@std@@QAE@XZ 10023d20 f i CpDeviceCore.obj
 0001:00022d80       ??1?$_Tree@V?$_Tmap_traits@VBrn@OpenHome@@PAVCpDevice@Net@2@VBufferCmp@2@V?$allocator@U?$pair@$$CBVBrn@OpenHome@@PAVCpDevice@Net@2@@std@@@std@@$0A@@std@@@std@@QAE@XZ 10023d80 f i CpDeviceCore.obj
 0001:00022e00       ?begin@?$_Tree@V?$_Tmap_traits@VBrn@OpenHome@@PAVCpDevice@Net@2@VBufferCmp@2@V?$allocator@U?$pair@$$CBVBrn@OpenHome@@PAVCpDevice@Net@2@@std@@@std@@$0A@@std@@@std@@QAE?AV?$_Tree_iterator@V?$_Tree_val@V?$_Tmap_traits@VBrn@OpenHome@@PAVCpDevice@Net@2@VBufferCmp@2@V?$allocator@U?$pair@$$CBVBrn@OpenHome@@PAVCpDevice@Net@2@@std@@@std@@$0A@@std@@@std@@@2@XZ 10023e00 f i CpDeviceCore.obj
 0001:00022e70       ?end@?$_Tree@V?$_Tmap_traits@VBrn@OpenHome@@PAVCpDevice@Net@2@VBufferCmp@2@V?$allocator@U?$pair@$$CBVBrn@OpenHome@@PAVCpDevice@Net@2@@std@@@std@@$0A@@std@@@std@@QAE?AV?$_Tree_iterator@V?$_Tree_val@V?$_Tmap_traits@VBrn@OpenHome@@PAVCpDevice@Net@2@VBufferCmp@2@V?$allocator@U?$pair@$$CBVBrn@OpenHome@@PAVCpDevice@Net@2@@std@@@std@@$0A@@std@@@std@@@2@XZ 10023e70 f i CpDeviceCore.obj
 0001:00022ed0       ?erase@?$_Tree@V?$_Tmap_traits@VBrn@OpenHome@@PAVCpDevice@Net@2@VBufferCmp@2@V?$allocator@U?$pair@$$CBVBrn@OpenHome@@PAVCpDevice@Net@2@@std@@@std@@$0A@@std@@@std@@QAE?AV?$_Tree_iterator@V?$_Tree_val@V?$_Tmap_traits@VBrn@OpenHome@@PAVCpDevice@Net@2@VBufferCmp@2@V?$allocator@U?$pair@$$CBVBrn@OpenHome@@PAVCpDevice@Net@2@@std@@@std@@$0A@@std@@@std@@@2@V?$_Tree_const_iterator@V?$_Tree_val@V?$_Tmap_traits@VBrn@OpenHome@@PAVCpDevice@Net@2@VBufferCmp@2@V?$allocator@U?$pair@$$CBVBrn@OpenHome@@PAVCpDevice@Net@2@@std@@@std@@$0A@@std@@@std@@@2@@Z 10023ed0 f i CpDeviceCore.obj
 0001:000237a0       ?clear@?$_Tree@V?$_Tmap_traits@VBrn@OpenHome@@PAVCpDevice@Net@2@VBufferCmp@2@V?$allocator@U?$pair@$$CBVBrn@OpenHome@@PAVCpDevice@Net@2@@std@@@std@@$0A@@std@@@std@@QAEXXZ 100247a0 f i CpDeviceCore.obj
 0001:00023840       ?find@?$_Tree@V?$_Tmap_traits@VBrn@OpenHome@@PAVCpDevice@Net@2@VBufferCmp@2@V?$allocator@U?$pair@$$CBVBrn@OpenHome@@PAVCpDevice@Net@2@@std@@@std@@$0A@@std@@@std@@QAE?AV?$_Tree_iterator@V?$_Tree_val@V?$_Tmap_traits@VBrn@OpenHome@@PAVCpDevice@Net@2@VBufferCmp@2@V?$allocator@U?$pair@$$CBVBrn@OpenHome@@PAVCpDevice@Net@2@@std@@@std@@$0A@@std@@@std@@@2@ABVBrn@OpenHome@@@Z 10024840 f i CpDeviceCore.obj
 0001:00023aa0       ??C?$_Tree_iterator@V?$_Tree_val@V?$_Tmap_traits@VBrn@OpenHome@@PAVCpDevice@Net@2@VBufferCmp@2@V?$allocator@U?$pair@$$CBVBrn@OpenHome@@PAVCpDevice@Net@2@@std@@@std@@$0A@@std@@@std@@@std@@QBEPAU?$pair@$$CBVBrn@OpenHome@@PAVCpDevice@Net@2@@1@XZ 10024aa0 f i CpDeviceCore.obj
 0001:00023ad0       ??E?$_Tree_iterator@V?$_Tree_val@V?$_Tmap_traits@VBrn@OpenHome@@PAVCpDevice@Net@2@VBufferCmp@2@V?$allocator@U?$pair@$$CBVBrn@OpenHome@@PAVCpDevice@Net@2@@std@@@std@@$0A@@std@@@std@@@std@@QAE?AV01@H@Z 10024ad0 f i CpDeviceCore.obj
 0001:00023bd0       ??9?$_Tree_const_iterator@V?$_Tree_val@V?$_Tmap_traits@VBrn@OpenHome@@PAVCpDevice@Net@2@VBufferCmp@2@V?$allocator@U?$pair@$$CBVBrn@OpenHome@@PAVCpDevice@Net@2@@std@@@std@@$0A@@std@@@std@@@std@@QBE_NABV01@@Z 10024bd0 f i CpDeviceCore.obj
 0001:00023c20       ??0?$_Tree_iterator@V?$_Tree_val@V?$_Tmap_traits@VBrn@OpenHome@@PAVCpDevice@Net@2@VBufferCmp@2@V?$allocator@U?$pair@$$CBVBrn@OpenHome@@PAVCpDevice@Net@2@@std@@@std@@$0A@@std@@@std@@@std@@QAE@ABV01@@Z 10024c20 f i CpDeviceCore.obj
 0001:00023c60       ??0?$_Tree@V?$_Tmap_traits@VBrn@OpenHome@@PAVCpDevice@Net@2@VBufferCmp@2@V?$allocator@U?$pair@$$CBVBrn@OpenHome@@PAVCpDevice@Net@2@@std@@@std@@$0A@@std@@@std@@QAE@ABVBufferCmp@OpenHome@@ABV?$allocator@U?$pair@$$CBVBrn@OpenHome@@PAVCpDevice@Net@2@@std@@@1@@Z 10024c60 f i CpDeviceCore.obj
 0001:00023cc0       ?lower_bound@?$_Tree@V?$_Tmap_traits@VBrn@OpenHome@@PAVCpDevice@Net@2@VBufferCmp@2@V?$allocator@U?$pair@$$CBVBrn@OpenHome@@PAVCpDevice@Net@2@@std@@@std@@$0A@@std@@@std@@QAE?AV?$_Tree_iterator@V?$_Tree_val@V?$_Tmap_traits@VBrn@OpenHome@@PAVCpDevice@Net@2@VBufferCmp@2@V?$allocator@U?$pair@$$CBVBrn@OpenHome@@PAVCpDevice@Net@2@@std@@@std@@$0A@@std@@@std@@@2@ABVBrn@OpenHome@@@Z 10024cc0 f i CpDeviceCore.obj
 0001:00023d30       ?_Erase@?$_Tree@V?$_Tmap_traits@VBrn@OpenHome@@PAVCpDevice@Net@2@VBufferCmp@2@V?$allocator@U?$pair@$$CBVBrn@OpenHome@@PAVCpDevice@Net@2@@std@@@std@@$0A@@std@@@std@@IAEXPAU_Node@?$_Tree_nod@V?$_Tmap_traits@VBrn@OpenHome@@PAVCpDevice@Net@2@VBufferCmp@2@V?$allocator@U?$pair@$$CBVBrn@OpenHome@@PAVCpDevice@Net@2@@std@@@std@@$0A@@std@@@2@@Z 10024d30 f i CpDeviceCore.obj
 0001:00023df0       ?_Lmost@?$_Tree@V?$_Tmap_traits@VBrn@OpenHome@@PAVCpDevice@Net@2@VBufferCmp@2@V?$allocator@U?$pair@$$CBVBrn@OpenHome@@PAVCpDevice@Net@2@@std@@@std@@$0A@@std@@@std@@IBEAAPAU_Node@?$_Tree_nod@V?$_Tmap_traits@VBrn@OpenHome@@PAVCpDevice@Net@2@VBufferCmp@2@V?$allocator@U?$pair@$$CBVBrn@OpenHome@@PAVCpDevice@Net@2@@std@@@std@@$0A@@std@@@2@XZ 10024df0 f i CpDeviceCore.obj
 0001:00023e30       ?_Lrotate@?$_Tree@V?$_Tmap_traits@VBrn@OpenHome@@PAVCpDevice@Net@2@VBufferCmp@2@V?$allocator@U?$pair@$$CBVBrn@OpenHome@@PAVCpDevice@Net@2@@std@@@std@@$0A@@std@@@std@@IAEXPAU_Node@?$_Tree_nod@V?$_Tmap_traits@VBrn@OpenHome@@PAVCpDevice@Net@2@VBufferCmp@2@V?$allocator@U?$pair@$$CBVBrn@OpenHome@@PAVCpDevice@Net@2@@std@@@std@@$0A@@std@@@2@@Z 10024e30 f i CpDeviceCore.obj
 0001:00023f90       ?_Rmost@?$_Tree@V?$_Tmap_traits@VBrn@OpenHome@@PAVCpDevice@Net@2@VBufferCmp@2@V?$allocator@U?$pair@$$CBVBrn@OpenHome@@PAVCpDevice@Net@2@@std@@@std@@$0A@@std@@@std@@IBEAAPAU_Node@?$_Tree_nod@V?$_Tmap_traits@VBrn@OpenHome@@PAVCpDevice@Net@2@VBufferCmp@2@V?$allocator@U?$pair@$$CBVBrn@OpenHome@@PAVCpDevice@Net@2@@std@@@std@@$0A@@std@@@2@XZ 10024f90 f i CpDeviceCore.obj
 0001:00023fd0       ?_Root@?$_Tree@V?$_Tmap_traits@VBrn@OpenHome@@PAVCpDevice@Net@2@VBufferCmp@2@V?$allocator@U?$pair@$$CBVBrn@OpenHome@@PAVCpDevice@Net@2@@std@@@std@@$0A@@std@@@std@@IBEAAPAU_Node@?$_Tree_nod@V?$_Tmap_traits@VBrn@OpenHome@@PAVCpDevice@Net@2@VBufferCmp@2@V?$allocator@U?$pair@$$CBVBrn@OpenHome@@PAVCpDevice@Net@2@@std@@@std@@$0A@@std@@@2@XZ 10024fd0 f i CpDeviceCore.obj
 0001:00024010       ?_Rrotate@?$_Tree@V?$_Tmap_traits@VBrn@OpenHome@@PAVCpDevice@Net@2@VBufferCmp@2@V?$allocator@U?$pair@$$CBVBrn@OpenHome@@PAVCpDevice@Net@2@@std@@@std@@$0A@@std@@@std@@IAEXPAU_Node@?$_Tree_nod@V?$_Tmap_traits@VBrn@OpenHome@@PAVCpDevice@Net@2@VBufferCmp@2@V?$allocator@U?$pair@$$CBVBrn@OpenHome@@PAVCpDevice@Net@2@@std@@@std@@$0A@@std@@@2@@Z 10025010 f i CpDeviceCore.obj
 0001:00024170       ?_Orphan_ptr@?$_Tree@V?$_Tmap_traits@VBrn@OpenHome@@PAVCpDevice@Net@2@VBufferCmp@2@V?$allocator@U?$pair@$$CBVBrn@OpenHome@@PAVCpDevice@Net@2@@std@@@std@@$0A@@std@@@std@@IBEXAAV12@PAU_Node@?$_Tree_nod@V?$_Tmap_traits@VBrn@OpenHome@@PAVCpDevice@Net@2@VBufferCmp@2@V?$allocator@U?$pair@$$CBVBrn@OpenHome@@PAVCpDevice@Net@2@@std@@@std@@$0A@@std@@@2@@Z 10025170 f i CpDeviceCore.obj
 0001:000242c0       ?_Tidy@?$_Tree@V?$_Tmap_traits@VBrn@OpenHome@@PAVCpDevice@Net@2@VBufferCmp@2@V?$allocator@U?$pair@$$CBVBrn@OpenHome@@PAVCpDevice@Net@2@@std@@@std@@$0A@@std@@@std@@IAEXXZ 100252c0 f i CpDeviceCore.obj
 0001:000243f0       ??1?$_Tree_val@V?$_Tmap_traits@VBrn@OpenHome@@PAVCpDevice@Net@2@VBufferCmp@2@V?$allocator@U?$pair@$$CBVBrn@OpenHome@@PAVCpDevice@Net@2@@std@@@std@@$0A@@std@@@std@@QAE@XZ 100253f0 f i CpDeviceCore.obj
 0001:00024480       ?_Color@?$_Tree_val@V?$_Tmap_traits@VBrn@OpenHome@@PAVCpDevice@Net@2@VBufferCmp@2@V?$allocator@U?$pair@$$CBVBrn@OpenHome@@PAVCpDevice@Net@2@@std@@@std@@$0A@@std@@@std@@SGAADPAU_Node@?$_Tree_nod@V?$_Tmap_traits@VBrn@OpenHome@@PAVCpDevice@Net@2@VBufferCmp@2@V?$allocator@U?$pair@$$CBVBrn@OpenHome@@PAVCpDevice@Net@2@@std@@@std@@$0A@@std@@@2@@Z 10025480 f i CpDeviceCore.obj
 0001:00024490       ?_Isnil@?$_Tree_val@V?$_Tmap_traits@VBrn@OpenHome@@PAVCpDevice@Net@2@VBufferCmp@2@V?$allocator@U?$pair@$$CBVBrn@OpenHome@@PAVCpDevice@Net@2@@std@@@std@@$0A@@std@@@std@@SGAADPAU_Node@?$_Tree_nod@V?$_Tmap_traits@VBrn@OpenHome@@PAVCpDevice@Net@2@VBufferCmp@2@V?$allocator@U?$pair@$$CBVBrn@OpenHome@@PAVCpDevice@Net@2@@std@@@std@@$0A@@std@@@2@@Z 10025490 f i CpDeviceCore.obj
 0001:000244a0       ?_Key@?$_Tree_val@V?$_Tmap_traits@VBrn@OpenHome@@PAVCpDevice@Net@2@VBufferCmp@2@V?$allocator@U?$pair@$$CBVBrn@OpenHome@@PAVCpDevice@Net@2@@std@@@std@@$0A@@std@@@std@@SGAAVBrn@OpenHome@@PAU_Node@?$_Tree_nod@V?$_Tmap_traits@VBrn@OpenHome@@PAVCpDevice@Net@2@VBufferCmp@2@V?$allocator@U?$pair@$$CBVBrn@OpenHome@@PAVCpDevice@Net@2@@std@@@std@@$0A@@std@@@2@@Z 100254a0 f i CpDeviceCore.obj
 0001:000244d0       ?_Left@?$_Tree_val@V?$_Tmap_traits@VBrn@OpenHome@@PAVCpDevice@Net@2@VBufferCmp@2@V?$allocator@U?$pair@$$CBVBrn@OpenHome@@PAVCpDevice@Net@2@@std@@@std@@$0A@@std@@@std@@SGAAPAU_Node@?$_Tree_nod@V?$_Tmap_traits@VBrn@OpenHome@@PAVCpDevice@Net@2@VBufferCmp@2@V?$allocator@U?$pair@$$CBVBrn@OpenHome@@PAVCpDevice@Net@2@@std@@@std@@$0A@@std@@@2@PAU342@@Z 100254d0 f i CpDeviceCore.obj
 0001:000244e0       ?_Parent@?$_Tree_val@V?$_Tmap_traits@VBrn@OpenHome@@PAVCpDevice@Net@2@VBufferCmp@2@V?$allocator@U?$pair@$$CBVBrn@OpenHome@@PAVCpDevice@Net@2@@std@@@std@@$0A@@std@@@std@@SGAAPAU_Node@?$_Tree_nod@V?$_Tmap_traits@VBrn@OpenHome@@PAVCpDevice@Net@2@VBufferCmp@2@V?$allocator@U?$pair@$$CBVBrn@OpenHome@@PAVCpDevice@Net@2@@std@@@std@@$0A@@std@@@2@PAU342@@Z 100254e0 f i CpDeviceCore.obj
 0001:000244f0       ?_Right@?$_Tree_val@V?$_Tmap_traits@VBrn@OpenHome@@PAVCpDevice@Net@2@VBufferCmp@2@V?$allocator@U?$pair@$$CBVBrn@OpenHome@@PAVCpDevice@Net@2@@std@@@std@@$0A@@std@@@std@@SGAAPAU_Node@?$_Tree_nod@V?$_Tmap_traits@VBrn@OpenHome@@PAVCpDevice@Net@2@VBufferCmp@2@V?$allocator@U?$pair@$$CBVBrn@OpenHome@@PAVCpDevice@Net@2@@std@@@std@@$0A@@std@@@2@PAU342@@Z 100254f0 f i CpDeviceCore.obj
 0001:00024500       ?_Myval@?$_Tree_val@V?$_Tmap_traits@VBrn@OpenHome@@PAVCpDevice@Net@2@VBufferCmp@2@V?$allocator@U?$pair@$$CBVBrn@OpenHome@@PAVCpDevice@Net@2@@std@@@std@@$0A@@std@@@std@@SGAAU?$pair@$$CBVBrn@OpenHome@@PAVCpDevice@Net@2@@2@PAU_Node@?$_Tree_nod@V?$_Tmap_traits@VBrn@OpenHome@@PAVCpDevice@Net@2@VBufferCmp@2@V?$allocator@U?$pair@$$CBVBrn@OpenHome@@PAVCpDevice@Net@2@@std@@@std@@$0A@@std@@@2@@Z 10025500 f i CpDeviceCore.obj
 0001:00024510       ?_Max@?$_Tree_val@V?$_Tmap_traits@VBrn@OpenHome@@PAVCpDevice@Net@2@VBufferCmp@2@V?$allocator@U?$pair@$$CBVBrn@OpenHome@@PAVCpDevice@Net@2@@std@@@std@@$0A@@std@@@std@@SGPAU_Node@?$_Tree_nod@V?$_Tmap_traits@VBrn@OpenHome@@PAVCpDevice@Net@2@VBufferCmp@2@V?$allocator@U?$pair@$$CBVBrn@OpenHome@@PAVCpDevice@Net@2@@std@@@std@@$0A@@std@@@2@PAU342@@Z 10025510 f i CpDeviceCore.obj
 0001:00024560       ?_Min@?$_Tree_val@V?$_Tmap_traits@VBrn@OpenHome@@PAVCpDevice@Net@2@VBufferCmp@2@V?$allocator@U?$pair@$$CBVBrn@OpenHome@@PAVCpDevice@Net@2@@std@@@std@@$0A@@std@@@std@@SGPAU_Node@?$_Tree_nod@V?$_Tmap_traits@VBrn@OpenHome@@PAVCpDevice@Net@2@VBufferCmp@2@V?$allocator@U?$pair@$$CBVBrn@OpenHome@@PAVCpDevice@Net@2@@std@@@std@@$0A@@std@@@2@PAU342@@Z 10025560 f i CpDeviceCore.obj
 0001:000245b0       ??0?$allocator@U?$pair@$$CBVBrn@OpenHome@@PAVCpDevice@Net@2@@std@@@std@@QAE@XZ 100255b0 f i CpDeviceCore.obj
 0001:000245d0       ?deallocate@?$allocator@U_Node@?$_Tree_nod@V?$_Tmap_traits@VBrn@OpenHome@@PAVCpDevice@Net@2@VBufferCmp@2@V?$allocator@U?$pair@$$CBVBrn@OpenHome@@PAVCpDevice@Net@2@@std@@@std@@$0A@@std@@@std@@@std@@QAEXPAU_Node@?$_Tree_nod@V?$_Tmap_traits@VBrn@OpenHome@@PAVCpDevice@Net@2@VBufferCmp@2@V?$allocator@U?$pair@$$CBVBrn@OpenHome@@PAVCpDevice@Net@2@@std@@@std@@$0A@@std@@@2@I@Z 100255d0 f i CpDeviceCore.obj
 0001:00024610       ??0?$_Tree_iterator@V?$_Tree_val@V?$_Tmap_traits@VBrn@OpenHome@@PAVCpDevice@Net@2@VBufferCmp@2@V?$allocator@U?$pair@$$CBVBrn@OpenHome@@PAVCpDevice@Net@2@@std@@@std@@$0A@@std@@@std@@@std@@QAE@PAU_Node@?$_Tree_nod@V?$_Tmap_traits@VBrn@OpenHome@@PAVCpDevice@Net@2@VBufferCmp@2@V?$allocator@U?$pair@$$CBVBrn@OpenHome@@PAVCpDevice@Net@2@@std@@@std@@$0A@@std@@@1@PBV?$_Tree_val@V?$_Tmap_traits@VBrn@OpenHome@@PAVCpDevice@Net@2@VBufferCmp@2@V?$allocator@U?$pair@$$CBVBrn@OpenHome@@PAVCpDevice@Net@2@@std@@@std@@$0A@@std@@@1@@Z 10025610 f i CpDeviceCore.obj
 0001:00024650       ??D?$_Tree_iterator@V?$_Tree_val@V?$_Tmap_traits@VBrn@OpenHome@@PAVCpDevice@Net@2@VBufferCmp@2@V?$allocator@U?$pair@$$CBVBrn@OpenHome@@PAVCpDevice@Net@2@@std@@@std@@$0A@@std@@@std@@@std@@QBEAAU?$pair@$$CBVBrn@OpenHome@@PAVCpDevice@Net@2@@1@XZ 10025650 f i CpDeviceCore.obj
 0001:00024680       ??E?$_Tree_iterator@V?$_Tree_val@V?$_Tmap_traits@VBrn@OpenHome@@PAVCpDevice@Net@2@VBufferCmp@2@V?$allocator@U?$pair@$$CBVBrn@OpenHome@@PAVCpDevice@Net@2@@std@@@std@@$0A@@std@@@std@@@std@@QAEAAV01@XZ 10025680 f i CpDeviceCore.obj
 0001:000246b0       ??E?$_Tree_const_iterator@V?$_Tree_val@V?$_Tmap_traits@VBrn@OpenHome@@PAVCpDevice@Net@2@VBufferCmp@2@V?$allocator@U?$pair@$$CBVBrn@OpenHome@@PAVCpDevice@Net@2@@std@@@std@@$0A@@std@@@std@@@std@@QAEAAV01@XZ 100256b0 f i CpDeviceCore.obj
 0001:00024790       ??8?$_Tree_const_iterator@V?$_Tree_val@V?$_Tmap_traits@VBrn@OpenHome@@PAVCpDevice@Net@2@VBufferCmp@2@V?$allocator@U?$pair@$$CBVBrn@OpenHome@@PAVCpDevice@Net@2@@std@@@std@@$0A@@std@@@std@@@std@@QBE_NABV01@@Z 10025790 f i CpDeviceCore.obj
 0001:00024880       ?_Mynode@?$_Tree_unchecked_const_iterator@V?$_Tree_val@V?$_Tmap_traits@VBrn@OpenHome@@PAVCpDevice@Net@2@VBufferCmp@2@V?$allocator@U?$pair@$$CBVBrn@OpenHome@@PAVCpDevice@Net@2@@std@@@std@@$0A@@std@@@std@@U_Iterator_base12@2@@std@@QBEPAU_Node@?$_Tree_nod@V?$_Tmap_traits@VBrn@OpenHome@@PAVCpDevice@Net@2@VBufferCmp@2@V?$allocator@U?$pair@$$CBVBrn@OpenHome@@PAVCpDevice@Net@2@@std@@@std@@$0A@@std@@@2@XZ 10025880 f i CpDeviceCore.obj
 0001:000248a0       ?erase@?$_Tree@V?$_Tmap_traits@VBrn@OpenHome@@PAVCpDevice@Net@2@VBufferCmp@2@V?$allocator@U?$pair@$$CBVBrn@OpenHome@@PAVCpDevice@Net@2@@std@@@std@@$0A@@std@@@std@@QAE?AV?$_Tree_iterator@V?$_Tree_val@V?$_Tmap_traits@VBrn@OpenHome@@PAVCpDevice@Net@2@VBufferCmp@2@V?$allocator@U?$pair@$$CBVBrn@OpenHome@@PAVCpDevice@Net@2@@std@@@std@@$0A@@std@@@std@@@2@V?$_Tree_const_iterator@V?$_Tree_val@V?$_Tmap_traits@VBrn@OpenHome@@PAVCpDevice@Net@2@VBufferCmp@2@V?$allocator@U?$pair@$$CBVBrn@OpenHome@@PAVCpDevice@Net@2@@std@@@std@@$0A@@std@@@std@@@2@0@Z 100258a0 f i CpDeviceCore.obj
 0001:00024b20       ?_Lbound@?$_Tree@V?$_Tmap_traits@VBrn@OpenHome@@PAVCpDevice@Net@2@VBufferCmp@2@V?$allocator@U?$pair@$$CBVBrn@OpenHome@@PAVCpDevice@Net@2@@std@@@std@@$0A@@std@@@std@@IAEPAU_Node@?$_Tree_nod@V?$_Tmap_traits@VBrn@OpenHome@@PAVCpDevice@Net@2@VBufferCmp@2@V?$allocator@U?$pair@$$CBVBrn@OpenHome@@PAVCpDevice@Net@2@@std@@@std@@$0A@@std@@@2@ABVBrn@OpenHome@@@Z 10025b20 f i CpDeviceCore.obj
 0001:00024c00       ??0?$_Tree_val@V?$_Tmap_traits@VBrn@OpenHome@@PAVCpDevice@Net@2@VBufferCmp@2@V?$allocator@U?$pair@$$CBVBrn@OpenHome@@PAVCpDevice@Net@2@@std@@@std@@$0A@@std@@@std@@QAE@ABVBufferCmp@OpenHome@@V?$allocator@U?$pair@$$CBVBrn@OpenHome@@PAVCpDevice@Net@2@@std@@@1@@Z 10025c00 f i CpDeviceCore.obj
 0001:00024d40       ??1?$_Tree_nod@V?$_Tmap_traits@VBrn@OpenHome@@PAVCpDevice@Net@2@VBufferCmp@2@V?$allocator@U?$pair@$$CBVBrn@OpenHome@@PAVCpDevice@Net@2@@std@@@std@@$0A@@std@@@std@@QAE@XZ 10025d40 f i CpDeviceCore.obj
 0001:00024e50       ??0?$allocator@U?$pair@$$CBVBrn@OpenHome@@PAVCpDevice@Net@2@@std@@@std@@QAE@ABV01@@Z 10025e50 f i CpDeviceCore.obj
 0001:00024e70       ??0?$_Tree_const_iterator@V?$_Tree_val@V?$_Tmap_traits@VBrn@OpenHome@@PAVCpDevice@Net@2@VBufferCmp@2@V?$allocator@U?$pair@$$CBVBrn@OpenHome@@PAVCpDevice@Net@2@@std@@@std@@$0A@@std@@@std@@@std@@QAE@PAU_Node@?$_Tree_nod@V?$_Tmap_traits@VBrn@OpenHome@@PAVCpDevice@Net@2@VBufferCmp@2@V?$allocator@U?$pair@$$CBVBrn@OpenHome@@PAVCpDevice@Net@2@@std@@@std@@$0A@@std@@@1@PBV?$_Tree_val@V?$_Tmap_traits@VBrn@OpenHome@@PAVCpDevice@Net@2@VBufferCmp@2@V?$allocator@U?$pair@$$CBVBrn@OpenHome@@PAVCpDevice@Net@2@@std@@@std@@$0A@@std@@@1@@Z 10025e70 f i CpDeviceCore.obj
 0001:00024eb0       ??D?$_Tree_const_iterator@V?$_Tree_val@V?$_Tmap_traits@VBrn@OpenHome@@PAVCpDevice@Net@2@VBufferCmp@2@V?$allocator@U?$pair@$$CBVBrn@OpenHome@@PAVCpDevice@Net@2@@std@@@std@@$0A@@std@@@std@@@std@@QBEABU?$pair@$$CBVBrn@OpenHome@@PAVCpDevice@Net@2@@1@XZ 10025eb0 f i CpDeviceCore.obj
 0001:00024f90       ??E?$_Tree_unchecked_const_iterator@V?$_Tree_val@V?$_Tmap_traits@VBrn@OpenHome@@PAVCpDevice@Net@2@VBufferCmp@2@V?$allocator@U?$pair@$$CBVBrn@OpenHome@@PAVCpDevice@Net@2@@std@@@std@@$0A@@std@@@std@@U_Iterator_base12@2@@std@@QAEAAV01@XZ 10025f90 f i CpDeviceCore.obj
 0001:00025080       ??1?$_Tmap_traits@VBrn@OpenHome@@PAVCpDevice@Net@2@VBufferCmp@2@V?$allocator@U?$pair@$$CBVBrn@OpenHome@@PAVCpDevice@Net@2@@std@@@std@@$0A@@std@@QAE@XZ 10026080 f i CpDeviceCore.obj
 0001:000250b0       ??0?$_Tree_nod@V?$_Tmap_traits@VBrn@OpenHome@@PAVCpDevice@Net@2@VBufferCmp@2@V?$allocator@U?$pair@$$CBVBrn@OpenHome@@PAVCpDevice@Net@2@@std@@@std@@$0A@@std@@@std@@QAE@ABVBufferCmp@OpenHome@@V?$allocator@U?$pair@$$CBVBrn@OpenHome@@PAVCpDevice@Net@2@@std@@@1@@Z 100260b0 f i CpDeviceCore.obj
 0001:00025200       ?allocate@?$allocator@U_Node@?$_Tree_nod@V?$_Tmap_traits@VBrn@OpenHome@@PAVCpDevice@Net@2@VBufferCmp@2@V?$allocator@U?$pair@$$CBVBrn@OpenHome@@PAVCpDevice@Net@2@@std@@@std@@$0A@@std@@@std@@@std@@QAEPAU_Node@?$_Tree_nod@V?$_Tmap_traits@VBrn@OpenHome@@PAVCpDevice@Net@2@VBufferCmp@2@V?$allocator@U?$pair@$$CBVBrn@OpenHome@@PAVCpDevice@Net@2@@std@@@std@@$0A@@std@@@2@I@Z 10026200 f i CpDeviceCore.obj
 0001:00025240       ??E?$_Tree_const_iterator@V?$_Tree_val@V?$_Tmap_traits@VBrn@OpenHome@@PAVCpDevice@Net@2@VBufferCmp@2@V?$allocator@U?$pair@$$CBVBrn@OpenHome@@PAVCpDevice@Net@2@@std@@@std@@$0A@@std@@@std@@@std@@QAE?AV01@H@Z 10026240 f i CpDeviceCore.obj
 0001:00025340       ??0?$_Tree_unchecked_const_iterator@V?$_Tree_val@V?$_Tmap_traits@VBrn@OpenHome@@PAVCpDevice@Net@2@VBufferCmp@2@V?$allocator@U?$pair@$$CBVBrn@OpenHome@@PAVCpDevice@Net@2@@std@@@std@@$0A@@std@@@std@@U_Iterator_base12@2@@std@@QAE@PAU_Node@?$_Tree_nod@V?$_Tmap_traits@VBrn@OpenHome@@PAVCpDevice@Net@2@VBufferCmp@2@V?$allocator@U?$pair@$$CBVBrn@OpenHome@@PAVCpDevice@Net@2@@std@@@std@@$0A@@std@@@1@PBV?$_Tree_val@V?$_Tmap_traits@VBrn@OpenHome@@PAVCpDevice@Net@2@VBufferCmp@2@V?$allocator@U?$pair@$$CBVBrn@OpenHome@@PAVCpDevice@Net@2@@std@@@std@@$0A@@std@@@1@@Z 10026340 f i CpDeviceCore.obj
 0001:000253e0       ??0?$_Iterator012@Ubidirectional_iterator_tag@std@@U?$pair@$$CBVBrn@OpenHome@@PAVCpDevice@Net@2@@2@HPBU32@ABU32@U_Iterator_base12@2@@std@@QAE@XZ 100263e0 f i CpDeviceCore.obj
 0001:00025410       ??0?$_Tmap_traits@VBrn@OpenHome@@PAVCpDevice@Net@2@VBufferCmp@2@V?$allocator@U?$pair@$$CBVBrn@OpenHome@@PAVCpDevice@Net@2@@std@@@std@@$0A@@std@@QAE@VBufferCmp@OpenHome@@@Z 10026410 f i CpDeviceCore.obj
 0001:00025450       ??$MakeFunctorCpiDevice@VCpDeviceList@Net@OpenHome@@V123@@Net@OpenHome@@YG?AV?$MemberTranslatorCpiDevice@VCpDeviceList@Net@OpenHome@@P8123@AEXAAVCpiDevice@23@@Z@01@AAVCpDeviceList@01@ABQ8301@AEXAAVCpiDevice@01@@Z@Z 10026450 f i CpDeviceCore.obj
 0001:00025480       ??$?0AAVBrn@OpenHome@@AAPAVCpDevice@Net@1@@?$pair@VBrn@OpenHome@@PAVCpDevice@Net@2@@std@@QAE@AAVBrn@OpenHome@@AAPAVCpDevice@Net@3@@Z 10026480 f i CpDeviceCore.obj
 0001:000254d0       ??$insert@U?$pair@VBrn@OpenHome@@PAVCpDevice@Net@2@@std@@@?$_Tree@V?$_Tmap_traits@VBrn@OpenHome@@PAVCpDevice@Net@2@VBufferCmp@2@V?$allocator@U?$pair@$$CBVBrn@OpenHome@@PAVCpDevice@Net@2@@std@@@std@@$0A@@std@@@std@@QAE?AU?$pair@V?$_Tree_iterator@V?$_Tree_val@V?$_Tmap_traits@VBrn@OpenHome@@PAVCpDevice@Net@2@VBufferCmp@2@V?$allocator@U?$pair@$$CBVBrn@OpenHome@@PAVCpDevice@Net@2@@std@@@std@@$0A@@std@@@std@@@std@@_N@1@$$QAU?$pair@VBrn@OpenHome@@PAVCpDevice@Net@2@@1@@Z 100264d0 f i CpDeviceCore.obj
 0001:00025550       ??$swap@D@std@@YGXAAD0@Z   10026550 f i CpDeviceCore.obj
 0001:00025600       ??$addressof@U?$pair@$$CBVBrn@OpenHome@@PAVCpDevice@Net@2@@std@@@std@@YGPAU?$pair@$$CBVBrn@OpenHome@@PAVCpDevice@Net@2@@0@AAU10@@Z 10026600 f i CpDeviceCore.obj
 0001:00025610       ??$_Dest_val@V?$allocator@U?$pair@$$CBVBrn@OpenHome@@PAVCpDevice@Net@2@@std@@@std@@U?$pair@$$CBVBrn@OpenHome@@PAVCpDevice@Net@2@@2@@std@@YGXAAV?$allocator@U?$pair@$$CBVBrn@OpenHome@@PAVCpDevice@Net@2@@std@@@0@PAU?$pair@$$CBVBrn@OpenHome@@PAVCpDevice@Net@2@@0@@Z 10026610 f i CpDeviceCore.obj
 0001:00025630       ??$_Debug_lt_pred@VBufferCmp@OpenHome@@VBrn@2@V32@@std@@YG_NVBufferCmp@OpenHome@@ABVBrn@2@AAV32@PB_WI@Z 10026630 f i CpDeviceCore.obj
 0001:000256a0       ??$_Kfn@$$CBVBrn@OpenHome@@PAVCpDevice@Net@2@@?$_Tmap_traits@VBrn@OpenHome@@PAVCpDevice@Net@2@VBufferCmp@2@V?$allocator@U?$pair@$$CBVBrn@OpenHome@@PAVCpDevice@Net@2@@std@@@std@@$0A@@std@@SGABVBrn@OpenHome@@ABU?$pair@$$CBVBrn@OpenHome@@PAVCpDevice@Net@2@@1@@Z 100266a0 f i CpDeviceCore.obj
 0001:000256b0       ??$_Debug_lt_pred@VBufferCmp@OpenHome@@VBrn@2@V32@@std@@YG_NVBufferCmp@OpenHome@@AAVBrn@2@ABV32@PB_WI@Z 100266b0 f i CpDeviceCore.obj
 0001:00025720       ??$?0U_Node@?$_Tree_nod@V?$_Tmap_traits@VBrn@OpenHome@@PAVCpDevice@Net@2@VBufferCmp@2@V?$allocator@U?$pair@$$CBVBrn@OpenHome@@PAVCpDevice@Net@2@@std@@@std@@$0A@@std@@@std@@@?$allocator@U_Container_proxy@std@@@std@@QAE@ABV?$allocator@U_Node@?$_Tree_nod@V?$_Tmap_traits@VBrn@OpenHome@@PAVCpDevice@Net@2@VBufferCmp@2@V?$allocator@U?$pair@$$CBVBrn@OpenHome@@PAVCpDevice@Net@2@@std@@@std@@$0A@@std@@@std@@@1@@Z 10026720 f i CpDeviceCore.obj
 0001:00025740       ??$?0U?$pair@$$CBVBrn@OpenHome@@PAVCpDevice@Net@2@@std@@@?$allocator@U_Node@?$_Tree_nod@V?$_Tmap_traits@VBrn@OpenHome@@PAVCpDevice@Net@2@VBufferCmp@2@V?$allocator@U?$pair@$$CBVBrn@OpenHome@@PAVCpDevice@Net@2@@std@@@std@@$0A@@std@@@std@@@std@@QAE@ABV?$allocator@U?$pair@$$CBVBrn@OpenHome@@PAVCpDevice@Net@2@@std@@@1@@Z 10026740 f i CpDeviceCore.obj
 0001:00025760       ??$_Allocate@U_Node@?$_Tree_nod@V?$_Tmap_traits@VBrn@OpenHome@@PAVCpDevice@Net@2@VBufferCmp@2@V?$allocator@U?$pair@$$CBVBrn@OpenHome@@PAVCpDevice@Net@2@@std@@@std@@$0A@@std@@@std@@@std@@YGPAU_Node@?$_Tree_nod@V?$_Tmap_traits@VBrn@OpenHome@@PAVCpDevice@Net@2@VBufferCmp@2@V?$allocator@U?$pair@$$CBVBrn@OpenHome@@PAVCpDevice@Net@2@@std@@@std@@$0A@@std@@@0@IPAU120@@Z 10026760 f i CpDeviceCore.obj
 0001:00025800       ?_Linsert@?$_Tree@V?$_Tmap_traits@VBrn@OpenHome@@PAVCpDevice@Net@2@VBufferCmp@2@V?$allocator@U?$pair@$$CBVBrn@OpenHome@@PAVCpDevice@Net@2@@std@@@std@@$0A@@std@@@std@@QAE?AU?$pair@V?$_Tree_iterator@V?$_Tree_val@V?$_Tmap_traits@VBrn@OpenHome@@PAVCpDevice@Net@2@VBufferCmp@2@V?$allocator@U?$pair@$$CBVBrn@OpenHome@@PAVCpDevice@Net@2@@std@@@std@@$0A@@std@@@std@@@std@@_N@2@PAU_Node@?$_Tree_nod@V?$_Tmap_traits@VBrn@OpenHome@@PAVCpDevice@Net@2@VBufferCmp@2@V?$allocator@U?$pair@$$CBVBrn@OpenHome@@PAVCpDevice@Net@2@@std@@@std@@$0A@@std@@@2@_N@Z 10026800 f i CpDeviceCore.obj
 0001:00025cd0       ?destroy@?$allocator@U?$pair@$$CBVBrn@OpenHome@@PAVCpDevice@Net@2@@std@@@std@@QAEXPAU?$pair@$$CBVBrn@OpenHome@@PAVCpDevice@Net@2@@2@@Z 10026cd0 f i CpDeviceCore.obj
 0001:00025d00       ??0?$MemberTranslatorCpiDevice@VCpDeviceList@Net@OpenHome@@P8123@AEXAAVCpiDevice@23@@Z@Net@OpenHome@@QAE@AAVCpDeviceList@12@ABQ8312@AEXAAVCpiDevice@12@@Z@Z 10026d00 f i CpDeviceCore.obj
 0001:00025d50       ??0FunctorCpiDevice@Net@OpenHome@@IAE@P6GXABV012@AAVCpiDevice@12@@ZPBX3I@Z 10026d50 f i CpDeviceCore.obj
 0001:00025db0       ?_Insert@?$_Tree@V?$_Tmap_traits@VBrn@OpenHome@@PAVCpDevice@Net@2@VBufferCmp@2@V?$allocator@U?$pair@$$CBVBrn@OpenHome@@PAVCpDevice@Net@2@@std@@@std@@$0A@@std@@@std@@IAE?AV?$_Tree_iterator@V?$_Tree_val@V?$_Tmap_traits@VBrn@OpenHome@@PAVCpDevice@Net@2@VBufferCmp@2@V?$allocator@U?$pair@$$CBVBrn@OpenHome@@PAVCpDevice@Net@2@@std@@@std@@$0A@@std@@@std@@@2@_NPAU_Node@?$_Tree_nod@V?$_Tmap_traits@VBrn@OpenHome@@PAVCpDevice@Net@2@VBufferCmp@2@V?$allocator@U?$pair@$$CBVBrn@OpenHome@@PAVCpDevice@Net@2@@std@@@std@@$0A@@std@@@2@1@Z 10026db0 f i CpDeviceCore.obj
 0001:00026260       ??F?$_Tree_iterator@V?$_Tree_val@V?$_Tmap_traits@VBrn@OpenHome@@PAVCpDevice@Net@2@VBufferCmp@2@V?$allocator@U?$pair@$$CBVBrn@OpenHome@@PAVCpDevice@Net@2@@std@@@std@@$0A@@std@@@std@@@std@@QAEAAV01@XZ 10027260 f i CpDeviceCore.obj
 0001:00026290       ?Thunk@?$MemberTranslatorCpiDevice@VCpDeviceList@Net@OpenHome@@P8123@AEXAAVCpiDevice@23@@Z@Net@OpenHome@@SGXABVFunctorCpiDevice@23@AAVCpiDevice@23@@Z 10027290 f i CpDeviceCore.obj
 0001:000262f0       ??0?$pair@V?$_Tree_iterator@V?$_Tree_val@V?$_Tmap_traits@VBrn@OpenHome@@PAVCpDevice@Net@2@VBufferCmp@2@V?$allocator@U?$pair@$$CBVBrn@OpenHome@@PAVCpDevice@Net@2@@std@@@std@@$0A@@std@@@std@@@std@@_N@std@@QAE@$$QAV?$_Tree_iterator@V?$_Tree_val@V?$_Tmap_traits@VBrn@OpenHome@@PAVCpDevice@Net@2@VBufferCmp@2@V?$allocator@U?$pair@$$CBVBrn@OpenHome@@PAVCpDevice@Net@2@@std@@@std@@$0A@@std@@@std@@@1@$$QA_N@Z 100272f0 f i CpDeviceCore.obj
 0001:00026340       ?max_size@?$_Tree@V?$_Tmap_traits@VBrn@OpenHome@@PAVCpDevice@Net@2@VBufferCmp@2@V?$allocator@U?$pair@$$CBVBrn@OpenHome@@PAVCpDevice@Net@2@@std@@@std@@$0A@@std@@@std@@QBEIXZ 10027340 f i CpDeviceCore.obj
 0001:00026370       ??F?$_Tree_const_iterator@V?$_Tree_val@V?$_Tmap_traits@VBrn@OpenHome@@PAVCpDevice@Net@2@VBufferCmp@2@V?$allocator@U?$pair@$$CBVBrn@OpenHome@@PAVCpDevice@Net@2@@std@@@std@@$0A@@std@@@std@@@std@@QAEAAV01@XZ 10027370 f i CpDeviceCore.obj
 0001:000264e0       ??0?$_Pair_base@V?$_Tree_iterator@V?$_Tree_val@V?$_Tmap_traits@VBrn@OpenHome@@PAVCpDevice@Net@2@VBufferCmp@2@V?$allocator@U?$pair@$$CBVBrn@OpenHome@@PAVCpDevice@Net@2@@std@@@std@@$0A@@std@@@std@@@std@@_N@std@@QAE@$$QAV?$_Tree_iterator@V?$_Tree_val@V?$_Tmap_traits@VBrn@OpenHome@@PAVCpDevice@Net@2@VBufferCmp@2@V?$allocator@U?$pair@$$CBVBrn@OpenHome@@PAVCpDevice@Net@2@@std@@@std@@$0A@@std@@@std@@@1@$$QA_N@Z 100274e0 f i CpDeviceCore.obj
 0001:00026580       ?max_size@?$allocator@U?$pair@$$CBVBrn@OpenHome@@PAVCpDevice@Net@2@@std@@@std@@QBEIXZ 10027580 f i CpDeviceCore.obj
 0001:000265e0       ??F?$_Tree_unchecked_const_iterator@V?$_Tree_val@V?$_Tmap_traits@VBrn@OpenHome@@PAVCpDevice@Net@2@VBufferCmp@2@V?$allocator@U?$pair@$$CBVBrn@OpenHome@@PAVCpDevice@Net@2@@std@@@std@@$0A@@std@@@std@@U_Iterator_base12@2@@std@@QAEAAV01@XZ 100275e0 f i CpDeviceCore.obj
 0001:00026710       ??$forward@AAVBrn@OpenHome@@@std@@YGAAVBrn@OpenHome@@AAV12@@Z 10027710 f i CpDeviceCore.obj
 0001:00026720       ??$forward@AAPAVCpDevice@Net@OpenHome@@@std@@YGAAPAVCpDevice@Net@OpenHome@@AAPAV123@@Z 10027720 f i CpDeviceCore.obj
 0001:00026730       ??$?0AAVBrn@OpenHome@@AAPAVCpDevice@Net@1@@?$_Pair_base@VBrn@OpenHome@@PAVCpDevice@Net@2@@std@@QAE@AAVBrn@OpenHome@@AAPAVCpDevice@Net@3@@Z 10027730 f i CpDeviceCore.obj
 0001:000267d0       ??$forward@U?$pair@VBrn@OpenHome@@PAVCpDevice@Net@2@@std@@@std@@YG$$QAU?$pair@VBrn@OpenHome@@PAVCpDevice@Net@2@@0@AAU10@@Z 100277d0 f i CpDeviceCore.obj
 0001:000267e0       ??$_Buynode@U?$pair@VBrn@OpenHome@@PAVCpDevice@Net@2@@std@@@?$_Tree_val@V?$_Tmap_traits@VBrn@OpenHome@@PAVCpDevice@Net@2@VBufferCmp@2@V?$allocator@U?$pair@$$CBVBrn@OpenHome@@PAVCpDevice@Net@2@@std@@@std@@$0A@@std@@@std@@QAEPAU_Node@?$_Tree_nod@V?$_Tmap_traits@VBrn@OpenHome@@PAVCpDevice@Net@2@VBufferCmp@2@V?$allocator@U?$pair@$$CBVBrn@OpenHome@@PAVCpDevice@Net@2@@std@@@std@@$0A@@std@@@1@$$QAU?$pair@VBrn@OpenHome@@PAVCpDevice@Net@2@@1@@Z 100277e0 f i CpDeviceCore.obj
 0001:00026900       ??$_Move@AAD@std@@YG$$QADAAD@Z 10027900 f i CpDeviceCore.obj
 0001:00026910       ??$?0AAV?$_Tree_iterator@V?$_Tree_val@V?$_Tmap_traits@VBrn@OpenHome@@PAVCpDevice@Net@2@VBufferCmp@2@V?$allocator@U?$pair@$$CBVBrn@OpenHome@@PAVCpDevice@Net@2@@std@@@std@@$0A@@std@@@std@@@std@@_N@?$pair@V?$_Tree_iterator@V?$_Tree_val@V?$_Tmap_traits@VBrn@OpenHome@@PAVCpDevice@Net@2@VBufferCmp@2@V?$allocator@U?$pair@$$CBVBrn@OpenHome@@PAVCpDevice@Net@2@@std@@@std@@$0A@@std@@@std@@@std@@_N@std@@QAE@AAV?$_Tree_iterator@V?$_Tree_val@V?$_Tmap_traits@VBrn@OpenHome@@PAVCpDevice@Net@2@VBufferCmp@2@V?$allocator@U?$pair@$$CBVBrn@OpenHome@@PAVCpDevice@Net@2@@std@@@std@@$0A@@std@@@std@@@1@$$QA_N@Z 10027910 f i CpDeviceCore.obj
 0001:00026960       ??$_Destroy@U?$pair@$$CBVBrn@OpenHome@@PAVCpDevice@Net@2@@std@@@std@@YGXPAU?$pair@$$CBVBrn@OpenHome@@PAVCpDevice@Net@2@@0@@Z 10027960 f i CpDeviceCore.obj
 0001:00026980       ??$move@AAV?$_Tree_iterator@V?$_Tree_val@V?$_Tmap_traits@VBrn@OpenHome@@PAVCpDevice@Net@2@VBufferCmp@2@V?$allocator@U?$pair@$$CBVBrn@OpenHome@@PAVCpDevice@Net@2@@std@@@std@@$0A@@std@@@std@@@std@@@std@@YG$$QAV?$_Tree_iterator@V?$_Tree_val@V?$_Tmap_traits@VBrn@OpenHome@@PAVCpDevice@Net@2@VBufferCmp@2@V?$allocator@U?$pair@$$CBVBrn@OpenHome@@PAVCpDevice@Net@2@@std@@@std@@$0A@@std@@@std@@@0@AAV10@@Z 10027980 f i CpDeviceCore.obj
 0001:00026990       ??$move@AA_N@std@@YG$$QA_NAA_N@Z 10027990 f i CpDeviceCore.obj
 0001:000269a0       ??_G?$pair@$$CBVBrn@OpenHome@@PAVCpDevice@Net@2@@std@@QAEPAXI@Z 100279a0 f i CpDeviceCore.obj
 0001:000269f0       ??1?$pair@$$CBVBrn@OpenHome@@PAVCpDevice@Net@2@@std@@QAE@XZ 100279f0 f i CpDeviceCore.obj
 0001:00026a20       ??1?$_Pair_base@$$CBVBrn@OpenHome@@PAVCpDevice@Net@2@@std@@QAE@XZ 10027a20 f i CpDeviceCore.obj
 0001:00026a50       ?_Buynode@?$_Tree_val@V?$_Tmap_traits@VBrn@OpenHome@@PAVCpDevice@Net@2@VBufferCmp@2@V?$allocator@U?$pair@$$CBVBrn@OpenHome@@PAVCpDevice@Net@2@@std@@@std@@$0A@@std@@@std@@QAEPAU_Node@?$_Tree_nod@V?$_Tmap_traits@VBrn@OpenHome@@PAVCpDevice@Net@2@VBufferCmp@2@V?$allocator@U?$pair@$$CBVBrn@OpenHome@@PAVCpDevice@Net@2@@std@@@std@@$0A@@std@@@2@XZ 10027a50 f i CpDeviceCore.obj
 0001:00026b00       ??$_Cons_val@V?$allocator@U?$pair@$$CBVBrn@OpenHome@@PAVCpDevice@Net@2@@std@@@std@@U?$pair@$$CBVBrn@OpenHome@@PAVCpDevice@Net@2@@2@U?$pair@VBrn@OpenHome@@PAVCpDevice@Net@2@@2@@std@@YGXAAV?$allocator@U?$pair@$$CBVBrn@OpenHome@@PAVCpDevice@Net@2@@std@@@0@PAU?$pair@$$CBVBrn@OpenHome@@PAVCpDevice@Net@2@@0@$$QAU?$pair@VBrn@OpenHome@@PAVCpDevice@Net@2@@0@@Z 10027b00 f i CpDeviceCore.obj
 0001:00026b30       ??$forward@AAV?$_Tree_iterator@V?$_Tree_val@V?$_Tmap_traits@VBrn@OpenHome@@PAVCpDevice@Net@2@VBufferCmp@2@V?$allocator@U?$pair@$$CBVBrn@OpenHome@@PAVCpDevice@Net@2@@std@@@std@@$0A@@std@@@std@@@std@@@std@@YGAAV?$_Tree_iterator@V?$_Tree_val@V?$_Tmap_traits@VBrn@OpenHome@@PAVCpDevice@Net@2@VBufferCmp@2@V?$allocator@U?$pair@$$CBVBrn@OpenHome@@PAVCpDevice@Net@2@@std@@@std@@$0A@@std@@@std@@@0@AAV10@@Z 10027b30 f i CpDeviceCore.obj
 0001:00026b40       ??$forward@_N@std@@YG$$QA_NAA_N@Z 10027b40 f i CpDeviceCore.obj
 0001:00026b50       ??$?0AAV?$_Tree_iterator@V?$_Tree_val@V?$_Tmap_traits@VBrn@OpenHome@@PAVCpDevice@Net@2@VBufferCmp@2@V?$allocator@U?$pair@$$CBVBrn@OpenHome@@PAVCpDevice@Net@2@@std@@@std@@$0A@@std@@@std@@@std@@_N@?$_Pair_base@V?$_Tree_iterator@V?$_Tree_val@V?$_Tmap_traits@VBrn@OpenHome@@PAVCpDevice@Net@2@VBufferCmp@2@V?$allocator@U?$pair@$$CBVBrn@OpenHome@@PAVCpDevice@Net@2@@std@@@std@@$0A@@std@@@std@@@std@@_N@std@@QAE@AAV?$_Tree_iterator@V?$_Tree_val@V?$_Tmap_traits@VBrn@OpenHome@@PAVCpDevice@Net@2@VBufferCmp@2@V?$allocator@U?$pair@$$CBVBrn@OpenHome@@PAVCpDevice@Net@2@@std@@@std@@$0A@@std@@@std@@@1@$$QA_N@Z 10027b50 f i CpDeviceCore.obj
 0001:00026bf0       ??$construct@U?$pair@VBrn@OpenHome@@PAVCpDevice@Net@2@@std@@@?$allocator@U?$pair@$$CBVBrn@OpenHome@@PAVCpDevice@Net@2@@std@@@std@@QAEXPAU?$pair@$$CBVBrn@OpenHome@@PAVCpDevice@Net@2@@1@$$QAU?$pair@VBrn@OpenHome@@PAVCpDevice@Net@2@@1@@Z 10027bf0 f i CpDeviceCore.obj
 0001:00026cc0       ??$?0VBrn@OpenHome@@PAVCpDevice@Net@1@@?$pair@$$CBVBrn@OpenHome@@PAVCpDevice@Net@2@@std@@QAE@$$QAU?$pair@VBrn@OpenHome@@PAVCpDevice@Net@2@@1@@Z 10027cc0 f i CpDeviceCore.obj
 0001:00026d10       ??$forward@VBrn@OpenHome@@@std@@YG$$QAVBrn@OpenHome@@AAV12@@Z 10027d10 f i CpDeviceCore.obj
 0001:00026d20       ??$forward@PAVCpDevice@Net@OpenHome@@@std@@YG$$QAPAVCpDevice@Net@OpenHome@@AAPAV123@@Z 10027d20 f i CpDeviceCore.obj
 0001:00026d30       ??$?0VBrn@OpenHome@@PAVCpDevice@Net@1@@?$_Pair_base@$$CBVBrn@OpenHome@@PAVCpDevice@Net@2@@std@@QAE@$$QAVBrn@OpenHome@@$$QAPAVCpDevice@Net@3@@Z 10027d30 f i CpDeviceCore.obj
 0001:00026dd0       _CpDeviceCUdn@4            10027dd0 f   CpDeviceC.obj
 0001:00026e30       _CpDeviceCAddRef@4         10027e30 f   CpDeviceC.obj
 0001:00026e70       _CpDeviceCRemoveRef@4      10027e70 f   CpDeviceC.obj
 0001:00026eb0       _CpDeviceCGetAttribute@12  10027eb0 f   CpDeviceC.obj
 0001:00026fd0       _CpDeviceListDestroy@4     10027fd0 f   CpDeviceC.obj
 0001:00027040       _CpDeviceListRefresh@4     10028040 f   CpDeviceC.obj
 0001:00027140       ??0Brh@OpenHome@@QAE@XZ    10028140 f i CpDeviceC.obj
 0001:00027180       ?Udn@CpDeviceCpp@Net@OpenHome@@QBEABV?$basic_string@DU?$char_traits@D@std@@V?$allocator@D@2@@std@@XZ 10028180 f   CpDeviceStd.obj
 0001:000271a0       ??8CpDeviceCpp@Net@OpenHome@@QBE_NABV012@@Z 100281a0 f   CpDeviceStd.obj
 0001:000271d0       ??9CpDeviceCpp@Net@OpenHome@@QBE_NABV012@@Z 100281d0 f   CpDeviceStd.obj
 0001:00027200       ?AddRef@CpDeviceCpp@Net@OpenHome@@QAEXXZ 10028200 f   CpDeviceStd.obj
 0001:00027240       ?RemoveRef@CpDeviceCpp@Net@OpenHome@@QAEXXZ 10028240 f   CpDeviceStd.obj
 0001:000272d0       ?GetAttribute@CpDeviceCpp@Net@OpenHome@@QBE_NPBDAAV?$basic_string@DU?$char_traits@D@std@@V?$allocator@D@2@@std@@@Z 100282d0 f   CpDeviceStd.obj
 0001:00027470       ?Device@CpDeviceCpp@Net@OpenHome@@QAEAAVCpiDevice@23@XZ 10028470 f   CpDeviceStd.obj
 0001:00027490       ??0CpDeviceCpp@Net@OpenHome@@IAE@AAVCpiDevice@12@@Z 10028490 f   CpDeviceStd.obj
 0001:00027560       ??1CpDeviceCpp@Net@OpenHome@@MAE@XZ 10028560 f   CpDeviceStd.obj
 0001:00027590       ??1CpDeviceListCpp@Net@OpenHome@@QAE@XZ 10028590 f   CpDeviceStd.obj
 0001:00027700       ?Refresh@CpDeviceListCpp@Net@OpenHome@@QAEXXZ 10028700 f   CpDeviceStd.obj
 0001:00027740       ??0CpDeviceListCpp@Net@OpenHome@@IAE@VFunctorCpDeviceCpp@12@0@Z 10028740 f   CpDeviceStd.obj
 0001:00027850       ?GetAddedFunctor@CpDeviceListCpp@Net@OpenHome@@IAEXAAVFunctorCpiDevice@23@@Z 10028850 f   CpDeviceStd.obj
 0001:000278c0       ?GetRemovedFunctor@CpDeviceListCpp@Net@OpenHome@@IAEXAAVFunctorCpiDevice@23@@Z 100288c0 f   CpDeviceStd.obj
 0001:00027930       ?Added@CpDeviceListCpp@Net@OpenHome@@AAEXAAVCpiDevice@23@@Z 10028930 f   CpDeviceStd.obj
 0001:00027a90       ?Removed@CpDeviceListCpp@Net@OpenHome@@AAEXAAVCpiDevice@23@@Z 10028a90 f   CpDeviceStd.obj
 0001:00027ea0       ??1?$_String_iterator@DU?$char_traits@D@std@@V?$allocator@D@2@@std@@QAE@XZ 10028ea0 f i CpDeviceStd.obj
 0001:00027ed0       ??0?$_String_const_iterator@DU?$char_traits@D@std@@V?$allocator@D@2@@std@@QAE@ABV01@@Z 10028ed0 f i CpDeviceStd.obj
 0001:00027f20       ??1?$_String_const_iterator@DU?$char_traits@D@std@@V?$allocator@D@2@@std@@QAE@XZ 10028f20 f i CpDeviceStd.obj
 0001:00027f50       ??0?$_Iterator012@Urandom_access_iterator_tag@std@@DHPBDABDU_Iterator_base12@2@@std@@QAE@ABU01@@Z 10028f50 f i CpDeviceStd.obj
 0001:00027f90       ??1?$_Iterator012@Urandom_access_iterator_tag@std@@DHPBDABDU_Iterator_base12@2@@std@@QAE@XZ 10028f90 f i CpDeviceStd.obj
 0001:00027fc0       ??_GCpDeviceCpp@Net@OpenHome@@MAEPAXI@Z 10028fc0 f i CpDeviceStd.obj
 0001:00027fc0       ??_ECpDeviceCpp@Net@OpenHome@@MAEPAXI@Z 10028fc0 f i CpDeviceStd.obj
 0001:00028010       ??1?$map@VBrn@OpenHome@@PAVCpDeviceCpp@Net@2@VBufferCmp@2@V?$allocator@U?$pair@$$CBVBrn@OpenHome@@PAVCpDeviceCpp@Net@2@@std@@@std@@@std@@QAE@XZ 10029010 f i CpDeviceStd.obj
 0001:00028040       ??1?$_Tree_iterator@V?$_Tree_val@V?$_Tmap_traits@VBrn@OpenHome@@PAVCpDeviceCpp@Net@2@VBufferCmp@2@V?$allocator@U?$pair@$$CBVBrn@OpenHome@@PAVCpDeviceCpp@Net@2@@std@@@std@@$0A@@std@@@std@@@std@@QAE@XZ 10029040 f i CpDeviceStd.obj
 0001:00028070       ??1?$_Tree_const_iterator@V?$_Tree_val@V?$_Tmap_traits@VBrn@OpenHome@@PAVCpDeviceCpp@Net@2@VBufferCmp@2@V?$allocator@U?$pair@$$CBVBrn@OpenHome@@PAVCpDeviceCpp@Net@2@@std@@@std@@$0A@@std@@@std@@@std@@QAE@XZ 10029070 f i CpDeviceStd.obj
 0001:000280a0       ??1?$_Tree_unchecked_const_iterator@V?$_Tree_val@V?$_Tmap_traits@VBrn@OpenHome@@PAVCpDeviceCpp@Net@2@VBufferCmp@2@V?$allocator@U?$pair@$$CBVBrn@OpenHome@@PAVCpDeviceCpp@Net@2@@std@@@std@@$0A@@std@@@std@@U_Iterator_base12@2@@std@@QAE@XZ 100290a0 f i CpDeviceStd.obj
 0001:000280d0       ??1?$_Iterator012@Ubidirectional_iterator_tag@std@@U?$pair@$$CBVBrn@OpenHome@@PAVCpDeviceCpp@Net@2@@2@HPBU32@ABU32@U_Iterator_base12@2@@std@@QAE@XZ 100290d0 f i CpDeviceStd.obj
 0001:00028100       ??BFunctorCpDeviceCpp@Net@OpenHome@@QBE_NXZ 10029100 f i CpDeviceStd.obj
 0001:00028130       ??RFunctorCpDeviceCpp@Net@OpenHome@@QBEXAAVCpDeviceCpp@12@@Z 10029130 f i CpDeviceStd.obj
 0001:00028180       ??1?$pair@VBrn@OpenHome@@PAVCpDeviceCpp@Net@2@@std@@QAE@XZ 10029180 f i CpDeviceStd.obj
 0001:000281b0       ??1?$pair@V?$_Tree_iterator@V?$_Tree_val@V?$_Tmap_traits@VBrn@OpenHome@@PAVCpDeviceCpp@Net@2@VBufferCmp@2@V?$allocator@U?$pair@$$CBVBrn@OpenHome@@PAVCpDeviceCpp@Net@2@@std@@@std@@$0A@@std@@@std@@@std@@_N@std@@QAE@XZ 100291b0 f i CpDeviceStd.obj
 0001:000281e0       ??1?$_Pair_base@VBrn@OpenHome@@PAVCpDeviceCpp@Net@2@@std@@QAE@XZ 100291e0 f i CpDeviceStd.obj
 0001:00028210       ??1?$_Pair_base@V?$_Tree_iterator@V?$_Tree_val@V?$_Tmap_traits@VBrn@OpenHome@@PAVCpDeviceCpp@Net@2@VBufferCmp@2@V?$allocator@U?$pair@$$CBVBrn@OpenHome@@PAVCpDeviceCpp@Net@2@@std@@@std@@$0A@@std@@@std@@@std@@_N@std@@QAE@XZ 10029210 f i CpDeviceStd.obj
 0001:00028240       ??0?$_Tree_const_iterator@V?$_Tree_val@V?$_Tmap_traits@VBrn@OpenHome@@PAVCpDeviceCpp@Net@2@VBufferCmp@2@V?$allocator@U?$pair@$$CBVBrn@OpenHome@@PAVCpDeviceCpp@Net@2@@std@@@std@@$0A@@std@@@std@@@std@@QAE@ABV01@@Z 10029240 f i CpDeviceStd.obj
 0001:00028280       ??0?$_Tree_unchecked_const_iterator@V?$_Tree_val@V?$_Tmap_traits@VBrn@OpenHome@@PAVCpDeviceCpp@Net@2@VBufferCmp@2@V?$allocator@U?$pair@$$CBVBrn@OpenHome@@PAVCpDeviceCpp@Net@2@@std@@@std@@$0A@@std@@@std@@U_Iterator_base12@2@@std@@QAE@ABV01@@Z 10029280 f i CpDeviceStd.obj
 0001:000282d0       ??0?$_Iterator012@Ubidirectional_iterator_tag@std@@U?$pair@$$CBVBrn@OpenHome@@PAVCpDeviceCpp@Net@2@@2@HPBU32@ABU32@U_Iterator_base12@2@@std@@QAE@ABU01@@Z 100292d0 f i CpDeviceStd.obj
 0001:00028310       ??0?$basic_string@DU?$char_traits@D@std@@V?$allocator@D@2@@std@@QAE@PBDI@Z 10029310 f i CpDeviceStd.obj
 0001:000283d0       ??1?$basic_string@DU?$char_traits@D@std@@V?$allocator@D@2@@std@@QAE@XZ 100293d0 f i CpDeviceStd.obj
 0001:00028460       ?append@?$basic_string@DU?$char_traits@D@std@@V?$allocator@D@2@@std@@QAEAAV12@PBDI@Z 10029460 f i CpDeviceStd.obj
 0001:00028580       ?copy@?$char_traits@D@std@@SAPADPADPBDI@Z 10029580 f i CpDeviceStd.obj
 0001:000285b0       ?erase@?$basic_string@DU?$char_traits@D@std@@V?$allocator@D@2@@std@@QAE?AV?$_String_iterator@DU?$char_traits@D@std@@V?$allocator@D@2@@2@V?$_String_const_iterator@DU?$char_traits@D@std@@V?$allocator@D@2@@2@0@Z 100295b0 f i CpDeviceStd.obj
 0001:00028760       ?begin@?$basic_string@DU?$char_traits@D@std@@V?$allocator@D@2@@std@@QAE?AV?$_String_iterator@DU?$char_traits@D@std@@V?$allocator@D@2@@2@XZ 10029760 f i CpDeviceStd.obj
 0001:000287d0       ?end@?$basic_string@DU?$char_traits@D@std@@V?$allocator@D@2@@std@@QAE?AV?$_String_iterator@DU?$char_traits@D@std@@V?$allocator@D@2@@2@XZ 100297d0 f i CpDeviceStd.obj
 0001:00028840       ?c_str@?$basic_string@DU?$char_traits@D@std@@V?$allocator@D@2@@std@@QBEPBDXZ 10029840 f i CpDeviceStd.obj
 0001:00028870       ??0?$map@VBrn@OpenHome@@PAVCpDeviceCpp@Net@2@VBufferCmp@2@V?$allocator@U?$pair@$$CBVBrn@OpenHome@@PAVCpDeviceCpp@Net@2@@std@@@std@@@std@@QAE@XZ 10029870 f i CpDeviceStd.obj
 0001:000288d0       ??1?$_Tree@V?$_Tmap_traits@VBrn@OpenHome@@PAVCpDeviceCpp@Net@2@VBufferCmp@2@V?$allocator@U?$pair@$$CBVBrn@OpenHome@@PAVCpDeviceCpp@Net@2@@std@@@std@@$0A@@std@@@std@@QAE@XZ 100298d0 f i CpDeviceStd.obj
 0001:00028950       ?begin@?$_Tree@V?$_Tmap_traits@VBrn@OpenHome@@PAVCpDeviceCpp@Net@2@VBufferCmp@2@V?$allocator@U?$pair@$$CBVBrn@OpenHome@@PAVCpDeviceCpp@Net@2@@std@@@std@@$0A@@std@@@std@@QAE?AV?$_Tree_iterator@V?$_Tree_val@V?$_Tmap_traits@VBrn@OpenHome@@PAVCpDeviceCpp@Net@2@VBufferCmp@2@V?$allocator@U?$pair@$$CBVBrn@OpenHome@@PAVCpDeviceCpp@Net@2@@std@@@std@@$0A@@std@@@std@@@2@XZ 10029950 f i CpDeviceStd.obj
 0001:000289c0       ?end@?$_Tree@V?$_Tmap_traits@VBrn@OpenHome@@PAVCpDeviceCpp@Net@2@VBufferCmp@2@V?$allocator@U?$pair@$$CBVBrn@OpenHome@@PAVCpDeviceCpp@Net@2@@std@@@std@@$0A@@std@@@std@@QAE?AV?$_Tree_iterator@V?$_Tree_val@V?$_Tmap_traits@VBrn@OpenHome@@PAVCpDeviceCpp@Net@2@VBufferCmp@2@V?$allocator@U?$pair@$$CBVBrn@OpenHome@@PAVCpDeviceCpp@Net@2@@std@@@std@@$0A@@std@@@std@@@2@XZ 100299c0 f i CpDeviceStd.obj
 0001:00028a20       ?erase@?$_Tree@V?$_Tmap_traits@VBrn@OpenHome@@PAVCpDeviceCpp@Net@2@VBufferCmp@2@V?$allocator@U?$pair@$$CBVBrn@OpenHome@@PAVCpDeviceCpp@Net@2@@std@@@std@@$0A@@std@@@std@@QAE?AV?$_Tree_iterator@V?$_Tree_val@V?$_Tmap_traits@VBrn@OpenHome@@PAVCpDeviceCpp@Net@2@VBufferCmp@2@V?$allocator@U?$pair@$$CBVBrn@OpenHome@@PAVCpDeviceCpp@Net@2@@std@@@std@@$0A@@std@@@std@@@2@V?$_Tree_const_iterator@V?$_Tree_val@V?$_Tmap_traits@VBrn@OpenHome@@PAVCpDeviceCpp@Net@2@VBufferCmp@2@V?$allocator@U?$pair@$$CBVBrn@OpenHome@@PAVCpDeviceCpp@Net@2@@std@@@std@@$0A@@std@@@std@@@2@@Z 10029a20 f i CpDeviceStd.obj
 0001:000292f0       ?clear@?$_Tree@V?$_Tmap_traits@VBrn@OpenHome@@PAVCpDeviceCpp@Net@2@VBufferCmp@2@V?$allocator@U?$pair@$$CBVBrn@OpenHome@@PAVCpDeviceCpp@Net@2@@std@@@std@@$0A@@std@@@std@@QAEXXZ 1002a2f0 f i CpDeviceStd.obj
 0001:00029390       ?find@?$_Tree@V?$_Tmap_traits@VBrn@OpenHome@@PAVCpDeviceCpp@Net@2@VBufferCmp@2@V?$allocator@U?$pair@$$CBVBrn@OpenHome@@PAVCpDeviceCpp@Net@2@@std@@@std@@$0A@@std@@@std@@QAE?AV?$_Tree_iterator@V?$_Tree_val@V?$_Tmap_traits@VBrn@OpenHome@@PAVCpDeviceCpp@Net@2@VBufferCmp@2@V?$allocator@U?$pair@$$CBVBrn@OpenHome@@PAVCpDeviceCpp@Net@2@@std@@@std@@$0A@@std@@@std@@@2@ABVBrn@OpenHome@@@Z 1002a390 f i CpDeviceStd.obj
 0001:000295f0       ??C?$_Tree_iterator@V?$_Tree_val@V?$_Tmap_traits@VBrn@OpenHome@@PAVCpDeviceCpp@Net@2@VBufferCmp@2@V?$allocator@U?$pair@$$CBVBrn@OpenHome@@PAVCpDeviceCpp@Net@2@@std@@@std@@$0A@@std@@@std@@@std@@QBEPAU?$pair@$$CBVBrn@OpenHome@@PAVCpDeviceCpp@Net@2@@1@XZ 1002a5f0 f i CpDeviceStd.obj
 0001:00029620       ??E?$_Tree_iterator@V?$_Tree_val@V?$_Tmap_traits@VBrn@OpenHome@@PAVCpDeviceCpp@Net@2@VBufferCmp@2@V?$allocator@U?$pair@$$CBVBrn@OpenHome@@PAVCpDeviceCpp@Net@2@@std@@@std@@$0A@@std@@@std@@@std@@QAE?AV01@H@Z 1002a620 f i CpDeviceStd.obj
 0001:00029720       ??9?$_Tree_const_iterator@V?$_Tree_val@V?$_Tmap_traits@VBrn@OpenHome@@PAVCpDeviceCpp@Net@2@VBufferCmp@2@V?$allocator@U?$pair@$$CBVBrn@OpenHome@@PAVCpDeviceCpp@Net@2@@std@@@std@@$0A@@std@@@std@@@std@@QBE_NABV01@@Z 1002a720 f i CpDeviceStd.obj
 0001:00029770       ??0?$_Tree_iterator@V?$_Tree_val@V?$_Tmap_traits@VBrn@OpenHome@@PAVCpDeviceCpp@Net@2@VBufferCmp@2@V?$allocator@U?$pair@$$CBVBrn@OpenHome@@PAVCpDeviceCpp@Net@2@@std@@@std@@$0A@@std@@@std@@@std@@QAE@ABV01@@Z 1002a770 f i CpDeviceStd.obj
 0001:000297b0       ?append@?$basic_string@DU?$char_traits@D@std@@V?$allocator@D@2@@std@@QAEAAV12@ABV12@II@Z 1002a7b0 f i CpDeviceStd.obj
 0001:000298b0       ?size@?$basic_string@DU?$char_traits@D@std@@V?$allocator@D@2@@std@@QBEIXZ 1002a8b0 f i CpDeviceStd.obj
 0001:000298d0       ?assign@?$basic_string@DU?$char_traits@D@std@@V?$allocator@D@2@@std@@QAEAAV12@PBDI@Z 1002a8d0 f i CpDeviceStd.obj
 0001:000299a0       ?erase@?$basic_string@DU?$char_traits@D@std@@V?$allocator@D@2@@std@@QAEAAV12@II@Z 1002a9a0 f i CpDeviceStd.obj
 0001:00029a70       ?move@?$char_traits@D@std@@SAPADPADPBDI@Z 1002aa70 f i CpDeviceStd.obj
 0001:00029aa0       ?_Eos@?$basic_string@DU?$char_traits@D@std@@V?$allocator@D@2@@std@@QAEXI@Z 1002aaa0 f i CpDeviceStd.obj
 0001:00029b00       ?assign@?$char_traits@D@std@@SAXAADABD@Z 1002ab00 f i CpDeviceStd.obj
 0001:00029b20       ?_Grow@?$basic_string@DU?$char_traits@D@std@@V?$allocator@D@2@@std@@QAE_NI_N@Z 1002ab20 f i CpDeviceStd.obj
 0001:00029c00       ?_Inside@?$basic_string@DU?$char_traits@D@std@@V?$allocator@D@2@@std@@QAE_NPBD@Z 1002ac00 f i CpDeviceStd.obj
 0001:00029c60       ?_Pdif@?$basic_string@DU?$char_traits@D@std@@V?$allocator@D@2@@std@@SGIV?$_String_const_iterator@DU?$char_traits@D@std@@V?$allocator@D@2@@2@0@Z 1002ac60 f i CpDeviceStd.obj
 0001:00029d20       ?_Tidy@?$basic_string@DU?$char_traits@D@std@@V?$allocator@D@2@@std@@QAEX_NI@Z 1002ad20 f i CpDeviceStd.obj
 0001:00029de0       ?_Myptr@?$basic_string@DU?$char_traits@D@std@@V?$allocator@D@2@@std@@QAEPADXZ 1002ade0 f i CpDeviceStd.obj
 0001:00029e30       ?_Myptr@?$basic_string@DU?$char_traits@D@std@@V?$allocator@D@2@@std@@QBEPBDXZ 1002ae30 f i CpDeviceStd.obj
 0001:00029e80       ?_Xlen@?$basic_string@DU?$char_traits@D@std@@V?$allocator@D@2@@std@@QBEXXZ 1002ae80 f i CpDeviceStd.obj
 0001:00029eb0       ??0?$_String_val@DV?$allocator@D@std@@@std@@QAE@V?$allocator@D@1@@Z 1002aeb0 f i CpDeviceStd.obj
 0001:00029fe0       ??1?$_String_val@DV?$allocator@D@std@@@std@@QAE@XZ 1002afe0 f i CpDeviceStd.obj
 0001:0002a0f0       ??0?$allocator@D@std@@QAE@XZ 1002b0f0 f i CpDeviceStd.obj
 0001:0002a110       ??0?$allocator@D@std@@QAE@ABV01@@Z 1002b110 f i CpDeviceStd.obj
 0001:0002a130       ??0?$_Tree@V?$_Tmap_traits@VBrn@OpenHome@@PAVCpDeviceCpp@Net@2@VBufferCmp@2@V?$allocator@U?$pair@$$CBVBrn@OpenHome@@PAVCpDeviceCpp@Net@2@@std@@@std@@$0A@@std@@@std@@QAE@ABVBufferCmp@OpenHome@@ABV?$allocator@U?$pair@$$CBVBrn@OpenHome@@PAVCpDeviceCpp@Net@2@@std@@@1@@Z 1002b130 f i CpDeviceStd.obj
 0001:0002a190       ?lower_bound@?$_Tree@V?$_Tmap_traits@VBrn@OpenHome@@PAVCpDeviceCpp@Net@2@VBufferCmp@2@V?$allocator@U?$pair@$$CBVBrn@OpenHome@@PAVCpDeviceCpp@Net@2@@std@@@std@@$0A@@std@@@std@@QAE?AV?$_Tree_iterator@V?$_Tree_val@V?$_Tmap_traits@VBrn@OpenHome@@PAVCpDeviceCpp@Net@2@VBufferCmp@2@V?$allocator@U?$pair@$$CBVBrn@OpenHome@@PAVCpDeviceCpp@Net@2@@std@@@std@@$0A@@std@@@std@@@2@ABVBrn@OpenHome@@@Z 1002b190 f i CpDeviceStd.obj
 0001:0002a200       ?_Erase@?$_Tree@V?$_Tmap_traits@VBrn@OpenHome@@PAVCpDeviceCpp@Net@2@VBufferCmp@2@V?$allocator@U?$pair@$$CBVBrn@OpenHome@@PAVCpDeviceCpp@Net@2@@std@@@std@@$0A@@std@@@std@@IAEXPAU_Node@?$_Tree_nod@V?$_Tmap_traits@VBrn@OpenHome@@PAVCpDeviceCpp@Net@2@VBufferCmp@2@V?$allocator@U?$pair@$$CBVBrn@OpenHome@@PAVCpDeviceCpp@Net@2@@std@@@std@@$0A@@std@@@2@@Z 1002b200 f i CpDeviceStd.obj
 0001:0002a2c0       ?_Lmost@?$_Tree@V?$_Tmap_traits@VBrn@OpenHome@@PAVCpDeviceCpp@Net@2@VBufferCmp@2@V?$allocator@U?$pair@$$CBVBrn@OpenHome@@PAVCpDeviceCpp@Net@2@@std@@@std@@$0A@@std@@@std@@IBEAAPAU_Node@?$_Tree_nod@V?$_Tmap_traits@VBrn@OpenHome@@PAVCpDeviceCpp@Net@2@VBufferCmp@2@V?$allocator@U?$pair@$$CBVBrn@OpenHome@@PAVCpDeviceCpp@Net@2@@std@@@std@@$0A@@std@@@2@XZ 1002b2c0 f i CpDeviceStd.obj
 0001:0002a300       ?_Lrotate@?$_Tree@V?$_Tmap_traits@VBrn@OpenHome@@PAVCpDeviceCpp@Net@2@VBufferCmp@2@V?$allocator@U?$pair@$$CBVBrn@OpenHome@@PAVCpDeviceCpp@Net@2@@std@@@std@@$0A@@std@@@std@@IAEXPAU_Node@?$_Tree_nod@V?$_Tmap_traits@VBrn@OpenHome@@PAVCpDeviceCpp@Net@2@VBufferCmp@2@V?$allocator@U?$pair@$$CBVBrn@OpenHome@@PAVCpDeviceCpp@Net@2@@std@@@std@@$0A@@std@@@2@@Z 1002b300 f i CpDeviceStd.obj
 0001:0002a460       ?_Rmost@?$_Tree@V?$_Tmap_traits@VBrn@OpenHome@@PAVCpDeviceCpp@Net@2@VBufferCmp@2@V?$allocator@U?$pair@$$CBVBrn@OpenHome@@PAVCpDeviceCpp@Net@2@@std@@@std@@$0A@@std@@@std@@IBEAAPAU_Node@?$_Tree_nod@V?$_Tmap_traits@VBrn@OpenHome@@PAVCpDeviceCpp@Net@2@VBufferCmp@2@V?$allocator@U?$pair@$$CBVBrn@OpenHome@@PAVCpDeviceCpp@Net@2@@std@@@std@@$0A@@std@@@2@XZ 1002b460 f i CpDeviceStd.obj
 0001:0002a4a0       ?_Root@?$_Tree@V?$_Tmap_traits@VBrn@OpenHome@@PAVCpDeviceCpp@Net@2@VBufferCmp@2@V?$allocator@U?$pair@$$CBVBrn@OpenHome@@PAVCpDeviceCpp@Net@2@@std@@@std@@$0A@@std@@@std@@IBEAAPAU_Node@?$_Tree_nod@V?$_Tmap_traits@VBrn@OpenHome@@PAVCpDeviceCpp@Net@2@VBufferCmp@2@V?$allocator@U?$pair@$$CBVBrn@OpenHome@@PAVCpDeviceCpp@Net@2@@std@@@std@@$0A@@std@@@2@XZ 1002b4a0 f i CpDeviceStd.obj
 0001:0002a4e0       ?_Rrotate@?$_Tree@V?$_Tmap_traits@VBrn@OpenHome@@PAVCpDeviceCpp@Net@2@VBufferCmp@2@V?$allocator@U?$pair@$$CBVBrn@OpenHome@@PAVCpDeviceCpp@Net@2@@std@@@std@@$0A@@std@@@std@@IAEXPAU_Node@?$_Tree_nod@V?$_Tmap_traits@VBrn@OpenHome@@PAVCpDeviceCpp@Net@2@VBufferCmp@2@V?$allocator@U?$pair@$$CBVBrn@OpenHome@@PAVCpDeviceCpp@Net@2@@std@@@std@@$0A@@std@@@2@@Z 1002b4e0 f i CpDeviceStd.obj
 0001:0002a640       ?_Orphan_ptr@?$_Tree@V?$_Tmap_traits@VBrn@OpenHome@@PAVCpDeviceCpp@Net@2@VBufferCmp@2@V?$allocator@U?$pair@$$CBVBrn@OpenHome@@PAVCpDeviceCpp@Net@2@@std@@@std@@$0A@@std@@@std@@IBEXAAV12@PAU_Node@?$_Tree_nod@V?$_Tmap_traits@VBrn@OpenHome@@PAVCpDeviceCpp@Net@2@VBufferCmp@2@V?$allocator@U?$pair@$$CBVBrn@OpenHome@@PAVCpDeviceCpp@Net@2@@std@@@std@@$0A@@std@@@2@@Z 1002b640 f i CpDeviceStd.obj
 0001:0002a790       ?_Tidy@?$_Tree@V?$_Tmap_traits@VBrn@OpenHome@@PAVCpDeviceCpp@Net@2@VBufferCmp@2@V?$allocator@U?$pair@$$CBVBrn@OpenHome@@PAVCpDeviceCpp@Net@2@@std@@@std@@$0A@@std@@@std@@IAEXXZ 1002b790 f i CpDeviceStd.obj
 0001:0002a8c0       ??1?$_Tree_val@V?$_Tmap_traits@VBrn@OpenHome@@PAVCpDeviceCpp@Net@2@VBufferCmp@2@V?$allocator@U?$pair@$$CBVBrn@OpenHome@@PAVCpDeviceCpp@Net@2@@std@@@std@@$0A@@std@@@std@@QAE@XZ 1002b8c0 f i CpDeviceStd.obj
 0001:0002a950       ?_Color@?$_Tree_val@V?$_Tmap_traits@VBrn@OpenHome@@PAVCpDeviceCpp@Net@2@VBufferCmp@2@V?$allocator@U?$pair@$$CBVBrn@OpenHome@@PAVCpDeviceCpp@Net@2@@std@@@std@@$0A@@std@@@std@@SGAADPAU_Node@?$_Tree_nod@V?$_Tmap_traits@VBrn@OpenHome@@PAVCpDeviceCpp@Net@2@VBufferCmp@2@V?$allocator@U?$pair@$$CBVBrn@OpenHome@@PAVCpDeviceCpp@Net@2@@std@@@std@@$0A@@std@@@2@@Z 1002b950 f i CpDeviceStd.obj
 0001:0002a960       ?_Isnil@?$_Tree_val@V?$_Tmap_traits@VBrn@OpenHome@@PAVCpDeviceCpp@Net@2@VBufferCmp@2@V?$allocator@U?$pair@$$CBVBrn@OpenHome@@PAVCpDeviceCpp@Net@2@@std@@@std@@$0A@@std@@@std@@SGAADPAU_Node@?$_Tree_nod@V?$_Tmap_traits@VBrn@OpenHome@@PAVCpDeviceCpp@Net@2@VBufferCmp@2@V?$allocator@U?$pair@$$CBVBrn@OpenHome@@PAVCpDeviceCpp@Net@2@@std@@@std@@$0A@@std@@@2@@Z 1002b960 f i CpDeviceStd.obj
 0001:0002a970       ?_Key@?$_Tree_val@V?$_Tmap_traits@VBrn@OpenHome@@PAVCpDeviceCpp@Net@2@VBufferCmp@2@V?$allocator@U?$pair@$$CBVBrn@OpenHome@@PAVCpDeviceCpp@Net@2@@std@@@std@@$0A@@std@@@std@@SGAAVBrn@OpenHome@@PAU_Node@?$_Tree_nod@V?$_Tmap_traits@VBrn@OpenHome@@PAVCpDeviceCpp@Net@2@VBufferCmp@2@V?$allocator@U?$pair@$$CBVBrn@OpenHome@@PAVCpDeviceCpp@Net@2@@std@@@std@@$0A@@std@@@2@@Z 1002b970 f i CpDeviceStd.obj
 0001:0002a9a0       ?_Left@?$_Tree_val@V?$_Tmap_traits@VBrn@OpenHome@@PAVCpDeviceCpp@Net@2@VBufferCmp@2@V?$allocator@U?$pair@$$CBVBrn@OpenHome@@PAVCpDeviceCpp@Net@2@@std@@@std@@$0A@@std@@@std@@SGAAPAU_Node@?$_Tree_nod@V?$_Tmap_traits@VBrn@OpenHome@@PAVCpDeviceCpp@Net@2@VBufferCmp@2@V?$allocator@U?$pair@$$CBVBrn@OpenHome@@PAVCpDeviceCpp@Net@2@@std@@@std@@$0A@@std@@@2@PAU342@@Z 1002b9a0 f i CpDeviceStd.obj
 0001:0002a9b0       ?_Parent@?$_Tree_val@V?$_Tmap_traits@VBrn@OpenHome@@PAVCpDeviceCpp@Net@2@VBufferCmp@2@V?$allocator@U?$pair@$$CBVBrn@OpenHome@@PAVCpDeviceCpp@Net@2@@std@@@std@@$0A@@std@@@std@@SGAAPAU_Node@?$_Tree_nod@V?$_Tmap_traits@VBrn@OpenHome@@PAVCpDeviceCpp@Net@2@VBufferCmp@2@V?$allocator@U?$pair@$$CBVBrn@OpenHome@@PAVCpDeviceCpp@Net@2@@std@@@std@@$0A@@std@@@2@PAU342@@Z 1002b9b0 f i CpDeviceStd.obj
 0001:0002a9c0       ?_Right@?$_Tree_val@V?$_Tmap_traits@VBrn@OpenHome@@PAVCpDeviceCpp@Net@2@VBufferCmp@2@V?$allocator@U?$pair@$$CBVBrn@OpenHome@@PAVCpDeviceCpp@Net@2@@std@@@std@@$0A@@std@@@std@@SGAAPAU_Node@?$_Tree_nod@V?$_Tmap_traits@VBrn@OpenHome@@PAVCpDeviceCpp@Net@2@VBufferCmp@2@V?$allocator@U?$pair@$$CBVBrn@OpenHome@@PAVCpDeviceCpp@Net@2@@std@@@std@@$0A@@std@@@2@PAU342@@Z 1002b9c0 f i CpDeviceStd.obj
 0001:0002a9d0       ?_Myval@?$_Tree_val@V?$_Tmap_traits@VBrn@OpenHome@@PAVCpDeviceCpp@Net@2@VBufferCmp@2@V?$allocator@U?$pair@$$CBVBrn@OpenHome@@PAVCpDeviceCpp@Net@2@@std@@@std@@$0A@@std@@@std@@SGAAU?$pair@$$CBVBrn@OpenHome@@PAVCpDeviceCpp@Net@2@@2@PAU_Node@?$_Tree_nod@V?$_Tmap_traits@VBrn@OpenHome@@PAVCpDeviceCpp@Net@2@VBufferCmp@2@V?$allocator@U?$pair@$$CBVBrn@OpenHome@@PAVCpDeviceCpp@Net@2@@std@@@std@@$0A@@std@@@2@@Z 1002b9d0 f i CpDeviceStd.obj
 0001:0002a9e0       ?_Max@?$_Tree_val@V?$_Tmap_traits@VBrn@OpenHome@@PAVCpDeviceCpp@Net@2@VBufferCmp@2@V?$allocator@U?$pair@$$CBVBrn@OpenHome@@PAVCpDeviceCpp@Net@2@@std@@@std@@$0A@@std@@@std@@SGPAU_Node@?$_Tree_nod@V?$_Tmap_traits@VBrn@OpenHome@@PAVCpDeviceCpp@Net@2@VBufferCmp@2@V?$allocator@U?$pair@$$CBVBrn@OpenHome@@PAVCpDeviceCpp@Net@2@@std@@@std@@$0A@@std@@@2@PAU342@@Z 1002b9e0 f i CpDeviceStd.obj
 0001:0002aa30       ?_Min@?$_Tree_val@V?$_Tmap_traits@VBrn@OpenHome@@PAVCpDeviceCpp@Net@2@VBufferCmp@2@V?$allocator@U?$pair@$$CBVBrn@OpenHome@@PAVCpDeviceCpp@Net@2@@std@@@std@@$0A@@std@@@std@@SGPAU_Node@?$_Tree_nod@V?$_Tmap_traits@VBrn@OpenHome@@PAVCpDeviceCpp@Net@2@VBufferCmp@2@V?$allocator@U?$pair@$$CBVBrn@OpenHome@@PAVCpDeviceCpp@Net@2@@std@@@std@@$0A@@std@@@2@PAU342@@Z 1002ba30 f i CpDeviceStd.obj
 0001:0002aa80       ??0?$allocator@U?$pair@$$CBVBrn@OpenHome@@PAVCpDeviceCpp@Net@2@@std@@@std@@QAE@XZ 1002ba80 f i CpDeviceStd.obj
 0001:0002aaa0       ?deallocate@?$allocator@U_Node@?$_Tree_nod@V?$_Tmap_traits@VBrn@OpenHome@@PAVCpDeviceCpp@Net@2@VBufferCmp@2@V?$allocator@U?$pair@$$CBVBrn@OpenHome@@PAVCpDeviceCpp@Net@2@@std@@@std@@$0A@@std@@@std@@@std@@QAEXPAU_Node@?$_Tree_nod@V?$_Tmap_traits@VBrn@OpenHome@@PAVCpDeviceCpp@Net@2@VBufferCmp@2@V?$allocator@U?$pair@$$CBVBrn@OpenHome@@PAVCpDeviceCpp@Net@2@@std@@@std@@$0A@@std@@@2@I@Z 1002baa0 f i CpDeviceStd.obj
 0001:0002aae0       ??0?$_String_iterator@DU?$char_traits@D@std@@V?$allocator@D@2@@std@@QAE@PADPBU_Container_base12@1@@Z 1002bae0 f i CpDeviceStd.obj
 0001:0002ab20       ??0?$_Tree_iterator@V?$_Tree_val@V?$_Tmap_traits@VBrn@OpenHome@@PAVCpDeviceCpp@Net@2@VBufferCmp@2@V?$allocator@U?$pair@$$CBVBrn@OpenHome@@PAVCpDeviceCpp@Net@2@@std@@@std@@$0A@@std@@@std@@@std@@QAE@PAU_Node@?$_Tree_nod@V?$_Tmap_traits@VBrn@OpenHome@@PAVCpDeviceCpp@Net@2@VBufferCmp@2@V?$allocator@U?$pair@$$CBVBrn@OpenHome@@PAVCpDeviceCpp@Net@2@@std@@@std@@$0A@@std@@@1@PBV?$_Tree_val@V?$_Tmap_traits@VBrn@OpenHome@@PAVCpDeviceCpp@Net@2@VBufferCmp@2@V?$allocator@U?$pair@$$CBVBrn@OpenHome@@PAVCpDeviceCpp@Net@2@@std@@@std@@$0A@@std@@@1@@Z 1002bb20 f i CpDeviceStd.obj
 0001:0002ab60       ??D?$_Tree_iterator@V?$_Tree_val@V?$_Tmap_traits@VBrn@OpenHome@@PAVCpDeviceCpp@Net@2@VBufferCmp@2@V?$allocator@U?$pair@$$CBVBrn@OpenHome@@PAVCpDeviceCpp@Net@2@@std@@@std@@$0A@@std@@@std@@@std@@QBEAAU?$pair@$$CBVBrn@OpenHome@@PAVCpDeviceCpp@Net@2@@1@XZ 1002bb60 f i CpDeviceStd.obj
 0001:0002ab90       ??E?$_Tree_iterator@V?$_Tree_val@V?$_Tmap_traits@VBrn@OpenHome@@PAVCpDeviceCpp@Net@2@VBufferCmp@2@V?$allocator@U?$pair@$$CBVBrn@OpenHome@@PAVCpDeviceCpp@Net@2@@std@@@std@@$0A@@std@@@std@@@std@@QAEAAV01@XZ 1002bb90 f i CpDeviceStd.obj
 0001:0002abc0       ??E?$_Tree_const_iterator@V?$_Tree_val@V?$_Tmap_traits@VBrn@OpenHome@@PAVCpDeviceCpp@Net@2@VBufferCmp@2@V?$allocator@U?$pair@$$CBVBrn@OpenHome@@PAVCpDeviceCpp@Net@2@@std@@@std@@$0A@@std@@@std@@@std@@QAEAAV01@XZ 1002bbc0 f i CpDeviceStd.obj
 0001:0002aca0       ??8?$_Tree_const_iterator@V?$_Tree_val@V?$_Tmap_traits@VBrn@OpenHome@@PAVCpDeviceCpp@Net@2@VBufferCmp@2@V?$allocator@U?$pair@$$CBVBrn@OpenHome@@PAVCpDeviceCpp@Net@2@@std@@@std@@$0A@@std@@@std@@@std@@QBE_NABV01@@Z 1002bca0 f i CpDeviceStd.obj
 0001:0002ad90       ?_Mynode@?$_Tree_unchecked_const_iterator@V?$_Tree_val@V?$_Tmap_traits@VBrn@OpenHome@@PAVCpDeviceCpp@Net@2@VBufferCmp@2@V?$allocator@U?$pair@$$CBVBrn@OpenHome@@PAVCpDeviceCpp@Net@2@@std@@@std@@$0A@@std@@@std@@U_Iterator_base12@2@@std@@QBEPAU_Node@?$_Tree_nod@V?$_Tmap_traits@VBrn@OpenHome@@PAVCpDeviceCpp@Net@2@VBufferCmp@2@V?$allocator@U?$pair@$$CBVBrn@OpenHome@@PAVCpDeviceCpp@Net@2@@std@@@std@@$0A@@std@@@2@XZ 1002bd90 f i CpDeviceStd.obj
 0001:0002adb0       ?assign@?$basic_string@DU?$char_traits@D@std@@V?$allocator@D@2@@std@@QAEAAV12@ABV12@II@Z 1002bdb0 f i CpDeviceStd.obj
 0001:0002aeb0       ?max_size@?$basic_string@DU?$char_traits@D@std@@V?$allocator@D@2@@std@@QBEIXZ 1002beb0 f i CpDeviceStd.obj
 0001:0002af20       ?_Copy@?$basic_string@DU?$char_traits@D@std@@V?$allocator@D@2@@std@@QAEXII@Z 1002bf20 f i CpDeviceStd.obj
 0001:0002b130       ?_Xran@?$basic_string@DU?$char_traits@D@std@@V?$allocator@D@2@@std@@QBEXXZ 1002c130 f i CpDeviceStd.obj
 0001:0002b160       ?deallocate@?$allocator@D@std@@QAEXPADI@Z 1002c160 f i CpDeviceStd.obj
 0001:0002b1a0       ?erase@?$_Tree@V?$_Tmap_traits@VBrn@OpenHome@@PAVCpDeviceCpp@Net@2@VBufferCmp@2@V?$allocator@U?$pair@$$CBVBrn@OpenHome@@PAVCpDeviceCpp@Net@2@@std@@@std@@$0A@@std@@@std@@QAE?AV?$_Tree_iterator@V?$_Tree_val@V?$_Tmap_traits@VBrn@OpenHome@@PAVCpDeviceCpp@Net@2@VBufferCmp@2@V?$allocator@U?$pair@$$CBVBrn@OpenHome@@PAVCpDeviceCpp@Net@2@@std@@@std@@$0A@@std@@@std@@@2@V?$_Tree_const_iterator@V?$_Tree_val@V?$_Tmap_traits@VBrn@OpenHome@@PAVCpDeviceCpp@Net@2@VBufferCmp@2@V?$allocator@U?$pair@$$CBVBrn@OpenHome@@PAVCpDeviceCpp@Net@2@@std@@@std@@$0A@@std@@@std@@@2@0@Z 1002c1a0 f i CpDeviceStd.obj
 0001:0002b420       ?_Lbound@?$_Tree@V?$_Tmap_traits@VBrn@OpenHome@@PAVCpDeviceCpp@Net@2@VBufferCmp@2@V?$allocator@U?$pair@$$CBVBrn@OpenHome@@PAVCpDeviceCpp@Net@2@@std@@@std@@$0A@@std@@@std@@IAEPAU_Node@?$_Tree_nod@V?$_Tmap_traits@VBrn@OpenHome@@PAVCpDeviceCpp@Net@2@VBufferCmp@2@V?$allocator@U?$pair@$$CBVBrn@OpenHome@@PAVCpDeviceCpp@Net@2@@std@@@std@@$0A@@std@@@2@ABVBrn@OpenHome@@@Z 1002c420 f i CpDeviceStd.obj
 0001:0002b500       ??0?$_Tree_val@V?$_Tmap_traits@VBrn@OpenHome@@PAVCpDeviceCpp@Net@2@VBufferCmp@2@V?$allocator@U?$pair@$$CBVBrn@OpenHome@@PAVCpDeviceCpp@Net@2@@std@@@std@@$0A@@std@@@std@@QAE@ABVBufferCmp@OpenHome@@V?$allocator@U?$pair@$$CBVBrn@OpenHome@@PAVCpDeviceCpp@Net@2@@std@@@1@@Z 1002c500 f i CpDeviceStd.obj
 0001:0002b640       ??1?$_Tree_nod@V?$_Tmap_traits@VBrn@OpenHome@@PAVCpDeviceCpp@Net@2@VBufferCmp@2@V?$allocator@U?$pair@$$CBVBrn@OpenHome@@PAVCpDeviceCpp@Net@2@@std@@@std@@$0A@@std@@@std@@QAE@XZ 1002c640 f i CpDeviceStd.obj
 0001:0002b750       ??0?$allocator@U?$pair@$$CBVBrn@OpenHome@@PAVCpDeviceCpp@Net@2@@std@@@std@@QAE@ABV01@@Z 1002c750 f i CpDeviceStd.obj
 0001:0002b770       ??0?$_String_const_iterator@DU?$char_traits@D@std@@V?$allocator@D@2@@std@@QAE@PBDPBU_Container_base12@1@@Z 1002c770 f i CpDeviceStd.obj
 0001:0002b810       ??G?$_String_const_iterator@DU?$char_traits@D@std@@V?$allocator@D@2@@std@@QBEHABV01@@Z 1002c810 f i CpDeviceStd.obj
 0001:0002b860       ??0?$_Tree_const_iterator@V?$_Tree_val@V?$_Tmap_traits@VBrn@OpenHome@@PAVCpDeviceCpp@Net@2@VBufferCmp@2@V?$allocator@U?$pair@$$CBVBrn@OpenHome@@PAVCpDeviceCpp@Net@2@@std@@@std@@$0A@@std@@@std@@@std@@QAE@PAU_Node@?$_Tree_nod@V?$_Tmap_traits@VBrn@OpenHome@@PAVCpDeviceCpp@Net@2@VBufferCmp@2@V?$allocator@U?$pair@$$CBVBrn@OpenHome@@PAVCpDeviceCpp@Net@2@@std@@@std@@$0A@@std@@@1@PBV?$_Tree_val@V?$_Tmap_traits@VBrn@OpenHome@@PAVCpDeviceCpp@Net@2@VBufferCmp@2@V?$allocator@U?$pair@$$CBVBrn@OpenHome@@PAVCpDeviceCpp@Net@2@@std@@@std@@$0A@@std@@@1@@Z 1002c860 f i CpDeviceStd.obj
 0001:0002b8a0       ??D?$_Tree_const_iterator@V?$_Tree_val@V?$_Tmap_traits@VBrn@OpenHome@@PAVCpDeviceCpp@Net@2@VBufferCmp@2@V?$allocator@U?$pair@$$CBVBrn@OpenHome@@PAVCpDeviceCpp@Net@2@@std@@@std@@$0A@@std@@@std@@@std@@QBEABU?$pair@$$CBVBrn@OpenHome@@PAVCpDeviceCpp@Net@2@@1@XZ 1002c8a0 f i CpDeviceStd.obj
 0001:0002b980       ??E?$_Tree_unchecked_const_iterator@V?$_Tree_val@V?$_Tmap_traits@VBrn@OpenHome@@PAVCpDeviceCpp@Net@2@VBufferCmp@2@V?$allocator@U?$pair@$$CBVBrn@OpenHome@@PAVCpDeviceCpp@Net@2@@std@@@std@@$0A@@std@@@std@@U_Iterator_base12@2@@std@@QAEAAV01@XZ 1002c980 f i CpDeviceStd.obj
 0001:0002ba70       ??1?$_Tmap_traits@VBrn@OpenHome@@PAVCpDeviceCpp@Net@2@VBufferCmp@2@V?$allocator@U?$pair@$$CBVBrn@OpenHome@@PAVCpDeviceCpp@Net@2@@std@@@std@@$0A@@std@@QAE@XZ 1002ca70 f i CpDeviceStd.obj
 0001:0002baa0       ??0?$_Iterator012@Urandom_access_iterator_tag@std@@DHPBDABDU_Iterator_base12@2@@std@@QAE@XZ 1002caa0 f i CpDeviceStd.obj
 0001:0002bad0       ?allocate@?$allocator@D@std@@QAEPADI@Z 1002cad0 f i CpDeviceStd.obj
 0001:0002bb10       ?max_size@?$allocator@D@std@@QBEIXZ 1002cb10 f i CpDeviceStd.obj
 0001:0002bb70       ??0?$_Tree_nod@V?$_Tmap_traits@VBrn@OpenHome@@PAVCpDeviceCpp@Net@2@VBufferCmp@2@V?$allocator@U?$pair@$$CBVBrn@OpenHome@@PAVCpDeviceCpp@Net@2@@std@@@std@@$0A@@std@@@std@@QAE@ABVBufferCmp@OpenHome@@V?$allocator@U?$pair@$$CBVBrn@OpenHome@@PAVCpDeviceCpp@Net@2@@std@@@1@@Z 1002cb70 f i CpDeviceStd.obj
 0001:0002bcc0       ?allocate@?$allocator@U_Node@?$_Tree_nod@V?$_Tmap_traits@VBrn@OpenHome@@PAVCpDeviceCpp@Net@2@VBufferCmp@2@V?$allocator@U?$pair@$$CBVBrn@OpenHome@@PAVCpDeviceCpp@Net@2@@std@@@std@@$0A@@std@@@std@@@std@@QAEPAU_Node@?$_Tree_nod@V?$_Tmap_traits@VBrn@OpenHome@@PAVCpDeviceCpp@Net@2@VBufferCmp@2@V?$allocator@U?$pair@$$CBVBrn@OpenHome@@PAVCpDeviceCpp@Net@2@@std@@@std@@$0A@@std@@@2@I@Z 1002ccc0 f i CpDeviceStd.obj
 0001:0002bd00       ?_Compat@?$_String_const_iterator@DU?$char_traits@D@std@@V?$allocator@D@2@@std@@QBEXABV12@@Z 1002cd00 f i CpDeviceStd.obj
 0001:0002bdd0       ??E?$_Tree_const_iterator@V?$_Tree_val@V?$_Tmap_traits@VBrn@OpenHome@@PAVCpDeviceCpp@Net@2@VBufferCmp@2@V?$allocator@U?$pair@$$CBVBrn@OpenHome@@PAVCpDeviceCpp@Net@2@@std@@@std@@$0A@@std@@@std@@@std@@QAE?AV01@H@Z 1002cdd0 f i CpDeviceStd.obj
 0001:0002bed0       ??0?$_Tree_unchecked_const_iterator@V?$_Tree_val@V?$_Tmap_traits@VBrn@OpenHome@@PAVCpDeviceCpp@Net@2@VBufferCmp@2@V?$allocator@U?$pair@$$CBVBrn@OpenHome@@PAVCpDeviceCpp@Net@2@@std@@@std@@$0A@@std@@@std@@U_Iterator_base12@2@@std@@QAE@PAU_Node@?$_Tree_nod@V?$_Tmap_traits@VBrn@OpenHome@@PAVCpDeviceCpp@Net@2@VBufferCmp@2@V?$allocator@U?$pair@$$CBVBrn@OpenHome@@PAVCpDeviceCpp@Net@2@@std@@@std@@$0A@@std@@@1@PBV?$_Tree_val@V?$_Tmap_traits@VBrn@OpenHome@@PAVCpDeviceCpp@Net@2@VBufferCmp@2@V?$allocator@U?$pair@$$CBVBrn@OpenHome@@PAVCpDeviceCpp@Net@2@@std@@@std@@$0A@@std@@@1@@Z 1002ced0 f i CpDeviceStd.obj
 0001:0002bf70       ??0?$_Iterator012@Ubidirectional_iterator_tag@std@@U?$pair@$$CBVBrn@OpenHome@@PAVCpDeviceCpp@Net@2@@2@HPBU32@ABU32@U_Iterator_base12@2@@std@@QAE@XZ 1002cf70 f i CpDeviceStd.obj
 0001:0002bfa0       ??0?$_Tmap_traits@VBrn@OpenHome@@PAVCpDeviceCpp@Net@2@VBufferCmp@2@V?$allocator@U?$pair@$$CBVBrn@OpenHome@@PAVCpDeviceCpp@Net@2@@std@@@std@@$0A@@std@@QAE@VBufferCmp@OpenHome@@@Z 1002cfa0 f i CpDeviceStd.obj
 0001:0002bfe0       ??$MakeFunctorCpiDevice@VCpDeviceListCpp@Net@OpenHome@@V123@@Net@OpenHome@@YG?AV?$MemberTranslatorCpiDevice@VCpDeviceListCpp@Net@OpenHome@@P8123@AEXAAVCpiDevice@23@@Z@01@AAVCpDeviceListCpp@01@ABQ8301@AEXAAVCpiDevice@01@@Z@Z 1002cfe0 f i CpDeviceStd.obj
 0001:0002c010       ??$?0AAVBrn@OpenHome@@AAPAVCpDeviceCpp@Net@1@@?$pair@VBrn@OpenHome@@PAVCpDeviceCpp@Net@2@@std@@QAE@AAVBrn@OpenHome@@AAPAVCpDeviceCpp@Net@3@@Z 1002d010 f i CpDeviceStd.obj
 0001:0002c060       ??$insert@U?$pair@VBrn@OpenHome@@PAVCpDeviceCpp@Net@2@@std@@@?$_Tree@V?$_Tmap_traits@VBrn@OpenHome@@PAVCpDeviceCpp@Net@2@VBufferCmp@2@V?$allocator@U?$pair@$$CBVBrn@OpenHome@@PAVCpDeviceCpp@Net@2@@std@@@std@@$0A@@std@@@std@@QAE?AU?$pair@V?$_Tree_iterator@V?$_Tree_val@V?$_Tmap_traits@VBrn@OpenHome@@PAVCpDeviceCpp@Net@2@VBufferCmp@2@V?$allocator@U?$pair@$$CBVBrn@OpenHome@@PAVCpDeviceCpp@Net@2@@std@@@std@@$0A@@std@@@std@@@std@@_N@1@$$QAU?$pair@VBrn@OpenHome@@PAVCpDeviceCpp@Net@2@@1@@Z 1002d060 f i CpDeviceStd.obj
 0001:0002c0e0       ??$_Debug_pointer@D@std@@YGXPBDPB_WI@Z 1002d0e0 f i CpDeviceStd.obj
 0001:0002c120       ??$addressof@U?$pair@$$CBVBrn@OpenHome@@PAVCpDeviceCpp@Net@2@@std@@@std@@YGPAU?$pair@$$CBVBrn@OpenHome@@PAVCpDeviceCpp@Net@2@@0@AAU10@@Z 1002d120 f i CpDeviceStd.obj
 0001:0002c130       ??$_Dest_val@V?$allocator@U?$pair@$$CBVBrn@OpenHome@@PAVCpDeviceCpp@Net@2@@std@@@std@@U?$pair@$$CBVBrn@OpenHome@@PAVCpDeviceCpp@Net@2@@2@@std@@YGXAAV?$allocator@U?$pair@$$CBVBrn@OpenHome@@PAVCpDeviceCpp@Net@2@@std@@@0@PAU?$pair@$$CBVBrn@OpenHome@@PAVCpDeviceCpp@Net@2@@0@@Z 1002d130 f i CpDeviceStd.obj
 0001:0002c150       ??$?0D@?$allocator@U_Container_proxy@std@@@std@@QAE@ABV?$allocator@D@1@@Z 1002d150 f i CpDeviceStd.obj
 0001:0002c170       ??$_Kfn@$$CBVBrn@OpenHome@@PAVCpDeviceCpp@Net@2@@?$_Tmap_traits@VBrn@OpenHome@@PAVCpDeviceCpp@Net@2@VBufferCmp@2@V?$allocator@U?$pair@$$CBVBrn@OpenHome@@PAVCpDeviceCpp@Net@2@@std@@@std@@$0A@@std@@SGABVBrn@OpenHome@@ABU?$pair@$$CBVBrn@OpenHome@@PAVCpDeviceCpp@Net@2@@1@@Z 1002d170 f i CpDeviceStd.obj
 0001:0002c180       ??$?0U_Node@?$_Tree_nod@V?$_Tmap_traits@VBrn@OpenHome@@PAVCpDeviceCpp@Net@2@VBufferCmp@2@V?$allocator@U?$pair@$$CBVBrn@OpenHome@@PAVCpDeviceCpp@Net@2@@std@@@std@@$0A@@std@@@std@@@?$allocator@U_Container_proxy@std@@@std@@QAE@ABV?$allocator@U_Node@?$_Tree_nod@V?$_Tmap_traits@VBrn@OpenHome@@PAVCpDeviceCpp@Net@2@VBufferCmp@2@V?$allocator@U?$pair@$$CBVBrn@OpenHome@@PAVCpDeviceCpp@Net@2@@std@@@std@@$0A@@std@@@std@@@1@@Z 1002d180 f i CpDeviceStd.obj
 0001:0002c1a0       ??$_Allocate@D@std@@YGPADIPAD@Z 1002d1a0 f i CpDeviceStd.obj
 0001:0002c230       ??$?0U?$pair@$$CBVBrn@OpenHome@@PAVCpDeviceCpp@Net@2@@std@@@?$allocator@U_Node@?$_Tree_nod@V?$_Tmap_traits@VBrn@OpenHome@@PAVCpDeviceCpp@Net@2@VBufferCmp@2@V?$allocator@U?$pair@$$CBVBrn@OpenHome@@PAVCpDeviceCpp@Net@2@@std@@@std@@$0A@@std@@@std@@@std@@QAE@ABV?$allocator@U?$pair@$$CBVBrn@OpenHome@@PAVCpDeviceCpp@Net@2@@std@@@1@@Z 1002d230 f i CpDeviceStd.obj
 0001:0002c250       ??$_Allocate@U_Node@?$_Tree_nod@V?$_Tmap_traits@VBrn@OpenHome@@PAVCpDeviceCpp@Net@2@VBufferCmp@2@V?$allocator@U?$pair@$$CBVBrn@OpenHome@@PAVCpDeviceCpp@Net@2@@std@@@std@@$0A@@std@@@std@@@std@@YGPAU_Node@?$_Tree_nod@V?$_Tmap_traits@VBrn@OpenHome@@PAVCpDeviceCpp@Net@2@VBufferCmp@2@V?$allocator@U?$pair@$$CBVBrn@OpenHome@@PAVCpDeviceCpp@Net@2@@std@@@std@@$0A@@std@@@0@IPAU120@@Z 1002d250 f i CpDeviceStd.obj
 0001:0002c2f0       ?_Linsert@?$_Tree@V?$_Tmap_traits@VBrn@OpenHome@@PAVCpDeviceCpp@Net@2@VBufferCmp@2@V?$allocator@U?$pair@$$CBVBrn@OpenHome@@PAVCpDeviceCpp@Net@2@@std@@@std@@$0A@@std@@@std@@QAE?AU?$pair@V?$_Tree_iterator@V?$_Tree_val@V?$_Tmap_traits@VBrn@OpenHome@@PAVCpDeviceCpp@Net@2@VBufferCmp@2@V?$allocator@U?$pair@$$CBVBrn@OpenHome@@PAVCpDeviceCpp@Net@2@@std@@@std@@$0A@@std@@@std@@@std@@_N@2@PAU_Node@?$_Tree_nod@V?$_Tmap_traits@VBrn@OpenHome@@PAVCpDeviceCpp@Net@2@VBufferCmp@2@V?$allocator@U?$pair@$$CBVBrn@OpenHome@@PAVCpDeviceCpp@Net@2@@std@@@std@@$0A@@std@@@2@_N@Z 1002d2f0 f i CpDeviceStd.obj
 0001:0002c7c0       ?destroy@?$allocator@U?$pair@$$CBVBrn@OpenHome@@PAVCpDeviceCpp@Net@2@@std@@@std@@QAEXPAU?$pair@$$CBVBrn@OpenHome@@PAVCpDeviceCpp@Net@2@@2@@Z 1002d7c0 f i CpDeviceStd.obj
 0001:0002c7f0       ??0?$MemberTranslatorCpiDevice@VCpDeviceListCpp@Net@OpenHome@@P8123@AEXAAVCpiDevice@23@@Z@Net@OpenHome@@QAE@AAVCpDeviceListCpp@12@ABQ8312@AEXAAVCpiDevice@12@@Z@Z 1002d7f0 f i CpDeviceStd.obj
 0001:0002c840       ?_Insert@?$_Tree@V?$_Tmap_traits@VBrn@OpenHome@@PAVCpDeviceCpp@Net@2@VBufferCmp@2@V?$allocator@U?$pair@$$CBVBrn@OpenHome@@PAVCpDeviceCpp@Net@2@@std@@@std@@$0A@@std@@@std@@IAE?AV?$_Tree_iterator@V?$_Tree_val@V?$_Tmap_traits@VBrn@OpenHome@@PAVCpDeviceCpp@Net@2@VBufferCmp@2@V?$allocator@U?$pair@$$CBVBrn@OpenHome@@PAVCpDeviceCpp@Net@2@@std@@@std@@$0A@@std@@@std@@@2@_NPAU_Node@?$_Tree_nod@V?$_Tmap_traits@VBrn@OpenHome@@PAVCpDeviceCpp@Net@2@VBufferCmp@2@V?$allocator@U?$pair@$$CBVBrn@OpenHome@@PAVCpDeviceCpp@Net@2@@std@@@std@@$0A@@std@@@2@1@Z 1002d840 f i CpDeviceStd.obj
 0001:0002ccf0       ??F?$_Tree_iterator@V?$_Tree_val@V?$_Tmap_traits@VBrn@OpenHome@@PAVCpDeviceCpp@Net@2@VBufferCmp@2@V?$allocator@U?$pair@$$CBVBrn@OpenHome@@PAVCpDeviceCpp@Net@2@@std@@@std@@$0A@@std@@@std@@@std@@QAEAAV01@XZ 1002dcf0 f i CpDeviceStd.obj
 0001:0002cd20       ?Thunk@?$MemberTranslatorCpiDevice@VCpDeviceListCpp@Net@OpenHome@@P8123@AEXAAVCpiDevice@23@@Z@Net@OpenHome@@SGXABVFunctorCpiDevice@23@AAVCpiDevice@23@@Z 1002dd20 f i CpDeviceStd.obj
 0001:0002cd80       ??0?$pair@V?$_Tree_iterator@V?$_Tree_val@V?$_Tmap_traits@VBrn@OpenHome@@PAVCpDeviceCpp@Net@2@VBufferCmp@2@V?$allocator@U?$pair@$$CBVBrn@OpenHome@@PAVCpDeviceCpp@Net@2@@std@@@std@@$0A@@std@@@std@@@std@@_N@std@@QAE@$$QAV?$_Tree_iterator@V?$_Tree_val@V?$_Tmap_traits@VBrn@OpenHome@@PAVCpDeviceCpp@Net@2@VBufferCmp@2@V?$allocator@U?$pair@$$CBVBrn@OpenHome@@PAVCpDeviceCpp@Net@2@@std@@@std@@$0A@@std@@@std@@@1@$$QA_N@Z 1002dd80 f i CpDeviceStd.obj
 0001:0002cdd0       ?max_size@?$_Tree@V?$_Tmap_traits@VBrn@OpenHome@@PAVCpDeviceCpp@Net@2@VBufferCmp@2@V?$allocator@U?$pair@$$CBVBrn@OpenHome@@PAVCpDeviceCpp@Net@2@@std@@@std@@$0A@@std@@@std@@QBEIXZ 1002ddd0 f i CpDeviceStd.obj
 0001:0002ce00       ??F?$_Tree_const_iterator@V?$_Tree_val@V?$_Tmap_traits@VBrn@OpenHome@@PAVCpDeviceCpp@Net@2@VBufferCmp@2@V?$allocator@U?$pair@$$CBVBrn@OpenHome@@PAVCpDeviceCpp@Net@2@@std@@@std@@$0A@@std@@@std@@@std@@QAEAAV01@XZ 1002de00 f i CpDeviceStd.obj
 0001:0002cf70       ??0?$_Pair_base@V?$_Tree_iterator@V?$_Tree_val@V?$_Tmap_traits@VBrn@OpenHome@@PAVCpDeviceCpp@Net@2@VBufferCmp@2@V?$allocator@U?$pair@$$CBVBrn@OpenHome@@PAVCpDeviceCpp@Net@2@@std@@@std@@$0A@@std@@@std@@@std@@_N@std@@QAE@$$QAV?$_Tree_iterator@V?$_Tree_val@V?$_Tmap_traits@VBrn@OpenHome@@PAVCpDeviceCpp@Net@2@VBufferCmp@2@V?$allocator@U?$pair@$$CBVBrn@OpenHome@@PAVCpDeviceCpp@Net@2@@std@@@std@@$0A@@std@@@std@@@1@$$QA_N@Z 1002df70 f i CpDeviceStd.obj
 0001:0002d010       ?max_size@?$allocator@U?$pair@$$CBVBrn@OpenHome@@PAVCpDeviceCpp@Net@2@@std@@@std@@QBEIXZ 1002e010 f i CpDeviceStd.obj
 0001:0002d070       ??F?$_Tree_unchecked_const_iterator@V?$_Tree_val@V?$_Tmap_traits@VBrn@OpenHome@@PAVCpDeviceCpp@Net@2@VBufferCmp@2@V?$allocator@U?$pair@$$CBVBrn@OpenHome@@PAVCpDeviceCpp@Net@2@@std@@@std@@$0A@@std@@@std@@U_Iterator_base12@2@@std@@QAEAAV01@XZ 1002e070 f i CpDeviceStd.obj
 0001:0002d1a0       ??$forward@AAPAVCpDeviceCpp@Net@OpenHome@@@std@@YGAAPAVCpDeviceCpp@Net@OpenHome@@AAPAV123@@Z 1002e1a0 f i CpDeviceStd.obj
 0001:0002d1b0       ??$?0AAVBrn@OpenHome@@AAPAVCpDeviceCpp@Net@1@@?$_Pair_base@VBrn@OpenHome@@PAVCpDeviceCpp@Net@2@@std@@QAE@AAVBrn@OpenHome@@AAPAVCpDeviceCpp@Net@3@@Z 1002e1b0 f i CpDeviceStd.obj
 0001:0002d250       ??$forward@U?$pair@VBrn@OpenHome@@PAVCpDeviceCpp@Net@2@@std@@@std@@YG$$QAU?$pair@VBrn@OpenHome@@PAVCpDeviceCpp@Net@2@@0@AAU10@@Z 1002e250 f i CpDeviceStd.obj
 0001:0002d260       ??$_Buynode@U?$pair@VBrn@OpenHome@@PAVCpDeviceCpp@Net@2@@std@@@?$_Tree_val@V?$_Tmap_traits@VBrn@OpenHome@@PAVCpDeviceCpp@Net@2@VBufferCmp@2@V?$allocator@U?$pair@$$CBVBrn@OpenHome@@PAVCpDeviceCpp@Net@2@@std@@@std@@$0A@@std@@@std@@QAEPAU_Node@?$_Tree_nod@V?$_Tmap_traits@VBrn@OpenHome@@PAVCpDeviceCpp@Net@2@VBufferCmp@2@V?$allocator@U?$pair@$$CBVBrn@OpenHome@@PAVCpDeviceCpp@Net@2@@std@@@std@@$0A@@std@@@1@$$QAU?$pair@VBrn@OpenHome@@PAVCpDeviceCpp@Net@2@@1@@Z 1002e260 f i CpDeviceStd.obj
 0001:0002d380       ??$?0AAV?$_Tree_iterator@V?$_Tree_val@V?$_Tmap_traits@VBrn@OpenHome@@PAVCpDeviceCpp@Net@2@VBufferCmp@2@V?$allocator@U?$pair@$$CBVBrn@OpenHome@@PAVCpDeviceCpp@Net@2@@std@@@std@@$0A@@std@@@std@@@std@@_N@?$pair@V?$_Tree_iterator@V?$_Tree_val@V?$_Tmap_traits@VBrn@OpenHome@@PAVCpDeviceCpp@Net@2@VBufferCmp@2@V?$allocator@U?$pair@$$CBVBrn@OpenHome@@PAVCpDeviceCpp@Net@2@@std@@@std@@$0A@@std@@@std@@@std@@_N@std@@QAE@AAV?$_Tree_iterator@V?$_Tree_val@V?$_Tmap_traits@VBrn@OpenHome@@PAVCpDeviceCpp@Net@2@VBufferCmp@2@V?$allocator@U?$pair@$$CBVBrn@OpenHome@@PAVCpDeviceCpp@Net@2@@std@@@std@@$0A@@std@@@std@@@1@$$QA_N@Z 1002e380 f i CpDeviceStd.obj
 0001:0002d3d0       ??$_Destroy@U?$pair@$$CBVBrn@OpenHome@@PAVCpDeviceCpp@Net@2@@std@@@std@@YGXPAU?$pair@$$CBVBrn@OpenHome@@PAVCpDeviceCpp@Net@2@@0@@Z 1002e3d0 f i CpDeviceStd.obj
 0001:0002d3f0       ??$move@AAV?$_Tree_iterator@V?$_Tree_val@V?$_Tmap_traits@VBrn@OpenHome@@PAVCpDeviceCpp@Net@2@VBufferCmp@2@V?$allocator@U?$pair@$$CBVBrn@OpenHome@@PAVCpDeviceCpp@Net@2@@std@@@std@@$0A@@std@@@std@@@std@@@std@@YG$$QAV?$_Tree_iterator@V?$_Tree_val@V?$_Tmap_traits@VBrn@OpenHome@@PAVCpDeviceCpp@Net@2@VBufferCmp@2@V?$allocator@U?$pair@$$CBVBrn@OpenHome@@PAVCpDeviceCpp@Net@2@@std@@@std@@$0A@@std@@@std@@@0@AAV10@@Z 1002e3f0 f i CpDeviceStd.obj
 0001:0002d400       ??_G?$pair@$$CBVBrn@OpenHome@@PAVCpDeviceCpp@Net@2@@std@@QAEPAXI@Z 1002e400 f i CpDeviceStd.obj
 0001:0002d450       ??1?$pair@$$CBVBrn@OpenHome@@PAVCpDeviceCpp@Net@2@@std@@QAE@XZ 1002e450 f i CpDeviceStd.obj
 0001:0002d480       ??1?$_Pair_base@$$CBVBrn@OpenHome@@PAVCpDeviceCpp@Net@2@@std@@QAE@XZ 1002e480 f i CpDeviceStd.obj
 0001:0002d4b0       ?_Buynode@?$_Tree_val@V?$_Tmap_traits@VBrn@OpenHome@@PAVCpDeviceCpp@Net@2@VBufferCmp@2@V?$allocator@U?$pair@$$CBVBrn@OpenHome@@PAVCpDeviceCpp@Net@2@@std@@@std@@$0A@@std@@@std@@QAEPAU_Node@?$_Tree_nod@V?$_Tmap_traits@VBrn@OpenHome@@PAVCpDeviceCpp@Net@2@VBufferCmp@2@V?$allocator@U?$pair@$$CBVBrn@OpenHome@@PAVCpDeviceCpp@Net@2@@std@@@std@@$0A@@std@@@2@XZ 1002e4b0 f i CpDeviceStd.obj
 0001:0002d560       ??$_Cons_val@V?$allocator@U?$pair@$$CBVBrn@OpenHome@@PAVCpDeviceCpp@Net@2@@std@@@std@@U?$pair@$$CBVBrn@OpenHome@@PAVCpDeviceCpp@Net@2@@2@U?$pair@VBrn@OpenHome@@PAVCpDeviceCpp@Net@2@@2@@std@@YGXAAV?$allocator@U?$pair@$$CBVBrn@OpenHome@@PAVCpDeviceCpp@Net@2@@std@@@0@PAU?$pair@$$CBVBrn@OpenHome@@PAVCpDeviceCpp@Net@2@@0@$$QAU?$pair@VBrn@OpenHome@@PAVCpDeviceCpp@Net@2@@0@@Z 1002e560 f i CpDeviceStd.obj
 0001:0002d590       ??$forward@AAV?$_Tree_iterator@V?$_Tree_val@V?$_Tmap_traits@VBrn@OpenHome@@PAVCpDeviceCpp@Net@2@VBufferCmp@2@V?$allocator@U?$pair@$$CBVBrn@OpenHome@@PAVCpDeviceCpp@Net@2@@std@@@std@@$0A@@std@@@std@@@std@@@std@@YGAAV?$_Tree_iterator@V?$_Tree_val@V?$_Tmap_traits@VBrn@OpenHome@@PAVCpDeviceCpp@Net@2@VBufferCmp@2@V?$allocator@U?$pair@$$CBVBrn@OpenHome@@PAVCpDeviceCpp@Net@2@@std@@@std@@$0A@@std@@@std@@@0@AAV10@@Z 1002e590 f i CpDeviceStd.obj
 0001:0002d5a0       ??$?0AAV?$_Tree_iterator@V?$_Tree_val@V?$_Tmap_traits@VBrn@OpenHome@@PAVCpDeviceCpp@Net@2@VBufferCmp@2@V?$allocator@U?$pair@$$CBVBrn@OpenHome@@PAVCpDeviceCpp@Net@2@@std@@@std@@$0A@@std@@@std@@@std@@_N@?$_Pair_base@V?$_Tree_iterator@V?$_Tree_val@V?$_Tmap_traits@VBrn@OpenHome@@PAVCpDeviceCpp@Net@2@VBufferCmp@2@V?$allocator@U?$pair@$$CBVBrn@OpenHome@@PAVCpDeviceCpp@Net@2@@std@@@std@@$0A@@std@@@std@@@std@@_N@std@@QAE@AAV?$_Tree_iterator@V?$_Tree_val@V?$_Tmap_traits@VBrn@OpenHome@@PAVCpDeviceCpp@Net@2@VBufferCmp@2@V?$allocator@U?$pair@$$CBVBrn@OpenHome@@PAVCpDeviceCpp@Net@2@@std@@@std@@$0A@@std@@@std@@@1@$$QA_N@Z 1002e5a0 f i CpDeviceStd.obj
 0001:0002d640       ??$construct@U?$pair@VBrn@OpenHome@@PAVCpDeviceCpp@Net@2@@std@@@?$allocator@U?$pair@$$CBVBrn@OpenHome@@PAVCpDeviceCpp@Net@2@@std@@@std@@QAEXPAU?$pair@$$CBVBrn@OpenHome@@PAVCpDeviceCpp@Net@2@@1@$$QAU?$pair@VBrn@OpenHome@@PAVCpDeviceCpp@Net@2@@1@@Z 1002e640 f i CpDeviceStd.obj
 0001:0002d710       ??$?0VBrn@OpenHome@@PAVCpDeviceCpp@Net@1@@?$pair@$$CBVBrn@OpenHome@@PAVCpDeviceCpp@Net@2@@std@@QAE@$$QAU?$pair@VBrn@OpenHome@@PAVCpDeviceCpp@Net@2@@1@@Z 1002e710 f i CpDeviceStd.obj
 0001:0002d760       ??$forward@PAVCpDeviceCpp@Net@OpenHome@@@std@@YG$$QAPAVCpDeviceCpp@Net@OpenHome@@AAPAV123@@Z 1002e760 f i CpDeviceStd.obj
 0001:0002d770       ??$?0VBrn@OpenHome@@PAVCpDeviceCpp@Net@1@@?$_Pair_base@$$CBVBrn@OpenHome@@PAVCpDeviceCpp@Net@2@@std@@QAE@$$QAVBrn@OpenHome@@$$QAPAVCpDeviceCpp@Net@3@@Z 1002e770 f i CpDeviceStd.obj
 0001:0002d810       ?New@CpDeviceDv@Net@OpenHome@@SGPAV123@AAVDvDevice@23@@Z 1002e810 f   CpDeviceDvCore.obj
 0001:0002d910       ??1CpDeviceDv@Net@OpenHome@@EAE@XZ 1002e910 f   CpDeviceDvCore.obj
 0001:0002d940       ??0CpDeviceDv@Net@OpenHome@@AAE@AAVCpiDeviceDv@12@@Z 1002e940 f   CpDeviceDvCore.obj
 0001:0002d9e0       ??_GCpDeviceDv@Net@OpenHome@@EAEPAXI@Z 1002e9e0 f i CpDeviceDvCore.obj
 0001:0002d9e0       ??_ECpDeviceDv@Net@OpenHome@@EAEPAXI@Z 1002e9e0 f i CpDeviceDvCore.obj
 0001:0002da30       ?New@CpDeviceDvCpp@Net@OpenHome@@SGPAV123@AAVDvDeviceStd@23@@Z 1002ea30 f   CpDeviceDvStd.obj
 0001:0002db30       ??1CpDeviceDvCpp@Net@OpenHome@@EAE@XZ 1002eb30 f   CpDeviceDvStd.obj
 0001:0002db60       ??0CpDeviceDvCpp@Net@OpenHome@@AAE@AAVCpiDeviceDv@12@@Z 1002eb60 f   CpDeviceDvStd.obj
 0001:0002dc00       ??_ECpDeviceDvCpp@Net@OpenHome@@EAEPAXI@Z 1002ec00 f i CpDeviceDvStd.obj
 0001:0002dc00       ??_GCpDeviceDvCpp@Net@OpenHome@@EAEPAXI@Z 1002ec00 f i CpDeviceDvStd.obj
 0001:0002dc50       _CpDeviceDvCreate@4        1002ec50 f   CpDeviceDvC.obj
 0001:0002dcf0       ?DeviceFromHandle@DviDeviceC@Net@OpenHome@@SGPAVDvDevice@23@PAX@Z 1002ecf0 f i CpDeviceDvC.obj
 0001:0002dd10       ??0CpDeviceListUpnpAll@Net@OpenHome@@QAE@VFunctorCpDevice@12@0@Z 1002ed10 f   CpDeviceUpnpCore.obj
 0001:0002ded0       ??0CpDeviceListUpnpRoot@Net@OpenHome@@QAE@VFunctorCpDevice@12@0@Z 1002eed0 f   CpDeviceUpnpCore.obj
 0001:0002e090       ??0CpDeviceListUpnpUuid@Net@OpenHome@@QAE@ABVBrx@2@VFunctorCpDevice@12@1@Z 1002f090 f   CpDeviceUpnpCore.obj
 0001:0002e260       ??0CpDeviceListUpnpDeviceType@Net@OpenHome@@QAE@ABVBrx@2@0IVFunctorCpDevice@12@1@Z 1002f260 f   CpDeviceUpnpCore.obj
 0001:0002e430       ??0CpDeviceListUpnpServiceType@Net@OpenHome@@QAE@ABVBrx@2@0IVFunctorCpDevice@12@1@Z 1002f430 f   CpDeviceUpnpCore.obj
 0001:0002e830       ??0FunctorCpiDevice@Net@OpenHome@@QAE@XZ 1002f830 f i CpDeviceUpnpCore.obj
 0001:0002e870       _CpDeviceListCreateUpnpAll@16 1002f870 f   CpDeviceUpnpC.obj
 0001:0002e9c0       _CpDeviceListCreateUpnpRoot@16 1002f9c0 f   CpDeviceUpnpC.obj
 0001:0002eb10       _CpDeviceListCreateUpnpUuid@20 1002fb10 f   CpDeviceUpnpC.obj
 0001:0002ec80       _CpDeviceListCreateUpnpDeviceType@28 1002fc80 f   CpDeviceUpnpC.obj
 0001:0002ee40       _CpDeviceListCreateUpnpServiceType@28 1002fe40 f   CpDeviceUpnpC.obj
 0001:0002f1f0       ?MakeFunctorCpiDeviceC@Net@OpenHome@@YG?AVFunctionTranslatorCpiDevice@12@PAXP6GX0PAVCpiDevice@12@@Z@Z 100301f0 f i CpDeviceUpnpC.obj
 0001:0002f220       ??0FunctionTranslatorCpiDevice@Net@OpenHome@@QAE@PAXP6GX0PAVCpiDevice@12@@Z@Z 10030220 f i CpDeviceUpnpC.obj
 0001:0002f270       ??0FunctorCpiDevice@Net@OpenHome@@IAE@P6GXABV012@AAVCpiDevice@12@@ZPBXP6GXPAXPAV312@@Z@Z 10030270 f i CpDeviceUpnpC.obj
 0001:0002f2b0       ?Thunk@FunctionTranslatorCpiDevice@Net@OpenHome@@SGXABVFunctorCpiDevice@23@AAVCpiDevice@23@@Z 100302b0 f i CpDeviceUpnpC.obj
 0001:0002f2f0       ??0CpDeviceListCppUpnpAll@Net@OpenHome@@QAE@VFunctorCpDeviceCpp@12@0@Z 100302f0 f   CpDeviceUpnpStd.obj
 0001:0002f4b0       ??0CpDeviceListCppUpnpRoot@Net@OpenHome@@QAE@VFunctorCpDeviceCpp@12@0@Z 100304b0 f   CpDeviceUpnpStd.obj
 0001:0002f670       ??0CpDeviceListCppUpnpUuid@Net@OpenHome@@QAE@ABV?$basic_string@DU?$char_traits@D@std@@V?$allocator@D@2@@std@@VFunctorCpDeviceCpp@12@1@Z 10030670 f   CpDeviceUpnpStd.obj
 0001:0002f860       ??0CpDeviceListCppUpnpDeviceType@Net@OpenHome@@QAE@ABV?$basic_string@DU?$char_traits@D@std@@V?$allocator@D@2@@std@@0IVFunctorCpDeviceCpp@12@1@Z 10030860 f   CpDeviceUpnpStd.obj
 0001:0002fa90       ??0CpDeviceListCppUpnpServiceType@Net@OpenHome@@QAE@ABV?$basic_string@DU?$char_traits@D@std@@V?$allocator@D@2@@std@@0IVFunctorCpDeviceCpp@12@1@Z 10030a90 f   CpDeviceUpnpStd.obj
 0001:0002ff30       ??0CpiDevice@Net@OpenHome@@QAE@ABVBrx@2@AAVICpiProtocol@12@AAVICpiDeviceObserver@12@PAX@Z 10030f30 f   CpiDevice.obj
 0001:00030000       ?Udn@CpiDevice@Net@OpenHome@@QBEABVBrx@3@XZ 10031000 f   CpiDevice.obj
 0001:00030020       ?UdnAsCString@CpiDevice@Net@OpenHome@@QBEPBDXZ 10031020 f   CpiDevice.obj
 0001:00030050       ??8CpiDevice@Net@OpenHome@@QBE_NABV012@@Z 10031050 f   CpiDevice.obj
 0001:00030080       ??9CpiDevice@Net@OpenHome@@QBE_NABV012@@Z 10031080 f   CpiDevice.obj
 0001:000300b0       ?OwnerData@CpiDevice@Net@OpenHome@@QAEPAXXZ 100310b0 f   CpiDevice.obj
 0001:000300d0       ?AddRef@CpiDevice@Net@OpenHome@@QAEXXZ 100310d0 f   CpiDevice.obj
 0001:00030120       ?RemoveRef@CpiDevice@Net@OpenHome@@QAEXXZ 10031120 f   CpiDevice.obj
 0001:000301f0       ?GetAttribute@CpiDevice@Net@OpenHome@@UBE_NPBDAAVBrh@3@@Z 100311f0 f   CpiDevice.obj
 0001:00030240       ?InvokeAction@CpiDevice@Net@OpenHome@@UAEXAAVInvocation@23@@Z 10031240 f   CpiDevice.obj
 0001:00030280       ?Subscribe@CpiDevice@Net@OpenHome@@UAEIAAVCpiSubscription@23@ABVUri@3@@Z 10031280 f   CpiDevice.obj
 0001:000302d0       ?Renew@CpiDevice@Net@OpenHome@@UAEIAAVCpiSubscription@23@@Z 100312d0 f   CpiDevice.obj
 0001:00030310       ?Unsubscribe@CpiDevice@Net@OpenHome@@UAEXAAVCpiSubscription@23@ABVBrx@3@@Z 10031310 f   CpiDevice.obj
 0001:00030360       ?NotifyRemovedBeforeReady@CpiDevice@Net@OpenHome@@UAEXXZ 10031360 f   CpiDevice.obj
 0001:000303a0       ?SetReady@CpiDevice@Net@OpenHome@@QAEXXZ 100313a0 f   CpiDevice.obj
 0001:000303c0       ?IsReady@CpiDevice@Net@OpenHome@@QBE_NXZ 100313c0 f   CpiDevice.obj
 0001:000303e0       ?SetExpired@CpiDevice@Net@OpenHome@@QAEX_N@Z 100313e0 f   CpiDevice.obj
 0001:00030400       ?HasExpired@CpiDevice@Net@OpenHome@@QBE_NXZ 10031400 f   CpiDevice.obj
 0001:00030420       ??1CpiDevice@Net@OpenHome@@EAE@XZ 10031420 f   CpiDevice.obj
 0001:00030520       ?Refresh@CpiDeviceList@Net@OpenHome@@UAEXXZ 10031520 f   CpiDevice.obj
 0001:00030540       ?RefDevice@CpiDeviceList@Net@OpenHome@@QAEPAVCpiDevice@23@ABVBrx@3@@Z 10031540 f   CpiDevice.obj
 0001:00030600       ?RefDeviceLocked@CpiDeviceList@Net@OpenHome@@IAEPAVCpiDevice@23@ABVBrx@3@@Z 10031600 f   CpiDevice.obj
 0001:00030760       ??0CpiDeviceList@Net@OpenHome@@IAE@VFunctorCpiDevice@12@0@Z 10031760 f   CpiDevice.obj
 0001:000308d0       ??1CpiDeviceList@Net@OpenHome@@UAE@XZ 100318d0 f   CpiDevice.obj
 0001:000309f0       ?Add@CpiDeviceList@Net@OpenHome@@IAEXPAVCpiDevice@23@@Z 100319f0 f   CpiDevice.obj
 0001:00030d70       ?Remove@CpiDeviceList@Net@OpenHome@@MAEXABVBrx@3@@Z 10031d70 f   CpiDevice.obj
 0001:00030dc0       ?IsDeviceReady@CpiDeviceList@Net@OpenHome@@MAE_NAAVCpiDevice@23@@Z 10031dc0 f   CpiDevice.obj
 0001:00030de0       ?StartRefresh@CpiDeviceList@Net@OpenHome@@IAE_NXZ 10031de0 f   CpiDevice.obj
 0001:00030e30       ?RefreshComplete@CpiDeviceList@Net@OpenHome@@IAEXXZ 10031e30 f   CpiDevice.obj
 0001:00030e80       ?SetDeviceReady@CpiDeviceList@Net@OpenHome@@IAEXAAVCpiDevice@23@@Z 10031e80 f   CpiDevice.obj
 0001:00030ee0       ?ClearMap@CpiDeviceList@Net@OpenHome@@KGXAAV?$map@VBrn@OpenHome@@PAVCpiDevice@Net@2@VBufferCmp@2@V?$allocator@U?$pair@$$CBVBrn@OpenHome@@PAVCpiDevice@Net@2@@std@@@std@@@std@@@Z 10031ee0 f   CpiDevice.obj
 0001:00031000       ?AddRef@CpiDeviceList@Net@OpenHome@@EAEXXZ 10032000 f   CpiDevice.obj
 0001:00031050       ?RemoveRef@CpiDeviceList@Net@OpenHome@@EAEXXZ 10032050 f   CpiDevice.obj
 0001:000310c0       ?NotifyAdded@CpiDeviceList@Net@OpenHome@@EAEXAAVCpiDevice@23@@Z 100320c0 f   CpiDevice.obj
 0001:00031180       ?NotifyRemoved@CpiDeviceList@Net@OpenHome@@EAEXABVBrx@3@@Z 10032180 f   CpiDevice.obj
 0001:000311b0       ?DoRemove@CpiDeviceList@Net@OpenHome@@AAEXABVBrx@3@@Z 100321b0 f   CpiDevice.obj
 0001:00031440       ?NotifyRefreshed@CpiDeviceList@Net@OpenHome@@EAEXXZ 10032440 f   CpiDevice.obj
 0001:000316d0       ??0CpiDeviceListUpdater@Net@OpenHome@@QAE@XZ 100326d0 f   CpiDevice.obj
 0001:00031770       ??1CpiDeviceListUpdater@Net@OpenHome@@UAE@XZ 10032770 f   CpiDevice.obj
 0001:00031890       ?QueueAdded@CpiDeviceListUpdater@Net@OpenHome@@SGXAAVIDeviceListUpdater@23@AAVCpiDevice@23@@Z 10032890 f   CpiDevice.obj
 0001:00031940       ?QueueRemoved@CpiDeviceListUpdater@Net@OpenHome@@SGXAAVIDeviceListUpdater@23@ABVBrx@3@@Z 10032940 f   CpiDevice.obj
 0001:000319f0       ?QueueRefreshed@CpiDeviceListUpdater@Net@OpenHome@@SGXAAVIDeviceListUpdater@23@@Z 100329f0 f   CpiDevice.obj
 0001:00031a90       ?Queue@CpiDeviceListUpdater@Net@OpenHome@@CGXPAVUpdateBase@123@@Z 10032a90 f   CpiDevice.obj
 0001:00031ae0       ?Run@CpiDeviceListUpdater@Net@OpenHome@@EAEXXZ 10032ae0 f   CpiDevice.obj
 0001:00031ba0       ??1UpdateBase@CpiDeviceListUpdater@Net@OpenHome@@UAE@XZ 10032ba0 f   CpiDevice.obj
 0001:00031bf0       ??0UpdateBase@CpiDeviceListUpdater@Net@OpenHome@@IAE@AAVIDeviceListUpdater@23@@Z 10032bf0 f   CpiDevice.obj
 0001:00031c50       ??0UpdateAdded@CpiDeviceListUpdater@Net@OpenHome@@QAE@AAVIDeviceListUpdater@23@AAVCpiDevice@23@@Z 10032c50 f   CpiDevice.obj
 0001:00031ce0       ??1UpdateAdded@CpiDeviceListUpdater@Net@OpenHome@@UAE@XZ 10032ce0 f   CpiDevice.obj
 0001:00031d50       ?Update@UpdateAdded@CpiDeviceListUpdater@Net@OpenHome@@EAEXXZ 10032d50 f   CpiDevice.obj
 0001:00031da0       ??0UpdateRemoved@CpiDeviceListUpdater@Net@OpenHome@@QAE@AAVIDeviceListUpdater@23@ABVBrx@3@@Z 10032da0 f   CpiDevice.obj
 0001:00031e20       ?Update@UpdateRemoved@CpiDeviceListUpdater@Net@OpenHome@@EAEXXZ 10032e20 f   CpiDevice.obj
 0001:00031e70       ??0UpdateRefresh@CpiDeviceListUpdater@Net@OpenHome@@QAE@AAVIDeviceListUpdater@23@@Z 10032e70 f   CpiDevice.obj
 0001:00031eb0       ?Update@UpdateRefresh@CpiDeviceListUpdater@Net@OpenHome@@EAEXXZ 10032eb0 f   CpiDevice.obj
 0001:000326e0       ??_GCpiDevice@Net@OpenHome@@EAEPAXI@Z 100336e0 f i CpiDevice.obj
 0001:000326e0       ??_ECpiDevice@Net@OpenHome@@EAEPAXI@Z 100336e0 f i CpiDevice.obj
 0001:00032730       ??0ICpiProtocol@Net@OpenHome@@QAE@XZ 10033730 f i CpiDevice.obj
 0001:00032770       ??0IInvocable@Net@OpenHome@@QAE@XZ 10033770 f i CpiDevice.obj
 0001:000327a0       ?CString@Brhz@OpenHome@@QBEPBDXZ 100337a0 f i CpiDevice.obj
 0001:000327c0       ??1?$_Tree_iterator@V?$_Tree_val@V?$_Tmap_traits@VBrn@OpenHome@@PAVCpiDevice@Net@2@VBufferCmp@2@V?$allocator@U?$pair@$$CBVBrn@OpenHome@@PAVCpiDevice@Net@2@@std@@@std@@$0A@@std@@@std@@@std@@QAE@XZ 100337c0 f i CpiDevice.obj
 0001:000327f0       ??1?$_Tree_const_iterator@V?$_Tree_val@V?$_Tmap_traits@VBrn@OpenHome@@PAVCpiDevice@Net@2@VBufferCmp@2@V?$allocator@U?$pair@$$CBVBrn@OpenHome@@PAVCpiDevice@Net@2@@std@@@std@@$0A@@std@@@std@@@std@@QAE@XZ 100337f0 f i CpiDevice.obj
 0001:00032820       ??1?$_Tree_unchecked_const_iterator@V?$_Tree_val@V?$_Tmap_traits@VBrn@OpenHome@@PAVCpiDevice@Net@2@VBufferCmp@2@V?$allocator@U?$pair@$$CBVBrn@OpenHome@@PAVCpiDevice@Net@2@@std@@@std@@$0A@@std@@@std@@U_Iterator_base12@2@@std@@QAE@XZ 10033820 f i CpiDevice.obj
 0001:00032850       ??1?$_Iterator012@Ubidirectional_iterator_tag@std@@U?$pair@$$CBVBrn@OpenHome@@PAVCpiDevice@Net@2@@2@HPBU32@ABU32@U_Iterator_base12@2@@std@@QAE@XZ 10033850 f i CpiDevice.obj
 0001:00032880       ??BFunctorCpiDevice@Net@OpenHome@@QBE_NXZ 10033880 f i CpiDevice.obj
 0001:000328d0       ??_GCpiDeviceList@Net@OpenHome@@UAEPAXI@Z 100338d0 f i CpiDevice.obj
 0001:000328d0       ??_ECpiDeviceList@Net@OpenHome@@UAEPAXI@Z 100338d0 f i CpiDevice.obj
 0001:00032920       ??0IDeviceRemover@Net@OpenHome@@QAE@XZ 10033920 f i CpiDevice.obj
 0001:00032950       ??0IDeviceListUpdater@Net@OpenHome@@QAE@XZ 10033950 f i CpiDevice.obj
 0001:00032980       ??1?$map@VBrn@OpenHome@@PAVCpiDevice@Net@2@VBufferCmp@2@V?$allocator@U?$pair@$$CBVBrn@OpenHome@@PAVCpiDevice@Net@2@@std@@@std@@@std@@QAE@XZ 10033980 f i CpiDevice.obj
 0001:000329b0       ??1?$pair@VBrn@OpenHome@@PAVCpiDevice@Net@2@@std@@QAE@XZ 100339b0 f i CpiDevice.obj
 0001:000329e0       ??1?$pair@V?$_Tree_iterator@V?$_Tree_val@V?$_Tmap_traits@VBrn@OpenHome@@PAVCpiDevice@Net@2@VBufferCmp@2@V?$allocator@U?$pair@$$CBVBrn@OpenHome@@PAVCpiDevice@Net@2@@std@@@std@@$0A@@std@@@std@@@std@@_N@std@@QAE@XZ 100339e0 f i CpiDevice.obj
 0001:00032a10       ??1?$_Pair_base@VBrn@OpenHome@@PAVCpiDevice@Net@2@@std@@QAE@XZ 10033a10 f i CpiDevice.obj
 0001:00032a40       ??1?$_Pair_base@V?$_Tree_iterator@V?$_Tree_val@V?$_Tmap_traits@VBrn@OpenHome@@PAVCpiDevice@Net@2@VBufferCmp@2@V?$allocator@U?$pair@$$CBVBrn@OpenHome@@PAVCpiDevice@Net@2@@std@@@std@@$0A@@std@@@std@@@std@@_N@std@@QAE@XZ 10033a40 f i CpiDevice.obj
 0001:00032a70       ??RFunctorCpiDevice@Net@OpenHome@@QBEXAAVCpiDevice@12@@Z 10033a70 f i CpiDevice.obj
 0001:00032ac0       ??0?$_Tree_const_iterator@V?$_Tree_val@V?$_Tmap_traits@VBrn@OpenHome@@PAVCpiDevice@Net@2@VBufferCmp@2@V?$allocator@U?$pair@$$CBVBrn@OpenHome@@PAVCpiDevice@Net@2@@std@@@std@@$0A@@std@@@std@@@std@@QAE@ABV01@@Z 10033ac0 f i CpiDevice.obj
 0001:00032b00       ??0?$_Tree_unchecked_const_iterator@V?$_Tree_val@V?$_Tmap_traits@VBrn@OpenHome@@PAVCpiDevice@Net@2@VBufferCmp@2@V?$allocator@U?$pair@$$CBVBrn@OpenHome@@PAVCpiDevice@Net@2@@std@@@std@@$0A@@std@@@std@@U_Iterator_base12@2@@std@@QAE@ABV01@@Z 10033b00 f i CpiDevice.obj
 0001:00032b50       ??0?$_Iterator012@Ubidirectional_iterator_tag@std@@U?$pair@$$CBVBrn@OpenHome@@PAVCpiDevice@Net@2@@2@HPBU32@ABU32@U_Iterator_base12@2@@std@@QAE@ABU01@@Z 10033b50 f i CpiDevice.obj
 0001:00032b90       ??4?$_Tree_iterator@V?$_Tree_val@V?$_Tmap_traits@VBrn@OpenHome@@PAVCpiDevice@Net@2@VBufferCmp@2@V?$allocator@U?$pair@$$CBVBrn@OpenHome@@PAVCpiDevice@Net@2@@std@@@std@@$0A@@std@@@std@@@std@@QAEAAV01@ABV01@@Z 10033b90 f i CpiDevice.obj
 0001:00032bd0       ??4?$_Tree_const_iterator@V?$_Tree_val@V?$_Tmap_traits@VBrn@OpenHome@@PAVCpiDevice@Net@2@VBufferCmp@2@V?$allocator@U?$pair@$$CBVBrn@OpenHome@@PAVCpiDevice@Net@2@@std@@@std@@$0A@@std@@@std@@@std@@QAEAAV01@ABV01@@Z 10033bd0 f i CpiDevice.obj
 0001:00032c10       ??4?$_Tree_unchecked_const_iterator@V?$_Tree_val@V?$_Tmap_traits@VBrn@OpenHome@@PAVCpiDevice@Net@2@VBufferCmp@2@V?$allocator@U?$pair@$$CBVBrn@OpenHome@@PAVCpiDevice@Net@2@@std@@@std@@$0A@@std@@@std@@U_Iterator_base12@2@@std@@QAEAAV01@ABV01@@Z 10033c10 f i CpiDevice.obj
 0001:00032c60       ??4?$_Iterator012@Ubidirectional_iterator_tag@std@@U?$pair@$$CBVBrn@OpenHome@@PAVCpiDevice@Net@2@@2@HPBU32@ABU32@U_Iterator_base12@2@@std@@QAEAAU01@ABU01@@Z 10033c60 f i CpiDevice.obj
 0001:00032ca0       ??_GCpiDeviceListUpdater@Net@OpenHome@@UAEPAXI@Z 10033ca0 f i CpiDevice.obj
 0001:00032ca0       ??_ECpiDeviceListUpdater@Net@OpenHome@@UAEPAXI@Z 10033ca0 f i CpiDevice.obj
 0001:00032cf0       ??_GUpdateBase@CpiDeviceListUpdater@Net@OpenHome@@UAEPAXI@Z 10033cf0 f i CpiDevice.obj
 0001:00032cf0       ??_EUpdateBase@CpiDeviceListUpdater@Net@OpenHome@@UAEPAXI@Z 10033cf0 f i CpiDevice.obj
 0001:00032d40       ??_GUpdateAdded@CpiDeviceListUpdater@Net@OpenHome@@UAEPAXI@Z 10033d40 f i CpiDevice.obj
 0001:00032d40       ??_EUpdateAdded@CpiDeviceListUpdater@Net@OpenHome@@UAEPAXI@Z 10033d40 f i CpiDevice.obj
 0001:00032d90       ??_EUpdateRemoved@CpiDeviceListUpdater@Net@OpenHome@@UAEPAXI@Z 10033d90 f i CpiDevice.obj
 0001:00032d90       ??_GUpdateRemoved@CpiDeviceListUpdater@Net@OpenHome@@UAEPAXI@Z 10033d90 f i CpiDevice.obj
 0001:00032de0       ??1UpdateRemoved@CpiDeviceListUpdater@Net@OpenHome@@UAE@XZ 10033de0 f i CpiDevice.obj
 0001:00032e60       ??_GUpdateRefresh@CpiDeviceListUpdater@Net@OpenHome@@UAEPAXI@Z 10033e60 f i CpiDevice.obj
 0001:00032e60       ??_EUpdateRefresh@CpiDeviceListUpdater@Net@OpenHome@@UAEPAXI@Z 10033e60 f i CpiDevice.obj
 0001:00032eb0       ??1UpdateRefresh@CpiDeviceListUpdater@Net@OpenHome@@UAE@XZ 10033eb0 f i CpiDevice.obj
 0001:00032ee0       ??0?$map@VBrn@OpenHome@@PAVCpiDevice@Net@2@VBufferCmp@2@V?$allocator@U?$pair@$$CBVBrn@OpenHome@@PAVCpiDevice@Net@2@@std@@@std@@@std@@QAE@XZ 10033ee0 f i CpiDevice.obj
 0001:00032f40       ??1?$_Tree@V?$_Tmap_traits@VBrn@OpenHome@@PAVCpiDevice@Net@2@VBufferCmp@2@V?$allocator@U?$pair@$$CBVBrn@OpenHome@@PAVCpiDevice@Net@2@@std@@@std@@$0A@@std@@@std@@QAE@XZ 10033f40 f i CpiDevice.obj
 0001:00032fc0       ?begin@?$_Tree@V?$_Tmap_traits@VBrn@OpenHome@@PAVCpiDevice@Net@2@VBufferCmp@2@V?$allocator@U?$pair@$$CBVBrn@OpenHome@@PAVCpiDevice@Net@2@@std@@@std@@$0A@@std@@@std@@QAE?AV?$_Tree_iterator@V?$_Tree_val@V?$_Tmap_traits@VBrn@OpenHome@@PAVCpiDevice@Net@2@VBufferCmp@2@V?$allocator@U?$pair@$$CBVBrn@OpenHome@@PAVCpiDevice@Net@2@@std@@@std@@$0A@@std@@@std@@@2@XZ 10033fc0 f i CpiDevice.obj
 0001:00033030       ?end@?$_Tree@V?$_Tmap_traits@VBrn@OpenHome@@PAVCpiDevice@Net@2@VBufferCmp@2@V?$allocator@U?$pair@$$CBVBrn@OpenHome@@PAVCpiDevice@Net@2@@std@@@std@@$0A@@std@@@std@@QAE?AV?$_Tree_iterator@V?$_Tree_val@V?$_Tmap_traits@VBrn@OpenHome@@PAVCpiDevice@Net@2@VBufferCmp@2@V?$allocator@U?$pair@$$CBVBrn@OpenHome@@PAVCpiDevice@Net@2@@std@@@std@@$0A@@std@@@std@@@2@XZ 10034030 f i CpiDevice.obj
 0001:00033090       ?erase@?$_Tree@V?$_Tmap_traits@VBrn@OpenHome@@PAVCpiDevice@Net@2@VBufferCmp@2@V?$allocator@U?$pair@$$CBVBrn@OpenHome@@PAVCpiDevice@Net@2@@std@@@std@@$0A@@std@@@std@@QAE?AV?$_Tree_iterator@V?$_Tree_val@V?$_Tmap_traits@VBrn@OpenHome@@PAVCpiDevice@Net@2@VBufferCmp@2@V?$allocator@U?$pair@$$CBVBrn@OpenHome@@PAVCpiDevice@Net@2@@std@@@std@@$0A@@std@@@std@@@2@V?$_Tree_const_iterator@V?$_Tree_val@V?$_Tmap_traits@VBrn@OpenHome@@PAVCpiDevice@Net@2@VBufferCmp@2@V?$allocator@U?$pair@$$CBVBrn@OpenHome@@PAVCpiDevice@Net@2@@std@@@std@@$0A@@std@@@std@@@2@@Z 10034090 f i CpiDevice.obj
 0001:00033960       ?clear@?$_Tree@V?$_Tmap_traits@VBrn@OpenHome@@PAVCpiDevice@Net@2@VBufferCmp@2@V?$allocator@U?$pair@$$CBVBrn@OpenHome@@PAVCpiDevice@Net@2@@std@@@std@@$0A@@std@@@std@@QAEXXZ 10034960 f i CpiDevice.obj
 0001:00033a00       ?find@?$_Tree@V?$_Tmap_traits@VBrn@OpenHome@@PAVCpiDevice@Net@2@VBufferCmp@2@V?$allocator@U?$pair@$$CBVBrn@OpenHome@@PAVCpiDevice@Net@2@@std@@@std@@$0A@@std@@@std@@QAE?AV?$_Tree_iterator@V?$_Tree_val@V?$_Tmap_traits@VBrn@OpenHome@@PAVCpiDevice@Net@2@VBufferCmp@2@V?$allocator@U?$pair@$$CBVBrn@OpenHome@@PAVCpiDevice@Net@2@@std@@@std@@$0A@@std@@@std@@@2@ABVBrn@OpenHome@@@Z 10034a00 f i CpiDevice.obj
 0001:00033c60       ??0?$list@PAVUpdateBase@CpiDeviceListUpdater@Net@OpenHome@@V?$allocator@PAVUpdateBase@CpiDeviceListUpdater@Net@OpenHome@@@std@@@std@@QAE@XZ 10034c60 f i CpiDevice.obj
 0001:00033cb0       ??1?$list@PAVUpdateBase@CpiDeviceListUpdater@Net@OpenHome@@V?$allocator@PAVUpdateBase@CpiDeviceListUpdater@Net@OpenHome@@@std@@@std@@QAE@XZ 10034cb0 f i CpiDevice.obj
 0001:00033d30       ?size@?$list@PAVUpdateBase@CpiDeviceListUpdater@Net@OpenHome@@V?$allocator@PAVUpdateBase@CpiDeviceListUpdater@Net@OpenHome@@@std@@@std@@QBEIXZ 10034d30 f i CpiDevice.obj
 0001:00033d50       ?front@?$list@PAVUpdateBase@CpiDeviceListUpdater@Net@OpenHome@@V?$allocator@PAVUpdateBase@CpiDeviceListUpdater@Net@OpenHome@@@std@@@std@@QAEAAPAVUpdateBase@CpiDeviceListUpdater@Net@OpenHome@@XZ 10034d50 f i CpiDevice.obj
 0001:00033e10       ?pop_front@?$list@PAVUpdateBase@CpiDeviceListUpdater@Net@OpenHome@@V?$allocator@PAVUpdateBase@CpiDeviceListUpdater@Net@OpenHome@@@std@@@std@@QAEXXZ 10034e10 f i CpiDevice.obj
 0001:00033ef0       ?push_back@?$list@PAVUpdateBase@CpiDeviceListUpdater@Net@OpenHome@@V?$allocator@PAVUpdateBase@CpiDeviceListUpdater@Net@OpenHome@@@std@@@std@@QAEXABQAVUpdateBase@CpiDeviceListUpdater@Net@OpenHome@@@Z 10034ef0 f i CpiDevice.obj
 0001:00033fd0       ??C?$_Tree_iterator@V?$_Tree_val@V?$_Tmap_traits@VBrn@OpenHome@@PAVCpiDevice@Net@2@VBufferCmp@2@V?$allocator@U?$pair@$$CBVBrn@OpenHome@@PAVCpiDevice@Net@2@@std@@@std@@$0A@@std@@@std@@@std@@QBEPAU?$pair@$$CBVBrn@OpenHome@@PAVCpiDevice@Net@2@@1@XZ 10034fd0 f i CpiDevice.obj
 0001:00034000       ??E?$_Tree_iterator@V?$_Tree_val@V?$_Tmap_traits@VBrn@OpenHome@@PAVCpiDevice@Net@2@VBufferCmp@2@V?$allocator@U?$pair@$$CBVBrn@OpenHome@@PAVCpiDevice@Net@2@@std@@@std@@$0A@@std@@@std@@@std@@QAE?AV01@H@Z 10035000 f i CpiDevice.obj
 0001:00034100       ??8?$_Tree_const_iterator@V?$_Tree_val@V?$_Tmap_traits@VBrn@OpenHome@@PAVCpiDevice@Net@2@VBufferCmp@2@V?$allocator@U?$pair@$$CBVBrn@OpenHome@@PAVCpiDevice@Net@2@@std@@@std@@$0A@@std@@@std@@@std@@QBE_NABV01@@Z 10035100 f i CpiDevice.obj
 0001:000341f0       ??9?$_Tree_const_iterator@V?$_Tree_val@V?$_Tmap_traits@VBrn@OpenHome@@PAVCpiDevice@Net@2@VBufferCmp@2@V?$allocator@U?$pair@$$CBVBrn@OpenHome@@PAVCpiDevice@Net@2@@std@@@std@@$0A@@std@@@std@@@std@@QBE_NABV01@@Z 100351f0 f i CpiDevice.obj
 0001:00034240       ??0?$_Tree_iterator@V?$_Tree_val@V?$_Tmap_traits@VBrn@OpenHome@@PAVCpiDevice@Net@2@VBufferCmp@2@V?$allocator@U?$pair@$$CBVBrn@OpenHome@@PAVCpiDevice@Net@2@@std@@@std@@$0A@@std@@@std@@@std@@QAE@ABV01@@Z 10035240 f i CpiDevice.obj
 0001:00034280       ??1?$_List_iterator@V?$_List_val@PAVUpdateBase@CpiDeviceListUpdater@Net@OpenHome@@V?$allocator@PAVUpdateBase@CpiDeviceListUpdater@Net@OpenHome@@@std@@@std@@@std@@QAE@XZ 10035280 f i CpiDevice.obj
 0001:000342b0       ??0?$_List_const_iterator@V?$_List_val@PAVUpdateBase@CpiDeviceListUpdater@Net@OpenHome@@V?$allocator@PAVUpdateBase@CpiDeviceListUpdater@Net@OpenHome@@@std@@@std@@@std@@QAE@ABV01@@Z 100352b0 f i CpiDevice.obj
 0001:000342f0       ??1?$_List_const_iterator@V?$_List_val@PAVUpdateBase@CpiDeviceListUpdater@Net@OpenHome@@V?$allocator@PAVUpdateBase@CpiDeviceListUpdater@Net@OpenHome@@@std@@@std@@@std@@QAE@XZ 100352f0 f i CpiDevice.obj
 0001:00034320       ??0?$_List_unchecked_const_iterator@V?$_List_val@PAVUpdateBase@CpiDeviceListUpdater@Net@OpenHome@@V?$allocator@PAVUpdateBase@CpiDeviceListUpdater@Net@OpenHome@@@std@@@std@@U_Iterator_base12@2@@std@@QAE@ABV01@@Z 10035320 f i CpiDevice.obj
 0001:00034370       ??1?$_List_unchecked_const_iterator@V?$_List_val@PAVUpdateBase@CpiDeviceListUpdater@Net@OpenHome@@V?$allocator@PAVUpdateBase@CpiDeviceListUpdater@Net@OpenHome@@@std@@@std@@U_Iterator_base12@2@@std@@QAE@XZ 10035370 f i CpiDevice.obj
 0001:000343a0       ??0?$_Iterator012@Ubidirectional_iterator_tag@std@@PAVUpdateBase@CpiDeviceListUpdater@Net@OpenHome@@HPBQAV3456@ABQAV3456@U_Iterator_base12@2@@std@@QAE@ABU01@@Z 100353a0 f i CpiDevice.obj
 0001:000343e0       ??1?$_Iterator012@Ubidirectional_iterator_tag@std@@PAVUpdateBase@CpiDeviceListUpdater@Net@OpenHome@@HPBQAV3456@ABQAV3456@U_Iterator_base12@2@@std@@QAE@XZ 100353e0 f i CpiDevice.obj
 0001:00034410       ??0?$_Tree@V?$_Tmap_traits@VBrn@OpenHome@@PAVCpiDevice@Net@2@VBufferCmp@2@V?$allocator@U?$pair@$$CBVBrn@OpenHome@@PAVCpiDevice@Net@2@@std@@@std@@$0A@@std@@@std@@QAE@ABVBufferCmp@OpenHome@@ABV?$allocator@U?$pair@$$CBVBrn@OpenHome@@PAVCpiDevice@Net@2@@std@@@1@@Z 10035410 f i CpiDevice.obj
 0001:00034470       ?lower_bound@?$_Tree@V?$_Tmap_traits@VBrn@OpenHome@@PAVCpiDevice@Net@2@VBufferCmp@2@V?$allocator@U?$pair@$$CBVBrn@OpenHome@@PAVCpiDevice@Net@2@@std@@@std@@$0A@@std@@@std@@QAE?AV?$_Tree_iterator@V?$_Tree_val@V?$_Tmap_traits@VBrn@OpenHome@@PAVCpiDevice@Net@2@VBufferCmp@2@V?$allocator@U?$pair@$$CBVBrn@OpenHome@@PAVCpiDevice@Net@2@@std@@@std@@$0A@@std@@@std@@@2@ABVBrn@OpenHome@@@Z 10035470 f i CpiDevice.obj
 0001:000344e0       ?_Erase@?$_Tree@V?$_Tmap_traits@VBrn@OpenHome@@PAVCpiDevice@Net@2@VBufferCmp@2@V?$allocator@U?$pair@$$CBVBrn@OpenHome@@PAVCpiDevice@Net@2@@std@@@std@@$0A@@std@@@std@@IAEXPAU_Node@?$_Tree_nod@V?$_Tmap_traits@VBrn@OpenHome@@PAVCpiDevice@Net@2@VBufferCmp@2@V?$allocator@U?$pair@$$CBVBrn@OpenHome@@PAVCpiDevice@Net@2@@std@@@std@@$0A@@std@@@2@@Z 100354e0 f i CpiDevice.obj
 0001:000345a0       ?_Lmost@?$_Tree@V?$_Tmap_traits@VBrn@OpenHome@@PAVCpiDevice@Net@2@VBufferCmp@2@V?$allocator@U?$pair@$$CBVBrn@OpenHome@@PAVCpiDevice@Net@2@@std@@@std@@$0A@@std@@@std@@IBEAAPAU_Node@?$_Tree_nod@V?$_Tmap_traits@VBrn@OpenHome@@PAVCpiDevice@Net@2@VBufferCmp@2@V?$allocator@U?$pair@$$CBVBrn@OpenHome@@PAVCpiDevice@Net@2@@std@@@std@@$0A@@std@@@2@XZ 100355a0 f i CpiDevice.obj
 0001:000345e0       ?_Lrotate@?$_Tree@V?$_Tmap_traits@VBrn@OpenHome@@PAVCpiDevice@Net@2@VBufferCmp@2@V?$allocator@U?$pair@$$CBVBrn@OpenHome@@PAVCpiDevice@Net@2@@std@@@std@@$0A@@std@@@std@@IAEXPAU_Node@?$_Tree_nod@V?$_Tmap_traits@VBrn@OpenHome@@PAVCpiDevice@Net@2@VBufferCmp@2@V?$allocator@U?$pair@$$CBVBrn@OpenHome@@PAVCpiDevice@Net@2@@std@@@std@@$0A@@std@@@2@@Z 100355e0 f i CpiDevice.obj
 0001:00034740       ?_Rmost@?$_Tree@V?$_Tmap_traits@VBrn@OpenHome@@PAVCpiDevice@Net@2@VBufferCmp@2@V?$allocator@U?$pair@$$CBVBrn@OpenHome@@PAVCpiDevice@Net@2@@std@@@std@@$0A@@std@@@std@@IBEAAPAU_Node@?$_Tree_nod@V?$_Tmap_traits@VBrn@OpenHome@@PAVCpiDevice@Net@2@VBufferCmp@2@V?$allocator@U?$pair@$$CBVBrn@OpenHome@@PAVCpiDevice@Net@2@@std@@@std@@$0A@@std@@@2@XZ 10035740 f i CpiDevice.obj
 0001:00034780       ?_Root@?$_Tree@V?$_Tmap_traits@VBrn@OpenHome@@PAVCpiDevice@Net@2@VBufferCmp@2@V?$allocator@U?$pair@$$CBVBrn@OpenHome@@PAVCpiDevice@Net@2@@std@@@std@@$0A@@std@@@std@@IBEAAPAU_Node@?$_Tree_nod@V?$_Tmap_traits@VBrn@OpenHome@@PAVCpiDevice@Net@2@VBufferCmp@2@V?$allocator@U?$pair@$$CBVBrn@OpenHome@@PAVCpiDevice@Net@2@@std@@@std@@$0A@@std@@@2@XZ 10035780 f i CpiDevice.obj
 0001:000347c0       ?_Rrotate@?$_Tree@V?$_Tmap_traits@VBrn@OpenHome@@PAVCpiDevice@Net@2@VBufferCmp@2@V?$allocator@U?$pair@$$CBVBrn@OpenHome@@PAVCpiDevice@Net@2@@std@@@std@@$0A@@std@@@std@@IAEXPAU_Node@?$_Tree_nod@V?$_Tmap_traits@VBrn@OpenHome@@PAVCpiDevice@Net@2@VBufferCmp@2@V?$allocator@U?$pair@$$CBVBrn@OpenHome@@PAVCpiDevice@Net@2@@std@@@std@@$0A@@std@@@2@@Z 100357c0 f i CpiDevice.obj
 0001:00034920       ?_Orphan_ptr@?$_Tree@V?$_Tmap_traits@VBrn@OpenHome@@PAVCpiDevice@Net@2@VBufferCmp@2@V?$allocator@U?$pair@$$CBVBrn@OpenHome@@PAVCpiDevice@Net@2@@std@@@std@@$0A@@std@@@std@@IBEXAAV12@PAU_Node@?$_Tree_nod@V?$_Tmap_traits@VBrn@OpenHome@@PAVCpiDevice@Net@2@VBufferCmp@2@V?$allocator@U?$pair@$$CBVBrn@OpenHome@@PAVCpiDevice@Net@2@@std@@@std@@$0A@@std@@@2@@Z 10035920 f i CpiDevice.obj
 0001:00034a70       ?_Tidy@?$_Tree@V?$_Tmap_traits@VBrn@OpenHome@@PAVCpiDevice@Net@2@VBufferCmp@2@V?$allocator@U?$pair@$$CBVBrn@OpenHome@@PAVCpiDevice@Net@2@@std@@@std@@$0A@@std@@@std@@IAEXXZ 10035a70 f i CpiDevice.obj
 0001:00034ba0       ??1?$_Tree_val@V?$_Tmap_traits@VBrn@OpenHome@@PAVCpiDevice@Net@2@VBufferCmp@2@V?$allocator@U?$pair@$$CBVBrn@OpenHome@@PAVCpiDevice@Net@2@@std@@@std@@$0A@@std@@@std@@QAE@XZ 10035ba0 f i CpiDevice.obj
 0001:00034c30       ?_Color@?$_Tree_val@V?$_Tmap_traits@VBrn@OpenHome@@PAVCpiDevice@Net@2@VBufferCmp@2@V?$allocator@U?$pair@$$CBVBrn@OpenHome@@PAVCpiDevice@Net@2@@std@@@std@@$0A@@std@@@std@@SGAADPAU_Node@?$_Tree_nod@V?$_Tmap_traits@VBrn@OpenHome@@PAVCpiDevice@Net@2@VBufferCmp@2@V?$allocator@U?$pair@$$CBVBrn@OpenHome@@PAVCpiDevice@Net@2@@std@@@std@@$0A@@std@@@2@@Z 10035c30 f i CpiDevice.obj
 0001:00034c40       ?_Isnil@?$_Tree_val@V?$_Tmap_traits@VBrn@OpenHome@@PAVCpiDevice@Net@2@VBufferCmp@2@V?$allocator@U?$pair@$$CBVBrn@OpenHome@@PAVCpiDevice@Net@2@@std@@@std@@$0A@@std@@@std@@SGAADPAU_Node@?$_Tree_nod@V?$_Tmap_traits@VBrn@OpenHome@@PAVCpiDevice@Net@2@VBufferCmp@2@V?$allocator@U?$pair@$$CBVBrn@OpenHome@@PAVCpiDevice@Net@2@@std@@@std@@$0A@@std@@@2@@Z 10035c40 f i CpiDevice.obj
 0001:00034c50       ?_Key@?$_Tree_val@V?$_Tmap_traits@VBrn@OpenHome@@PAVCpiDevice@Net@2@VBufferCmp@2@V?$allocator@U?$pair@$$CBVBrn@OpenHome@@PAVCpiDevice@Net@2@@std@@@std@@$0A@@std@@@std@@SGAAVBrn@OpenHome@@PAU_Node@?$_Tree_nod@V?$_Tmap_traits@VBrn@OpenHome@@PAVCpiDevice@Net@2@VBufferCmp@2@V?$allocator@U?$pair@$$CBVBrn@OpenHome@@PAVCpiDevice@Net@2@@std@@@std@@$0A@@std@@@2@@Z 10035c50 f i CpiDevice.obj
 0001:00034c80       ?_Left@?$_Tree_val@V?$_Tmap_traits@VBrn@OpenHome@@PAVCpiDevice@Net@2@VBufferCmp@2@V?$allocator@U?$pair@$$CBVBrn@OpenHome@@PAVCpiDevice@Net@2@@std@@@std@@$0A@@std@@@std@@SGAAPAU_Node@?$_Tree_nod@V?$_Tmap_traits@VBrn@OpenHome@@PAVCpiDevice@Net@2@VBufferCmp@2@V?$allocator@U?$pair@$$CBVBrn@OpenHome@@PAVCpiDevice@Net@2@@std@@@std@@$0A@@std@@@2@PAU342@@Z 10035c80 f i CpiDevice.obj
 0001:00034c90       ?_Parent@?$_Tree_val@V?$_Tmap_traits@VBrn@OpenHome@@PAVCpiDevice@Net@2@VBufferCmp@2@V?$allocator@U?$pair@$$CBVBrn@OpenHome@@PAVCpiDevice@Net@2@@std@@@std@@$0A@@std@@@std@@SGAAPAU_Node@?$_Tree_nod@V?$_Tmap_traits@VBrn@OpenHome@@PAVCpiDevice@Net@2@VBufferCmp@2@V?$allocator@U?$pair@$$CBVBrn@OpenHome@@PAVCpiDevice@Net@2@@std@@@std@@$0A@@std@@@2@PAU342@@Z 10035c90 f i CpiDevice.obj
 0001:00034ca0       ?_Right@?$_Tree_val@V?$_Tmap_traits@VBrn@OpenHome@@PAVCpiDevice@Net@2@VBufferCmp@2@V?$allocator@U?$pair@$$CBVBrn@OpenHome@@PAVCpiDevice@Net@2@@std@@@std@@$0A@@std@@@std@@SGAAPAU_Node@?$_Tree_nod@V?$_Tmap_traits@VBrn@OpenHome@@PAVCpiDevice@Net@2@VBufferCmp@2@V?$allocator@U?$pair@$$CBVBrn@OpenHome@@PAVCpiDevice@Net@2@@std@@@std@@$0A@@std@@@2@PAU342@@Z 10035ca0 f i CpiDevice.obj
 0001:00034cb0       ?_Myval@?$_Tree_val@V?$_Tmap_traits@VBrn@OpenHome@@PAVCpiDevice@Net@2@VBufferCmp@2@V?$allocator@U?$pair@$$CBVBrn@OpenHome@@PAVCpiDevice@Net@2@@std@@@std@@$0A@@std@@@std@@SGAAU?$pair@$$CBVBrn@OpenHome@@PAVCpiDevice@Net@2@@2@PAU_Node@?$_Tree_nod@V?$_Tmap_traits@VBrn@OpenHome@@PAVCpiDevice@Net@2@VBufferCmp@2@V?$allocator@U?$pair@$$CBVBrn@OpenHome@@PAVCpiDevice@Net@2@@std@@@std@@$0A@@std@@@2@@Z 10035cb0 f i CpiDevice.obj
 0001:00034cc0       ?_Max@?$_Tree_val@V?$_Tmap_traits@VBrn@OpenHome@@PAVCpiDevice@Net@2@VBufferCmp@2@V?$allocator@U?$pair@$$CBVBrn@OpenHome@@PAVCpiDevice@Net@2@@std@@@std@@$0A@@std@@@std@@SGPAU_Node@?$_Tree_nod@V?$_Tmap_traits@VBrn@OpenHome@@PAVCpiDevice@Net@2@VBufferCmp@2@V?$allocator@U?$pair@$$CBVBrn@OpenHome@@PAVCpiDevice@Net@2@@std@@@std@@$0A@@std@@@2@PAU342@@Z 10035cc0 f i CpiDevice.obj
 0001:00034d10       ?_Min@?$_Tree_val@V?$_Tmap_traits@VBrn@OpenHome@@PAVCpiDevice@Net@2@VBufferCmp@2@V?$allocator@U?$pair@$$CBVBrn@OpenHome@@PAVCpiDevice@Net@2@@std@@@std@@$0A@@std@@@std@@SGPAU_Node@?$_Tree_nod@V?$_Tmap_traits@VBrn@OpenHome@@PAVCpiDevice@Net@2@VBufferCmp@2@V?$allocator@U?$pair@$$CBVBrn@OpenHome@@PAVCpiDevice@Net@2@@std@@@std@@$0A@@std@@@2@PAU342@@Z 10035d10 f i CpiDevice.obj
 0001:00034d60       ??0?$allocator@U?$pair@$$CBVBrn@OpenHome@@PAVCpiDevice@Net@2@@std@@@std@@QAE@XZ 10035d60 f i CpiDevice.obj
 0001:00034d80       ?deallocate@?$allocator@U_Node@?$_Tree_nod@V?$_Tmap_traits@VBrn@OpenHome@@PAVCpiDevice@Net@2@VBufferCmp@2@V?$allocator@U?$pair@$$CBVBrn@OpenHome@@PAVCpiDevice@Net@2@@std@@@std@@$0A@@std@@@std@@@std@@QAEXPAU_Node@?$_Tree_nod@V?$_Tmap_traits@VBrn@OpenHome@@PAVCpiDevice@Net@2@VBufferCmp@2@V?$allocator@U?$pair@$$CBVBrn@OpenHome@@PAVCpiDevice@Net@2@@std@@@std@@$0A@@std@@@2@I@Z 10035d80 f i CpiDevice.obj
 0001:00034dc0       ?begin@?$list@PAVUpdateBase@CpiDeviceListUpdater@Net@OpenHome@@V?$allocator@PAVUpdateBase@CpiDeviceListUpdater@Net@OpenHome@@@std@@@std@@QAE?AV?$_List_iterator@V?$_List_val@PAVUpdateBase@CpiDeviceListUpdater@Net@OpenHome@@V?$allocator@PAVUpdateBase@CpiDeviceListUpdater@Net@OpenHome@@@std@@@std@@@2@XZ 10035dc0 f i CpiDevice.obj
 0001:00034e30       ?end@?$list@PAVUpdateBase@CpiDeviceListUpdater@Net@OpenHome@@V?$allocator@PAVUpdateBase@CpiDeviceListUpdater@Net@OpenHome@@@std@@@std@@QAE?AV?$_List_iterator@V?$_List_val@PAVUpdateBase@CpiDeviceListUpdater@Net@OpenHome@@V?$allocator@PAVUpdateBase@CpiDeviceListUpdater@Net@OpenHome@@@std@@@std@@@2@XZ 10035e30 f i CpiDevice.obj
 0001:00034e90       ?_Insert@?$list@PAVUpdateBase@CpiDeviceListUpdater@Net@OpenHome@@V?$allocator@PAVUpdateBase@CpiDeviceListUpdater@Net@OpenHome@@@std@@@std@@QAEXV?$_List_const_iterator@V?$_List_val@PAVUpdateBase@CpiDeviceListUpdater@Net@OpenHome@@V?$allocator@PAVUpdateBase@CpiDeviceListUpdater@Net@OpenHome@@@std@@@std@@@2@ABQAVUpdateBase@CpiDeviceListUpdater@Net@OpenHome@@@Z 10035e90 f i CpiDevice.obj
 0001:00034fc0       ?erase@?$list@PAVUpdateBase@CpiDeviceListUpdater@Net@OpenHome@@V?$allocator@PAVUpdateBase@CpiDeviceListUpdater@Net@OpenHome@@@std@@@std@@QAE?AV?$_List_iterator@V?$_List_val@PAVUpdateBase@CpiDeviceListUpdater@Net@OpenHome@@V?$allocator@PAVUpdateBase@CpiDeviceListUpdater@Net@OpenHome@@@std@@@std@@@2@V?$_List_const_iterator@V?$_List_val@PAVUpdateBase@CpiDeviceListUpdater@Net@OpenHome@@V?$allocator@PAVUpdateBase@CpiDeviceListUpdater@Net@OpenHome@@@std@@@std@@@2@@Z 10035fc0 f i CpiDevice.obj
 0001:000351b0       ?_Tidy@?$list@PAVUpdateBase@CpiDeviceListUpdater@Net@OpenHome@@V?$allocator@PAVUpdateBase@CpiDeviceListUpdater@Net@OpenHome@@@std@@@std@@QAEXXZ 100361b0 f i CpiDevice.obj
 0001:000351e0       ??0?$_List_val@PAVUpdateBase@CpiDeviceListUpdater@Net@OpenHome@@V?$allocator@PAVUpdateBase@CpiDeviceListUpdater@Net@OpenHome@@@std@@@std@@QAE@V?$allocator@PAVUpdateBase@CpiDeviceListUpdater@Net@OpenHome@@@1@@Z 100361e0 f i CpiDevice.obj
 0001:000352d0       ??1?$_List_val@PAVUpdateBase@CpiDeviceListUpdater@Net@OpenHome@@V?$allocator@PAVUpdateBase@CpiDeviceListUpdater@Net@OpenHome@@@std@@@std@@QAE@XZ 100362d0 f i CpiDevice.obj
 0001:00035360       ??0?$allocator@PAVUpdateBase@CpiDeviceListUpdater@Net@OpenHome@@@std@@QAE@XZ 10036360 f i CpiDevice.obj
 0001:00035380       ??0?$_Tree_iterator@V?$_Tree_val@V?$_Tmap_traits@VBrn@OpenHome@@PAVCpiDevice@Net@2@VBufferCmp@2@V?$allocator@U?$pair@$$CBVBrn@OpenHome@@PAVCpiDevice@Net@2@@std@@@std@@$0A@@std@@@std@@@std@@QAE@PAU_Node@?$_Tree_nod@V?$_Tmap_traits@VBrn@OpenHome@@PAVCpiDevice@Net@2@VBufferCmp@2@V?$allocator@U?$pair@$$CBVBrn@OpenHome@@PAVCpiDevice@Net@2@@std@@@std@@$0A@@std@@@1@PBV?$_Tree_val@V?$_Tmap_traits@VBrn@OpenHome@@PAVCpiDevice@Net@2@VBufferCmp@2@V?$allocator@U?$pair@$$CBVBrn@OpenHome@@PAVCpiDevice@Net@2@@std@@@std@@$0A@@std@@@1@@Z 10036380 f i CpiDevice.obj
 0001:000353c0       ??D?$_Tree_iterator@V?$_Tree_val@V?$_Tmap_traits@VBrn@OpenHome@@PAVCpiDevice@Net@2@VBufferCmp@2@V?$allocator@U?$pair@$$CBVBrn@OpenHome@@PAVCpiDevice@Net@2@@std@@@std@@$0A@@std@@@std@@@std@@QBEAAU?$pair@$$CBVBrn@OpenHome@@PAVCpiDevice@Net@2@@1@XZ 100363c0 f i CpiDevice.obj
 0001:000353f0       ??E?$_Tree_iterator@V?$_Tree_val@V?$_Tmap_traits@VBrn@OpenHome@@PAVCpiDevice@Net@2@VBufferCmp@2@V?$allocator@U?$pair@$$CBVBrn@OpenHome@@PAVCpiDevice@Net@2@@std@@@std@@$0A@@std@@@std@@@std@@QAEAAV01@XZ 100363f0 f i CpiDevice.obj
 0001:00035420       ??E?$_Tree_const_iterator@V?$_Tree_val@V?$_Tmap_traits@VBrn@OpenHome@@PAVCpiDevice@Net@2@VBufferCmp@2@V?$allocator@U?$pair@$$CBVBrn@OpenHome@@PAVCpiDevice@Net@2@@std@@@std@@$0A@@std@@@std@@@std@@QAEAAV01@XZ 10036420 f i CpiDevice.obj
 0001:00035500       ?_Mynode@?$_Tree_unchecked_const_iterator@V?$_Tree_val@V?$_Tmap_traits@VBrn@OpenHome@@PAVCpiDevice@Net@2@VBufferCmp@2@V?$allocator@U?$pair@$$CBVBrn@OpenHome@@PAVCpiDevice@Net@2@@std@@@std@@$0A@@std@@@std@@U_Iterator_base12@2@@std@@QBEPAU_Node@?$_Tree_nod@V?$_Tmap_traits@VBrn@OpenHome@@PAVCpiDevice@Net@2@VBufferCmp@2@V?$allocator@U?$pair@$$CBVBrn@OpenHome@@PAVCpiDevice@Net@2@@std@@@std@@$0A@@std@@@2@XZ 10036500 f i CpiDevice.obj
 0001:00035520       ??D?$_List_iterator@V?$_List_val@PAVUpdateBase@CpiDeviceListUpdater@Net@OpenHome@@V?$allocator@PAVUpdateBase@CpiDeviceListUpdater@Net@OpenHome@@@std@@@std@@@std@@QBEAAPAVUpdateBase@CpiDeviceListUpdater@Net@OpenHome@@XZ 10036520 f i CpiDevice.obj
 0001:00035550       ?erase@?$_Tree@V?$_Tmap_traits@VBrn@OpenHome@@PAVCpiDevice@Net@2@VBufferCmp@2@V?$allocator@U?$pair@$$CBVBrn@OpenHome@@PAVCpiDevice@Net@2@@std@@@std@@$0A@@std@@@std@@QAE?AV?$_Tree_iterator@V?$_Tree_val@V?$_Tmap_traits@VBrn@OpenHome@@PAVCpiDevice@Net@2@VBufferCmp@2@V?$allocator@U?$pair@$$CBVBrn@OpenHome@@PAVCpiDevice@Net@2@@std@@@std@@$0A@@std@@@std@@@2@V?$_Tree_const_iterator@V?$_Tree_val@V?$_Tmap_traits@VBrn@OpenHome@@PAVCpiDevice@Net@2@VBufferCmp@2@V?$allocator@U?$pair@$$CBVBrn@OpenHome@@PAVCpiDevice@Net@2@@std@@@std@@$0A@@std@@@std@@@2@0@Z 10036550 f i CpiDevice.obj
 0001:000357d0       ?_Lbound@?$_Tree@V?$_Tmap_traits@VBrn@OpenHome@@PAVCpiDevice@Net@2@VBufferCmp@2@V?$allocator@U?$pair@$$CBVBrn@OpenHome@@PAVCpiDevice@Net@2@@std@@@std@@$0A@@std@@@std@@IAEPAU_Node@?$_Tree_nod@V?$_Tmap_traits@VBrn@OpenHome@@PAVCpiDevice@Net@2@VBufferCmp@2@V?$allocator@U?$pair@$$CBVBrn@OpenHome@@PAVCpiDevice@Net@2@@std@@@std@@$0A@@std@@@2@ABVBrn@OpenHome@@@Z 100367d0 f i CpiDevice.obj
 0001:000358b0       ??0?$_Tree_val@V?$_Tmap_traits@VBrn@OpenHome@@PAVCpiDevice@Net@2@VBufferCmp@2@V?$allocator@U?$pair@$$CBVBrn@OpenHome@@PAVCpiDevice@Net@2@@std@@@std@@$0A@@std@@@std@@QAE@ABVBufferCmp@OpenHome@@V?$allocator@U?$pair@$$CBVBrn@OpenHome@@PAVCpiDevice@Net@2@@std@@@1@@Z 100368b0 f i CpiDevice.obj
 0001:000359f0       ??1?$_Tree_nod@V?$_Tmap_traits@VBrn@OpenHome@@PAVCpiDevice@Net@2@VBufferCmp@2@V?$allocator@U?$pair@$$CBVBrn@OpenHome@@PAVCpiDevice@Net@2@@std@@@std@@$0A@@std@@@std@@QAE@XZ 100369f0 f i CpiDevice.obj
 0001:00035b00       ??0?$allocator@U?$pair@$$CBVBrn@OpenHome@@PAVCpiDevice@Net@2@@std@@@std@@QAE@ABV01@@Z 10036b00 f i CpiDevice.obj
 0001:00035b20       ?_Make_iter@?$list@PAVUpdateBase@CpiDeviceListUpdater@Net@OpenHome@@V?$allocator@PAVUpdateBase@CpiDeviceListUpdater@Net@OpenHome@@@std@@@std@@QBE?AV?$_List_iterator@V?$_List_val@PAVUpdateBase@CpiDeviceListUpdater@Net@OpenHome@@V?$allocator@PAVUpdateBase@CpiDeviceListUpdater@Net@OpenHome@@@std@@@std@@@2@V?$_List_const_iterator@V?$_List_val@PAVUpdateBase@CpiDeviceListUpdater@Net@OpenHome@@V?$allocator@PAVUpdateBase@CpiDeviceListUpdater@Net@OpenHome@@@std@@@std@@@2@@Z 10036b20 f i CpiDevice.obj
 0001:00035bd0       ?clear@?$list@PAVUpdateBase@CpiDeviceListUpdater@Net@OpenHome@@V?$allocator@PAVUpdateBase@CpiDeviceListUpdater@Net@OpenHome@@@std@@@std@@QAEXXZ 10036bd0 f i CpiDevice.obj
 0001:00035cd0       ?_Incsize@?$list@PAVUpdateBase@CpiDeviceListUpdater@Net@OpenHome@@V?$allocator@PAVUpdateBase@CpiDeviceListUpdater@Net@OpenHome@@@std@@@std@@QAEXI@Z 10036cd0 f i CpiDevice.obj
 0001:00035d30       ?_Orphan_ptr@?$list@PAVUpdateBase@CpiDeviceListUpdater@Net@OpenHome@@V?$allocator@PAVUpdateBase@CpiDeviceListUpdater@Net@OpenHome@@@std@@@std@@QBEXAAV12@PAU_Node@?$_List_nod@PAVUpdateBase@CpiDeviceListUpdater@Net@OpenHome@@V?$allocator@PAVUpdateBase@CpiDeviceListUpdater@Net@OpenHome@@@std@@@2@@Z 10036d30 f i CpiDevice.obj
 0001:00035e80       ?_Buynode@?$_List_val@PAVUpdateBase@CpiDeviceListUpdater@Net@OpenHome@@V?$allocator@PAVUpdateBase@CpiDeviceListUpdater@Net@OpenHome@@@std@@@std@@QAEPAU_Node@?$_List_nod@PAVUpdateBase@CpiDeviceListUpdater@Net@OpenHome@@V?$allocator@PAVUpdateBase@CpiDeviceListUpdater@Net@OpenHome@@@std@@@2@PAU342@0ABQAVUpdateBase@CpiDeviceListUpdater@Net@OpenHome@@@Z 10036e80 f i CpiDevice.obj
 0001:00035fd0       ?_Nextnode@?$_List_val@PAVUpdateBase@CpiDeviceListUpdater@Net@OpenHome@@V?$allocator@PAVUpdateBase@CpiDeviceListUpdater@Net@OpenHome@@@std@@@std@@SGAAPAU_Node@?$_List_nod@PAVUpdateBase@CpiDeviceListUpdater@Net@OpenHome@@V?$allocator@PAVUpdateBase@CpiDeviceListUpdater@Net@OpenHome@@@std@@@2@PAU342@@Z 10036fd0 f i CpiDevice.obj
 0001:00035fe0       ?_Prevnode@?$_List_val@PAVUpdateBase@CpiDeviceListUpdater@Net@OpenHome@@V?$allocator@PAVUpdateBase@CpiDeviceListUpdater@Net@OpenHome@@@std@@@std@@SGAAPAU_Node@?$_List_nod@PAVUpdateBase@CpiDeviceListUpdater@Net@OpenHome@@V?$allocator@PAVUpdateBase@CpiDeviceListUpdater@Net@OpenHome@@@std@@@2@PAU342@@Z 10036fe0 f i CpiDevice.obj
 0001:00035ff0       ??0?$_List_nod@PAVUpdateBase@CpiDeviceListUpdater@Net@OpenHome@@V?$allocator@PAVUpdateBase@CpiDeviceListUpdater@Net@OpenHome@@@std@@@std@@QAE@V?$allocator@PAVUpdateBase@CpiDeviceListUpdater@Net@OpenHome@@@1@@Z 10036ff0 f i CpiDevice.obj
 0001:00036140       ??1?$_List_nod@PAVUpdateBase@CpiDeviceListUpdater@Net@OpenHome@@V?$allocator@PAVUpdateBase@CpiDeviceListUpdater@Net@OpenHome@@@std@@@std@@QAE@XZ 10037140 f i CpiDevice.obj
 0001:00036250       ??0?$allocator@PAVUpdateBase@CpiDeviceListUpdater@Net@OpenHome@@@std@@QAE@ABV01@@Z 10037250 f i CpiDevice.obj
 0001:00036270       ?deallocate@?$allocator@U_Node@?$_List_nod@PAVUpdateBase@CpiDeviceListUpdater@Net@OpenHome@@V?$allocator@PAVUpdateBase@CpiDeviceListUpdater@Net@OpenHome@@@std@@@std@@@std@@QAEXPAU_Node@?$_List_nod@PAVUpdateBase@CpiDeviceListUpdater@Net@OpenHome@@V?$allocator@PAVUpdateBase@CpiDeviceListUpdater@Net@OpenHome@@@std@@@2@I@Z 10037270 f i CpiDevice.obj
 0001:000362b0       ?allocate@?$allocator@U_Node@?$_List_nod@PAVUpdateBase@CpiDeviceListUpdater@Net@OpenHome@@V?$allocator@PAVUpdateBase@CpiDeviceListUpdater@Net@OpenHome@@@std@@@std@@@std@@QAEPAU_Node@?$_List_nod@PAVUpdateBase@CpiDeviceListUpdater@Net@OpenHome@@V?$allocator@PAVUpdateBase@CpiDeviceListUpdater@Net@OpenHome@@@std@@@2@I@Z 100372b0 f i CpiDevice.obj
 0001:000362f0       ??0?$_Tree_const_iterator@V?$_Tree_val@V?$_Tmap_traits@VBrn@OpenHome@@PAVCpiDevice@Net@2@VBufferCmp@2@V?$allocator@U?$pair@$$CBVBrn@OpenHome@@PAVCpiDevice@Net@2@@std@@@std@@$0A@@std@@@std@@@std@@QAE@PAU_Node@?$_Tree_nod@V?$_Tmap_traits@VBrn@OpenHome@@PAVCpiDevice@Net@2@VBufferCmp@2@V?$allocator@U?$pair@$$CBVBrn@OpenHome@@PAVCpiDevice@Net@2@@std@@@std@@$0A@@std@@@1@PBV?$_Tree_val@V?$_Tmap_traits@VBrn@OpenHome@@PAVCpiDevice@Net@2@VBufferCmp@2@V?$allocator@U?$pair@$$CBVBrn@OpenHome@@PAVCpiDevice@Net@2@@std@@@std@@$0A@@std@@@1@@Z 100372f0 f i CpiDevice.obj
 0001:00036330       ??D?$_Tree_const_iterator@V?$_Tree_val@V?$_Tmap_traits@VBrn@OpenHome@@PAVCpiDevice@Net@2@VBufferCmp@2@V?$allocator@U?$pair@$$CBVBrn@OpenHome@@PAVCpiDevice@Net@2@@std@@@std@@$0A@@std@@@std@@@std@@QBEABU?$pair@$$CBVBrn@OpenHome@@PAVCpiDevice@Net@2@@1@XZ 10037330 f i CpiDevice.obj
 0001:00036410       ??E?$_Tree_unchecked_const_iterator@V?$_Tree_val@V?$_Tmap_traits@VBrn@OpenHome@@PAVCpiDevice@Net@2@VBufferCmp@2@V?$allocator@U?$pair@$$CBVBrn@OpenHome@@PAVCpiDevice@Net@2@@std@@@std@@$0A@@std@@@std@@U_Iterator_base12@2@@std@@QAEAAV01@XZ 10037410 f i CpiDevice.obj
 0001:00036500       ??0?$_List_iterator@V?$_List_val@PAVUpdateBase@CpiDeviceListUpdater@Net@OpenHome@@V?$allocator@PAVUpdateBase@CpiDeviceListUpdater@Net@OpenHome@@@std@@@std@@@std@@QAE@PAU_Node@?$_List_nod@PAVUpdateBase@CpiDeviceListUpdater@Net@OpenHome@@V?$allocator@PAVUpdateBase@CpiDeviceListUpdater@Net@OpenHome@@@std@@@1@PBV?$_List_val@PAVUpdateBase@CpiDeviceListUpdater@Net@OpenHome@@V?$allocator@PAVUpdateBase@CpiDeviceListUpdater@Net@OpenHome@@@std@@@1@@Z 10037500 f i CpiDevice.obj
 0001:00036540       ??D?$_List_const_iterator@V?$_List_val@PAVUpdateBase@CpiDeviceListUpdater@Net@OpenHome@@V?$allocator@PAVUpdateBase@CpiDeviceListUpdater@Net@OpenHome@@@std@@@std@@@std@@QBEABQAVUpdateBase@CpiDeviceListUpdater@Net@OpenHome@@XZ 10037540 f i CpiDevice.obj
 0001:00036620       ??E?$_List_const_iterator@V?$_List_val@PAVUpdateBase@CpiDeviceListUpdater@Net@OpenHome@@V?$allocator@PAVUpdateBase@CpiDeviceListUpdater@Net@OpenHome@@@std@@@std@@@std@@QAE?AV01@H@Z 10037620 f i CpiDevice.obj
 0001:00036720       ?_Mynode@?$_List_unchecked_const_iterator@V?$_List_val@PAVUpdateBase@CpiDeviceListUpdater@Net@OpenHome@@V?$allocator@PAVUpdateBase@CpiDeviceListUpdater@Net@OpenHome@@@std@@@std@@U_Iterator_base12@2@@std@@QBEPAU_Node@?$_List_nod@PAVUpdateBase@CpiDeviceListUpdater@Net@OpenHome@@V?$allocator@PAVUpdateBase@CpiDeviceListUpdater@Net@OpenHome@@@std@@@2@XZ 10037720 f i CpiDevice.obj
 0001:00036740       ??1?$_Tmap_traits@VBrn@OpenHome@@PAVCpiDevice@Net@2@VBufferCmp@2@V?$allocator@U?$pair@$$CBVBrn@OpenHome@@PAVCpiDevice@Net@2@@std@@@std@@$0A@@std@@QAE@XZ 10037740 f i CpiDevice.obj
 0001:00036770       ??0?$_Tree_nod@V?$_Tmap_traits@VBrn@OpenHome@@PAVCpiDevice@Net@2@VBufferCmp@2@V?$allocator@U?$pair@$$CBVBrn@OpenHome@@PAVCpiDevice@Net@2@@std@@@std@@$0A@@std@@@std@@QAE@ABVBufferCmp@OpenHome@@V?$allocator@U?$pair@$$CBVBrn@OpenHome@@PAVCpiDevice@Net@2@@std@@@1@@Z 10037770 f i CpiDevice.obj
 0001:000368c0       ?allocate@?$allocator@U_Node@?$_Tree_nod@V?$_Tmap_traits@VBrn@OpenHome@@PAVCpiDevice@Net@2@VBufferCmp@2@V?$allocator@U?$pair@$$CBVBrn@OpenHome@@PAVCpiDevice@Net@2@@std@@@std@@$0A@@std@@@std@@@std@@QAEPAU_Node@?$_Tree_nod@V?$_Tmap_traits@VBrn@OpenHome@@PAVCpiDevice@Net@2@VBufferCmp@2@V?$allocator@U?$pair@$$CBVBrn@OpenHome@@PAVCpiDevice@Net@2@@std@@@std@@$0A@@std@@@2@I@Z 100378c0 f i CpiDevice.obj
 0001:00036900       ?max_size@?$list@PAVUpdateBase@CpiDeviceListUpdater@Net@OpenHome@@V?$allocator@PAVUpdateBase@CpiDeviceListUpdater@Net@OpenHome@@@std@@@std@@QBEIXZ 10037900 f i CpiDevice.obj
 0001:00036930       ?_Myval@?$_List_val@PAVUpdateBase@CpiDeviceListUpdater@Net@OpenHome@@V?$allocator@PAVUpdateBase@CpiDeviceListUpdater@Net@OpenHome@@@std@@@std@@SGAAPAVUpdateBase@CpiDeviceListUpdater@Net@OpenHome@@PAU_Node@?$_List_nod@PAVUpdateBase@CpiDeviceListUpdater@Net@OpenHome@@V?$allocator@PAVUpdateBase@CpiDeviceListUpdater@Net@OpenHome@@@std@@@2@@Z 10037930 f i CpiDevice.obj
 0001:00036940       ??E?$_Tree_const_iterator@V?$_Tree_val@V?$_Tmap_traits@VBrn@OpenHome@@PAVCpiDevice@Net@2@VBufferCmp@2@V?$allocator@U?$pair@$$CBVBrn@OpenHome@@PAVCpiDevice@Net@2@@std@@@std@@$0A@@std@@@std@@@std@@QAE?AV01@H@Z 10037940 f i CpiDevice.obj
 0001:00036a40       ??0?$_Tree_unchecked_const_iterator@V?$_Tree_val@V?$_Tmap_traits@VBrn@OpenHome@@PAVCpiDevice@Net@2@VBufferCmp@2@V?$allocator@U?$pair@$$CBVBrn@OpenHome@@PAVCpiDevice@Net@2@@std@@@std@@$0A@@std@@@std@@U_Iterator_base12@2@@std@@QAE@PAU_Node@?$_Tree_nod@V?$_Tmap_traits@VBrn@OpenHome@@PAVCpiDevice@Net@2@VBufferCmp@2@V?$allocator@U?$pair@$$CBVBrn@OpenHome@@PAVCpiDevice@Net@2@@std@@@std@@$0A@@std@@@1@PBV?$_Tree_val@V?$_Tmap_traits@VBrn@OpenHome@@PAVCpiDevice@Net@2@VBufferCmp@2@V?$allocator@U?$pair@$$CBVBrn@OpenHome@@PAVCpiDevice@Net@2@@std@@@std@@$0A@@std@@@1@@Z 10037a40 f i CpiDevice.obj
 0001:00036ae0       ??0?$_List_const_iterator@V?$_List_val@PAVUpdateBase@CpiDeviceListUpdater@Net@OpenHome@@V?$allocator@PAVUpdateBase@CpiDeviceListUpdater@Net@OpenHome@@@std@@@std@@@std@@QAE@PAU_Node@?$_List_nod@PAVUpdateBase@CpiDeviceListUpdater@Net@OpenHome@@V?$allocator@PAVUpdateBase@CpiDeviceListUpdater@Net@OpenHome@@@std@@@1@PBV?$_List_val@PAVUpdateBase@CpiDeviceListUpdater@Net@OpenHome@@V?$allocator@PAVUpdateBase@CpiDeviceListUpdater@Net@OpenHome@@@std@@@1@@Z 10037ae0 f i CpiDevice.obj
 0001:00036b20       ??E?$_List_const_iterator@V?$_List_val@PAVUpdateBase@CpiDeviceListUpdater@Net@OpenHome@@V?$allocator@PAVUpdateBase@CpiDeviceListUpdater@Net@OpenHome@@@std@@@std@@@std@@QAEAAV01@XZ 10037b20 f i CpiDevice.obj
 0001:00036c10       ??0?$_Iterator012@Ubidirectional_iterator_tag@std@@U?$pair@$$CBVBrn@OpenHome@@PAVCpiDevice@Net@2@@2@HPBU32@ABU32@U_Iterator_base12@2@@std@@QAE@XZ 10037c10 f i CpiDevice.obj
 0001:00036c40       ??0?$_Tmap_traits@VBrn@OpenHome@@PAVCpiDevice@Net@2@VBufferCmp@2@V?$allocator@U?$pair@$$CBVBrn@OpenHome@@PAVCpiDevice@Net@2@@std@@@std@@$0A@@std@@QAE@VBufferCmp@OpenHome@@@Z 10037c40 f i CpiDevice.obj
 0001:00036c80       ?max_size@?$allocator@PAVUpdateBase@CpiDeviceListUpdater@Net@OpenHome@@@std@@QBEIXZ 10037c80 f i CpiDevice.obj
 0001:00036ce0       ??0?$_List_unchecked_const_iterator@V?$_List_val@PAVUpdateBase@CpiDeviceListUpdater@Net@OpenHome@@V?$allocator@PAVUpdateBase@CpiDeviceListUpdater@Net@OpenHome@@@std@@@std@@U_Iterator_base12@2@@std@@QAE@PAU_Node@?$_List_nod@PAVUpdateBase@CpiDeviceListUpdater@Net@OpenHome@@V?$allocator@PAVUpdateBase@CpiDeviceListUpdater@Net@OpenHome@@@std@@@1@PBV?$_List_val@PAVUpdateBase@CpiDeviceListUpdater@Net@OpenHome@@V?$allocator@PAVUpdateBase@CpiDeviceListUpdater@Net@OpenHome@@@std@@@1@@Z 10037ce0 f i CpiDevice.obj
 0001:00036d80       ??0?$_Iterator012@Ubidirectional_iterator_tag@std@@PAVUpdateBase@CpiDeviceListUpdater@Net@OpenHome@@HPBQAV3456@ABQAV3456@U_Iterator_base12@2@@std@@QAE@XZ 10037d80 f i CpiDevice.obj
 0001:00036db0       ??$?0AAVBrn@OpenHome@@AAPAVCpiDevice@Net@1@@?$pair@VBrn@OpenHome@@PAVCpiDevice@Net@2@@std@@QAE@AAVBrn@OpenHome@@AAPAVCpiDevice@Net@3@@Z 10037db0 f i CpiDevice.obj
 0001:00036e00       ??$insert@U?$pair@VBrn@OpenHome@@PAVCpiDevice@Net@2@@std@@@?$_Tree@V?$_Tmap_traits@VBrn@OpenHome@@PAVCpiDevice@Net@2@VBufferCmp@2@V?$allocator@U?$pair@$$CBVBrn@OpenHome@@PAVCpiDevice@Net@2@@std@@@std@@$0A@@std@@@std@@QAE?AU?$pair@V?$_Tree_iterator@V?$_Tree_val@V?$_Tmap_traits@VBrn@OpenHome@@PAVCpiDevice@Net@2@VBufferCmp@2@V?$allocator@U?$pair@$$CBVBrn@OpenHome@@PAVCpiDevice@Net@2@@std@@@std@@$0A@@std@@@std@@@std@@_N@1@$$QAU?$pair@VBrn@OpenHome@@PAVCpiDevice@Net@2@@1@@Z 10037e00 f i CpiDevice.obj
 0001:00036e80       ??$addressof@U?$pair@$$CBVBrn@OpenHome@@PAVCpiDevice@Net@2@@std@@@std@@YGPAU?$pair@$$CBVBrn@OpenHome@@PAVCpiDevice@Net@2@@0@AAU10@@Z 10037e80 f i CpiDevice.obj
 0001:00036e90       ??$_Dest_val@V?$allocator@U?$pair@$$CBVBrn@OpenHome@@PAVCpiDevice@Net@2@@std@@@std@@U?$pair@$$CBVBrn@OpenHome@@PAVCpiDevice@Net@2@@2@@std@@YGXAAV?$allocator@U?$pair@$$CBVBrn@OpenHome@@PAVCpiDevice@Net@2@@std@@@0@PAU?$pair@$$CBVBrn@OpenHome@@PAVCpiDevice@Net@2@@0@@Z 10037e90 f i CpiDevice.obj
 0001:00036eb0       ??$_Kfn@$$CBVBrn@OpenHome@@PAVCpiDevice@Net@2@@?$_Tmap_traits@VBrn@OpenHome@@PAVCpiDevice@Net@2@VBufferCmp@2@V?$allocator@U?$pair@$$CBVBrn@OpenHome@@PAVCpiDevice@Net@2@@std@@@std@@$0A@@std@@SGABVBrn@OpenHome@@ABU?$pair@$$CBVBrn@OpenHome@@PAVCpiDevice@Net@2@@1@@Z 10037eb0 f i CpiDevice.obj
 0001:00036ec0       ??$_Dest_val@V?$allocator@U_Node@?$_List_nod@PAVUpdateBase@CpiDeviceListUpdater@Net@OpenHome@@V?$allocator@PAVUpdateBase@CpiDeviceListUpdater@Net@OpenHome@@@std@@@std@@@std@@U_Node@?$_List_nod@PAVUpdateBase@CpiDeviceListUpdater@Net@OpenHome@@V?$allocator@PAVUpdateBase@CpiDeviceListUpdater@Net@OpenHome@@@std@@@2@@std@@YGXAAV?$allocator@U_Node@?$_List_nod@PAVUpdateBase@CpiDeviceListUpdater@Net@OpenHome@@V?$allocator@PAVUpdateBase@CpiDeviceListUpdater@Net@OpenHome@@@std@@@std@@@0@PAU_Node@?$_List_nod@PAVUpdateBase@CpiDeviceListUpdater@Net@OpenHome@@V?$allocator@PAVUpdateBase@CpiDeviceListUpdater@Net@OpenHome@@@std@@@0@@Z 10037ec0 f i CpiDevice.obj
 0001:00036ee0       ??$?0U_Node@?$_Tree_nod@V?$_Tmap_traits@VBrn@OpenHome@@PAVCpiDevice@Net@2@VBufferCmp@2@V?$allocator@U?$pair@$$CBVBrn@OpenHome@@PAVCpiDevice@Net@2@@std@@@std@@$0A@@std@@@std@@@?$allocator@U_Container_proxy@std@@@std@@QAE@ABV?$allocator@U_Node@?$_Tree_nod@V?$_Tmap_traits@VBrn@OpenHome@@PAVCpiDevice@Net@2@VBufferCmp@2@V?$allocator@U?$pair@$$CBVBrn@OpenHome@@PAVCpiDevice@Net@2@@std@@@std@@$0A@@std@@@std@@@1@@Z 10037ee0 f i CpiDevice.obj
 0001:00036f00       ??$addressof@PAVUpdateBase@CpiDeviceListUpdater@Net@OpenHome@@@std@@YGPAPAVUpdateBase@CpiDeviceListUpdater@Net@OpenHome@@AAPAV1234@@Z 10037f00 f i CpiDevice.obj
 0001:00036f10       ??$_Cons_val@V?$allocator@PAVUpdateBase@CpiDeviceListUpdater@Net@OpenHome@@@std@@PAVUpdateBase@CpiDeviceListUpdater@Net@OpenHome@@ABQAV3456@@std@@YGXAAV?$allocator@PAVUpdateBase@CpiDeviceListUpdater@Net@OpenHome@@@0@PAPAVUpdateBase@CpiDeviceListUpdater@Net@OpenHome@@ABQAV2345@@Z 10037f10 f i CpiDevice.obj
 0001:00036f40       ??$?0PAVUpdateBase@CpiDeviceListUpdater@Net@OpenHome@@@?$allocator@U_Node@?$_List_nod@PAVUpdateBase@CpiDeviceListUpdater@Net@OpenHome@@V?$allocator@PAVUpdateBase@CpiDeviceListUpdater@Net@OpenHome@@@std@@@std@@@std@@QAE@ABV?$allocator@PAVUpdateBase@CpiDeviceListUpdater@Net@OpenHome@@@1@@Z 10037f40 f i CpiDevice.obj
 0001:00036f60       ??$?0U_Node@?$_List_nod@PAVUpdateBase@CpiDeviceListUpdater@Net@OpenHome@@V?$allocator@PAVUpdateBase@CpiDeviceListUpdater@Net@OpenHome@@@std@@@std@@@?$allocator@U_Container_proxy@std@@@std@@QAE@ABV?$allocator@U_Node@?$_List_nod@PAVUpdateBase@CpiDeviceListUpdater@Net@OpenHome@@V?$allocator@PAVUpdateBase@CpiDeviceListUpdater@Net@OpenHome@@@std@@@std@@@1@@Z 10037f60 f i CpiDevice.obj
 0001:00036f80       ??$_Allocate@U_Node@?$_List_nod@PAVUpdateBase@CpiDeviceListUpdater@Net@OpenHome@@V?$allocator@PAVUpdateBase@CpiDeviceListUpdater@Net@OpenHome@@@std@@@std@@@std@@YGPAU_Node@?$_List_nod@PAVUpdateBase@CpiDeviceListUpdater@Net@OpenHome@@V?$allocator@PAVUpdateBase@CpiDeviceListUpdater@Net@OpenHome@@@std@@@0@IPAU120@@Z 10037f80 f i CpiDevice.obj
 0001:00037020       ??$?0U?$pair@$$CBVBrn@OpenHome@@PAVCpiDevice@Net@2@@std@@@?$allocator@U_Node@?$_Tree_nod@V?$_Tmap_traits@VBrn@OpenHome@@PAVCpiDevice@Net@2@VBufferCmp@2@V?$allocator@U?$pair@$$CBVBrn@OpenHome@@PAVCpiDevice@Net@2@@std@@@std@@$0A@@std@@@std@@@std@@QAE@ABV?$allocator@U?$pair@$$CBVBrn@OpenHome@@PAVCpiDevice@Net@2@@std@@@1@@Z 10038020 f i CpiDevice.obj
 0001:00037040       ??$_Allocate@U_Node@?$_Tree_nod@V?$_Tmap_traits@VBrn@OpenHome@@PAVCpiDevice@Net@2@VBufferCmp@2@V?$allocator@U?$pair@$$CBVBrn@OpenHome@@PAVCpiDevice@Net@2@@std@@@std@@$0A@@std@@@std@@@std@@YGPAU_Node@?$_Tree_nod@V?$_Tmap_traits@VBrn@OpenHome@@PAVCpiDevice@Net@2@VBufferCmp@2@V?$allocator@U?$pair@$$CBVBrn@OpenHome@@PAVCpiDevice@Net@2@@std@@@std@@$0A@@std@@@0@IPAU120@@Z 10038040 f i CpiDevice.obj
 0001:000370e0       ?_Linsert@?$_Tree@V?$_Tmap_traits@VBrn@OpenHome@@PAVCpiDevice@Net@2@VBufferCmp@2@V?$allocator@U?$pair@$$CBVBrn@OpenHome@@PAVCpiDevice@Net@2@@std@@@std@@$0A@@std@@@std@@QAE?AU?$pair@V?$_Tree_iterator@V?$_Tree_val@V?$_Tmap_traits@VBrn@OpenHome@@PAVCpiDevice@Net@2@VBufferCmp@2@V?$allocator@U?$pair@$$CBVBrn@OpenHome@@PAVCpiDevice@Net@2@@std@@@std@@$0A@@std@@@std@@@std@@_N@2@PAU_Node@?$_Tree_nod@V?$_Tmap_traits@VBrn@OpenHome@@PAVCpiDevice@Net@2@VBufferCmp@2@V?$allocator@U?$pair@$$CBVBrn@OpenHome@@PAVCpiDevice@Net@2@@std@@@std@@$0A@@std@@@2@_N@Z 100380e0 f i CpiDevice.obj
 0001:000375b0       ?destroy@?$allocator@U?$pair@$$CBVBrn@OpenHome@@PAVCpiDevice@Net@2@@std@@@std@@QAEXPAU?$pair@$$CBVBrn@OpenHome@@PAVCpiDevice@Net@2@@2@@Z 100385b0 f i CpiDevice.obj
 0001:000375e0       ?construct@?$allocator@PAVUpdateBase@CpiDeviceListUpdater@Net@OpenHome@@@std@@QAEXPAPAVUpdateBase@CpiDeviceListUpdater@Net@OpenHome@@ABQAV3456@@Z 100385e0 f i CpiDevice.obj
 0001:00037620       ?destroy@?$allocator@U_Node@?$_List_nod@PAVUpdateBase@CpiDeviceListUpdater@Net@OpenHome@@V?$allocator@PAVUpdateBase@CpiDeviceListUpdater@Net@OpenHome@@@std@@@std@@@std@@QAEXPAU_Node@?$_List_nod@PAVUpdateBase@CpiDeviceListUpdater@Net@OpenHome@@V?$allocator@PAVUpdateBase@CpiDeviceListUpdater@Net@OpenHome@@@std@@@2@@Z 10038620 f i CpiDevice.obj
 0001:00037650       ?_Insert@?$_Tree@V?$_Tmap_traits@VBrn@OpenHome@@PAVCpiDevice@Net@2@VBufferCmp@2@V?$allocator@U?$pair@$$CBVBrn@OpenHome@@PAVCpiDevice@Net@2@@std@@@std@@$0A@@std@@@std@@IAE?AV?$_Tree_iterator@V?$_Tree_val@V?$_Tmap_traits@VBrn@OpenHome@@PAVCpiDevice@Net@2@VBufferCmp@2@V?$allocator@U?$pair@$$CBVBrn@OpenHome@@PAVCpiDevice@Net@2@@std@@@std@@$0A@@std@@@std@@@2@_NPAU_Node@?$_Tree_nod@V?$_Tmap_traits@VBrn@OpenHome@@PAVCpiDevice@Net@2@VBufferCmp@2@V?$allocator@U?$pair@$$CBVBrn@OpenHome@@PAVCpiDevice@Net@2@@std@@@std@@$0A@@std@@@2@1@Z 10038650 f i CpiDevice.obj
 0001:00037b00       ??F?$_Tree_iterator@V?$_Tree_val@V?$_Tmap_traits@VBrn@OpenHome@@PAVCpiDevice@Net@2@VBufferCmp@2@V?$allocator@U?$pair@$$CBVBrn@OpenHome@@PAVCpiDevice@Net@2@@std@@@std@@$0A@@std@@@std@@@std@@QAEAAV01@XZ 10038b00 f i CpiDevice.obj
 0001:00037b30       ??0?$pair@V?$_Tree_iterator@V?$_Tree_val@V?$_Tmap_traits@VBrn@OpenHome@@PAVCpiDevice@Net@2@VBufferCmp@2@V?$allocator@U?$pair@$$CBVBrn@OpenHome@@PAVCpiDevice@Net@2@@std@@@std@@$0A@@std@@@std@@@std@@_N@std@@QAE@$$QAV?$_Tree_iterator@V?$_Tree_val@V?$_Tmap_traits@VBrn@OpenHome@@PAVCpiDevice@Net@2@VBufferCmp@2@V?$allocator@U?$pair@$$CBVBrn@OpenHome@@PAVCpiDevice@Net@2@@std@@@std@@$0A@@std@@@std@@@1@$$QA_N@Z 10038b30 f i CpiDevice.obj
 0001:00037b80       ?max_size@?$_Tree@V?$_Tmap_traits@VBrn@OpenHome@@PAVCpiDevice@Net@2@VBufferCmp@2@V?$allocator@U?$pair@$$CBVBrn@OpenHome@@PAVCpiDevice@Net@2@@std@@@std@@$0A@@std@@@std@@QBEIXZ 10038b80 f i CpiDevice.obj
 0001:00037bb0       ??F?$_Tree_const_iterator@V?$_Tree_val@V?$_Tmap_traits@VBrn@OpenHome@@PAVCpiDevice@Net@2@VBufferCmp@2@V?$allocator@U?$pair@$$CBVBrn@OpenHome@@PAVCpiDevice@Net@2@@std@@@std@@$0A@@std@@@std@@@std@@QAEAAV01@XZ 10038bb0 f i CpiDevice.obj
 0001:00037d20       ??0?$_Pair_base@V?$_Tree_iterator@V?$_Tree_val@V?$_Tmap_traits@VBrn@OpenHome@@PAVCpiDevice@Net@2@VBufferCmp@2@V?$allocator@U?$pair@$$CBVBrn@OpenHome@@PAVCpiDevice@Net@2@@std@@@std@@$0A@@std@@@std@@@std@@_N@std@@QAE@$$QAV?$_Tree_iterator@V?$_Tree_val@V?$_Tmap_traits@VBrn@OpenHome@@PAVCpiDevice@Net@2@VBufferCmp@2@V?$allocator@U?$pair@$$CBVBrn@OpenHome@@PAVCpiDevice@Net@2@@std@@@std@@$0A@@std@@@std@@@1@$$QA_N@Z 10038d20 f i CpiDevice.obj
 0001:00037dc0       ?max_size@?$allocator@U?$pair@$$CBVBrn@OpenHome@@PAVCpiDevice@Net@2@@std@@@std@@QBEIXZ 10038dc0 f i CpiDevice.obj
 0001:00037e20       ??F?$_Tree_unchecked_const_iterator@V?$_Tree_val@V?$_Tmap_traits@VBrn@OpenHome@@PAVCpiDevice@Net@2@VBufferCmp@2@V?$allocator@U?$pair@$$CBVBrn@OpenHome@@PAVCpiDevice@Net@2@@std@@@std@@$0A@@std@@@std@@U_Iterator_base12@2@@std@@QAEAAV01@XZ 10038e20 f i CpiDevice.obj
 0001:00037f50       ??$forward@AAPAVCpiDevice@Net@OpenHome@@@std@@YGAAPAVCpiDevice@Net@OpenHome@@AAPAV123@@Z 10038f50 f i CpiDevice.obj
 0001:00037f60       ??$?0AAVBrn@OpenHome@@AAPAVCpiDevice@Net@1@@?$_Pair_base@VBrn@OpenHome@@PAVCpiDevice@Net@2@@std@@QAE@AAVBrn@OpenHome@@AAPAVCpiDevice@Net@3@@Z 10038f60 f i CpiDevice.obj
 0001:00038000       ??$forward@U?$pair@VBrn@OpenHome@@PAVCpiDevice@Net@2@@std@@@std@@YG$$QAU?$pair@VBrn@OpenHome@@PAVCpiDevice@Net@2@@0@AAU10@@Z 10039000 f i CpiDevice.obj
 0001:00038010       ??$_Buynode@U?$pair@VBrn@OpenHome@@PAVCpiDevice@Net@2@@std@@@?$_Tree_val@V?$_Tmap_traits@VBrn@OpenHome@@PAVCpiDevice@Net@2@VBufferCmp@2@V?$allocator@U?$pair@$$CBVBrn@OpenHome@@PAVCpiDevice@Net@2@@std@@@std@@$0A@@std@@@std@@QAEPAU_Node@?$_Tree_nod@V?$_Tmap_traits@VBrn@OpenHome@@PAVCpiDevice@Net@2@VBufferCmp@2@V?$allocator@U?$pair@$$CBVBrn@OpenHome@@PAVCpiDevice@Net@2@@std@@@std@@$0A@@std@@@1@$$QAU?$pair@VBrn@OpenHome@@PAVCpiDevice@Net@2@@1@@Z 10039010 f i CpiDevice.obj
 0001:00038130       ??$forward@ABQAVUpdateBase@CpiDeviceListUpdater@Net@OpenHome@@@std@@YGABQAVUpdateBase@CpiDeviceListUpdater@Net@OpenHome@@ABQAV1234@@Z 10039130 f i CpiDevice.obj
 0001:00038140       ??$?0AAV?$_Tree_iterator@V?$_Tree_val@V?$_Tmap_traits@VBrn@OpenHome@@PAVCpiDevice@Net@2@VBufferCmp@2@V?$allocator@U?$pair@$$CBVBrn@OpenHome@@PAVCpiDevice@Net@2@@std@@@std@@$0A@@std@@@std@@@std@@_N@?$pair@V?$_Tree_iterator@V?$_Tree_val@V?$_Tmap_traits@VBrn@OpenHome@@PAVCpiDevice@Net@2@VBufferCmp@2@V?$allocator@U?$pair@$$CBVBrn@OpenHome@@PAVCpiDevice@Net@2@@std@@@std@@$0A@@std@@@std@@@std@@_N@std@@QAE@AAV?$_Tree_iterator@V?$_Tree_val@V?$_Tmap_traits@VBrn@OpenHome@@PAVCpiDevice@Net@2@VBufferCmp@2@V?$allocator@U?$pair@$$CBVBrn@OpenHome@@PAVCpiDevice@Net@2@@std@@@std@@$0A@@std@@@std@@@1@$$QA_N@Z 10039140 f i CpiDevice.obj
 0001:00038190       ??$_Destroy@U?$pair@$$CBVBrn@OpenHome@@PAVCpiDevice@Net@2@@std@@@std@@YGXPAU?$pair@$$CBVBrn@OpenHome@@PAVCpiDevice@Net@2@@0@@Z 10039190 f i CpiDevice.obj
 0001:000381b0       ??$_Construct@PAVUpdateBase@CpiDeviceListUpdater@Net@OpenHome@@ABQAV1234@@std@@YGXPAPAVUpdateBase@CpiDeviceListUpdater@Net@OpenHome@@ABQAV1234@@Z 100391b0 f i CpiDevice.obj
 0001:00038280       ??$_Destroy@U_Node@?$_List_nod@PAVUpdateBase@CpiDeviceListUpdater@Net@OpenHome@@V?$allocator@PAVUpdateBase@CpiDeviceListUpdater@Net@OpenHome@@@std@@@std@@@std@@YGXPAU_Node@?$_List_nod@PAVUpdateBase@CpiDeviceListUpdater@Net@OpenHome@@V?$allocator@PAVUpdateBase@CpiDeviceListUpdater@Net@OpenHome@@@std@@@0@@Z 10039280 f i CpiDevice.obj
 0001:00038290       ??$move@AAV?$_Tree_iterator@V?$_Tree_val@V?$_Tmap_traits@VBrn@OpenHome@@PAVCpiDevice@Net@2@VBufferCmp@2@V?$allocator@U?$pair@$$CBVBrn@OpenHome@@PAVCpiDevice@Net@2@@std@@@std@@$0A@@std@@@std@@@std@@@std@@YG$$QAV?$_Tree_iterator@V?$_Tree_val@V?$_Tmap_traits@VBrn@OpenHome@@PAVCpiDevice@Net@2@VBufferCmp@2@V?$allocator@U?$pair@$$CBVBrn@OpenHome@@PAVCpiDevice@Net@2@@std@@@std@@$0A@@std@@@std@@@0@AAV10@@Z 10039290 f i CpiDevice.obj
 0001:000382a0       ??_G?$pair@$$CBVBrn@OpenHome@@PAVCpiDevice@Net@2@@std@@QAEPAXI@Z 100392a0 f i CpiDevice.obj
 0001:000382f0       ??1?$pair@$$CBVBrn@OpenHome@@PAVCpiDevice@Net@2@@std@@QAE@XZ 100392f0 f i CpiDevice.obj
 0001:00038320       ??1?$_Pair_base@$$CBVBrn@OpenHome@@PAVCpiDevice@Net@2@@std@@QAE@XZ 10039320 f i CpiDevice.obj
 0001:00038350       ?_Buynode@?$_Tree_val@V?$_Tmap_traits@VBrn@OpenHome@@PAVCpiDevice@Net@2@VBufferCmp@2@V?$allocator@U?$pair@$$CBVBrn@OpenHome@@PAVCpiDevice@Net@2@@std@@@std@@$0A@@std@@@std@@QAEPAU_Node@?$_Tree_nod@V?$_Tmap_traits@VBrn@OpenHome@@PAVCpiDevice@Net@2@VBufferCmp@2@V?$allocator@U?$pair@$$CBVBrn@OpenHome@@PAVCpiDevice@Net@2@@std@@@std@@$0A@@std@@@2@XZ 10039350 f i CpiDevice.obj
 0001:00038400       ??$_Cons_val@V?$allocator@U?$pair@$$CBVBrn@OpenHome@@PAVCpiDevice@Net@2@@std@@@std@@U?$pair@$$CBVBrn@OpenHome@@PAVCpiDevice@Net@2@@2@U?$pair@VBrn@OpenHome@@PAVCpiDevice@Net@2@@2@@std@@YGXAAV?$allocator@U?$pair@$$CBVBrn@OpenHome@@PAVCpiDevice@Net@2@@std@@@0@PAU?$pair@$$CBVBrn@OpenHome@@PAVCpiDevice@Net@2@@0@$$QAU?$pair@VBrn@OpenHome@@PAVCpiDevice@Net@2@@0@@Z 10039400 f i CpiDevice.obj
 0001:00038430       ??$forward@AAV?$_Tree_iterator@V?$_Tree_val@V?$_Tmap_traits@VBrn@OpenHome@@PAVCpiDevice@Net@2@VBufferCmp@2@V?$allocator@U?$pair@$$CBVBrn@OpenHome@@PAVCpiDevice@Net@2@@std@@@std@@$0A@@std@@@std@@@std@@@std@@YGAAV?$_Tree_iterator@V?$_Tree_val@V?$_Tmap_traits@VBrn@OpenHome@@PAVCpiDevice@Net@2@VBufferCmp@2@V?$allocator@U?$pair@$$CBVBrn@OpenHome@@PAVCpiDevice@Net@2@@std@@@std@@$0A@@std@@@std@@@0@AAV10@@Z 10039430 f i CpiDevice.obj
 0001:00038440       ??$?0AAV?$_Tree_iterator@V?$_Tree_val@V?$_Tmap_traits@VBrn@OpenHome@@PAVCpiDevice@Net@2@VBufferCmp@2@V?$allocator@U?$pair@$$CBVBrn@OpenHome@@PAVCpiDevice@Net@2@@std@@@std@@$0A@@std@@@std@@@std@@_N@?$_Pair_base@V?$_Tree_iterator@V?$_Tree_val@V?$_Tmap_traits@VBrn@OpenHome@@PAVCpiDevice@Net@2@VBufferCmp@2@V?$allocator@U?$pair@$$CBVBrn@OpenHome@@PAVCpiDevice@Net@2@@std@@@std@@$0A@@std@@@std@@@std@@_N@std@@QAE@AAV?$_Tree_iterator@V?$_Tree_val@V?$_Tmap_traits@VBrn@OpenHome@@PAVCpiDevice@Net@2@VBufferCmp@2@V?$allocator@U?$pair@$$CBVBrn@OpenHome@@PAVCpiDevice@Net@2@@std@@@std@@$0A@@std@@@std@@@1@$$QA_N@Z 10039440 f i CpiDevice.obj
 0001:000384e0       ??$construct@U?$pair@VBrn@OpenHome@@PAVCpiDevice@Net@2@@std@@@?$allocator@U?$pair@$$CBVBrn@OpenHome@@PAVCpiDevice@Net@2@@std@@@std@@QAEXPAU?$pair@$$CBVBrn@OpenHome@@PAVCpiDevice@Net@2@@1@$$QAU?$pair@VBrn@OpenHome@@PAVCpiDevice@Net@2@@1@@Z 100394e0 f i CpiDevice.obj
 0001:000385b0       ??$?0VBrn@OpenHome@@PAVCpiDevice@Net@1@@?$pair@$$CBVBrn@OpenHome@@PAVCpiDevice@Net@2@@std@@QAE@$$QAU?$pair@VBrn@OpenHome@@PAVCpiDevice@Net@2@@1@@Z 100395b0 f i CpiDevice.obj
 0001:00038600       ??$forward@PAVCpiDevice@Net@OpenHome@@@std@@YG$$QAPAVCpiDevice@Net@OpenHome@@AAPAV123@@Z 10039600 f i CpiDevice.obj
 0001:00038610       ??$?0VBrn@OpenHome@@PAVCpiDevice@Net@1@@?$_Pair_base@$$CBVBrn@OpenHome@@PAVCpiDevice@Net@2@@std@@QAE@$$QAVBrn@OpenHome@@$$QAPAVCpiDevice@Net@3@@Z 10039610 f i CpiDevice.obj
 0001:000386b0       ??0CpiDeviceDv@Net@OpenHome@@QAE@AAVDviDevice@12@@Z 100396b0 f   CpiDeviceDv.obj
 0001:00038800       ?Device@CpiDeviceDv@Net@OpenHome@@QAEAAVCpiDevice@23@XZ 10039800 f   CpiDeviceDv.obj
 0001:00038820       ?Service@CpiDeviceDv@Net@OpenHome@@AAEPAVDviService@23@ABVServiceType@23@@Z 10039820 f   CpiDeviceDv.obj
 0001:000388c0       ?InvokeAction@CpiDeviceDv@Net@OpenHome@@EAEXAAVInvocation@23@@Z 100398c0 f   CpiDeviceDv.obj
 0001:000389c0       ?GetAttribute@CpiDeviceDv@Net@OpenHome@@EBE_NPBDAAVBrh@3@@Z 100399c0 f   CpiDeviceDv.obj
 0001:00038a50       ?Subscribe@CpiDeviceDv@Net@OpenHome@@EAEIAAVCpiSubscription@23@ABVUri@3@@Z 10039a50 f   CpiDeviceDv.obj
 0001:00038c50       ?Renew@CpiDeviceDv@Net@OpenHome@@EAEIAAVCpiSubscription@23@@Z 10039c50 f   CpiDeviceDv.obj
 0001:00038cd0       ?Unsubscribe@CpiDeviceDv@Net@OpenHome@@EAEXAAVCpiSubscription@23@ABVBrx@3@@Z 10039cd0 f   CpiDeviceDv.obj
 0001:00038d60       ?NotifyRemovedBeforeReady@CpiDeviceDv@Net@OpenHome@@EAEXXZ 10039d60 f   CpiDeviceDv.obj
 0001:00038d80       ?Release@CpiDeviceDv@Net@OpenHome@@EAEXXZ 10039d80 f   CpiDeviceDv.obj
 0001:00038dd0       ?CreateWriter@CpiDeviceDv@Net@OpenHome@@EAEPAVIPropertyWriter@23@PBVIDviSubscriptionUserData@23@ABVBrx@3@I@Z 10039dd0 f   CpiDeviceDv.obj
 0001:00038eb0       ??0InvocationDv@Net@OpenHome@@QAE@AAVInvocation@12@AAVDviService@12@@Z 10039eb0 f   CpiDeviceDv.obj
 0001:00038f50       ?Start@InvocationDv@Net@OpenHome@@QAEXXZ 10039f50 f   CpiDeviceDv.obj
 0001:00038f90       ?Invoke@InvocationDv@Net@OpenHome@@EAEXXZ 10039f90 f   CpiDeviceDv.obj
 0001:00039080       ?InvocationReadStart@InvocationDv@Net@OpenHome@@EAEXXZ 1003a080 f   CpiDeviceDv.obj
 0001:000390a0       ?InvocationReadBool@InvocationDv@Net@OpenHome@@EAE_NPBD@Z 1003a0a0 f   CpiDeviceDv.obj
 0001:000390e0       ?InvocationReadString@InvocationDv@Net@OpenHome@@EAEXPBDAAVBrhz@3@@Z 1003a0e0 f   CpiDeviceDv.obj
 0001:00039130       ?InvocationReadInt@InvocationDv@Net@OpenHome@@EAEHPBD@Z 1003a130 f   CpiDeviceDv.obj
 0001:00039170       ?InvocationReadUint@InvocationDv@Net@OpenHome@@EAEIPBD@Z 1003a170 f   CpiDeviceDv.obj
 0001:000391b0       ?InvocationReadBinary@InvocationDv@Net@OpenHome@@EAEXPBDAAVBrh@3@@Z 1003a1b0 f   CpiDeviceDv.obj
 0001:00039200       ?InvocationReadEnd@InvocationDv@Net@OpenHome@@EAEXXZ 1003a200 f   CpiDeviceDv.obj
 0001:00039220       ?InvocationReportError@InvocationDv@Net@OpenHome@@EAEXIABVBrx@3@@Z 1003a220 f   CpiDeviceDv.obj
 0001:00039260       ?InvocationWriteStart@InvocationDv@Net@OpenHome@@EAEXXZ 1003a260 f   CpiDeviceDv.obj
 0001:00039280       ?InvocationWriteBool@InvocationDv@Net@OpenHome@@EAEXPBD_N@Z 1003a280 f   CpiDeviceDv.obj
 0001:000393a0       ?InvocationWriteInt@InvocationDv@Net@OpenHome@@EAEXPBDH@Z 1003a3a0 f   CpiDeviceDv.obj
 0001:000394a0       ?InvocationWriteUint@InvocationDv@Net@OpenHome@@EAEXPBDI@Z 1003a4a0 f   CpiDeviceDv.obj
 0001:000395a0       ?InvocationWriteBinaryStart@InvocationDv@Net@OpenHome@@EAEXPBD@Z 1003a5a0 f   CpiDeviceDv.obj
 0001:00039610       ?InvocationWriteBinary@InvocationDv@Net@OpenHome@@EAEXE@Z 1003a610 f   CpiDeviceDv.obj
 0001:00039650       ?InvocationWriteBinary@InvocationDv@Net@OpenHome@@EAEXABVBrx@3@@Z 1003a650 f   CpiDeviceDv.obj
 0001:00039690       ?InvocationWriteBinaryEnd@InvocationDv@Net@OpenHome@@EAEXPBD@Z 1003a690 f   CpiDeviceDv.obj
 0001:000396d0       ?InvocationWriteStringStart@InvocationDv@Net@OpenHome@@EAEXPBD@Z 1003a6d0 f   CpiDeviceDv.obj
 0001:00039740       ?InvocationWriteString@InvocationDv@Net@OpenHome@@EAEXE@Z 1003a740 f   CpiDeviceDv.obj
 0001:00039810       ?InvocationWriteString@InvocationDv@Net@OpenHome@@EAEXABVBrx@3@@Z 1003a810 f   CpiDeviceDv.obj
 0001:000398b0       ?InvocationWriteStringEnd@InvocationDv@Net@OpenHome@@EAEXPBD@Z 1003a8b0 f   CpiDeviceDv.obj
 0001:000398d0       ?InvocationWriteEnd@InvocationDv@Net@OpenHome@@EAEXXZ 1003a8d0 f   CpiDeviceDv.obj
 0001:000398f0       ?InputArgument@InvocationDv@Net@OpenHome@@AAEPAVArgument@23@PBD@Z 1003a8f0 f   CpiDeviceDv.obj
 0001:00039930       ?OutputArgument@InvocationDv@Net@OpenHome@@AAEPAVArgument@23@PBD@Z 1003a930 f   CpiDeviceDv.obj
 0001:00039970       ?Argument@InvocationDv@Net@OpenHome@@AAEPAV023@PBDABV?$vector@PAVArgument@Net@OpenHome@@V?$allocator@PAVArgument@Net@OpenHome@@@std@@@std@@AAI@Z 1003a970 f   CpiDeviceDv.obj
 0001:00039ac0       ?GetNextIndex@InvocationDv@Net@OpenHome@@AAEXAAIABV?$vector@PAVArgument@Net@OpenHome@@V?$allocator@PAVArgument@Net@OpenHome@@@std@@@std@@@Z 1003aac0 f   CpiDeviceDv.obj
 0001:00039b10       ??0PropertyWriterDv@Net@OpenHome@@QAE@AAVIEventProcessor@12@@Z 1003ab10 f   CpiDeviceDv.obj
 0001:00039bb0       ?PropertyWriteString@PropertyWriterDv@Net@OpenHome@@EAEXABVBrx@3@0@Z 1003abb0 f   CpiDeviceDv.obj
 0001:00039c40       ?PropertyWriteInt@PropertyWriterDv@Net@OpenHome@@EAEXABVBrx@3@H@Z 1003ac40 f   CpiDeviceDv.obj
 0001:00039d40       ?PropertyWriteUint@PropertyWriterDv@Net@OpenHome@@EAEXABVBrx@3@I@Z 1003ad40 f   CpiDeviceDv.obj
 0001:00039e40       ?PropertyWriteBool@PropertyWriterDv@Net@OpenHome@@EAEXABVBrx@3@_N@Z 1003ae40 f   CpiDeviceDv.obj
 0001:00039f60       ?PropertyWriteBinary@PropertyWriterDv@Net@OpenHome@@EAEXABVBrx@3@0@Z 1003af60 f   CpiDeviceDv.obj
 0001:00039ff0       ?PropertyWriteEnd@PropertyWriterDv@Net@OpenHome@@EAEXXZ 1003aff0 f   CpiDeviceDv.obj
 0001:0003a030       ?ProcessString@OutputProcessorDv@Net@OpenHome@@EAEXABVBrx@3@AAVBrhz@3@@Z 1003b030 f   CpiDeviceDv.obj
 0001:0003a120       ?ProcessInt@OutputProcessorDv@Net@OpenHome@@EAEXABVBrx@3@AAH@Z 1003b120 f   CpiDeviceDv.obj
 0001:0003a180       ?ProcessUint@OutputProcessorDv@Net@OpenHome@@EAEXABVBrx@3@AAI@Z 1003b180 f   CpiDeviceDv.obj
 0001:0003a1e0       ?ProcessBool@OutputProcessorDv@Net@OpenHome@@EAEXABVBrx@3@AA_N@Z 1003b1e0 f   CpiDeviceDv.obj
 0001:0003a240       ?ProcessBinary@OutputProcessorDv@Net@OpenHome@@EAEXABVBrx@3@AAVBrh@3@@Z 1003b240 f   CpiDeviceDv.obj
 0001:0003aa30       ??0ICpiDeviceObserver@Net@OpenHome@@QAE@XZ 1003ba30 f i CpiDeviceDv.obj
 0001:0003aa60       ??0IPropertyWriterFactory@Net@OpenHome@@QAE@XZ 1003ba60 f i CpiDeviceDv.obj
 0001:0003aa90       ??1InvocationDv@Net@OpenHome@@UAE@XZ 1003ba90 f i CpiDeviceDv.obj
 0001:0003aac0       ??1IDviInvocation@Net@OpenHome@@UAE@XZ 1003bac0 f i CpiDeviceDv.obj
 0001:0003aaf0       ??_GIDviInvocation@Net@OpenHome@@UAEPAXI@Z 1003baf0 f i CpiDeviceDv.obj
 0001:0003aaf0       ??_EIDviInvocation@Net@OpenHome@@UAEPAXI@Z 1003baf0 f i CpiDeviceDv.obj
 0001:0003ab40       ??_GInvocationDv@Net@OpenHome@@UAEPAXI@Z 1003bb40 f i CpiDeviceDv.obj
 0001:0003ab40       ??_EInvocationDv@Net@OpenHome@@UAEPAXI@Z 1003bb40 f i CpiDeviceDv.obj
 0001:0003ab90       ??0IDviInvocation@Net@OpenHome@@QAE@XZ 1003bb90 f i CpiDeviceDv.obj
 0001:0003abc0       ??1?$Bws@$00@OpenHome@@UAE@XZ 1003bbc0 f i CpiDeviceDv.obj
 0001:0003abf0       ??0OutputProcessorDv@Net@OpenHome@@QAE@XZ 1003bbf0 f i CpiDeviceDv.obj
 0001:0003ac30       ??0IOutputProcessor@Net@OpenHome@@QAE@XZ 1003bc30 f i CpiDeviceDv.obj
 0001:0003ac60       ??1?$Bws@$03@OpenHome@@UAE@XZ 1003bc60 f i CpiDeviceDv.obj
 0001:0003ac90       ??1IPropertyWriter@Net@OpenHome@@UAE@XZ 1003bc90 f i CpiDeviceDv.obj
 0001:0003acc0       ??_EIPropertyWriter@Net@OpenHome@@UAEPAXI@Z 1003bcc0 f i CpiDeviceDv.obj
 0001:0003acc0       ??_GIPropertyWriter@Net@OpenHome@@UAEPAXI@Z 1003bcc0 f i CpiDeviceDv.obj
 0001:0003ad10       ??_EPropertyWriterDv@Net@OpenHome@@UAEPAXI@Z 1003bd10 f i CpiDeviceDv.obj
 0001:0003ad10       ??_GPropertyWriterDv@Net@OpenHome@@UAEPAXI@Z 1003bd10 f i CpiDeviceDv.obj
 0001:0003ad60       ??0IPropertyWriter@Net@OpenHome@@QAE@XZ 1003bd60 f i CpiDeviceDv.obj
 0001:0003ad90       ??1PropertyWriterDv@Net@OpenHome@@UAE@XZ 1003bd90 f i CpiDeviceDv.obj
 0001:0003adc0       ?size@?$vector@PAVArgument@Net@OpenHome@@V?$allocator@PAVArgument@Net@OpenHome@@@std@@@std@@QBEIXZ 1003bdc0 f i CpiDeviceDv.obj
 0001:0003adf0       ??A?$vector@PAVArgument@Net@OpenHome@@V?$allocator@PAVArgument@Net@OpenHome@@@std@@@std@@QBEABQAVArgument@Net@OpenHome@@I@Z 1003bdf0 f i CpiDeviceDv.obj
 0001:0003aeb0       ??0?$Bws@$00@OpenHome@@QAE@XZ 1003beb0 f i CpiDeviceDv.obj
 0001:0003af00       ?Ptr@?$Bws@$00@OpenHome@@UBEPBEXZ 1003bf00 f i CpiDeviceDv.obj
 0001:0003af20       ??0?$Bws@$03@OpenHome@@QAE@PBEI@Z 1003bf20 f i CpiDeviceDv.obj
 0001:0003afc0       ?Ptr@?$Bws@$03@OpenHome@@UBEPBEXZ 1003bfc0 f i CpiDeviceDv.obj
 0001:0003afe0       ??_E?$Bws@$00@OpenHome@@UAEPAXI@Z 1003bfe0 f i CpiDeviceDv.obj
 0001:0003afe0       ??_G?$Bws@$00@OpenHome@@UAEPAXI@Z 1003bfe0 f i CpiDeviceDv.obj
 0001:0003b030       ??_G?$Bws@$03@OpenHome@@UAEPAXI@Z 1003c030 f i CpiDeviceDv.obj
 0001:0003b030       ??_E?$Bws@$03@OpenHome@@UAEPAXI@Z 1003c030 f i CpiDeviceDv.obj
 0001:0003b080       ??0CpiDeviceUpnp@Net@OpenHome@@QAE@ABVBrx@2@0IAAVIDeviceRemover@12@@Z 1003c080 f   CpiDeviceUpnp.obj
 0001:0003b2e0       ?Udn@CpiDeviceUpnp@Net@OpenHome@@QBEABVBrx@3@XZ 1003c2e0 f   CpiDeviceUpnp.obj
 0001:0003b310       ?Location@CpiDeviceUpnp@Net@OpenHome@@QBEABVBrx@3@XZ 1003c310 f   CpiDeviceUpnp.obj
 0001:0003b330       ?Device@CpiDeviceUpnp@Net@OpenHome@@QAEAAVCpiDevice@23@XZ 1003c330 f   CpiDeviceUpnp.obj
 0001:0003b350       ?UpdateMaxAge@CpiDeviceUpnp@Net@OpenHome@@QAEXI@Z 1003c350 f   CpiDeviceUpnp.obj
 0001:0003b3d0       ?FetchXml@CpiDeviceUpnp@Net@OpenHome@@QAEXAAVCpiDeviceListUpnp@23@@Z 1003c3d0 f   CpiDeviceUpnp.obj
 0001:0003b520       ?InterruptXmlFetch@CpiDeviceUpnp@Net@OpenHome@@QAEXXZ 1003c520 f   CpiDeviceUpnp.obj
 0001:0003b5e0       ?GetAttribute@CpiDeviceUpnp@Net@OpenHome@@EBE_NPBDAAVBrh@3@@Z 1003c5e0 f   CpiDeviceUpnp.obj
 0001:0003bcc0       ?InvokeAction@CpiDeviceUpnp@Net@OpenHome@@EAEXAAVInvocation@23@@Z 1003ccc0 f   CpiDeviceUpnp.obj
 0001:0003bd00       ?Subscribe@CpiDeviceUpnp@Net@OpenHome@@EAEIAAVCpiSubscription@23@ABVUri@3@@Z 1003cd00 f   CpiDeviceUpnp.obj
 0001:0003be60       ?Renew@CpiDeviceUpnp@Net@OpenHome@@EAEIAAVCpiSubscription@23@@Z 1003ce60 f   CpiDeviceUpnp.obj
 0001:0003bfc0       ?Unsubscribe@CpiDeviceUpnp@Net@OpenHome@@EAEXAAVCpiSubscription@23@ABVBrx@3@@Z 1003cfc0 f   CpiDeviceUpnp.obj
 0001:0003c0f0       ?NotifyRemovedBeforeReady@CpiDeviceUpnp@Net@OpenHome@@EAEXXZ 1003d0f0 f   CpiDeviceUpnp.obj
 0001:0003c140       ?Release@CpiDeviceUpnp@Net@OpenHome@@EAEXXZ 1003d140 f   CpiDeviceUpnp.obj
 0001:0003c1a0       ??1CpiDeviceUpnp@Net@OpenHome@@AAE@XZ 1003d1a0 f   CpiDeviceUpnp.obj
 0001:0003c2f0       ?TimerExpired@CpiDeviceUpnp@Net@OpenHome@@AAEXXZ 1003d2f0 f   CpiDeviceUpnp.obj
 0001:0003c340       ?GetServiceUri@CpiDeviceUpnp@Net@OpenHome@@AAEXAAVUri@3@PBDABVServiceType@23@@Z 1003d340 f   CpiDeviceUpnp.obj
 0001:0003c860       ?UdnMatches@CpiDeviceUpnp@Net@OpenHome@@CG_NABVBrx@3@0@Z 1003d860 f   CpiDeviceUpnp.obj
 0001:0003cad0       ?XmlFetchCompleted@CpiDeviceUpnp@Net@OpenHome@@AAEXAAVIAsync@23@@Z 1003dad0 f   CpiDeviceUpnp.obj
 0001:0003ce20       ??0Invocable@CpiDeviceUpnp@Net@OpenHome@@QAE@AAV123@@Z 1003de20 f   CpiDeviceUpnp.obj
 0001:0003ce70       ?InvokeAction@Invocable@CpiDeviceUpnp@Net@OpenHome@@UAEXAAVInvocation@34@@Z 1003de70 f   CpiDeviceUpnp.obj
 0001:0003d040       ??0CpiDeviceListUpnp@Net@OpenHome@@IAE@VFunctorCpiDevice@12@0@Z 1003e040 f   CpiDeviceUpnp.obj
 0001:0003d400       ??1CpiDeviceListUpnp@Net@OpenHome@@MAE@XZ 1003e400 f   CpiDeviceUpnp.obj
 0001:0003d6f0       ?Update@CpiDeviceListUpnp@Net@OpenHome@@IAE_NABVBrx@3@I@Z 1003e6f0 f   CpiDeviceUpnp.obj
 0001:0003d800       ?Start@CpiDeviceListUpnp@Net@OpenHome@@MAEXXZ 1003e800 f   CpiDeviceUpnp.obj
 0001:0003d860       ?Refresh@CpiDeviceListUpnp@Net@OpenHome@@MAEXXZ 1003e860 f   CpiDeviceUpnp.obj
 0001:0003d8e0       ?IsDeviceReady@CpiDeviceListUpnp@Net@OpenHome@@MAE_NAAVCpiDevice@23@@Z 1003e8e0 f   CpiDeviceUpnp.obj
 0001:0003d920       ?IsLocationReachable@CpiDeviceListUpnp@Net@OpenHome@@IBE_NABVBrx@3@@Z 1003e920 f   CpiDeviceUpnp.obj
 0001:0003da90       ?RefreshTimerComplete@CpiDeviceListUpnp@Net@OpenHome@@AAEXXZ 1003ea90 f   CpiDeviceUpnp.obj
 0001:0003dac0       ?CurrentNetworkAdapterChanged@CpiDeviceListUpnp@Net@OpenHome@@AAEXXZ 1003eac0 f   CpiDeviceUpnp.obj
 0001:0003daf0       ?SubnetListChanged@CpiDeviceListUpnp@Net@OpenHome@@AAEXXZ 1003eaf0 f   CpiDeviceUpnp.obj
 0001:0003db20       ?HandleInterfaceChange@CpiDeviceListUpnp@Net@OpenHome@@AAEX_N@Z 1003eb20 f   CpiDeviceUpnp.obj
 0001:0003dd40       ?RemoveAll@CpiDeviceListUpnp@Net@OpenHome@@AAEXXZ 1003ed40 f   CpiDeviceUpnp.obj
 0001:0003de60       ?XmlFetchCompleted@CpiDeviceListUpnp@Net@OpenHome@@QAEXAAVCpiDeviceUpnp@23@_N@Z 1003ee60 f   CpiDeviceUpnp.obj
 0001:0003df50       ?SsdpNotifyRootAlive@CpiDeviceListUpnp@Net@OpenHome@@MAEXABVBrx@3@0I@Z 1003ef50 f   CpiDeviceUpnp.obj
 0001:0003df70       ?SsdpNotifyUuidAlive@CpiDeviceListUpnp@Net@OpenHome@@MAEXABVBrx@3@0I@Z 1003ef70 f   CpiDeviceUpnp.obj
 0001:0003df90       ?SsdpNotifyDeviceTypeAlive@CpiDeviceListUpnp@Net@OpenHome@@MAEXABVBrx@3@00I0I@Z 1003ef90 f   CpiDeviceUpnp.obj
 0001:0003dfb0       ?SsdpNotifyServiceTypeAlive@CpiDeviceListUpnp@Net@OpenHome@@MAEXABVBrx@3@00I0I@Z 1003efb0 f   CpiDeviceUpnp.obj
 0001:0003dfd0       ?SsdpNotifyRootByeBye@CpiDeviceListUpnp@Net@OpenHome@@MAEXABVBrx@3@@Z 1003efd0 f   CpiDeviceUpnp.obj
 0001:0003e010       ?SsdpNotifyUuidByeBye@CpiDeviceListUpnp@Net@OpenHome@@MAEXABVBrx@3@@Z 1003f010 f   CpiDeviceUpnp.obj
 0001:0003e050       ?SsdpNotifyDeviceTypeByeBye@CpiDeviceListUpnp@Net@OpenHome@@MAEXABVBrx@3@00I@Z 1003f050 f   CpiDeviceUpnp.obj
 0001:0003e090       ?SsdpNotifyServiceTypeByeBye@CpiDeviceListUpnp@Net@OpenHome@@MAEXABVBrx@3@00I@Z 1003f090 f   CpiDeviceUpnp.obj
 0001:0003e0d0       ??0CpiDeviceListUpnpAll@Net@OpenHome@@QAE@VFunctorCpiDevice@12@0@Z 1003f0d0 f   CpiDeviceUpnp.obj
 0001:0003e150       ?Start@CpiDeviceListUpnpAll@Net@OpenHome@@UAEXXZ 1003f150 f   CpiDeviceUpnp.obj
 0001:0003e1a0       ?SsdpNotifyRootAlive@CpiDeviceListUpnpAll@Net@OpenHome@@UAEXABVBrx@3@0I@Z 1003f1a0 f   CpiDeviceUpnp.obj
 0001:0003e2a0       ??0CpiDeviceListUpnpRoot@Net@OpenHome@@QAE@VFunctorCpiDevice@12@0@Z 1003f2a0 f   CpiDeviceUpnp.obj
 0001:0003e320       ?Start@CpiDeviceListUpnpRoot@Net@OpenHome@@UAEXXZ 1003f320 f   CpiDeviceUpnp.obj
 0001:0003e370       ?SsdpNotifyRootAlive@CpiDeviceListUpnpRoot@Net@OpenHome@@UAEXABVBrx@3@0I@Z 1003f370 f   CpiDeviceUpnp.obj
 0001:0003e470       ??0CpiDeviceListUpnpUuid@Net@OpenHome@@QAE@ABVBrx@2@VFunctorCpiDevice@12@1@Z 1003f470 f   CpiDeviceUpnp.obj
 0001:0003e540       ?Start@CpiDeviceListUpnpUuid@Net@OpenHome@@UAEXXZ 1003f540 f   CpiDeviceUpnp.obj
 0001:0003e5a0       ?SsdpNotifyUuidAlive@CpiDeviceListUpnpUuid@Net@OpenHome@@UAEXABVBrx@3@0I@Z 1003f5a0 f   CpiDeviceUpnp.obj
 0001:0003e6b0       ??0CpiDeviceListUpnpDeviceType@Net@OpenHome@@QAE@ABVBrx@2@0IVFunctorCpiDevice@12@1@Z 1003f6b0 f   CpiDeviceUpnp.obj
 0001:0003e7a0       ?Start@CpiDeviceListUpnpDeviceType@Net@OpenHome@@UAEXXZ 1003f7a0 f   CpiDeviceUpnp.obj
 0001:0003e810       ?SsdpNotifyDeviceTypeAlive@CpiDeviceListUpnpDeviceType@Net@OpenHome@@UAEXABVBrx@3@00I0I@Z 1003f810 f   CpiDeviceUpnp.obj
 0001:0003e940       ??0CpiDeviceListUpnpServiceType@Net@OpenHome@@QAE@ABVBrx@2@0IVFunctorCpiDevice@12@1@Z 1003f940 f   CpiDeviceUpnp.obj
 0001:0003ea30       ?Start@CpiDeviceListUpnpServiceType@Net@OpenHome@@UAEXXZ 1003fa30 f   CpiDeviceUpnp.obj
 0001:0003eaa0       ?SsdpNotifyServiceTypeAlive@CpiDeviceListUpnpServiceType@Net@OpenHome@@UAEXABVBrx@3@00I0I@Z 1003faa0 f   CpiDeviceUpnp.obj
 0001:0003faa0       ?TimeInMs@Os@OpenHome@@SGIXZ 10040aa0 f i CpiDeviceUpnp.obj
 0001:0003fac0       ?TimeInUs@Os@OpenHome@@SG_KXZ 10040ac0 f i CpiDeviceUpnp.obj
 0001:0003fae0       ?Set@Brn@OpenHome@@QAEXABVBrx@2@@Z 10040ae0 f i CpiDeviceUpnp.obj
 0001:0003fb40       ??1Parser@OpenHome@@QAE@XZ 10040b40 f i CpiDeviceUpnp.obj
 0001:0003fb70       ??1Uri@OpenHome@@QAE@XZ    10040b70 f i CpiDeviceUpnp.obj
 0001:0003fcb0       ??1?$Bws@$0EAA@@OpenHome@@UAE@XZ 10040cb0 f i CpiDeviceUpnp.obj
 0001:0003fce0       ??_GCpiDeviceUpnp@Net@OpenHome@@AAEPAXI@Z 10040ce0 f i CpiDeviceUpnp.obj
 0001:0003fd30       ??_GDeviceXmlDocument@Net@OpenHome@@QAEPAXI@Z 10040d30 f i CpiDeviceUpnp.obj
 0001:0003fd80       ??_GDeviceXml@Net@OpenHome@@QAEPAXI@Z 10040d80 f i CpiDeviceUpnp.obj
 0001:0003fdd0       ??_GTimer@OpenHome@@QAEPAXI@Z 10040dd0 f i CpiDeviceUpnp.obj
 0001:0003fe20       ??1DeviceXml@Net@OpenHome@@QAE@XZ 10040e20 f i CpiDeviceUpnp.obj
 0001:0003fea0       ??9Brx@OpenHome@@QBE_NABV01@@Z 10040ea0 f i CpiDeviceUpnp.obj
 0001:0003fef0       ??0Brn@OpenHome@@QAE@XZ    10040ef0 f i CpiDeviceUpnp.obj
 0001:0003ff40       ?Scheme@Uri@OpenHome@@QBEABVBrx@2@XZ 10040f40 f i CpiDeviceUpnp.obj
 0001:0003ff60       ?Host@Uri@OpenHome@@QBEABVBrx@2@XZ 10040f60 f i CpiDeviceUpnp.obj
 0001:0003ff80       ?Port@Uri@OpenHome@@QBEHXZ 10040f80 f i CpiDeviceUpnp.obj
 0001:0003ffb0       ??1?$Bws@$0CI@@OpenHome@@UAE@XZ 10040fb0 f i CpiDeviceUpnp.obj
 0001:0003ffe0       ??0XmlError@OpenHome@@QAE@PBDI@Z 10040fe0 f i CpiDeviceUpnp.obj
 0001:00040030       ??1XmlError@OpenHome@@QAE@XZ 10041030 f i CpiDeviceUpnp.obj
 0001:00040060       ??1ISsdpNotifyHandler@Net@OpenHome@@UAE@XZ 10041060 f i CpiDeviceUpnp.obj
 0001:00040090       ??_GISsdpNotifyHandler@Net@OpenHome@@UAEPAXI@Z 10041090 f i CpiDeviceUpnp.obj
 0001:00040090       ??_EISsdpNotifyHandler@Net@OpenHome@@UAEPAXI@Z 10041090 f i CpiDeviceUpnp.obj
 0001:000400e0       ??_ECpiDeviceListUpnp@Net@OpenHome@@MAEPAXI@Z 100410e0 f i CpiDeviceUpnp.obj
 0001:000400e0       ??_GCpiDeviceListUpnp@Net@OpenHome@@MAEPAXI@Z 100410e0 f i CpiDeviceUpnp.obj
 0001:00040130       ??0ISsdpNotifyHandler@Net@OpenHome@@QAE@XZ 10041130 f i CpiDeviceUpnp.obj
 0001:00040160       ??_ECpiDeviceListUpnpAll@Net@OpenHome@@UAEPAXI@Z 10041160 f i CpiDeviceUpnp.obj
 0001:00040160       ??_GCpiDeviceListUpnpAll@Net@OpenHome@@UAEPAXI@Z 10041160 f i CpiDeviceUpnp.obj
 0001:000401b0       ??1CpiDeviceListUpnpAll@Net@OpenHome@@UAE@XZ 100411b0 f i CpiDeviceUpnp.obj
 0001:000401e0       ??_GCpiDeviceListUpnpRoot@Net@OpenHome@@UAEPAXI@Z 100411e0 f i CpiDeviceUpnp.obj
 0001:000401e0       ??_ECpiDeviceListUpnpRoot@Net@OpenHome@@UAEPAXI@Z 100411e0 f i CpiDeviceUpnp.obj
 0001:00040230       ??1CpiDeviceListUpnpRoot@Net@OpenHome@@UAE@XZ 10041230 f i CpiDeviceUpnp.obj
 0001:00040260       ??_ECpiDeviceListUpnpUuid@Net@OpenHome@@UAEPAXI@Z 10041260 f i CpiDeviceUpnp.obj
 0001:00040260       ??_GCpiDeviceListUpnpUuid@Net@OpenHome@@UAEPAXI@Z 10041260 f i CpiDeviceUpnp.obj
 0001:000402b0       ??1CpiDeviceListUpnpUuid@Net@OpenHome@@UAE@XZ 100412b0 f i CpiDeviceUpnp.obj
 0001:00040340       ??_ECpiDeviceListUpnpDeviceType@Net@OpenHome@@UAEPAXI@Z 10041340 f i CpiDeviceUpnp.obj
 0001:00040340       ??_GCpiDeviceListUpnpDeviceType@Net@OpenHome@@UAEPAXI@Z 10041340 f i CpiDeviceUpnp.obj
 0001:00040390       ??1CpiDeviceListUpnpDeviceType@Net@OpenHome@@UAE@XZ 10041390 f i CpiDeviceUpnp.obj
 0001:00040430       ??_GCpiDeviceListUpnpServiceType@Net@OpenHome@@UAEPAXI@Z 10041430 f i CpiDeviceUpnp.obj
 0001:00040430       ??_ECpiDeviceListUpnpServiceType@Net@OpenHome@@UAEPAXI@Z 10041430 f i CpiDeviceUpnp.obj
 0001:00040480       ??1CpiDeviceListUpnpServiceType@Net@OpenHome@@UAE@XZ 10041480 f i CpiDeviceUpnp.obj
 0001:00040520       ?size@?$_Tree@V?$_Tmap_traits@VBrn@OpenHome@@PAVCpiDevice@Net@2@VBufferCmp@2@V?$allocator@U?$pair@$$CBVBrn@OpenHome@@PAVCpiDevice@Net@2@@std@@@std@@$0A@@std@@@std@@QBEIXZ 10041520 f i CpiDeviceUpnp.obj
 0001:00040540       ??$MakeFunctor@VCpiDeviceUpnp@Net@OpenHome@@XV123@@OpenHome@@YG?AV?$MemberTranslator@VCpiDeviceUpnp@Net@OpenHome@@P8123@AEXXZ@0@AAVCpiDeviceUpnp@Net@0@ABQ8230@AEXXZ@Z 10041540 f i CpiDeviceUpnp.obj
 0001:00040570       ??$MakeFunctorAsync@VCpiDeviceUpnp@Net@OpenHome@@V123@@Net@OpenHome@@YG?AV?$MemberTranslatorAsync@VCpiDeviceUpnp@Net@OpenHome@@P8123@AEXAAVIAsync@23@@Z@01@AAVCpiDeviceUpnp@01@ABQ8301@AEXAAVIAsync@01@@Z@Z 10041570 f i CpiDeviceUpnp.obj
 0001:000405a0       ??0?$Bws@$0CI@@OpenHome@@QAE@XZ 100415a0 f i CpiDeviceUpnp.obj
 0001:000405f0       ?Ptr@?$Bws@$0CI@@OpenHome@@UBEPBEXZ 100415f0 f i CpiDeviceUpnp.obj
 0001:00040610       ??$MakeFunctor@VCpiDeviceListUpnp@Net@OpenHome@@XV123@@OpenHome@@YG?AV?$MemberTranslator@VCpiDeviceListUpnp@Net@OpenHome@@P8123@AEXXZ@0@AAVCpiDeviceListUpnp@Net@0@ABQ8230@AEXXZ@Z 10041610 f i CpiDeviceUpnp.obj
 0001:00040640       ??_G?$Bws@$0CI@@OpenHome@@UAEPAXI@Z 10041640 f i CpiDeviceUpnp.obj
 0001:00040640       ??_E?$Bws@$0CI@@OpenHome@@UAEPAXI@Z 10041640 f i CpiDeviceUpnp.obj
 0001:00040690       ??0?$MemberTranslator@VCpiDeviceUpnp@Net@OpenHome@@P8123@AEXXZ@OpenHome@@QAE@AAVCpiDeviceUpnp@Net@1@ABQ8231@AEXXZ@Z 10041690 f i CpiDeviceUpnp.obj
 0001:000406e0       ??0Functor@OpenHome@@IAE@P6GXABV01@@ZPBX2I@Z 100416e0 f i CpiDeviceUpnp.obj
 0001:00040740       ??0?$MemberTranslatorAsync@VCpiDeviceUpnp@Net@OpenHome@@P8123@AEXAAVIAsync@23@@Z@Net@OpenHome@@QAE@AAVCpiDeviceUpnp@12@ABQ8312@AEXAAVIAsync@12@@Z@Z 10041740 f i CpiDeviceUpnp.obj
 0001:00040790       ??0?$MemberTranslator@VCpiDeviceListUpnp@Net@OpenHome@@P8123@AEXXZ@OpenHome@@QAE@AAVCpiDeviceListUpnp@Net@1@ABQ8231@AEXXZ@Z 10041790 f i CpiDeviceUpnp.obj
 0001:000407e0       ?Thunk@?$MemberTranslator@VCpiDeviceUpnp@Net@OpenHome@@P8123@AEXXZ@OpenHome@@SGXABVFunctor@2@@Z 100417e0 f i CpiDeviceUpnp.obj
 0001:00040850       ?Thunk@?$MemberTranslatorAsync@VCpiDeviceUpnp@Net@OpenHome@@P8123@AEXAAVIAsync@23@@Z@Net@OpenHome@@SGXABVFunctorAsync@23@AAVIAsync@23@@Z 10041850 f i CpiDeviceUpnp.obj
 0001:000408c0       ?Thunk@?$MemberTranslator@VCpiDeviceListUpnp@Net@OpenHome@@P8123@AEXXZ@OpenHome@@SGXABVFunctor@2@@Z 100418c0 f i CpiDeviceUpnp.obj
 0001:00040930       ??_ECpiDeviceListUpnp@Net@OpenHome@@OHA@AEPAXI@Z 10041930 f i CpiDeviceUpnp.obj
 0001:00040940       ??_ECpiDeviceListUpnpDeviceType@Net@OpenHome@@WHA@AEPAXI@Z 10041940 f i CpiDeviceUpnp.obj
 0001:00040950       ??_ECpiDeviceListUpnpAll@Net@OpenHome@@WHA@AEPAXI@Z 10041950 f i CpiDeviceUpnp.obj
 0001:00040960       ??_ECpiDeviceListUpnpRoot@Net@OpenHome@@WHA@AEPAXI@Z 10041960 f i CpiDeviceUpnp.obj
 0001:00040970       ??_ECpiDeviceListUpnpServiceType@Net@OpenHome@@WHA@AEPAXI@Z 10041970 f i CpiDeviceUpnp.obj
 0001:00040980       ??_ECpiDeviceListUpnpUuid@Net@OpenHome@@WHA@AEPAXI@Z 10041980 f i CpiDeviceUpnp.obj
 0001:00040990       ??0CpiService@Net@OpenHome@@QAE@PBD0IAAVCpiDevice@12@@Z 10041990 f   CpiService.obj
 0001:00040a70       ??1CpiService@Net@OpenHome@@QAE@XZ 10041a70 f   CpiService.obj
 0001:00040b90       ?Invocation@CpiService@Net@OpenHome@@QAEPAV023@ABVAction@23@AAVFunctorAsync@23@@Z 10041b90 f   CpiService.obj
 0001:00040c10       ?Subscribe@CpiService@Net@OpenHome@@QAEXAAVIEventProcessor@23@@Z 10041c10 f   CpiService.obj
 0001:00040c70       ?Unsubscribe@CpiService@Net@OpenHome@@QAEXXZ 10041c70 f   CpiService.obj
 0001:00040cd0       ?InvocationCompleted@CpiService@Net@OpenHome@@QAEXXZ 10041cd0 f   CpiService.obj
 0001:00040d50       ?Interrupt@CpiService@Net@OpenHome@@QBE_NXZ 10041d50 f   CpiService.obj
 0001:00040d70       ?Device@CpiService@Net@OpenHome@@QAEAAVCpiDevice@23@XZ 10041d70 f   CpiService.obj
 0001:00040d90       ?Parameter@Argument@Net@OpenHome@@QBEABV023@XZ 10041d90 f   CpiService.obj
 0001:00040db0       ??0Argument@Net@OpenHome@@IAE@ABVParameter@12@@Z 10041db0 f   CpiService.obj
 0001:00040df0       ??1Argument@Net@OpenHome@@UAE@XZ 10041df0 f   CpiService.obj
 0001:00040e10       ?ValidationFailed@Argument@Net@OpenHome@@IAEXABVParameter@23@@Z 10041e10 f   CpiService.obj
 0001:00040e70       ??0ArgumentString@Net@OpenHome@@QAE@ABVParameter@12@@Z 10041e70 f   CpiService.obj
 0001:00040ef0       ??0ArgumentString@Net@OpenHome@@QAE@ABVParameter@12@ABVBrx@2@@Z 10041ef0 f   CpiService.obj
 0001:00040fe0       ??1ArgumentString@Net@OpenHome@@UAE@XZ 10041fe0 f   CpiService.obj
 0001:00041050       ?Value@ArgumentString@Net@OpenHome@@QBEABVBrx@3@XZ 10042050 f   CpiService.obj
 0001:00041070       ?TransferTo@ArgumentString@Net@OpenHome@@QAEXAAVBrh@3@@Z 10042070 f   CpiService.obj
 0001:000410a0       ?ProcessInput@ArgumentString@Net@OpenHome@@UAEXAAVIInputArgumentProcessor@23@@Z 100420a0 f   CpiService.obj
 0001:000410e0       ?ProcessOutput@ArgumentString@Net@OpenHome@@UAEXAAVIOutputProcessor@23@ABVBrx@3@@Z 100420e0 f   CpiService.obj
 0001:00041150       ??0ArgumentInt@Net@OpenHome@@QAE@ABVParameter@12@@Z 10042150 f   CpiService.obj
 0001:00041190       ??0ArgumentInt@Net@OpenHome@@QAE@ABVParameter@12@H@Z 10042190 f   CpiService.obj
 0001:00041260       ??1ArgumentInt@Net@OpenHome@@UAE@XZ 10042260 f   CpiService.obj
 0001:00041290       ?Value@ArgumentInt@Net@OpenHome@@QBEHXZ 10042290 f   CpiService.obj
 0001:000412b0       ?ProcessInput@ArgumentInt@Net@OpenHome@@UAEXAAVIInputArgumentProcessor@23@@Z 100422b0 f   CpiService.obj
 0001:000412f0       ?ProcessOutput@ArgumentInt@Net@OpenHome@@UAEXAAVIOutputProcessor@23@ABVBrx@3@@Z 100422f0 f   CpiService.obj
 0001:00041360       ??0ArgumentUint@Net@OpenHome@@QAE@ABVParameter@12@@Z 10042360 f   CpiService.obj
 0001:000413a0       ??0ArgumentUint@Net@OpenHome@@QAE@ABVParameter@12@I@Z 100423a0 f   CpiService.obj
 0001:00041470       ??1ArgumentUint@Net@OpenHome@@UAE@XZ 10042470 f   CpiService.obj
 0001:000414a0       ?Value@ArgumentUint@Net@OpenHome@@QBEIXZ 100424a0 f   CpiService.obj
 0001:000414c0       ?ProcessInput@ArgumentUint@Net@OpenHome@@UAEXAAVIInputArgumentProcessor@23@@Z 100424c0 f   CpiService.obj
 0001:00041500       ?ProcessOutput@ArgumentUint@Net@OpenHome@@UAEXAAVIOutputProcessor@23@ABVBrx@3@@Z 10042500 f   CpiService.obj
 0001:00041570       ??0ArgumentBool@Net@OpenHome@@QAE@ABVParameter@12@@Z 10042570 f   CpiService.obj
 0001:000415b0       ??0ArgumentBool@Net@OpenHome@@QAE@ABVParameter@12@_N@Z 100425b0 f   CpiService.obj
 0001:00041680       ??1ArgumentBool@Net@OpenHome@@UAE@XZ 10042680 f   CpiService.obj
 0001:000416b0       ?Value@ArgumentBool@Net@OpenHome@@QBE_NXZ 100426b0 f   CpiService.obj
 0001:000416d0       ?ProcessInput@ArgumentBool@Net@OpenHome@@UAEXAAVIInputArgumentProcessor@23@@Z 100426d0 f   CpiService.obj
 0001:00041710       ?ProcessOutput@ArgumentBool@Net@OpenHome@@UAEXAAVIOutputProcessor@23@ABVBrx@3@@Z 10042710 f   CpiService.obj
 0001:00041780       ??0ArgumentBinary@Net@OpenHome@@QAE@ABVParameter@12@@Z 10042780 f   CpiService.obj
 0001:00041800       ??0ArgumentBinary@Net@OpenHome@@QAE@ABVParameter@12@ABVBrx@2@@Z 10042800 f   CpiService.obj
 0001:000418f0       ??1ArgumentBinary@Net@OpenHome@@UAE@XZ 100428f0 f   CpiService.obj
 0001:00041960       ?Value@ArgumentBinary@Net@OpenHome@@QBEABVBrx@3@XZ 10042960 f   CpiService.obj
 0001:00041980       ?TransferTo@ArgumentBinary@Net@OpenHome@@QAEXAAVBrh@3@@Z 10042980 f   CpiService.obj
 0001:000419b0       ?ProcessInput@ArgumentBinary@Net@OpenHome@@UAEXAAVIInputArgumentProcessor@23@@Z 100429b0 f   CpiService.obj
 0001:000419f0       ?ProcessOutput@ArgumentBinary@Net@OpenHome@@UAEXAAVIOutputProcessor@23@ABVBrx@3@@Z 100429f0 f   CpiService.obj
 0001:00041a60       ?SignalCompleted@Invocation@Net@OpenHome@@QAEXXZ 10042a60 f   CpiService.obj
 0001:00041ba0       ?Error@Invocation@Net@OpenHome@@QBE_NXZ 10042ba0 f   CpiService.obj
 0001:00041bd0       ?Interrupt@Invocation@Net@OpenHome@@QBE_NXZ 10042bd0 f   CpiService.obj
 0001:00041c00       ?Set@Invocation@Net@OpenHome@@QAEXAAVCpiService@23@ABVAction@23@AAVCpiDevice@23@AAVFunctorAsync@23@@Z 10042c00 f   CpiService.obj
 0001:00041c70       ?AddInput@Invocation@Net@OpenHome@@QAEXPAVArgument@23@@Z 10042c70 f   CpiService.obj
 0001:00041ca0       ?AddOutput@Invocation@Net@OpenHome@@QAEXPAVArgument@23@@Z 10042ca0 f   CpiService.obj
 0001:00041cd0       ?SetError@Invocation@Net@OpenHome@@QAEXW4ELevel@Error@23@IABVBrx@3@@Z 10042cd0 f   CpiService.obj
 0001:00041d20       ?SetInterruptHandler@Invocation@Net@OpenHome@@QAEXPAVIInterruptHandler@23@@Z 10042d20 f   CpiService.obj
 0001:00041e10       ?Interrupt@Invocation@Net@OpenHome@@QAEXABVService@23@@Z 10042e10 f   CpiService.obj
 0001:00041f00       ?ServiceType@Invocation@Net@OpenHome@@QBEABV023@XZ 10042f00 f   CpiService.obj
 0001:00041f40       ?Action@Invocation@Net@OpenHome@@QBEABV023@XZ 10042f40 f   CpiService.obj
 0001:00041f80       ?Device@Invocation@Net@OpenHome@@QAEAAVCpiDevice@23@XZ 10042f80 f   CpiService.obj
 0001:00041fa0       ?Output@Invocation@Net@OpenHome@@UAEXAAVIAsyncOutput@23@@Z 10042fa0 f   CpiService.obj
 0001:00042200       ?OutputArgument@Invocation@Net@OpenHome@@CGXAAVIAsyncOutput@23@PBDABVArgument@23@@Z 10043200 f   CpiService.obj
 0001:00042600       ?InputArguments@Invocation@Net@OpenHome@@QBEABV?$vector@PAVArgument@Net@OpenHome@@V?$allocator@PAVArgument@Net@OpenHome@@@std@@@std@@XZ 10043600 f   CpiService.obj
 0001:00042620       ?OutputArguments@Invocation@Net@OpenHome@@QAEAAV?$vector@PAVArgument@Net@OpenHome@@V?$allocator@PAVArgument@Net@OpenHome@@@std@@@std@@XZ 10043620 f   CpiService.obj
 0001:00042640       ?SetInvoker@Invocation@Net@OpenHome@@QAEXAAVIInvocable@23@@Z 10043640 f   CpiService.obj
 0001:00042660       ?Invoker@Invocation@Net@OpenHome@@QAEAAVIInvocable@23@XZ 10043660 f   CpiService.obj
 0001:000426a0       ?Type@Invocation@Net@OpenHome@@EBEIXZ 100436a0 f   CpiService.obj
 0001:000426c0       ??0Invocation@Net@OpenHome@@AAE@AAV?$Fifo@PAVInvocation@Net@OpenHome@@@2@@Z 100436c0 f   CpiService.obj
 0001:000427b0       ??1Invocation@Net@OpenHome@@AAE@XZ 100437b0 f   CpiService.obj
 0001:00042850       ?Clear@Invocation@Net@OpenHome@@AAEXXZ 10043850 f   CpiService.obj
 0001:00042a00       ??0Invoker@Net@OpenHome@@QAE@PBDAAV?$Fifo@PAVInvoker@Net@OpenHome@@@2@@Z 10043a00 f   CpiService.obj
 0001:00042aa0       ??1Invoker@Net@OpenHome@@UAE@XZ 10043aa0 f   CpiService.obj
 0001:00042b30       ?Invoke@Invoker@Net@OpenHome@@QAEXPAVInvocation@23@@Z 10043b30 f   CpiService.obj
 0001:00042b80       ?Interrupt@Invoker@Net@OpenHome@@QAEXABVService@23@@Z 10043b80 f   CpiService.obj
 0001:00042c40       ?LogError@Invoker@Net@OpenHome@@AAEXPBD@Z 10043c40 f   CpiService.obj
 0001:00042cd0       ?Run@Invoker@Net@OpenHome@@EAEXXZ 10043cd0 f   CpiService.obj
 0001:00042f80       ??0InvocationManager@Net@OpenHome@@QAE@XZ 10043f80 f   CpiService.obj
 0001:00043220       ??1InvocationManager@Net@OpenHome@@UAE@XZ 10044220 f   CpiService.obj
 0001:00043400       ?Invocation@InvocationManager@Net@OpenHome@@CGPAV023@XZ 10044400 f   CpiService.obj
 0001:000434f0       ?Invoke@InvocationManager@Net@OpenHome@@SGXPAVInvocation@23@@Z 100444f0 f   CpiService.obj
 0001:00043560       ?Interrupt@InvocationManager@Net@OpenHome@@SGXABVService@23@@Z 10044560 f   CpiService.obj
 0001:000435d0       ?Self@InvocationManager@Net@OpenHome@@CGAAV123@XZ 100445d0 f   CpiService.obj
 0001:000435f0       ?Run@InvocationManager@Net@OpenHome@@EAEXXZ 100445f0 f   CpiService.obj
 0001:00044280       ??1Service@Net@OpenHome@@IAE@XZ 10045280 f i CpiService.obj
 0001:000442b0       ??_GArgument@Net@OpenHome@@UAEPAXI@Z 100452b0 f i CpiService.obj
 0001:000442b0       ??_EArgument@Net@OpenHome@@UAEPAXI@Z 100452b0 f i CpiService.obj
 0001:00044300       ??0Brhz@OpenHome@@QAE@XZ   10045300 f i CpiService.obj
 0001:00044340       ??_EArgumentString@Net@OpenHome@@UAEPAXI@Z 10045340 f i CpiService.obj
 0001:000443e0       ??_EArgumentInt@Net@OpenHome@@UAEPAXI@Z 100453e0 f i CpiService.obj
 0001:00044480       ??_EArgumentUint@Net@OpenHome@@UAEPAXI@Z 10045480 f i CpiService.obj
 0001:00044520       ??_EArgumentBool@Net@OpenHome@@UAEPAXI@Z 10045520 f i CpiService.obj
 0001:000445c0       ??_EArgumentBinary@Net@OpenHome@@UAEPAXI@Z 100455c0 f i CpiService.obj
 0001:00044660       ??RFunctorAsync@Net@OpenHome@@QBEXAAVIAsync@12@@Z 10045660 f i CpiService.obj
 0001:000446b0       ??BFunctorAsync@Net@OpenHome@@QBE_NXZ 100456b0 f i CpiService.obj
 0001:00044700       ?Level@Error@Net@OpenHome@@QBE?AW4ELevel@123@XZ 10045700 f i CpiService.obj
 0001:00044720       ??0Async@Net@OpenHome@@QAE@XZ 10045720 f i CpiService.obj
 0001:00044760       ??1Error@Net@OpenHome@@QAE@XZ 10045760 f i CpiService.obj
 0001:00044790       ??0IAsync@Net@OpenHome@@QAE@XZ 10045790 f i CpiService.obj
 0001:000447c0       ??_GInvoker@Net@OpenHome@@UAEPAXI@Z 100457c0 f i CpiService.obj
 0001:000447c0       ??_EInvoker@Net@OpenHome@@UAEPAXI@Z 100457c0 f i CpiService.obj
 0001:00044810       ??_GInvocationManager@Net@OpenHome@@UAEPAXI@Z 10045810 f i CpiService.obj
 0001:00044810       ??_EInvocationManager@Net@OpenHome@@UAEPAXI@Z 10045810 f i CpiService.obj
 0001:00044860       ??_GInvocation@Net@OpenHome@@AAEPAXI@Z 10045860 f i CpiService.obj
 0001:000448b0       ??0?$vector@PAVArgument@Net@OpenHome@@V?$allocator@PAVArgument@Net@OpenHome@@@std@@@std@@QAE@XZ 100458b0 f i CpiService.obj
 0001:00044900       ??1?$vector@PAVArgument@Net@OpenHome@@V?$allocator@PAVArgument@Net@OpenHome@@@std@@@std@@QAE@XZ 10045900 f i CpiService.obj
 0001:00044980       ??A?$vector@PAVArgument@Net@OpenHome@@V?$allocator@PAVArgument@Net@OpenHome@@@std@@@std@@QAEAAPAVArgument@Net@OpenHome@@I@Z 10045980 f i CpiService.obj
 0001:00044a40       ?push_back@?$vector@PAVArgument@Net@OpenHome@@V?$allocator@PAVArgument@Net@OpenHome@@@std@@@std@@QAEXABQAVArgument@Net@OpenHome@@@Z 10045a40 f i CpiService.obj
 0001:00044b90       ?clear@?$vector@PAVArgument@Net@OpenHome@@V?$allocator@PAVArgument@Net@OpenHome@@@std@@@std@@QAEXXZ 10045b90 f i CpiService.obj
 0001:00044cc0       ??0?$Fifo@PAVInvocation@Net@OpenHome@@@OpenHome@@QAE@I@Z 10045cc0 f i CpiService.obj
 0001:00044d80       ??1?$Fifo@PAVInvocation@Net@OpenHome@@@OpenHome@@QAE@XZ 10045d80 f i CpiService.obj
 0001:00044de0       ??0?$Fifo@PAVInvoker@Net@OpenHome@@@OpenHome@@QAE@I@Z 10045de0 f i CpiService.obj
 0001:00044ea0       ??1?$Fifo@PAVInvoker@Net@OpenHome@@@OpenHome@@QAE@XZ 10045ea0 f i CpiService.obj
 0001:00044f00       ??1?$_Vector_iterator@V?$_Vector_val@PAVArgument@Net@OpenHome@@V?$allocator@PAVArgument@Net@OpenHome@@@std@@@std@@@std@@QAE@XZ 10045f00 f i CpiService.obj
 0001:00044f30       ??0?$_Vector_const_iterator@V?$_Vector_val@PAVArgument@Net@OpenHome@@V?$allocator@PAVArgument@Net@OpenHome@@@std@@@std@@@std@@QAE@ABV01@@Z 10045f30 f i CpiService.obj
 0001:00044f80       ??1?$_Vector_const_iterator@V?$_Vector_val@PAVArgument@Net@OpenHome@@V?$allocator@PAVArgument@Net@OpenHome@@@std@@@std@@@std@@QAE@XZ 10045f80 f i CpiService.obj
 0001:00044fb0       ??1FifoBase@OpenHome@@QAE@XZ 10045fb0 f i CpiService.obj
 0001:00045050       ??0?$_Iterator012@Urandom_access_iterator_tag@std@@PAVArgument@Net@OpenHome@@HPBQAV345@ABQAV345@U_Iterator_base12@2@@std@@QAE@ABU01@@Z 10046050 f i CpiService.obj
 0001:00045090       ??1?$_Iterator012@Urandom_access_iterator_tag@std@@PAVArgument@Net@OpenHome@@HPBQAV345@ABQAV345@U_Iterator_base12@2@@std@@QAE@XZ 10046090 f i CpiService.obj
 0001:000450c0       ?begin@?$vector@PAVArgument@Net@OpenHome@@V?$allocator@PAVArgument@Net@OpenHome@@@std@@@std@@QAE?AV?$_Vector_iterator@V?$_Vector_val@PAVArgument@Net@OpenHome@@V?$allocator@PAVArgument@Net@OpenHome@@@std@@@std@@@2@XZ 100460c0 f i CpiService.obj
 0001:00045120       ?end@?$vector@PAVArgument@Net@OpenHome@@V?$allocator@PAVArgument@Net@OpenHome@@@std@@@std@@QAE?AV?$_Vector_iterator@V?$_Vector_val@PAVArgument@Net@OpenHome@@V?$allocator@PAVArgument@Net@OpenHome@@@std@@@std@@@2@XZ 10046120 f i CpiService.obj
 0001:00045180       ?erase@?$vector@PAVArgument@Net@OpenHome@@V?$allocator@PAVArgument@Net@OpenHome@@@std@@@std@@QAE?AV?$_Vector_iterator@V?$_Vector_val@PAVArgument@Net@OpenHome@@V?$allocator@PAVArgument@Net@OpenHome@@@std@@@std@@@2@V?$_Vector_const_iterator@V?$_Vector_val@PAVArgument@Net@OpenHome@@V?$allocator@PAVArgument@Net@OpenHome@@@std@@@std@@@2@0@Z 10046180 f i CpiService.obj
 0001:000453e0       ?_Inside@?$vector@PAVArgument@Net@OpenHome@@V?$allocator@PAVArgument@Net@OpenHome@@@std@@@std@@IBE_NPBQAVArgument@Net@OpenHome@@@Z 100463e0 f i CpiService.obj
 0001:00045440       ?_Reserve@?$vector@PAVArgument@Net@OpenHome@@V?$allocator@PAVArgument@Net@OpenHome@@@std@@@std@@IAEXI@Z 10046440 f i CpiService.obj
 0001:000454e0       ?_Tidy@?$vector@PAVArgument@Net@OpenHome@@V?$allocator@PAVArgument@Net@OpenHome@@@std@@@std@@IAEXXZ 100464e0 f i CpiService.obj
 0001:00045590       ?_Orphan_range@?$vector@PAVArgument@Net@OpenHome@@V?$allocator@PAVArgument@Net@OpenHome@@@std@@@std@@IBEXPAPAVArgument@Net@OpenHome@@0@Z 10046590 f i CpiService.obj
 0001:000456e0       ??0?$_Vector_val@PAVArgument@Net@OpenHome@@V?$allocator@PAVArgument@Net@OpenHome@@@std@@@std@@QAE@V?$allocator@PAVArgument@Net@OpenHome@@@1@@Z 100466e0 f i CpiService.obj
 0001:00045840       ??1?$_Vector_val@PAVArgument@Net@OpenHome@@V?$allocator@PAVArgument@Net@OpenHome@@@std@@@std@@QAE@XZ 10046840 f i CpiService.obj
 0001:00045950       ??0?$allocator@PAVArgument@Net@OpenHome@@@std@@QAE@XZ 10046950 f i CpiService.obj
 0001:00045970       ??0?$_Vector_iterator@V?$_Vector_val@PAVArgument@Net@OpenHome@@V?$allocator@PAVArgument@Net@OpenHome@@@std@@@std@@@std@@QAE@ABV01@@Z 10046970 f i CpiService.obj
 0001:000459b0       ?reserve@?$vector@PAVArgument@Net@OpenHome@@V?$allocator@PAVArgument@Net@OpenHome@@@std@@@std@@QAEXI@Z 100469b0 f i CpiService.obj
 0001:00045b80       ?capacity@?$vector@PAVArgument@Net@OpenHome@@V?$allocator@PAVArgument@Net@OpenHome@@@std@@@std@@QBEIXZ 10046b80 f i CpiService.obj
 0001:00045bb0       ?_Make_iter@?$vector@PAVArgument@Net@OpenHome@@V?$allocator@PAVArgument@Net@OpenHome@@@std@@@std@@QBE?AV?$_Vector_iterator@V?$_Vector_val@PAVArgument@Net@OpenHome@@V?$allocator@PAVArgument@Net@OpenHome@@@std@@@std@@@2@V?$_Vector_const_iterator@V?$_Vector_val@PAVArgument@Net@OpenHome@@V?$allocator@PAVArgument@Net@OpenHome@@@std@@@std@@@2@@Z 10046bb0 f i CpiService.obj
 0001:00045c60       ?max_size@?$vector@PAVArgument@Net@OpenHome@@V?$allocator@PAVArgument@Net@OpenHome@@@std@@@std@@QBEIXZ 10046c60 f i CpiService.obj
 0001:00045c90       ?_Destroy@?$vector@PAVArgument@Net@OpenHome@@V?$allocator@PAVArgument@Net@OpenHome@@@std@@@std@@IAEXPAPAVArgument@Net@OpenHome@@0@Z 10046c90 f i CpiService.obj
 0001:00045cd0       ?_Grow_to@?$vector@PAVArgument@Net@OpenHome@@V?$allocator@PAVArgument@Net@OpenHome@@@std@@@std@@IBEII@Z 10046cd0 f i CpiService.obj
 0001:00045d70       ?_Xlen@?$vector@PAVArgument@Net@OpenHome@@V?$allocator@PAVArgument@Net@OpenHome@@@std@@@std@@IBEXXZ 10046d70 f i CpiService.obj
 0001:00045da0       ??0?$allocator@PAVArgument@Net@OpenHome@@@std@@QAE@ABV01@@Z 10046da0 f i CpiService.obj
 0001:00045dc0       ?deallocate@?$allocator@PAVArgument@Net@OpenHome@@@std@@QAEXPAPAVArgument@Net@OpenHome@@I@Z 10046dc0 f i CpiService.obj
 0001:00045e00       ??0?$_Vector_iterator@V?$_Vector_val@PAVArgument@Net@OpenHome@@V?$allocator@PAVArgument@Net@OpenHome@@@std@@@std@@@std@@QAE@PAPAVArgument@Net@OpenHome@@PBU_Container_base12@1@@Z 10046e00 f i CpiService.obj
 0001:00045e40       ??9?$_Vector_const_iterator@V?$_Vector_val@PAVArgument@Net@OpenHome@@V?$allocator@PAVArgument@Net@OpenHome@@@std@@@std@@@std@@QBE_NABV01@@Z 10046e40 f i CpiService.obj
 0001:00045e90       ??M?$_Vector_const_iterator@V?$_Vector_val@PAVArgument@Net@OpenHome@@V?$allocator@PAVArgument@Net@OpenHome@@@std@@@std@@@std@@QBE_NABV01@@Z 10046e90 f i CpiService.obj
 0001:00045ee0       ?allocate@?$allocator@PAVArgument@Net@OpenHome@@@std@@QAEPAPAVArgument@Net@OpenHome@@I@Z 10046ee0 f i CpiService.obj
 0001:00045f20       ?max_size@?$allocator@PAVArgument@Net@OpenHome@@@std@@QBEIXZ 10046f20 f i CpiService.obj
 0001:00045f80       ??0?$_Vector_const_iterator@V?$_Vector_val@PAVArgument@Net@OpenHome@@V?$allocator@PAVArgument@Net@OpenHome@@@std@@@std@@@std@@QAE@PAPAVArgument@Net@OpenHome@@PBU_Container_base12@1@@Z 10046f80 f i CpiService.obj
 0001:00046020       ??8?$_Vector_const_iterator@V?$_Vector_val@PAVArgument@Net@OpenHome@@V?$allocator@PAVArgument@Net@OpenHome@@@std@@@std@@@std@@QBE_NABV01@@Z 10047020 f i CpiService.obj
 0001:00046070       ?_Compat@?$_Vector_const_iterator@V?$_Vector_val@PAVArgument@Net@OpenHome@@V?$allocator@PAVArgument@Net@OpenHome@@@std@@@std@@@std@@QBEXABV12@@Z 10047070 f i CpiService.obj
 0001:00046140       ??0?$_Iterator012@Urandom_access_iterator_tag@std@@PAVArgument@Net@OpenHome@@HPBQAV345@ABQAV345@U_Iterator_base12@2@@std@@QAE@XZ 10047140 f i CpiService.obj
 0001:00046170       ?Write@?$Fifo@PAVInvocation@Net@OpenHome@@@OpenHome@@QAEXPAVInvocation@Net@2@@Z 10047170 f i CpiService.obj
 0001:000461b0       ?Read@?$Fifo@PAVInvocation@Net@OpenHome@@@OpenHome@@QAEPAVInvocation@Net@2@XZ 100471b0 f i CpiService.obj
 0001:000461e0       ?Write@?$Fifo@PAVInvoker@Net@OpenHome@@@OpenHome@@QAEXPAVInvoker@Net@2@@Z 100471e0 f i CpiService.obj
 0001:00046220       ?Read@?$Fifo@PAVInvoker@Net@OpenHome@@@OpenHome@@QAEPAVInvoker@Net@2@XZ 10047220 f i CpiService.obj
 0001:00046250       ??$addressof@QAVArgument@Net@OpenHome@@@std@@YGPBQAVArgument@Net@OpenHome@@ABQAV123@@Z 10047250 f i CpiService.obj
 0001:00046260       ??$_Cons_val@V?$allocator@PAVArgument@Net@OpenHome@@@std@@PAVArgument@Net@OpenHome@@AAPAV345@@std@@YGXAAV?$allocator@PAVArgument@Net@OpenHome@@@0@PAPAVArgument@Net@OpenHome@@AAPAV234@@Z 10047260 f i CpiService.obj
 0001:00046290       ??$_Cons_val@V?$allocator@PAVArgument@Net@OpenHome@@@std@@PAVArgument@Net@OpenHome@@ABQAV345@@std@@YGXAAV?$allocator@PAVArgument@Net@OpenHome@@@0@PAPAVArgument@Net@OpenHome@@ABQAV234@@Z 10047290 f i CpiService.obj
 0001:000462c0       ??$_Move@PAPAVArgument@Net@OpenHome@@PAPAV123@@std@@YGPAPAVArgument@Net@OpenHome@@PAPAV123@00@Z 100472c0 f i CpiService.obj
 0001:00046320       ??$?0PAVArgument@Net@OpenHome@@@?$allocator@U_Container_proxy@std@@@std@@QAE@ABV?$allocator@PAVArgument@Net@OpenHome@@@1@@Z 10047320 f i CpiService.obj
 0001:00046340       ??$_Umove@PAPAVArgument@Net@OpenHome@@@?$vector@PAVArgument@Net@OpenHome@@V?$allocator@PAVArgument@Net@OpenHome@@@std@@@std@@IAEPAPAVArgument@Net@OpenHome@@PAPAV234@00@Z 10047340 f i CpiService.obj
 0001:00046390       ??$_Destroy_range@V?$allocator@PAVArgument@Net@OpenHome@@@std@@@std@@YGXPAPAVArgument@Net@OpenHome@@0AAV?$allocator@PAVArgument@Net@OpenHome@@@0@@Z 10047390 f i CpiService.obj
 0001:000463f0       ??$_Allocate@PAVArgument@Net@OpenHome@@@std@@YGPAPAVArgument@Net@OpenHome@@IPAPAV123@@Z 100473f0 f i CpiService.obj
 0001:00046490       ?construct@?$allocator@PAVArgument@Net@OpenHome@@@std@@QAEXPAPAVArgument@Net@OpenHome@@ABQAV345@@Z 10047490 f i CpiService.obj
 0001:000464d0       ?Write@?$Fifo@PAVInvocation@Net@OpenHome@@@OpenHome@@QAEXPAVInvocation@Net@2@I@Z 100474d0 f i CpiService.obj
 0001:00046520       ?Read@?$Fifo@PAVInvocation@Net@OpenHome@@@OpenHome@@QAEPAVInvocation@Net@2@I@Z 10047520 f i CpiService.obj
 0001:00046580       ?Write@?$Fifo@PAVInvoker@Net@OpenHome@@@OpenHome@@QAEXPAVInvoker@Net@2@I@Z 10047580 f i CpiService.obj
 0001:000465d0       ?Read@?$Fifo@PAVInvoker@Net@OpenHome@@@OpenHome@@QAEPAVInvoker@Net@2@I@Z 100475d0 f i CpiService.obj
 0001:00046630       ??$forward@AAPAVArgument@Net@OpenHome@@@std@@YGAAPAVArgument@Net@OpenHome@@AAPAV123@@Z 10047630 f i CpiService.obj
 0001:00046640       ??$construct@AAPAVArgument@Net@OpenHome@@@?$allocator@PAVArgument@Net@OpenHome@@@std@@QAEXPAPAVArgument@Net@OpenHome@@AAPAV234@@Z 10047640 f i CpiService.obj
 0001:00046710       ??$forward@ABQAVArgument@Net@OpenHome@@@std@@YGABQAVArgument@Net@OpenHome@@ABQAV123@@Z 10047710 f i CpiService.obj
 0001:00046720       ??$_Ptr_cat@PAVArgument@Net@OpenHome@@PAV123@@std@@YG?AU_Scalar_ptr_iterator_tag@0@PAPAVArgument@Net@OpenHome@@0@Z 10047720 f i CpiService.obj
 0001:00046790       ??$_Move@PAPAVArgument@Net@OpenHome@@PAPAV123@@std@@YGPAPAVArgument@Net@OpenHome@@PAPAV123@00U_Scalar_ptr_iterator_tag@0@@Z 10047790 f i CpiService.obj
 0001:000467f0       ??$_Uninitialized_move@PAPAVArgument@Net@OpenHome@@PAPAV123@V?$allocator@PAVArgument@Net@OpenHome@@@std@@@std@@YGPAPAVArgument@Net@OpenHome@@PAPAV123@00AAV?$allocator@PAVArgument@Net@OpenHome@@@0@@Z 100477f0 f i CpiService.obj
 0001:00046860       ??$_Destroy_range@V?$allocator@PAVArgument@Net@OpenHome@@@std@@@std@@YGXPAPAVArgument@Net@OpenHome@@0AAV?$allocator@PAVArgument@Net@OpenHome@@@0@U_Scalar_ptr_iterator_tag@0@@Z 10047860 f i CpiService.obj
 0001:00046870       ??$_Construct@PAVArgument@Net@OpenHome@@ABQAV123@@std@@YGXPAPAVArgument@Net@OpenHome@@ABQAV123@@Z 10047870 f i CpiService.obj
 0001:00046940       ??$_Val_type@PAPAVArgument@Net@OpenHome@@@std@@YGPAPAVArgument@Net@OpenHome@@PAPAV123@@Z 10047940 f i CpiService.obj
 0001:00046950       ??$_Uninit_move@PAVArgument@Net@OpenHome@@PAV123@PAV123@@std@@YGPAPAVArgument@Net@OpenHome@@PAPAV123@00AAV?$allocator@PAVArgument@Net@OpenHome@@@0@0U_Scalar_ptr_iterator_tag@0@@Z 10047950 f i CpiService.obj
 0001:000469e0       ??$_Debug_range@PAPAVArgument@Net@OpenHome@@@std@@YGXPAPAVArgument@Net@OpenHome@@0PB_WI@Z 100479e0 f i CpiService.obj
 0001:00046a40       ??$_Debug_pointer@PAVArgument@Net@OpenHome@@@std@@YGXPAPAVArgument@Net@OpenHome@@PB_WI@Z 10047a40 f i CpiService.obj
 0001:00046a80       ??$_Iter_cat@PAPAVArgument@Net@OpenHome@@@std@@YG?AUrandom_access_iterator_tag@0@ABQAPAVArgument@Net@OpenHome@@@Z 10047a80 f i CpiService.obj
 0001:00046af0       ??$_Debug_range2@PAPAVArgument@Net@OpenHome@@@std@@YGXPAPAVArgument@Net@OpenHome@@0PB_WIUrandom_access_iterator_tag@0@@Z 10047af0 f i CpiService.obj
 0001:00046b60       ??0CpiStack@Net@OpenHome@@QAE@XZ 10047b60 f   CpiStack.obj
 0001:00046ce0       ??1CpiStack@Net@OpenHome@@EAE@XZ 10047ce0 f   CpiStack.obj
 0001:00046e40       ?InvocationManager@CpiStack@Net@OpenHome@@SGAAV023@XZ 10047e40 f   CpiStack.obj
 0001:00046e70       ?XmlFetchManager@CpiStack@Net@OpenHome@@SGAAV023@XZ 10047e70 f   CpiStack.obj
 0001:00046ea0       ?SubscriptionManager@CpiStack@Net@OpenHome@@SGAAVCpiSubscriptionManager@23@XZ 10047ea0 f   CpiStack.obj
 0001:00046ed0       ?DeviceListUpdater@CpiStack@Net@OpenHome@@SGAAVCpiDeviceListUpdater@23@XZ 10047ed0 f   CpiStack.obj
 0001:00046f00       ?Self@CpiStack@Net@OpenHome@@CGPAV123@XZ 10047f00 f   CpiStack.obj
 0001:00047000       ??1IStack@Net@OpenHome@@UAE@XZ 10048000 f i CpiStack.obj
 0001:00047030       ??_GIStack@Net@OpenHome@@UAEPAXI@Z 10048030 f i CpiStack.obj
 0001:00047030       ??_EIStack@Net@OpenHome@@UAEPAXI@Z 10048030 f i CpiStack.obj
 0001:00047080       ??_GCpiStack@Net@OpenHome@@EAEPAXI@Z 10048080 f i CpiStack.obj
 0001:00047080       ??_ECpiStack@Net@OpenHome@@EAEPAXI@Z 10048080 f i CpiStack.obj
 0001:000470d0       ??0IStack@Net@OpenHome@@QAE@XZ 100480d0 f i CpiStack.obj
 0001:00047100       ?Sid@CpiSubscription@Net@OpenHome@@QBEABVBrx@3@XZ 10048100 f   CpiSubscription.obj
 0001:00047120       ?AddRef@CpiSubscription@Net@OpenHome@@QAEXXZ 10048120 f   CpiSubscription.obj
 0001:00047170       ?RemoveRef@CpiSubscription@Net@OpenHome@@QAEXXZ 10048170 f   CpiSubscription.obj
 0001:00047230       ?UpdateSequenceNumber@CpiSubscription@Net@OpenHome@@QAE_NI@Z 10048230 f   CpiSubscription.obj
 0001:00047270       ?SetNotificationError@CpiSubscription@Net@OpenHome@@QAEXXZ 10048270 f   CpiSubscription.obj
 0001:000472a0       ?Unsubscribe@CpiSubscription@Net@OpenHome@@QAEXXZ 100482a0 f   CpiSubscription.obj
 0001:00047330       ?SetInterruptHandler@CpiSubscription@Net@OpenHome@@QAEXPAVIInterruptHandler@23@@Z 10048330 f   CpiSubscription.obj
 0001:00047370       ?SetSid@CpiSubscription@Net@OpenHome@@QAEXAAVBrh@3@@Z 10048370 f   CpiSubscription.obj
 0001:000473c0       ?ServiceType@CpiSubscription@Net@OpenHome@@QBEABV023@XZ 100483c0 f   CpiSubscription.obj
 0001:000473e0       ?RunInSubscriber@CpiSubscription@Net@OpenHome@@QAEXXZ 100483e0 f   CpiSubscription.obj
 0001:00047450       ?RunInSubscriber@CpiSubscription@Net@OpenHome@@AAEXW4EOperation@123@@Z 10048450 f   CpiSubscription.obj
 0001:00047560       ??0CpiSubscription@Net@OpenHome@@AAE@AAVCpiDevice@12@AAVIEventProcessor@12@ABVServiceType@12@@Z 10048560 f   CpiSubscription.obj
 0001:00047730       ??1CpiSubscription@Net@OpenHome@@AAE@XZ 10048730 f   CpiSubscription.obj
 0001:00047880       ?Schedule@CpiSubscription@Net@OpenHome@@AAEXW4EOperation@123@@Z 10048880 f   CpiSubscription.obj
 0001:00047900       ?DoSubscribe@CpiSubscription@Net@OpenHome@@AAEXXZ 10048900 f   CpiSubscription.obj
 0001:00047fb0       ?Renew@CpiSubscription@Net@OpenHome@@AAEXXZ 10048fb0 f   CpiSubscription.obj
 0001:00047fe0       ?DoRenew@CpiSubscription@Net@OpenHome@@AAEXXZ 10048fe0 f   CpiSubscription.obj
 0001:00048230       ?DoUnsubscribe@CpiSubscription@Net@OpenHome@@AAEXXZ 10049230 f   CpiSubscription.obj
 0001:00048430       ?NotifyAddAborted@CpiSubscription@Net@OpenHome@@AAEXXZ 10049430 f   CpiSubscription.obj
 0001:00048470       ?EventUpdateStart@CpiSubscription@Net@OpenHome@@EAEXXZ 10049470 f   CpiSubscription.obj
 0001:000484c0       ?EventUpdate@CpiSubscription@Net@OpenHome@@EAEXABVBrx@3@0AAVIOutputProcessor@23@@Z 100494c0 f   CpiSubscription.obj
 0001:00048520       ?EventUpdateEnd@CpiSubscription@Net@OpenHome@@EAEXXZ 10049520 f   CpiSubscription.obj
 0001:00048570       ??0Subscriber@Net@OpenHome@@QAE@PBDAAV?$Fifo@PAVSubscriber@Net@OpenHome@@@2@@Z 10049570 f   CpiSubscription.obj
 0001:000485c0       ??1Subscriber@Net@OpenHome@@UAE@XZ 100495c0 f   CpiSubscription.obj
 0001:00048640       ?Subscribe@Subscriber@Net@OpenHome@@QAEXPAVCpiSubscription@23@@Z 10049640 f   CpiSubscription.obj
 0001:00048670       ?Error@Subscriber@Net@OpenHome@@AAEXPBD@Z 10049670 f   CpiSubscription.obj
 0001:00048740       ?Run@Subscriber@Net@OpenHome@@EAEXXZ 10049740 f   CpiSubscription.obj
 0001:00048850       ??0CpiSubscriptionManager@Net@OpenHome@@QAE@XZ 10049850 f   CpiSubscription.obj
 0001:00048c40       ??1CpiSubscriptionManager@Net@OpenHome@@UAE@XZ 10049c40 f   CpiSubscription.obj
 0001:00048f10       ?NewSubscription@CpiSubscriptionManager@Net@OpenHome@@SGPAVCpiSubscription@23@AAVCpiDevice@23@AAVIEventProcessor@23@ABVServiceType@23@@Z 10049f10 f   CpiSubscription.obj
 0001:00048fc0       ?NotifyAddPending@CpiSubscriptionManager@Net@OpenHome@@SGXAAVCpiSubscription@23@@Z 10049fc0 f   CpiSubscription.obj
 0001:00049010       ?NotifyAddAborted@CpiSubscriptionManager@Net@OpenHome@@SGXAAVCpiSubscription@23@@Z 1004a010 f   CpiSubscription.obj
 0001:00049060       ?WaitForPendingAdds@CpiSubscriptionManager@Net@OpenHome@@SGXXZ 1004a060 f   CpiSubscription.obj
 0001:00049160       ?Add@CpiSubscriptionManager@Net@OpenHome@@SGXAAVCpiSubscription@23@@Z 1004a160 f   CpiSubscription.obj
 0001:000492a0       ?FindSubscription@CpiSubscriptionManager@Net@OpenHome@@SGPAVCpiSubscription@23@ABVBrx@3@@Z 1004a2a0 f   CpiSubscription.obj
 0001:00049440       ?Remove@CpiSubscriptionManager@Net@OpenHome@@SGXAAVCpiSubscription@23@@Z 1004a440 f   CpiSubscription.obj
 0001:00049600       ?Schedule@CpiSubscriptionManager@Net@OpenHome@@SGXAAVCpiSubscription@23@@Z 1004a600 f   CpiSubscription.obj
 0001:00049670       ?EventServer@CpiSubscriptionManager@Net@OpenHome@@SGPAVEventServerUpnp@23@XZ 1004a670 f   CpiSubscription.obj
 0001:000496a0       ?Self@CpiSubscriptionManager@Net@OpenHome@@CGPAV123@XZ 1004a6a0 f   CpiSubscription.obj
 0001:000496c0       ?RemovePendingAdd@CpiSubscriptionManager@Net@OpenHome@@AAEXAAVCpiSubscription@23@@Z 1004a6c0 f   CpiSubscription.obj
 0001:00049840       ?CurrentNetworkAdapterChanged@CpiSubscriptionManager@Net@OpenHome@@AAEXXZ 1004a840 f   CpiSubscription.obj
 0001:00049870       ?SubnetListChanged@CpiSubscriptionManager@Net@OpenHome@@AAEXXZ 1004a870 f   CpiSubscription.obj
 0001:000498a0       ?HandleInterfaceChange@CpiSubscriptionManager@Net@OpenHome@@AAEX_N@Z 1004a8a0 f   CpiSubscription.obj
 0001:00049e20       ?Run@CpiSubscriptionManager@Net@OpenHome@@EAEXXZ 1004ae20 f   CpiSubscription.obj
 0001:0004aa20       ??_GCpiSubscription@Net@OpenHome@@AAEPAXI@Z 1004ba20 f i CpiSubscription.obj
 0001:0004aa70       ??0IEventProcessor@Net@OpenHome@@QAE@XZ 1004ba70 f i CpiSubscription.obj
 0001:0004aaa0       ??0WriterError@OpenHome@@QAE@PBDI@Z 1004baa0 f i CpiSubscription.obj
 0001:0004aaf0       ??0NetworkError@OpenHome@@QAE@PBDI@Z 1004baf0 f i CpiSubscription.obj
 0001:0004ab40       ??0NetworkTimeout@OpenHome@@QAE@PBDI@Z 1004bb40 f i CpiSubscription.obj
 0001:0004ab90       ?AbsoluteUri@Uri@OpenHome@@QBEABVBrx@2@XZ 1004bb90 f i CpiSubscription.obj
 0001:0004abb0       ??0HttpError@OpenHome@@QAE@PBDI@Z 1004bbb0 f i CpiSubscription.obj
 0001:0004ac00       ?Port@EventServerUpnp@Net@OpenHome@@QBEIXZ 1004bc00 f i CpiSubscription.obj
 0001:0004ac30       ?Port@SocketTcpServer@OpenHome@@QBEIXZ 1004bc30 f i CpiSubscription.obj
 0001:0004ac50       ??1NetworkError@OpenHome@@QAE@XZ 1004bc50 f i CpiSubscription.obj
 0001:0004ac80       ??1?$Bws@$0BG@@OpenHome@@UAE@XZ 1004bc80 f i CpiSubscription.obj
 0001:0004acb0       ??1HttpError@OpenHome@@QAE@XZ 1004bcb0 f i CpiSubscription.obj
 0001:0004ace0       ??1NetworkTimeout@OpenHome@@QAE@XZ 1004bce0 f i CpiSubscription.obj
 0001:0004ad10       ??1WriterError@OpenHome@@QAE@XZ 1004bd10 f i CpiSubscription.obj
 0001:0004ad40       ??_GSubscriber@Net@OpenHome@@UAEPAXI@Z 1004bd40 f i CpiSubscription.obj
 0001:0004ad40       ??_ESubscriber@Net@OpenHome@@UAEPAXI@Z 1004bd40 f i CpiSubscription.obj
 0001:0004ad90       ??_ECpiSubscriptionManager@Net@OpenHome@@UAEPAXI@Z 1004bd90 f i CpiSubscription.obj
 0001:0004ad90       ??_GCpiSubscriptionManager@Net@OpenHome@@UAEPAXI@Z 1004bd90 f i CpiSubscription.obj
 0001:0004ade0       ??1?$map@VBrn@OpenHome@@PAVCpiSubscription@Net@2@VBufferCmp@2@V?$allocator@U?$pair@$$CBVBrn@OpenHome@@PAVCpiSubscription@Net@2@@std@@@std@@@std@@QAE@XZ 1004bde0 f i CpiSubscription.obj
 0001:0004ae10       ??_GEventServerUpnp@Net@OpenHome@@QAEPAXI@Z 1004be10 f i CpiSubscription.obj
 0001:0004ae60       ??1EventServerUpnp@Net@OpenHome@@QAE@XZ 1004be60 f i CpiSubscription.obj
 0001:0004ae90       ??1?$pair@VBrn@OpenHome@@PAVCpiSubscription@Net@2@@std@@QAE@XZ 1004be90 f i CpiSubscription.obj
 0001:0004aec0       ??1?$pair@V?$_Tree_iterator@V?$_Tree_val@V?$_Tmap_traits@VBrn@OpenHome@@PAVCpiSubscription@Net@2@VBufferCmp@2@V?$allocator@U?$pair@$$CBVBrn@OpenHome@@PAVCpiSubscription@Net@2@@std@@@std@@$0A@@std@@@std@@@std@@_N@std@@QAE@XZ 1004bec0 f i CpiSubscription.obj
 0001:0004aef0       ??1?$_Pair_base@VBrn@OpenHome@@PAVCpiSubscription@Net@2@@std@@QAE@XZ 1004bef0 f i CpiSubscription.obj
 0001:0004af20       ??1?$_Pair_base@V?$_Tree_iterator@V?$_Tree_val@V?$_Tmap_traits@VBrn@OpenHome@@PAVCpiSubscription@Net@2@VBufferCmp@2@V?$allocator@U?$pair@$$CBVBrn@OpenHome@@PAVCpiSubscription@Net@2@@std@@@std@@$0A@@std@@@std@@@std@@_N@std@@QAE@XZ 1004bf20 f i CpiSubscription.obj
 0001:0004af50       ??1?$_Tree_iterator@V?$_Tree_val@V?$_Tmap_traits@VBrn@OpenHome@@PAVCpiSubscription@Net@2@VBufferCmp@2@V?$allocator@U?$pair@$$CBVBrn@OpenHome@@PAVCpiSubscription@Net@2@@std@@@std@@$0A@@std@@@std@@@std@@QAE@XZ 1004bf50 f i CpiSubscription.obj
 0001:0004af80       ??1?$_Tree_const_iterator@V?$_Tree_val@V?$_Tmap_traits@VBrn@OpenHome@@PAVCpiSubscription@Net@2@VBufferCmp@2@V?$allocator@U?$pair@$$CBVBrn@OpenHome@@PAVCpiSubscription@Net@2@@std@@@std@@$0A@@std@@@std@@@std@@QAE@XZ 1004bf80 f i CpiSubscription.obj
 0001:0004afb0       ??1?$_Tree_unchecked_const_iterator@V?$_Tree_val@V?$_Tmap_traits@VBrn@OpenHome@@PAVCpiSubscription@Net@2@VBufferCmp@2@V?$allocator@U?$pair@$$CBVBrn@OpenHome@@PAVCpiSubscription@Net@2@@std@@@std@@$0A@@std@@@std@@U_Iterator_base12@2@@std@@QAE@XZ 1004bfb0 f i CpiSubscription.obj
 0001:0004afe0       ??1?$_Iterator012@Ubidirectional_iterator_tag@std@@U?$pair@$$CBVBrn@OpenHome@@PAVCpiSubscription@Net@2@@2@HPBU32@ABU32@U_Iterator_base12@2@@std@@QAE@XZ 1004bfe0 f i CpiSubscription.obj
 0001:0004b010       ??0?$_Tree_const_iterator@V?$_Tree_val@V?$_Tmap_traits@VBrn@OpenHome@@PAVCpiSubscription@Net@2@VBufferCmp@2@V?$allocator@U?$pair@$$CBVBrn@OpenHome@@PAVCpiSubscription@Net@2@@std@@@std@@$0A@@std@@@std@@@std@@QAE@ABV01@@Z 1004c010 f i CpiSubscription.obj
 0001:0004b050       ??0?$_Tree_unchecked_const_iterator@V?$_Tree_val@V?$_Tmap_traits@VBrn@OpenHome@@PAVCpiSubscription@Net@2@VBufferCmp@2@V?$allocator@U?$pair@$$CBVBrn@OpenHome@@PAVCpiSubscription@Net@2@@std@@@std@@$0A@@std@@@std@@U_Iterator_base12@2@@std@@QAE@ABV01@@Z 1004c050 f i CpiSubscription.obj
 0001:0004b0a0       ??0?$_Iterator012@Ubidirectional_iterator_tag@std@@U?$pair@$$CBVBrn@OpenHome@@PAVCpiSubscription@Net@2@@2@HPBU32@ABU32@U_Iterator_base12@2@@std@@QAE@ABU01@@Z 1004c0a0 f i CpiSubscription.obj
 0001:0004b0e0       ??1?$_Vector_iterator@V?$_Vector_val@PAVCpiSubscription@Net@OpenHome@@V?$allocator@PAVCpiSubscription@Net@OpenHome@@@std@@@std@@@std@@QAE@XZ 1004c0e0 f i CpiSubscription.obj
 0001:0004b110       ??0?$_Vector_const_iterator@V?$_Vector_val@PAVCpiSubscription@Net@OpenHome@@V?$allocator@PAVCpiSubscription@Net@OpenHome@@@std@@@std@@@std@@QAE@ABV01@@Z 1004c110 f i CpiSubscription.obj
 0001:0004b160       ??1?$_Vector_const_iterator@V?$_Vector_val@PAVCpiSubscription@Net@OpenHome@@V?$allocator@PAVCpiSubscription@Net@OpenHome@@@std@@@std@@@std@@QAE@XZ 1004c160 f i CpiSubscription.obj
 0001:0004b190       ??0?$_Iterator012@Urandom_access_iterator_tag@std@@PAVCpiSubscription@Net@OpenHome@@HPBQAV345@ABQAV345@U_Iterator_base12@2@@std@@QAE@ABU01@@Z 1004c190 f i CpiSubscription.obj
 0001:0004b1d0       ??1?$_Iterator012@Urandom_access_iterator_tag@std@@PAVCpiSubscription@Net@OpenHome@@HPBQAV345@ABQAV345@U_Iterator_base12@2@@std@@QAE@XZ 1004c1d0 f i CpiSubscription.obj
 0001:0004b200       ??4?$_Tree_iterator@V?$_Tree_val@V?$_Tmap_traits@VBrn@OpenHome@@PAVCpiSubscription@Net@2@VBufferCmp@2@V?$allocator@U?$pair@$$CBVBrn@OpenHome@@PAVCpiSubscription@Net@2@@std@@@std@@$0A@@std@@@std@@@std@@QAEAAV01@ABV01@@Z 1004c200 f i CpiSubscription.obj
 0001:0004b240       ??4?$_Tree_const_iterator@V?$_Tree_val@V?$_Tmap_traits@VBrn@OpenHome@@PAVCpiSubscription@Net@2@VBufferCmp@2@V?$allocator@U?$pair@$$CBVBrn@OpenHome@@PAVCpiSubscription@Net@2@@std@@@std@@$0A@@std@@@std@@@std@@QAEAAV01@ABV01@@Z 1004c240 f i CpiSubscription.obj
 0001:0004b280       ??4?$_Tree_unchecked_const_iterator@V?$_Tree_val@V?$_Tmap_traits@VBrn@OpenHome@@PAVCpiSubscription@Net@2@VBufferCmp@2@V?$allocator@U?$pair@$$CBVBrn@OpenHome@@PAVCpiSubscription@Net@2@@std@@@std@@$0A@@std@@@std@@U_Iterator_base12@2@@std@@QAEAAV01@ABV01@@Z 1004c280 f i CpiSubscription.obj
 0001:0004b2d0       ??4?$_Iterator012@Ubidirectional_iterator_tag@std@@U?$pair@$$CBVBrn@OpenHome@@PAVCpiSubscription@Net@2@@2@HPBU32@ABU32@U_Iterator_base12@2@@std@@QAEAAU01@ABU01@@Z 1004c2d0 f i CpiSubscription.obj
 0001:0004b310       ??0?$list@PAVCpiSubscription@Net@OpenHome@@V?$allocator@PAVCpiSubscription@Net@OpenHome@@@std@@@std@@QAE@XZ 1004c310 f i CpiSubscription.obj
 0001:0004b360       ?push_back@?$list@PAVCpiSubscription@Net@OpenHome@@V?$allocator@PAVCpiSubscription@Net@OpenHome@@@std@@@std@@QAEX$$QAPAVCpiSubscription@Net@OpenHome@@@Z 1004c360 f i CpiSubscription.obj
 0001:0004b440       ??1?$list@PAVCpiSubscription@Net@OpenHome@@V?$allocator@PAVCpiSubscription@Net@OpenHome@@@std@@@std@@QAE@XZ 1004c440 f i CpiSubscription.obj
 0001:0004b4c0       ?size@?$list@PAVCpiSubscription@Net@OpenHome@@V?$allocator@PAVCpiSubscription@Net@OpenHome@@@std@@@std@@QBEIXZ 1004c4c0 f i CpiSubscription.obj
 0001:0004b4e0       ?front@?$list@PAVCpiSubscription@Net@OpenHome@@V?$allocator@PAVCpiSubscription@Net@OpenHome@@@std@@@std@@QAEAAPAVCpiSubscription@Net@OpenHome@@XZ 1004c4e0 f i CpiSubscription.obj
 0001:0004b5a0       ?pop_front@?$list@PAVCpiSubscription@Net@OpenHome@@V?$allocator@PAVCpiSubscription@Net@OpenHome@@@std@@@std@@QAEXXZ 1004c5a0 f i CpiSubscription.obj
 0001:0004b680       ??0?$Fifo@PAVSubscriber@Net@OpenHome@@@OpenHome@@QAE@I@Z 1004c680 f i CpiSubscription.obj
 0001:0004b740       ??1?$Fifo@PAVSubscriber@Net@OpenHome@@@OpenHome@@QAE@XZ 1004c740 f i CpiSubscription.obj
 0001:0004b7a0       ??0?$map@VBrn@OpenHome@@PAVCpiSubscription@Net@2@VBufferCmp@2@V?$allocator@U?$pair@$$CBVBrn@OpenHome@@PAVCpiSubscription@Net@2@@std@@@std@@@std@@QAE@XZ 1004c7a0 f i CpiSubscription.obj
 0001:0004b800       ??1?$_Tree@V?$_Tmap_traits@VBrn@OpenHome@@PAVCpiSubscription@Net@2@VBufferCmp@2@V?$allocator@U?$pair@$$CBVBrn@OpenHome@@PAVCpiSubscription@Net@2@@std@@@std@@$0A@@std@@@std@@QAE@XZ 1004c800 f i CpiSubscription.obj
 0001:0004b880       ?begin@?$_Tree@V?$_Tmap_traits@VBrn@OpenHome@@PAVCpiSubscription@Net@2@VBufferCmp@2@V?$allocator@U?$pair@$$CBVBrn@OpenHome@@PAVCpiSubscription@Net@2@@std@@@std@@$0A@@std@@@std@@QAE?AV?$_Tree_iterator@V?$_Tree_val@V?$_Tmap_traits@VBrn@OpenHome@@PAVCpiSubscription@Net@2@VBufferCmp@2@V?$allocator@U?$pair@$$CBVBrn@OpenHome@@PAVCpiSubscription@Net@2@@std@@@std@@$0A@@std@@@std@@@2@XZ 1004c880 f i CpiSubscription.obj
 0001:0004b8f0       ?end@?$_Tree@V?$_Tmap_traits@VBrn@OpenHome@@PAVCpiSubscription@Net@2@VBufferCmp@2@V?$allocator@U?$pair@$$CBVBrn@OpenHome@@PAVCpiSubscription@Net@2@@std@@@std@@$0A@@std@@@std@@QAE?AV?$_Tree_iterator@V?$_Tree_val@V?$_Tmap_traits@VBrn@OpenHome@@PAVCpiSubscription@Net@2@VBufferCmp@2@V?$allocator@U?$pair@$$CBVBrn@OpenHome@@PAVCpiSubscription@Net@2@@std@@@std@@$0A@@std@@@std@@@2@XZ 1004c8f0 f i CpiSubscription.obj
 0001:0004b950       ?size@?$_Tree@V?$_Tmap_traits@VBrn@OpenHome@@PAVCpiSubscription@Net@2@VBufferCmp@2@V?$allocator@U?$pair@$$CBVBrn@OpenHome@@PAVCpiSubscription@Net@2@@std@@@std@@$0A@@std@@@std@@QBEIXZ 1004c950 f i CpiSubscription.obj
 0001:0004b970       ?erase@?$_Tree@V?$_Tmap_traits@VBrn@OpenHome@@PAVCpiSubscription@Net@2@VBufferCmp@2@V?$allocator@U?$pair@$$CBVBrn@OpenHome@@PAVCpiSubscription@Net@2@@std@@@std@@$0A@@std@@@std@@QAE?AV?$_Tree_iterator@V?$_Tree_val@V?$_Tmap_traits@VBrn@OpenHome@@PAVCpiSubscription@Net@2@VBufferCmp@2@V?$allocator@U?$pair@$$CBVBrn@OpenHome@@PAVCpiSubscription@Net@2@@std@@@std@@$0A@@std@@@std@@@2@V?$_Tree_const_iterator@V?$_Tree_val@V?$_Tmap_traits@VBrn@OpenHome@@PAVCpiSubscription@Net@2@VBufferCmp@2@V?$allocator@U?$pair@$$CBVBrn@OpenHome@@PAVCpiSubscription@Net@2@@std@@@std@@$0A@@std@@@std@@@2@@Z 1004c970 f i CpiSubscription.obj
 0001:0004c240       ?find@?$_Tree@V?$_Tmap_traits@VBrn@OpenHome@@PAVCpiSubscription@Net@2@VBufferCmp@2@V?$allocator@U?$pair@$$CBVBrn@OpenHome@@PAVCpiSubscription@Net@2@@std@@@std@@$0A@@std@@@std@@QAE?AV?$_Tree_iterator@V?$_Tree_val@V?$_Tmap_traits@VBrn@OpenHome@@PAVCpiSubscription@Net@2@VBufferCmp@2@V?$allocator@U?$pair@$$CBVBrn@OpenHome@@PAVCpiSubscription@Net@2@@std@@@std@@$0A@@std@@@std@@@2@ABVBrn@OpenHome@@@Z 1004d240 f i CpiSubscription.obj
 0001:0004c4a0       ??0?$vector@PAVCpiSubscription@Net@OpenHome@@V?$allocator@PAVCpiSubscription@Net@OpenHome@@@std@@@std@@QAE@XZ 1004d4a0 f i CpiSubscription.obj
 0001:0004c4f0       ?push_back@?$vector@PAVCpiSubscription@Net@OpenHome@@V?$allocator@PAVCpiSubscription@Net@OpenHome@@@std@@@std@@QAEX$$QAPAVCpiSubscription@Net@OpenHome@@@Z 1004d4f0 f i CpiSubscription.obj
 0001:0004c650       ??1?$vector@PAVCpiSubscription@Net@OpenHome@@V?$allocator@PAVCpiSubscription@Net@OpenHome@@@std@@@std@@QAE@XZ 1004d650 f i CpiSubscription.obj
 0001:0004c6d0       ?begin@?$vector@PAVCpiSubscription@Net@OpenHome@@V?$allocator@PAVCpiSubscription@Net@OpenHome@@@std@@@std@@QAE?AV?$_Vector_iterator@V?$_Vector_val@PAVCpiSubscription@Net@OpenHome@@V?$allocator@PAVCpiSubscription@Net@OpenHome@@@std@@@std@@@2@XZ 1004d6d0 f i CpiSubscription.obj
 0001:0004c730       ?size@?$vector@PAVCpiSubscription@Net@OpenHome@@V?$allocator@PAVCpiSubscription@Net@OpenHome@@@std@@@std@@QBEIXZ 1004d730 f i CpiSubscription.obj
 0001:0004c760       ??A?$vector@PAVCpiSubscription@Net@OpenHome@@V?$allocator@PAVCpiSubscription@Net@OpenHome@@@std@@@std@@QAEAAPAVCpiSubscription@Net@OpenHome@@I@Z 1004d760 f i CpiSubscription.obj
 0001:0004c820       ?push_back@?$vector@PAVCpiSubscription@Net@OpenHome@@V?$allocator@PAVCpiSubscription@Net@OpenHome@@@std@@@std@@QAEXABQAVCpiSubscription@Net@OpenHome@@@Z 1004d820 f i CpiSubscription.obj
 0001:0004c970       ?erase@?$vector@PAVCpiSubscription@Net@OpenHome@@V?$allocator@PAVCpiSubscription@Net@OpenHome@@@std@@@std@@QAE?AV?$_Vector_iterator@V?$_Vector_val@PAVCpiSubscription@Net@OpenHome@@V?$allocator@PAVCpiSubscription@Net@OpenHome@@@std@@@std@@@2@V?$_Vector_const_iterator@V?$_Vector_val@PAVCpiSubscription@Net@OpenHome@@V?$allocator@PAVCpiSubscription@Net@OpenHome@@@std@@@std@@@2@@Z 1004d970 f i CpiSubscription.obj
 0001:0004caf0       ??C?$_Tree_iterator@V?$_Tree_val@V?$_Tmap_traits@VBrn@OpenHome@@PAVCpiSubscription@Net@2@VBufferCmp@2@V?$allocator@U?$pair@$$CBVBrn@OpenHome@@PAVCpiSubscription@Net@2@@std@@@std@@$0A@@std@@@std@@@std@@QBEPAU?$pair@$$CBVBrn@OpenHome@@PAVCpiSubscription@Net@2@@1@XZ 1004daf0 f i CpiSubscription.obj
 0001:0004cb20       ??E?$_Tree_iterator@V?$_Tree_val@V?$_Tmap_traits@VBrn@OpenHome@@PAVCpiSubscription@Net@2@VBufferCmp@2@V?$allocator@U?$pair@$$CBVBrn@OpenHome@@PAVCpiSubscription@Net@2@@std@@@std@@$0A@@std@@@std@@@std@@QAE?AV01@H@Z 1004db20 f i CpiSubscription.obj
 0001:0004cc20       ??8?$_Tree_const_iterator@V?$_Tree_val@V?$_Tmap_traits@VBrn@OpenHome@@PAVCpiSubscription@Net@2@VBufferCmp@2@V?$allocator@U?$pair@$$CBVBrn@OpenHome@@PAVCpiSubscription@Net@2@@std@@@std@@$0A@@std@@@std@@@std@@QBE_NABV01@@Z 1004dc20 f i CpiSubscription.obj
 0001:0004cd10       ??9?$_Tree_const_iterator@V?$_Tree_val@V?$_Tmap_traits@VBrn@OpenHome@@PAVCpiSubscription@Net@2@VBufferCmp@2@V?$allocator@U?$pair@$$CBVBrn@OpenHome@@PAVCpiSubscription@Net@2@@std@@@std@@$0A@@std@@@std@@@std@@QBE_NABV01@@Z 1004dd10 f i CpiSubscription.obj
 0001:0004cd60       ??H?$_Vector_iterator@V?$_Vector_val@PAVCpiSubscription@Net@OpenHome@@V?$allocator@PAVCpiSubscription@Net@OpenHome@@@std@@@std@@@std@@QBE?AV01@H@Z 1004dd60 f i CpiSubscription.obj
 0001:0004ce70       ??1?$_List_iterator@V?$_List_val@PAVCpiSubscription@Net@OpenHome@@V?$allocator@PAVCpiSubscription@Net@OpenHome@@@std@@@std@@@std@@QAE@XZ 1004de70 f i CpiSubscription.obj
 0001:0004cea0       ??0?$_List_const_iterator@V?$_List_val@PAVCpiSubscription@Net@OpenHome@@V?$allocator@PAVCpiSubscription@Net@OpenHome@@@std@@@std@@@std@@QAE@ABV01@@Z 1004dea0 f i CpiSubscription.obj
 0001:0004cee0       ??1?$_List_const_iterator@V?$_List_val@PAVCpiSubscription@Net@OpenHome@@V?$allocator@PAVCpiSubscription@Net@OpenHome@@@std@@@std@@@std@@QAE@XZ 1004dee0 f i CpiSubscription.obj
 0001:0004cf10       ??0?$_Tree_iterator@V?$_Tree_val@V?$_Tmap_traits@VBrn@OpenHome@@PAVCpiSubscription@Net@2@VBufferCmp@2@V?$allocator@U?$pair@$$CBVBrn@OpenHome@@PAVCpiSubscription@Net@2@@std@@@std@@$0A@@std@@@std@@@std@@QAE@ABV01@@Z 1004df10 f i CpiSubscription.obj
 0001:0004cf50       ??0?$_Vector_iterator@V?$_Vector_val@PAVCpiSubscription@Net@OpenHome@@V?$allocator@PAVCpiSubscription@Net@OpenHome@@@std@@@std@@@std@@QAE@ABV01@@Z 1004df50 f i CpiSubscription.obj
 0001:0004cf90       ??0?$_List_unchecked_const_iterator@V?$_List_val@PAVCpiSubscription@Net@OpenHome@@V?$allocator@PAVCpiSubscription@Net@OpenHome@@@std@@@std@@U_Iterator_base12@2@@std@@QAE@ABV01@@Z 1004df90 f i CpiSubscription.obj
 0001:0004cfe0       ??1?$_List_unchecked_const_iterator@V?$_List_val@PAVCpiSubscription@Net@OpenHome@@V?$allocator@PAVCpiSubscription@Net@OpenHome@@@std@@@std@@U_Iterator_base12@2@@std@@QAE@XZ 1004dfe0 f i CpiSubscription.obj
 0001:0004d010       ??0?$_Iterator012@Ubidirectional_iterator_tag@std@@PAVCpiSubscription@Net@OpenHome@@HPBQAV345@ABQAV345@U_Iterator_base12@2@@std@@QAE@ABU01@@Z 1004e010 f i CpiSubscription.obj
 0001:0004d050       ??1?$_Iterator012@Ubidirectional_iterator_tag@std@@PAVCpiSubscription@Net@OpenHome@@HPBQAV345@ABQAV345@U_Iterator_base12@2@@std@@QAE@XZ 1004e050 f i CpiSubscription.obj
 0001:0004d080       ?begin@?$list@PAVCpiSubscription@Net@OpenHome@@V?$allocator@PAVCpiSubscription@Net@OpenHome@@@std@@@std@@QAE?AV?$_List_iterator@V?$_List_val@PAVCpiSubscription@Net@OpenHome@@V?$allocator@PAVCpiSubscription@Net@OpenHome@@@std@@@std@@@2@XZ 1004e080 f i CpiSubscription.obj
 0001:0004d0f0       ?end@?$list@PAVCpiSubscription@Net@OpenHome@@V?$allocator@PAVCpiSubscription@Net@OpenHome@@@std@@@std@@QAE?AV?$_List_iterator@V?$_List_val@PAVCpiSubscription@Net@OpenHome@@V?$allocator@PAVCpiSubscription@Net@OpenHome@@@std@@@std@@@2@XZ 1004e0f0 f i CpiSubscription.obj
 0001:0004d150       ?erase@?$list@PAVCpiSubscription@Net@OpenHome@@V?$allocator@PAVCpiSubscription@Net@OpenHome@@@std@@@std@@QAE?AV?$_List_iterator@V?$_List_val@PAVCpiSubscription@Net@OpenHome@@V?$allocator@PAVCpiSubscription@Net@OpenHome@@@std@@@std@@@2@V?$_List_const_iterator@V?$_List_val@PAVCpiSubscription@Net@OpenHome@@V?$allocator@PAVCpiSubscription@Net@OpenHome@@@std@@@std@@@2@@Z 1004e150 f i CpiSubscription.obj
 0001:0004d340       ?_Tidy@?$list@PAVCpiSubscription@Net@OpenHome@@V?$allocator@PAVCpiSubscription@Net@OpenHome@@@std@@@std@@QAEXXZ 1004e340 f i CpiSubscription.obj
 0001:0004d370       ??0?$_List_val@PAVCpiSubscription@Net@OpenHome@@V?$allocator@PAVCpiSubscription@Net@OpenHome@@@std@@@std@@QAE@V?$allocator@PAVCpiSubscription@Net@OpenHome@@@1@@Z 1004e370 f i CpiSubscription.obj
 0001:0004d460       ??1?$_List_val@PAVCpiSubscription@Net@OpenHome@@V?$allocator@PAVCpiSubscription@Net@OpenHome@@@std@@@std@@QAE@XZ 1004e460 f i CpiSubscription.obj
 0001:0004d4f0       ??0?$allocator@PAVCpiSubscription@Net@OpenHome@@@std@@QAE@XZ 1004e4f0 f i CpiSubscription.obj
 0001:0004d510       ??0?$_Tree@V?$_Tmap_traits@VBrn@OpenHome@@PAVCpiSubscription@Net@2@VBufferCmp@2@V?$allocator@U?$pair@$$CBVBrn@OpenHome@@PAVCpiSubscription@Net@2@@std@@@std@@$0A@@std@@@std@@QAE@ABVBufferCmp@OpenHome@@ABV?$allocator@U?$pair@$$CBVBrn@OpenHome@@PAVCpiSubscription@Net@2@@std@@@1@@Z 1004e510 f i CpiSubscription.obj
 0001:0004d570       ?lower_bound@?$_Tree@V?$_Tmap_traits@VBrn@OpenHome@@PAVCpiSubscription@Net@2@VBufferCmp@2@V?$allocator@U?$pair@$$CBVBrn@OpenHome@@PAVCpiSubscription@Net@2@@std@@@std@@$0A@@std@@@std@@QAE?AV?$_Tree_iterator@V?$_Tree_val@V?$_Tmap_traits@VBrn@OpenHome@@PAVCpiSubscription@Net@2@VBufferCmp@2@V?$allocator@U?$pair@$$CBVBrn@OpenHome@@PAVCpiSubscription@Net@2@@std@@@std@@$0A@@std@@@std@@@2@ABVBrn@OpenHome@@@Z 1004e570 f i CpiSubscription.obj
 0001:0004d5e0       ?_Lmost@?$_Tree@V?$_Tmap_traits@VBrn@OpenHome@@PAVCpiSubscription@Net@2@VBufferCmp@2@V?$allocator@U?$pair@$$CBVBrn@OpenHome@@PAVCpiSubscription@Net@2@@std@@@std@@$0A@@std@@@std@@IBEAAPAU_Node@?$_Tree_nod@V?$_Tmap_traits@VBrn@OpenHome@@PAVCpiSubscription@Net@2@VBufferCmp@2@V?$allocator@U?$pair@$$CBVBrn@OpenHome@@PAVCpiSubscription@Net@2@@std@@@std@@$0A@@std@@@2@XZ 1004e5e0 f i CpiSubscription.obj
 0001:0004d620       ?_Lrotate@?$_Tree@V?$_Tmap_traits@VBrn@OpenHome@@PAVCpiSubscription@Net@2@VBufferCmp@2@V?$allocator@U?$pair@$$CBVBrn@OpenHome@@PAVCpiSubscription@Net@2@@std@@@std@@$0A@@std@@@std@@IAEXPAU_Node@?$_Tree_nod@V?$_Tmap_traits@VBrn@OpenHome@@PAVCpiSubscription@Net@2@VBufferCmp@2@V?$allocator@U?$pair@$$CBVBrn@OpenHome@@PAVCpiSubscription@Net@2@@std@@@std@@$0A@@std@@@2@@Z 1004e620 f i CpiSubscription.obj
 0001:0004d780       ?_Rmost@?$_Tree@V?$_Tmap_traits@VBrn@OpenHome@@PAVCpiSubscription@Net@2@VBufferCmp@2@V?$allocator@U?$pair@$$CBVBrn@OpenHome@@PAVCpiSubscription@Net@2@@std@@@std@@$0A@@std@@@std@@IBEAAPAU_Node@?$_Tree_nod@V?$_Tmap_traits@VBrn@OpenHome@@PAVCpiSubscription@Net@2@VBufferCmp@2@V?$allocator@U?$pair@$$CBVBrn@OpenHome@@PAVCpiSubscription@Net@2@@std@@@std@@$0A@@std@@@2@XZ 1004e780 f i CpiSubscription.obj
 0001:0004d7c0       ?_Root@?$_Tree@V?$_Tmap_traits@VBrn@OpenHome@@PAVCpiSubscription@Net@2@VBufferCmp@2@V?$allocator@U?$pair@$$CBVBrn@OpenHome@@PAVCpiSubscription@Net@2@@std@@@std@@$0A@@std@@@std@@IBEAAPAU_Node@?$_Tree_nod@V?$_Tmap_traits@VBrn@OpenHome@@PAVCpiSubscription@Net@2@VBufferCmp@2@V?$allocator@U?$pair@$$CBVBrn@OpenHome@@PAVCpiSubscription@Net@2@@std@@@std@@$0A@@std@@@2@XZ 1004e7c0 f i CpiSubscription.obj
 0001:0004d800       ?_Rrotate@?$_Tree@V?$_Tmap_traits@VBrn@OpenHome@@PAVCpiSubscription@Net@2@VBufferCmp@2@V?$allocator@U?$pair@$$CBVBrn@OpenHome@@PAVCpiSubscription@Net@2@@std@@@std@@$0A@@std@@@std@@IAEXPAU_Node@?$_Tree_nod@V?$_Tmap_traits@VBrn@OpenHome@@PAVCpiSubscription@Net@2@VBufferCmp@2@V?$allocator@U?$pair@$$CBVBrn@OpenHome@@PAVCpiSubscription@Net@2@@std@@@std@@$0A@@std@@@2@@Z 1004e800 f i CpiSubscription.obj
 0001:0004d960       ?_Orphan_ptr@?$_Tree@V?$_Tmap_traits@VBrn@OpenHome@@PAVCpiSubscription@Net@2@VBufferCmp@2@V?$allocator@U?$pair@$$CBVBrn@OpenHome@@PAVCpiSubscription@Net@2@@std@@@std@@$0A@@std@@@std@@IBEXAAV12@PAU_Node@?$_Tree_nod@V?$_Tmap_traits@VBrn@OpenHome@@PAVCpiSubscription@Net@2@VBufferCmp@2@V?$allocator@U?$pair@$$CBVBrn@OpenHome@@PAVCpiSubscription@Net@2@@std@@@std@@$0A@@std@@@2@@Z 1004e960 f i CpiSubscription.obj
 0001:0004dab0       ?_Tidy@?$_Tree@V?$_Tmap_traits@VBrn@OpenHome@@PAVCpiSubscription@Net@2@VBufferCmp@2@V?$allocator@U?$pair@$$CBVBrn@OpenHome@@PAVCpiSubscription@Net@2@@std@@@std@@$0A@@std@@@std@@IAEXXZ 1004eab0 f i CpiSubscription.obj
 0001:0004dbe0       ??1?$_Tree_val@V?$_Tmap_traits@VBrn@OpenHome@@PAVCpiSubscription@Net@2@VBufferCmp@2@V?$allocator@U?$pair@$$CBVBrn@OpenHome@@PAVCpiSubscription@Net@2@@std@@@std@@$0A@@std@@@std@@QAE@XZ 1004ebe0 f i CpiSubscription.obj
 0001:0004dc70       ?_Color@?$_Tree_val@V?$_Tmap_traits@VBrn@OpenHome@@PAVCpiSubscription@Net@2@VBufferCmp@2@V?$allocator@U?$pair@$$CBVBrn@OpenHome@@PAVCpiSubscription@Net@2@@std@@@std@@$0A@@std@@@std@@SGAADPAU_Node@?$_Tree_nod@V?$_Tmap_traits@VBrn@OpenHome@@PAVCpiSubscription@Net@2@VBufferCmp@2@V?$allocator@U?$pair@$$CBVBrn@OpenHome@@PAVCpiSubscription@Net@2@@std@@@std@@$0A@@std@@@2@@Z 1004ec70 f i CpiSubscription.obj
 0001:0004dc80       ?_Isnil@?$_Tree_val@V?$_Tmap_traits@VBrn@OpenHome@@PAVCpiSubscription@Net@2@VBufferCmp@2@V?$allocator@U?$pair@$$CBVBrn@OpenHome@@PAVCpiSubscription@Net@2@@std@@@std@@$0A@@std@@@std@@SGAADPAU_Node@?$_Tree_nod@V?$_Tmap_traits@VBrn@OpenHome@@PAVCpiSubscription@Net@2@VBufferCmp@2@V?$allocator@U?$pair@$$CBVBrn@OpenHome@@PAVCpiSubscription@Net@2@@std@@@std@@$0A@@std@@@2@@Z 1004ec80 f i CpiSubscription.obj
 0001:0004dc90       ?_Key@?$_Tree_val@V?$_Tmap_traits@VBrn@OpenHome@@PAVCpiSubscription@Net@2@VBufferCmp@2@V?$allocator@U?$pair@$$CBVBrn@OpenHome@@PAVCpiSubscription@Net@2@@std@@@std@@$0A@@std@@@std@@SGAAVBrn@OpenHome@@PAU_Node@?$_Tree_nod@V?$_Tmap_traits@VBrn@OpenHome@@PAVCpiSubscription@Net@2@VBufferCmp@2@V?$allocator@U?$pair@$$CBVBrn@OpenHome@@PAVCpiSubscription@Net@2@@std@@@std@@$0A@@std@@@2@@Z 1004ec90 f i CpiSubscription.obj
 0001:0004dcc0       ?_Left@?$_Tree_val@V?$_Tmap_traits@VBrn@OpenHome@@PAVCpiSubscription@Net@2@VBufferCmp@2@V?$allocator@U?$pair@$$CBVBrn@OpenHome@@PAVCpiSubscription@Net@2@@std@@@std@@$0A@@std@@@std@@SGAAPAU_Node@?$_Tree_nod@V?$_Tmap_traits@VBrn@OpenHome@@PAVCpiSubscription@Net@2@VBufferCmp@2@V?$allocator@U?$pair@$$CBVBrn@OpenHome@@PAVCpiSubscription@Net@2@@std@@@std@@$0A@@std@@@2@PAU342@@Z 1004ecc0 f i CpiSubscription.obj
 0001:0004dcd0       ?_Parent@?$_Tree_val@V?$_Tmap_traits@VBrn@OpenHome@@PAVCpiSubscription@Net@2@VBufferCmp@2@V?$allocator@U?$pair@$$CBVBrn@OpenHome@@PAVCpiSubscription@Net@2@@std@@@std@@$0A@@std@@@std@@SGAAPAU_Node@?$_Tree_nod@V?$_Tmap_traits@VBrn@OpenHome@@PAVCpiSubscription@Net@2@VBufferCmp@2@V?$allocator@U?$pair@$$CBVBrn@OpenHome@@PAVCpiSubscription@Net@2@@std@@@std@@$0A@@std@@@2@PAU342@@Z 1004ecd0 f i CpiSubscription.obj
 0001:0004dce0       ?_Right@?$_Tree_val@V?$_Tmap_traits@VBrn@OpenHome@@PAVCpiSubscription@Net@2@VBufferCmp@2@V?$allocator@U?$pair@$$CBVBrn@OpenHome@@PAVCpiSubscription@Net@2@@std@@@std@@$0A@@std@@@std@@SGAAPAU_Node@?$_Tree_nod@V?$_Tmap_traits@VBrn@OpenHome@@PAVCpiSubscription@Net@2@VBufferCmp@2@V?$allocator@U?$pair@$$CBVBrn@OpenHome@@PAVCpiSubscription@Net@2@@std@@@std@@$0A@@std@@@2@PAU342@@Z 1004ece0 f i CpiSubscription.obj
 0001:0004dcf0       ?_Myval@?$_Tree_val@V?$_Tmap_traits@VBrn@OpenHome@@PAVCpiSubscription@Net@2@VBufferCmp@2@V?$allocator@U?$pair@$$CBVBrn@OpenHome@@PAVCpiSubscription@Net@2@@std@@@std@@$0A@@std@@@std@@SGAAU?$pair@$$CBVBrn@OpenHome@@PAVCpiSubscription@Net@2@@2@PAU_Node@?$_Tree_nod@V?$_Tmap_traits@VBrn@OpenHome@@PAVCpiSubscription@Net@2@VBufferCmp@2@V?$allocator@U?$pair@$$CBVBrn@OpenHome@@PAVCpiSubscription@Net@2@@std@@@std@@$0A@@std@@@2@@Z 1004ecf0 f i CpiSubscription.obj
 0001:0004dd00       ?_Max@?$_Tree_val@V?$_Tmap_traits@VBrn@OpenHome@@PAVCpiSubscription@Net@2@VBufferCmp@2@V?$allocator@U?$pair@$$CBVBrn@OpenHome@@PAVCpiSubscription@Net@2@@std@@@std@@$0A@@std@@@std@@SGPAU_Node@?$_Tree_nod@V?$_Tmap_traits@VBrn@OpenHome@@PAVCpiSubscription@Net@2@VBufferCmp@2@V?$allocator@U?$pair@$$CBVBrn@OpenHome@@PAVCpiSubscription@Net@2@@std@@@std@@$0A@@std@@@2@PAU342@@Z 1004ed00 f i CpiSubscription.obj
 0001:0004dd50       ?_Min@?$_Tree_val@V?$_Tmap_traits@VBrn@OpenHome@@PAVCpiSubscription@Net@2@VBufferCmp@2@V?$allocator@U?$pair@$$CBVBrn@OpenHome@@PAVCpiSubscription@Net@2@@std@@@std@@$0A@@std@@@std@@SGPAU_Node@?$_Tree_nod@V?$_Tmap_traits@VBrn@OpenHome@@PAVCpiSubscription@Net@2@VBufferCmp@2@V?$allocator@U?$pair@$$CBVBrn@OpenHome@@PAVCpiSubscription@Net@2@@std@@@std@@$0A@@std@@@2@PAU342@@Z 1004ed50 f i CpiSubscription.obj
 0001:0004dda0       ??0?$allocator@U?$pair@$$CBVBrn@OpenHome@@PAVCpiSubscription@Net@2@@std@@@std@@QAE@XZ 1004eda0 f i CpiSubscription.obj
 0001:0004ddc0       ?deallocate@?$allocator@U_Node@?$_Tree_nod@V?$_Tmap_traits@VBrn@OpenHome@@PAVCpiSubscription@Net@2@VBufferCmp@2@V?$allocator@U?$pair@$$CBVBrn@OpenHome@@PAVCpiSubscription@Net@2@@std@@@std@@$0A@@std@@@std@@@std@@QAEXPAU_Node@?$_Tree_nod@V?$_Tmap_traits@VBrn@OpenHome@@PAVCpiSubscription@Net@2@VBufferCmp@2@V?$allocator@U?$pair@$$CBVBrn@OpenHome@@PAVCpiSubscription@Net@2@@std@@@std@@$0A@@std@@@2@I@Z 1004edc0 f i CpiSubscription.obj
 0001:0004de00       ?_Make_iter@?$vector@PAVCpiSubscription@Net@OpenHome@@V?$allocator@PAVCpiSubscription@Net@OpenHome@@@std@@@std@@QBE?AV?$_Vector_iterator@V?$_Vector_val@PAVCpiSubscription@Net@OpenHome@@V?$allocator@PAVCpiSubscription@Net@OpenHome@@@std@@@std@@@2@V?$_Vector_const_iterator@V?$_Vector_val@PAVCpiSubscription@Net@OpenHome@@V?$allocator@PAVCpiSubscription@Net@OpenHome@@@std@@@std@@@2@@Z 1004ee00 f i CpiSubscription.obj
 0001:0004deb0       ?_Destroy@?$vector@PAVCpiSubscription@Net@OpenHome@@V?$allocator@PAVCpiSubscription@Net@OpenHome@@@std@@@std@@IAEXPAPAVCpiSubscription@Net@OpenHome@@0@Z 1004eeb0 f i CpiSubscription.obj
 0001:0004def0       ?_Inside@?$vector@PAVCpiSubscription@Net@OpenHome@@V?$allocator@PAVCpiSubscription@Net@OpenHome@@@std@@@std@@IBE_NPBQAVCpiSubscription@Net@OpenHome@@@Z 1004eef0 f i CpiSubscription.obj
 0001:0004df50       ?_Reserve@?$vector@PAVCpiSubscription@Net@OpenHome@@V?$allocator@PAVCpiSubscription@Net@OpenHome@@@std@@@std@@IAEXI@Z 1004ef50 f i CpiSubscription.obj
 0001:0004dff0       ?_Tidy@?$vector@PAVCpiSubscription@Net@OpenHome@@V?$allocator@PAVCpiSubscription@Net@OpenHome@@@std@@@std@@IAEXXZ 1004eff0 f i CpiSubscription.obj
 0001:0004e0a0       ?_Orphan_range@?$vector@PAVCpiSubscription@Net@OpenHome@@V?$allocator@PAVCpiSubscription@Net@OpenHome@@@std@@@std@@IBEXPAPAVCpiSubscription@Net@OpenHome@@0@Z 1004f0a0 f i CpiSubscription.obj
 0001:0004e1f0       ??0?$_Vector_val@PAVCpiSubscription@Net@OpenHome@@V?$allocator@PAVCpiSubscription@Net@OpenHome@@@std@@@std@@QAE@V?$allocator@PAVCpiSubscription@Net@OpenHome@@@1@@Z 1004f1f0 f i CpiSubscription.obj
 0001:0004e350       ??1?$_Vector_val@PAVCpiSubscription@Net@OpenHome@@V?$allocator@PAVCpiSubscription@Net@OpenHome@@@std@@@std@@QAE@XZ 1004f350 f i CpiSubscription.obj
 0001:0004e460       ??0?$_Tree_iterator@V?$_Tree_val@V?$_Tmap_traits@VBrn@OpenHome@@PAVCpiSubscription@Net@2@VBufferCmp@2@V?$allocator@U?$pair@$$CBVBrn@OpenHome@@PAVCpiSubscription@Net@2@@std@@@std@@$0A@@std@@@std@@@std@@QAE@PAU_Node@?$_Tree_nod@V?$_Tmap_traits@VBrn@OpenHome@@PAVCpiSubscription@Net@2@VBufferCmp@2@V?$allocator@U?$pair@$$CBVBrn@OpenHome@@PAVCpiSubscription@Net@2@@std@@@std@@$0A@@std@@@1@PBV?$_Tree_val@V?$_Tmap_traits@VBrn@OpenHome@@PAVCpiSubscription@Net@2@VBufferCmp@2@V?$allocator@U?$pair@$$CBVBrn@OpenHome@@PAVCpiSubscription@Net@2@@std@@@std@@$0A@@std@@@1@@Z 1004f460 f i CpiSubscription.obj
 0001:0004e4a0       ??D?$_Tree_iterator@V?$_Tree_val@V?$_Tmap_traits@VBrn@OpenHome@@PAVCpiSubscription@Net@2@VBufferCmp@2@V?$allocator@U?$pair@$$CBVBrn@OpenHome@@PAVCpiSubscription@Net@2@@std@@@std@@$0A@@std@@@std@@@std@@QBEAAU?$pair@$$CBVBrn@OpenHome@@PAVCpiSubscription@Net@2@@1@XZ 1004f4a0 f i CpiSubscription.obj
 0001:0004e4d0       ??E?$_Tree_iterator@V?$_Tree_val@V?$_Tmap_traits@VBrn@OpenHome@@PAVCpiSubscription@Net@2@VBufferCmp@2@V?$allocator@U?$pair@$$CBVBrn@OpenHome@@PAVCpiSubscription@Net@2@@std@@@std@@$0A@@std@@@std@@@std@@QAEAAV01@XZ 1004f4d0 f i CpiSubscription.obj
 0001:0004e500       ??E?$_Tree_const_iterator@V?$_Tree_val@V?$_Tmap_traits@VBrn@OpenHome@@PAVCpiSubscription@Net@2@VBufferCmp@2@V?$allocator@U?$pair@$$CBVBrn@OpenHome@@PAVCpiSubscription@Net@2@@std@@@std@@$0A@@std@@@std@@@std@@QAEAAV01@XZ 1004f500 f i CpiSubscription.obj
 0001:0004e5e0       ?_Mynode@?$_Tree_unchecked_const_iterator@V?$_Tree_val@V?$_Tmap_traits@VBrn@OpenHome@@PAVCpiSubscription@Net@2@VBufferCmp@2@V?$allocator@U?$pair@$$CBVBrn@OpenHome@@PAVCpiSubscription@Net@2@@std@@@std@@$0A@@std@@@std@@U_Iterator_base12@2@@std@@QBEPAU_Node@?$_Tree_nod@V?$_Tmap_traits@VBrn@OpenHome@@PAVCpiSubscription@Net@2@VBufferCmp@2@V?$allocator@U?$pair@$$CBVBrn@OpenHome@@PAVCpiSubscription@Net@2@@std@@@std@@$0A@@std@@@2@XZ 1004f5e0 f i CpiSubscription.obj
 0001:0004e600       ??0?$_Vector_iterator@V?$_Vector_val@PAVCpiSubscription@Net@OpenHome@@V?$allocator@PAVCpiSubscription@Net@OpenHome@@@std@@@std@@@std@@QAE@PAPAVCpiSubscription@Net@OpenHome@@PBU_Container_base12@1@@Z 1004f600 f i CpiSubscription.obj
 0001:0004e640       ??Y?$_Vector_iterator@V?$_Vector_val@PAVCpiSubscription@Net@OpenHome@@V?$allocator@PAVCpiSubscription@Net@OpenHome@@@std@@@std@@@std@@QAEAAV01@H@Z 1004f640 f i CpiSubscription.obj
 0001:0004e680       ??D?$_List_iterator@V?$_List_val@PAVCpiSubscription@Net@OpenHome@@V?$allocator@PAVCpiSubscription@Net@OpenHome@@@std@@@std@@@std@@QBEAAPAVCpiSubscription@Net@OpenHome@@XZ 1004f680 f i CpiSubscription.obj
 0001:0004e6b0       ?_Make_iter@?$list@PAVCpiSubscription@Net@OpenHome@@V?$allocator@PAVCpiSubscription@Net@OpenHome@@@std@@@std@@QBE?AV?$_List_iterator@V?$_List_val@PAVCpiSubscription@Net@OpenHome@@V?$allocator@PAVCpiSubscription@Net@OpenHome@@@std@@@std@@@2@V?$_List_const_iterator@V?$_List_val@PAVCpiSubscription@Net@OpenHome@@V?$allocator@PAVCpiSubscription@Net@OpenHome@@@std@@@std@@@2@@Z 1004f6b0 f i CpiSubscription.obj
 0001:0004e760       ?clear@?$list@PAVCpiSubscription@Net@OpenHome@@V?$allocator@PAVCpiSubscription@Net@OpenHome@@@std@@@std@@QAEXXZ 1004f760 f i CpiSubscription.obj
 0001:0004e860       ?_Orphan_ptr@?$list@PAVCpiSubscription@Net@OpenHome@@V?$allocator@PAVCpiSubscription@Net@OpenHome@@@std@@@std@@QBEXAAV12@PAU_Node@?$_List_nod@PAVCpiSubscription@Net@OpenHome@@V?$allocator@PAVCpiSubscription@Net@OpenHome@@@std@@@2@@Z 1004f860 f i CpiSubscription.obj
 0001:0004e9b0       ?_Nextnode@?$_List_val@PAVCpiSubscription@Net@OpenHome@@V?$allocator@PAVCpiSubscription@Net@OpenHome@@@std@@@std@@SGAAPAU_Node@?$_List_nod@PAVCpiSubscription@Net@OpenHome@@V?$allocator@PAVCpiSubscription@Net@OpenHome@@@std@@@2@PAU342@@Z 1004f9b0 f i CpiSubscription.obj
 0001:0004e9c0       ?_Prevnode@?$_List_val@PAVCpiSubscription@Net@OpenHome@@V?$allocator@PAVCpiSubscription@Net@OpenHome@@@std@@@std@@SGAAPAU_Node@?$_List_nod@PAVCpiSubscription@Net@OpenHome@@V?$allocator@PAVCpiSubscription@Net@OpenHome@@@std@@@2@PAU342@@Z 1004f9c0 f i CpiSubscription.obj
 0001:0004e9d0       ??0?$_List_nod@PAVCpiSubscription@Net@OpenHome@@V?$allocator@PAVCpiSubscription@Net@OpenHome@@@std@@@std@@QAE@V?$allocator@PAVCpiSubscription@Net@OpenHome@@@1@@Z 1004f9d0 f i CpiSubscription.obj
 0001:0004eb20       ??1?$_List_nod@PAVCpiSubscription@Net@OpenHome@@V?$allocator@PAVCpiSubscription@Net@OpenHome@@@std@@@std@@QAE@XZ 1004fb20 f i CpiSubscription.obj
 0001:0004ec30       ??0?$allocator@PAVCpiSubscription@Net@OpenHome@@@std@@QAE@ABV01@@Z 1004fc30 f i CpiSubscription.obj
 0001:0004ec50       ?deallocate@?$allocator@PAVCpiSubscription@Net@OpenHome@@@std@@QAEXPAPAVCpiSubscription@Net@OpenHome@@I@Z 1004fc50 f i CpiSubscription.obj
 0001:0004ec90       ?deallocate@?$allocator@U_Node@?$_List_nod@PAVCpiSubscription@Net@OpenHome@@V?$allocator@PAVCpiSubscription@Net@OpenHome@@@std@@@std@@@std@@QAEXPAU_Node@?$_List_nod@PAVCpiSubscription@Net@OpenHome@@V?$allocator@PAVCpiSubscription@Net@OpenHome@@@std@@@2@I@Z 1004fc90 f i CpiSubscription.obj
 0001:0004ecd0       ?allocate@?$allocator@U_Node@?$_List_nod@PAVCpiSubscription@Net@OpenHome@@V?$allocator@PAVCpiSubscription@Net@OpenHome@@@std@@@std@@@std@@QAEPAU_Node@?$_List_nod@PAVCpiSubscription@Net@OpenHome@@V?$allocator@PAVCpiSubscription@Net@OpenHome@@@std@@@2@I@Z 1004fcd0 f i CpiSubscription.obj
 0001:0004ed10       ?erase@?$_Tree@V?$_Tmap_traits@VBrn@OpenHome@@PAVCpiSubscription@Net@2@VBufferCmp@2@V?$allocator@U?$pair@$$CBVBrn@OpenHome@@PAVCpiSubscription@Net@2@@std@@@std@@$0A@@std@@@std@@QAE?AV?$_Tree_iterator@V?$_Tree_val@V?$_Tmap_traits@VBrn@OpenHome@@PAVCpiSubscription@Net@2@VBufferCmp@2@V?$allocator@U?$pair@$$CBVBrn@OpenHome@@PAVCpiSubscription@Net@2@@std@@@std@@$0A@@std@@@std@@@2@V?$_Tree_const_iterator@V?$_Tree_val@V?$_Tmap_traits@VBrn@OpenHome@@PAVCpiSubscription@Net@2@VBufferCmp@2@V?$allocator@U?$pair@$$CBVBrn@OpenHome@@PAVCpiSubscription@Net@2@@std@@@std@@$0A@@std@@@std@@@2@0@Z 1004fd10 f i CpiSubscription.obj
 0001:0004ef90       ?_Lbound@?$_Tree@V?$_Tmap_traits@VBrn@OpenHome@@PAVCpiSubscription@Net@2@VBufferCmp@2@V?$allocator@U?$pair@$$CBVBrn@OpenHome@@PAVCpiSubscription@Net@2@@std@@@std@@$0A@@std@@@std@@IAEPAU_Node@?$_Tree_nod@V?$_Tmap_traits@VBrn@OpenHome@@PAVCpiSubscription@Net@2@VBufferCmp@2@V?$allocator@U?$pair@$$CBVBrn@OpenHome@@PAVCpiSubscription@Net@2@@std@@@std@@$0A@@std@@@2@ABVBrn@OpenHome@@@Z 1004ff90 f i CpiSubscription.obj
 0001:0004f070       ??0?$_Tree_val@V?$_Tmap_traits@VBrn@OpenHome@@PAVCpiSubscription@Net@2@VBufferCmp@2@V?$allocator@U?$pair@$$CBVBrn@OpenHome@@PAVCpiSubscription@Net@2@@std@@@std@@$0A@@std@@@std@@QAE@ABVBufferCmp@OpenHome@@V?$allocator@U?$pair@$$CBVBrn@OpenHome@@PAVCpiSubscription@Net@2@@std@@@1@@Z 10050070 f i CpiSubscription.obj
 0001:0004f1b0       ??1?$_Tree_nod@V?$_Tmap_traits@VBrn@OpenHome@@PAVCpiSubscription@Net@2@VBufferCmp@2@V?$allocator@U?$pair@$$CBVBrn@OpenHome@@PAVCpiSubscription@Net@2@@std@@@std@@$0A@@std@@@std@@QAE@XZ 100501b0 f i CpiSubscription.obj
 0001:0004f2c0       ??0?$allocator@U?$pair@$$CBVBrn@OpenHome@@PAVCpiSubscription@Net@2@@std@@@std@@QAE@ABV01@@Z 100502c0 f i CpiSubscription.obj
 0001:0004f2e0       ?reserve@?$vector@PAVCpiSubscription@Net@OpenHome@@V?$allocator@PAVCpiSubscription@Net@OpenHome@@@std@@@std@@QAEXI@Z 100502e0 f i CpiSubscription.obj
 0001:0004f4b0       ?capacity@?$vector@PAVCpiSubscription@Net@OpenHome@@V?$allocator@PAVCpiSubscription@Net@OpenHome@@@std@@@std@@QBEIXZ 100504b0 f i CpiSubscription.obj
 0001:0004f4e0       ?max_size@?$vector@PAVCpiSubscription@Net@OpenHome@@V?$allocator@PAVCpiSubscription@Net@OpenHome@@@std@@@std@@QBEIXZ 100504e0 f i CpiSubscription.obj
 0001:0004f510       ?_Grow_to@?$vector@PAVCpiSubscription@Net@OpenHome@@V?$allocator@PAVCpiSubscription@Net@OpenHome@@@std@@@std@@IBEII@Z 10050510 f i CpiSubscription.obj
 0001:0004f5b0       ?_Xlen@?$vector@PAVCpiSubscription@Net@OpenHome@@V?$allocator@PAVCpiSubscription@Net@OpenHome@@@std@@@std@@IBEXXZ 100505b0 f i CpiSubscription.obj
 0001:0004f5e0       ??0?$_Tree_const_iterator@V?$_Tree_val@V?$_Tmap_traits@VBrn@OpenHome@@PAVCpiSubscription@Net@2@VBufferCmp@2@V?$allocator@U?$pair@$$CBVBrn@OpenHome@@PAVCpiSubscription@Net@2@@std@@@std@@$0A@@std@@@std@@@std@@QAE@PAU_Node@?$_Tree_nod@V?$_Tmap_traits@VBrn@OpenHome@@PAVCpiSubscription@Net@2@VBufferCmp@2@V?$allocator@U?$pair@$$CBVBrn@OpenHome@@PAVCpiSubscription@Net@2@@std@@@std@@$0A@@std@@@1@PBV?$_Tree_val@V?$_Tmap_traits@VBrn@OpenHome@@PAVCpiSubscription@Net@2@VBufferCmp@2@V?$allocator@U?$pair@$$CBVBrn@OpenHome@@PAVCpiSubscription@Net@2@@std@@@std@@$0A@@std@@@1@@Z 100505e0 f i CpiSubscription.obj
 0001:0004f620       ??D?$_Tree_const_iterator@V?$_Tree_val@V?$_Tmap_traits@VBrn@OpenHome@@PAVCpiSubscription@Net@2@VBufferCmp@2@V?$allocator@U?$pair@$$CBVBrn@OpenHome@@PAVCpiSubscription@Net@2@@std@@@std@@$0A@@std@@@std@@@std@@QBEABU?$pair@$$CBVBrn@OpenHome@@PAVCpiSubscription@Net@2@@1@XZ 10050620 f i CpiSubscription.obj
 0001:0004f700       ??E?$_Tree_unchecked_const_iterator@V?$_Tree_val@V?$_Tmap_traits@VBrn@OpenHome@@PAVCpiSubscription@Net@2@VBufferCmp@2@V?$allocator@U?$pair@$$CBVBrn@OpenHome@@PAVCpiSubscription@Net@2@@std@@@std@@$0A@@std@@@std@@U_Iterator_base12@2@@std@@QAEAAV01@XZ 10050700 f i CpiSubscription.obj
 0001:0004f7f0       ??0?$_Vector_const_iterator@V?$_Vector_val@PAVCpiSubscription@Net@OpenHome@@V?$allocator@PAVCpiSubscription@Net@OpenHome@@@std@@@std@@@std@@QAE@PAPAVCpiSubscription@Net@OpenHome@@PBU_Container_base12@1@@Z 100507f0 f i CpiSubscription.obj
 0001:0004f890       ??Y?$_Vector_const_iterator@V?$_Vector_val@PAVCpiSubscription@Net@OpenHome@@V?$allocator@PAVCpiSubscription@Net@OpenHome@@@std@@@std@@@std@@QAEAAV01@H@Z 10050890 f i CpiSubscription.obj
 0001:0004f9a0       ??0?$_List_iterator@V?$_List_val@PAVCpiSubscription@Net@OpenHome@@V?$allocator@PAVCpiSubscription@Net@OpenHome@@@std@@@std@@@std@@QAE@PAU_Node@?$_List_nod@PAVCpiSubscription@Net@OpenHome@@V?$allocator@PAVCpiSubscription@Net@OpenHome@@@std@@@1@PBV?$_List_val@PAVCpiSubscription@Net@OpenHome@@V?$allocator@PAVCpiSubscription@Net@OpenHome@@@std@@@1@@Z 100509a0 f i CpiSubscription.obj
 0001:0004f9e0       ??D?$_List_const_iterator@V?$_List_val@PAVCpiSubscription@Net@OpenHome@@V?$allocator@PAVCpiSubscription@Net@OpenHome@@@std@@@std@@@std@@QBEABQAVCpiSubscription@Net@OpenHome@@XZ 100509e0 f i CpiSubscription.obj
 0001:0004fac0       ??E?$_List_const_iterator@V?$_List_val@PAVCpiSubscription@Net@OpenHome@@V?$allocator@PAVCpiSubscription@Net@OpenHome@@@std@@@std@@@std@@QAE?AV01@H@Z 10050ac0 f i CpiSubscription.obj
 0001:0004fbc0       ?_Mynode@?$_List_unchecked_const_iterator@V?$_List_val@PAVCpiSubscription@Net@OpenHome@@V?$allocator@PAVCpiSubscription@Net@OpenHome@@@std@@@std@@U_Iterator_base12@2@@std@@QBEPAU_Node@?$_List_nod@PAVCpiSubscription@Net@OpenHome@@V?$allocator@PAVCpiSubscription@Net@OpenHome@@@std@@@2@XZ 10050bc0 f i CpiSubscription.obj
 0001:0004fbe0       ??1?$_Tmap_traits@VBrn@OpenHome@@PAVCpiSubscription@Net@2@VBufferCmp@2@V?$allocator@U?$pair@$$CBVBrn@OpenHome@@PAVCpiSubscription@Net@2@@std@@@std@@$0A@@std@@QAE@XZ 10050be0 f i CpiSubscription.obj
 0001:0004fc10       ??0?$_Iterator012@Urandom_access_iterator_tag@std@@PAVCpiSubscription@Net@OpenHome@@HPBQAV345@ABQAV345@U_Iterator_base12@2@@std@@QAE@XZ 10050c10 f i CpiSubscription.obj
 0001:0004fc40       ?_Myval@?$_List_val@PAVCpiSubscription@Net@OpenHome@@V?$allocator@PAVCpiSubscription@Net@OpenHome@@@std@@@std@@SGAAPAVCpiSubscription@Net@OpenHome@@PAU_Node@?$_List_nod@PAVCpiSubscription@Net@OpenHome@@V?$allocator@PAVCpiSubscription@Net@OpenHome@@@std@@@2@@Z 10050c40 f i CpiSubscription.obj
 0001:0004fc50       ?allocate@?$allocator@PAVCpiSubscription@Net@OpenHome@@@std@@QAEPAPAVCpiSubscription@Net@OpenHome@@I@Z 10050c50 f i CpiSubscription.obj
 0001:0004fc90       ?max_size@?$allocator@PAVCpiSubscription@Net@OpenHome@@@std@@QBEIXZ 10050c90 f i CpiSubscription.obj
 0001:0004fcf0       ?clear@?$_Tree@V?$_Tmap_traits@VBrn@OpenHome@@PAVCpiSubscription@Net@2@VBufferCmp@2@V?$allocator@U?$pair@$$CBVBrn@OpenHome@@PAVCpiSubscription@Net@2@@std@@@std@@$0A@@std@@@std@@QAEXXZ 10050cf0 f i CpiSubscription.obj
 0001:0004fd90       ??0?$_Tree_nod@V?$_Tmap_traits@VBrn@OpenHome@@PAVCpiSubscription@Net@2@VBufferCmp@2@V?$allocator@U?$pair@$$CBVBrn@OpenHome@@PAVCpiSubscription@Net@2@@std@@@std@@$0A@@std@@@std@@QAE@ABVBufferCmp@OpenHome@@V?$allocator@U?$pair@$$CBVBrn@OpenHome@@PAVCpiSubscription@Net@2@@std@@@1@@Z 10050d90 f i CpiSubscription.obj
 0001:0004fee0       ?allocate@?$allocator@U_Node@?$_Tree_nod@V?$_Tmap_traits@VBrn@OpenHome@@PAVCpiSubscription@Net@2@VBufferCmp@2@V?$allocator@U?$pair@$$CBVBrn@OpenHome@@PAVCpiSubscription@Net@2@@std@@@std@@$0A@@std@@@std@@@std@@QAEPAU_Node@?$_Tree_nod@V?$_Tmap_traits@VBrn@OpenHome@@PAVCpiSubscription@Net@2@VBufferCmp@2@V?$allocator@U?$pair@$$CBVBrn@OpenHome@@PAVCpiSubscription@Net@2@@std@@@std@@$0A@@std@@@2@I@Z 10050ee0 f i CpiSubscription.obj
 0001:0004ff20       ??E?$_Tree_const_iterator@V?$_Tree_val@V?$_Tmap_traits@VBrn@OpenHome@@PAVCpiSubscription@Net@2@VBufferCmp@2@V?$allocator@U?$pair@$$CBVBrn@OpenHome@@PAVCpiSubscription@Net@2@@std@@@std@@$0A@@std@@@std@@@std@@QAE?AV01@H@Z 10050f20 f i CpiSubscription.obj
 0001:00050020       ??0?$_Tree_unchecked_const_iterator@V?$_Tree_val@V?$_Tmap_traits@VBrn@OpenHome@@PAVCpiSubscription@Net@2@VBufferCmp@2@V?$allocator@U?$pair@$$CBVBrn@OpenHome@@PAVCpiSubscription@Net@2@@std@@@std@@$0A@@std@@@std@@U_Iterator_base12@2@@std@@QAE@PAU_Node@?$_Tree_nod@V?$_Tmap_traits@VBrn@OpenHome@@PAVCpiSubscription@Net@2@VBufferCmp@2@V?$allocator@U?$pair@$$CBVBrn@OpenHome@@PAVCpiSubscription@Net@2@@std@@@std@@$0A@@std@@@1@PBV?$_Tree_val@V?$_Tmap_traits@VBrn@OpenHome@@PAVCpiSubscription@Net@2@VBufferCmp@2@V?$allocator@U?$pair@$$CBVBrn@OpenHome@@PAVCpiSubscription@Net@2@@std@@@std@@$0A@@std@@@1@@Z 10051020 f i CpiSubscription.obj
 0001:000500c0       ??0?$_List_const_iterator@V?$_List_val@PAVCpiSubscription@Net@OpenHome@@V?$allocator@PAVCpiSubscription@Net@OpenHome@@@std@@@std@@@std@@QAE@PAU_Node@?$_List_nod@PAVCpiSubscription@Net@OpenHome@@V?$allocator@PAVCpiSubscription@Net@OpenHome@@@std@@@1@PBV?$_List_val@PAVCpiSubscription@Net@OpenHome@@V?$allocator@PAVCpiSubscription@Net@OpenHome@@@std@@@1@@Z 100510c0 f i CpiSubscription.obj
 0001:00050100       ??E?$_List_const_iterator@V?$_List_val@PAVCpiSubscription@Net@OpenHome@@V?$allocator@PAVCpiSubscription@Net@OpenHome@@@std@@@std@@@std@@QAEAAV01@XZ 10051100 f i CpiSubscription.obj
 0001:000501f0       ??0?$_Iterator012@Ubidirectional_iterator_tag@std@@U?$pair@$$CBVBrn@OpenHome@@PAVCpiSubscription@Net@2@@2@HPBU32@ABU32@U_Iterator_base12@2@@std@@QAE@XZ 100511f0 f i CpiSubscription.obj
 0001:00050220       ?_Erase@?$_Tree@V?$_Tmap_traits@VBrn@OpenHome@@PAVCpiSubscription@Net@2@VBufferCmp@2@V?$allocator@U?$pair@$$CBVBrn@OpenHome@@PAVCpiSubscription@Net@2@@std@@@std@@$0A@@std@@@std@@IAEXPAU_Node@?$_Tree_nod@V?$_Tmap_traits@VBrn@OpenHome@@PAVCpiSubscription@Net@2@VBufferCmp@2@V?$allocator@U?$pair@$$CBVBrn@OpenHome@@PAVCpiSubscription@Net@2@@std@@@std@@$0A@@std@@@2@@Z 10051220 f i CpiSubscription.obj
 0001:000502e0       ??0?$_Tmap_traits@VBrn@OpenHome@@PAVCpiSubscription@Net@2@VBufferCmp@2@V?$allocator@U?$pair@$$CBVBrn@OpenHome@@PAVCpiSubscription@Net@2@@std@@@std@@$0A@@std@@QAE@VBufferCmp@OpenHome@@@Z 100512e0 f i CpiSubscription.obj
 0001:00050320       ??0?$_List_unchecked_const_iterator@V?$_List_val@PAVCpiSubscription@Net@OpenHome@@V?$allocator@PAVCpiSubscription@Net@OpenHome@@@std@@@std@@U_Iterator_base12@2@@std@@QAE@PAU_Node@?$_List_nod@PAVCpiSubscription@Net@OpenHome@@V?$allocator@PAVCpiSubscription@Net@OpenHome@@@std@@@1@PBV?$_List_val@PAVCpiSubscription@Net@OpenHome@@V?$allocator@PAVCpiSubscription@Net@OpenHome@@@std@@@1@@Z 10051320 f i CpiSubscription.obj
 0001:000503c0       ??0?$_Iterator012@Ubidirectional_iterator_tag@std@@PAVCpiSubscription@Net@OpenHome@@HPBQAV345@ABQAV345@U_Iterator_base12@2@@std@@QAE@XZ 100513c0 f i CpiSubscription.obj
 0001:000503f0       ??0?$Bws@$0EAA@@OpenHome@@QAE@XZ 100513f0 f i CpiSubscription.obj
 0001:00050440       ?Ptr@?$Bws@$0EAA@@OpenHome@@UBEPBEXZ 10051440 f i CpiSubscription.obj
 0001:00050460       ?Write@?$Fifo@PAVSubscriber@Net@OpenHome@@@OpenHome@@QAEXPAVSubscriber@Net@2@@Z 10051460 f i CpiSubscription.obj
 0001:000504a0       ?Read@?$Fifo@PAVSubscriber@Net@OpenHome@@@OpenHome@@QAEPAVSubscriber@Net@2@XZ 100514a0 f i CpiSubscription.obj
 0001:000504d0       ??$MakeFunctor@VCpiSubscription@Net@OpenHome@@XV123@@OpenHome@@YG?AV?$MemberTranslator@VCpiSubscription@Net@OpenHome@@P8123@AEXXZ@0@AAVCpiSubscription@Net@0@ABQ8230@AEXXZ@Z 100514d0 f i CpiSubscription.obj
 0001:00050500       ??0?$Bws@$0BG@@OpenHome@@QAE@XZ 10051500 f i CpiSubscription.obj
 0001:00050550       ?Ptr@?$Bws@$0BG@@OpenHome@@UBEPBEXZ 10051550 f i CpiSubscription.obj
 0001:00050570       ??$MakeFunctor@VCpiSubscriptionManager@Net@OpenHome@@XV123@@OpenHome@@YG?AV?$MemberTranslator@VCpiSubscriptionManager@Net@OpenHome@@P8123@AEXXZ@0@AAVCpiSubscriptionManager@Net@0@ABQ8230@AEXXZ@Z 10051570 f i CpiSubscription.obj
 0001:000505a0       ??$?0AAVBrn@OpenHome@@PAVCpiSubscription@Net@1@@?$pair@VBrn@OpenHome@@PAVCpiSubscription@Net@2@@std@@QAE@AAVBrn@OpenHome@@$$QAPAVCpiSubscription@Net@3@@Z 100515a0 f i CpiSubscription.obj
 0001:000505f0       ??$insert@U?$pair@VBrn@OpenHome@@PAVCpiSubscription@Net@2@@std@@@?$_Tree@V?$_Tmap_traits@VBrn@OpenHome@@PAVCpiSubscription@Net@2@VBufferCmp@2@V?$allocator@U?$pair@$$CBVBrn@OpenHome@@PAVCpiSubscription@Net@2@@std@@@std@@$0A@@std@@@std@@QAE?AU?$pair@V?$_Tree_iterator@V?$_Tree_val@V?$_Tmap_traits@VBrn@OpenHome@@PAVCpiSubscription@Net@2@VBufferCmp@2@V?$allocator@U?$pair@$$CBVBrn@OpenHome@@PAVCpiSubscription@Net@2@@std@@@std@@$0A@@std@@@std@@@std@@_N@1@$$QAU?$pair@VBrn@OpenHome@@PAVCpiSubscription@Net@2@@1@@Z 100515f0 f i CpiSubscription.obj
 0001:00050670       ??$?0AAVBrn@OpenHome@@AAPAVCpiSubscription@Net@1@@?$pair@VBrn@OpenHome@@PAVCpiSubscription@Net@2@@std@@QAE@AAVBrn@OpenHome@@AAPAVCpiSubscription@Net@3@@Z 10051670 f i CpiSubscription.obj
 0001:000506c0       ??$forward@PAVCpiSubscription@Net@OpenHome@@@std@@YG$$QAPAVCpiSubscription@Net@OpenHome@@AAPAV123@@Z 100516c0 f i CpiSubscription.obj
 0001:000506d0       ??$_Insert_rv@PAVCpiSubscription@Net@OpenHome@@@?$list@PAVCpiSubscription@Net@OpenHome@@V?$allocator@PAVCpiSubscription@Net@OpenHome@@@std@@@std@@QAEXV?$_List_const_iterator@V?$_List_val@PAVCpiSubscription@Net@OpenHome@@V?$allocator@PAVCpiSubscription@Net@OpenHome@@@std@@@std@@@1@$$QAPAVCpiSubscription@Net@OpenHome@@@Z 100516d0 f i CpiSubscription.obj
 0001:00050800       ??$addressof@U?$pair@$$CBVBrn@OpenHome@@PAVCpiSubscription@Net@2@@std@@@std@@YGPAU?$pair@$$CBVBrn@OpenHome@@PAVCpiSubscription@Net@2@@0@AAU10@@Z 10051800 f i CpiSubscription.obj
 0001:00050810       ??$_Dest_val@V?$allocator@U?$pair@$$CBVBrn@OpenHome@@PAVCpiSubscription@Net@2@@std@@@std@@U?$pair@$$CBVBrn@OpenHome@@PAVCpiSubscription@Net@2@@2@@std@@YGXAAV?$allocator@U?$pair@$$CBVBrn@OpenHome@@PAVCpiSubscription@Net@2@@std@@@0@PAU?$pair@$$CBVBrn@OpenHome@@PAVCpiSubscription@Net@2@@0@@Z 10051810 f i CpiSubscription.obj
 0001:00050830       ??$addressof@PAVCpiSubscription@Net@OpenHome@@@std@@YGPAPAVCpiSubscription@Net@OpenHome@@AAPAV123@@Z 10051830 f i CpiSubscription.obj
 0001:00050840       ??$_Cons_val@V?$allocator@PAVCpiSubscription@Net@OpenHome@@@std@@PAVCpiSubscription@Net@OpenHome@@PAV345@@std@@YGXAAV?$allocator@PAVCpiSubscription@Net@OpenHome@@@0@PAPAVCpiSubscription@Net@OpenHome@@$$QAPAV234@@Z 10051840 f i CpiSubscription.obj
 0001:00050870       ??$addressof@QAVCpiSubscription@Net@OpenHome@@@std@@YGPBQAVCpiSubscription@Net@OpenHome@@ABQAV123@@Z 10051870 f i CpiSubscription.obj
 0001:00050880       ??$_Cons_val@V?$allocator@PAVCpiSubscription@Net@OpenHome@@@std@@PAVCpiSubscription@Net@OpenHome@@AAPAV345@@std@@YGXAAV?$allocator@PAVCpiSubscription@Net@OpenHome@@@0@PAPAVCpiSubscription@Net@OpenHome@@AAPAV234@@Z 10051880 f i CpiSubscription.obj
 0001:000508b0       ??$_Cons_val@V?$allocator@PAVCpiSubscription@Net@OpenHome@@@std@@PAVCpiSubscription@Net@OpenHome@@ABQAV345@@std@@YGXAAV?$allocator@PAVCpiSubscription@Net@OpenHome@@@0@PAPAVCpiSubscription@Net@OpenHome@@ABQAV234@@Z 100518b0 f i CpiSubscription.obj
 0001:000508e0       ??$_Move@PAPAVCpiSubscription@Net@OpenHome@@PAPAV123@@std@@YGPAPAVCpiSubscription@Net@OpenHome@@PAPAV123@00@Z 100518e0 f i CpiSubscription.obj
 0001:00050940       ??$_Dest_val@V?$allocator@U_Node@?$_List_nod@PAVCpiSubscription@Net@OpenHome@@V?$allocator@PAVCpiSubscription@Net@OpenHome@@@std@@@std@@@std@@U_Node@?$_List_nod@PAVCpiSubscription@Net@OpenHome@@V?$allocator@PAVCpiSubscription@Net@OpenHome@@@std@@@2@@std@@YGXAAV?$allocator@U_Node@?$_List_nod@PAVCpiSubscription@Net@OpenHome@@V?$allocator@PAVCpiSubscription@Net@OpenHome@@@std@@@std@@@0@PAU_Node@?$_List_nod@PAVCpiSubscription@Net@OpenHome@@V?$allocator@PAVCpiSubscription@Net@OpenHome@@@std@@@0@@Z 10051940 f i CpiSubscription.obj
 0001:00050960       ??$_Kfn@$$CBVBrn@OpenHome@@PAVCpiSubscription@Net@2@@?$_Tmap_traits@VBrn@OpenHome@@PAVCpiSubscription@Net@2@VBufferCmp@2@V?$allocator@U?$pair@$$CBVBrn@OpenHome@@PAVCpiSubscription@Net@2@@std@@@std@@$0A@@std@@SGABVBrn@OpenHome@@ABU?$pair@$$CBVBrn@OpenHome@@PAVCpiSubscription@Net@2@@1@@Z 10051960 f i CpiSubscription.obj
 0001:00050970       ??$_Destroy_range@V?$allocator@PAVCpiSubscription@Net@OpenHome@@@std@@@std@@YGXPAPAVCpiSubscription@Net@OpenHome@@0AAV?$allocator@PAVCpiSubscription@Net@OpenHome@@@0@@Z 10051970 f i CpiSubscription.obj
 0001:000509d0       ??$?0PAVCpiSubscription@Net@OpenHome@@@?$allocator@U_Container_proxy@std@@@std@@QAE@ABV?$allocator@PAVCpiSubscription@Net@OpenHome@@@1@@Z 100519d0 f i CpiSubscription.obj
 0001:000509f0       ??$?0PAVCpiSubscription@Net@OpenHome@@@?$allocator@U_Node@?$_List_nod@PAVCpiSubscription@Net@OpenHome@@V?$allocator@PAVCpiSubscription@Net@OpenHome@@@std@@@std@@@std@@QAE@ABV?$allocator@PAVCpiSubscription@Net@OpenHome@@@1@@Z 100519f0 f i CpiSubscription.obj
 0001:00050a10       ??$?0U_Node@?$_List_nod@PAVCpiSubscription@Net@OpenHome@@V?$allocator@PAVCpiSubscription@Net@OpenHome@@@std@@@std@@@?$allocator@U_Container_proxy@std@@@std@@QAE@ABV?$allocator@U_Node@?$_List_nod@PAVCpiSubscription@Net@OpenHome@@V?$allocator@PAVCpiSubscription@Net@OpenHome@@@std@@@std@@@1@@Z 10051a10 f i CpiSubscription.obj
 0001:00050a30       ??$_Allocate@U_Node@?$_List_nod@PAVCpiSubscription@Net@OpenHome@@V?$allocator@PAVCpiSubscription@Net@OpenHome@@@std@@@std@@@std@@YGPAU_Node@?$_List_nod@PAVCpiSubscription@Net@OpenHome@@V?$allocator@PAVCpiSubscription@Net@OpenHome@@@std@@@0@IPAU120@@Z 10051a30 f i CpiSubscription.obj
 0001:00050ad0       ??$?0U_Node@?$_Tree_nod@V?$_Tmap_traits@VBrn@OpenHome@@PAVCpiSubscription@Net@2@VBufferCmp@2@V?$allocator@U?$pair@$$CBVBrn@OpenHome@@PAVCpiSubscription@Net@2@@std@@@std@@$0A@@std@@@std@@@?$allocator@U_Container_proxy@std@@@std@@QAE@ABV?$allocator@U_Node@?$_Tree_nod@V?$_Tmap_traits@VBrn@OpenHome@@PAVCpiSubscription@Net@2@VBufferCmp@2@V?$allocator@U?$pair@$$CBVBrn@OpenHome@@PAVCpiSubscription@Net@2@@std@@@std@@$0A@@std@@@std@@@1@@Z 10051ad0 f i CpiSubscription.obj
 0001:00050af0       ??$_Umove@PAPAVCpiSubscription@Net@OpenHome@@@?$vector@PAVCpiSubscription@Net@OpenHome@@V?$allocator@PAVCpiSubscription@Net@OpenHome@@@std@@@std@@IAEPAPAVCpiSubscription@Net@OpenHome@@PAPAV234@00@Z 10051af0 f i CpiSubscription.obj
 0001:00050b40       ??$_Allocate@PAVCpiSubscription@Net@OpenHome@@@std@@YGPAPAVCpiSubscription@Net@OpenHome@@IPAPAV123@@Z 10051b40 f i CpiSubscription.obj
 0001:00050be0       ??$?0U?$pair@$$CBVBrn@OpenHome@@PAVCpiSubscription@Net@2@@std@@@?$allocator@U_Node@?$_Tree_nod@V?$_Tmap_traits@VBrn@OpenHome@@PAVCpiSubscription@Net@2@VBufferCmp@2@V?$allocator@U?$pair@$$CBVBrn@OpenHome@@PAVCpiSubscription@Net@2@@std@@@std@@$0A@@std@@@std@@@std@@QAE@ABV?$allocator@U?$pair@$$CBVBrn@OpenHome@@PAVCpiSubscription@Net@2@@std@@@1@@Z 10051be0 f i CpiSubscription.obj
 0001:00050c00       ??$_Allocate@U_Node@?$_Tree_nod@V?$_Tmap_traits@VBrn@OpenHome@@PAVCpiSubscription@Net@2@VBufferCmp@2@V?$allocator@U?$pair@$$CBVBrn@OpenHome@@PAVCpiSubscription@Net@2@@std@@@std@@$0A@@std@@@std@@@std@@YGPAU_Node@?$_Tree_nod@V?$_Tmap_traits@VBrn@OpenHome@@PAVCpiSubscription@Net@2@VBufferCmp@2@V?$allocator@U?$pair@$$CBVBrn@OpenHome@@PAVCpiSubscription@Net@2@@std@@@std@@$0A@@std@@@0@IPAU120@@Z 10051c00 f i CpiSubscription.obj
 0001:00050ca0       ??_G?$Bws@$0EAA@@OpenHome@@UAEPAXI@Z 10051ca0 f i CpiSubscription.obj
 0001:00050ca0       ??_E?$Bws@$0EAA@@OpenHome@@UAEPAXI@Z 10051ca0 f i CpiSubscription.obj
 0001:00050cf0       ??_E?$Bws@$0BG@@OpenHome@@UAEPAXI@Z 10051cf0 f i CpiSubscription.obj
 0001:00050cf0       ??_G?$Bws@$0BG@@OpenHome@@UAEPAXI@Z 10051cf0 f i CpiSubscription.obj
 0001:00050d40       ?_Incsize@?$list@PAVCpiSubscription@Net@OpenHome@@V?$allocator@PAVCpiSubscription@Net@OpenHome@@@std@@@std@@QAEXI@Z 10051d40 f i CpiSubscription.obj
 0001:00050da0       ?construct@?$allocator@PAVCpiSubscription@Net@OpenHome@@@std@@QAEXPAPAVCpiSubscription@Net@OpenHome@@ABQAV345@@Z 10051da0 f i CpiSubscription.obj
 0001:00050de0       ?construct@?$allocator@PAVCpiSubscription@Net@OpenHome@@@std@@QAEXPAPAVCpiSubscription@Net@OpenHome@@$$QAPAV345@@Z 10051de0 f i CpiSubscription.obj
 0001:00050eb0       ?destroy@?$allocator@U_Node@?$_List_nod@PAVCpiSubscription@Net@OpenHome@@V?$allocator@PAVCpiSubscription@Net@OpenHome@@@std@@@std@@@std@@QAEXPAU_Node@?$_List_nod@PAVCpiSubscription@Net@OpenHome@@V?$allocator@PAVCpiSubscription@Net@OpenHome@@@std@@@2@@Z 10051eb0 f i CpiSubscription.obj
 0001:00050ee0       ?_Linsert@?$_Tree@V?$_Tmap_traits@VBrn@OpenHome@@PAVCpiSubscription@Net@2@VBufferCmp@2@V?$allocator@U?$pair@$$CBVBrn@OpenHome@@PAVCpiSubscription@Net@2@@std@@@std@@$0A@@std@@@std@@QAE?AU?$pair@V?$_Tree_iterator@V?$_Tree_val@V?$_Tmap_traits@VBrn@OpenHome@@PAVCpiSubscription@Net@2@VBufferCmp@2@V?$allocator@U?$pair@$$CBVBrn@OpenHome@@PAVCpiSubscription@Net@2@@std@@@std@@$0A@@std@@@std@@@std@@_N@2@PAU_Node@?$_Tree_nod@V?$_Tmap_traits@VBrn@OpenHome@@PAVCpiSubscription@Net@2@VBufferCmp@2@V?$allocator@U?$pair@$$CBVBrn@OpenHome@@PAVCpiSubscription@Net@2@@std@@@std@@$0A@@std@@@2@_N@Z 10051ee0 f i CpiSubscription.obj
 0001:000513b0       ?destroy@?$allocator@U?$pair@$$CBVBrn@OpenHome@@PAVCpiSubscription@Net@2@@std@@@std@@QAEXPAU?$pair@$$CBVBrn@OpenHome@@PAVCpiSubscription@Net@2@@2@@Z 100523b0 f i CpiSubscription.obj
 0001:000513e0       ??0?$MemberTranslator@VCpiSubscription@Net@OpenHome@@P8123@AEXXZ@OpenHome@@QAE@AAVCpiSubscription@Net@1@ABQ8231@AEXXZ@Z 100523e0 f i CpiSubscription.obj
 0001:00051430       ??0?$MemberTranslator@VCpiSubscriptionManager@Net@OpenHome@@P8123@AEXXZ@OpenHome@@QAE@AAVCpiSubscriptionManager@Net@1@ABQ8231@AEXXZ@Z 10052430 f i CpiSubscription.obj
 0001:00051480       ?max_size@?$list@PAVCpiSubscription@Net@OpenHome@@V?$allocator@PAVCpiSubscription@Net@OpenHome@@@std@@@std@@QBEIXZ 10052480 f i CpiSubscription.obj
 0001:000514b0       ?_Insert@?$_Tree@V?$_Tmap_traits@VBrn@OpenHome@@PAVCpiSubscription@Net@2@VBufferCmp@2@V?$allocator@U?$pair@$$CBVBrn@OpenHome@@PAVCpiSubscription@Net@2@@std@@@std@@$0A@@std@@@std@@IAE?AV?$_Tree_iterator@V?$_Tree_val@V?$_Tmap_traits@VBrn@OpenHome@@PAVCpiSubscription@Net@2@VBufferCmp@2@V?$allocator@U?$pair@$$CBVBrn@OpenHome@@PAVCpiSubscription@Net@2@@std@@@std@@$0A@@std@@@std@@@2@_NPAU_Node@?$_Tree_nod@V?$_Tmap_traits@VBrn@OpenHome@@PAVCpiSubscription@Net@2@VBufferCmp@2@V?$allocator@U?$pair@$$CBVBrn@OpenHome@@PAVCpiSubscription@Net@2@@std@@@std@@$0A@@std@@@2@1@Z 100524b0 f i CpiSubscription.obj
 0001:00051960       ?Thunk@?$MemberTranslator@VCpiSubscription@Net@OpenHome@@P8123@AEXXZ@OpenHome@@SGXABVFunctor@2@@Z 10052960 f i CpiSubscription.obj
 0001:000519c0       ?Thunk@?$MemberTranslator@VCpiSubscriptionManager@Net@OpenHome@@P8123@AEXXZ@OpenHome@@SGXABVFunctor@2@@Z 100529c0 f i CpiSubscription.obj
 0001:00051a30       ??0?$pair@V?$_Tree_iterator@V?$_Tree_val@V?$_Tmap_traits@VBrn@OpenHome@@PAVCpiSubscription@Net@2@VBufferCmp@2@V?$allocator@U?$pair@$$CBVBrn@OpenHome@@PAVCpiSubscription@Net@2@@std@@@std@@$0A@@std@@@std@@@std@@_N@std@@QAE@$$QAV?$_Tree_iterator@V?$_Tree_val@V?$_Tmap_traits@VBrn@OpenHome@@PAVCpiSubscription@Net@2@VBufferCmp@2@V?$allocator@U?$pair@$$CBVBrn@OpenHome@@PAVCpiSubscription@Net@2@@std@@@std@@$0A@@std@@@std@@@1@$$QA_N@Z 10052a30 f i CpiSubscription.obj
 0001:00051a80       ??F?$_Tree_iterator@V?$_Tree_val@V?$_Tmap_traits@VBrn@OpenHome@@PAVCpiSubscription@Net@2@VBufferCmp@2@V?$allocator@U?$pair@$$CBVBrn@OpenHome@@PAVCpiSubscription@Net@2@@std@@@std@@$0A@@std@@@std@@@std@@QAEAAV01@XZ 10052a80 f i CpiSubscription.obj
 0001:00051ab0       ?max_size@?$_Tree@V?$_Tmap_traits@VBrn@OpenHome@@PAVCpiSubscription@Net@2@VBufferCmp@2@V?$allocator@U?$pair@$$CBVBrn@OpenHome@@PAVCpiSubscription@Net@2@@std@@@std@@$0A@@std@@@std@@QBEIXZ 10052ab0 f i CpiSubscription.obj
 0001:00051ae0       ??0?$_Pair_base@V?$_Tree_iterator@V?$_Tree_val@V?$_Tmap_traits@VBrn@OpenHome@@PAVCpiSubscription@Net@2@VBufferCmp@2@V?$allocator@U?$pair@$$CBVBrn@OpenHome@@PAVCpiSubscription@Net@2@@std@@@std@@$0A@@std@@@std@@@std@@_N@std@@QAE@$$QAV?$_Tree_iterator@V?$_Tree_val@V?$_Tmap_traits@VBrn@OpenHome@@PAVCpiSubscription@Net@2@VBufferCmp@2@V?$allocator@U?$pair@$$CBVBrn@OpenHome@@PAVCpiSubscription@Net@2@@std@@@std@@$0A@@std@@@std@@@1@$$QA_N@Z 10052ae0 f i CpiSubscription.obj
 0001:00051b80       ??F?$_Tree_const_iterator@V?$_Tree_val@V?$_Tmap_traits@VBrn@OpenHome@@PAVCpiSubscription@Net@2@VBufferCmp@2@V?$allocator@U?$pair@$$CBVBrn@OpenHome@@PAVCpiSubscription@Net@2@@std@@@std@@$0A@@std@@@std@@@std@@QAEAAV01@XZ 10052b80 f i CpiSubscription.obj
 0001:00051cf0       ?max_size@?$allocator@U?$pair@$$CBVBrn@OpenHome@@PAVCpiSubscription@Net@2@@std@@@std@@QBEIXZ 10052cf0 f i CpiSubscription.obj
 0001:00051d50       ??F?$_Tree_unchecked_const_iterator@V?$_Tree_val@V?$_Tmap_traits@VBrn@OpenHome@@PAVCpiSubscription@Net@2@VBufferCmp@2@V?$allocator@U?$pair@$$CBVBrn@OpenHome@@PAVCpiSubscription@Net@2@@std@@@std@@$0A@@std@@@std@@U_Iterator_base12@2@@std@@QAEAAV01@XZ 10052d50 f i CpiSubscription.obj
 0001:00051e80       ?Write@?$Fifo@PAVSubscriber@Net@OpenHome@@@OpenHome@@QAEXPAVSubscriber@Net@2@I@Z 10052e80 f i CpiSubscription.obj
 0001:00051ed0       ?Read@?$Fifo@PAVSubscriber@Net@OpenHome@@@OpenHome@@QAEPAVSubscriber@Net@2@I@Z 10052ed0 f i CpiSubscription.obj
 0001:00051f30       ??$?0AAVBrn@OpenHome@@PAVCpiSubscription@Net@1@@?$_Pair_base@VBrn@OpenHome@@PAVCpiSubscription@Net@2@@std@@QAE@AAVBrn@OpenHome@@$$QAPAVCpiSubscription@Net@3@@Z 10052f30 f i CpiSubscription.obj
 0001:00051fd0       ??$forward@U?$pair@VBrn@OpenHome@@PAVCpiSubscription@Net@2@@std@@@std@@YG$$QAU?$pair@VBrn@OpenHome@@PAVCpiSubscription@Net@2@@0@AAU10@@Z 10052fd0 f i CpiSubscription.obj
 0001:00051fe0       ??$_Buynode@U?$pair@VBrn@OpenHome@@PAVCpiSubscription@Net@2@@std@@@?$_Tree_val@V?$_Tmap_traits@VBrn@OpenHome@@PAVCpiSubscription@Net@2@VBufferCmp@2@V?$allocator@U?$pair@$$CBVBrn@OpenHome@@PAVCpiSubscription@Net@2@@std@@@std@@$0A@@std@@@std@@QAEPAU_Node@?$_Tree_nod@V?$_Tmap_traits@VBrn@OpenHome@@PAVCpiSubscription@Net@2@VBufferCmp@2@V?$allocator@U?$pair@$$CBVBrn@OpenHome@@PAVCpiSubscription@Net@2@@std@@@std@@$0A@@std@@@1@$$QAU?$pair@VBrn@OpenHome@@PAVCpiSubscription@Net@2@@1@@Z 10052fe0 f i CpiSubscription.obj
 0001:00052100       ??$forward@AAPAVCpiSubscription@Net@OpenHome@@@std@@YGAAPAVCpiSubscription@Net@OpenHome@@AAPAV123@@Z 10053100 f i CpiSubscription.obj
 0001:00052110       ??$?0AAVBrn@OpenHome@@AAPAVCpiSubscription@Net@1@@?$_Pair_base@VBrn@OpenHome@@PAVCpiSubscription@Net@2@@std@@QAE@AAVBrn@OpenHome@@AAPAVCpiSubscription@Net@3@@Z 10053110 f i CpiSubscription.obj
 0001:000521b0       ??$_Buynode@PAVCpiSubscription@Net@OpenHome@@@?$_List_val@PAVCpiSubscription@Net@OpenHome@@V?$allocator@PAVCpiSubscription@Net@OpenHome@@@std@@@std@@QAEPAU_Node@?$_List_nod@PAVCpiSubscription@Net@OpenHome@@V?$allocator@PAVCpiSubscription@Net@OpenHome@@@std@@@1@PAU231@0$$QAPAVCpiSubscription@Net@OpenHome@@@Z 100531b0 f i CpiSubscription.obj
 0001:00052310       ??$construct@AAPAVCpiSubscription@Net@OpenHome@@@?$allocator@PAVCpiSubscription@Net@OpenHome@@@std@@QAEXPAPAVCpiSubscription@Net@OpenHome@@AAPAV234@@Z 10053310 f i CpiSubscription.obj
 0001:000523e0       ??$forward@ABQAVCpiSubscription@Net@OpenHome@@@std@@YGABQAVCpiSubscription@Net@OpenHome@@ABQAV123@@Z 100533e0 f i CpiSubscription.obj
 0001:000523f0       ??$_Ptr_cat@PAVCpiSubscription@Net@OpenHome@@PAV123@@std@@YG?AU_Scalar_ptr_iterator_tag@0@PAPAVCpiSubscription@Net@OpenHome@@0@Z 100533f0 f i CpiSubscription.obj
 0001:00052460       ??$_Move@PAPAVCpiSubscription@Net@OpenHome@@PAPAV123@@std@@YGPAPAVCpiSubscription@Net@OpenHome@@PAPAV123@00U_Scalar_ptr_iterator_tag@0@@Z 10053460 f i CpiSubscription.obj
 0001:000524c0       ??$_Destroy_range@V?$allocator@PAVCpiSubscription@Net@OpenHome@@@std@@@std@@YGXPAPAVCpiSubscription@Net@OpenHome@@0AAV?$allocator@PAVCpiSubscription@Net@OpenHome@@@0@U_Scalar_ptr_iterator_tag@0@@Z 100534c0 f i CpiSubscription.obj
 0001:000524d0       ??$_Uninitialized_move@PAPAVCpiSubscription@Net@OpenHome@@PAPAV123@V?$allocator@PAVCpiSubscription@Net@OpenHome@@@std@@@std@@YGPAPAVCpiSubscription@Net@OpenHome@@PAPAV123@00AAV?$allocator@PAVCpiSubscription@Net@OpenHome@@@0@@Z 100534d0 f i CpiSubscription.obj
 0001:00052540       ??$_Construct@PAVCpiSubscription@Net@OpenHome@@ABQAV123@@std@@YGXPAPAVCpiSubscription@Net@OpenHome@@ABQAV123@@Z 10053540 f i CpiSubscription.obj
 0001:00052610       ??$_Destroy@U_Node@?$_List_nod@PAVCpiSubscription@Net@OpenHome@@V?$allocator@PAVCpiSubscription@Net@OpenHome@@@std@@@std@@@std@@YGXPAU_Node@?$_List_nod@PAVCpiSubscription@Net@OpenHome@@V?$allocator@PAVCpiSubscription@Net@OpenHome@@@std@@@0@@Z 10053610 f i CpiSubscription.obj
 0001:00052620       ??$?0AAV?$_Tree_iterator@V?$_Tree_val@V?$_Tmap_traits@VBrn@OpenHome@@PAVCpiSubscription@Net@2@VBufferCmp@2@V?$allocator@U?$pair@$$CBVBrn@OpenHome@@PAVCpiSubscription@Net@2@@std@@@std@@$0A@@std@@@std@@@std@@_N@?$pair@V?$_Tree_iterator@V?$_Tree_val@V?$_Tmap_traits@VBrn@OpenHome@@PAVCpiSubscription@Net@2@VBufferCmp@2@V?$allocator@U?$pair@$$CBVBrn@OpenHome@@PAVCpiSubscription@Net@2@@std@@@std@@$0A@@std@@@std@@@std@@_N@std@@QAE@AAV?$_Tree_iterator@V?$_Tree_val@V?$_Tmap_traits@VBrn@OpenHome@@PAVCpiSubscription@Net@2@VBufferCmp@2@V?$allocator@U?$pair@$$CBVBrn@OpenHome@@PAVCpiSubscription@Net@2@@std@@@std@@$0A@@std@@@std@@@1@$$QA_N@Z 10053620 f i CpiSubscription.obj
 0001:00052670       ??$_Destroy@U?$pair@$$CBVBrn@OpenHome@@PAVCpiSubscription@Net@2@@std@@@std@@YGXPAU?$pair@$$CBVBrn@OpenHome@@PAVCpiSubscription@Net@2@@0@@Z 10053670 f i CpiSubscription.obj
 0001:00052690       ??$move@AAV?$_Tree_iterator@V?$_Tree_val@V?$_Tmap_traits@VBrn@OpenHome@@PAVCpiSubscription@Net@2@VBufferCmp@2@V?$allocator@U?$pair@$$CBVBrn@OpenHome@@PAVCpiSubscription@Net@2@@std@@@std@@$0A@@std@@@std@@@std@@@std@@YG$$QAV?$_Tree_iterator@V?$_Tree_val@V?$_Tmap_traits@VBrn@OpenHome@@PAVCpiSubscription@Net@2@VBufferCmp@2@V?$allocator@U?$pair@$$CBVBrn@OpenHome@@PAVCpiSubscription@Net@2@@std@@@std@@$0A@@std@@@std@@@0@AAV10@@Z 10053690 f i CpiSubscription.obj
 0001:000526a0       ??_G?$pair@$$CBVBrn@OpenHome@@PAVCpiSubscription@Net@2@@std@@QAEPAXI@Z 100536a0 f i CpiSubscription.obj
 0001:000526f0       ??1?$pair@$$CBVBrn@OpenHome@@PAVCpiSubscription@Net@2@@std@@QAE@XZ 100536f0 f i CpiSubscription.obj
 0001:00052720       ??1?$_Pair_base@$$CBVBrn@OpenHome@@PAVCpiSubscription@Net@2@@std@@QAE@XZ 10053720 f i CpiSubscription.obj
 0001:00052750       ?_Buynode@?$_Tree_val@V?$_Tmap_traits@VBrn@OpenHome@@PAVCpiSubscription@Net@2@VBufferCmp@2@V?$allocator@U?$pair@$$CBVBrn@OpenHome@@PAVCpiSubscription@Net@2@@std@@@std@@$0A@@std@@@std@@QAEPAU_Node@?$_Tree_nod@V?$_Tmap_traits@VBrn@OpenHome@@PAVCpiSubscription@Net@2@VBufferCmp@2@V?$allocator@U?$pair@$$CBVBrn@OpenHome@@PAVCpiSubscription@Net@2@@std@@@std@@$0A@@std@@@2@XZ 10053750 f i CpiSubscription.obj
 0001:00052800       ??$_Cons_val@V?$allocator@U?$pair@$$CBVBrn@OpenHome@@PAVCpiSubscription@Net@2@@std@@@std@@U?$pair@$$CBVBrn@OpenHome@@PAVCpiSubscription@Net@2@@2@U?$pair@VBrn@OpenHome@@PAVCpiSubscription@Net@2@@2@@std@@YGXAAV?$allocator@U?$pair@$$CBVBrn@OpenHome@@PAVCpiSubscription@Net@2@@std@@@0@PAU?$pair@$$CBVBrn@OpenHome@@PAVCpiSubscription@Net@2@@0@$$QAU?$pair@VBrn@OpenHome@@PAVCpiSubscription@Net@2@@0@@Z 10053800 f i CpiSubscription.obj
 0001:00052830       ??$_Val_type@PAPAVCpiSubscription@Net@OpenHome@@@std@@YGPAPAVCpiSubscription@Net@OpenHome@@PAPAV123@@Z 10053830 f i CpiSubscription.obj
 0001:00052840       ??$_Uninit_move@PAVCpiSubscription@Net@OpenHome@@PAV123@PAV123@@std@@YGPAPAVCpiSubscription@Net@OpenHome@@PAPAV123@00AAV?$allocator@PAVCpiSubscription@Net@OpenHome@@@0@0U_Scalar_ptr_iterator_tag@0@@Z 10053840 f i CpiSubscription.obj
 0001:000528d0       ??$forward@AAV?$_Tree_iterator@V?$_Tree_val@V?$_Tmap_traits@VBrn@OpenHome@@PAVCpiSubscription@Net@2@VBufferCmp@2@V?$allocator@U?$pair@$$CBVBrn@OpenHome@@PAVCpiSubscription@Net@2@@std@@@std@@$0A@@std@@@std@@@std@@@std@@YGAAV?$_Tree_iterator@V?$_Tree_val@V?$_Tmap_traits@VBrn@OpenHome@@PAVCpiSubscription@Net@2@VBufferCmp@2@V?$allocator@U?$pair@$$CBVBrn@OpenHome@@PAVCpiSubscription@Net@2@@std@@@std@@$0A@@std@@@std@@@0@AAV10@@Z 100538d0 f i CpiSubscription.obj
 0001:000528e0       ??$?0AAV?$_Tree_iterator@V?$_Tree_val@V?$_Tmap_traits@VBrn@OpenHome@@PAVCpiSubscription@Net@2@VBufferCmp@2@V?$allocator@U?$pair@$$CBVBrn@OpenHome@@PAVCpiSubscription@Net@2@@std@@@std@@$0A@@std@@@std@@@std@@_N@?$_Pair_base@V?$_Tree_iterator@V?$_Tree_val@V?$_Tmap_traits@VBrn@OpenHome@@PAVCpiSubscription@Net@2@VBufferCmp@2@V?$allocator@U?$pair@$$CBVBrn@OpenHome@@PAVCpiSubscription@Net@2@@std@@@std@@$0A@@std@@@std@@@std@@_N@std@@QAE@AAV?$_Tree_iterator@V?$_Tree_val@V?$_Tmap_traits@VBrn@OpenHome@@PAVCpiSubscription@Net@2@VBufferCmp@2@V?$allocator@U?$pair@$$CBVBrn@OpenHome@@PAVCpiSubscription@Net@2@@std@@@std@@$0A@@std@@@std@@@1@$$QA_N@Z 100538e0 f i CpiSubscription.obj
 0001:00052980       ??$construct@U?$pair@VBrn@OpenHome@@PAVCpiSubscription@Net@2@@std@@@?$allocator@U?$pair@$$CBVBrn@OpenHome@@PAVCpiSubscription@Net@2@@std@@@std@@QAEXPAU?$pair@$$CBVBrn@OpenHome@@PAVCpiSubscription@Net@2@@1@$$QAU?$pair@VBrn@OpenHome@@PAVCpiSubscription@Net@2@@1@@Z 10053980 f i CpiSubscription.obj
 0001:00052a50       ??$_Debug_range@PAPAVCpiSubscription@Net@OpenHome@@@std@@YGXPAPAVCpiSubscription@Net@OpenHome@@0PB_WI@Z 10053a50 f i CpiSubscription.obj
 0001:00052ab0       ??$_Debug_pointer@PAVCpiSubscription@Net@OpenHome@@@std@@YGXPAPAVCpiSubscription@Net@OpenHome@@PB_WI@Z 10053ab0 f i CpiSubscription.obj
 0001:00052af0       ??$?0VBrn@OpenHome@@PAVCpiSubscription@Net@1@@?$pair@$$CBVBrn@OpenHome@@PAVCpiSubscription@Net@2@@std@@QAE@$$QAU?$pair@VBrn@OpenHome@@PAVCpiSubscription@Net@2@@1@@Z 10053af0 f i CpiSubscription.obj
 0001:00052b40       ??$_Iter_cat@PAPAVCpiSubscription@Net@OpenHome@@@std@@YG?AUrandom_access_iterator_tag@0@ABQAPAVCpiSubscription@Net@OpenHome@@@Z 10053b40 f i CpiSubscription.obj
 0001:00052bb0       ??$_Debug_range2@PAPAVCpiSubscription@Net@OpenHome@@@std@@YGXPAPAVCpiSubscription@Net@OpenHome@@0PB_WIUrandom_access_iterator_tag@0@@Z 10053bb0 f i CpiSubscription.obj
 0001:00052c20       ??$?0VBrn@OpenHome@@PAVCpiSubscription@Net@1@@?$_Pair_base@$$CBVBrn@OpenHome@@PAVCpiSubscription@Net@2@@std@@QAE@$$QAVBrn@OpenHome@@$$QAPAVCpiSubscription@Net@3@@Z 10053c20 f i CpiSubscription.obj
 0001:00052cc0       ?Subscribe@CpProxy@Net@OpenHome@@QAEXXZ 10053cc0 f   CpProxy.obj
 0001:00052da0       ?Unsubscribe@CpProxy@Net@OpenHome@@QAEXXZ 10053da0 f   CpProxy.obj
 0001:00052e10       ??0CpProxy@Net@OpenHome@@IAE@PBD0IAAVCpiDevice@12@@Z 10053e10 f   CpProxy.obj
 0001:00052ff0       ??1CpProxy@Net@OpenHome@@MAE@XZ 10053ff0 f   CpProxy.obj
 0001:00053280       ?AddProperty@CpProxy@Net@OpenHome@@IAEXPAVProperty@23@@Z 10054280 f   CpProxy.obj
 0001:00053390       ?DestroyService@CpProxy@Net@OpenHome@@IAEXXZ 10054390 f   CpProxy.obj
 0001:000533f0       ?SetPropertyChanged@CpProxy@Net@OpenHome@@QAEXAAVFunctor@3@@Z 100543f0 f   CpProxy.obj
 0001:00053450       ?SetPropertyInitialEvent@CpProxy@Net@OpenHome@@QAEXAAVFunctor@3@@Z 10054450 f   CpProxy.obj
 0001:000534d0       ?PropertyReadLock@CpProxy@Net@OpenHome@@IBEXXZ 100544d0 f   CpProxy.obj
 0001:00053500       ?PropertyReadUnlock@CpProxy@Net@OpenHome@@IBEXXZ 10054500 f   CpProxy.obj
 0001:00053530       ?ReportEvent@CpProxy@Net@OpenHome@@IAEXVFunctor@3@@Z 10054530 f   CpProxy.obj
 0001:000535a0       ?EventUpdateStart@CpProxy@Net@OpenHome@@EAEXXZ 100545a0 f   CpProxy.obj
 0001:000535d0       ?EventUpdate@CpProxy@Net@OpenHome@@EAEXABVBrx@3@0AAVIOutputProcessor@23@@Z 100545d0 f   CpProxy.obj
 0001:00053720       ?EventUpdateEnd@CpProxy@Net@OpenHome@@EAEXXZ 10054720 f   CpProxy.obj
 0001:00053c40       ??0Functor@OpenHome@@QAE@XZ 10054c40 f i CpProxy.obj
 0001:00053c80       ??_ECpProxy@Net@OpenHome@@MAEPAXI@Z 10054c80 f i CpProxy.obj
 0001:00053d20       ??1?$map@VBrn@OpenHome@@PAVProperty@Net@2@VBufferCmp@2@V?$allocator@U?$pair@$$CBVBrn@OpenHome@@PAVProperty@Net@2@@std@@@std@@@std@@QAE@XZ 10054d20 f i CpProxy.obj
 0001:00053d50       ??_GCpiService@Net@OpenHome@@QAEPAXI@Z 10054d50 f i CpProxy.obj
 0001:00053da0       ??1?$_Tree_iterator@V?$_Tree_val@V?$_Tmap_traits@VBrn@OpenHome@@PAVProperty@Net@2@VBufferCmp@2@V?$allocator@U?$pair@$$CBVBrn@OpenHome@@PAVProperty@Net@2@@std@@@std@@$0A@@std@@@std@@@std@@QAE@XZ 10054da0 f i CpProxy.obj
 0001:00053dd0       ??1?$_Tree_const_iterator@V?$_Tree_val@V?$_Tmap_traits@VBrn@OpenHome@@PAVProperty@Net@2@VBufferCmp@2@V?$allocator@U?$pair@$$CBVBrn@OpenHome@@PAVProperty@Net@2@@std@@@std@@$0A@@std@@@std@@@std@@QAE@XZ 10054dd0 f i CpProxy.obj
 0001:00053e00       ??1?$_Tree_unchecked_const_iterator@V?$_Tree_val@V?$_Tmap_traits@VBrn@OpenHome@@PAVProperty@Net@2@VBufferCmp@2@V?$allocator@U?$pair@$$CBVBrn@OpenHome@@PAVProperty@Net@2@@std@@@std@@$0A@@std@@@std@@U_Iterator_base12@2@@std@@QAE@XZ 10054e00 f i CpProxy.obj
 0001:00053e30       ??1?$_Iterator012@Ubidirectional_iterator_tag@std@@U?$pair@$$CBVBrn@OpenHome@@PAVProperty@Net@2@@2@HPBU32@ABU32@U_Iterator_base12@2@@std@@QAE@XZ 10054e30 f i CpProxy.obj
 0001:00053e60       ??1?$pair@VBrn@OpenHome@@PAVProperty@Net@2@@std@@QAE@XZ 10054e60 f i CpProxy.obj
 0001:00053e90       ??1?$pair@V?$_Tree_iterator@V?$_Tree_val@V?$_Tmap_traits@VBrn@OpenHome@@PAVProperty@Net@2@VBufferCmp@2@V?$allocator@U?$pair@$$CBVBrn@OpenHome@@PAVProperty@Net@2@@std@@@std@@$0A@@std@@@std@@@std@@_N@std@@QAE@XZ 10054e90 f i CpProxy.obj
 0001:00053ec0       ??1?$_Pair_base@VBrn@OpenHome@@PAVProperty@Net@2@@std@@QAE@XZ 10054ec0 f i CpProxy.obj
 0001:00053ef0       ??1?$_Pair_base@V?$_Tree_iterator@V?$_Tree_val@V?$_Tmap_traits@VBrn@OpenHome@@PAVProperty@Net@2@VBufferCmp@2@V?$allocator@U?$pair@$$CBVBrn@OpenHome@@PAVProperty@Net@2@@std@@@std@@$0A@@std@@@std@@@std@@_N@std@@QAE@XZ 10054ef0 f i CpProxy.obj
 0001:00053f20       ??RFunctor@OpenHome@@QBEXXZ 10054f20 f i CpProxy.obj
 0001:00053f60       ??BFunctor@OpenHome@@QBE_NXZ 10054f60 f i CpProxy.obj
 0001:00053fb0       ??0?$map@VBrn@OpenHome@@PAVProperty@Net@2@VBufferCmp@2@V?$allocator@U?$pair@$$CBVBrn@OpenHome@@PAVProperty@Net@2@@std@@@std@@@std@@QAE@XZ 10054fb0 f i CpProxy.obj
 0001:00054010       ??1?$_Tree@V?$_Tmap_traits@VBrn@OpenHome@@PAVProperty@Net@2@VBufferCmp@2@V?$allocator@U?$pair@$$CBVBrn@OpenHome@@PAVProperty@Net@2@@std@@@std@@$0A@@std@@@std@@QAE@XZ 10055010 f i CpProxy.obj
 0001:00054090       ?begin@?$_Tree@V?$_Tmap_traits@VBrn@OpenHome@@PAVProperty@Net@2@VBufferCmp@2@V?$allocator@U?$pair@$$CBVBrn@OpenHome@@PAVProperty@Net@2@@std@@@std@@$0A@@std@@@std@@QAE?AV?$_Tree_iterator@V?$_Tree_val@V?$_Tmap_traits@VBrn@OpenHome@@PAVProperty@Net@2@VBufferCmp@2@V?$allocator@U?$pair@$$CBVBrn@OpenHome@@PAVProperty@Net@2@@std@@@std@@$0A@@std@@@std@@@2@XZ 10055090 f i CpProxy.obj
 0001:00054100       ?end@?$_Tree@V?$_Tmap_traits@VBrn@OpenHome@@PAVProperty@Net@2@VBufferCmp@2@V?$allocator@U?$pair@$$CBVBrn@OpenHome@@PAVProperty@Net@2@@std@@@std@@$0A@@std@@@std@@QAE?AV?$_Tree_iterator@V?$_Tree_val@V?$_Tmap_traits@VBrn@OpenHome@@PAVProperty@Net@2@VBufferCmp@2@V?$allocator@U?$pair@$$CBVBrn@OpenHome@@PAVProperty@Net@2@@std@@@std@@$0A@@std@@@std@@@2@XZ 10055100 f i CpProxy.obj
 0001:00054160       ?find@?$_Tree@V?$_Tmap_traits@VBrn@OpenHome@@PAVProperty@Net@2@VBufferCmp@2@V?$allocator@U?$pair@$$CBVBrn@OpenHome@@PAVProperty@Net@2@@std@@@std@@$0A@@std@@@std@@QAE?AV?$_Tree_iterator@V?$_Tree_val@V?$_Tmap_traits@VBrn@OpenHome@@PAVProperty@Net@2@VBufferCmp@2@V?$allocator@U?$pair@$$CBVBrn@OpenHome@@PAVProperty@Net@2@@std@@@std@@$0A@@std@@@std@@@2@ABVBrn@OpenHome@@@Z 10055160 f i CpProxy.obj
 0001:000543c0       ??C?$_Tree_iterator@V?$_Tree_val@V?$_Tmap_traits@VBrn@OpenHome@@PAVProperty@Net@2@VBufferCmp@2@V?$allocator@U?$pair@$$CBVBrn@OpenHome@@PAVProperty@Net@2@@std@@@std@@$0A@@std@@@std@@@std@@QBEPAU?$pair@$$CBVBrn@OpenHome@@PAVProperty@Net@2@@1@XZ 100553c0 f i CpProxy.obj
 0001:000543f0       ??E?$_Tree_iterator@V?$_Tree_val@V?$_Tmap_traits@VBrn@OpenHome@@PAVProperty@Net@2@VBufferCmp@2@V?$allocator@U?$pair@$$CBVBrn@OpenHome@@PAVProperty@Net@2@@std@@@std@@$0A@@std@@@std@@@std@@QAE?AV01@H@Z 100553f0 f i CpProxy.obj
 0001:000544f0       ??9?$_Tree_const_iterator@V?$_Tree_val@V?$_Tmap_traits@VBrn@OpenHome@@PAVProperty@Net@2@VBufferCmp@2@V?$allocator@U?$pair@$$CBVBrn@OpenHome@@PAVProperty@Net@2@@std@@@std@@$0A@@std@@@std@@@std@@QBE_NABV01@@Z 100554f0 f i CpProxy.obj
 0001:00054540       ??0?$_Tree_iterator@V?$_Tree_val@V?$_Tmap_traits@VBrn@OpenHome@@PAVProperty@Net@2@VBufferCmp@2@V?$allocator@U?$pair@$$CBVBrn@OpenHome@@PAVProperty@Net@2@@std@@@std@@$0A@@std@@@std@@@std@@QAE@ABV01@@Z 10055540 f i CpProxy.obj
 0001:00054580       ??0?$_Tree_const_iterator@V?$_Tree_val@V?$_Tmap_traits@VBrn@OpenHome@@PAVProperty@Net@2@VBufferCmp@2@V?$allocator@U?$pair@$$CBVBrn@OpenHome@@PAVProperty@Net@2@@std@@@std@@$0A@@std@@@std@@@std@@QAE@ABV01@@Z 10055580 f i CpProxy.obj
 0001:000545c0       ??0?$_Tree_unchecked_const_iterator@V?$_Tree_val@V?$_Tmap_traits@VBrn@OpenHome@@PAVProperty@Net@2@VBufferCmp@2@V?$allocator@U?$pair@$$CBVBrn@OpenHome@@PAVProperty@Net@2@@std@@@std@@$0A@@std@@@std@@U_Iterator_base12@2@@std@@QAE@ABV01@@Z 100555c0 f i CpProxy.obj
 0001:00054610       ??0?$_Iterator012@Ubidirectional_iterator_tag@std@@U?$pair@$$CBVBrn@OpenHome@@PAVProperty@Net@2@@2@HPBU32@ABU32@U_Iterator_base12@2@@std@@QAE@ABU01@@Z 10055610 f i CpProxy.obj
 0001:00054650       ??0?$_Tree@V?$_Tmap_traits@VBrn@OpenHome@@PAVProperty@Net@2@VBufferCmp@2@V?$allocator@U?$pair@$$CBVBrn@OpenHome@@PAVProperty@Net@2@@std@@@std@@$0A@@std@@@std@@QAE@ABVBufferCmp@OpenHome@@ABV?$allocator@U?$pair@$$CBVBrn@OpenHome@@PAVProperty@Net@2@@std@@@1@@Z 10055650 f i CpProxy.obj
 0001:000546b0       ?lower_bound@?$_Tree@V?$_Tmap_traits@VBrn@OpenHome@@PAVProperty@Net@2@VBufferCmp@2@V?$allocator@U?$pair@$$CBVBrn@OpenHome@@PAVProperty@Net@2@@std@@@std@@$0A@@std@@@std@@QAE?AV?$_Tree_iterator@V?$_Tree_val@V?$_Tmap_traits@VBrn@OpenHome@@PAVProperty@Net@2@VBufferCmp@2@V?$allocator@U?$pair@$$CBVBrn@OpenHome@@PAVProperty@Net@2@@std@@@std@@$0A@@std@@@std@@@2@ABVBrn@OpenHome@@@Z 100556b0 f i CpProxy.obj
 0001:00054720       ?_Lmost@?$_Tree@V?$_Tmap_traits@VBrn@OpenHome@@PAVProperty@Net@2@VBufferCmp@2@V?$allocator@U?$pair@$$CBVBrn@OpenHome@@PAVProperty@Net@2@@std@@@std@@$0A@@std@@@std@@IBEAAPAU_Node@?$_Tree_nod@V?$_Tmap_traits@VBrn@OpenHome@@PAVProperty@Net@2@VBufferCmp@2@V?$allocator@U?$pair@$$CBVBrn@OpenHome@@PAVProperty@Net@2@@std@@@std@@$0A@@std@@@2@XZ 10055720 f i CpProxy.obj
 0001:00054760       ?_Tidy@?$_Tree@V?$_Tmap_traits@VBrn@OpenHome@@PAVProperty@Net@2@VBufferCmp@2@V?$allocator@U?$pair@$$CBVBrn@OpenHome@@PAVProperty@Net@2@@std@@@std@@$0A@@std@@@std@@IAEXXZ 10055760 f i CpProxy.obj
 0001:00054890       ??1?$_Tree_val@V?$_Tmap_traits@VBrn@OpenHome@@PAVProperty@Net@2@VBufferCmp@2@V?$allocator@U?$pair@$$CBVBrn@OpenHome@@PAVProperty@Net@2@@std@@@std@@$0A@@std@@@std@@QAE@XZ 10055890 f i CpProxy.obj
 0001:00054920       ?_Key@?$_Tree_val@V?$_Tmap_traits@VBrn@OpenHome@@PAVProperty@Net@2@VBufferCmp@2@V?$allocator@U?$pair@$$CBVBrn@OpenHome@@PAVProperty@Net@2@@std@@@std@@$0A@@std@@@std@@SGAAVBrn@OpenHome@@PAU_Node@?$_Tree_nod@V?$_Tmap_traits@VBrn@OpenHome@@PAVProperty@Net@2@VBufferCmp@2@V?$allocator@U?$pair@$$CBVBrn@OpenHome@@PAVProperty@Net@2@@std@@@std@@$0A@@std@@@2@@Z 10055920 f i CpProxy.obj
 0001:00054950       ??0?$allocator@U?$pair@$$CBVBrn@OpenHome@@PAVProperty@Net@2@@std@@@std@@QAE@XZ 10055950 f i CpProxy.obj
 0001:00054970       ??0?$_Tree_iterator@V?$_Tree_val@V?$_Tmap_traits@VBrn@OpenHome@@PAVProperty@Net@2@VBufferCmp@2@V?$allocator@U?$pair@$$CBVBrn@OpenHome@@PAVProperty@Net@2@@std@@@std@@$0A@@std@@@std@@@std@@QAE@PAU_Node@?$_Tree_nod@V?$_Tmap_traits@VBrn@OpenHome@@PAVProperty@Net@2@VBufferCmp@2@V?$allocator@U?$pair@$$CBVBrn@OpenHome@@PAVProperty@Net@2@@std@@@std@@$0A@@std@@@1@PBV?$_Tree_val@V?$_Tmap_traits@VBrn@OpenHome@@PAVProperty@Net@2@VBufferCmp@2@V?$allocator@U?$pair@$$CBVBrn@OpenHome@@PAVProperty@Net@2@@std@@@std@@$0A@@std@@@1@@Z 10055970 f i CpProxy.obj
 0001:000549b0       ??D?$_Tree_iterator@V?$_Tree_val@V?$_Tmap_traits@VBrn@OpenHome@@PAVProperty@Net@2@VBufferCmp@2@V?$allocator@U?$pair@$$CBVBrn@OpenHome@@PAVProperty@Net@2@@std@@@std@@$0A@@std@@@std@@@std@@QBEAAU?$pair@$$CBVBrn@OpenHome@@PAVProperty@Net@2@@1@XZ 100559b0 f i CpProxy.obj
 0001:000549e0       ??E?$_Tree_iterator@V?$_Tree_val@V?$_Tmap_traits@VBrn@OpenHome@@PAVProperty@Net@2@VBufferCmp@2@V?$allocator@U?$pair@$$CBVBrn@OpenHome@@PAVProperty@Net@2@@std@@@std@@$0A@@std@@@std@@@std@@QAEAAV01@XZ 100559e0 f i CpProxy.obj
 0001:00054a10       ??8?$_Tree_const_iterator@V?$_Tree_val@V?$_Tmap_traits@VBrn@OpenHome@@PAVProperty@Net@2@VBufferCmp@2@V?$allocator@U?$pair@$$CBVBrn@OpenHome@@PAVProperty@Net@2@@std@@@std@@$0A@@std@@@std@@@std@@QBE_NABV01@@Z 10055a10 f i CpProxy.obj
 0001:00054b00       ?_Mynode@?$_Tree_unchecked_const_iterator@V?$_Tree_val@V?$_Tmap_traits@VBrn@OpenHome@@PAVProperty@Net@2@VBufferCmp@2@V?$allocator@U?$pair@$$CBVBrn@OpenHome@@PAVProperty@Net@2@@std@@@std@@$0A@@std@@@std@@U_Iterator_base12@2@@std@@QBEPAU_Node@?$_Tree_nod@V?$_Tmap_traits@VBrn@OpenHome@@PAVProperty@Net@2@VBufferCmp@2@V?$allocator@U?$pair@$$CBVBrn@OpenHome@@PAVProperty@Net@2@@std@@@std@@$0A@@std@@@2@XZ 10055b00 f i CpProxy.obj
 0001:00054b20       ?erase@?$_Tree@V?$_Tmap_traits@VBrn@OpenHome@@PAVProperty@Net@2@VBufferCmp@2@V?$allocator@U?$pair@$$CBVBrn@OpenHome@@PAVProperty@Net@2@@std@@@std@@$0A@@std@@@std@@QAE?AV?$_Tree_iterator@V?$_Tree_val@V?$_Tmap_traits@VBrn@OpenHome@@PAVProperty@Net@2@VBufferCmp@2@V?$allocator@U?$pair@$$CBVBrn@OpenHome@@PAVProperty@Net@2@@std@@@std@@$0A@@std@@@std@@@2@V?$_Tree_const_iterator@V?$_Tree_val@V?$_Tmap_traits@VBrn@OpenHome@@PAVProperty@Net@2@VBufferCmp@2@V?$allocator@U?$pair@$$CBVBrn@OpenHome@@PAVProperty@Net@2@@std@@@std@@$0A@@std@@@std@@@2@0@Z 10055b20 f i CpProxy.obj
 0001:00054da0       ?_Lbound@?$_Tree@V?$_Tmap_traits@VBrn@OpenHome@@PAVProperty@Net@2@VBufferCmp@2@V?$allocator@U?$pair@$$CBVBrn@OpenHome@@PAVProperty@Net@2@@std@@@std@@$0A@@std@@@std@@IAEPAU_Node@?$_Tree_nod@V?$_Tmap_traits@VBrn@OpenHome@@PAVProperty@Net@2@VBufferCmp@2@V?$allocator@U?$pair@$$CBVBrn@OpenHome@@PAVProperty@Net@2@@std@@@std@@$0A@@std@@@2@ABVBrn@OpenHome@@@Z 10055da0 f i CpProxy.obj
 0001:00054e80       ??0?$_Tree_val@V?$_Tmap_traits@VBrn@OpenHome@@PAVProperty@Net@2@VBufferCmp@2@V?$allocator@U?$pair@$$CBVBrn@OpenHome@@PAVProperty@Net@2@@std@@@std@@$0A@@std@@@std@@QAE@ABVBufferCmp@OpenHome@@V?$allocator@U?$pair@$$CBVBrn@OpenHome@@PAVProperty@Net@2@@std@@@1@@Z 10055e80 f i CpProxy.obj
 0001:00054fc0       ?_Left@?$_Tree_val@V?$_Tmap_traits@VBrn@OpenHome@@PAVProperty@Net@2@VBufferCmp@2@V?$allocator@U?$pair@$$CBVBrn@OpenHome@@PAVProperty@Net@2@@std@@@std@@$0A@@std@@@std@@SGAAPAU_Node@?$_Tree_nod@V?$_Tmap_traits@VBrn@OpenHome@@PAVProperty@Net@2@VBufferCmp@2@V?$allocator@U?$pair@$$CBVBrn@OpenHome@@PAVProperty@Net@2@@std@@@std@@$0A@@std@@@2@PAU342@@Z 10055fc0 f i CpProxy.obj
 0001:00054fd0       ?_Myval@?$_Tree_val@V?$_Tmap_traits@VBrn@OpenHome@@PAVProperty@Net@2@VBufferCmp@2@V?$allocator@U?$pair@$$CBVBrn@OpenHome@@PAVProperty@Net@2@@std@@@std@@$0A@@std@@@std@@SGAAU?$pair@$$CBVBrn@OpenHome@@PAVProperty@Net@2@@2@PAU_Node@?$_Tree_nod@V?$_Tmap_traits@VBrn@OpenHome@@PAVProperty@Net@2@VBufferCmp@2@V?$allocator@U?$pair@$$CBVBrn@OpenHome@@PAVProperty@Net@2@@std@@@std@@$0A@@std@@@2@@Z 10055fd0 f i CpProxy.obj
 0001:00054fe0       ??1?$_Tree_nod@V?$_Tmap_traits@VBrn@OpenHome@@PAVProperty@Net@2@VBufferCmp@2@V?$allocator@U?$pair@$$CBVBrn@OpenHome@@PAVProperty@Net@2@@std@@@std@@$0A@@std@@@std@@QAE@XZ 10055fe0 f i CpProxy.obj
 0001:000550f0       ??0?$allocator@U?$pair@$$CBVBrn@OpenHome@@PAVProperty@Net@2@@std@@@std@@QAE@ABV01@@Z 100560f0 f i CpProxy.obj
 0001:00055110       ?deallocate@?$allocator@U_Node@?$_Tree_nod@V?$_Tmap_traits@VBrn@OpenHome@@PAVProperty@Net@2@VBufferCmp@2@V?$allocator@U?$pair@$$CBVBrn@OpenHome@@PAVProperty@Net@2@@std@@@std@@$0A@@std@@@std@@@std@@QAEXPAU_Node@?$_Tree_nod@V?$_Tmap_traits@VBrn@OpenHome@@PAVProperty@Net@2@VBufferCmp@2@V?$allocator@U?$pair@$$CBVBrn@OpenHome@@PAVProperty@Net@2@@std@@@std@@$0A@@std@@@2@I@Z 10056110 f i CpProxy.obj
 0001:00055150       ??0?$_Tree_const_iterator@V?$_Tree_val@V?$_Tmap_traits@VBrn@OpenHome@@PAVProperty@Net@2@VBufferCmp@2@V?$allocator@U?$pair@$$CBVBrn@OpenHome@@PAVProperty@Net@2@@std@@@std@@$0A@@std@@@std@@@std@@QAE@PAU_Node@?$_Tree_nod@V?$_Tmap_traits@VBrn@OpenHome@@PAVProperty@Net@2@VBufferCmp@2@V?$allocator@U?$pair@$$CBVBrn@OpenHome@@PAVProperty@Net@2@@std@@@std@@$0A@@std@@@1@PBV?$_Tree_val@V?$_Tmap_traits@VBrn@OpenHome@@PAVProperty@Net@2@VBufferCmp@2@V?$allocator@U?$pair@$$CBVBrn@OpenHome@@PAVProperty@Net@2@@std@@@std@@$0A@@std@@@1@@Z 10056150 f i CpProxy.obj
 0001:00055190       ??D?$_Tree_const_iterator@V?$_Tree_val@V?$_Tmap_traits@VBrn@OpenHome@@PAVProperty@Net@2@VBufferCmp@2@V?$allocator@U?$pair@$$CBVBrn@OpenHome@@PAVProperty@Net@2@@std@@@std@@$0A@@std@@@std@@@std@@QBEABU?$pair@$$CBVBrn@OpenHome@@PAVProperty@Net@2@@1@XZ 10056190 f i CpProxy.obj
 0001:00055270       ??E?$_Tree_const_iterator@V?$_Tree_val@V?$_Tmap_traits@VBrn@OpenHome@@PAVProperty@Net@2@VBufferCmp@2@V?$allocator@U?$pair@$$CBVBrn@OpenHome@@PAVProperty@Net@2@@std@@@std@@$0A@@std@@@std@@@std@@QAEAAV01@XZ 10056270 f i CpProxy.obj
 0001:00055350       ??1?$_Tmap_traits@VBrn@OpenHome@@PAVProperty@Net@2@VBufferCmp@2@V?$allocator@U?$pair@$$CBVBrn@OpenHome@@PAVProperty@Net@2@@std@@@std@@$0A@@std@@QAE@XZ 10056350 f i CpProxy.obj
 0001:00055380       ?erase@?$_Tree@V?$_Tmap_traits@VBrn@OpenHome@@PAVProperty@Net@2@VBufferCmp@2@V?$allocator@U?$pair@$$CBVBrn@OpenHome@@PAVProperty@Net@2@@std@@@std@@$0A@@std@@@std@@QAE?AV?$_Tree_iterator@V?$_Tree_val@V?$_Tmap_traits@VBrn@OpenHome@@PAVProperty@Net@2@VBufferCmp@2@V?$allocator@U?$pair@$$CBVBrn@OpenHome@@PAVProperty@Net@2@@std@@@std@@$0A@@std@@@std@@@2@V?$_Tree_const_iterator@V?$_Tree_val@V?$_Tmap_traits@VBrn@OpenHome@@PAVProperty@Net@2@VBufferCmp@2@V?$allocator@U?$pair@$$CBVBrn@OpenHome@@PAVProperty@Net@2@@std@@@std@@$0A@@std@@@std@@@2@@Z 10056380 f i CpProxy.obj
 0001:00055c50       ?clear@?$_Tree@V?$_Tmap_traits@VBrn@OpenHome@@PAVProperty@Net@2@VBufferCmp@2@V?$allocator@U?$pair@$$CBVBrn@OpenHome@@PAVProperty@Net@2@@std@@@std@@$0A@@std@@@std@@QAEXXZ 10056c50 f i CpProxy.obj
 0001:00055cf0       ?_Root@?$_Tree@V?$_Tmap_traits@VBrn@OpenHome@@PAVProperty@Net@2@VBufferCmp@2@V?$allocator@U?$pair@$$CBVBrn@OpenHome@@PAVProperty@Net@2@@std@@@std@@$0A@@std@@@std@@IBEAAPAU_Node@?$_Tree_nod@V?$_Tmap_traits@VBrn@OpenHome@@PAVProperty@Net@2@VBufferCmp@2@V?$allocator@U?$pair@$$CBVBrn@OpenHome@@PAVProperty@Net@2@@std@@@std@@$0A@@std@@@2@XZ 10056cf0 f i CpProxy.obj
 0001:00055d30       ?_Color@?$_Tree_val@V?$_Tmap_traits@VBrn@OpenHome@@PAVProperty@Net@2@VBufferCmp@2@V?$allocator@U?$pair@$$CBVBrn@OpenHome@@PAVProperty@Net@2@@std@@@std@@$0A@@std@@@std@@SGAADPAU_Node@?$_Tree_nod@V?$_Tmap_traits@VBrn@OpenHome@@PAVProperty@Net@2@VBufferCmp@2@V?$allocator@U?$pair@$$CBVBrn@OpenHome@@PAVProperty@Net@2@@std@@@std@@$0A@@std@@@2@@Z 10056d30 f i CpProxy.obj
 0001:00055d40       ?_Isnil@?$_Tree_val@V?$_Tmap_traits@VBrn@OpenHome@@PAVProperty@Net@2@VBufferCmp@2@V?$allocator@U?$pair@$$CBVBrn@OpenHome@@PAVProperty@Net@2@@std@@@std@@$0A@@std@@@std@@SGAADPAU_Node@?$_Tree_nod@V?$_Tmap_traits@VBrn@OpenHome@@PAVProperty@Net@2@VBufferCmp@2@V?$allocator@U?$pair@$$CBVBrn@OpenHome@@PAVProperty@Net@2@@std@@@std@@$0A@@std@@@2@@Z 10056d40 f i CpProxy.obj
 0001:00055d50       ?_Parent@?$_Tree_val@V?$_Tmap_traits@VBrn@OpenHome@@PAVProperty@Net@2@VBufferCmp@2@V?$allocator@U?$pair@$$CBVBrn@OpenHome@@PAVProperty@Net@2@@std@@@std@@$0A@@std@@@std@@SGAAPAU_Node@?$_Tree_nod@V?$_Tmap_traits@VBrn@OpenHome@@PAVProperty@Net@2@VBufferCmp@2@V?$allocator@U?$pair@$$CBVBrn@OpenHome@@PAVProperty@Net@2@@std@@@std@@$0A@@std@@@2@PAU342@@Z 10056d50 f i CpProxy.obj
 0001:00055d60       ?_Right@?$_Tree_val@V?$_Tmap_traits@VBrn@OpenHome@@PAVProperty@Net@2@VBufferCmp@2@V?$allocator@U?$pair@$$CBVBrn@OpenHome@@PAVProperty@Net@2@@std@@@std@@$0A@@std@@@std@@SGAAPAU_Node@?$_Tree_nod@V?$_Tmap_traits@VBrn@OpenHome@@PAVProperty@Net@2@VBufferCmp@2@V?$allocator@U?$pair@$$CBVBrn@OpenHome@@PAVProperty@Net@2@@std@@@std@@$0A@@std@@@2@PAU342@@Z 10056d60 f i CpProxy.obj
 0001:00055d70       ??0?$_Tree_nod@V?$_Tmap_traits@VBrn@OpenHome@@PAVProperty@Net@2@VBufferCmp@2@V?$allocator@U?$pair@$$CBVBrn@OpenHome@@PAVProperty@Net@2@@std@@@std@@$0A@@std@@@std@@QAE@ABVBufferCmp@OpenHome@@V?$allocator@U?$pair@$$CBVBrn@OpenHome@@PAVProperty@Net@2@@std@@@1@@Z 10056d70 f i CpProxy.obj
 0001:00055ec0       ?allocate@?$allocator@U_Node@?$_Tree_nod@V?$_Tmap_traits@VBrn@OpenHome@@PAVProperty@Net@2@VBufferCmp@2@V?$allocator@U?$pair@$$CBVBrn@OpenHome@@PAVProperty@Net@2@@std@@@std@@$0A@@std@@@std@@@std@@QAEPAU_Node@?$_Tree_nod@V?$_Tmap_traits@VBrn@OpenHome@@PAVProperty@Net@2@VBufferCmp@2@V?$allocator@U?$pair@$$CBVBrn@OpenHome@@PAVProperty@Net@2@@std@@@std@@$0A@@std@@@2@I@Z 10056ec0 f i CpProxy.obj
 0001:00055f00       ??E?$_Tree_const_iterator@V?$_Tree_val@V?$_Tmap_traits@VBrn@OpenHome@@PAVProperty@Net@2@VBufferCmp@2@V?$allocator@U?$pair@$$CBVBrn@OpenHome@@PAVProperty@Net@2@@std@@@std@@$0A@@std@@@std@@@std@@QAE?AV01@H@Z 10056f00 f i CpProxy.obj
 0001:00056000       ??0?$_Tree_unchecked_const_iterator@V?$_Tree_val@V?$_Tmap_traits@VBrn@OpenHome@@PAVProperty@Net@2@VBufferCmp@2@V?$allocator@U?$pair@$$CBVBrn@OpenHome@@PAVProperty@Net@2@@std@@@std@@$0A@@std@@@std@@U_Iterator_base12@2@@std@@QAE@PAU_Node@?$_Tree_nod@V?$_Tmap_traits@VBrn@OpenHome@@PAVProperty@Net@2@VBufferCmp@2@V?$allocator@U?$pair@$$CBVBrn@OpenHome@@PAVProperty@Net@2@@std@@@std@@$0A@@std@@@1@PBV?$_Tree_val@V?$_Tmap_traits@VBrn@OpenHome@@PAVProperty@Net@2@VBufferCmp@2@V?$allocator@U?$pair@$$CBVBrn@OpenHome@@PAVProperty@Net@2@@std@@@std@@$0A@@std@@@1@@Z 10057000 f i CpProxy.obj
 0001:000560a0       ??E?$_Tree_unchecked_const_iterator@V?$_Tree_val@V?$_Tmap_traits@VBrn@OpenHome@@PAVProperty@Net@2@VBufferCmp@2@V?$allocator@U?$pair@$$CBVBrn@OpenHome@@PAVProperty@Net@2@@std@@@std@@$0A@@std@@@std@@U_Iterator_base12@2@@std@@QAEAAV01@XZ 100570a0 f i CpProxy.obj
 0001:00056190       ??0?$_Iterator012@Ubidirectional_iterator_tag@std@@U?$pair@$$CBVBrn@OpenHome@@PAVProperty@Net@2@@2@HPBU32@ABU32@U_Iterator_base12@2@@std@@QAE@XZ 10057190 f i CpProxy.obj
 0001:000561c0       ?_Erase@?$_Tree@V?$_Tmap_traits@VBrn@OpenHome@@PAVProperty@Net@2@VBufferCmp@2@V?$allocator@U?$pair@$$CBVBrn@OpenHome@@PAVProperty@Net@2@@std@@@std@@$0A@@std@@@std@@IAEXPAU_Node@?$_Tree_nod@V?$_Tmap_traits@VBrn@OpenHome@@PAVProperty@Net@2@VBufferCmp@2@V?$allocator@U?$pair@$$CBVBrn@OpenHome@@PAVProperty@Net@2@@std@@@std@@$0A@@std@@@2@@Z 100571c0 f i CpProxy.obj
 0001:00056280       ?_Lrotate@?$_Tree@V?$_Tmap_traits@VBrn@OpenHome@@PAVProperty@Net@2@VBufferCmp@2@V?$allocator@U?$pair@$$CBVBrn@OpenHome@@PAVProperty@Net@2@@std@@@std@@$0A@@std@@@std@@IAEXPAU_Node@?$_Tree_nod@V?$_Tmap_traits@VBrn@OpenHome@@PAVProperty@Net@2@VBufferCmp@2@V?$allocator@U?$pair@$$CBVBrn@OpenHome@@PAVProperty@Net@2@@std@@@std@@$0A@@std@@@2@@Z 10057280 f i CpProxy.obj
 0001:000563e0       ?_Rmost@?$_Tree@V?$_Tmap_traits@VBrn@OpenHome@@PAVProperty@Net@2@VBufferCmp@2@V?$allocator@U?$pair@$$CBVBrn@OpenHome@@PAVProperty@Net@2@@std@@@std@@$0A@@std@@@std@@IBEAAPAU_Node@?$_Tree_nod@V?$_Tmap_traits@VBrn@OpenHome@@PAVProperty@Net@2@VBufferCmp@2@V?$allocator@U?$pair@$$CBVBrn@OpenHome@@PAVProperty@Net@2@@std@@@std@@$0A@@std@@@2@XZ 100573e0 f i CpProxy.obj
 0001:00056420       ?_Rrotate@?$_Tree@V?$_Tmap_traits@VBrn@OpenHome@@PAVProperty@Net@2@VBufferCmp@2@V?$allocator@U?$pair@$$CBVBrn@OpenHome@@PAVProperty@Net@2@@std@@@std@@$0A@@std@@@std@@IAEXPAU_Node@?$_Tree_nod@V?$_Tmap_traits@VBrn@OpenHome@@PAVProperty@Net@2@VBufferCmp@2@V?$allocator@U?$pair@$$CBVBrn@OpenHome@@PAVProperty@Net@2@@std@@@std@@$0A@@std@@@2@@Z 10057420 f i CpProxy.obj
 0001:00056580       ?_Orphan_ptr@?$_Tree@V?$_Tmap_traits@VBrn@OpenHome@@PAVProperty@Net@2@VBufferCmp@2@V?$allocator@U?$pair@$$CBVBrn@OpenHome@@PAVProperty@Net@2@@std@@@std@@$0A@@std@@@std@@IBEXAAV12@PAU_Node@?$_Tree_nod@V?$_Tmap_traits@VBrn@OpenHome@@PAVProperty@Net@2@VBufferCmp@2@V?$allocator@U?$pair@$$CBVBrn@OpenHome@@PAVProperty@Net@2@@std@@@std@@$0A@@std@@@2@@Z 10057580 f i CpProxy.obj
 0001:000566d0       ?_Max@?$_Tree_val@V?$_Tmap_traits@VBrn@OpenHome@@PAVProperty@Net@2@VBufferCmp@2@V?$allocator@U?$pair@$$CBVBrn@OpenHome@@PAVProperty@Net@2@@std@@@std@@$0A@@std@@@std@@SGPAU_Node@?$_Tree_nod@V?$_Tmap_traits@VBrn@OpenHome@@PAVProperty@Net@2@VBufferCmp@2@V?$allocator@U?$pair@$$CBVBrn@OpenHome@@PAVProperty@Net@2@@std@@@std@@$0A@@std@@@2@PAU342@@Z 100576d0 f i CpProxy.obj
 0001:00056720       ?_Min@?$_Tree_val@V?$_Tmap_traits@VBrn@OpenHome@@PAVProperty@Net@2@VBufferCmp@2@V?$allocator@U?$pair@$$CBVBrn@OpenHome@@PAVProperty@Net@2@@std@@@std@@$0A@@std@@@std@@SGPAU_Node@?$_Tree_nod@V?$_Tmap_traits@VBrn@OpenHome@@PAVProperty@Net@2@VBufferCmp@2@V?$allocator@U?$pair@$$CBVBrn@OpenHome@@PAVProperty@Net@2@@std@@@std@@$0A@@std@@@2@PAU342@@Z 10057720 f i CpProxy.obj
 0001:00056770       ??0?$_Tmap_traits@VBrn@OpenHome@@PAVProperty@Net@2@VBufferCmp@2@V?$allocator@U?$pair@$$CBVBrn@OpenHome@@PAVProperty@Net@2@@std@@@std@@$0A@@std@@QAE@VBufferCmp@OpenHome@@@Z 10057770 f i CpProxy.obj
 0001:000567b0       ??$?0AAVBrn@OpenHome@@AAPAVProperty@Net@1@@?$pair@VBrn@OpenHome@@PAVProperty@Net@2@@std@@QAE@AAVBrn@OpenHome@@AAPAVProperty@Net@3@@Z 100577b0 f i CpProxy.obj
 0001:00056800       ??$insert@U?$pair@VBrn@OpenHome@@PAVProperty@Net@2@@std@@@?$_Tree@V?$_Tmap_traits@VBrn@OpenHome@@PAVProperty@Net@2@VBufferCmp@2@V?$allocator@U?$pair@$$CBVBrn@OpenHome@@PAVProperty@Net@2@@std@@@std@@$0A@@std@@@std@@QAE?AU?$pair@V?$_Tree_iterator@V?$_Tree_val@V?$_Tmap_traits@VBrn@OpenHome@@PAVProperty@Net@2@VBufferCmp@2@V?$allocator@U?$pair@$$CBVBrn@OpenHome@@PAVProperty@Net@2@@std@@@std@@$0A@@std@@@std@@@std@@_N@1@$$QAU?$pair@VBrn@OpenHome@@PAVProperty@Net@2@@1@@Z 10057800 f i CpProxy.obj
 0001:00056880       ??$_Kfn@$$CBVBrn@OpenHome@@PAVProperty@Net@2@@?$_Tmap_traits@VBrn@OpenHome@@PAVProperty@Net@2@VBufferCmp@2@V?$allocator@U?$pair@$$CBVBrn@OpenHome@@PAVProperty@Net@2@@std@@@std@@$0A@@std@@SGABVBrn@OpenHome@@ABU?$pair@$$CBVBrn@OpenHome@@PAVProperty@Net@2@@1@@Z 10057880 f i CpProxy.obj
 0001:00056890       ??$?0U_Node@?$_Tree_nod@V?$_Tmap_traits@VBrn@OpenHome@@PAVProperty@Net@2@VBufferCmp@2@V?$allocator@U?$pair@$$CBVBrn@OpenHome@@PAVProperty@Net@2@@std@@@std@@$0A@@std@@@std@@@?$allocator@U_Container_proxy@std@@@std@@QAE@ABV?$allocator@U_Node@?$_Tree_nod@V?$_Tmap_traits@VBrn@OpenHome@@PAVProperty@Net@2@VBufferCmp@2@V?$allocator@U?$pair@$$CBVBrn@OpenHome@@PAVProperty@Net@2@@std@@@std@@$0A@@std@@@std@@@1@@Z 10057890 f i CpProxy.obj
 0001:000568b0       ??$addressof@U?$pair@$$CBVBrn@OpenHome@@PAVProperty@Net@2@@std@@@std@@YGPAU?$pair@$$CBVBrn@OpenHome@@PAVProperty@Net@2@@0@AAU10@@Z 100578b0 f i CpProxy.obj
 0001:000568c0       ??$_Dest_val@V?$allocator@U?$pair@$$CBVBrn@OpenHome@@PAVProperty@Net@2@@std@@@std@@U?$pair@$$CBVBrn@OpenHome@@PAVProperty@Net@2@@2@@std@@YGXAAV?$allocator@U?$pair@$$CBVBrn@OpenHome@@PAVProperty@Net@2@@std@@@0@PAU?$pair@$$CBVBrn@OpenHome@@PAVProperty@Net@2@@0@@Z 100578c0 f i CpProxy.obj
 0001:000568e0       ??$?0U?$pair@$$CBVBrn@OpenHome@@PAVProperty@Net@2@@std@@@?$allocator@U_Node@?$_Tree_nod@V?$_Tmap_traits@VBrn@OpenHome@@PAVProperty@Net@2@VBufferCmp@2@V?$allocator@U?$pair@$$CBVBrn@OpenHome@@PAVProperty@Net@2@@std@@@std@@$0A@@std@@@std@@@std@@QAE@ABV?$allocator@U?$pair@$$CBVBrn@OpenHome@@PAVProperty@Net@2@@std@@@1@@Z 100578e0 f i CpProxy.obj
 0001:00056900       ??$_Allocate@U_Node@?$_Tree_nod@V?$_Tmap_traits@VBrn@OpenHome@@PAVProperty@Net@2@VBufferCmp@2@V?$allocator@U?$pair@$$CBVBrn@OpenHome@@PAVProperty@Net@2@@std@@@std@@$0A@@std@@@std@@@std@@YGPAU_Node@?$_Tree_nod@V?$_Tmap_traits@VBrn@OpenHome@@PAVProperty@Net@2@VBufferCmp@2@V?$allocator@U?$pair@$$CBVBrn@OpenHome@@PAVProperty@Net@2@@std@@@std@@$0A@@std@@@0@IPAU120@@Z 10057900 f i CpProxy.obj
 0001:000569a0       ?_Linsert@?$_Tree@V?$_Tmap_traits@VBrn@OpenHome@@PAVProperty@Net@2@VBufferCmp@2@V?$allocator@U?$pair@$$CBVBrn@OpenHome@@PAVProperty@Net@2@@std@@@std@@$0A@@std@@@std@@QAE?AU?$pair@V?$_Tree_iterator@V?$_Tree_val@V?$_Tmap_traits@VBrn@OpenHome@@PAVProperty@Net@2@VBufferCmp@2@V?$allocator@U?$pair@$$CBVBrn@OpenHome@@PAVProperty@Net@2@@std@@@std@@$0A@@std@@@std@@@std@@_N@2@PAU_Node@?$_Tree_nod@V?$_Tmap_traits@VBrn@OpenHome@@PAVProperty@Net@2@VBufferCmp@2@V?$allocator@U?$pair@$$CBVBrn@OpenHome@@PAVProperty@Net@2@@std@@@std@@$0A@@std@@@2@_N@Z 100579a0 f i CpProxy.obj
 0001:00056e70       ?destroy@?$allocator@U?$pair@$$CBVBrn@OpenHome@@PAVProperty@Net@2@@std@@@std@@QAEXPAU?$pair@$$CBVBrn@OpenHome@@PAVProperty@Net@2@@2@@Z 10057e70 f i CpProxy.obj
 0001:00056ea0       ?_Insert@?$_Tree@V?$_Tmap_traits@VBrn@OpenHome@@PAVProperty@Net@2@VBufferCmp@2@V?$allocator@U?$pair@$$CBVBrn@OpenHome@@PAVProperty@Net@2@@std@@@std@@$0A@@std@@@std@@IAE?AV?$_Tree_iterator@V?$_Tree_val@V?$_Tmap_traits@VBrn@OpenHome@@PAVProperty@Net@2@VBufferCmp@2@V?$allocator@U?$pair@$$CBVBrn@OpenHome@@PAVProperty@Net@2@@std@@@std@@$0A@@std@@@std@@@2@_NPAU_Node@?$_Tree_nod@V?$_Tmap_traits@VBrn@OpenHome@@PAVProperty@Net@2@VBufferCmp@2@V?$allocator@U?$pair@$$CBVBrn@OpenHome@@PAVProperty@Net@2@@std@@@std@@$0A@@std@@@2@1@Z 10057ea0 f i CpProxy.obj
 0001:00057350       ??F?$_Tree_iterator@V?$_Tree_val@V?$_Tmap_traits@VBrn@OpenHome@@PAVProperty@Net@2@VBufferCmp@2@V?$allocator@U?$pair@$$CBVBrn@OpenHome@@PAVProperty@Net@2@@std@@@std@@$0A@@std@@@std@@@std@@QAEAAV01@XZ 10058350 f i CpProxy.obj
 0001:00057380       ??0?$pair@V?$_Tree_iterator@V?$_Tree_val@V?$_Tmap_traits@VBrn@OpenHome@@PAVProperty@Net@2@VBufferCmp@2@V?$allocator@U?$pair@$$CBVBrn@OpenHome@@PAVProperty@Net@2@@std@@@std@@$0A@@std@@@std@@@std@@_N@std@@QAE@$$QAV?$_Tree_iterator@V?$_Tree_val@V?$_Tmap_traits@VBrn@OpenHome@@PAVProperty@Net@2@VBufferCmp@2@V?$allocator@U?$pair@$$CBVBrn@OpenHome@@PAVProperty@Net@2@@std@@@std@@$0A@@std@@@std@@@1@$$QA_N@Z 10058380 f i CpProxy.obj
 0001:000573d0       ?max_size@?$_Tree@V?$_Tmap_traits@VBrn@OpenHome@@PAVProperty@Net@2@VBufferCmp@2@V?$allocator@U?$pair@$$CBVBrn@OpenHome@@PAVProperty@Net@2@@std@@@std@@$0A@@std@@@std@@QBEIXZ 100583d0 f i CpProxy.obj
 0001:00057400       ??F?$_Tree_const_iterator@V?$_Tree_val@V?$_Tmap_traits@VBrn@OpenHome@@PAVProperty@Net@2@VBufferCmp@2@V?$allocator@U?$pair@$$CBVBrn@OpenHome@@PAVProperty@Net@2@@std@@@std@@$0A@@std@@@std@@@std@@QAEAAV01@XZ 10058400 f i CpProxy.obj
 0001:00057570       ??0?$_Pair_base@V?$_Tree_iterator@V?$_Tree_val@V?$_Tmap_traits@VBrn@OpenHome@@PAVProperty@Net@2@VBufferCmp@2@V?$allocator@U?$pair@$$CBVBrn@OpenHome@@PAVProperty@Net@2@@std@@@std@@$0A@@std@@@std@@@std@@_N@std@@QAE@$$QAV?$_Tree_iterator@V?$_Tree_val@V?$_Tmap_traits@VBrn@OpenHome@@PAVProperty@Net@2@VBufferCmp@2@V?$allocator@U?$pair@$$CBVBrn@OpenHome@@PAVProperty@Net@2@@std@@@std@@$0A@@std@@@std@@@1@$$QA_N@Z 10058570 f i CpProxy.obj
 0001:00057610       ?max_size@?$allocator@U?$pair@$$CBVBrn@OpenHome@@PAVProperty@Net@2@@std@@@std@@QBEIXZ 10058610 f i CpProxy.obj
 0001:00057670       ??F?$_Tree_unchecked_const_iterator@V?$_Tree_val@V?$_Tmap_traits@VBrn@OpenHome@@PAVProperty@Net@2@VBufferCmp@2@V?$allocator@U?$pair@$$CBVBrn@OpenHome@@PAVProperty@Net@2@@std@@@std@@$0A@@std@@@std@@U_Iterator_base12@2@@std@@QAEAAV01@XZ 10058670 f i CpProxy.obj
 0001:000577a0       ??$forward@AAPAVProperty@Net@OpenHome@@@std@@YGAAPAVProperty@Net@OpenHome@@AAPAV123@@Z 100587a0 f i CpProxy.obj
 0001:000577b0       ??$?0AAVBrn@OpenHome@@AAPAVProperty@Net@1@@?$_Pair_base@VBrn@OpenHome@@PAVProperty@Net@2@@std@@QAE@AAVBrn@OpenHome@@AAPAVProperty@Net@3@@Z 100587b0 f i CpProxy.obj
 0001:00057850       ??$forward@U?$pair@VBrn@OpenHome@@PAVProperty@Net@2@@std@@@std@@YG$$QAU?$pair@VBrn@OpenHome@@PAVProperty@Net@2@@0@AAU10@@Z 10058850 f i CpProxy.obj
 0001:00057860       ??$_Buynode@U?$pair@VBrn@OpenHome@@PAVProperty@Net@2@@std@@@?$_Tree_val@V?$_Tmap_traits@VBrn@OpenHome@@PAVProperty@Net@2@VBufferCmp@2@V?$allocator@U?$pair@$$CBVBrn@OpenHome@@PAVProperty@Net@2@@std@@@std@@$0A@@std@@@std@@QAEPAU_Node@?$_Tree_nod@V?$_Tmap_traits@VBrn@OpenHome@@PAVProperty@Net@2@VBufferCmp@2@V?$allocator@U?$pair@$$CBVBrn@OpenHome@@PAVProperty@Net@2@@std@@@std@@$0A@@std@@@1@$$QAU?$pair@VBrn@OpenHome@@PAVProperty@Net@2@@1@@Z 10058860 f i CpProxy.obj
 0001:00057980       ??$?0AAV?$_Tree_iterator@V?$_Tree_val@V?$_Tmap_traits@VBrn@OpenHome@@PAVProperty@Net@2@VBufferCmp@2@V?$allocator@U?$pair@$$CBVBrn@OpenHome@@PAVProperty@Net@2@@std@@@std@@$0A@@std@@@std@@@std@@_N@?$pair@V?$_Tree_iterator@V?$_Tree_val@V?$_Tmap_traits@VBrn@OpenHome@@PAVProperty@Net@2@VBufferCmp@2@V?$allocator@U?$pair@$$CBVBrn@OpenHome@@PAVProperty@Net@2@@std@@@std@@$0A@@std@@@std@@@std@@_N@std@@QAE@AAV?$_Tree_iterator@V?$_Tree_val@V?$_Tmap_traits@VBrn@OpenHome@@PAVProperty@Net@2@VBufferCmp@2@V?$allocator@U?$pair@$$CBVBrn@OpenHome@@PAVProperty@Net@2@@std@@@std@@$0A@@std@@@std@@@1@$$QA_N@Z 10058980 f i CpProxy.obj
 0001:000579d0       ??$_Destroy@U?$pair@$$CBVBrn@OpenHome@@PAVProperty@Net@2@@std@@@std@@YGXPAU?$pair@$$CBVBrn@OpenHome@@PAVProperty@Net@2@@0@@Z 100589d0 f i CpProxy.obj
 0001:000579f0       ??$move@AAV?$_Tree_iterator@V?$_Tree_val@V?$_Tmap_traits@VBrn@OpenHome@@PAVProperty@Net@2@VBufferCmp@2@V?$allocator@U?$pair@$$CBVBrn@OpenHome@@PAVProperty@Net@2@@std@@@std@@$0A@@std@@@std@@@std@@@std@@YG$$QAV?$_Tree_iterator@V?$_Tree_val@V?$_Tmap_traits@VBrn@OpenHome@@PAVProperty@Net@2@VBufferCmp@2@V?$allocator@U?$pair@$$CBVBrn@OpenHome@@PAVProperty@Net@2@@std@@@std@@$0A@@std@@@std@@@0@AAV10@@Z 100589f0 f i CpProxy.obj
 0001:00057a00       ??_G?$pair@$$CBVBrn@OpenHome@@PAVProperty@Net@2@@std@@QAEPAXI@Z 10058a00 f i CpProxy.obj
 0001:00057a50       ??1?$pair@$$CBVBrn@OpenHome@@PAVProperty@Net@2@@std@@QAE@XZ 10058a50 f i CpProxy.obj
 0001:00057a80       ??1?$_Pair_base@$$CBVBrn@OpenHome@@PAVProperty@Net@2@@std@@QAE@XZ 10058a80 f i CpProxy.obj
 0001:00057ab0       ?_Buynode@?$_Tree_val@V?$_Tmap_traits@VBrn@OpenHome@@PAVProperty@Net@2@VBufferCmp@2@V?$allocator@U?$pair@$$CBVBrn@OpenHome@@PAVProperty@Net@2@@std@@@std@@$0A@@std@@@std@@QAEPAU_Node@?$_Tree_nod@V?$_Tmap_traits@VBrn@OpenHome@@PAVProperty@Net@2@VBufferCmp@2@V?$allocator@U?$pair@$$CBVBrn@OpenHome@@PAVProperty@Net@2@@std@@@std@@$0A@@std@@@2@XZ 10058ab0 f i CpProxy.obj
 0001:00057b60       ??$_Cons_val@V?$allocator@U?$pair@$$CBVBrn@OpenHome@@PAVProperty@Net@2@@std@@@std@@U?$pair@$$CBVBrn@OpenHome@@PAVProperty@Net@2@@2@U?$pair@VBrn@OpenHome@@PAVProperty@Net@2@@2@@std@@YGXAAV?$allocator@U?$pair@$$CBVBrn@OpenHome@@PAVProperty@Net@2@@std@@@0@PAU?$pair@$$CBVBrn@OpenHome@@PAVProperty@Net@2@@0@$$QAU?$pair@VBrn@OpenHome@@PAVProperty@Net@2@@0@@Z 10058b60 f i CpProxy.obj
 0001:00057b90       ??$forward@AAV?$_Tree_iterator@V?$_Tree_val@V?$_Tmap_traits@VBrn@OpenHome@@PAVProperty@Net@2@VBufferCmp@2@V?$allocator@U?$pair@$$CBVBrn@OpenHome@@PAVProperty@Net@2@@std@@@std@@$0A@@std@@@std@@@std@@@std@@YGAAV?$_Tree_iterator@V?$_Tree_val@V?$_Tmap_traits@VBrn@OpenHome@@PAVProperty@Net@2@VBufferCmp@2@V?$allocator@U?$pair@$$CBVBrn@OpenHome@@PAVProperty@Net@2@@std@@@std@@$0A@@std@@@std@@@0@AAV10@@Z 10058b90 f i CpProxy.obj
 0001:00057ba0       ??$?0AAV?$_Tree_iterator@V?$_Tree_val@V?$_Tmap_traits@VBrn@OpenHome@@PAVProperty@Net@2@VBufferCmp@2@V?$allocator@U?$pair@$$CBVBrn@OpenHome@@PAVProperty@Net@2@@std@@@std@@$0A@@std@@@std@@@std@@_N@?$_Pair_base@V?$_Tree_iterator@V?$_Tree_val@V?$_Tmap_traits@VBrn@OpenHome@@PAVProperty@Net@2@VBufferCmp@2@V?$allocator@U?$pair@$$CBVBrn@OpenHome@@PAVProperty@Net@2@@std@@@std@@$0A@@std@@@std@@@std@@_N@std@@QAE@AAV?$_Tree_iterator@V?$_Tree_val@V?$_Tmap_traits@VBrn@OpenHome@@PAVProperty@Net@2@VBufferCmp@2@V?$allocator@U?$pair@$$CBVBrn@OpenHome@@PAVProperty@Net@2@@std@@@std@@$0A@@std@@@std@@@1@$$QA_N@Z 10058ba0 f i CpProxy.obj
 0001:00057c40       ??$construct@U?$pair@VBrn@OpenHome@@PAVProperty@Net@2@@std@@@?$allocator@U?$pair@$$CBVBrn@OpenHome@@PAVProperty@Net@2@@std@@@std@@QAEXPAU?$pair@$$CBVBrn@OpenHome@@PAVProperty@Net@2@@1@$$QAU?$pair@VBrn@OpenHome@@PAVProperty@Net@2@@1@@Z 10058c40 f i CpProxy.obj
 0001:00057d10       ??$?0VBrn@OpenHome@@PAVProperty@Net@1@@?$pair@$$CBVBrn@OpenHome@@PAVProperty@Net@2@@std@@QAE@$$QAU?$pair@VBrn@OpenHome@@PAVProperty@Net@2@@1@@Z 10058d10 f i CpProxy.obj
 0001:00057d60       ??$forward@PAVProperty@Net@OpenHome@@@std@@YG$$QAPAVProperty@Net@OpenHome@@AAPAV123@@Z 10058d60 f i CpProxy.obj
 0001:00057d70       ??$?0VBrn@OpenHome@@PAVProperty@Net@1@@?$_Pair_base@$$CBVBrn@OpenHome@@PAVProperty@Net@2@@std@@QAE@$$QAVBrn@OpenHome@@$$QAPAVProperty@Net@3@@Z 10058d70 f i CpProxy.obj
 0001:00057e10       ?Subscribe@CpProxyC@Net@OpenHome@@QAEXXZ 10058e10 f i CpProxyC.obj
 0001:00057e40       ?Unsubscribe@CpProxyC@Net@OpenHome@@QAEXXZ 10058e40 f i CpProxyC.obj
 0001:00057e70       ?SetPropertyChanged@CpProxyC@Net@OpenHome@@QAEXAAVFunctor@3@@Z 10058e70 f i CpProxyC.obj
 0001:00057eb0       ?SetPropertyInitialEvent@CpProxyC@Net@OpenHome@@QAEXAAVFunctor@3@@Z 10058eb0 f i CpProxyC.obj
 0001:00057ef0       ?Service@CpProxyC@Net@OpenHome@@QBEPAVCpiService@23@XZ 10058ef0 f i CpProxyC.obj
 0001:00057f20       ?AddProperty@CpProxyC@Net@OpenHome@@QAEXPAVProperty@23@@Z 10058f20 f i CpProxyC.obj
 0001:00057f60       ?PropertyReadLock@CpProxyC@Net@OpenHome@@QBEXXZ 10058f60 f i CpProxyC.obj
 0001:00057f90       ?PropertyReadUnlock@CpProxyC@Net@OpenHome@@QBEXXZ 10058f90 f i CpProxyC.obj
 0001:00057fc0       ?DestroyService@CpProxyC@Net@OpenHome@@IAEXXZ 10058fc0 f i CpProxyC.obj
 0001:00057ff0       ?Invocable@CpProxyC@Net@OpenHome@@IAEAAVIInvocable@23@XZ 10058ff0 f i CpProxyC.obj
 0001:00058020       ?ReportEvent@CpProxyC@Net@OpenHome@@IAEXVFunctor@3@@Z 10059020 f i CpProxyC.obj
 0001:00058080       ?IsSubscribed@CpProxyC@Net@OpenHome@@IBE_NXZ 10059080 f i CpProxyC.obj
 0001:000580b0       ??0CpProxyC@Net@OpenHome@@IAE@AAVCpiDevice@12@@Z 100590b0 f   CpProxyC.obj
 0001:00058160       ??0CpProxyC@Net@OpenHome@@QAE@PBD0IAAVCpiDevice@12@@Z 10059160 f   CpProxyC.obj
 0001:00058220       ??1CpProxyC@Net@OpenHome@@UAE@XZ 10059220 f   CpProxyC.obj
 0001:000582b0       _CpProxyCreate@16          100592b0 f   CpProxyC.obj
 0001:00058320       _CpProxyDestroy@4          10059320 f   CpProxyC.obj
 0001:00058390       _CpProxyService@4          10059390 f   CpProxyC.obj
 0001:000583c0       _CpProxySubscribe@4        100593c0 f   CpProxyC.obj
 0001:00058400       _CpProxyUnsubscribe@4      10059400 f   CpProxyC.obj
 0001:00058440       _CpProxySetPropertyChanged@12 10059440 f   CpProxyC.obj
 0001:000584e0       _CpProxySetPropertyInitialEvent@12 100594e0 f   CpProxyC.obj
 0001:00058580       _CpProxyPropertyReadLock@4 10059580 f   CpProxyC.obj
 0001:000585c0       _CpProxyPropertyReadUnlock@4 100595c0 f   CpProxyC.obj
 0001:00058600       _CpProxyAddProperty@8      10059600 f   CpProxyC.obj
 0001:000587d0       ??_ECpProxyC@Net@OpenHome@@UAEPAXI@Z 100597d0 f i CpProxyC.obj
 0001:00058870       ?MakeFunctor@OpenHome@@YG?AVMemberTranslatorC@1@PAXP6GX0@Z@Z 10059870 f i CpProxyC.obj
 0001:000588a0       ??0MemberTranslatorC@OpenHome@@QAE@PAXP6GX0@Z@Z 100598a0 f i CpProxyC.obj
 0001:000588f0       ??0Functor@OpenHome@@IAE@P6GXABV01@@ZPBXP6GXPAX@Z@Z 100598f0 f i CpProxyC.obj
 0001:00058930       ?Thunk@MemberTranslatorC@OpenHome@@SGXABVFunctor@2@@Z 10059930 f i CpProxyC.obj
 0001:00058960       _CpServiceCreate@16        10059960 f   CpServiceC.obj
 0001:000589d0       _CpServiceDestroy@4        100599d0 f   CpServiceC.obj
 0001:00058a30       _CpServiceInvocation@16    10059a30 f   CpServiceC.obj
 0001:00058af0       _CpServiceInvokeAction@8   10059af0 f   CpServiceC.obj
 0001:00058b80       _ActionArgumentCreateIntInput@8 10059b80 f   CpServiceC.obj
 0001:00058bf0       _ActionArgumentCreateIntOutput@4 10059bf0 f   CpServiceC.obj
 0001:00058c60       _ActionArgumentCreateUintInput@8 10059c60 f   CpServiceC.obj
 0001:00058cd0       _ActionArgumentCreateUintOutput@4 10059cd0 f   CpServiceC.obj
 0001:00058d40       _ActionArgumentCreateBoolInput@8 10059d40 f   CpServiceC.obj
 0001:00058dc0       _ActionArgumentCreateBoolOutput@4 10059dc0 f   CpServiceC.obj
 0001:00058e30       _ActionArgumentCreateStringInput@8 10059e30 f   CpServiceC.obj
 0001:00058ee0       _ActionArgumentCreateStringOutput@4 10059ee0 f   CpServiceC.obj
 0001:00058f50       _ActionArgumentCreateBinaryInput@12 10059f50 f   CpServiceC.obj
 0001:00059000       _ActionArgumentCreateBinaryOutput@4 1005a000 f   CpServiceC.obj
 0001:00059070       _ActionArgumentValueInt@4  1005a070 f   CpServiceC.obj
 0001:000590b0       _ActionArgumentValueUint@4 1005a0b0 f   CpServiceC.obj
 0001:000590f0       _ActionArgumentValueBool@4 1005a0f0 f   CpServiceC.obj
 0001:00059150       _ActionArgumentValueString@4 1005a150 f   CpServiceC.obj
 0001:000591f0       _ActionArgumentGetValueBinary@12 1005a1f0 f   CpServiceC.obj
 0001:000592a0       _CpInvocationAddInput@8    1005a2a0 f   CpServiceC.obj
 0001:00059310       _CpInvocationAddOutput@8   1005a310 f   CpServiceC.obj
 0001:00059380       _CpInvocationError@4       1005a380 f   CpServiceC.obj
 0001:000593e0       _CpInvocationOutputInt@8   1005a3e0 f   CpServiceC.obj
 0001:00059450       _CpInvocationOutputUint@8  1005a450 f   CpServiceC.obj
 0001:000594c0       _CpInvocationOutputBool@8  1005a4c0 f   CpServiceC.obj
 0001:00059540       _CpInvocationOutputString@8 1005a540 f   CpServiceC.obj
 0001:00059600       _CpInvocationGetOutputBinary@16 1005a600 f   CpServiceC.obj
 0001:00059a30       ?MakeFunctorAsync@Net@OpenHome@@YG?AVFunctionTranslatorAsync@12@PAXP6GX0PAVIAsync@12@@Z@Z 1005aa30 f i CpServiceC.obj
 0001:00059a60       ??0FunctionTranslatorAsync@Net@OpenHome@@QAE@PAXP6GX0PAVIAsync@12@@Z@Z 1005aa60 f i CpServiceC.obj
 0001:00059ab0       ??0FunctorAsync@Net@OpenHome@@IAE@P6GXABV012@AAVIAsync@12@@ZPBXP6GXPAXPAV312@@Z@Z 1005aab0 f i CpServiceC.obj
 0001:00059af0       ?Thunk@FunctionTranslatorAsync@Net@OpenHome@@SGXABVFunctorAsync@23@AAVIAsync@23@@Z 1005aaf0 f i CpServiceC.obj
 0001:00059b30       ??0DvDevice@Net@OpenHome@@QAE@ABVBrx@2@@Z 1005ab30 f   DvDevice.obj
 0001:00059be0       ??0DvDevice@Net@OpenHome@@IAE@XZ 1005abe0 f   DvDevice.obj
 0001:00059c00       ??1DvDevice@Net@OpenHome@@QAE@XZ 1005ac00 f   DvDevice.obj
 0001:00059c30       ?Device@DvDevice@Net@OpenHome@@QAEAAVDviDevice@23@XZ 1005ac30 f   DvDevice.obj
 0001:00059c50       ?Udn@DvDevice@Net@OpenHome@@QBEABVBrx@3@XZ 1005ac50 f   DvDevice.obj
 0001:00059c80       ?Enabled@DvDevice@Net@OpenHome@@QBE_NXZ 1005ac80 f   DvDevice.obj
 0001:00059cb0       ?SetEnabled@DvDevice@Net@OpenHome@@QAEXXZ 1005acb0 f   DvDevice.obj
 0001:00059ce0       ?SetDisabled@DvDevice@Net@OpenHome@@QAEXVFunctor@3@@Z 1005ace0 f   DvDevice.obj
 0001:00059d30       ?GetAttribute@DvDevice@Net@OpenHome@@QBEXPBDPAPBD@Z 1005ad30 f   DvDevice.obj
 0001:00059d60       ?SetAttribute@DvDevice@Net@OpenHome@@QAEXPBD0@Z 1005ad60 f   DvDevice.obj
 0001:00059d90       ?SetXmlExtension@DvDevice@Net@OpenHome@@QAEXPBD@Z 1005ad90 f   DvDevice.obj
 0001:00059dc0       ??0DvDeviceStandard@Net@OpenHome@@QAE@ABVBrx@2@@Z 1005adc0 f   DvDevice.obj
 0001:00059e80       ??0DvDeviceStandard@Net@OpenHome@@QAE@ABVBrx@2@AAVIResourceManager@12@@Z 1005ae80 f   DvDevice.obj
 0001:0005a040       ??0DvDeviceStd@Net@OpenHome@@QAE@ABV?$basic_string@DU?$char_traits@D@std@@V?$allocator@D@2@@std@@@Z 1005b040 f   DvDeviceStd.obj
 0001:0005a170       ??0DvDeviceStd@Net@OpenHome@@IAE@XZ 1005b170 f   DvDeviceStd.obj
 0001:0005a1b0       ??1DvDeviceStd@Net@OpenHome@@QAE@XZ 1005b1b0 f   DvDeviceStd.obj
 0001:0005a220       ?SetUdn@DvDeviceStd@Net@OpenHome@@IAEXABV?$basic_string@DU?$char_traits@D@std@@V?$allocator@D@2@@std@@@Z 1005b220 f   DvDeviceStd.obj
 0001:0005a250       ?Device@DvDeviceStd@Net@OpenHome@@QAEAAVDviDevice@23@XZ 1005b250 f   DvDeviceStd.obj
 0001:0005a270       ?Udn@DvDeviceStd@Net@OpenHome@@QBEABV?$basic_string@DU?$char_traits@D@std@@V?$allocator@D@2@@std@@XZ 1005b270 f   DvDeviceStd.obj
 0001:0005a290       ?Enabled@DvDeviceStd@Net@OpenHome@@QBE_NXZ 1005b290 f   DvDeviceStd.obj
 0001:0005a2c0       ?SetEnabled@DvDeviceStd@Net@OpenHome@@QAEXXZ 1005b2c0 f   DvDeviceStd.obj
 0001:0005a2f0       ?SetDisabled@DvDeviceStd@Net@OpenHome@@QAEXVFunctor@3@@Z 1005b2f0 f   DvDeviceStd.obj
 0001:0005a340       ?GetAttribute@DvDeviceStd@Net@OpenHome@@QBEXPBDPAPBD@Z 1005b340 f   DvDeviceStd.obj
 0001:0005a370       ?SetAttribute@DvDeviceStd@Net@OpenHome@@QAEXPBD0@Z 1005b370 f   DvDeviceStd.obj
 0001:0005a3a0       ?SetXmlExtension@DvDeviceStd@Net@OpenHome@@QAEXPBD@Z 1005b3a0 f   DvDeviceStd.obj
 0001:0005a3d0       ??0DvResourceManagerStd@Net@OpenHome@@QAE@AAVIResourceManagerStd@12@@Z 1005b3d0 f   DvDeviceStd.obj
 0001:0005a450       ?WriteResource@DvResourceManagerStd@Net@OpenHome@@EAEXABVBrx@3@IAAV?$vector@PADV?$allocator@PAD@std@@@std@@AAVIResourceWriter@23@@Z 1005b450 f   DvDeviceStd.obj
 0001:0005a550       ??0DvDeviceStdStandard@Net@OpenHome@@QAE@ABV?$basic_string@DU?$char_traits@D@std@@V?$allocator@D@2@@std@@@Z 1005b550 f   DvDeviceStd.obj
 0001:0005a680       ??0DvDeviceStdStandard@Net@OpenHome@@QAE@ABV?$basic_string@DU?$char_traits@D@std@@V?$allocator@D@2@@std@@AAVIResourceManagerStd@12@@Z 1005b680 f   DvDeviceStd.obj
 0001:0005a7e0       ??1DvDeviceStdStandard@Net@OpenHome@@QAE@XZ 1005b7e0 f   DvDeviceStd.obj
 0001:0005aaa0       ??1IResourceManager@Net@OpenHome@@UAE@XZ 1005baa0 f i DvDeviceStd.obj
 0001:0005aad0       ??_GIResourceManager@Net@OpenHome@@UAEPAXI@Z 1005bad0 f i DvDeviceStd.obj
 0001:0005aad0       ??_EIResourceManager@Net@OpenHome@@UAEPAXI@Z 1005bad0 f i DvDeviceStd.obj
 0001:0005ab20       ??_GDvResourceManagerStd@Net@OpenHome@@UAEPAXI@Z 1005bb20 f i DvDeviceStd.obj
 0001:0005ab20       ??_EDvResourceManagerStd@Net@OpenHome@@UAEPAXI@Z 1005bb20 f i DvDeviceStd.obj
 0001:0005ab70       ??0IResourceManager@Net@OpenHome@@QAE@XZ 1005bb70 f i DvDeviceStd.obj
 0001:0005aba0       ??1DvResourceManagerStd@Net@OpenHome@@UAE@XZ 1005bba0 f i DvDeviceStd.obj
 0001:0005abd0       ??0?$basic_string@DU?$char_traits@D@std@@V?$allocator@D@2@@std@@QAE@XZ 1005bbd0 f i DvDeviceStd.obj
 0001:0005ac70       ?assign@?$basic_string@DU?$char_traits@D@std@@V?$allocator@D@2@@std@@QAEAAV12@ABV12@@Z 1005bc70 f i DvDeviceStd.obj
 0001:0005acb0       ?length@?$basic_string@DU?$char_traits@D@std@@V?$allocator@D@2@@std@@QBEIXZ 1005bcb0 f i DvDeviceStd.obj
 0001:0005acd0       ??0DviDeviceC@Net@OpenHome@@QAE@PBD@Z 1005bcd0 f   DvDeviceC.obj
 0001:0005ae00       ??0DviDeviceC@Net@OpenHome@@IAE@XZ 1005be00 f   DvDeviceC.obj
 0001:0005ae50       ??1DviDeviceC@Net@OpenHome@@UAE@XZ 1005be50 f   DvDeviceC.obj
 0001:0005aef0       ?Device@DviDeviceC@Net@OpenHome@@QAEPAVDvDevice@23@XZ 1005bef0 f   DvDeviceC.obj
 0001:0005af10       ?WriteResource@DviDeviceC@Net@OpenHome@@EAEXABVBrx@3@IAAV?$vector@PADV?$allocator@PAD@std@@@std@@AAVIResourceWriter@23@@Z 1005bf10 f   DvDeviceC.obj
 0001:0005b020       ?WriteResourceBegin@DviDeviceC@Net@OpenHome@@CGXPAXIPBD@Z 1005c020 f   DvDeviceC.obj
 0001:0005b070       ?WriteResource@DviDeviceC@Net@OpenHome@@CGXPAXPBEI@Z 1005c070 f   DvDeviceC.obj
 0001:0005b0c0       ?WriteResourceEnd@DviDeviceC@Net@OpenHome@@CGXPAX@Z 1005c0c0 f   DvDeviceC.obj
 0001:0005b100       ??0DviDeviceStandardC@Net@OpenHome@@QAE@PBD@Z 1005c100 f   DvDeviceC.obj
 0001:0005b210       ??0DviDeviceStandardC@Net@OpenHome@@QAE@PBDP6GXPAX0I11P6GX1I0@ZP6GX1PBEI@ZP6GX1@Z@Z1@Z 1005c210 f   DvDeviceC.obj
 0001:0005b340       _DvDeviceCreate@4          1005c340 f   DvDeviceC.obj
 0001:0005b3b0       _DvDeviceDestroy@4         1005c3b0 f   DvDeviceC.obj
 0001:0005b420       _DvDeviceUdn@4             1005c420 f   DvDeviceC.obj
 0001:0005b470       _DvDeviceEnabled@4         1005c470 f   DvDeviceC.obj
 0001:0005b4a0       _DvDeviceSetEnabled@4      1005c4a0 f   DvDeviceC.obj
 0001:0005b4c0       _DvDeviceSetDisabled@12    1005c4c0 f   DvDeviceC.obj
 0001:0005b570       _DvDeviceGetAttribute@12   1005c570 f   DvDeviceC.obj
 0001:0005b5a0       _DvDeviceSetAttribute@12   1005c5a0 f   DvDeviceC.obj
 0001:0005b5d0       _DvDeviceSetXmlExtension@8 1005c5d0 f   DvDeviceC.obj
 0001:0005b600       _DvDeviceStandardCreateNoResources@4 1005c600 f   DvDeviceC.obj
 0001:0005b670       _DvDeviceStandardCreate@12 1005c670 f   DvDeviceC.obj
 0001:0005b6e0       _DvResourceWriterLanguageCount@4 1005c6e0 f   DvDeviceC.obj
 0001:0005b720       _DvResourceWriterLanguage@8 1005c720 f   DvDeviceC.obj
 0001:0005ba30       ??_EDviDeviceC@Net@OpenHome@@UAEPAXI@Z 1005ca30 f i DvDeviceC.obj
 0001:0005ba30       ??_GDviDeviceC@Net@OpenHome@@UAEPAXI@Z 1005ca30 f i DvDeviceC.obj
 0001:0005ba80       ??_GDvDevice@Net@OpenHome@@QAEPAXI@Z 1005ca80 f i DvDeviceC.obj
 0001:0005bad0       ??_GDviDeviceStandardC@Net@OpenHome@@UAEPAXI@Z 1005cad0 f i DvDeviceC.obj
 0001:0005bad0       ??_EDviDeviceStandardC@Net@OpenHome@@UAEPAXI@Z 1005cad0 f i DvDeviceC.obj
 0001:0005bb20       ??1DviDeviceStandardC@Net@OpenHome@@UAE@XZ 1005cb20 f i DvDeviceC.obj
 0001:0005bb50       ?size@?$vector@PADV?$allocator@PAD@std@@@std@@QBEIXZ 1005cb50 f i DvDeviceC.obj
 0001:0005bb80       ??A?$vector@PADV?$allocator@PAD@std@@@std@@QAEAAPADI@Z 1005cb80 f i DvDeviceC.obj
 0001:0005bc40       ??0DviDevice@Net@OpenHome@@QAE@ABVBrx@2@@Z 1005cc40 f   DviDevice.obj
 0001:0005bd50       ??0DviDevice@Net@OpenHome@@IAE@ABVBrx@2@AAVIResourceManager@12@@Z 1005cd50 f   DviDevice.obj
 0001:0005be60       ?Construct@DviDevice@Net@OpenHome@@AAEXABVBrx@3@@Z 1005ce60 f   DviDevice.obj
 0001:0005bef0       ?AddProtocol@DviDevice@Net@OpenHome@@IAEXPAVIDvProtocol@23@@Z 1005cef0 f   DviDevice.obj
 0001:0005bf20       ??1DviDevice@Net@OpenHome@@MAE@XZ 1005cf20 f   DviDevice.obj
 0001:0005c0c0       ?Destroy@DviDevice@Net@OpenHome@@QAEXXZ 1005d0c0 f   DviDevice.obj
 0001:0005c1e0       ?AddWeakRef@DviDevice@Net@OpenHome@@QAEXXZ 1005d1e0 f   DviDevice.obj
 0001:0005c230       ?RemoveWeakRef@DviDevice@Net@OpenHome@@QAEXXZ 1005d230 f   DviDevice.obj
 0001:0005c2d0       ?Udn@DviDevice@Net@OpenHome@@QBEABVBrx@3@XZ 1005d2d0 f   DviDevice.obj
 0001:0005c2f0       ?Enabled@DviDevice@Net@OpenHome@@QBE_NXZ 1005d2f0 f   DviDevice.obj
 0001:0005c340       ?SetEnabled@DviDevice@Net@OpenHome@@QAEXXZ 1005d340 f   DviDevice.obj
 0001:0005c450       ?SetDisabled@DviDevice@Net@OpenHome@@QAEXVFunctor@3@@Z 1005d450 f   DviDevice.obj
 0001:0005c4a0       ?GetAttribute@DviDevice@Net@OpenHome@@QBEXPBDPAPBD@Z 1005d4a0 f   DviDevice.obj
 0001:0005c670       ?SetAttribute@DviDevice@Net@OpenHome@@QAEXPBD0@Z 1005d670 f   DviDevice.obj
 0001:0005c850       ?SetXmlExtension@DviDevice@Net@OpenHome@@QAEXPBD@Z 1005d850 f   DviDevice.obj
 0001:0005c880       ?XmlExtension@DviDevice@Net@OpenHome@@QBEABVBrx@3@XZ 1005d880 f   DviDevice.obj
 0001:0005c8a0       ?AddService@DviDevice@Net@OpenHome@@QAEXPAVDviService@23@@Z 1005d8a0 f   DviDevice.obj
 0001:0005c920       ?ServiceCount@DviDevice@Net@OpenHome@@QBEIXZ 1005d920 f   DviDevice.obj
 0001:0005c950       ?Service@DviDevice@Net@OpenHome@@QBEAAVDviService@23@I@Z 1005d950 f   DviDevice.obj
 0001:0005c9a0       ?AddDevice@DviDevice@Net@OpenHome@@QAEXPAV123@@Z 1005d9a0 f   DviDevice.obj
 0001:0005ca00       ?DeviceCount@DviDevice@Net@OpenHome@@QBEIXZ 1005da00 f   DviDevice.obj
 0001:0005ca30       ?Device@DviDevice@Net@OpenHome@@QBEAAV123@I@Z 1005da30 f   DviDevice.obj
 0001:0005ca80       ?IsRoot@DviDevice@Net@OpenHome@@QBE_NXZ 1005da80 f   DviDevice.obj
 0001:0005cac0       ?WriteResource@DviDevice@Net@OpenHome@@UAEXABVBrx@3@IAAV?$vector@PADV?$allocator@PAD@std@@@std@@AAVIResourceWriter@23@@Z 1005dac0 f   DviDevice.obj
 0001:0005ccc0       ?GetUriBase@DviDevice@Net@OpenHome@@QAEXAAVBwh@3@IIAAVIDvProtocol@23@@Z 1005dcc0 f   DviDevice.obj
 0001:0005ce40       ?ConfigId@DviDevice@Net@OpenHome@@QAEIXZ 1005de40 f   DviDevice.obj
 0001:0005ce60       ?CreateSid@DviDevice@Net@OpenHome@@QAEXAAVBrh@3@@Z 1005de60 f   DviDevice.obj
 0001:0005cfc0       ?ResourceManager@DviDevice@Net@OpenHome@@QAEPAVIResourceManager@23@XZ 1005dfc0 f   DviDevice.obj
 0001:0005cfe0       ?SetCustomData@DviDevice@Net@OpenHome@@QAEXPBD0PAX@Z 1005dfe0 f   DviDevice.obj
 0001:0005d120       ?SetParent@DviDevice@Net@OpenHome@@AAEXPAV123@@Z 1005e120 f   DviDevice.obj
 0001:0005d1a0       ?Root@DviDevice@Net@OpenHome@@QBEPAV123@XZ 1005e1a0 f   DviDevice.obj
 0001:0005d1e0       ?SetDisabled@DviDevice@Net@OpenHome@@AAEXVFunctor@3@_N@Z 1005e1e0 f   DviDevice.obj
 0001:0005d370       ?ProtocolDisabled@DviDevice@Net@OpenHome@@AAEXXZ 1005e370 f   DviDevice.obj
 0001:0005d420       ?HasService@DviDevice@Net@OpenHome@@ABE_NABVServiceType@23@@Z 1005e420 f   DviDevice.obj
 0001:0005d500       ?ChildHasService@DviDevice@Net@OpenHome@@ABE_NABVServiceType@23@@Z 1005e500 f   DviDevice.obj
 0001:0005d580       ?ConfigChanged@DviDevice@Net@OpenHome@@AAEXXZ 1005e580 f   DviDevice.obj
 0001:0005d5c0       ?SubscriptionId@DviDevice@Net@OpenHome@@AAEIXZ 1005e5c0 f   DviDevice.obj
 0001:0005d620       ??0AttributeMap@Net@OpenHome@@QAE@XZ 1005e620 f   DviDevice.obj
 0001:0005d690       ??1AttributeMap@Net@OpenHome@@QAE@XZ 1005e690 f   DviDevice.obj
 0001:0005d7e0       ?Get@AttributeMap@Net@OpenHome@@QBEPBDPBD@Z 1005e7e0 f   DviDevice.obj
 0001:0005d970       ?Set@AttributeMap@Net@OpenHome@@QAEXPBD0@Z 1005e970 f   DviDevice.obj
 0001:0005dbb0       ??0DviDeviceStandard@Net@OpenHome@@QAE@ABVBrx@2@@Z 1005ebb0 f   DviDevice.obj
 0001:0005dc30       ??0DviDeviceStandard@Net@OpenHome@@QAE@ABVBrx@2@AAVIResourceManager@12@@Z 1005ec30 f   DviDevice.obj
 0001:0005dcb0       ?Construct@DviDeviceStandard@Net@OpenHome@@AAEXXZ 1005ecb0 f   DviDevice.obj
 0001:0005dd50       ??0Attribute@AttributeMap@Net@OpenHome@@QAE@PBD0@Z 1005ed50 f   DviDevice.obj
 0001:0005ddd0       ?Key@Attribute@AttributeMap@Net@OpenHome@@QBE?AVBrn@4@XZ 1005edd0 f   DviDevice.obj
 0001:0005dea0       ?Value@Attribute@AttributeMap@Net@OpenHome@@QBEPBDXZ 1005eea0 f   DviDevice.obj
 0001:0005ded0       ?UpdateValue@Attribute@AttributeMap@Net@OpenHome@@QAEXPBD@Z 1005eed0 f   DviDevice.obj
 0001:0005df00       ??0DviDeviceMap@Net@OpenHome@@QAE@XZ 1005ef00 f   DviDevice.obj
 0001:0005df90       ??1DviDeviceMap@Net@OpenHome@@UAE@XZ 1005ef90 f   DviDevice.obj
 0001:0005e040       ?Add@DviDeviceMap@Net@OpenHome@@SGXAAVDviDevice@23@@Z 1005f040 f   DviDevice.obj
 0001:0005e150       ?Remove@DviDeviceMap@Net@OpenHome@@SGXAAVDviDevice@23@@Z 1005f150 f   DviDevice.obj
 0001:0005e2b0       ?Find@DviDeviceMap@Net@OpenHome@@SGPAVDviDevice@23@ABVBrx@3@@Z 1005f2b0 f   DviDevice.obj
 0001:0005e400       ?WriteResource@DviDeviceMap@Net@OpenHome@@UAEXABVBrx@3@IAAV?$vector@PADV?$allocator@PAD@std@@@std@@AAVIResourceWriter@23@@Z 1005f400 f   DviDevice.obj
 0001:0005f0a0       ??_EDviDevice@Net@OpenHome@@MAEPAXI@Z 100600a0 f i DviDevice.obj
 0001:0005f0a0       ??_GDviDevice@Net@OpenHome@@MAEPAXI@Z 100600a0 f i DviDevice.obj
 0001:0005f0f0       ??1?$map@VBrn@OpenHome@@PAVAttribute@AttributeMap@Net@2@VBufferCmp@2@V?$allocator@U?$pair@$$CBVBrn@OpenHome@@PAVAttribute@AttributeMap@Net@2@@std@@@std@@@std@@QAE@XZ 100600f0 f i DviDevice.obj
 0001:0005f120       ??1?$_Tree_iterator@V?$_Tree_val@V?$_Tmap_traits@VBrn@OpenHome@@PAVAttribute@AttributeMap@Net@2@VBufferCmp@2@V?$allocator@U?$pair@$$CBVBrn@OpenHome@@PAVAttribute@AttributeMap@Net@2@@std@@@std@@$0A@@std@@@std@@@std@@QAE@XZ 10060120 f i DviDevice.obj
 0001:0005f150       ??_GAttribute@AttributeMap@Net@OpenHome@@QAEPAXI@Z 10060150 f i DviDevice.obj
 0001:0005f1a0       ??1?$_Tree_const_iterator@V?$_Tree_val@V?$_Tmap_traits@VBrn@OpenHome@@PAVAttribute@AttributeMap@Net@2@VBufferCmp@2@V?$allocator@U?$pair@$$CBVBrn@OpenHome@@PAVAttribute@AttributeMap@Net@2@@std@@@std@@$0A@@std@@@std@@@std@@QAE@XZ 100601a0 f i DviDevice.obj
 0001:0005f1d0       ??1Attribute@AttributeMap@Net@OpenHome@@QAE@XZ 100601d0 f i DviDevice.obj
 0001:0005f250       ??1?$_Tree_unchecked_const_iterator@V?$_Tree_val@V?$_Tmap_traits@VBrn@OpenHome@@PAVAttribute@AttributeMap@Net@2@VBufferCmp@2@V?$allocator@U?$pair@$$CBVBrn@OpenHome@@PAVAttribute@AttributeMap@Net@2@@std@@@std@@$0A@@std@@@std@@U_Iterator_base12@2@@std@@QAE@XZ 10060250 f i DviDevice.obj
 0001:0005f280       ??1?$_Iterator012@Ubidirectional_iterator_tag@std@@U?$pair@$$CBVBrn@OpenHome@@PAVAttribute@AttributeMap@Net@2@@2@HPBU32@ABU32@U_Iterator_base12@2@@std@@QAE@XZ 10060280 f i DviDevice.obj
 0001:0005f2b0       ??1?$pair@VBrn@OpenHome@@PAVAttribute@AttributeMap@Net@2@@std@@QAE@XZ 100602b0 f i DviDevice.obj
 0001:0005f2e0       ??1?$pair@V?$_Tree_iterator@V?$_Tree_val@V?$_Tmap_traits@VBrn@OpenHome@@PAVAttribute@AttributeMap@Net@2@VBufferCmp@2@V?$allocator@U?$pair@$$CBVBrn@OpenHome@@PAVAttribute@AttributeMap@Net@2@@std@@@std@@$0A@@std@@@std@@@std@@_N@std@@QAE@XZ 100602e0 f i DviDevice.obj
 0001:0005f310       ??1?$_Pair_base@VBrn@OpenHome@@PAVAttribute@AttributeMap@Net@2@@std@@QAE@XZ 10060310 f i DviDevice.obj
 0001:0005f340       ??1?$_Pair_base@V?$_Tree_iterator@V?$_Tree_val@V?$_Tmap_traits@VBrn@OpenHome@@PAVAttribute@AttributeMap@Net@2@VBufferCmp@2@V?$allocator@U?$pair@$$CBVBrn@OpenHome@@PAVAttribute@AttributeMap@Net@2@@std@@@std@@$0A@@std@@@std@@@std@@_N@std@@QAE@XZ 10060340 f i DviDevice.obj
 0001:0005f370       ??_GDviDeviceStandard@Net@OpenHome@@UAEPAXI@Z 10060370 f i DviDevice.obj
 0001:0005f370       ??_EDviDeviceStandard@Net@OpenHome@@UAEPAXI@Z 10060370 f i DviDevice.obj
 0001:0005f3c0       ??1DviDeviceStandard@Net@OpenHome@@UAE@XZ 100603c0 f i DviDevice.obj
 0001:0005f3f0       ??_EDviDeviceMap@Net@OpenHome@@UAEPAXI@Z 100603f0 f i DviDevice.obj
 0001:0005f3f0       ??_GDviDeviceMap@Net@OpenHome@@UAEPAXI@Z 100603f0 f i DviDevice.obj
 0001:0005f440       ??1?$map@VBrn@OpenHome@@PAVDviDevice@Net@2@VBufferCmp@2@V?$allocator@U?$pair@$$CBVBrn@OpenHome@@PAVDviDevice@Net@2@@std@@@std@@@std@@QAE@XZ 10060440 f i DviDevice.obj
 0001:0005f470       ??1?$pair@VBrn@OpenHome@@PAVDviDevice@Net@2@@std@@QAE@XZ 10060470 f i DviDevice.obj
 0001:0005f4a0       ??1?$pair@V?$_Tree_iterator@V?$_Tree_val@V?$_Tmap_traits@VBrn@OpenHome@@PAVDviDevice@Net@2@VBufferCmp@2@V?$allocator@U?$pair@$$CBVBrn@OpenHome@@PAVDviDevice@Net@2@@std@@@std@@$0A@@std@@@std@@@std@@_N@std@@QAE@XZ 100604a0 f i DviDevice.obj
 0001:0005f4d0       ??1?$_Pair_base@VBrn@OpenHome@@PAVDviDevice@Net@2@@std@@QAE@XZ 100604d0 f i DviDevice.obj
 0001:0005f500       ??1?$_Pair_base@V?$_Tree_iterator@V?$_Tree_val@V?$_Tmap_traits@VBrn@OpenHome@@PAVDviDevice@Net@2@VBufferCmp@2@V?$allocator@U?$pair@$$CBVBrn@OpenHome@@PAVDviDevice@Net@2@@std@@@std@@$0A@@std@@@std@@@std@@_N@std@@QAE@XZ 10060500 f i DviDevice.obj
 0001:0005f530       ??1?$_Tree_iterator@V?$_Tree_val@V?$_Tmap_traits@VBrn@OpenHome@@PAVDviDevice@Net@2@VBufferCmp@2@V?$allocator@U?$pair@$$CBVBrn@OpenHome@@PAVDviDevice@Net@2@@std@@@std@@$0A@@std@@@std@@@std@@QAE@XZ 10060530 f i DviDevice.obj
 0001:0005f560       ??1?$_Tree_const_iterator@V?$_Tree_val@V?$_Tmap_traits@VBrn@OpenHome@@PAVDviDevice@Net@2@VBufferCmp@2@V?$allocator@U?$pair@$$CBVBrn@OpenHome@@PAVDviDevice@Net@2@@std@@@std@@$0A@@std@@@std@@@std@@QAE@XZ 10060560 f i DviDevice.obj
 0001:0005f590       ??1?$_Tree_unchecked_const_iterator@V?$_Tree_val@V?$_Tmap_traits@VBrn@OpenHome@@PAVDviDevice@Net@2@VBufferCmp@2@V?$allocator@U?$pair@$$CBVBrn@OpenHome@@PAVDviDevice@Net@2@@std@@@std@@$0A@@std@@@std@@U_Iterator_base12@2@@std@@QAE@XZ 10060590 f i DviDevice.obj
 0001:0005f5c0       ??1?$_Iterator012@Ubidirectional_iterator_tag@std@@U?$pair@$$CBVBrn@OpenHome@@PAVDviDevice@Net@2@@2@HPBU32@ABU32@U_Iterator_base12@2@@std@@QAE@XZ 100605c0 f i DviDevice.obj
 0001:0005f5f0       ??0?$_Tree_const_iterator@V?$_Tree_val@V?$_Tmap_traits@VBrn@OpenHome@@PAVDviDevice@Net@2@VBufferCmp@2@V?$allocator@U?$pair@$$CBVBrn@OpenHome@@PAVDviDevice@Net@2@@std@@@std@@$0A@@std@@@std@@@std@@QAE@ABV01@@Z 100605f0 f i DviDevice.obj
 0001:0005f630       ??0?$_Tree_unchecked_const_iterator@V?$_Tree_val@V?$_Tmap_traits@VBrn@OpenHome@@PAVDviDevice@Net@2@VBufferCmp@2@V?$allocator@U?$pair@$$CBVBrn@OpenHome@@PAVDviDevice@Net@2@@std@@@std@@$0A@@std@@@std@@U_Iterator_base12@2@@std@@QAE@ABV01@@Z 10060630 f i DviDevice.obj
 0001:0005f680       ??0?$_Iterator012@Ubidirectional_iterator_tag@std@@U?$pair@$$CBVBrn@OpenHome@@PAVDviDevice@Net@2@@2@HPBU32@ABU32@U_Iterator_base12@2@@std@@QAE@ABU01@@Z 10060680 f i DviDevice.obj
 0001:0005f6c0       ??0?$vector@PAVDviService@Net@OpenHome@@V?$allocator@PAVDviService@Net@OpenHome@@@std@@@std@@QAE@XZ 100606c0 f i DviDevice.obj
 0001:0005f710       ??1?$vector@PAVDviService@Net@OpenHome@@V?$allocator@PAVDviService@Net@OpenHome@@@std@@@std@@QAE@XZ 10060710 f i DviDevice.obj
 0001:0005f790       ?size@?$vector@PAVDviService@Net@OpenHome@@V?$allocator@PAVDviService@Net@OpenHome@@@std@@@std@@QBEIXZ 10060790 f i DviDevice.obj
 0001:0005f7c0       ??A?$vector@PAVDviService@Net@OpenHome@@V?$allocator@PAVDviService@Net@OpenHome@@@std@@@std@@QBEABQAVDviService@Net@OpenHome@@I@Z 100607c0 f i DviDevice.obj
 0001:0005f880       ??A?$vector@PAVDviService@Net@OpenHome@@V?$allocator@PAVDviService@Net@OpenHome@@@std@@@std@@QAEAAPAVDviService@Net@OpenHome@@I@Z 10060880 f i DviDevice.obj
 0001:0005f940       ?push_back@?$vector@PAVDviService@Net@OpenHome@@V?$allocator@PAVDviService@Net@OpenHome@@@std@@@std@@QAEXABQAVDviService@Net@OpenHome@@@Z 10060940 f i DviDevice.obj
 0001:0005fa90       ??0?$vector@PAVDviDevice@Net@OpenHome@@V?$allocator@PAVDviDevice@Net@OpenHome@@@std@@@std@@QAE@XZ 10060a90 f i DviDevice.obj
 0001:0005fae0       ??1?$vector@PAVDviDevice@Net@OpenHome@@V?$allocator@PAVDviDevice@Net@OpenHome@@@std@@@std@@QAE@XZ 10060ae0 f i DviDevice.obj
 0001:0005fb60       ?size@?$vector@PAVDviDevice@Net@OpenHome@@V?$allocator@PAVDviDevice@Net@OpenHome@@@std@@@std@@QBEIXZ 10060b60 f i DviDevice.obj
 0001:0005fb90       ??A?$vector@PAVDviDevice@Net@OpenHome@@V?$allocator@PAVDviDevice@Net@OpenHome@@@std@@@std@@QBEABQAVDviDevice@Net@OpenHome@@I@Z 10060b90 f i DviDevice.obj
 0001:0005fc50       ??A?$vector@PAVDviDevice@Net@OpenHome@@V?$allocator@PAVDviDevice@Net@OpenHome@@@std@@@std@@QAEAAPAVDviDevice@Net@OpenHome@@I@Z 10060c50 f i DviDevice.obj
 0001:0005fd10       ?push_back@?$vector@PAVDviDevice@Net@OpenHome@@V?$allocator@PAVDviDevice@Net@OpenHome@@@std@@@std@@QAEXABQAVDviDevice@Net@OpenHome@@@Z 10060d10 f i DviDevice.obj
 0001:0005fe60       ?clear@?$vector@PAVDviDevice@Net@OpenHome@@V?$allocator@PAVDviDevice@Net@OpenHome@@@std@@@std@@QAEXXZ 10060e60 f i DviDevice.obj
 0001:0005ff90       ??0?$vector@PAVIDvProtocol@Net@OpenHome@@V?$allocator@PAVIDvProtocol@Net@OpenHome@@@std@@@std@@QAE@XZ 10060f90 f i DviDevice.obj
 0001:0005ffe0       ??1?$vector@PAVIDvProtocol@Net@OpenHome@@V?$allocator@PAVIDvProtocol@Net@OpenHome@@@std@@@std@@QAE@XZ 10060fe0 f i DviDevice.obj
 0001:00060060       ?size@?$vector@PAVIDvProtocol@Net@OpenHome@@V?$allocator@PAVIDvProtocol@Net@OpenHome@@@std@@@std@@QBEIXZ 10061060 f i DviDevice.obj
 0001:00060090       ??A?$vector@PAVIDvProtocol@Net@OpenHome@@V?$allocator@PAVIDvProtocol@Net@OpenHome@@@std@@@std@@QBEABQAVIDvProtocol@Net@OpenHome@@I@Z 10061090 f i DviDevice.obj
 0001:00060150       ??A?$vector@PAVIDvProtocol@Net@OpenHome@@V?$allocator@PAVIDvProtocol@Net@OpenHome@@@std@@@std@@QAEAAPAVIDvProtocol@Net@OpenHome@@I@Z 10061150 f i DviDevice.obj
 0001:00060210       ?push_back@?$vector@PAVIDvProtocol@Net@OpenHome@@V?$allocator@PAVIDvProtocol@Net@OpenHome@@@std@@@std@@QAEXABQAVIDvProtocol@Net@OpenHome@@@Z 10061210 f i DviDevice.obj
 0001:00060360       ??0?$map@VBrn@OpenHome@@PAVAttribute@AttributeMap@Net@2@VBufferCmp@2@V?$allocator@U?$pair@$$CBVBrn@OpenHome@@PAVAttribute@AttributeMap@Net@2@@std@@@std@@@std@@QAE@XZ 10061360 f i DviDevice.obj
 0001:000603c0       ??1?$_Tree@V?$_Tmap_traits@VBrn@OpenHome@@PAVAttribute@AttributeMap@Net@2@VBufferCmp@2@V?$allocator@U?$pair@$$CBVBrn@OpenHome@@PAVAttribute@AttributeMap@Net@2@@std@@@std@@$0A@@std@@@std@@QAE@XZ 100613c0 f i DviDevice.obj
 0001:00060440       ?begin@?$_Tree@V?$_Tmap_traits@VBrn@OpenHome@@PAVAttribute@AttributeMap@Net@2@VBufferCmp@2@V?$allocator@U?$pair@$$CBVBrn@OpenHome@@PAVAttribute@AttributeMap@Net@2@@std@@@std@@$0A@@std@@@std@@QAE?AV?$_Tree_iterator@V?$_Tree_val@V?$_Tmap_traits@VBrn@OpenHome@@PAVAttribute@AttributeMap@Net@2@VBufferCmp@2@V?$allocator@U?$pair@$$CBVBrn@OpenHome@@PAVAttribute@AttributeMap@Net@2@@std@@@std@@$0A@@std@@@std@@@2@XZ 10061440 f i DviDevice.obj
 0001:000604b0       ?end@?$_Tree@V?$_Tmap_traits@VBrn@OpenHome@@PAVAttribute@AttributeMap@Net@2@VBufferCmp@2@V?$allocator@U?$pair@$$CBVBrn@OpenHome@@PAVAttribute@AttributeMap@Net@2@@std@@@std@@$0A@@std@@@std@@QAE?AV?$_Tree_iterator@V?$_Tree_val@V?$_Tmap_traits@VBrn@OpenHome@@PAVAttribute@AttributeMap@Net@2@VBufferCmp@2@V?$allocator@U?$pair@$$CBVBrn@OpenHome@@PAVAttribute@AttributeMap@Net@2@@std@@@std@@$0A@@std@@@std@@@2@XZ 100614b0 f i DviDevice.obj
 0001:00060510       ?end@?$_Tree@V?$_Tmap_traits@VBrn@OpenHome@@PAVAttribute@AttributeMap@Net@2@VBufferCmp@2@V?$allocator@U?$pair@$$CBVBrn@OpenHome@@PAVAttribute@AttributeMap@Net@2@@std@@@std@@$0A@@std@@@std@@QBE?AV?$_Tree_const_iterator@V?$_Tree_val@V?$_Tmap_traits@VBrn@OpenHome@@PAVAttribute@AttributeMap@Net@2@VBufferCmp@2@V?$allocator@U?$pair@$$CBVBrn@OpenHome@@PAVAttribute@AttributeMap@Net@2@@std@@@std@@$0A@@std@@@std@@@2@XZ 10061510 f i DviDevice.obj
 0001:00060570       ?find@?$_Tree@V?$_Tmap_traits@VBrn@OpenHome@@PAVAttribute@AttributeMap@Net@2@VBufferCmp@2@V?$allocator@U?$pair@$$CBVBrn@OpenHome@@PAVAttribute@AttributeMap@Net@2@@std@@@std@@$0A@@std@@@std@@QAE?AV?$_Tree_iterator@V?$_Tree_val@V?$_Tmap_traits@VBrn@OpenHome@@PAVAttribute@AttributeMap@Net@2@VBufferCmp@2@V?$allocator@U?$pair@$$CBVBrn@OpenHome@@PAVAttribute@AttributeMap@Net@2@@std@@@std@@$0A@@std@@@std@@@2@ABVBrn@OpenHome@@@Z 10061570 f i DviDevice.obj
 0001:000607d0       ?find@?$_Tree@V?$_Tmap_traits@VBrn@OpenHome@@PAVAttribute@AttributeMap@Net@2@VBufferCmp@2@V?$allocator@U?$pair@$$CBVBrn@OpenHome@@PAVAttribute@AttributeMap@Net@2@@std@@@std@@$0A@@std@@@std@@QBE?AV?$_Tree_const_iterator@V?$_Tree_val@V?$_Tmap_traits@VBrn@OpenHome@@PAVAttribute@AttributeMap@Net@2@VBufferCmp@2@V?$allocator@U?$pair@$$CBVBrn@OpenHome@@PAVAttribute@AttributeMap@Net@2@@std@@@std@@$0A@@std@@@std@@@2@ABVBrn@OpenHome@@@Z 100617d0 f i DviDevice.obj
 0001:00060a30       ??0?$map@VBrn@OpenHome@@PAVDviDevice@Net@2@VBufferCmp@2@V?$allocator@U?$pair@$$CBVBrn@OpenHome@@PAVDviDevice@Net@2@@std@@@std@@@std@@QAE@XZ 10061a30 f i DviDevice.obj
 0001:00060a90       ??1?$_Tree@V?$_Tmap_traits@VBrn@OpenHome@@PAVDviDevice@Net@2@VBufferCmp@2@V?$allocator@U?$pair@$$CBVBrn@OpenHome@@PAVDviDevice@Net@2@@std@@@std@@$0A@@std@@@std@@QAE@XZ 10061a90 f i DviDevice.obj
 0001:00060b10       ?end@?$_Tree@V?$_Tmap_traits@VBrn@OpenHome@@PAVDviDevice@Net@2@VBufferCmp@2@V?$allocator@U?$pair@$$CBVBrn@OpenHome@@PAVDviDevice@Net@2@@std@@@std@@$0A@@std@@@std@@QAE?AV?$_Tree_iterator@V?$_Tree_val@V?$_Tmap_traits@VBrn@OpenHome@@PAVDviDevice@Net@2@VBufferCmp@2@V?$allocator@U?$pair@$$CBVBrn@OpenHome@@PAVDviDevice@Net@2@@std@@@std@@$0A@@std@@@std@@@2@XZ 10061b10 f i DviDevice.obj
 0001:00060b70       ?size@?$_Tree@V?$_Tmap_traits@VBrn@OpenHome@@PAVDviDevice@Net@2@VBufferCmp@2@V?$allocator@U?$pair@$$CBVBrn@OpenHome@@PAVDviDevice@Net@2@@std@@@std@@$0A@@std@@@std@@QBEIXZ 10061b70 f i DviDevice.obj
 0001:00060b90       ?erase@?$_Tree@V?$_Tmap_traits@VBrn@OpenHome@@PAVDviDevice@Net@2@VBufferCmp@2@V?$allocator@U?$pair@$$CBVBrn@OpenHome@@PAVDviDevice@Net@2@@std@@@std@@$0A@@std@@@std@@QAE?AV?$_Tree_iterator@V?$_Tree_val@V?$_Tmap_traits@VBrn@OpenHome@@PAVDviDevice@Net@2@VBufferCmp@2@V?$allocator@U?$pair@$$CBVBrn@OpenHome@@PAVDviDevice@Net@2@@std@@@std@@$0A@@std@@@std@@@2@V?$_Tree_const_iterator@V?$_Tree_val@V?$_Tmap_traits@VBrn@OpenHome@@PAVDviDevice@Net@2@VBufferCmp@2@V?$allocator@U?$pair@$$CBVBrn@OpenHome@@PAVDviDevice@Net@2@@std@@@std@@$0A@@std@@@std@@@2@@Z 10061b90 f i DviDevice.obj
 0001:00061460       ?find@?$_Tree@V?$_Tmap_traits@VBrn@OpenHome@@PAVDviDevice@Net@2@VBufferCmp@2@V?$allocator@U?$pair@$$CBVBrn@OpenHome@@PAVDviDevice@Net@2@@std@@@std@@$0A@@std@@@std@@QAE?AV?$_Tree_iterator@V?$_Tree_val@V?$_Tmap_traits@VBrn@OpenHome@@PAVDviDevice@Net@2@VBufferCmp@2@V?$allocator@U?$pair@$$CBVBrn@OpenHome@@PAVDviDevice@Net@2@@std@@@std@@$0A@@std@@@std@@@2@ABVBrn@OpenHome@@@Z 10062460 f i DviDevice.obj
 0001:000616c0       ??C?$_Tree_iterator@V?$_Tree_val@V?$_Tmap_traits@VBrn@OpenHome@@PAVAttribute@AttributeMap@Net@2@VBufferCmp@2@V?$allocator@U?$pair@$$CBVBrn@OpenHome@@PAVAttribute@AttributeMap@Net@2@@std@@@std@@$0A@@std@@@std@@@std@@QBEPAU?$pair@$$CBVBrn@OpenHome@@PAVAttribute@AttributeMap@Net@2@@1@XZ 100626c0 f i DviDevice.obj
 0001:000616f0       ??E?$_Tree_iterator@V?$_Tree_val@V?$_Tmap_traits@VBrn@OpenHome@@PAVAttribute@AttributeMap@Net@2@VBufferCmp@2@V?$allocator@U?$pair@$$CBVBrn@OpenHome@@PAVAttribute@AttributeMap@Net@2@@std@@@std@@$0A@@std@@@std@@@std@@QAE?AV01@H@Z 100626f0 f i DviDevice.obj
 0001:000617f0       ??8?$_Tree_const_iterator@V?$_Tree_val@V?$_Tmap_traits@VBrn@OpenHome@@PAVAttribute@AttributeMap@Net@2@VBufferCmp@2@V?$allocator@U?$pair@$$CBVBrn@OpenHome@@PAVAttribute@AttributeMap@Net@2@@std@@@std@@$0A@@std@@@std@@@std@@QBE_NABV01@@Z 100627f0 f i DviDevice.obj
 0001:000618e0       ??9?$_Tree_const_iterator@V?$_Tree_val@V?$_Tmap_traits@VBrn@OpenHome@@PAVAttribute@AttributeMap@Net@2@VBufferCmp@2@V?$allocator@U?$pair@$$CBVBrn@OpenHome@@PAVAttribute@AttributeMap@Net@2@@std@@@std@@$0A@@std@@@std@@@std@@QBE_NABV01@@Z 100628e0 f i DviDevice.obj
 0001:00061930       ??C?$_Tree_unchecked_const_iterator@V?$_Tree_val@V?$_Tmap_traits@VBrn@OpenHome@@PAVAttribute@AttributeMap@Net@2@VBufferCmp@2@V?$allocator@U?$pair@$$CBVBrn@OpenHome@@PAVAttribute@AttributeMap@Net@2@@std@@@std@@$0A@@std@@@std@@U_Iterator_base12@2@@std@@QBEPBU?$pair@$$CBVBrn@OpenHome@@PAVAttribute@AttributeMap@Net@2@@1@XZ 10062930 f i DviDevice.obj
 0001:00061960       ??C?$_Tree_iterator@V?$_Tree_val@V?$_Tmap_traits@VBrn@OpenHome@@PAVDviDevice@Net@2@VBufferCmp@2@V?$allocator@U?$pair@$$CBVBrn@OpenHome@@PAVDviDevice@Net@2@@std@@@std@@$0A@@std@@@std@@@std@@QBEPAU?$pair@$$CBVBrn@OpenHome@@PAVDviDevice@Net@2@@1@XZ 10062960 f i DviDevice.obj
 0001:00061990       ??9?$_Tree_const_iterator@V?$_Tree_val@V?$_Tmap_traits@VBrn@OpenHome@@PAVDviDevice@Net@2@VBufferCmp@2@V?$allocator@U?$pair@$$CBVBrn@OpenHome@@PAVDviDevice@Net@2@@std@@@std@@$0A@@std@@@std@@@std@@QBE_NABV01@@Z 10062990 f i DviDevice.obj
 0001:000619e0       ??1?$_Vector_iterator@V?$_Vector_val@PAVDviDevice@Net@OpenHome@@V?$allocator@PAVDviDevice@Net@OpenHome@@@std@@@std@@@std@@QAE@XZ 100629e0 f i DviDevice.obj
 0001:00061a10       ??0?$_Vector_const_iterator@V?$_Vector_val@PAVDviDevice@Net@OpenHome@@V?$allocator@PAVDviDevice@Net@OpenHome@@@std@@@std@@@std@@QAE@ABV01@@Z 10062a10 f i DviDevice.obj
 0001:00061a60       ??1?$_Vector_const_iterator@V?$_Vector_val@PAVDviDevice@Net@OpenHome@@V?$allocator@PAVDviDevice@Net@OpenHome@@@std@@@std@@@std@@QAE@XZ 10062a60 f i DviDevice.obj
 0001:00061a90       ??0?$_Tree_iterator@V?$_Tree_val@V?$_Tmap_traits@VBrn@OpenHome@@PAVAttribute@AttributeMap@Net@2@VBufferCmp@2@V?$allocator@U?$pair@$$CBVBrn@OpenHome@@PAVAttribute@AttributeMap@Net@2@@std@@@std@@$0A@@std@@@std@@@std@@QAE@ABV01@@Z 10062a90 f i DviDevice.obj
 0001:00061ad0       ??0?$_Tree_const_iterator@V?$_Tree_val@V?$_Tmap_traits@VBrn@OpenHome@@PAVAttribute@AttributeMap@Net@2@VBufferCmp@2@V?$allocator@U?$pair@$$CBVBrn@OpenHome@@PAVAttribute@AttributeMap@Net@2@@std@@@std@@$0A@@std@@@std@@@std@@QAE@ABV01@@Z 10062ad0 f i DviDevice.obj
 0001:00061b10       ??0?$_Tree_iterator@V?$_Tree_val@V?$_Tmap_traits@VBrn@OpenHome@@PAVDviDevice@Net@2@VBufferCmp@2@V?$allocator@U?$pair@$$CBVBrn@OpenHome@@PAVDviDevice@Net@2@@std@@@std@@$0A@@std@@@std@@@std@@QAE@ABV01@@Z 10062b10 f i DviDevice.obj
 0001:00061b50       ??0?$_Iterator012@Urandom_access_iterator_tag@std@@PAVDviDevice@Net@OpenHome@@HPBQAV345@ABQAV345@U_Iterator_base12@2@@std@@QAE@ABU01@@Z 10062b50 f i DviDevice.obj
 0001:00061b90       ??1?$_Iterator012@Urandom_access_iterator_tag@std@@PAVDviDevice@Net@OpenHome@@HPBQAV345@ABQAV345@U_Iterator_base12@2@@std@@QAE@XZ 10062b90 f i DviDevice.obj
 0001:00061bc0       ??0?$_Tree_unchecked_const_iterator@V?$_Tree_val@V?$_Tmap_traits@VBrn@OpenHome@@PAVAttribute@AttributeMap@Net@2@VBufferCmp@2@V?$allocator@U?$pair@$$CBVBrn@OpenHome@@PAVAttribute@AttributeMap@Net@2@@std@@@std@@$0A@@std@@@std@@U_Iterator_base12@2@@std@@QAE@ABV01@@Z 10062bc0 f i DviDevice.obj
 0001:00061c10       ??0?$_Iterator012@Ubidirectional_iterator_tag@std@@U?$pair@$$CBVBrn@OpenHome@@PAVAttribute@AttributeMap@Net@2@@2@HPBU32@ABU32@U_Iterator_base12@2@@std@@QAE@ABU01@@Z 10062c10 f i DviDevice.obj
 0001:00061c50       ?_Inside@?$vector@PAVDviService@Net@OpenHome@@V?$allocator@PAVDviService@Net@OpenHome@@@std@@@std@@IBE_NPBQAVDviService@Net@OpenHome@@@Z 10062c50 f i DviDevice.obj
 0001:00061cb0       ?_Reserve@?$vector@PAVDviService@Net@OpenHome@@V?$allocator@PAVDviService@Net@OpenHome@@@std@@@std@@IAEXI@Z 10062cb0 f i DviDevice.obj
 0001:00061d50       ?_Tidy@?$vector@PAVDviService@Net@OpenHome@@V?$allocator@PAVDviService@Net@OpenHome@@@std@@@std@@IAEXXZ 10062d50 f i DviDevice.obj
 0001:00061e00       ?_Orphan_range@?$vector@PAVDviService@Net@OpenHome@@V?$allocator@PAVDviService@Net@OpenHome@@@std@@@std@@IBEXPAPAVDviService@Net@OpenHome@@0@Z 10062e00 f i DviDevice.obj
 0001:00061f50       ??0?$_Vector_val@PAVDviService@Net@OpenHome@@V?$allocator@PAVDviService@Net@OpenHome@@@std@@@std@@QAE@V?$allocator@PAVDviService@Net@OpenHome@@@1@@Z 10062f50 f i DviDevice.obj
 0001:000620b0       ??1?$_Vector_val@PAVDviService@Net@OpenHome@@V?$allocator@PAVDviService@Net@OpenHome@@@std@@@std@@QAE@XZ 100630b0 f i DviDevice.obj
 0001:000621c0       ??0?$allocator@PAVDviService@Net@OpenHome@@@std@@QAE@XZ 100631c0 f i DviDevice.obj
 0001:000621e0       ?begin@?$vector@PAVDviDevice@Net@OpenHome@@V?$allocator@PAVDviDevice@Net@OpenHome@@@std@@@std@@QAE?AV?$_Vector_iterator@V?$_Vector_val@PAVDviDevice@Net@OpenHome@@V?$allocator@PAVDviDevice@Net@OpenHome@@@std@@@std@@@2@XZ 100631e0 f i DviDevice.obj
 0001:00062240       ?end@?$vector@PAVDviDevice@Net@OpenHome@@V?$allocator@PAVDviDevice@Net@OpenHome@@@std@@@std@@QAE?AV?$_Vector_iterator@V?$_Vector_val@PAVDviDevice@Net@OpenHome@@V?$allocator@PAVDviDevice@Net@OpenHome@@@std@@@std@@@2@XZ 10063240 f i DviDevice.obj
 0001:000622a0       ?erase@?$vector@PAVDviDevice@Net@OpenHome@@V?$allocator@PAVDviDevice@Net@OpenHome@@@std@@@std@@QAE?AV?$_Vector_iterator@V?$_Vector_val@PAVDviDevice@Net@OpenHome@@V?$allocator@PAVDviDevice@Net@OpenHome@@@std@@@std@@@2@V?$_Vector_const_iterator@V?$_Vector_val@PAVDviDevice@Net@OpenHome@@V?$allocator@PAVDviDevice@Net@OpenHome@@@std@@@std@@@2@0@Z 100632a0 f i DviDevice.obj
 0001:00062500       ?_Inside@?$vector@PAVDviDevice@Net@OpenHome@@V?$allocator@PAVDviDevice@Net@OpenHome@@@std@@@std@@IBE_NPBQAVDviDevice@Net@OpenHome@@@Z 10063500 f i DviDevice.obj
 0001:00062560       ?_Reserve@?$vector@PAVDviDevice@Net@OpenHome@@V?$allocator@PAVDviDevice@Net@OpenHome@@@std@@@std@@IAEXI@Z 10063560 f i DviDevice.obj
 0001:00062600       ?_Tidy@?$vector@PAVDviDevice@Net@OpenHome@@V?$allocator@PAVDviDevice@Net@OpenHome@@@std@@@std@@IAEXXZ 10063600 f i DviDevice.obj
 0001:000626b0       ?_Orphan_range@?$vector@PAVDviDevice@Net@OpenHome@@V?$allocator@PAVDviDevice@Net@OpenHome@@@std@@@std@@IBEXPAPAVDviDevice@Net@OpenHome@@0@Z 100636b0 f i DviDevice.obj
 0001:00062800       ??0?$_Vector_val@PAVDviDevice@Net@OpenHome@@V?$allocator@PAVDviDevice@Net@OpenHome@@@std@@@std@@QAE@V?$allocator@PAVDviDevice@Net@OpenHome@@@1@@Z 10063800 f i DviDevice.obj
 0001:00062960       ??1?$_Vector_val@PAVDviDevice@Net@OpenHome@@V?$allocator@PAVDviDevice@Net@OpenHome@@@std@@@std@@QAE@XZ 10063960 f i DviDevice.obj
 0001:00062a70       ??0?$allocator@PAVDviDevice@Net@OpenHome@@@std@@QAE@XZ 10063a70 f i DviDevice.obj
 0001:00062a90       ?_Inside@?$vector@PAVIDvProtocol@Net@OpenHome@@V?$allocator@PAVIDvProtocol@Net@OpenHome@@@std@@@std@@IBE_NPBQAVIDvProtocol@Net@OpenHome@@@Z 10063a90 f i DviDevice.obj
 0001:00062af0       ?_Reserve@?$vector@PAVIDvProtocol@Net@OpenHome@@V?$allocator@PAVIDvProtocol@Net@OpenHome@@@std@@@std@@IAEXI@Z 10063af0 f i DviDevice.obj
 0001:00062b90       ?_Tidy@?$vector@PAVIDvProtocol@Net@OpenHome@@V?$allocator@PAVIDvProtocol@Net@OpenHome@@@std@@@std@@IAEXXZ 10063b90 f i DviDevice.obj
 0001:00062c40       ?_Orphan_range@?$vector@PAVIDvProtocol@Net@OpenHome@@V?$allocator@PAVIDvProtocol@Net@OpenHome@@@std@@@std@@IBEXPAPAVIDvProtocol@Net@OpenHome@@0@Z 10063c40 f i DviDevice.obj
 0001:00062d90       ??0?$_Vector_val@PAVIDvProtocol@Net@OpenHome@@V?$allocator@PAVIDvProtocol@Net@OpenHome@@@std@@@std@@QAE@V?$allocator@PAVIDvProtocol@Net@OpenHome@@@1@@Z 10063d90 f i DviDevice.obj
 0001:00062ef0       ??1?$_Vector_val@PAVIDvProtocol@Net@OpenHome@@V?$allocator@PAVIDvProtocol@Net@OpenHome@@@std@@@std@@QAE@XZ 10063ef0 f i DviDevice.obj
 0001:00063000       ??0?$allocator@PAVIDvProtocol@Net@OpenHome@@@std@@QAE@XZ 10064000 f i DviDevice.obj
 0001:00063020       ??0?$_Tree@V?$_Tmap_traits@VBrn@OpenHome@@PAVAttribute@AttributeMap@Net@2@VBufferCmp@2@V?$allocator@U?$pair@$$CBVBrn@OpenHome@@PAVAttribute@AttributeMap@Net@2@@std@@@std@@$0A@@std@@@std@@QAE@ABVBufferCmp@OpenHome@@ABV?$allocator@U?$pair@$$CBVBrn@OpenHome@@PAVAttribute@AttributeMap@Net@2@@std@@@1@@Z 10064020 f i DviDevice.obj
 0001:00063080       ?lower_bound@?$_Tree@V?$_Tmap_traits@VBrn@OpenHome@@PAVAttribute@AttributeMap@Net@2@VBufferCmp@2@V?$allocator@U?$pair@$$CBVBrn@OpenHome@@PAVAttribute@AttributeMap@Net@2@@std@@@std@@$0A@@std@@@std@@QAE?AV?$_Tree_iterator@V?$_Tree_val@V?$_Tmap_traits@VBrn@OpenHome@@PAVAttribute@AttributeMap@Net@2@VBufferCmp@2@V?$allocator@U?$pair@$$CBVBrn@OpenHome@@PAVAttribute@AttributeMap@Net@2@@std@@@std@@$0A@@std@@@std@@@2@ABVBrn@OpenHome@@@Z 10064080 f i DviDevice.obj
 0001:000630f0       ?lower_bound@?$_Tree@V?$_Tmap_traits@VBrn@OpenHome@@PAVAttribute@AttributeMap@Net@2@VBufferCmp@2@V?$allocator@U?$pair@$$CBVBrn@OpenHome@@PAVAttribute@AttributeMap@Net@2@@std@@@std@@$0A@@std@@@std@@QBE?AV?$_Tree_const_iterator@V?$_Tree_val@V?$_Tmap_traits@VBrn@OpenHome@@PAVAttribute@AttributeMap@Net@2@VBufferCmp@2@V?$allocator@U?$pair@$$CBVBrn@OpenHome@@PAVAttribute@AttributeMap@Net@2@@std@@@std@@$0A@@std@@@std@@@2@ABVBrn@OpenHome@@@Z 100640f0 f i DviDevice.obj
 0001:00063160       ?_Lmost@?$_Tree@V?$_Tmap_traits@VBrn@OpenHome@@PAVAttribute@AttributeMap@Net@2@VBufferCmp@2@V?$allocator@U?$pair@$$CBVBrn@OpenHome@@PAVAttribute@AttributeMap@Net@2@@std@@@std@@$0A@@std@@@std@@IBEAAPAU_Node@?$_Tree_nod@V?$_Tmap_traits@VBrn@OpenHome@@PAVAttribute@AttributeMap@Net@2@VBufferCmp@2@V?$allocator@U?$pair@$$CBVBrn@OpenHome@@PAVAttribute@AttributeMap@Net@2@@std@@@std@@$0A@@std@@@2@XZ 10064160 f i DviDevice.obj
 0001:000631a0       ?_Tidy@?$_Tree@V?$_Tmap_traits@VBrn@OpenHome@@PAVAttribute@AttributeMap@Net@2@VBufferCmp@2@V?$allocator@U?$pair@$$CBVBrn@OpenHome@@PAVAttribute@AttributeMap@Net@2@@std@@@std@@$0A@@std@@@std@@IAEXXZ 100641a0 f i DviDevice.obj
 0001:000632d0       ??1?$_Tree_val@V?$_Tmap_traits@VBrn@OpenHome@@PAVAttribute@AttributeMap@Net@2@VBufferCmp@2@V?$allocator@U?$pair@$$CBVBrn@OpenHome@@PAVAttribute@AttributeMap@Net@2@@std@@@std@@$0A@@std@@@std@@QAE@XZ 100642d0 f i DviDevice.obj
 0001:00063360       ?_Key@?$_Tree_val@V?$_Tmap_traits@VBrn@OpenHome@@PAVAttribute@AttributeMap@Net@2@VBufferCmp@2@V?$allocator@U?$pair@$$CBVBrn@OpenHome@@PAVAttribute@AttributeMap@Net@2@@std@@@std@@$0A@@std@@@std@@SGAAVBrn@OpenHome@@PAU_Node@?$_Tree_nod@V?$_Tmap_traits@VBrn@OpenHome@@PAVAttribute@AttributeMap@Net@2@VBufferCmp@2@V?$allocator@U?$pair@$$CBVBrn@OpenHome@@PAVAttribute@AttributeMap@Net@2@@std@@@std@@$0A@@std@@@2@@Z 10064360 f i DviDevice.obj
 0001:00063390       ??0?$allocator@U?$pair@$$CBVBrn@OpenHome@@PAVAttribute@AttributeMap@Net@2@@std@@@std@@QAE@XZ 10064390 f i DviDevice.obj
 0001:000633b0       ??0?$_Tree@V?$_Tmap_traits@VBrn@OpenHome@@PAVDviDevice@Net@2@VBufferCmp@2@V?$allocator@U?$pair@$$CBVBrn@OpenHome@@PAVDviDevice@Net@2@@std@@@std@@$0A@@std@@@std@@QAE@ABVBufferCmp@OpenHome@@ABV?$allocator@U?$pair@$$CBVBrn@OpenHome@@PAVDviDevice@Net@2@@std@@@1@@Z 100643b0 f i DviDevice.obj
 0001:00063410       ?lower_bound@?$_Tree@V?$_Tmap_traits@VBrn@OpenHome@@PAVDviDevice@Net@2@VBufferCmp@2@V?$allocator@U?$pair@$$CBVBrn@OpenHome@@PAVDviDevice@Net@2@@std@@@std@@$0A@@std@@@std@@QAE?AV?$_Tree_iterator@V?$_Tree_val@V?$_Tmap_traits@VBrn@OpenHome@@PAVDviDevice@Net@2@VBufferCmp@2@V?$allocator@U?$pair@$$CBVBrn@OpenHome@@PAVDviDevice@Net@2@@std@@@std@@$0A@@std@@@std@@@2@ABVBrn@OpenHome@@@Z 10064410 f i DviDevice.obj
 0001:00063480       ?_Lmost@?$_Tree@V?$_Tmap_traits@VBrn@OpenHome@@PAVDviDevice@Net@2@VBufferCmp@2@V?$allocator@U?$pair@$$CBVBrn@OpenHome@@PAVDviDevice@Net@2@@std@@@std@@$0A@@std@@@std@@IBEAAPAU_Node@?$_Tree_nod@V?$_Tmap_traits@VBrn@OpenHome@@PAVDviDevice@Net@2@VBufferCmp@2@V?$allocator@U?$pair@$$CBVBrn@OpenHome@@PAVDviDevice@Net@2@@std@@@std@@$0A@@std@@@2@XZ 10064480 f i DviDevice.obj
 0001:000634c0       ?_Lrotate@?$_Tree@V?$_Tmap_traits@VBrn@OpenHome@@PAVDviDevice@Net@2@VBufferCmp@2@V?$allocator@U?$pair@$$CBVBrn@OpenHome@@PAVDviDevice@Net@2@@std@@@std@@$0A@@std@@@std@@IAEXPAU_Node@?$_Tree_nod@V?$_Tmap_traits@VBrn@OpenHome@@PAVDviDevice@Net@2@VBufferCmp@2@V?$allocator@U?$pair@$$CBVBrn@OpenHome@@PAVDviDevice@Net@2@@std@@@std@@$0A@@std@@@2@@Z 100644c0 f i DviDevice.obj
 0001:00063620       ?_Rmost@?$_Tree@V?$_Tmap_traits@VBrn@OpenHome@@PAVDviDevice@Net@2@VBufferCmp@2@V?$allocator@U?$pair@$$CBVBrn@OpenHome@@PAVDviDevice@Net@2@@std@@@std@@$0A@@std@@@std@@IBEAAPAU_Node@?$_Tree_nod@V?$_Tmap_traits@VBrn@OpenHome@@PAVDviDevice@Net@2@VBufferCmp@2@V?$allocator@U?$pair@$$CBVBrn@OpenHome@@PAVDviDevice@Net@2@@std@@@std@@$0A@@std@@@2@XZ 10064620 f i DviDevice.obj
 0001:00063660       ?_Root@?$_Tree@V?$_Tmap_traits@VBrn@OpenHome@@PAVDviDevice@Net@2@VBufferCmp@2@V?$allocator@U?$pair@$$CBVBrn@OpenHome@@PAVDviDevice@Net@2@@std@@@std@@$0A@@std@@@std@@IBEAAPAU_Node@?$_Tree_nod@V?$_Tmap_traits@VBrn@OpenHome@@PAVDviDevice@Net@2@VBufferCmp@2@V?$allocator@U?$pair@$$CBVBrn@OpenHome@@PAVDviDevice@Net@2@@std@@@std@@$0A@@std@@@2@XZ 10064660 f i DviDevice.obj
 0001:000636a0       ?_Rrotate@?$_Tree@V?$_Tmap_traits@VBrn@OpenHome@@PAVDviDevice@Net@2@VBufferCmp@2@V?$allocator@U?$pair@$$CBVBrn@OpenHome@@PAVDviDevice@Net@2@@std@@@std@@$0A@@std@@@std@@IAEXPAU_Node@?$_Tree_nod@V?$_Tmap_traits@VBrn@OpenHome@@PAVDviDevice@Net@2@VBufferCmp@2@V?$allocator@U?$pair@$$CBVBrn@OpenHome@@PAVDviDevice@Net@2@@std@@@std@@$0A@@std@@@2@@Z 100646a0 f i DviDevice.obj
 0001:00063800       ?_Orphan_ptr@?$_Tree@V?$_Tmap_traits@VBrn@OpenHome@@PAVDviDevice@Net@2@VBufferCmp@2@V?$allocator@U?$pair@$$CBVBrn@OpenHome@@PAVDviDevice@Net@2@@std@@@std@@$0A@@std@@@std@@IBEXAAV12@PAU_Node@?$_Tree_nod@V?$_Tmap_traits@VBrn@OpenHome@@PAVDviDevice@Net@2@VBufferCmp@2@V?$allocator@U?$pair@$$CBVBrn@OpenHome@@PAVDviDevice@Net@2@@std@@@std@@$0A@@std@@@2@@Z 10064800 f i DviDevice.obj
 0001:00063950       ?_Tidy@?$_Tree@V?$_Tmap_traits@VBrn@OpenHome@@PAVDviDevice@Net@2@VBufferCmp@2@V?$allocator@U?$pair@$$CBVBrn@OpenHome@@PAVDviDevice@Net@2@@std@@@std@@$0A@@std@@@std@@IAEXXZ 10064950 f i DviDevice.obj
 0001:00063a80       ??1?$_Tree_val@V?$_Tmap_traits@VBrn@OpenHome@@PAVDviDevice@Net@2@VBufferCmp@2@V?$allocator@U?$pair@$$CBVBrn@OpenHome@@PAVDviDevice@Net@2@@std@@@std@@$0A@@std@@@std@@QAE@XZ 10064a80 f i DviDevice.obj
 0001:00063b10       ?_Color@?$_Tree_val@V?$_Tmap_traits@VBrn@OpenHome@@PAVDviDevice@Net@2@VBufferCmp@2@V?$allocator@U?$pair@$$CBVBrn@OpenHome@@PAVDviDevice@Net@2@@std@@@std@@$0A@@std@@@std@@SGAADPAU_Node@?$_Tree_nod@V?$_Tmap_traits@VBrn@OpenHome@@PAVDviDevice@Net@2@VBufferCmp@2@V?$allocator@U?$pair@$$CBVBrn@OpenHome@@PAVDviDevice@Net@2@@std@@@std@@$0A@@std@@@2@@Z 10064b10 f i DviDevice.obj
 0001:00063b20       ?_Isnil@?$_Tree_val@V?$_Tmap_traits@VBrn@OpenHome@@PAVDviDevice@Net@2@VBufferCmp@2@V?$allocator@U?$pair@$$CBVBrn@OpenHome@@PAVDviDevice@Net@2@@std@@@std@@$0A@@std@@@std@@SGAADPAU_Node@?$_Tree_nod@V?$_Tmap_traits@VBrn@OpenHome@@PAVDviDevice@Net@2@VBufferCmp@2@V?$allocator@U?$pair@$$CBVBrn@OpenHome@@PAVDviDevice@Net@2@@std@@@std@@$0A@@std@@@2@@Z 10064b20 f i DviDevice.obj
 0001:00063b30       ?_Key@?$_Tree_val@V?$_Tmap_traits@VBrn@OpenHome@@PAVDviDevice@Net@2@VBufferCmp@2@V?$allocator@U?$pair@$$CBVBrn@OpenHome@@PAVDviDevice@Net@2@@std@@@std@@$0A@@std@@@std@@SGAAVBrn@OpenHome@@PAU_Node@?$_Tree_nod@V?$_Tmap_traits@VBrn@OpenHome@@PAVDviDevice@Net@2@VBufferCmp@2@V?$allocator@U?$pair@$$CBVBrn@OpenHome@@PAVDviDevice@Net@2@@std@@@std@@$0A@@std@@@2@@Z 10064b30 f i DviDevice.obj
 0001:00063b60       ?_Left@?$_Tree_val@V?$_Tmap_traits@VBrn@OpenHome@@PAVDviDevice@Net@2@VBufferCmp@2@V?$allocator@U?$pair@$$CBVBrn@OpenHome@@PAVDviDevice@Net@2@@std@@@std@@$0A@@std@@@std@@SGAAPAU_Node@?$_Tree_nod@V?$_Tmap_traits@VBrn@OpenHome@@PAVDviDevice@Net@2@VBufferCmp@2@V?$allocator@U?$pair@$$CBVBrn@OpenHome@@PAVDviDevice@Net@2@@std@@@std@@$0A@@std@@@2@PAU342@@Z 10064b60 f i DviDevice.obj
 0001:00063b70       ?_Parent@?$_Tree_val@V?$_Tmap_traits@VBrn@OpenHome@@PAVDviDevice@Net@2@VBufferCmp@2@V?$allocator@U?$pair@$$CBVBrn@OpenHome@@PAVDviDevice@Net@2@@std@@@std@@$0A@@std@@@std@@SGAAPAU_Node@?$_Tree_nod@V?$_Tmap_traits@VBrn@OpenHome@@PAVDviDevice@Net@2@VBufferCmp@2@V?$allocator@U?$pair@$$CBVBrn@OpenHome@@PAVDviDevice@Net@2@@std@@@std@@$0A@@std@@@2@PAU342@@Z 10064b70 f i DviDevice.obj
 0001:00063b80       ?_Right@?$_Tree_val@V?$_Tmap_traits@VBrn@OpenHome@@PAVDviDevice@Net@2@VBufferCmp@2@V?$allocator@U?$pair@$$CBVBrn@OpenHome@@PAVDviDevice@Net@2@@std@@@std@@$0A@@std@@@std@@SGAAPAU_Node@?$_Tree_nod@V?$_Tmap_traits@VBrn@OpenHome@@PAVDviDevice@Net@2@VBufferCmp@2@V?$allocator@U?$pair@$$CBVBrn@OpenHome@@PAVDviDevice@Net@2@@std@@@std@@$0A@@std@@@2@PAU342@@Z 10064b80 f i DviDevice.obj
 0001:00063b90       ?_Myval@?$_Tree_val@V?$_Tmap_traits@VBrn@OpenHome@@PAVDviDevice@Net@2@VBufferCmp@2@V?$allocator@U?$pair@$$CBVBrn@OpenHome@@PAVDviDevice@Net@2@@std@@@std@@$0A@@std@@@std@@SGAAU?$pair@$$CBVBrn@OpenHome@@PAVDviDevice@Net@2@@2@PAU_Node@?$_Tree_nod@V?$_Tmap_traits@VBrn@OpenHome@@PAVDviDevice@Net@2@VBufferCmp@2@V?$allocator@U?$pair@$$CBVBrn@OpenHome@@PAVDviDevice@Net@2@@std@@@std@@$0A@@std@@@2@@Z 10064b90 f i DviDevice.obj
 0001:00063ba0       ?_Max@?$_Tree_val@V?$_Tmap_traits@VBrn@OpenHome@@PAVDviDevice@Net@2@VBufferCmp@2@V?$allocator@U?$pair@$$CBVBrn@OpenHome@@PAVDviDevice@Net@2@@std@@@std@@$0A@@std@@@std@@SGPAU_Node@?$_Tree_nod@V?$_Tmap_traits@VBrn@OpenHome@@PAVDviDevice@Net@2@VBufferCmp@2@V?$allocator@U?$pair@$$CBVBrn@OpenHome@@PAVDviDevice@Net@2@@std@@@std@@$0A@@std@@@2@PAU342@@Z 10064ba0 f i DviDevice.obj
 0001:00063bf0       ?_Min@?$_Tree_val@V?$_Tmap_traits@VBrn@OpenHome@@PAVDviDevice@Net@2@VBufferCmp@2@V?$allocator@U?$pair@$$CBVBrn@OpenHome@@PAVDviDevice@Net@2@@std@@@std@@$0A@@std@@@std@@SGPAU_Node@?$_Tree_nod@V?$_Tmap_traits@VBrn@OpenHome@@PAVDviDevice@Net@2@VBufferCmp@2@V?$allocator@U?$pair@$$CBVBrn@OpenHome@@PAVDviDevice@Net@2@@std@@@std@@$0A@@std@@@2@PAU342@@Z 10064bf0 f i DviDevice.obj
 0001:00063c40       ??0?$allocator@U?$pair@$$CBVBrn@OpenHome@@PAVDviDevice@Net@2@@std@@@std@@QAE@XZ 10064c40 f i DviDevice.obj
 0001:00063c60       ?deallocate@?$allocator@U_Node@?$_Tree_nod@V?$_Tmap_traits@VBrn@OpenHome@@PAVDviDevice@Net@2@VBufferCmp@2@V?$allocator@U?$pair@$$CBVBrn@OpenHome@@PAVDviDevice@Net@2@@std@@@std@@$0A@@std@@@std@@@std@@QAEXPAU_Node@?$_Tree_nod@V?$_Tmap_traits@VBrn@OpenHome@@PAVDviDevice@Net@2@VBufferCmp@2@V?$allocator@U?$pair@$$CBVBrn@OpenHome@@PAVDviDevice@Net@2@@std@@@std@@$0A@@std@@@2@I@Z 10064c60 f i DviDevice.obj
 0001:00063ca0       ??0?$_Tree_iterator@V?$_Tree_val@V?$_Tmap_traits@VBrn@OpenHome@@PAVAttribute@AttributeMap@Net@2@VBufferCmp@2@V?$allocator@U?$pair@$$CBVBrn@OpenHome@@PAVAttribute@AttributeMap@Net@2@@std@@@std@@$0A@@std@@@std@@@std@@QAE@PAU_Node@?$_Tree_nod@V?$_Tmap_traits@VBrn@OpenHome@@PAVAttribute@AttributeMap@Net@2@VBufferCmp@2@V?$allocator@U?$pair@$$CBVBrn@OpenHome@@PAVAttribute@AttributeMap@Net@2@@std@@@std@@$0A@@std@@@1@PBV?$_Tree_val@V?$_Tmap_traits@VBrn@OpenHome@@PAVAttribute@AttributeMap@Net@2@VBufferCmp@2@V?$allocator@U?$pair@$$CBVBrn@OpenHome@@PAVAttribute@AttributeMap@Net@2@@std@@@std@@$0A@@std@@@1@@Z 10064ca0 f i DviDevice.obj
 0001:00063ce0       ??D?$_Tree_iterator@V?$_Tree_val@V?$_Tmap_traits@VBrn@OpenHome@@PAVAttribute@AttributeMap@Net@2@VBufferCmp@2@V?$allocator@U?$pair@$$CBVBrn@OpenHome@@PAVAttribute@AttributeMap@Net@2@@std@@@std@@$0A@@std@@@std@@@std@@QBEAAU?$pair@$$CBVBrn@OpenHome@@PAVAttribute@AttributeMap@Net@2@@1@XZ 10064ce0 f i DviDevice.obj
 0001:00063d10       ??E?$_Tree_iterator@V?$_Tree_val@V?$_Tmap_traits@VBrn@OpenHome@@PAVAttribute@AttributeMap@Net@2@VBufferCmp@2@V?$allocator@U?$pair@$$CBVBrn@OpenHome@@PAVAttribute@AttributeMap@Net@2@@std@@@std@@$0A@@std@@@std@@@std@@QAEAAV01@XZ 10064d10 f i DviDevice.obj
 0001:00063d40       ??0?$_Tree_const_iterator@V?$_Tree_val@V?$_Tmap_traits@VBrn@OpenHome@@PAVAttribute@AttributeMap@Net@2@VBufferCmp@2@V?$allocator@U?$pair@$$CBVBrn@OpenHome@@PAVAttribute@AttributeMap@Net@2@@std@@@std@@$0A@@std@@@std@@@std@@QAE@PAU_Node@?$_Tree_nod@V?$_Tmap_traits@VBrn@OpenHome@@PAVAttribute@AttributeMap@Net@2@VBufferCmp@2@V?$allocator@U?$pair@$$CBVBrn@OpenHome@@PAVAttribute@AttributeMap@Net@2@@std@@@std@@$0A@@std@@@1@PBV?$_Tree_val@V?$_Tmap_traits@VBrn@OpenHome@@PAVAttribute@AttributeMap@Net@2@VBufferCmp@2@V?$allocator@U?$pair@$$CBVBrn@OpenHome@@PAVAttribute@AttributeMap@Net@2@@std@@@std@@$0A@@std@@@1@@Z 10064d40 f i DviDevice.obj
 0001:00063d80       ??D?$_Tree_unchecked_const_iterator@V?$_Tree_val@V?$_Tmap_traits@VBrn@OpenHome@@PAVAttribute@AttributeMap@Net@2@VBufferCmp@2@V?$allocator@U?$pair@$$CBVBrn@OpenHome@@PAVAttribute@AttributeMap@Net@2@@std@@@std@@$0A@@std@@@std@@U_Iterator_base12@2@@std@@QBEABU?$pair@$$CBVBrn@OpenHome@@PAVAttribute@AttributeMap@Net@2@@1@XZ 10064d80 f i DviDevice.obj
 0001:00063dc0       ?_Mynode@?$_Tree_unchecked_const_iterator@V?$_Tree_val@V?$_Tmap_traits@VBrn@OpenHome@@PAVAttribute@AttributeMap@Net@2@VBufferCmp@2@V?$allocator@U?$pair@$$CBVBrn@OpenHome@@PAVAttribute@AttributeMap@Net@2@@std@@@std@@$0A@@std@@@std@@U_Iterator_base12@2@@std@@QBEPAU_Node@?$_Tree_nod@V?$_Tmap_traits@VBrn@OpenHome@@PAVAttribute@AttributeMap@Net@2@VBufferCmp@2@V?$allocator@U?$pair@$$CBVBrn@OpenHome@@PAVAttribute@AttributeMap@Net@2@@std@@@std@@$0A@@std@@@2@XZ 10064dc0 f i DviDevice.obj
 0001:00063de0       ??0?$_Tree_iterator@V?$_Tree_val@V?$_Tmap_traits@VBrn@OpenHome@@PAVDviDevice@Net@2@VBufferCmp@2@V?$allocator@U?$pair@$$CBVBrn@OpenHome@@PAVDviDevice@Net@2@@std@@@std@@$0A@@std@@@std@@@std@@QAE@PAU_Node@?$_Tree_nod@V?$_Tmap_traits@VBrn@OpenHome@@PAVDviDevice@Net@2@VBufferCmp@2@V?$allocator@U?$pair@$$CBVBrn@OpenHome@@PAVDviDevice@Net@2@@std@@@std@@$0A@@std@@@1@PBV?$_Tree_val@V?$_Tmap_traits@VBrn@OpenHome@@PAVDviDevice@Net@2@VBufferCmp@2@V?$allocator@U?$pair@$$CBVBrn@OpenHome@@PAVDviDevice@Net@2@@std@@@std@@$0A@@std@@@1@@Z 10064de0 f i DviDevice.obj
 0001:00063e20       ??D?$_Tree_iterator@V?$_Tree_val@V?$_Tmap_traits@VBrn@OpenHome@@PAVDviDevice@Net@2@VBufferCmp@2@V?$allocator@U?$pair@$$CBVBrn@OpenHome@@PAVDviDevice@Net@2@@std@@@std@@$0A@@std@@@std@@@std@@QBEAAU?$pair@$$CBVBrn@OpenHome@@PAVDviDevice@Net@2@@1@XZ 10064e20 f i DviDevice.obj
 0001:00063e50       ??E?$_Tree_const_iterator@V?$_Tree_val@V?$_Tmap_traits@VBrn@OpenHome@@PAVDviDevice@Net@2@VBufferCmp@2@V?$allocator@U?$pair@$$CBVBrn@OpenHome@@PAVDviDevice@Net@2@@std@@@std@@$0A@@std@@@std@@@std@@QAEAAV01@XZ 10064e50 f i DviDevice.obj
 0001:00063f30       ??8?$_Tree_const_iterator@V?$_Tree_val@V?$_Tmap_traits@VBrn@OpenHome@@PAVDviDevice@Net@2@VBufferCmp@2@V?$allocator@U?$pair@$$CBVBrn@OpenHome@@PAVDviDevice@Net@2@@std@@@std@@$0A@@std@@@std@@@std@@QBE_NABV01@@Z 10064f30 f i DviDevice.obj
 0001:00064020       ?_Mynode@?$_Tree_unchecked_const_iterator@V?$_Tree_val@V?$_Tmap_traits@VBrn@OpenHome@@PAVDviDevice@Net@2@VBufferCmp@2@V?$allocator@U?$pair@$$CBVBrn@OpenHome@@PAVDviDevice@Net@2@@std@@@std@@$0A@@std@@@std@@U_Iterator_base12@2@@std@@QBEPAU_Node@?$_Tree_nod@V?$_Tmap_traits@VBrn@OpenHome@@PAVDviDevice@Net@2@VBufferCmp@2@V?$allocator@U?$pair@$$CBVBrn@OpenHome@@PAVDviDevice@Net@2@@std@@@std@@$0A@@std@@@2@XZ 10065020 f i DviDevice.obj
 0001:00064040       ??0?$_Vector_iterator@V?$_Vector_val@PAVDviDevice@Net@OpenHome@@V?$allocator@PAVDviDevice@Net@OpenHome@@@std@@@std@@@std@@QAE@ABV01@@Z 10065040 f i DviDevice.obj
 0001:00064080       ?reserve@?$vector@PAVDviService@Net@OpenHome@@V?$allocator@PAVDviService@Net@OpenHome@@@std@@@std@@QAEXI@Z 10065080 f i DviDevice.obj
 0001:00064250       ?capacity@?$vector@PAVDviService@Net@OpenHome@@V?$allocator@PAVDviService@Net@OpenHome@@@std@@@std@@QBEIXZ 10065250 f i DviDevice.obj
 0001:00064280       ?max_size@?$vector@PAVDviService@Net@OpenHome@@V?$allocator@PAVDviService@Net@OpenHome@@@std@@@std@@QBEIXZ 10065280 f i DviDevice.obj
 0001:000642b0       ?_Destroy@?$vector@PAVDviService@Net@OpenHome@@V?$allocator@PAVDviService@Net@OpenHome@@@std@@@std@@IAEXPAPAVDviService@Net@OpenHome@@0@Z 100652b0 f i DviDevice.obj
 0001:000642f0       ?_Grow_to@?$vector@PAVDviService@Net@OpenHome@@V?$allocator@PAVDviService@Net@OpenHome@@@std@@@std@@IBEII@Z 100652f0 f i DviDevice.obj
 0001:00064390       ?_Xlen@?$vector@PAVDviService@Net@OpenHome@@V?$allocator@PAVDviService@Net@OpenHome@@@std@@@std@@IBEXXZ 10065390 f i DviDevice.obj
 0001:000643c0       ??0?$allocator@PAVDviService@Net@OpenHome@@@std@@QAE@ABV01@@Z 100653c0 f i DviDevice.obj
 0001:000643e0       ?deallocate@?$allocator@PAVDviService@Net@OpenHome@@@std@@QAEXPAPAVDviService@Net@OpenHome@@I@Z 100653e0 f i DviDevice.obj
 0001:00064420       ?reserve@?$vector@PAVDviDevice@Net@OpenHome@@V?$allocator@PAVDviDevice@Net@OpenHome@@@std@@@std@@QAEXI@Z 10065420 f i DviDevice.obj
 0001:000645f0       ?capacity@?$vector@PAVDviDevice@Net@OpenHome@@V?$allocator@PAVDviDevice@Net@OpenHome@@@std@@@std@@QBEIXZ 100655f0 f i DviDevice.obj
 0001:00064620       ?_Make_iter@?$vector@PAVDviDevice@Net@OpenHome@@V?$allocator@PAVDviDevice@Net@OpenHome@@@std@@@std@@QBE?AV?$_Vector_iterator@V?$_Vector_val@PAVDviDevice@Net@OpenHome@@V?$allocator@PAVDviDevice@Net@OpenHome@@@std@@@std@@@2@V?$_Vector_const_iterator@V?$_Vector_val@PAVDviDevice@Net@OpenHome@@V?$allocator@PAVDviDevice@Net@OpenHome@@@std@@@std@@@2@@Z 10065620 f i DviDevice.obj
 0001:000646d0       ?max_size@?$vector@PAVDviDevice@Net@OpenHome@@V?$allocator@PAVDviDevice@Net@OpenHome@@@std@@@std@@QBEIXZ 100656d0 f i DviDevice.obj
 0001:00064700       ?_Destroy@?$vector@PAVDviDevice@Net@OpenHome@@V?$allocator@PAVDviDevice@Net@OpenHome@@@std@@@std@@IAEXPAPAVDviDevice@Net@OpenHome@@0@Z 10065700 f i DviDevice.obj
 0001:00064740       ?_Grow_to@?$vector@PAVDviDevice@Net@OpenHome@@V?$allocator@PAVDviDevice@Net@OpenHome@@@std@@@std@@IBEII@Z 10065740 f i DviDevice.obj
 0001:000647e0       ?_Xlen@?$vector@PAVDviDevice@Net@OpenHome@@V?$allocator@PAVDviDevice@Net@OpenHome@@@std@@@std@@IBEXXZ 100657e0 f i DviDevice.obj
 0001:00064810       ??0?$allocator@PAVDviDevice@Net@OpenHome@@@std@@QAE@ABV01@@Z 10065810 f i DviDevice.obj
 0001:00064830       ?deallocate@?$allocator@PAVDviDevice@Net@OpenHome@@@std@@QAEXPAPAVDviDevice@Net@OpenHome@@I@Z 10065830 f i DviDevice.obj
 0001:00064870       ?reserve@?$vector@PAVIDvProtocol@Net@OpenHome@@V?$allocator@PAVIDvProtocol@Net@OpenHome@@@std@@@std@@QAEXI@Z 10065870 f i DviDevice.obj
 0001:00064a40       ?capacity@?$vector@PAVIDvProtocol@Net@OpenHome@@V?$allocator@PAVIDvProtocol@Net@OpenHome@@@std@@@std@@QBEIXZ 10065a40 f i DviDevice.obj
 0001:00064a70       ?max_size@?$vector@PAVIDvProtocol@Net@OpenHome@@V?$allocator@PAVIDvProtocol@Net@OpenHome@@@std@@@std@@QBEIXZ 10065a70 f i DviDevice.obj
 0001:00064aa0       ?_Destroy@?$vector@PAVIDvProtocol@Net@OpenHome@@V?$allocator@PAVIDvProtocol@Net@OpenHome@@@std@@@std@@IAEXPAPAVIDvProtocol@Net@OpenHome@@0@Z 10065aa0 f i DviDevice.obj
 0001:00064ae0       ?_Grow_to@?$vector@PAVIDvProtocol@Net@OpenHome@@V?$allocator@PAVIDvProtocol@Net@OpenHome@@@std@@@std@@IBEII@Z 10065ae0 f i DviDevice.obj
 0001:00064b80       ?_Xlen@?$vector@PAVIDvProtocol@Net@OpenHome@@V?$allocator@PAVIDvProtocol@Net@OpenHome@@@std@@@std@@IBEXXZ 10065b80 f i DviDevice.obj
 0001:00064bb0       ??0?$allocator@PAVIDvProtocol@Net@OpenHome@@@std@@QAE@ABV01@@Z 10065bb0 f i DviDevice.obj
 0001:00064bd0       ?deallocate@?$allocator@PAVIDvProtocol@Net@OpenHome@@@std@@QAEXPAPAVIDvProtocol@Net@OpenHome@@I@Z 10065bd0 f i DviDevice.obj
 0001:00064c10       ?erase@?$_Tree@V?$_Tmap_traits@VBrn@OpenHome@@PAVAttribute@AttributeMap@Net@2@VBufferCmp@2@V?$allocator@U?$pair@$$CBVBrn@OpenHome@@PAVAttribute@AttributeMap@Net@2@@std@@@std@@$0A@@std@@@std@@QAE?AV?$_Tree_iterator@V?$_Tree_val@V?$_Tmap_traits@VBrn@OpenHome@@PAVAttribute@AttributeMap@Net@2@VBufferCmp@2@V?$allocator@U?$pair@$$CBVBrn@OpenHome@@PAVAttribute@AttributeMap@Net@2@@std@@@std@@$0A@@std@@@std@@@2@V?$_Tree_const_iterator@V?$_Tree_val@V?$_Tmap_traits@VBrn@OpenHome@@PAVAttribute@AttributeMap@Net@2@VBufferCmp@2@V?$allocator@U?$pair@$$CBVBrn@OpenHome@@PAVAttribute@AttributeMap@Net@2@@std@@@std@@$0A@@std@@@std@@@2@0@Z 10065c10 f i DviDevice.obj
 0001:00064e90       ?_Lbound@?$_Tree@V?$_Tmap_traits@VBrn@OpenHome@@PAVAttribute@AttributeMap@Net@2@VBufferCmp@2@V?$allocator@U?$pair@$$CBVBrn@OpenHome@@PAVAttribute@AttributeMap@Net@2@@std@@@std@@$0A@@std@@@std@@IBEPAU_Node@?$_Tree_nod@V?$_Tmap_traits@VBrn@OpenHome@@PAVAttribute@AttributeMap@Net@2@VBufferCmp@2@V?$allocator@U?$pair@$$CBVBrn@OpenHome@@PAVAttribute@AttributeMap@Net@2@@std@@@std@@$0A@@std@@@2@ABVBrn@OpenHome@@@Z 10065e90 f i DviDevice.obj
 0001:00064f70       ?_Lbound@?$_Tree@V?$_Tmap_traits@VBrn@OpenHome@@PAVAttribute@AttributeMap@Net@2@VBufferCmp@2@V?$allocator@U?$pair@$$CBVBrn@OpenHome@@PAVAttribute@AttributeMap@Net@2@@std@@@std@@$0A@@std@@@std@@IAEPAU_Node@?$_Tree_nod@V?$_Tmap_traits@VBrn@OpenHome@@PAVAttribute@AttributeMap@Net@2@VBufferCmp@2@V?$allocator@U?$pair@$$CBVBrn@OpenHome@@PAVAttribute@AttributeMap@Net@2@@std@@@std@@$0A@@std@@@2@ABVBrn@OpenHome@@@Z 10065f70 f i DviDevice.obj
 0001:00065050       ??0?$_Tree_val@V?$_Tmap_traits@VBrn@OpenHome@@PAVAttribute@AttributeMap@Net@2@VBufferCmp@2@V?$allocator@U?$pair@$$CBVBrn@OpenHome@@PAVAttribute@AttributeMap@Net@2@@std@@@std@@$0A@@std@@@std@@QAE@ABVBufferCmp@OpenHome@@V?$allocator@U?$pair@$$CBVBrn@OpenHome@@PAVAttribute@AttributeMap@Net@2@@std@@@1@@Z 10066050 f i DviDevice.obj
 0001:00065190       ?_Left@?$_Tree_val@V?$_Tmap_traits@VBrn@OpenHome@@PAVAttribute@AttributeMap@Net@2@VBufferCmp@2@V?$allocator@U?$pair@$$CBVBrn@OpenHome@@PAVAttribute@AttributeMap@Net@2@@std@@@std@@$0A@@std@@@std@@SGAAPAU_Node@?$_Tree_nod@V?$_Tmap_traits@VBrn@OpenHome@@PAVAttribute@AttributeMap@Net@2@VBufferCmp@2@V?$allocator@U?$pair@$$CBVBrn@OpenHome@@PAVAttribute@AttributeMap@Net@2@@std@@@std@@$0A@@std@@@2@PAU342@@Z 10066190 f i DviDevice.obj
 0001:000651a0       ?_Myval@?$_Tree_val@V?$_Tmap_traits@VBrn@OpenHome@@PAVAttribute@AttributeMap@Net@2@VBufferCmp@2@V?$allocator@U?$pair@$$CBVBrn@OpenHome@@PAVAttribute@AttributeMap@Net@2@@std@@@std@@$0A@@std@@@std@@SGAAU?$pair@$$CBVBrn@OpenHome@@PAVAttribute@AttributeMap@Net@2@@2@PAU_Node@?$_Tree_nod@V?$_Tmap_traits@VBrn@OpenHome@@PAVAttribute@AttributeMap@Net@2@VBufferCmp@2@V?$allocator@U?$pair@$$CBVBrn@OpenHome@@PAVAttribute@AttributeMap@Net@2@@std@@@std@@$0A@@std@@@2@@Z 100661a0 f i DviDevice.obj
 0001:000651b0       ??1?$_Tree_nod@V?$_Tmap_traits@VBrn@OpenHome@@PAVAttribute@AttributeMap@Net@2@VBufferCmp@2@V?$allocator@U?$pair@$$CBVBrn@OpenHome@@PAVAttribute@AttributeMap@Net@2@@std@@@std@@$0A@@std@@@std@@QAE@XZ 100661b0 f i DviDevice.obj
 0001:000652c0       ??0?$allocator@U?$pair@$$CBVBrn@OpenHome@@PAVAttribute@AttributeMap@Net@2@@std@@@std@@QAE@ABV01@@Z 100662c0 f i DviDevice.obj
 0001:000652e0       ?deallocate@?$allocator@U_Node@?$_Tree_nod@V?$_Tmap_traits@VBrn@OpenHome@@PAVAttribute@AttributeMap@Net@2@VBufferCmp@2@V?$allocator@U?$pair@$$CBVBrn@OpenHome@@PAVAttribute@AttributeMap@Net@2@@std@@@std@@$0A@@std@@@std@@@std@@QAEXPAU_Node@?$_Tree_nod@V?$_Tmap_traits@VBrn@OpenHome@@PAVAttribute@AttributeMap@Net@2@VBufferCmp@2@V?$allocator@U?$pair@$$CBVBrn@OpenHome@@PAVAttribute@AttributeMap@Net@2@@std@@@std@@$0A@@std@@@2@I@Z 100662e0 f i DviDevice.obj
 0001:00065320       ?begin@?$_Tree@V?$_Tmap_traits@VBrn@OpenHome@@PAVDviDevice@Net@2@VBufferCmp@2@V?$allocator@U?$pair@$$CBVBrn@OpenHome@@PAVDviDevice@Net@2@@std@@@std@@$0A@@std@@@std@@QAE?AV?$_Tree_iterator@V?$_Tree_val@V?$_Tmap_traits@VBrn@OpenHome@@PAVDviDevice@Net@2@VBufferCmp@2@V?$allocator@U?$pair@$$CBVBrn@OpenHome@@PAVDviDevice@Net@2@@std@@@std@@$0A@@std@@@std@@@2@XZ 10066320 f i DviDevice.obj
 0001:00065390       ?erase@?$_Tree@V?$_Tmap_traits@VBrn@OpenHome@@PAVDviDevice@Net@2@VBufferCmp@2@V?$allocator@U?$pair@$$CBVBrn@OpenHome@@PAVDviDevice@Net@2@@std@@@std@@$0A@@std@@@std@@QAE?AV?$_Tree_iterator@V?$_Tree_val@V?$_Tmap_traits@VBrn@OpenHome@@PAVDviDevice@Net@2@VBufferCmp@2@V?$allocator@U?$pair@$$CBVBrn@OpenHome@@PAVDviDevice@Net@2@@std@@@std@@$0A@@std@@@std@@@2@V?$_Tree_const_iterator@V?$_Tree_val@V?$_Tmap_traits@VBrn@OpenHome@@PAVDviDevice@Net@2@VBufferCmp@2@V?$allocator@U?$pair@$$CBVBrn@OpenHome@@PAVDviDevice@Net@2@@std@@@std@@$0A@@std@@@std@@@2@0@Z 10066390 f i DviDevice.obj
 0001:00065610       ?_Lbound@?$_Tree@V?$_Tmap_traits@VBrn@OpenHome@@PAVDviDevice@Net@2@VBufferCmp@2@V?$allocator@U?$pair@$$CBVBrn@OpenHome@@PAVDviDevice@Net@2@@std@@@std@@$0A@@std@@@std@@IAEPAU_Node@?$_Tree_nod@V?$_Tmap_traits@VBrn@OpenHome@@PAVDviDevice@Net@2@VBufferCmp@2@V?$allocator@U?$pair@$$CBVBrn@OpenHome@@PAVDviDevice@Net@2@@std@@@std@@$0A@@std@@@2@ABVBrn@OpenHome@@@Z 10066610 f i DviDevice.obj
 0001:000656f0       ??0?$_Tree_val@V?$_Tmap_traits@VBrn@OpenHome@@PAVDviDevice@Net@2@VBufferCmp@2@V?$allocator@U?$pair@$$CBVBrn@OpenHome@@PAVDviDevice@Net@2@@std@@@std@@$0A@@std@@@std@@QAE@ABVBufferCmp@OpenHome@@V?$allocator@U?$pair@$$CBVBrn@OpenHome@@PAVDviDevice@Net@2@@std@@@1@@Z 100666f0 f i DviDevice.obj
 0001:00065830       ??1?$_Tree_nod@V?$_Tmap_traits@VBrn@OpenHome@@PAVDviDevice@Net@2@VBufferCmp@2@V?$allocator@U?$pair@$$CBVBrn@OpenHome@@PAVDviDevice@Net@2@@std@@@std@@$0A@@std@@@std@@QAE@XZ 10066830 f i DviDevice.obj
 0001:00065940       ??0?$allocator@U?$pair@$$CBVBrn@OpenHome@@PAVDviDevice@Net@2@@std@@@std@@QAE@ABV01@@Z 10066940 f i DviDevice.obj
 0001:00065960       ??D?$_Tree_const_iterator@V?$_Tree_val@V?$_Tmap_traits@VBrn@OpenHome@@PAVAttribute@AttributeMap@Net@2@VBufferCmp@2@V?$allocator@U?$pair@$$CBVBrn@OpenHome@@PAVAttribute@AttributeMap@Net@2@@std@@@std@@$0A@@std@@@std@@@std@@QBEABU?$pair@$$CBVBrn@OpenHome@@PAVAttribute@AttributeMap@Net@2@@1@XZ 10066960 f i DviDevice.obj
 0001:00065a40       ??E?$_Tree_const_iterator@V?$_Tree_val@V?$_Tmap_traits@VBrn@OpenHome@@PAVAttribute@AttributeMap@Net@2@VBufferCmp@2@V?$allocator@U?$pair@$$CBVBrn@OpenHome@@PAVAttribute@AttributeMap@Net@2@@std@@@std@@$0A@@std@@@std@@@std@@QAEAAV01@XZ 10066a40 f i DviDevice.obj
 0001:00065b20       ??0?$_Tree_unchecked_const_iterator@V?$_Tree_val@V?$_Tmap_traits@VBrn@OpenHome@@PAVAttribute@AttributeMap@Net@2@VBufferCmp@2@V?$allocator@U?$pair@$$CBVBrn@OpenHome@@PAVAttribute@AttributeMap@Net@2@@std@@@std@@$0A@@std@@@std@@U_Iterator_base12@2@@std@@QAE@PAU_Node@?$_Tree_nod@V?$_Tmap_traits@VBrn@OpenHome@@PAVAttribute@AttributeMap@Net@2@VBufferCmp@2@V?$allocator@U?$pair@$$CBVBrn@OpenHome@@PAVAttribute@AttributeMap@Net@2@@std@@@std@@$0A@@std@@@1@PBV?$_Tree_val@V?$_Tmap_traits@VBrn@OpenHome@@PAVAttribute@AttributeMap@Net@2@VBufferCmp@2@V?$allocator@U?$pair@$$CBVBrn@OpenHome@@PAVAttribute@AttributeMap@Net@2@@std@@@std@@$0A@@std@@@1@@Z 10066b20 f i DviDevice.obj
 0001:00065bc0       ??0?$_Tree_const_iterator@V?$_Tree_val@V?$_Tmap_traits@VBrn@OpenHome@@PAVDviDevice@Net@2@VBufferCmp@2@V?$allocator@U?$pair@$$CBVBrn@OpenHome@@PAVDviDevice@Net@2@@std@@@std@@$0A@@std@@@std@@@std@@QAE@PAU_Node@?$_Tree_nod@V?$_Tmap_traits@VBrn@OpenHome@@PAVDviDevice@Net@2@VBufferCmp@2@V?$allocator@U?$pair@$$CBVBrn@OpenHome@@PAVDviDevice@Net@2@@std@@@std@@$0A@@std@@@1@PBV?$_Tree_val@V?$_Tmap_traits@VBrn@OpenHome@@PAVDviDevice@Net@2@VBufferCmp@2@V?$allocator@U?$pair@$$CBVBrn@OpenHome@@PAVDviDevice@Net@2@@std@@@std@@$0A@@std@@@1@@Z 10066bc0 f i DviDevice.obj
 0001:00065c00       ??D?$_Tree_const_iterator@V?$_Tree_val@V?$_Tmap_traits@VBrn@OpenHome@@PAVDviDevice@Net@2@VBufferCmp@2@V?$allocator@U?$pair@$$CBVBrn@OpenHome@@PAVDviDevice@Net@2@@std@@@std@@$0A@@std@@@std@@@std@@QBEABU?$pair@$$CBVBrn@OpenHome@@PAVDviDevice@Net@2@@1@XZ 10066c00 f i DviDevice.obj
 0001:00065ce0       ??E?$_Tree_unchecked_const_iterator@V?$_Tree_val@V?$_Tmap_traits@VBrn@OpenHome@@PAVDviDevice@Net@2@VBufferCmp@2@V?$allocator@U?$pair@$$CBVBrn@OpenHome@@PAVDviDevice@Net@2@@std@@@std@@$0A@@std@@@std@@U_Iterator_base12@2@@std@@QAEAAV01@XZ 10066ce0 f i DviDevice.obj
 0001:00065dd0       ??0?$_Vector_iterator@V?$_Vector_val@PAVDviDevice@Net@OpenHome@@V?$allocator@PAVDviDevice@Net@OpenHome@@@std@@@std@@@std@@QAE@PAPAVDviDevice@Net@OpenHome@@PBU_Container_base12@1@@Z 10066dd0 f i DviDevice.obj
 0001:00065e10       ??9?$_Vector_const_iterator@V?$_Vector_val@PAVDviDevice@Net@OpenHome@@V?$allocator@PAVDviDevice@Net@OpenHome@@@std@@@std@@@std@@QBE_NABV01@@Z 10066e10 f i DviDevice.obj
 0001:00065e60       ??M?$_Vector_const_iterator@V?$_Vector_val@PAVDviDevice@Net@OpenHome@@V?$allocator@PAVDviDevice@Net@OpenHome@@@std@@@std@@@std@@QBE_NABV01@@Z 10066e60 f i DviDevice.obj
 0001:00065eb0       ??1?$_Tmap_traits@VBrn@OpenHome@@PAVAttribute@AttributeMap@Net@2@VBufferCmp@2@V?$allocator@U?$pair@$$CBVBrn@OpenHome@@PAVAttribute@AttributeMap@Net@2@@std@@@std@@$0A@@std@@QAE@XZ 10066eb0 f i DviDevice.obj
 0001:00065ee0       ??1?$_Tmap_traits@VBrn@OpenHome@@PAVDviDevice@Net@2@VBufferCmp@2@V?$allocator@U?$pair@$$CBVBrn@OpenHome@@PAVDviDevice@Net@2@@std@@@std@@$0A@@std@@QAE@XZ 10066ee0 f i DviDevice.obj
 0001:00065f10       ??0?$_Iterator012@Ubidirectional_iterator_tag@std@@U?$pair@$$CBVBrn@OpenHome@@PAVAttribute@AttributeMap@Net@2@@2@HPBU32@ABU32@U_Iterator_base12@2@@std@@QAE@XZ 10066f10 f i DviDevice.obj
 0001:00065f40       ?allocate@?$allocator@PAVDviService@Net@OpenHome@@@std@@QAEPAPAVDviService@Net@OpenHome@@I@Z 10066f40 f i DviDevice.obj
 0001:00065f80       ?max_size@?$allocator@PAVDviService@Net@OpenHome@@@std@@QBEIXZ 10066f80 f i DviDevice.obj
 0001:00065fe0       ?allocate@?$allocator@PAVDviDevice@Net@OpenHome@@@std@@QAEPAPAVDviDevice@Net@OpenHome@@I@Z 10066fe0 f i DviDevice.obj
 0001:00066020       ?max_size@?$allocator@PAVDviDevice@Net@OpenHome@@@std@@QBEIXZ 10067020 f i DviDevice.obj
 0001:00066080       ?allocate@?$allocator@PAVIDvProtocol@Net@OpenHome@@@std@@QAEPAPAVIDvProtocol@Net@OpenHome@@I@Z 10067080 f i DviDevice.obj
 0001:000660c0       ?max_size@?$allocator@PAVIDvProtocol@Net@OpenHome@@@std@@QBEIXZ 100670c0 f i DviDevice.obj
 0001:00066120       ?erase@?$_Tree@V?$_Tmap_traits@VBrn@OpenHome@@PAVAttribute@AttributeMap@Net@2@VBufferCmp@2@V?$allocator@U?$pair@$$CBVBrn@OpenHome@@PAVAttribute@AttributeMap@Net@2@@std@@@std@@$0A@@std@@@std@@QAE?AV?$_Tree_iterator@V?$_Tree_val@V?$_Tmap_traits@VBrn@OpenHome@@PAVAttribute@AttributeMap@Net@2@VBufferCmp@2@V?$allocator@U?$pair@$$CBVBrn@OpenHome@@PAVAttribute@AttributeMap@Net@2@@std@@@std@@$0A@@std@@@std@@@2@V?$_Tree_const_iterator@V?$_Tree_val@V?$_Tmap_traits@VBrn@OpenHome@@PAVAttribute@AttributeMap@Net@2@VBufferCmp@2@V?$allocator@U?$pair@$$CBVBrn@OpenHome@@PAVAttribute@AttributeMap@Net@2@@std@@@std@@$0A@@std@@@std@@@2@@Z 10067120 f i DviDevice.obj
 0001:000669f0       ?clear@?$_Tree@V?$_Tmap_traits@VBrn@OpenHome@@PAVAttribute@AttributeMap@Net@2@VBufferCmp@2@V?$allocator@U?$pair@$$CBVBrn@OpenHome@@PAVAttribute@AttributeMap@Net@2@@std@@@std@@$0A@@std@@@std@@QAEXXZ 100679f0 f i DviDevice.obj
 0001:00066a90       ?_Root@?$_Tree@V?$_Tmap_traits@VBrn@OpenHome@@PAVAttribute@AttributeMap@Net@2@VBufferCmp@2@V?$allocator@U?$pair@$$CBVBrn@OpenHome@@PAVAttribute@AttributeMap@Net@2@@std@@@std@@$0A@@std@@@std@@IBEAAPAU_Node@?$_Tree_nod@V?$_Tmap_traits@VBrn@OpenHome@@PAVAttribute@AttributeMap@Net@2@VBufferCmp@2@V?$allocator@U?$pair@$$CBVBrn@OpenHome@@PAVAttribute@AttributeMap@Net@2@@std@@@std@@$0A@@std@@@2@XZ 10067a90 f i DviDevice.obj
 0001:00066ad0       ?_Color@?$_Tree_val@V?$_Tmap_traits@VBrn@OpenHome@@PAVAttribute@AttributeMap@Net@2@VBufferCmp@2@V?$allocator@U?$pair@$$CBVBrn@OpenHome@@PAVAttribute@AttributeMap@Net@2@@std@@@std@@$0A@@std@@@std@@SGAADPAU_Node@?$_Tree_nod@V?$_Tmap_traits@VBrn@OpenHome@@PAVAttribute@AttributeMap@Net@2@VBufferCmp@2@V?$allocator@U?$pair@$$CBVBrn@OpenHome@@PAVAttribute@AttributeMap@Net@2@@std@@@std@@$0A@@std@@@2@@Z 10067ad0 f i DviDevice.obj
 0001:00066ae0       ?_Isnil@?$_Tree_val@V?$_Tmap_traits@VBrn@OpenHome@@PAVAttribute@AttributeMap@Net@2@VBufferCmp@2@V?$allocator@U?$pair@$$CBVBrn@OpenHome@@PAVAttribute@AttributeMap@Net@2@@std@@@std@@$0A@@std@@@std@@SGAADPAU_Node@?$_Tree_nod@V?$_Tmap_traits@VBrn@OpenHome@@PAVAttribute@AttributeMap@Net@2@VBufferCmp@2@V?$allocator@U?$pair@$$CBVBrn@OpenHome@@PAVAttribute@AttributeMap@Net@2@@std@@@std@@$0A@@std@@@2@@Z 10067ae0 f i DviDevice.obj
 0001:00066af0       ?_Parent@?$_Tree_val@V?$_Tmap_traits@VBrn@OpenHome@@PAVAttribute@AttributeMap@Net@2@VBufferCmp@2@V?$allocator@U?$pair@$$CBVBrn@OpenHome@@PAVAttribute@AttributeMap@Net@2@@std@@@std@@$0A@@std@@@std@@SGAAPAU_Node@?$_Tree_nod@V?$_Tmap_traits@VBrn@OpenHome@@PAVAttribute@AttributeMap@Net@2@VBufferCmp@2@V?$allocator@U?$pair@$$CBVBrn@OpenHome@@PAVAttribute@AttributeMap@Net@2@@std@@@std@@$0A@@std@@@2@PAU342@@Z 10067af0 f i DviDevice.obj
 0001:00066b00       ?_Right@?$_Tree_val@V?$_Tmap_traits@VBrn@OpenHome@@PAVAttribute@AttributeMap@Net@2@VBufferCmp@2@V?$allocator@U?$pair@$$CBVBrn@OpenHome@@PAVAttribute@AttributeMap@Net@2@@std@@@std@@$0A@@std@@@std@@SGAAPAU_Node@?$_Tree_nod@V?$_Tmap_traits@VBrn@OpenHome@@PAVAttribute@AttributeMap@Net@2@VBufferCmp@2@V?$allocator@U?$pair@$$CBVBrn@OpenHome@@PAVAttribute@AttributeMap@Net@2@@std@@@std@@$0A@@std@@@2@PAU342@@Z 10067b00 f i DviDevice.obj
 0001:00066b10       ??0?$_Tree_nod@V?$_Tmap_traits@VBrn@OpenHome@@PAVAttribute@AttributeMap@Net@2@VBufferCmp@2@V?$allocator@U?$pair@$$CBVBrn@OpenHome@@PAVAttribute@AttributeMap@Net@2@@std@@@std@@$0A@@std@@@std@@QAE@ABVBufferCmp@OpenHome@@V?$allocator@U?$pair@$$CBVBrn@OpenHome@@PAVAttribute@AttributeMap@Net@2@@std@@@1@@Z 10067b10 f i DviDevice.obj
 0001:00066c60       ?allocate@?$allocator@U_Node@?$_Tree_nod@V?$_Tmap_traits@VBrn@OpenHome@@PAVAttribute@AttributeMap@Net@2@VBufferCmp@2@V?$allocator@U?$pair@$$CBVBrn@OpenHome@@PAVAttribute@AttributeMap@Net@2@@std@@@std@@$0A@@std@@@std@@@std@@QAEPAU_Node@?$_Tree_nod@V?$_Tmap_traits@VBrn@OpenHome@@PAVAttribute@AttributeMap@Net@2@VBufferCmp@2@V?$allocator@U?$pair@$$CBVBrn@OpenHome@@PAVAttribute@AttributeMap@Net@2@@std@@@std@@$0A@@std@@@2@I@Z 10067c60 f i DviDevice.obj
 0001:00066ca0       ?clear@?$_Tree@V?$_Tmap_traits@VBrn@OpenHome@@PAVDviDevice@Net@2@VBufferCmp@2@V?$allocator@U?$pair@$$CBVBrn@OpenHome@@PAVDviDevice@Net@2@@std@@@std@@$0A@@std@@@std@@QAEXXZ 10067ca0 f i DviDevice.obj
 0001:00066d40       ??0?$_Tree_nod@V?$_Tmap_traits@VBrn@OpenHome@@PAVDviDevice@Net@2@VBufferCmp@2@V?$allocator@U?$pair@$$CBVBrn@OpenHome@@PAVDviDevice@Net@2@@std@@@std@@$0A@@std@@@std@@QAE@ABVBufferCmp@OpenHome@@V?$allocator@U?$pair@$$CBVBrn@OpenHome@@PAVDviDevice@Net@2@@std@@@1@@Z 10067d40 f i DviDevice.obj
 0001:00066e90       ?allocate@?$allocator@U_Node@?$_Tree_nod@V?$_Tmap_traits@VBrn@OpenHome@@PAVDviDevice@Net@2@VBufferCmp@2@V?$allocator@U?$pair@$$CBVBrn@OpenHome@@PAVDviDevice@Net@2@@std@@@std@@$0A@@std@@@std@@@std@@QAEPAU_Node@?$_Tree_nod@V?$_Tmap_traits@VBrn@OpenHome@@PAVDviDevice@Net@2@VBufferCmp@2@V?$allocator@U?$pair@$$CBVBrn@OpenHome@@PAVDviDevice@Net@2@@std@@@std@@$0A@@std@@@2@I@Z 10067e90 f i DviDevice.obj
 0001:00066ed0       ??E?$_Tree_const_iterator@V?$_Tree_val@V?$_Tmap_traits@VBrn@OpenHome@@PAVAttribute@AttributeMap@Net@2@VBufferCmp@2@V?$allocator@U?$pair@$$CBVBrn@OpenHome@@PAVAttribute@AttributeMap@Net@2@@std@@@std@@$0A@@std@@@std@@@std@@QAE?AV01@H@Z 10067ed0 f i DviDevice.obj
 0001:00066fd0       ??E?$_Tree_unchecked_const_iterator@V?$_Tree_val@V?$_Tmap_traits@VBrn@OpenHome@@PAVAttribute@AttributeMap@Net@2@VBufferCmp@2@V?$allocator@U?$pair@$$CBVBrn@OpenHome@@PAVAttribute@AttributeMap@Net@2@@std@@@std@@$0A@@std@@@std@@U_Iterator_base12@2@@std@@QAEAAV01@XZ 10067fd0 f i DviDevice.obj
 0001:000670c0       ??E?$_Tree_const_iterator@V?$_Tree_val@V?$_Tmap_traits@VBrn@OpenHome@@PAVDviDevice@Net@2@VBufferCmp@2@V?$allocator@U?$pair@$$CBVBrn@OpenHome@@PAVDviDevice@Net@2@@std@@@std@@$0A@@std@@@std@@@std@@QAE?AV01@H@Z 100680c0 f i DviDevice.obj
 0001:000671c0       ??0?$_Tree_unchecked_const_iterator@V?$_Tree_val@V?$_Tmap_traits@VBrn@OpenHome@@PAVDviDevice@Net@2@VBufferCmp@2@V?$allocator@U?$pair@$$CBVBrn@OpenHome@@PAVDviDevice@Net@2@@std@@@std@@$0A@@std@@@std@@U_Iterator_base12@2@@std@@QAE@PAU_Node@?$_Tree_nod@V?$_Tmap_traits@VBrn@OpenHome@@PAVDviDevice@Net@2@VBufferCmp@2@V?$allocator@U?$pair@$$CBVBrn@OpenHome@@PAVDviDevice@Net@2@@std@@@std@@$0A@@std@@@1@PBV?$_Tree_val@V?$_Tmap_traits@VBrn@OpenHome@@PAVDviDevice@Net@2@VBufferCmp@2@V?$allocator@U?$pair@$$CBVBrn@OpenHome@@PAVDviDevice@Net@2@@std@@@std@@$0A@@std@@@1@@Z 100681c0 f i DviDevice.obj
 0001:00067260       ??0?$_Vector_const_iterator@V?$_Vector_val@PAVDviDevice@Net@OpenHome@@V?$allocator@PAVDviDevice@Net@OpenHome@@@std@@@std@@@std@@QAE@PAPAVDviDevice@Net@OpenHome@@PBU_Container_base12@1@@Z 10068260 f i DviDevice.obj
 0001:00067300       ??8?$_Vector_const_iterator@V?$_Vector_val@PAVDviDevice@Net@OpenHome@@V?$allocator@PAVDviDevice@Net@OpenHome@@@std@@@std@@@std@@QBE_NABV01@@Z 10068300 f i DviDevice.obj
 0001:00067350       ?_Compat@?$_Vector_const_iterator@V?$_Vector_val@PAVDviDevice@Net@OpenHome@@V?$allocator@PAVDviDevice@Net@OpenHome@@@std@@@std@@@std@@QBEXABV12@@Z 10068350 f i DviDevice.obj
 0001:00067420       ??0?$_Iterator012@Ubidirectional_iterator_tag@std@@U?$pair@$$CBVBrn@OpenHome@@PAVDviDevice@Net@2@@2@HPBU32@ABU32@U_Iterator_base12@2@@std@@QAE@XZ 10068420 f i DviDevice.obj
 0001:00067450       ??0?$_Iterator012@Urandom_access_iterator_tag@std@@PAVDviDevice@Net@OpenHome@@HPBQAV345@ABQAV345@U_Iterator_base12@2@@std@@QAE@XZ 10068450 f i DviDevice.obj
 0001:00067480       ?_Erase@?$_Tree@V?$_Tmap_traits@VBrn@OpenHome@@PAVAttribute@AttributeMap@Net@2@VBufferCmp@2@V?$allocator@U?$pair@$$CBVBrn@OpenHome@@PAVAttribute@AttributeMap@Net@2@@std@@@std@@$0A@@std@@@std@@IAEXPAU_Node@?$_Tree_nod@V?$_Tmap_traits@VBrn@OpenHome@@PAVAttribute@AttributeMap@Net@2@VBufferCmp@2@V?$allocator@U?$pair@$$CBVBrn@OpenHome@@PAVAttribute@AttributeMap@Net@2@@std@@@std@@$0A@@std@@@2@@Z 10068480 f i DviDevice.obj
 0001:00067540       ?_Lrotate@?$_Tree@V?$_Tmap_traits@VBrn@OpenHome@@PAVAttribute@AttributeMap@Net@2@VBufferCmp@2@V?$allocator@U?$pair@$$CBVBrn@OpenHome@@PAVAttribute@AttributeMap@Net@2@@std@@@std@@$0A@@std@@@std@@IAEXPAU_Node@?$_Tree_nod@V?$_Tmap_traits@VBrn@OpenHome@@PAVAttribute@AttributeMap@Net@2@VBufferCmp@2@V?$allocator@U?$pair@$$CBVBrn@OpenHome@@PAVAttribute@AttributeMap@Net@2@@std@@@std@@$0A@@std@@@2@@Z 10068540 f i DviDevice.obj
 0001:000676a0       ?_Rmost@?$_Tree@V?$_Tmap_traits@VBrn@OpenHome@@PAVAttribute@AttributeMap@Net@2@VBufferCmp@2@V?$allocator@U?$pair@$$CBVBrn@OpenHome@@PAVAttribute@AttributeMap@Net@2@@std@@@std@@$0A@@std@@@std@@IBEAAPAU_Node@?$_Tree_nod@V?$_Tmap_traits@VBrn@OpenHome@@PAVAttribute@AttributeMap@Net@2@VBufferCmp@2@V?$allocator@U?$pair@$$CBVBrn@OpenHome@@PAVAttribute@AttributeMap@Net@2@@std@@@std@@$0A@@std@@@2@XZ 100686a0 f i DviDevice.obj
 0001:000676e0       ?_Rrotate@?$_Tree@V?$_Tmap_traits@VBrn@OpenHome@@PAVAttribute@AttributeMap@Net@2@VBufferCmp@2@V?$allocator@U?$pair@$$CBVBrn@OpenHome@@PAVAttribute@AttributeMap@Net@2@@std@@@std@@$0A@@std@@@std@@IAEXPAU_Node@?$_Tree_nod@V?$_Tmap_traits@VBrn@OpenHome@@PAVAttribute@AttributeMap@Net@2@VBufferCmp@2@V?$allocator@U?$pair@$$CBVBrn@OpenHome@@PAVAttribute@AttributeMap@Net@2@@std@@@std@@$0A@@std@@@2@@Z 100686e0 f i DviDevice.obj
 0001:00067840       ?_Orphan_ptr@?$_Tree@V?$_Tmap_traits@VBrn@OpenHome@@PAVAttribute@AttributeMap@Net@2@VBufferCmp@2@V?$allocator@U?$pair@$$CBVBrn@OpenHome@@PAVAttribute@AttributeMap@Net@2@@std@@@std@@$0A@@std@@@std@@IBEXAAV12@PAU_Node@?$_Tree_nod@V?$_Tmap_traits@VBrn@OpenHome@@PAVAttribute@AttributeMap@Net@2@VBufferCmp@2@V?$allocator@U?$pair@$$CBVBrn@OpenHome@@PAVAttribute@AttributeMap@Net@2@@std@@@std@@$0A@@std@@@2@@Z 10068840 f i DviDevice.obj
 0001:00067990       ?_Max@?$_Tree_val@V?$_Tmap_traits@VBrn@OpenHome@@PAVAttribute@AttributeMap@Net@2@VBufferCmp@2@V?$allocator@U?$pair@$$CBVBrn@OpenHome@@PAVAttribute@AttributeMap@Net@2@@std@@@std@@$0A@@std@@@std@@SGPAU_Node@?$_Tree_nod@V?$_Tmap_traits@VBrn@OpenHome@@PAVAttribute@AttributeMap@Net@2@VBufferCmp@2@V?$allocator@U?$pair@$$CBVBrn@OpenHome@@PAVAttribute@AttributeMap@Net@2@@std@@@std@@$0A@@std@@@2@PAU342@@Z 10068990 f i DviDevice.obj
 0001:000679e0       ?_Min@?$_Tree_val@V?$_Tmap_traits@VBrn@OpenHome@@PAVAttribute@AttributeMap@Net@2@VBufferCmp@2@V?$allocator@U?$pair@$$CBVBrn@OpenHome@@PAVAttribute@AttributeMap@Net@2@@std@@@std@@$0A@@std@@@std@@SGPAU_Node@?$_Tree_nod@V?$_Tmap_traits@VBrn@OpenHome@@PAVAttribute@AttributeMap@Net@2@VBufferCmp@2@V?$allocator@U?$pair@$$CBVBrn@OpenHome@@PAVAttribute@AttributeMap@Net@2@@std@@@std@@$0A@@std@@@2@PAU342@@Z 100689e0 f i DviDevice.obj
 0001:00067a30       ??0?$_Tmap_traits@VBrn@OpenHome@@PAVAttribute@AttributeMap@Net@2@VBufferCmp@2@V?$allocator@U?$pair@$$CBVBrn@OpenHome@@PAVAttribute@AttributeMap@Net@2@@std@@@std@@$0A@@std@@QAE@VBufferCmp@OpenHome@@@Z 10068a30 f i DviDevice.obj
 0001:00067a70       ?_Erase@?$_Tree@V?$_Tmap_traits@VBrn@OpenHome@@PAVDviDevice@Net@2@VBufferCmp@2@V?$allocator@U?$pair@$$CBVBrn@OpenHome@@PAVDviDevice@Net@2@@std@@@std@@$0A@@std@@@std@@IAEXPAU_Node@?$_Tree_nod@V?$_Tmap_traits@VBrn@OpenHome@@PAVDviDevice@Net@2@VBufferCmp@2@V?$allocator@U?$pair@$$CBVBrn@OpenHome@@PAVDviDevice@Net@2@@std@@@std@@$0A@@std@@@2@@Z 10068a70 f i DviDevice.obj
 0001:00067b30       ??0?$_Tmap_traits@VBrn@OpenHome@@PAVDviDevice@Net@2@VBufferCmp@2@V?$allocator@U?$pair@$$CBVBrn@OpenHome@@PAVDviDevice@Net@2@@std@@@std@@$0A@@std@@QAE@VBufferCmp@OpenHome@@@Z 10068b30 f i DviDevice.obj
 0001:00067b70       ??$MakeFunctor@VDviDevice@Net@OpenHome@@XV123@@OpenHome@@YG?AV?$MemberTranslator@VDviDevice@Net@OpenHome@@P8123@AEXXZ@0@AAVDviDevice@Net@0@ABQ8230@AEXXZ@Z 10068b70 f i DviDevice.obj
 0001:00067ba0       ??$?0VBrn@OpenHome@@AAPAVAttribute@AttributeMap@Net@1@@?$pair@VBrn@OpenHome@@PAVAttribute@AttributeMap@Net@2@@std@@QAE@$$QAVBrn@OpenHome@@AAPAVAttribute@AttributeMap@Net@3@@Z 10068ba0 f i DviDevice.obj
 0001:00067bf0       ??$insert@U?$pair@VBrn@OpenHome@@PAVAttribute@AttributeMap@Net@2@@std@@@?$_Tree@V?$_Tmap_traits@VBrn@OpenHome@@PAVAttribute@AttributeMap@Net@2@VBufferCmp@2@V?$allocator@U?$pair@$$CBVBrn@OpenHome@@PAVAttribute@AttributeMap@Net@2@@std@@@std@@$0A@@std@@@std@@QAE?AU?$pair@V?$_Tree_iterator@V?$_Tree_val@V?$_Tmap_traits@VBrn@OpenHome@@PAVAttribute@AttributeMap@Net@2@VBufferCmp@2@V?$allocator@U?$pair@$$CBVBrn@OpenHome@@PAVAttribute@AttributeMap@Net@2@@std@@@std@@$0A@@std@@@std@@@std@@_N@1@$$QAU?$pair@VBrn@OpenHome@@PAVAttribute@AttributeMap@Net@2@@1@@Z 10068bf0 f i DviDevice.obj
 0001:00067c70       ??$?0AAVBrn@OpenHome@@PAVDviDevice@Net@1@@?$pair@VBrn@OpenHome@@PAVDviDevice@Net@2@@std@@QAE@AAVBrn@OpenHome@@$$QAPAVDviDevice@Net@3@@Z 10068c70 f i DviDevice.obj
 0001:00067cc0       ??$insert@U?$pair@VBrn@OpenHome@@PAVDviDevice@Net@2@@std@@@?$_Tree@V?$_Tmap_traits@VBrn@OpenHome@@PAVDviDevice@Net@2@VBufferCmp@2@V?$allocator@U?$pair@$$CBVBrn@OpenHome@@PAVDviDevice@Net@2@@std@@@std@@$0A@@std@@@std@@QAE?AU?$pair@V?$_Tree_iterator@V?$_Tree_val@V?$_Tmap_traits@VBrn@OpenHome@@PAVDviDevice@Net@2@VBufferCmp@2@V?$allocator@U?$pair@$$CBVBrn@OpenHome@@PAVDviDevice@Net@2@@std@@@std@@$0A@@std@@@std@@@std@@_N@1@$$QAU?$pair@VBrn@OpenHome@@PAVDviDevice@Net@2@@1@@Z 10068cc0 f i DviDevice.obj
 0001:00067d40       ??$addressof@QAVDviService@Net@OpenHome@@@std@@YGPBQAVDviService@Net@OpenHome@@ABQAV123@@Z 10068d40 f i DviDevice.obj
 0001:00067d50       ??$_Cons_val@V?$allocator@PAVDviService@Net@OpenHome@@@std@@PAVDviService@Net@OpenHome@@AAPAV345@@std@@YGXAAV?$allocator@PAVDviService@Net@OpenHome@@@0@PAPAVDviService@Net@OpenHome@@AAPAV234@@Z 10068d50 f i DviDevice.obj
 0001:00067d80       ??$_Cons_val@V?$allocator@PAVDviService@Net@OpenHome@@@std@@PAVDviService@Net@OpenHome@@ABQAV345@@std@@YGXAAV?$allocator@PAVDviService@Net@OpenHome@@@0@PAPAVDviService@Net@OpenHome@@ABQAV234@@Z 10068d80 f i DviDevice.obj
 0001:00067db0       ??$addressof@QAVDviDevice@Net@OpenHome@@@std@@YGPBQAVDviDevice@Net@OpenHome@@ABQAV123@@Z 10068db0 f i DviDevice.obj
 0001:00067dc0       ??$_Cons_val@V?$allocator@PAVDviDevice@Net@OpenHome@@@std@@PAVDviDevice@Net@OpenHome@@AAPAV345@@std@@YGXAAV?$allocator@PAVDviDevice@Net@OpenHome@@@0@PAPAVDviDevice@Net@OpenHome@@AAPAV234@@Z 10068dc0 f i DviDevice.obj
 0001:00067df0       ??$_Cons_val@V?$allocator@PAVDviDevice@Net@OpenHome@@@std@@PAVDviDevice@Net@OpenHome@@ABQAV345@@std@@YGXAAV?$allocator@PAVDviDevice@Net@OpenHome@@@0@PAPAVDviDevice@Net@OpenHome@@ABQAV234@@Z 10068df0 f i DviDevice.obj
 0001:00067e20       ??$addressof@QAVIDvProtocol@Net@OpenHome@@@std@@YGPBQAVIDvProtocol@Net@OpenHome@@ABQAV123@@Z 10068e20 f i DviDevice.obj
 0001:00067e30       ??$_Cons_val@V?$allocator@PAVIDvProtocol@Net@OpenHome@@@std@@PAVIDvProtocol@Net@OpenHome@@AAPAV345@@std@@YGXAAV?$allocator@PAVIDvProtocol@Net@OpenHome@@@0@PAPAVIDvProtocol@Net@OpenHome@@AAPAV234@@Z 10068e30 f i DviDevice.obj
 0001:00067e60       ??$_Cons_val@V?$allocator@PAVIDvProtocol@Net@OpenHome@@@std@@PAVIDvProtocol@Net@OpenHome@@ABQAV345@@std@@YGXAAV?$allocator@PAVIDvProtocol@Net@OpenHome@@@0@PAPAVIDvProtocol@Net@OpenHome@@ABQAV234@@Z 10068e60 f i DviDevice.obj
 0001:00067e90       ??$addressof@U?$pair@$$CBVBrn@OpenHome@@PAVDviDevice@Net@2@@std@@@std@@YGPAU?$pair@$$CBVBrn@OpenHome@@PAVDviDevice@Net@2@@0@AAU10@@Z 10068e90 f i DviDevice.obj
 0001:00067ea0       ??$_Dest_val@V?$allocator@U?$pair@$$CBVBrn@OpenHome@@PAVDviDevice@Net@2@@std@@@std@@U?$pair@$$CBVBrn@OpenHome@@PAVDviDevice@Net@2@@2@@std@@YGXAAV?$allocator@U?$pair@$$CBVBrn@OpenHome@@PAVDviDevice@Net@2@@std@@@0@PAU?$pair@$$CBVBrn@OpenHome@@PAVDviDevice@Net@2@@0@@Z 10068ea0 f i DviDevice.obj
 0001:00067ec0       ??$?0PAVDviService@Net@OpenHome@@@?$allocator@U_Container_proxy@std@@@std@@QAE@ABV?$allocator@PAVDviService@Net@OpenHome@@@1@@Z 10068ec0 f i DviDevice.obj
 0001:00067ee0       ??$_Move@PAPAVDviDevice@Net@OpenHome@@PAPAV123@@std@@YGPAPAVDviDevice@Net@OpenHome@@PAPAV123@00@Z 10068ee0 f i DviDevice.obj
 0001:00067f40       ??$?0PAVDviDevice@Net@OpenHome@@@?$allocator@U_Container_proxy@std@@@std@@QAE@ABV?$allocator@PAVDviDevice@Net@OpenHome@@@1@@Z 10068f40 f i DviDevice.obj
 0001:00067f60       ??$?0PAVIDvProtocol@Net@OpenHome@@@?$allocator@U_Container_proxy@std@@@std@@QAE@ABV?$allocator@PAVIDvProtocol@Net@OpenHome@@@1@@Z 10068f60 f i DviDevice.obj
 0001:00067f80       ??$_Kfn@$$CBVBrn@OpenHome@@PAVAttribute@AttributeMap@Net@2@@?$_Tmap_traits@VBrn@OpenHome@@PAVAttribute@AttributeMap@Net@2@VBufferCmp@2@V?$allocator@U?$pair@$$CBVBrn@OpenHome@@PAVAttribute@AttributeMap@Net@2@@std@@@std@@$0A@@std@@SGABVBrn@OpenHome@@ABU?$pair@$$CBVBrn@OpenHome@@PAVAttribute@AttributeMap@Net@2@@1@@Z 10068f80 f i DviDevice.obj
 0001:00067f90       ??$_Kfn@$$CBVBrn@OpenHome@@PAVDviDevice@Net@2@@?$_Tmap_traits@VBrn@OpenHome@@PAVDviDevice@Net@2@VBufferCmp@2@V?$allocator@U?$pair@$$CBVBrn@OpenHome@@PAVDviDevice@Net@2@@std@@@std@@$0A@@std@@SGABVBrn@OpenHome@@ABU?$pair@$$CBVBrn@OpenHome@@PAVDviDevice@Net@2@@1@@Z 10068f90 f i DviDevice.obj
 0001:00067fa0       ??$_Umove@PAPAVDviService@Net@OpenHome@@@?$vector@PAVDviService@Net@OpenHome@@V?$allocator@PAVDviService@Net@OpenHome@@@std@@@std@@IAEPAPAVDviService@Net@OpenHome@@PAPAV234@00@Z 10068fa0 f i DviDevice.obj
 0001:00067ff0       ??$_Destroy_range@V?$allocator@PAVDviService@Net@OpenHome@@@std@@@std@@YGXPAPAVDviService@Net@OpenHome@@0AAV?$allocator@PAVDviService@Net@OpenHome@@@0@@Z 10068ff0 f i DviDevice.obj
 0001:00068050       ??$_Umove@PAPAVDviDevice@Net@OpenHome@@@?$vector@PAVDviDevice@Net@OpenHome@@V?$allocator@PAVDviDevice@Net@OpenHome@@@std@@@std@@IAEPAPAVDviDevice@Net@OpenHome@@PAPAV234@00@Z 10069050 f i DviDevice.obj
 0001:000680a0       ??$_Destroy_range@V?$allocator@PAVDviDevice@Net@OpenHome@@@std@@@std@@YGXPAPAVDviDevice@Net@OpenHome@@0AAV?$allocator@PAVDviDevice@Net@OpenHome@@@0@@Z 100690a0 f i DviDevice.obj
 0001:00068100       ??$_Umove@PAPAVIDvProtocol@Net@OpenHome@@@?$vector@PAVIDvProtocol@Net@OpenHome@@V?$allocator@PAVIDvProtocol@Net@OpenHome@@@std@@@std@@IAEPAPAVIDvProtocol@Net@OpenHome@@PAPAV234@00@Z 10069100 f i DviDevice.obj
 0001:00068150       ??$_Destroy_range@V?$allocator@PAVIDvProtocol@Net@OpenHome@@@std@@@std@@YGXPAPAVIDvProtocol@Net@OpenHome@@0AAV?$allocator@PAVIDvProtocol@Net@OpenHome@@@0@@Z 10069150 f i DviDevice.obj
 0001:000681b0       ??$?0U_Node@?$_Tree_nod@V?$_Tmap_traits@VBrn@OpenHome@@PAVAttribute@AttributeMap@Net@2@VBufferCmp@2@V?$allocator@U?$pair@$$CBVBrn@OpenHome@@PAVAttribute@AttributeMap@Net@2@@std@@@std@@$0A@@std@@@std@@@?$allocator@U_Container_proxy@std@@@std@@QAE@ABV?$allocator@U_Node@?$_Tree_nod@V?$_Tmap_traits@VBrn@OpenHome@@PAVAttribute@AttributeMap@Net@2@VBufferCmp@2@V?$allocator@U?$pair@$$CBVBrn@OpenHome@@PAVAttribute@AttributeMap@Net@2@@std@@@std@@$0A@@std@@@std@@@1@@Z 100691b0 f i DviDevice.obj
 0001:000681d0       ??$?0U_Node@?$_Tree_nod@V?$_Tmap_traits@VBrn@OpenHome@@PAVDviDevice@Net@2@VBufferCmp@2@V?$allocator@U?$pair@$$CBVBrn@OpenHome@@PAVDviDevice@Net@2@@std@@@std@@$0A@@std@@@std@@@?$allocator@U_Container_proxy@std@@@std@@QAE@ABV?$allocator@U_Node@?$_Tree_nod@V?$_Tmap_traits@VBrn@OpenHome@@PAVDviDevice@Net@2@VBufferCmp@2@V?$allocator@U?$pair@$$CBVBrn@OpenHome@@PAVDviDevice@Net@2@@std@@@std@@$0A@@std@@@std@@@1@@Z 100691d0 f i DviDevice.obj
 0001:000681f0       ??$_Allocate@PAVDviService@Net@OpenHome@@@std@@YGPAPAVDviService@Net@OpenHome@@IPAPAV123@@Z 100691f0 f i DviDevice.obj
 0001:00068290       ??$_Allocate@PAVDviDevice@Net@OpenHome@@@std@@YGPAPAVDviDevice@Net@OpenHome@@IPAPAV123@@Z 10069290 f i DviDevice.obj
 0001:00068330       ??$_Allocate@PAVIDvProtocol@Net@OpenHome@@@std@@YGPAPAVIDvProtocol@Net@OpenHome@@IPAPAV123@@Z 10069330 f i DviDevice.obj
 0001:000683d0       ??$addressof@U?$pair@$$CBVBrn@OpenHome@@PAVAttribute@AttributeMap@Net@2@@std@@@std@@YGPAU?$pair@$$CBVBrn@OpenHome@@PAVAttribute@AttributeMap@Net@2@@0@AAU10@@Z 100693d0 f i DviDevice.obj
 0001:000683e0       ??$_Dest_val@V?$allocator@U?$pair@$$CBVBrn@OpenHome@@PAVAttribute@AttributeMap@Net@2@@std@@@std@@U?$pair@$$CBVBrn@OpenHome@@PAVAttribute@AttributeMap@Net@2@@2@@std@@YGXAAV?$allocator@U?$pair@$$CBVBrn@OpenHome@@PAVAttribute@AttributeMap@Net@2@@std@@@0@PAU?$pair@$$CBVBrn@OpenHome@@PAVAttribute@AttributeMap@Net@2@@0@@Z 100693e0 f i DviDevice.obj
 0001:00068400       ??$?0U?$pair@$$CBVBrn@OpenHome@@PAVAttribute@AttributeMap@Net@2@@std@@@?$allocator@U_Node@?$_Tree_nod@V?$_Tmap_traits@VBrn@OpenHome@@PAVAttribute@AttributeMap@Net@2@VBufferCmp@2@V?$allocator@U?$pair@$$CBVBrn@OpenHome@@PAVAttribute@AttributeMap@Net@2@@std@@@std@@$0A@@std@@@std@@@std@@QAE@ABV?$allocator@U?$pair@$$CBVBrn@OpenHome@@PAVAttribute@AttributeMap@Net@2@@std@@@1@@Z 10069400 f i DviDevice.obj
 0001:00068420       ??$_Allocate@U_Node@?$_Tree_nod@V?$_Tmap_traits@VBrn@OpenHome@@PAVAttribute@AttributeMap@Net@2@VBufferCmp@2@V?$allocator@U?$pair@$$CBVBrn@OpenHome@@PAVAttribute@AttributeMap@Net@2@@std@@@std@@$0A@@std@@@std@@@std@@YGPAU_Node@?$_Tree_nod@V?$_Tmap_traits@VBrn@OpenHome@@PAVAttribute@AttributeMap@Net@2@VBufferCmp@2@V?$allocator@U?$pair@$$CBVBrn@OpenHome@@PAVAttribute@AttributeMap@Net@2@@std@@@std@@$0A@@std@@@0@IPAU120@@Z 10069420 f i DviDevice.obj
 0001:000684c0       ??$?0U?$pair@$$CBVBrn@OpenHome@@PAVDviDevice@Net@2@@std@@@?$allocator@U_Node@?$_Tree_nod@V?$_Tmap_traits@VBrn@OpenHome@@PAVDviDevice@Net@2@VBufferCmp@2@V?$allocator@U?$pair@$$CBVBrn@OpenHome@@PAVDviDevice@Net@2@@std@@@std@@$0A@@std@@@std@@@std@@QAE@ABV?$allocator@U?$pair@$$CBVBrn@OpenHome@@PAVDviDevice@Net@2@@std@@@1@@Z 100694c0 f i DviDevice.obj
 0001:000684e0       ??$_Allocate@U_Node@?$_Tree_nod@V?$_Tmap_traits@VBrn@OpenHome@@PAVDviDevice@Net@2@VBufferCmp@2@V?$allocator@U?$pair@$$CBVBrn@OpenHome@@PAVDviDevice@Net@2@@std@@@std@@$0A@@std@@@std@@@std@@YGPAU_Node@?$_Tree_nod@V?$_Tmap_traits@VBrn@OpenHome@@PAVDviDevice@Net@2@VBufferCmp@2@V?$allocator@U?$pair@$$CBVBrn@OpenHome@@PAVDviDevice@Net@2@@std@@@std@@$0A@@std@@@0@IPAU120@@Z 100694e0 f i DviDevice.obj
 0001:00068580       ?construct@?$allocator@PAVDviService@Net@OpenHome@@@std@@QAEXPAPAVDviService@Net@OpenHome@@ABQAV345@@Z 10069580 f i DviDevice.obj
 0001:000685c0       ?construct@?$allocator@PAVDviDevice@Net@OpenHome@@@std@@QAEXPAPAVDviDevice@Net@OpenHome@@ABQAV345@@Z 100695c0 f i DviDevice.obj
 0001:00068600       ?construct@?$allocator@PAVIDvProtocol@Net@OpenHome@@@std@@QAEXPAPAVIDvProtocol@Net@OpenHome@@ABQAV345@@Z 10069600 f i DviDevice.obj
 0001:00068640       ?_Linsert@?$_Tree@V?$_Tmap_traits@VBrn@OpenHome@@PAVAttribute@AttributeMap@Net@2@VBufferCmp@2@V?$allocator@U?$pair@$$CBVBrn@OpenHome@@PAVAttribute@AttributeMap@Net@2@@std@@@std@@$0A@@std@@@std@@QAE?AU?$pair@V?$_Tree_iterator@V?$_Tree_val@V?$_Tmap_traits@VBrn@OpenHome@@PAVAttribute@AttributeMap@Net@2@VBufferCmp@2@V?$allocator@U?$pair@$$CBVBrn@OpenHome@@PAVAttribute@AttributeMap@Net@2@@std@@@std@@$0A@@std@@@std@@@std@@_N@2@PAU_Node@?$_Tree_nod@V?$_Tmap_traits@VBrn@OpenHome@@PAVAttribute@AttributeMap@Net@2@VBufferCmp@2@V?$allocator@U?$pair@$$CBVBrn@OpenHome@@PAVAttribute@AttributeMap@Net@2@@std@@@std@@$0A@@std@@@2@_N@Z 10069640 f i DviDevice.obj
 0001:00068b10       ?destroy@?$allocator@U?$pair@$$CBVBrn@OpenHome@@PAVAttribute@AttributeMap@Net@2@@std@@@std@@QAEXPAU?$pair@$$CBVBrn@OpenHome@@PAVAttribute@AttributeMap@Net@2@@2@@Z 10069b10 f i DviDevice.obj
 0001:00068b40       ?_Linsert@?$_Tree@V?$_Tmap_traits@VBrn@OpenHome@@PAVDviDevice@Net@2@VBufferCmp@2@V?$allocator@U?$pair@$$CBVBrn@OpenHome@@PAVDviDevice@Net@2@@std@@@std@@$0A@@std@@@std@@QAE?AU?$pair@V?$_Tree_iterator@V?$_Tree_val@V?$_Tmap_traits@VBrn@OpenHome@@PAVDviDevice@Net@2@VBufferCmp@2@V?$allocator@U?$pair@$$CBVBrn@OpenHome@@PAVDviDevice@Net@2@@std@@@std@@$0A@@std@@@std@@@std@@_N@2@PAU_Node@?$_Tree_nod@V?$_Tmap_traits@VBrn@OpenHome@@PAVDviDevice@Net@2@VBufferCmp@2@V?$allocator@U?$pair@$$CBVBrn@OpenHome@@PAVDviDevice@Net@2@@std@@@std@@$0A@@std@@@2@_N@Z 10069b40 f i DviDevice.obj
 0001:00069010       ?destroy@?$allocator@U?$pair@$$CBVBrn@OpenHome@@PAVDviDevice@Net@2@@std@@@std@@QAEXPAU?$pair@$$CBVBrn@OpenHome@@PAVDviDevice@Net@2@@2@@Z 1006a010 f i DviDevice.obj
 0001:00069040       ??0?$MemberTranslator@VDviDevice@Net@OpenHome@@P8123@AEXXZ@OpenHome@@QAE@AAVDviDevice@Net@1@ABQ8231@AEXXZ@Z 1006a040 f i DviDevice.obj
 0001:00069090       ?_Insert@?$_Tree@V?$_Tmap_traits@VBrn@OpenHome@@PAVAttribute@AttributeMap@Net@2@VBufferCmp@2@V?$allocator@U?$pair@$$CBVBrn@OpenHome@@PAVAttribute@AttributeMap@Net@2@@std@@@std@@$0A@@std@@@std@@IAE?AV?$_Tree_iterator@V?$_Tree_val@V?$_Tmap_traits@VBrn@OpenHome@@PAVAttribute@AttributeMap@Net@2@VBufferCmp@2@V?$allocator@U?$pair@$$CBVBrn@OpenHome@@PAVAttribute@AttributeMap@Net@2@@std@@@std@@$0A@@std@@@std@@@2@_NPAU_Node@?$_Tree_nod@V?$_Tmap_traits@VBrn@OpenHome@@PAVAttribute@AttributeMap@Net@2@VBufferCmp@2@V?$allocator@U?$pair@$$CBVBrn@OpenHome@@PAVAttribute@AttributeMap@Net@2@@std@@@std@@$0A@@std@@@2@1@Z 1006a090 f i DviDevice.obj
 0001:00069540       ?_Insert@?$_Tree@V?$_Tmap_traits@VBrn@OpenHome@@PAVDviDevice@Net@2@VBufferCmp@2@V?$allocator@U?$pair@$$CBVBrn@OpenHome@@PAVDviDevice@Net@2@@std@@@std@@$0A@@std@@@std@@IAE?AV?$_Tree_iterator@V?$_Tree_val@V?$_Tmap_traits@VBrn@OpenHome@@PAVDviDevice@Net@2@VBufferCmp@2@V?$allocator@U?$pair@$$CBVBrn@OpenHome@@PAVDviDevice@Net@2@@std@@@std@@$0A@@std@@@std@@@2@_NPAU_Node@?$_Tree_nod@V?$_Tmap_traits@VBrn@OpenHome@@PAVDviDevice@Net@2@VBufferCmp@2@V?$allocator@U?$pair@$$CBVBrn@OpenHome@@PAVDviDevice@Net@2@@std@@@std@@$0A@@std@@@2@1@Z 1006a540 f i DviDevice.obj
 0001:000699f0       ?Thunk@?$MemberTranslator@VDviDevice@Net@OpenHome@@P8123@AEXXZ@OpenHome@@SGXABVFunctor@2@@Z 1006a9f0 f i DviDevice.obj
 0001:00069a50       ??F?$_Tree_iterator@V?$_Tree_val@V?$_Tmap_traits@VBrn@OpenHome@@PAVAttribute@AttributeMap@Net@2@VBufferCmp@2@V?$allocator@U?$pair@$$CBVBrn@OpenHome@@PAVAttribute@AttributeMap@Net@2@@std@@@std@@$0A@@std@@@std@@@std@@QAEAAV01@XZ 1006aa50 f i DviDevice.obj
 0001:00069a80       ??0?$pair@V?$_Tree_iterator@V?$_Tree_val@V?$_Tmap_traits@VBrn@OpenHome@@PAVAttribute@AttributeMap@Net@2@VBufferCmp@2@V?$allocator@U?$pair@$$CBVBrn@OpenHome@@PAVAttribute@AttributeMap@Net@2@@std@@@std@@$0A@@std@@@std@@@std@@_N@std@@QAE@$$QAV?$_Tree_iterator@V?$_Tree_val@V?$_Tmap_traits@VBrn@OpenHome@@PAVAttribute@AttributeMap@Net@2@VBufferCmp@2@V?$allocator@U?$pair@$$CBVBrn@OpenHome@@PAVAttribute@AttributeMap@Net@2@@std@@@std@@$0A@@std@@@std@@@1@$$QA_N@Z 1006aa80 f i DviDevice.obj
 0001:00069ad0       ??0?$pair@V?$_Tree_iterator@V?$_Tree_val@V?$_Tmap_traits@VBrn@OpenHome@@PAVDviDevice@Net@2@VBufferCmp@2@V?$allocator@U?$pair@$$CBVBrn@OpenHome@@PAVDviDevice@Net@2@@std@@@std@@$0A@@std@@@std@@@std@@_N@std@@QAE@$$QAV?$_Tree_iterator@V?$_Tree_val@V?$_Tmap_traits@VBrn@OpenHome@@PAVDviDevice@Net@2@VBufferCmp@2@V?$allocator@U?$pair@$$CBVBrn@OpenHome@@PAVDviDevice@Net@2@@std@@@std@@$0A@@std@@@std@@@1@$$QA_N@Z 1006aad0 f i DviDevice.obj
 0001:00069b20       ??F?$_Tree_iterator@V?$_Tree_val@V?$_Tmap_traits@VBrn@OpenHome@@PAVDviDevice@Net@2@VBufferCmp@2@V?$allocator@U?$pair@$$CBVBrn@OpenHome@@PAVDviDevice@Net@2@@std@@@std@@$0A@@std@@@std@@@std@@QAEAAV01@XZ 1006ab20 f i DviDevice.obj
 0001:00069b50       ?max_size@?$_Tree@V?$_Tmap_traits@VBrn@OpenHome@@PAVAttribute@AttributeMap@Net@2@VBufferCmp@2@V?$allocator@U?$pair@$$CBVBrn@OpenHome@@PAVAttribute@AttributeMap@Net@2@@std@@@std@@$0A@@std@@@std@@QBEIXZ 1006ab50 f i DviDevice.obj
 0001:00069b80       ?max_size@?$_Tree@V?$_Tmap_traits@VBrn@OpenHome@@PAVDviDevice@Net@2@VBufferCmp@2@V?$allocator@U?$pair@$$CBVBrn@OpenHome@@PAVDviDevice@Net@2@@std@@@std@@$0A@@std@@@std@@QBEIXZ 1006ab80 f i DviDevice.obj
 0001:00069bb0       ??F?$_Tree_const_iterator@V?$_Tree_val@V?$_Tmap_traits@VBrn@OpenHome@@PAVAttribute@AttributeMap@Net@2@VBufferCmp@2@V?$allocator@U?$pair@$$CBVBrn@OpenHome@@PAVAttribute@AttributeMap@Net@2@@std@@@std@@$0A@@std@@@std@@@std@@QAEAAV01@XZ 1006abb0 f i DviDevice.obj
 0001:00069d20       ??0?$_Pair_base@V?$_Tree_iterator@V?$_Tree_val@V?$_Tmap_traits@VBrn@OpenHome@@PAVAttribute@AttributeMap@Net@2@VBufferCmp@2@V?$allocator@U?$pair@$$CBVBrn@OpenHome@@PAVAttribute@AttributeMap@Net@2@@std@@@std@@$0A@@std@@@std@@@std@@_N@std@@QAE@$$QAV?$_Tree_iterator@V?$_Tree_val@V?$_Tmap_traits@VBrn@OpenHome@@PAVAttribute@AttributeMap@Net@2@VBufferCmp@2@V?$allocator@U?$pair@$$CBVBrn@OpenHome@@PAVAttribute@AttributeMap@Net@2@@std@@@std@@$0A@@std@@@std@@@1@$$QA_N@Z 1006ad20 f i DviDevice.obj
 0001:00069dc0       ??0?$_Pair_base@V?$_Tree_iterator@V?$_Tree_val@V?$_Tmap_traits@VBrn@OpenHome@@PAVDviDevice@Net@2@VBufferCmp@2@V?$allocator@U?$pair@$$CBVBrn@OpenHome@@PAVDviDevice@Net@2@@std@@@std@@$0A@@std@@@std@@@std@@_N@std@@QAE@$$QAV?$_Tree_iterator@V?$_Tree_val@V?$_Tmap_traits@VBrn@OpenHome@@PAVDviDevice@Net@2@VBufferCmp@2@V?$allocator@U?$pair@$$CBVBrn@OpenHome@@PAVDviDevice@Net@2@@std@@@std@@$0A@@std@@@std@@@1@$$QA_N@Z 1006adc0 f i DviDevice.obj
 0001:00069e60       ??F?$_Tree_const_iterator@V?$_Tree_val@V?$_Tmap_traits@VBrn@OpenHome@@PAVDviDevice@Net@2@VBufferCmp@2@V?$allocator@U?$pair@$$CBVBrn@OpenHome@@PAVDviDevice@Net@2@@std@@@std@@$0A@@std@@@std@@@std@@QAEAAV01@XZ 1006ae60 f i DviDevice.obj
 0001:00069fd0       ?max_size@?$allocator@U?$pair@$$CBVBrn@OpenHome@@PAVAttribute@AttributeMap@Net@2@@std@@@std@@QBEIXZ 1006afd0 f i DviDevice.obj
 0001:0006a030       ?max_size@?$allocator@U?$pair@$$CBVBrn@OpenHome@@PAVDviDevice@Net@2@@std@@@std@@QBEIXZ 1006b030 f i DviDevice.obj
 0001:0006a090       ??F?$_Tree_unchecked_const_iterator@V?$_Tree_val@V?$_Tmap_traits@VBrn@OpenHome@@PAVAttribute@AttributeMap@Net@2@VBufferCmp@2@V?$allocator@U?$pair@$$CBVBrn@OpenHome@@PAVAttribute@AttributeMap@Net@2@@std@@@std@@$0A@@std@@@std@@U_Iterator_base12@2@@std@@QAEAAV01@XZ 1006b090 f i DviDevice.obj
 0001:0006a1c0       ??F?$_Tree_unchecked_const_iterator@V?$_Tree_val@V?$_Tmap_traits@VBrn@OpenHome@@PAVDviDevice@Net@2@VBufferCmp@2@V?$allocator@U?$pair@$$CBVBrn@OpenHome@@PAVDviDevice@Net@2@@std@@@std@@$0A@@std@@@std@@U_Iterator_base12@2@@std@@QAEAAV01@XZ 1006b1c0 f i DviDevice.obj
 0001:0006a2f0       ??$forward@AAPAVAttribute@AttributeMap@Net@OpenHome@@@std@@YGAAPAVAttribute@AttributeMap@Net@OpenHome@@AAPAV1234@@Z 1006b2f0 f i DviDevice.obj
 0001:0006a300       ??$?0VBrn@OpenHome@@AAPAVAttribute@AttributeMap@Net@1@@?$_Pair_base@VBrn@OpenHome@@PAVAttribute@AttributeMap@Net@2@@std@@QAE@$$QAVBrn@OpenHome@@AAPAVAttribute@AttributeMap@Net@3@@Z 1006b300 f i DviDevice.obj
 0001:0006a3a0       ??$forward@U?$pair@VBrn@OpenHome@@PAVAttribute@AttributeMap@Net@2@@std@@@std@@YG$$QAU?$pair@VBrn@OpenHome@@PAVAttribute@AttributeMap@Net@2@@0@AAU10@@Z 1006b3a0 f i DviDevice.obj
 0001:0006a3b0       ??$_Buynode@U?$pair@VBrn@OpenHome@@PAVAttribute@AttributeMap@Net@2@@std@@@?$_Tree_val@V?$_Tmap_traits@VBrn@OpenHome@@PAVAttribute@AttributeMap@Net@2@VBufferCmp@2@V?$allocator@U?$pair@$$CBVBrn@OpenHome@@PAVAttribute@AttributeMap@Net@2@@std@@@std@@$0A@@std@@@std@@QAEPAU_Node@?$_Tree_nod@V?$_Tmap_traits@VBrn@OpenHome@@PAVAttribute@AttributeMap@Net@2@VBufferCmp@2@V?$allocator@U?$pair@$$CBVBrn@OpenHome@@PAVAttribute@AttributeMap@Net@2@@std@@@std@@$0A@@std@@@1@$$QAU?$pair@VBrn@OpenHome@@PAVAttribute@AttributeMap@Net@2@@1@@Z 1006b3b0 f i DviDevice.obj
 0001:0006a4d0       ??$forward@PAVDviDevice@Net@OpenHome@@@std@@YG$$QAPAVDviDevice@Net@OpenHome@@AAPAV123@@Z 1006b4d0 f i DviDevice.obj
 0001:0006a4e0       ??$?0AAVBrn@OpenHome@@PAVDviDevice@Net@1@@?$_Pair_base@VBrn@OpenHome@@PAVDviDevice@Net@2@@std@@QAE@AAVBrn@OpenHome@@$$QAPAVDviDevice@Net@3@@Z 1006b4e0 f i DviDevice.obj
 0001:0006a580       ??$forward@U?$pair@VBrn@OpenHome@@PAVDviDevice@Net@2@@std@@@std@@YG$$QAU?$pair@VBrn@OpenHome@@PAVDviDevice@Net@2@@0@AAU10@@Z 1006b580 f i DviDevice.obj
 0001:0006a590       ??$_Buynode@U?$pair@VBrn@OpenHome@@PAVDviDevice@Net@2@@std@@@?$_Tree_val@V?$_Tmap_traits@VBrn@OpenHome@@PAVDviDevice@Net@2@VBufferCmp@2@V?$allocator@U?$pair@$$CBVBrn@OpenHome@@PAVDviDevice@Net@2@@std@@@std@@$0A@@std@@@std@@QAEPAU_Node@?$_Tree_nod@V?$_Tmap_traits@VBrn@OpenHome@@PAVDviDevice@Net@2@VBufferCmp@2@V?$allocator@U?$pair@$$CBVBrn@OpenHome@@PAVDviDevice@Net@2@@std@@@std@@$0A@@std@@@1@$$QAU?$pair@VBrn@OpenHome@@PAVDviDevice@Net@2@@1@@Z 1006b590 f i DviDevice.obj
 0001:0006a6b0       ??$forward@AAPAVDviService@Net@OpenHome@@@std@@YGAAPAVDviService@Net@OpenHome@@AAPAV123@@Z 1006b6b0 f i DviDevice.obj
 0001:0006a6c0       ??$construct@AAPAVDviService@Net@OpenHome@@@?$allocator@PAVDviService@Net@OpenHome@@@std@@QAEXPAPAVDviService@Net@OpenHome@@AAPAV234@@Z 1006b6c0 f i DviDevice.obj
 0001:0006a790       ??$forward@ABQAVDviService@Net@OpenHome@@@std@@YGABQAVDviService@Net@OpenHome@@ABQAV123@@Z 1006b790 f i DviDevice.obj
 0001:0006a7a0       ??$forward@AAPAVDviDevice@Net@OpenHome@@@std@@YGAAPAVDviDevice@Net@OpenHome@@AAPAV123@@Z 1006b7a0 f i DviDevice.obj
 0001:0006a7b0       ??$construct@AAPAVDviDevice@Net@OpenHome@@@?$allocator@PAVDviDevice@Net@OpenHome@@@std@@QAEXPAPAVDviDevice@Net@OpenHome@@AAPAV234@@Z 1006b7b0 f i DviDevice.obj
 0001:0006a880       ??$forward@ABQAVDviDevice@Net@OpenHome@@@std@@YGABQAVDviDevice@Net@OpenHome@@ABQAV123@@Z 1006b880 f i DviDevice.obj
 0001:0006a890       ??$forward@AAPAVIDvProtocol@Net@OpenHome@@@std@@YGAAPAVIDvProtocol@Net@OpenHome@@AAPAV123@@Z 1006b890 f i DviDevice.obj
 0001:0006a8a0       ??$construct@AAPAVIDvProtocol@Net@OpenHome@@@?$allocator@PAVIDvProtocol@Net@OpenHome@@@std@@QAEXPAPAVIDvProtocol@Net@OpenHome@@AAPAV234@@Z 1006b8a0 f i DviDevice.obj
 0001:0006a970       ??$forward@ABQAVIDvProtocol@Net@OpenHome@@@std@@YGABQAVIDvProtocol@Net@OpenHome@@ABQAV123@@Z 1006b970 f i DviDevice.obj
 0001:0006a980       ??$_Ptr_cat@PAVDviDevice@Net@OpenHome@@PAV123@@std@@YG?AU_Scalar_ptr_iterator_tag@0@PAPAVDviDevice@Net@OpenHome@@0@Z 1006b980 f i DviDevice.obj
 0001:0006a9f0       ??$_Move@PAPAVDviDevice@Net@OpenHome@@PAPAV123@@std@@YGPAPAVDviDevice@Net@OpenHome@@PAPAV123@00U_Scalar_ptr_iterator_tag@0@@Z 1006b9f0 f i DviDevice.obj
 0001:0006aa50       ??$_Uninitialized_move@PAPAVDviService@Net@OpenHome@@PAPAV123@V?$allocator@PAVDviService@Net@OpenHome@@@std@@@std@@YGPAPAVDviService@Net@OpenHome@@PAPAV123@00AAV?$allocator@PAVDviService@Net@OpenHome@@@0@@Z 1006ba50 f i DviDevice.obj
 0001:0006aac0       ??$_Ptr_cat@PAVDviService@Net@OpenHome@@PAV123@@std@@YG?AU_Scalar_ptr_iterator_tag@0@PAPAVDviService@Net@OpenHome@@0@Z 1006bac0 f i DviDevice.obj
 0001:0006ab30       ??$_Destroy_range@V?$allocator@PAVDviService@Net@OpenHome@@@std@@@std@@YGXPAPAVDviService@Net@OpenHome@@0AAV?$allocator@PAVDviService@Net@OpenHome@@@0@U_Scalar_ptr_iterator_tag@0@@Z 1006bb30 f i DviDevice.obj
 0001:0006ab40       ??$_Uninitialized_move@PAPAVDviDevice@Net@OpenHome@@PAPAV123@V?$allocator@PAVDviDevice@Net@OpenHome@@@std@@@std@@YGPAPAVDviDevice@Net@OpenHome@@PAPAV123@00AAV?$allocator@PAVDviDevice@Net@OpenHome@@@0@@Z 1006bb40 f i DviDevice.obj
 0001:0006abb0       ??$_Destroy_range@V?$allocator@PAVDviDevice@Net@OpenHome@@@std@@@std@@YGXPAPAVDviDevice@Net@OpenHome@@0AAV?$allocator@PAVDviDevice@Net@OpenHome@@@0@U_Scalar_ptr_iterator_tag@0@@Z 1006bbb0 f i DviDevice.obj
 0001:0006abc0       ??$_Uninitialized_move@PAPAVIDvProtocol@Net@OpenHome@@PAPAV123@V?$allocator@PAVIDvProtocol@Net@OpenHome@@@std@@@std@@YGPAPAVIDvProtocol@Net@OpenHome@@PAPAV123@00AAV?$allocator@PAVIDvProtocol@Net@OpenHome@@@0@@Z 1006bbc0 f i DviDevice.obj
 0001:0006ac30       ??$_Ptr_cat@PAVIDvProtocol@Net@OpenHome@@PAV123@@std@@YG?AU_Scalar_ptr_iterator_tag@0@PAPAVIDvProtocol@Net@OpenHome@@0@Z 1006bc30 f i DviDevice.obj
 0001:0006aca0       ??$_Destroy_range@V?$allocator@PAVIDvProtocol@Net@OpenHome@@@std@@@std@@YGXPAPAVIDvProtocol@Net@OpenHome@@0AAV?$allocator@PAVIDvProtocol@Net@OpenHome@@@0@U_Scalar_ptr_iterator_tag@0@@Z 1006bca0 f i DviDevice.obj
 0001:0006acb0       ??$_Construct@PAVDviService@Net@OpenHome@@ABQAV123@@std@@YGXPAPAVDviService@Net@OpenHome@@ABQAV123@@Z 1006bcb0 f i DviDevice.obj
 0001:0006ad80       ??$_Construct@PAVDviDevice@Net@OpenHome@@ABQAV123@@std@@YGXPAPAVDviDevice@Net@OpenHome@@ABQAV123@@Z 1006bd80 f i DviDevice.obj
 0001:0006ae50       ??$_Construct@PAVIDvProtocol@Net@OpenHome@@ABQAV123@@std@@YGXPAPAVIDvProtocol@Net@OpenHome@@ABQAV123@@Z 1006be50 f i DviDevice.obj
 0001:0006af20       ??$?0AAV?$_Tree_iterator@V?$_Tree_val@V?$_Tmap_traits@VBrn@OpenHome@@PAVAttribute@AttributeMap@Net@2@VBufferCmp@2@V?$allocator@U?$pair@$$CBVBrn@OpenHome@@PAVAttribute@AttributeMap@Net@2@@std@@@std@@$0A@@std@@@std@@@std@@_N@?$pair@V?$_Tree_iterator@V?$_Tree_val@V?$_Tmap_traits@VBrn@OpenHome@@PAVAttribute@AttributeMap@Net@2@VBufferCmp@2@V?$allocator@U?$pair@$$CBVBrn@OpenHome@@PAVAttribute@AttributeMap@Net@2@@std@@@std@@$0A@@std@@@std@@@std@@_N@std@@QAE@AAV?$_Tree_iterator@V?$_Tree_val@V?$_Tmap_traits@VBrn@OpenHome@@PAVAttribute@AttributeMap@Net@2@VBufferCmp@2@V?$allocator@U?$pair@$$CBVBrn@OpenHome@@PAVAttribute@AttributeMap@Net@2@@std@@@std@@$0A@@std@@@std@@@1@$$QA_N@Z 1006bf20 f i DviDevice.obj
 0001:0006af70       ??$_Destroy@U?$pair@$$CBVBrn@OpenHome@@PAVAttribute@AttributeMap@Net@2@@std@@@std@@YGXPAU?$pair@$$CBVBrn@OpenHome@@PAVAttribute@AttributeMap@Net@2@@0@@Z 1006bf70 f i DviDevice.obj
 0001:0006af90       ??$?0AAV?$_Tree_iterator@V?$_Tree_val@V?$_Tmap_traits@VBrn@OpenHome@@PAVDviDevice@Net@2@VBufferCmp@2@V?$allocator@U?$pair@$$CBVBrn@OpenHome@@PAVDviDevice@Net@2@@std@@@std@@$0A@@std@@@std@@@std@@_N@?$pair@V?$_Tree_iterator@V?$_Tree_val@V?$_Tmap_traits@VBrn@OpenHome@@PAVDviDevice@Net@2@VBufferCmp@2@V?$allocator@U?$pair@$$CBVBrn@OpenHome@@PAVDviDevice@Net@2@@std@@@std@@$0A@@std@@@std@@@std@@_N@std@@QAE@AAV?$_Tree_iterator@V?$_Tree_val@V?$_Tmap_traits@VBrn@OpenHome@@PAVDviDevice@Net@2@VBufferCmp@2@V?$allocator@U?$pair@$$CBVBrn@OpenHome@@PAVDviDevice@Net@2@@std@@@std@@$0A@@std@@@std@@@1@$$QA_N@Z 1006bf90 f i DviDevice.obj
 0001:0006afe0       ??$_Destroy@U?$pair@$$CBVBrn@OpenHome@@PAVDviDevice@Net@2@@std@@@std@@YGXPAU?$pair@$$CBVBrn@OpenHome@@PAVDviDevice@Net@2@@0@@Z 1006bfe0 f i DviDevice.obj
 0001:0006b000       ??$move@AAV?$_Tree_iterator@V?$_Tree_val@V?$_Tmap_traits@VBrn@OpenHome@@PAVAttribute@AttributeMap@Net@2@VBufferCmp@2@V?$allocator@U?$pair@$$CBVBrn@OpenHome@@PAVAttribute@AttributeMap@Net@2@@std@@@std@@$0A@@std@@@std@@@std@@@std@@YG$$QAV?$_Tree_iterator@V?$_Tree_val@V?$_Tmap_traits@VBrn@OpenHome@@PAVAttribute@AttributeMap@Net@2@VBufferCmp@2@V?$allocator@U?$pair@$$CBVBrn@OpenHome@@PAVAttribute@AttributeMap@Net@2@@std@@@std@@$0A@@std@@@std@@@0@AAV10@@Z 1006c000 f i DviDevice.obj
 0001:0006b010       ??$move@AAV?$_Tree_iterator@V?$_Tree_val@V?$_Tmap_traits@VBrn@OpenHome@@PAVDviDevice@Net@2@VBufferCmp@2@V?$allocator@U?$pair@$$CBVBrn@OpenHome@@PAVDviDevice@Net@2@@std@@@std@@$0A@@std@@@std@@@std@@@std@@YG$$QAV?$_Tree_iterator@V?$_Tree_val@V?$_Tmap_traits@VBrn@OpenHome@@PAVDviDevice@Net@2@VBufferCmp@2@V?$allocator@U?$pair@$$CBVBrn@OpenHome@@PAVDviDevice@Net@2@@std@@@std@@$0A@@std@@@std@@@0@AAV10@@Z 1006c010 f i DviDevice.obj
 0001:0006b020       ??_G?$pair@$$CBVBrn@OpenHome@@PAVAttribute@AttributeMap@Net@2@@std@@QAEPAXI@Z 1006c020 f i DviDevice.obj
 0001:0006b070       ??_G?$pair@$$CBVBrn@OpenHome@@PAVDviDevice@Net@2@@std@@QAEPAXI@Z 1006c070 f i DviDevice.obj
 0001:0006b0c0       ??1?$pair@$$CBVBrn@OpenHome@@PAVAttribute@AttributeMap@Net@2@@std@@QAE@XZ 1006c0c0 f i DviDevice.obj
 0001:0006b0f0       ??1?$pair@$$CBVBrn@OpenHome@@PAVDviDevice@Net@2@@std@@QAE@XZ 1006c0f0 f i DviDevice.obj
 0001:0006b120       ??1?$_Pair_base@$$CBVBrn@OpenHome@@PAVAttribute@AttributeMap@Net@2@@std@@QAE@XZ 1006c120 f i DviDevice.obj
 0001:0006b150       ??1?$_Pair_base@$$CBVBrn@OpenHome@@PAVDviDevice@Net@2@@std@@QAE@XZ 1006c150 f i DviDevice.obj
 0001:0006b180       ?_Buynode@?$_Tree_val@V?$_Tmap_traits@VBrn@OpenHome@@PAVAttribute@AttributeMap@Net@2@VBufferCmp@2@V?$allocator@U?$pair@$$CBVBrn@OpenHome@@PAVAttribute@AttributeMap@Net@2@@std@@@std@@$0A@@std@@@std@@QAEPAU_Node@?$_Tree_nod@V?$_Tmap_traits@VBrn@OpenHome@@PAVAttribute@AttributeMap@Net@2@VBufferCmp@2@V?$allocator@U?$pair@$$CBVBrn@OpenHome@@PAVAttribute@AttributeMap@Net@2@@std@@@std@@$0A@@std@@@2@XZ 1006c180 f i DviDevice.obj
 0001:0006b230       ?_Buynode@?$_Tree_val@V?$_Tmap_traits@VBrn@OpenHome@@PAVDviDevice@Net@2@VBufferCmp@2@V?$allocator@U?$pair@$$CBVBrn@OpenHome@@PAVDviDevice@Net@2@@std@@@std@@$0A@@std@@@std@@QAEPAU_Node@?$_Tree_nod@V?$_Tmap_traits@VBrn@OpenHome@@PAVDviDevice@Net@2@VBufferCmp@2@V?$allocator@U?$pair@$$CBVBrn@OpenHome@@PAVDviDevice@Net@2@@std@@@std@@$0A@@std@@@2@XZ 1006c230 f i DviDevice.obj
 0001:0006b2e0       ??$_Cons_val@V?$allocator@U?$pair@$$CBVBrn@OpenHome@@PAVAttribute@AttributeMap@Net@2@@std@@@std@@U?$pair@$$CBVBrn@OpenHome@@PAVAttribute@AttributeMap@Net@2@@2@U?$pair@VBrn@OpenHome@@PAVAttribute@AttributeMap@Net@2@@2@@std@@YGXAAV?$allocator@U?$pair@$$CBVBrn@OpenHome@@PAVAttribute@AttributeMap@Net@2@@std@@@0@PAU?$pair@$$CBVBrn@OpenHome@@PAVAttribute@AttributeMap@Net@2@@0@$$QAU?$pair@VBrn@OpenHome@@PAVAttribute@AttributeMap@Net@2@@0@@Z 1006c2e0 f i DviDevice.obj
 0001:0006b310       ??$_Cons_val@V?$allocator@U?$pair@$$CBVBrn@OpenHome@@PAVDviDevice@Net@2@@std@@@std@@U?$pair@$$CBVBrn@OpenHome@@PAVDviDevice@Net@2@@2@U?$pair@VBrn@OpenHome@@PAVDviDevice@Net@2@@2@@std@@YGXAAV?$allocator@U?$pair@$$CBVBrn@OpenHome@@PAVDviDevice@Net@2@@std@@@0@PAU?$pair@$$CBVBrn@OpenHome@@PAVDviDevice@Net@2@@0@$$QAU?$pair@VBrn@OpenHome@@PAVDviDevice@Net@2@@0@@Z 1006c310 f i DviDevice.obj
 0001:0006b340       ??$_Val_type@PAPAVDviService@Net@OpenHome@@@std@@YGPAPAVDviService@Net@OpenHome@@PAPAV123@@Z 1006c340 f i DviDevice.obj
 0001:0006b350       ??$_Uninit_move@PAVDviService@Net@OpenHome@@PAV123@PAV123@@std@@YGPAPAVDviService@Net@OpenHome@@PAPAV123@00AAV?$allocator@PAVDviService@Net@OpenHome@@@0@0U_Scalar_ptr_iterator_tag@0@@Z 1006c350 f i DviDevice.obj
 0001:0006b3e0       ??$_Val_type@PAPAVDviDevice@Net@OpenHome@@@std@@YGPAPAVDviDevice@Net@OpenHome@@PAPAV123@@Z 1006c3e0 f i DviDevice.obj
 0001:0006b3f0       ??$_Uninit_move@PAVDviDevice@Net@OpenHome@@PAV123@PAV123@@std@@YGPAPAVDviDevice@Net@OpenHome@@PAPAV123@00AAV?$allocator@PAVDviDevice@Net@OpenHome@@@0@0U_Scalar_ptr_iterator_tag@0@@Z 1006c3f0 f i DviDevice.obj
 0001:0006b480       ??$_Val_type@PAPAVIDvProtocol@Net@OpenHome@@@std@@YGPAPAVIDvProtocol@Net@OpenHome@@PAPAV123@@Z 1006c480 f i DviDevice.obj
 0001:0006b490       ??$_Uninit_move@PAVIDvProtocol@Net@OpenHome@@PAV123@PAV123@@std@@YGPAPAVIDvProtocol@Net@OpenHome@@PAPAV123@00AAV?$allocator@PAVIDvProtocol@Net@OpenHome@@@0@0U_Scalar_ptr_iterator_tag@0@@Z 1006c490 f i DviDevice.obj
 0001:0006b520       ??$forward@AAV?$_Tree_iterator@V?$_Tree_val@V?$_Tmap_traits@VBrn@OpenHome@@PAVAttribute@AttributeMap@Net@2@VBufferCmp@2@V?$allocator@U?$pair@$$CBVBrn@OpenHome@@PAVAttribute@AttributeMap@Net@2@@std@@@std@@$0A@@std@@@std@@@std@@@std@@YGAAV?$_Tree_iterator@V?$_Tree_val@V?$_Tmap_traits@VBrn@OpenHome@@PAVAttribute@AttributeMap@Net@2@VBufferCmp@2@V?$allocator@U?$pair@$$CBVBrn@OpenHome@@PAVAttribute@AttributeMap@Net@2@@std@@@std@@$0A@@std@@@std@@@0@AAV10@@Z 1006c520 f i DviDevice.obj
 0001:0006b530       ??$?0AAV?$_Tree_iterator@V?$_Tree_val@V?$_Tmap_traits@VBrn@OpenHome@@PAVAttribute@AttributeMap@Net@2@VBufferCmp@2@V?$allocator@U?$pair@$$CBVBrn@OpenHome@@PAVAttribute@AttributeMap@Net@2@@std@@@std@@$0A@@std@@@std@@@std@@_N@?$_Pair_base@V?$_Tree_iterator@V?$_Tree_val@V?$_Tmap_traits@VBrn@OpenHome@@PAVAttribute@AttributeMap@Net@2@VBufferCmp@2@V?$allocator@U?$pair@$$CBVBrn@OpenHome@@PAVAttribute@AttributeMap@Net@2@@std@@@std@@$0A@@std@@@std@@@std@@_N@std@@QAE@AAV?$_Tree_iterator@V?$_Tree_val@V?$_Tmap_traits@VBrn@OpenHome@@PAVAttribute@AttributeMap@Net@2@VBufferCmp@2@V?$allocator@U?$pair@$$CBVBrn@OpenHome@@PAVAttribute@AttributeMap@Net@2@@std@@@std@@$0A@@std@@@std@@@1@$$QA_N@Z 1006c530 f i DviDevice.obj
 0001:0006b5d0       ??$forward@AAV?$_Tree_iterator@V?$_Tree_val@V?$_Tmap_traits@VBrn@OpenHome@@PAVDviDevice@Net@2@VBufferCmp@2@V?$allocator@U?$pair@$$CBVBrn@OpenHome@@PAVDviDevice@Net@2@@std@@@std@@$0A@@std@@@std@@@std@@@std@@YGAAV?$_Tree_iterator@V?$_Tree_val@V?$_Tmap_traits@VBrn@OpenHome@@PAVDviDevice@Net@2@VBufferCmp@2@V?$allocator@U?$pair@$$CBVBrn@OpenHome@@PAVDviDevice@Net@2@@std@@@std@@$0A@@std@@@std@@@0@AAV10@@Z 1006c5d0 f i DviDevice.obj
 0001:0006b5e0       ??$?0AAV?$_Tree_iterator@V?$_Tree_val@V?$_Tmap_traits@VBrn@OpenHome@@PAVDviDevice@Net@2@VBufferCmp@2@V?$allocator@U?$pair@$$CBVBrn@OpenHome@@PAVDviDevice@Net@2@@std@@@std@@$0A@@std@@@std@@@std@@_N@?$_Pair_base@V?$_Tree_iterator@V?$_Tree_val@V?$_Tmap_traits@VBrn@OpenHome@@PAVDviDevice@Net@2@VBufferCmp@2@V?$allocator@U?$pair@$$CBVBrn@OpenHome@@PAVDviDevice@Net@2@@std@@@std@@$0A@@std@@@std@@@std@@_N@std@@QAE@AAV?$_Tree_iterator@V?$_Tree_val@V?$_Tmap_traits@VBrn@OpenHome@@PAVDviDevice@Net@2@VBufferCmp@2@V?$allocator@U?$pair@$$CBVBrn@OpenHome@@PAVDviDevice@Net@2@@std@@@std@@$0A@@std@@@std@@@1@$$QA_N@Z 1006c5e0 f i DviDevice.obj
 0001:0006b680       ??$construct@U?$pair@VBrn@OpenHome@@PAVAttribute@AttributeMap@Net@2@@std@@@?$allocator@U?$pair@$$CBVBrn@OpenHome@@PAVAttribute@AttributeMap@Net@2@@std@@@std@@QAEXPAU?$pair@$$CBVBrn@OpenHome@@PAVAttribute@AttributeMap@Net@2@@1@$$QAU?$pair@VBrn@OpenHome@@PAVAttribute@AttributeMap@Net@2@@1@@Z 1006c680 f i DviDevice.obj
 0001:0006b750       ??$construct@U?$pair@VBrn@OpenHome@@PAVDviDevice@Net@2@@std@@@?$allocator@U?$pair@$$CBVBrn@OpenHome@@PAVDviDevice@Net@2@@std@@@std@@QAEXPAU?$pair@$$CBVBrn@OpenHome@@PAVDviDevice@Net@2@@1@$$QAU?$pair@VBrn@OpenHome@@PAVDviDevice@Net@2@@1@@Z 1006c750 f i DviDevice.obj
 0001:0006b820       ??$_Debug_range@PAPAVDviService@Net@OpenHome@@@std@@YGXPAPAVDviService@Net@OpenHome@@0PB_WI@Z 1006c820 f i DviDevice.obj
 0001:0006b880       ??$_Debug_pointer@PAVDviService@Net@OpenHome@@@std@@YGXPAPAVDviService@Net@OpenHome@@PB_WI@Z 1006c880 f i DviDevice.obj
 0001:0006b8c0       ??$_Debug_range@PAPAVDviDevice@Net@OpenHome@@@std@@YGXPAPAVDviDevice@Net@OpenHome@@0PB_WI@Z 1006c8c0 f i DviDevice.obj
 0001:0006b920       ??$_Debug_pointer@PAVDviDevice@Net@OpenHome@@@std@@YGXPAPAVDviDevice@Net@OpenHome@@PB_WI@Z 1006c920 f i DviDevice.obj
 0001:0006b960       ??$_Debug_range@PAPAVIDvProtocol@Net@OpenHome@@@std@@YGXPAPAVIDvProtocol@Net@OpenHome@@0PB_WI@Z 1006c960 f i DviDevice.obj
 0001:0006b9c0       ??$_Debug_pointer@PAVIDvProtocol@Net@OpenHome@@@std@@YGXPAPAVIDvProtocol@Net@OpenHome@@PB_WI@Z 1006c9c0 f i DviDevice.obj
 0001:0006ba00       ??$?0VBrn@OpenHome@@PAVAttribute@AttributeMap@Net@1@@?$pair@$$CBVBrn@OpenHome@@PAVAttribute@AttributeMap@Net@2@@std@@QAE@$$QAU?$pair@VBrn@OpenHome@@PAVAttribute@AttributeMap@Net@2@@1@@Z 1006ca00 f i DviDevice.obj
 0001:0006ba50       ??$?0VBrn@OpenHome@@PAVDviDevice@Net@1@@?$pair@$$CBVBrn@OpenHome@@PAVDviDevice@Net@2@@std@@QAE@$$QAU?$pair@VBrn@OpenHome@@PAVDviDevice@Net@2@@1@@Z 1006ca50 f i DviDevice.obj
 0001:0006baa0       ??$_Iter_cat@PAPAVDviService@Net@OpenHome@@@std@@YG?AUrandom_access_iterator_tag@0@ABQAPAVDviService@Net@OpenHome@@@Z 1006caa0 f i DviDevice.obj
 0001:0006bb10       ??$_Debug_range2@PAPAVDviService@Net@OpenHome@@@std@@YGXPAPAVDviService@Net@OpenHome@@0PB_WIUrandom_access_iterator_tag@0@@Z 1006cb10 f i DviDevice.obj
 0001:0006bb80       ??$_Iter_cat@PAPAVDviDevice@Net@OpenHome@@@std@@YG?AUrandom_access_iterator_tag@0@ABQAPAVDviDevice@Net@OpenHome@@@Z 1006cb80 f i DviDevice.obj
 0001:0006bbf0       ??$_Debug_range2@PAPAVDviDevice@Net@OpenHome@@@std@@YGXPAPAVDviDevice@Net@OpenHome@@0PB_WIUrandom_access_iterator_tag@0@@Z 1006cbf0 f i DviDevice.obj
 0001:0006bc60       ??$_Iter_cat@PAPAVIDvProtocol@Net@OpenHome@@@std@@YG?AUrandom_access_iterator_tag@0@ABQAPAVIDvProtocol@Net@OpenHome@@@Z 1006cc60 f i DviDevice.obj
 0001:0006bcd0       ??$_Debug_range2@PAPAVIDvProtocol@Net@OpenHome@@@std@@YGXPAPAVIDvProtocol@Net@OpenHome@@0PB_WIUrandom_access_iterator_tag@0@@Z 1006ccd0 f i DviDevice.obj
 0001:0006bd40       ??$forward@PAVAttribute@AttributeMap@Net@OpenHome@@@std@@YG$$QAPAVAttribute@AttributeMap@Net@OpenHome@@AAPAV1234@@Z 1006cd40 f i DviDevice.obj
 0001:0006bd50       ??$?0VBrn@OpenHome@@PAVAttribute@AttributeMap@Net@1@@?$_Pair_base@$$CBVBrn@OpenHome@@PAVAttribute@AttributeMap@Net@2@@std@@QAE@$$QAVBrn@OpenHome@@$$QAPAVAttribute@AttributeMap@Net@3@@Z 1006cd50 f i DviDevice.obj
 0001:0006bdf0       ??$?0VBrn@OpenHome@@PAVDviDevice@Net@1@@?$_Pair_base@$$CBVBrn@OpenHome@@PAVDviDevice@Net@2@@std@@QAE@$$QAVBrn@OpenHome@@$$QAPAVDviDevice@Net@3@@Z 1006cdf0 f i DviDevice.obj
 0001:0006be90       ??0DviDeviceUpnp@Net@OpenHome@@QAE@AAVDviDevice@12@@Z 1006ce90 f   DviDeviceUpnp.obj
 0001:0006c100       ??1DviDeviceUpnp@Net@OpenHome@@UAE@XZ 1006d100 f   DviDeviceUpnp.obj
 0001:0006c2e0       ?Domain@DviDeviceUpnp@Net@OpenHome@@QBE?AVBrn@3@XZ 1006d2e0 f   DviDeviceUpnp.obj
 0001:0006c3e0       ?Type@DviDeviceUpnp@Net@OpenHome@@QBE?AVBrn@3@XZ 1006d3e0 f   DviDeviceUpnp.obj
 0001:0006c4e0       ?Version@DviDeviceUpnp@Net@OpenHome@@QBEIXZ 1006d4e0 f   DviDeviceUpnp.obj
 0001:0006c5d0       ?MsgSchedulerComplete@DviDeviceUpnp@Net@OpenHome@@QAEXPAVDeviceMsgScheduler@23@@Z 1006d5d0 f   DviDeviceUpnp.obj
 0001:0006c770       ?AddInterface@DviDeviceUpnp@Net@OpenHome@@AAEXABVNetworkAdapter@3@@Z 1006d770 f   DviDeviceUpnp.obj
 0001:0006c8f0       ?SubnetListChanged@DviDeviceUpnp@Net@OpenHome@@AAEXXZ 1006d8f0 f   DviDeviceUpnp.obj
 0001:0006cdb0       ?FindInterface@DviDeviceUpnp@Net@OpenHome@@AAEHIABV?$vector@PAVNetworkAdapter@OpenHome@@V?$allocator@PAVNetworkAdapter@OpenHome@@@std@@@std@@@Z 1006ddb0 f   DviDeviceUpnp.obj
 0001:0006ce20       ?FindListenerForSubnet@DviDeviceUpnp@Net@OpenHome@@AAEHI@Z 1006de20 f   DviDeviceUpnp.obj
 0001:0006ce90       ?FindListenerForInterface@DviDeviceUpnp@Net@OpenHome@@AAEHI@Z 1006de90 f   DviDeviceUpnp.obj
 0001:0006cf00       ?WriteResource@DviDeviceUpnp@Net@OpenHome@@UAEXABVBrx@3@IAAV?$vector@PADV?$allocator@PAD@std@@@std@@AAVIResourceWriter@23@@Z 1006df00 f   DviDeviceUpnp.obj
 0001:0006d3a0       ?ProtocolName@DviDeviceUpnp@Net@OpenHome@@UBEABVBrx@3@XZ 1006e3a0 f   DviDeviceUpnp.obj
 0001:0006d3c0       ?Enable@DviDeviceUpnp@Net@OpenHome@@UAEXXZ 1006e3c0 f   DviDeviceUpnp.obj
 0001:0006d7e0       ?Disable@DviDeviceUpnp@Net@OpenHome@@UAEXAAVFunctor@3@@Z 1006e7e0 f   DviDeviceUpnp.obj
 0001:0006dab0       ?GetAttribute@DviDeviceUpnp@Net@OpenHome@@UBEXPBDPAPBD@Z 1006eab0 f   DviDeviceUpnp.obj
 0001:0006daf0       ?SetAttribute@DviDeviceUpnp@Net@OpenHome@@UAEXPBD0@Z 1006eaf0 f   DviDeviceUpnp.obj
 0001:0006db90       ?SetCustomData@DviDeviceUpnp@Net@OpenHome@@UAEXPBDPAX@Z 1006eb90 f   DviDeviceUpnp.obj
 0001:0006dc80       ?SubnetDisabled@DviDeviceUpnp@Net@OpenHome@@AAEXXZ 1006ec80 f   DviDeviceUpnp.obj
 0001:0006dd10       ?SubnetUpdated@DviDeviceUpnp@Net@OpenHome@@AAEXXZ 1006ed10 f   DviDeviceUpnp.obj
 0001:0006ddb0       ?SendAliveNotifications@DviDeviceUpnp@Net@OpenHome@@AAEXXZ 1006edb0 f   DviDeviceUpnp.obj
 0001:0006df90       ?SendUpdateNotifications@DviDeviceUpnp@Net@OpenHome@@AAEXXZ 1006ef90 f   DviDeviceUpnp.obj
 0001:0006e180       ?GetUriDeviceXml@DviDeviceUpnp@Net@OpenHome@@AAEXAAVBwh@3@ABVBrx@3@@Z 1006f180 f   DviDeviceUpnp.obj
 0001:0006e1e0       ?GetDeviceXml@DviDeviceUpnp@Net@OpenHome@@AAEXAAVBrh@3@I@Z 1006f1e0 f   DviDeviceUpnp.obj
 0001:0006e2a0       ?WriteServiceXml@DviDeviceUpnp@Net@OpenHome@@AAEXABVDviService@23@AAVIResourceWriter@23@@Z 1006f2a0 f   DviDeviceUpnp.obj
 0001:0006e620       ?WriteServiceActionParams@DviDeviceUpnp@Net@OpenHome@@AAEXAAVWriterBwh@3@ABVAction@23@_N@Z 1006f620 f   DviDeviceUpnp.obj
 0001:0006e850       ?GetRelatedVariableName@DviDeviceUpnp@Net@OpenHome@@AAEXAAVBwh@3@ABVBrx@3@1@Z 1006f850 f   DviDeviceUpnp.obj
 0001:0006e950       ?WriteStateVariable@DviDeviceUpnp@Net@OpenHome@@AAEXAAVIWriter@3@ABVParameter@23@_NPBVAction@23@@Z 1006f950 f   DviDeviceUpnp.obj
 0001:0006f840       ?WriteTechnicalStateVariables@DviDeviceUpnp@Net@OpenHome@@AAEXAAVIWriter@3@PBVAction@23@ABV?$vector@PAVParameter@Net@OpenHome@@V?$allocator@PAVParameter@Net@OpenHome@@@std@@@std@@@Z 10070840 f   DviDeviceUpnp.obj
 0001:0006f8d0       ?SsdpSearchAll@DviDeviceUpnp@Net@OpenHome@@AAEXABVEndpoint@3@II@Z 100708d0 f   DviDeviceUpnp.obj
 0001:0006fa50       ?SsdpSearchRoot@DviDeviceUpnp@Net@OpenHome@@AAEXABVEndpoint@3@II@Z 10070a50 f   DviDeviceUpnp.obj
 0001:0006fbe0       ?SsdpSearchUuid@DviDeviceUpnp@Net@OpenHome@@AAEXABVEndpoint@3@IIABVBrx@3@@Z 10070be0 f   DviDeviceUpnp.obj
 0001:0006fd80       ?SsdpSearchDeviceType@DviDeviceUpnp@Net@OpenHome@@AAEXABVEndpoint@3@IIABVBrx@3@1I@Z 10070d80 f   DviDeviceUpnp.obj
 0001:0006ffd0       ?SsdpSearchServiceType@DviDeviceUpnp@Net@OpenHome@@AAEXABVEndpoint@3@IIABVBrx@3@1I@Z 10070fd0 f   DviDeviceUpnp.obj
 0001:000701e0       ??0Nif@DviDeviceUpnp@Net@OpenHome@@QAE@AAV123@AAVDviDevice@23@ABVNetworkAdapter@3@AAVBwh@3@I@Z 100711e0 f   DviDeviceUpnp.obj
 0001:000702f0       ??1Nif@DviDeviceUpnp@Net@OpenHome@@UAE@XZ 100712f0 f   DviDeviceUpnp.obj
 0001:000703e0       ?Interface@Nif@DviDeviceUpnp@Net@OpenHome@@QBEIXZ 100713e0 f   DviDeviceUpnp.obj
 0001:00070410       ?Subnet@Nif@DviDeviceUpnp@Net@OpenHome@@QBEIXZ 10071410 f   DviDeviceUpnp.obj
 0001:00070430       ?UriBase@Nif@DviDeviceUpnp@Net@OpenHome@@QBEABVBrx@4@XZ 10071430 f   DviDeviceUpnp.obj
 0001:00070470       ?UpdateServerPort@Nif@DviDeviceUpnp@Net@OpenHome@@QAEXAAVDviServerUpnp@34@@Z 10071470 f   DviDeviceUpnp.obj
 0001:000704b0       ?UpdateUriBase@Nif@DviDeviceUpnp@Net@OpenHome@@QAEXAAVBwh@4@@Z 100714b0 f   DviDeviceUpnp.obj
 0001:000704e0       ?ServerPort@Nif@DviDeviceUpnp@Net@OpenHome@@QBEIXZ 100714e0 f   DviDeviceUpnp.obj
 0001:00070500       ?DeviceXml@Nif@DviDeviceUpnp@Net@OpenHome@@QBEABVBrx@4@XZ 10071500 f   DviDeviceUpnp.obj
 0001:00070520       ?SetDeviceXml@Nif@DviDeviceUpnp@Net@OpenHome@@QAEXAAVBrh@4@@Z 10071520 f   DviDeviceUpnp.obj
 0001:00070550       ?ClearDeviceXml@Nif@DviDeviceUpnp@Net@OpenHome@@QAEXXZ 10071550 f   DviDeviceUpnp.obj
 0001:00070600       ?SetPendingDelete@Nif@DviDeviceUpnp@Net@OpenHome@@QAEXXZ 10071600 f   DviDeviceUpnp.obj
 0001:00070640       ?BonjourRegister@Nif@DviDeviceUpnp@Net@OpenHome@@QAEXPBD@Z 10071640 f   DviDeviceUpnp.obj
 0001:00070810       ?BonjourDeregister@Nif@DviDeviceUpnp@Net@OpenHome@@QAEXXZ 10071810 f   DviDeviceUpnp.obj
 0001:00070840       ?Device@Nif@DviDeviceUpnp@Net@OpenHome@@AAEPAV234@XZ 10071840 f   DviDeviceUpnp.obj
 0001:00070890       ?SsdpSearchAll@Nif@DviDeviceUpnp@Net@OpenHome@@EAEXABVEndpoint@4@I@Z 10071890 f   DviDeviceUpnp.obj
 0001:000708f0       ?SsdpSearchRoot@Nif@DviDeviceUpnp@Net@OpenHome@@EAEXABVEndpoint@4@I@Z 100718f0 f   DviDeviceUpnp.obj
 0001:00070950       ?SsdpSearchUuid@Nif@DviDeviceUpnp@Net@OpenHome@@EAEXABVEndpoint@4@IABVBrx@4@@Z 10071950 f   DviDeviceUpnp.obj
 0001:000709b0       ?SsdpSearchDeviceType@Nif@DviDeviceUpnp@Net@OpenHome@@EAEXABVEndpoint@4@IABVBrx@4@1I@Z 100719b0 f   DviDeviceUpnp.obj
 0001:00070a10       ?SsdpSearchServiceType@Nif@DviDeviceUpnp@Net@OpenHome@@EAEXABVEndpoint@4@IABVBrx@4@1I@Z 10071a10 f   DviDeviceUpnp.obj
 0001:00070a70       ??0DviDeviceUpnpXmlWriter@Net@OpenHome@@QAE@AAVDviDeviceUpnp@12@@Z 10071a70 f   DviDeviceUpnp.obj
 0001:00070ac0       ?Write@DviDeviceUpnpXmlWriter@Net@OpenHome@@QAEXI@Z 10071ac0 f   DviDeviceUpnp.obj
 0001:000716f0       ?TransferTo@DviDeviceUpnpXmlWriter@Net@OpenHome@@QAEXAAVBrh@3@@Z 100726f0 f   DviDeviceUpnp.obj
 0001:00071720       ?WriteTag@DviDeviceUpnpXmlWriter@Net@OpenHome@@AAEXPBD0W4ETagRequirementLevel@123@@Z 10072720 f   DviDeviceUpnp.obj
 0001:000718f0       ?WriteResourceBegin@DviDeviceUpnpXmlWriter@Net@OpenHome@@EAEXIPBD@Z 100728f0 f   DviDeviceUpnp.obj
 0001:00071910       ?WriteResource@DviDeviceUpnpXmlWriter@Net@OpenHome@@EAEXPBEI@Z 10072910 f   DviDeviceUpnp.obj
 0001:000719e0       ?WriteResourceEnd@DviDeviceUpnpXmlWriter@Net@OpenHome@@EAEXXZ 100729e0 f   DviDeviceUpnp.obj
 0001:00071a00       ??1DeviceMsgScheduler@Net@OpenHome@@UAE@XZ 10072a00 f   DviDeviceUpnp.obj
 0001:00071ab0       ?Stop@DeviceMsgScheduler@Net@OpenHome@@QAEXXZ 10072ab0 f   DviDeviceUpnp.obj
 0001:00071ad0       ??0DeviceMsgScheduler@Net@OpenHome@@IAE@AAVDviDevice@12@AAVDviDeviceUpnp@12@IIAAVBwh@2@@Z 10072ad0 f   DviDeviceUpnp.obj
 0001:00071c70       ?Next@DeviceMsgScheduler@Net@OpenHome@@MAEXI@Z 10072c70 f   DviDeviceUpnp.obj
 0001:00071e80       ?NextMsg@DeviceMsgScheduler@Net@OpenHome@@AAEXXZ 10072e80 f   DviDeviceUpnp.obj
 0001:00071f10       ?ScheduleNextTimer@DeviceMsgScheduler@Net@OpenHome@@IBEXXZ 10072f10 f   DviDeviceUpnp.obj
 0001:00071f90       ??0DeviceMsgSchedulerMsearch@Net@OpenHome@@IAE@AAVDviDevice@12@AAVDviDeviceUpnp@12@ABVEndpoint@2@IIAAVBwh@2@I@Z 10072f90 f   DviDeviceUpnp.obj
 0001:00072090       ??0DeviceMsgSchedulerMsearchAll@Net@OpenHome@@QAE@AAVDviDevice@12@AAVDviDeviceUpnp@12@ABVEndpoint@2@IAAVBwh@2@I@Z 10073090 f   DviDeviceUpnp.obj
 0001:00072100       ??1DeviceMsgSchedulerMsearchAll@Net@OpenHome@@UAE@XZ 10073100 f   DviDeviceUpnp.obj
 0001:000721a0       ??0DeviceMsgSchedulerMsearchRoot@Net@OpenHome@@QAE@AAVDviDevice@12@AAVDviDeviceUpnp@12@ABVEndpoint@2@IAAVBwh@2@I@Z 100731a0 f   DviDeviceUpnp.obj
 0001:000721f0       ??1DeviceMsgSchedulerMsearchRoot@Net@OpenHome@@UAE@XZ 100731f0 f   DviDeviceUpnp.obj
 0001:00072290       ?Next@DeviceMsgSchedulerMsearchRoot@Net@OpenHome@@EAEXI@Z 10073290 f   DviDeviceUpnp.obj
 0001:00072320       ??0DeviceMsgSchedulerMsearchUuid@Net@OpenHome@@QAE@AAVDviDevice@12@AAVDviDeviceUpnp@12@ABVEndpoint@2@IAAVBwh@2@I@Z 10073320 f   DviDeviceUpnp.obj
 0001:00072370       ??1DeviceMsgSchedulerMsearchUuid@Net@OpenHome@@UAE@XZ 10073370 f   DviDeviceUpnp.obj
