 TestFifo

 Timestamp is 4e1c1b89 (Tue Jul 12 11:01:45 2011)

 Preferred load address is 00400000

 Start         Length     Name                   Class
 0001:00000000 0007a36cH .text                   CODE
 0001:0007a370 000050b3H .text$x                 CODE
 0001:0007f430 0000353eH .text$yc                CODE
 0001:00082970 00001431H .text$yd                CODE
 0002:00000000 000001e4H .idata$5                DATA
 0002:000001e4 00000004H .CRT$XCA                DATA
 0002:000001e8 00000004H .CRT$XCC                DATA
 0002:000001ec 00000294H .CRT$XCU                DATA
 0002:00000480 00000004H .CRT$XCZ                DATA
 0002:00000484 00000004H .CRT$XIA                DATA
 0002:00000488 00000010H .CRT$XIC                DATA
 0002:00000498 00000004H .CRT$XIY                DATA
 0002:0000049c 00000004H .CRT$XIZ                DATA
 0002:000004a0 00000004H .CRT$XPA                DATA
 0002:000004a4 00000008H .CRT$XPX                DATA
 0002:000004ac 00000004H .CRT$XPXA               DATA
 0002:000004b0 00000004H .CRT$XPZ                DATA
 0002:000004b4 00000004H .CRT$XTA                DATA
 0002:000004b8 00000004H .CRT$XTZ                DATA
 0002:000004c0 00014858H .rdata                  DATA
 0002:00014d18 0000004fH .rdata$debug            DATA
 0002:00014d68 000021f0H .rdata$r                DATA
 0002:00016f60 00000664H .rdata$sxdata           DATA
 0002:000175c4 00000004H .rtc$IAA                DATA
 0002:000175c8 00000060H .rtc$IMZ                DATA
 0002:00017628 00000004H .rtc$IZZ                DATA
 0002:0001762c 00000004H .rtc$TAA                DATA
 0002:00017630 00000060H .rtc$TMZ                DATA
 0002:00017690 00000004H .rtc$TZZ                DATA
 0002:00017698 000067dcH .xdata$x                DATA
 0002:0001de74 0000003cH .idata$2                DATA
 0002:0001deb0 00000014H .idata$3                DATA
 0002:0001dec4 000001e4H .idata$4                DATA
 0002:0001e0a8 00000776H .idata$6                DATA
 0002:0001e820 0000049cH .edata                  DATA
 0003:00000000 00001fe0H .data                   DATA
 0003:00001fe0 000031ccH .bss                    DATA

  Address         Publics by Value              Rva+Base       Lib:Object

 0000:00000000       __except_list              00000000     <absolute>
 0000:00000199       ___safe_se_handler_count   00000199     <absolute>
 0000:00000000       ___ImageBase               00400000     <linker-defined>
 0001:00000010       ?Test@SuiteFifoBasic@@UAEXXZ 00401010 f   TestFifo.obj
 0001:00000b40       ?Run@Reader@@QAEXXZ        00401b40 f   TestFifo.obj
 0001:00000d00       ?Run@Writer0@@QAEXXZ       00401d00 f   TestFifo.obj
 0001:00000df0       ?Run@Writer1@@QAEXXZ       00401df0 f   TestFifo.obj
 0001:00000ee0       ?MultipleWriteTest@@YGXIII@Z 00401ee0 f   TestFifo.obj
 0001:00001420       ?Run@ThreadSafetyTests@@UAEXXZ 00402420 f   TestFifo.obj
 0001:00001520       ?Test@SuiteFifoThreadSafety@@UAEXXZ 00402520 f   TestFifo.obj
 0001:00001650       ?Test@SuiteFifoLiteBasic@@UAEXXZ 00402650 f   TestFifo.obj
 0001:00002bd0       ?Main@Runner@TestFramework@OpenHome@@SGXHQAPADPAVInitialisationParams@Net@3@@Z 00403bd0 f   TestFifo.obj
 0001:00002d80       ?Value@I@@QBEIXZ           00403d80 f i TestFifo.obj
 0001:00002da0       ??0I@@QAE@I@Z              00403da0 f i TestFifo.obj
 0001:00002dc0       ??0Reader@@QAE@AAV?$Fifo@PAVI@@@OpenHome@@AAVThread@2@I@Z 00403dc0 f i TestFifo.obj
 0001:00002e10       ??0INonCopyable@OpenHome@@IAE@XZ 00403e10 f i TestFifo.obj
 0001:00002e30       ??0Writer0@@QAE@AAV?$Fifo@PAVI@@@OpenHome@@AAVThread@2@I@Z 00403e30 f i TestFifo.obj
 0001:00002e80       ??0Writer1@@QAE@AAV?$Fifo@PAVI@@@OpenHome@@AAVThread@2@I@Z 00403e80 f i TestFifo.obj
 0001:00002ed0       ??0ThreadSafetyTests@@QAE@AAVSemaphore@OpenHome@@@Z 00403ed0 f i TestFifo.obj
 0001:00002f20       ??_GThreadSafetyTests@@UAEPAXI@Z 00403f20 f i TestFifo.obj
 0001:00002f20       ??_EThreadSafetyTests@@UAEPAXI@Z 00403f20 f i TestFifo.obj
 0001:00002f60       ??1ThreadSafetyTests@@UAE@XZ 00403f60 f i TestFifo.obj
 0001:00002f90       ??0SuiteFifoBasic@@QAE@XZ  00403f90 f i TestFifo.obj
 0001:00002fd0       ??_ESuiteFifoBasic@@UAEPAXI@Z 00403fd0 f i TestFifo.obj
 0001:00002fd0       ??_GSuiteFifoBasic@@UAEPAXI@Z 00403fd0 f i TestFifo.obj
 0001:00003010       ??1SuiteFifoBasic@@UAE@XZ  00404010 f i TestFifo.obj
 0001:00003040       ??0SuiteFifoThreadSafety@@QAE@XZ 00404040 f i TestFifo.obj
 0001:00003080       ??_ESuiteFifoThreadSafety@@UAEPAXI@Z 00404080 f i TestFifo.obj
 0001:00003080       ??_GSuiteFifoThreadSafety@@UAEPAXI@Z 00404080 f i TestFifo.obj
 0001:000030c0       ??1SuiteFifoThreadSafety@@UAE@XZ 004040c0 f i TestFifo.obj
 0001:000030f0       ??0SuiteFifoLiteBasic@@QAE@XZ 004040f0 f i TestFifo.obj
 0001:00003130       ??_ESuiteFifoLiteBasic@@UAEPAXI@Z 00404130 f i TestFifo.obj
 0001:00003130       ??_GSuiteFifoLiteBasic@@UAEPAXI@Z 00404130 f i TestFifo.obj
 0001:00003170       ??1SuiteFifoLiteBasic@@UAE@XZ 00404170 f i TestFifo.obj
 0001:000031a0       ??_GInitialisationParams@Net@OpenHome@@QAEPAXI@Z 004041a0 f i TestFifo.obj
 0001:000031e0       ??0?$Fifo@PAVI@@@OpenHome@@QAE@I@Z 004041e0 f i TestFifo.obj
 0001:00003280       ??1?$Fifo@PAVI@@@OpenHome@@QAE@XZ 00404280 f i TestFifo.obj
 0001:000032d0       ??0?$FifoLite@PAVI@@$03@OpenHome@@QAE@XZ 004042d0 f i TestFifo.obj
 0001:00003300       ?Write@?$FifoLite@PAVI@@$03@OpenHome@@QAEXPAVI@@@Z 00404300 f i TestFifo.obj
 0001:00003330       ?WriteBack@?$FifoLite@PAVI@@$03@OpenHome@@QAEXPAVI@@@Z 00404330 f i TestFifo.obj
 0001:00003360       ?Read@?$FifoLite@PAVI@@$03@OpenHome@@QAEPAVI@@XZ 00404360 f i TestFifo.obj
 0001:00003390       ??0?$FifoLite@PAVI@@$00@OpenHome@@QAE@XZ 00404390 f i TestFifo.obj
 0001:000033c0       ?Write@?$FifoLite@PAVI@@$00@OpenHome@@QAEXPAVI@@@Z 004043c0 f i TestFifo.obj
 0001:000033f0       ?Read@?$FifoLite@PAVI@@$00@OpenHome@@QAEPAVI@@XZ 004043f0 f i TestFifo.obj
 0001:00003420       ??1FifoBase@OpenHome@@QAE@XZ 00404420 f i TestFifo.obj
 0001:000034a0       ?Write@?$Fifo@PAVI@@@OpenHome@@QAEXPAVI@@I@Z 004044a0 f i TestFifo.obj
 0001:000034e0       ?Write@?$Fifo@PAVI@@@OpenHome@@QAEXPAVI@@@Z 004044e0 f i TestFifo.obj
 0001:00003510       ?Read@?$Fifo@PAVI@@@OpenHome@@QAEPAVI@@I@Z 00404510 f i TestFifo.obj
 0001:00003560       ?Read@?$Fifo@PAVI@@@OpenHome@@QAEPAVI@@XZ 00404560 f i TestFifo.obj
 0001:00003590       ??$MakeFunctor@VWriter0@@XV1@@OpenHome@@YG?AV?$MemberTranslator@VWriter0@@P81@AEXXZ@0@AAVWriter0@@ABQ82@AEXXZ@Z 00404590 f i TestFifo.obj
 0001:000035c0       ??$MakeFunctor@VWriter1@@XV1@@OpenHome@@YG?AV?$MemberTranslator@VWriter1@@P81@AEXXZ@0@AAVWriter1@@ABQ82@AEXXZ@Z 004045c0 f i TestFifo.obj
 0001:000035f0       ??$MakeFunctor@VReader@@XV1@@OpenHome@@YG?AV?$MemberTranslator@VReader@@P81@AEXXZ@0@AAVReader@@ABQ82@AEXXZ@Z 004045f0 f i TestFifo.obj
 0001:00003620       ??0?$MemberTranslator@VWriter0@@P81@AEXXZ@OpenHome@@QAE@AAVWriter0@@ABQ82@AEXXZ@Z 00404620 f i TestFifo.obj
 0001:00003660       ??0Functor@OpenHome@@IAE@P6GXABV01@@ZPBX2I@Z 00404660 f i TestFifo.obj
 0001:000036b0       ??0?$MemberTranslator@VWriter1@@P81@AEXXZ@OpenHome@@QAE@AAVWriter1@@ABQ82@AEXXZ@Z 004046b0 f i TestFifo.obj
 0001:000036f0       ??0?$MemberTranslator@VReader@@P81@AEXXZ@OpenHome@@QAE@AAVReader@@ABQ82@AEXXZ@Z 004046f0 f i TestFifo.obj
 0001:00003730       ?Thunk@?$MemberTranslator@VWriter0@@P81@AEXXZ@OpenHome@@SGXABVFunctor@2@@Z 00404730 f i TestFifo.obj
 0001:00003780       ?Thunk@?$MemberTranslator@VWriter1@@P81@AEXXZ@OpenHome@@SGXABVFunctor@2@@Z 00404780 f i TestFifo.obj
 0001:000037d0       ?Thunk@?$MemberTranslator@VReader@@P81@AEXXZ@OpenHome@@SGXABVFunctor@2@@Z 004047d0 f i TestFifo.obj
 0001:00003820       ?Log@TestConsole@@QAEXPBD@Z 00404820 f   libTestFramework:TestFramework.obj
 0001:00003850       ?AssertHandlerTest@TestFramework@OpenHome@@YGXPBDI@Z 00404850 f   libTestFramework:TestFramework.obj
 0001:00003900       ??0Suite@TestFramework@OpenHome@@IAE@PBD@Z 00404900 f   libTestFramework:TestFramework.obj
 0001:00003940       ??1Suite@TestFramework@OpenHome@@MAE@XZ 00404940 f   libTestFramework:TestFramework.obj
 0001:00003960       ?Description@Suite@TestFramework@OpenHome@@QBEPBDXZ 00404960 f   libTestFramework:TestFramework.obj
 0001:00003980       ??0Runner@TestFramework@OpenHome@@QAE@PBD@Z 00404980 f   libTestFramework:TestFramework.obj
 0001:000039c0       ??1Runner@TestFramework@OpenHome@@QAE@XZ 004049c0 f   libTestFramework:TestFramework.obj
 0001:000039e0       ?Add@Runner@TestFramework@OpenHome@@QAEXPAVSuite@23@@Z 004049e0 f   libTestFramework:TestFramework.obj
 0001:00003a60       ?Run@Runner@TestFramework@OpenHome@@QAEXXZ 00404a60 f   libTestFramework:TestFramework.obj
 0001:00003d10       ?Fail@TestFramework@OpenHome@@YGXPBDI00@Z 00404d10 f   libTestFramework:TestFramework.obj
 0001:00003d70       ?Succeed@TestFramework@OpenHome@@YGXPBDI@Z 00404d70 f   libTestFramework:TestFramework.obj
 0001:00003da0       ?SucceedQuietly@TestFramework@OpenHome@@YGXPBDI@Z 00404da0 f   libTestFramework:TestFramework.obj
 0001:00003dd0       ?TimeStart@TestFramework@OpenHome@@YGIXZ 00404dd0 f   libTestFramework:TestFramework.obj
 0001:00003df0       ?TimeStop@TestFramework@OpenHome@@YGII@Z 00404df0 f   libTestFramework:TestFramework.obj
 0001:00003e20       ?Print@TestFramework@OpenHome@@YAHPBDZZ 00404e20 f   libTestFramework:TestFramework.obj
 0001:00003ee0       ?Print@TestFramework@OpenHome@@YGHPBDPAD@Z 00404ee0 f   libTestFramework:TestFramework.obj
 0001:00003f90       ?Print@TestFramework@OpenHome@@YGHABVBrx@2@@Z 00404f90 f   libTestFramework:TestFramework.obj
 0001:00004040       ?PrintHex@TestFramework@OpenHome@@YGHABVBrx@2@@Z 00405040 f   libTestFramework:TestFramework.obj
 0001:000040f0       ??0Blocker@TestFramework@OpenHome@@QAE@XZ 004050f0 f   libTestFramework:TestFramework.obj
 0001:000041f0       ??1Blocker@TestFramework@OpenHome@@QAE@XZ 004051f0 f   libTestFramework:TestFramework.obj
 0001:00004290       ?Wait@Blocker@TestFramework@OpenHome@@QAEXI@Z 00405290 f   libTestFramework:TestFramework.obj
 0001:000042d0       ?TimerExpired@Blocker@TestFramework@OpenHome@@AAEXXZ 004052d0 f   libTestFramework:TestFramework.obj
 0001:00004300       ?ConsoleWrite@Os@OpenHome@@SGXPBD@Z 00405300 f i libTestFramework:TestFramework.obj
 0001:00004320       ??0AssertionFailed@OpenHome@@QAE@PBDI@Z 00405320 f i libTestFramework:TestFramework.obj
 0001:00004360       ??1AssertionFailed@OpenHome@@QAE@XZ 00405360 f i libTestFramework:TestFramework.obj
 0001:00004390       ??_GSuite@TestFramework@OpenHome@@MAEPAXI@Z 00405390 f i libTestFramework:TestFramework.obj
 0001:00004390       ??_ESuite@TestFramework@OpenHome@@MAEPAXI@Z 00405390 f i libTestFramework:TestFramework.obj
 0001:000043d0       ?TimeInMs@Os@OpenHome@@SGIXZ 004053d0 f i libTestFramework:TestFramework.obj
 0001:000043f0       ?TimeInUs@Os@OpenHome@@SG_KXZ 004053f0 f i libTestFramework:TestFramework.obj
 0001:00004410       ??_GTimer@OpenHome@@QAEPAXI@Z 00405410 f i libTestFramework:TestFramework.obj
 0001:00004450       ??$MakeFunctorMsg@VTestConsole@@V1@@OpenHome@@YG?AV?$MemberTranslatorMsg@VTestConsole@@P81@AEXPBD@Z@0@AAVTestConsole@@ABQ82@AEXPBD@Z@Z 00405450 f i libTestFramework:TestFramework.obj
 0001:00004480       ??$MakeFunctor@VBlocker@TestFramework@OpenHome@@XV123@@OpenHome@@YG?AV?$MemberTranslator@VBlocker@TestFramework@OpenHome@@P8123@AEXXZ@0@AAVBlocker@TestFramework@0@ABQ8230@AEXXZ@Z 00405480 f i libTestFramework:TestFramework.obj
 0001:000044b0       ??0?$MemberTranslatorMsg@VTestConsole@@P81@AEXPBD@Z@OpenHome@@QAE@AAVTestConsole@@ABQ82@AEXPBD@Z@Z 004054b0 f i libTestFramework:TestFramework.obj
 0001:000044f0       ??0FunctorMsg@OpenHome@@IAE@P6GXABV01@PBD@ZPBX3I@Z 004054f0 f i libTestFramework:TestFramework.obj
 0001:00004540       ??0?$MemberTranslator@VBlocker@TestFramework@OpenHome@@P8123@AEXXZ@OpenHome@@QAE@AAVBlocker@TestFramework@1@ABQ8231@AEXXZ@Z 00405540 f i libTestFramework:TestFramework.obj
 0001:00004580       ?Thunk@?$MemberTranslatorMsg@VTestConsole@@P81@AEXPBD@Z@OpenHome@@SGXABVFunctorMsg@2@PBD@Z 00405580 f i libTestFramework:TestFramework.obj
 0001:000045d0       ?Thunk@?$MemberTranslator@VBlocker@TestFramework@OpenHome@@P8123@AEXXZ@OpenHome@@SGXABVFunctor@2@@Z 004055d0 f i libTestFramework:TestFramework.obj
 0001:00004620       ??0FifoBase@OpenHome@@IAE@I@Z 00405620 f   libohNetCore:Fifo.obj
 0001:00004700       ?Slots@FifoBase@OpenHome@@QBEIXZ 00405700 f   libohNetCore:Fifo.obj
 0001:00004720       ?SlotsFree@FifoBase@OpenHome@@QBEIXZ 00405720 f   libohNetCore:Fifo.obj
 0001:00004740       ?SlotsUsed@FifoBase@OpenHome@@QBEIXZ 00405740 f   libohNetCore:Fifo.obj
 0001:00004760       ?ReadInterrupt@FifoBase@OpenHome@@QAEX_N@Z 00405760 f   libohNetCore:Fifo.obj
 0001:000047a0       ?WriteOpen@FifoBase@OpenHome@@IAEII@Z 004057a0 f   libohNetCore:Fifo.obj
 0001:00004820       ?WriteClose@FifoBase@OpenHome@@IAEXXZ 00405820 f   libohNetCore:Fifo.obj
 0001:00004870       ?ReadOpen@FifoBase@OpenHome@@IAEII@Z 00405870 f   libohNetCore:Fifo.obj
 0001:00004970       ?ReadClose@FifoBase@OpenHome@@IAEXXZ 00405970 f   libohNetCore:Fifo.obj
 0001:000049b0       ?DoPeek@FifoBase@OpenHome@@IAEIXZ 004059b0 f   libohNetCore:Fifo.obj
 0001:000049d0       ??0FifoByte@OpenHome@@QAE@I@Z 004059d0 f   libohNetCore:Fifo.obj
 0001:00004a00       ?Write@FifoByte@OpenHome@@QAEXABVBrx@2@@Z 00405a00 f   libohNetCore:Fifo.obj
 0001:00004a60       ?Read@FifoByte@OpenHome@@QAEXAAVBwx@2@@Z 00405a60 f   libohNetCore:Fifo.obj
 0001:00004aa0       ?Read@FifoByte@OpenHome@@QAEXAAVBwx@2@I@Z 00405aa0 f   libohNetCore:Fifo.obj
 0001:00004b10       ??0FifoThresholdBase@OpenHome@@IAE@IAAVFifoThresholdObserver@1@@Z 00405b10 f   libohNetCore:Fifo.obj
 0001:00004b70       ?SetThresholdLow@FifoThresholdBase@OpenHome@@QAEXI@Z 00405b70 f   libohNetCore:Fifo.obj
 0001:00004bc0       ?SetThresholdHigh@FifoThresholdBase@OpenHome@@QAEXI@Z 00405bc0 f   libohNetCore:Fifo.obj
 0001:00004c10       ?CheckThresholdHigh@FifoThresholdBase@OpenHome@@IAEXXZ 00405c10 f   libohNetCore:Fifo.obj
 0001:00004c90       ?CheckThresholdLow@FifoThresholdBase@OpenHome@@IAEXXZ 00405c90 f   libohNetCore:Fifo.obj
 0001:00004d10       ??0FifoLiteBase@OpenHome@@IAE@I@Z 00405d10 f   libohNetCore:Fifo.obj
 0001:00004d60       ?Slots@FifoLiteBase@OpenHome@@QBEIXZ 00405d60 f   libohNetCore:Fifo.obj
 0001:00004d80       ?SlotsFree@FifoLiteBase@OpenHome@@QBEIXZ 00405d80 f   libohNetCore:Fifo.obj
 0001:00004da0       ?SlotsUsed@FifoLiteBase@OpenHome@@QBEIXZ 00405da0 f   libohNetCore:Fifo.obj
 0001:00004dc0       ?Write@FifoLiteBase@OpenHome@@IAEIXZ 00405dc0 f   libohNetCore:Fifo.obj
 0001:00004e50       ?WriteBack@FifoLiteBase@OpenHome@@IAEIXZ 00405e50 f   libohNetCore:Fifo.obj
 0001:00004ed0       ?Read@FifoLiteBase@OpenHome@@IAEIXZ 00405ed0 f   libohNetCore:Fifo.obj
 0001:00004f50       ??0FifoReadError@OpenHome@@QAE@PBDI@Z 00405f50 f i libohNetCore:Fifo.obj
 0001:00004f90       ??1FifoReadError@OpenHome@@QAE@XZ 00405f90 f i libohNetCore:Fifo.obj
 0001:00004fc0       ?Bytes@Brx@OpenHome@@QBEIXZ 00405fc0 f i libohNetCore:Fifo.obj
 0001:00004fe0       ?MaxBytes@Bwx@OpenHome@@QBEIXZ 00405fe0 f i libohNetCore:Fifo.obj
 0001:00005000       ?Append@Bwx@OpenHome@@QAEXE@Z 00406000 f i libohNetCore:Fifo.obj
 0001:00005030       ??0?$Fifo@E@OpenHome@@QAE@I@Z 00406030 f i libohNetCore:Fifo.obj
 0001:000050c0       ?Write@?$Fifo@E@OpenHome@@QAEXE@Z 004060c0 f i libohNetCore:Fifo.obj
 0001:000050f0       ?Read@?$Fifo@E@OpenHome@@QAEEXZ 004060f0 f i libohNetCore:Fifo.obj
 0001:00005120       ?Write@?$Fifo@E@OpenHome@@QAEXEI@Z 00406120 f i libohNetCore:Fifo.obj
 0001:00005160       ?Read@?$Fifo@E@OpenHome@@QAEEI@Z 00406160 f i libohNetCore:Fifo.obj
 0001:000051b0       ??0Semaphore@OpenHome@@QAE@PBDI@Z 004061b0 f   libohNetCore:Thread.obj
 0001:00005230       ??1Semaphore@OpenHome@@UAE@XZ 00406230 f   libohNetCore:Thread.obj
 0001:00005270       ?Wait@Semaphore@OpenHome@@QAEXXZ 00406270 f   libohNetCore:Thread.obj
 0001:000052a0       ?Wait@Semaphore@OpenHome@@QAEXI@Z 004062a0 f   libohNetCore:Thread.obj
 0001:00005390       ?Clear@Semaphore@OpenHome@@QAE_NXZ 00406390 f   libohNetCore:Thread.obj
 0001:000053d0       ?Signal@Semaphore@OpenHome@@QAEXXZ 004063d0 f   libohNetCore:Thread.obj
 0001:00005400       ??0Mutex@OpenHome@@QAE@PBD@Z 00406400 f   libohNetCore:Thread.obj
 0001:00005490       ??1Mutex@OpenHome@@UAE@XZ  00406490 f   libohNetCore:Thread.obj
 0001:000054d0       ?Wait@Mutex@OpenHome@@QAEXXZ 004064d0 f   libohNetCore:Thread.obj
 0001:00005600       ?Signal@Mutex@OpenHome@@QAEXXZ 00406600 f   libohNetCore:Thread.obj
 0001:00005630       ??0SemaphoreActive@OpenHome@@QAE@AAVSemaphore@1@@Z 00406630 f   libohNetCore:Thread.obj
 0001:00005680       ??0SemaphoreActive@OpenHome@@QAE@AAVThread@1@@Z 00406680 f   libohNetCore:Thread.obj
 0001:000056d0       ?Signal@SemaphoreActive@OpenHome@@QAEXXZ 004066d0 f   libohNetCore:Thread.obj
 0001:00005720       ?Signalled@SemaphoreActive@OpenHome@@QAE_NXZ 00406720 f   libohNetCore:Thread.obj
 0001:000057a0       ?ConsumeOne@SemaphoreActive@OpenHome@@QAEXXZ 004067a0 f   libohNetCore:Thread.obj
 0001:00005800       ?ConsumeAll@SemaphoreActive@OpenHome@@QAEXXZ 00406800 f   libohNetCore:Thread.obj
 0001:00005850       ??0Thread@OpenHome@@IAE@PBDII@Z 00406850 f   libohNetCore:Thread.obj
 0001:00005970       ??1Thread@OpenHome@@UAE@XZ 00406970 f   libohNetCore:Thread.obj
 0001:00005a50       ?Start@Thread@OpenHome@@QAEXXZ 00406a50 f   libohNetCore:Thread.obj
 0001:00005ab0       ?EntryPoint@Thread@OpenHome@@CGXPAX@Z 00406ab0 f   libohNetCore:Thread.obj
 0001:00005c50       ?Wait@Thread@OpenHome@@QAEXXZ 00406c50 f   libohNetCore:Thread.obj
 0001:00005c80       ?Signal@Thread@OpenHome@@QAEXXZ 00406c80 f   libohNetCore:Thread.obj
 0001:00005cb0       ?TryWait@Thread@OpenHome@@QAE_NXZ 00406cb0 f   libohNetCore:Thread.obj
 0001:00005ce0       ?Sleep@Thread@OpenHome@@SGXI@Z 00406ce0 f   libohNetCore:Thread.obj
 0001:00005db0       ?Current@Thread@OpenHome@@SGPAV12@XZ 00406db0 f   libohNetCore:Thread.obj
 0001:00005dd0       ?SupportsPriorities@Thread@OpenHome@@SG_NXZ 00406dd0 f   libohNetCore:Thread.obj
 0001:00005df0       ?CheckForKill@Thread@OpenHome@@IBEXXZ 00406df0 f   libohNetCore:Thread.obj
 0001:00005ec0       ?Kill@Thread@OpenHome@@QAEXXZ 00406ec0 f   libohNetCore:Thread.obj
 0001:00005f30       ?Name@Thread@OpenHome@@QBEABVBrx@2@XZ 00406f30 f   libohNetCore:Thread.obj
 0001:00005f50       ??8Thread@OpenHome@@QBE_NABV01@@Z 00406f50 f   libohNetCore:Thread.obj
 0001:00005f80       ??9Thread@OpenHome@@QBE_NABV01@@Z 00406f80 f   libohNetCore:Thread.obj
 0001:00005fc0       ?Join@Thread@OpenHome@@IAEXXZ 00406fc0 f   libohNetCore:Thread.obj
 0001:00006020       ??0ThreadFunctor@OpenHome@@QAE@PBDVFunctor@1@II@Z 00407020 f   libohNetCore:Thread.obj
 0001:000060d0       ??1ThreadFunctor@OpenHome@@UAE@XZ 004070d0 f   libohNetCore:Thread.obj
 0001:00006150       ?Run@ThreadFunctor@OpenHome@@EAEXXZ 00407150 f   libohNetCore:Thread.obj
 0001:00006190       ??0AutoMutex@OpenHome@@QAE@AAVMutex@1@@Z 00407190 f   libohNetCore:Thread.obj
 0001:000061d0       ??1AutoMutex@OpenHome@@QAE@XZ 004071d0 f   libohNetCore:Thread.obj
 0001:00006200       ??0AtomicInt@OpenHome@@QAE@H@Z 00407200 f   libohNetCore:Thread.obj
 0001:00006240       ??0AtomicInt@OpenHome@@QAE@XZ 00407240 f   libohNetCore:Thread.obj
 0001:00006270       ?Inc@AtomicInt@OpenHome@@QAEHXZ 00407270 f   libohNetCore:Thread.obj
 0001:000062d0       ?Dec@AtomicInt@OpenHome@@QAEHXZ 004072d0 f   libohNetCore:Thread.obj
 0001:00006330       ??0bad_alloc@std@@QAE@XZ   00407330 f i libohNetCore:Thread.obj
 0001:00006380       ??1bad_alloc@std@@UAE@XZ   00407380 f i libohNetCore:Thread.obj
 0001:000063b0       ??_Gbad_alloc@std@@UAEPAXI@Z 004073b0 f i libohNetCore:Thread.obj
 0001:000063b0       ??_Ebad_alloc@std@@UAEPAXI@Z 004073b0 f i libohNetCore:Thread.obj
 0001:000063f0       ?SemaphoreCreate@Os@OpenHome@@SGPAXPBDI@Z 004073f0 f i libohNetCore:Thread.obj
 0001:00006410       ??_ESemaphore@OpenHome@@UAEPAXI@Z 00407410 f i libohNetCore:Thread.obj
 0001:00006410       ??_GSemaphore@OpenHome@@UAEPAXI@Z 00407410 f i libohNetCore:Thread.obj
 0001:00006450       ??0bad_alloc@std@@QAE@ABV01@@Z 00407450 f i libohNetCore:Thread.obj
 0001:00006490       ?SemaphoreDestroy@Os@OpenHome@@SGXPAX@Z 00407490 f i libohNetCore:Thread.obj
 0001:000064b0       ?SemaphoreWait@Os@OpenHome@@SGXPAX@Z 004074b0 f i libohNetCore:Thread.obj
 0001:00006500       ??0Timeout@OpenHome@@QAE@PBDI@Z 00407500 f i libohNetCore:Thread.obj
 0001:00006540       ?SemaphoreTimedWait@Os@OpenHome@@SG_NPAXI@Z 00407540 f i libohNetCore:Thread.obj
 0001:00006590       ??1Timeout@OpenHome@@QAE@XZ 00407590 f i libohNetCore:Thread.obj
 0001:000065c0       ?SemaphoreClear@Os@OpenHome@@SG_NPAX@Z 004075c0 f i libohNetCore:Thread.obj
 0001:000065f0       ?SemaphoreSignal@Os@OpenHome@@SGXPAX@Z 004075f0 f i libohNetCore:Thread.obj
 0001:00006640       ??_EMutex@OpenHome@@UAEPAXI@Z 00407640 f i libohNetCore:Thread.obj
 0001:000066c0       ?MutexCreate@Os@OpenHome@@SGPAXPBD@Z 004076c0 f i libohNetCore:Thread.obj
 0001:000066e0       ?MutexDestroy@Os@OpenHome@@SGXPAX@Z 004076e0 f i libohNetCore:Thread.obj
 0001:00006700       ??0Brhz@OpenHome@@QAE@XZ   00407700 f i libohNetCore:Thread.obj
 0001:00006730       ??0Brv@OpenHome@@IAE@XZ    00407730 f i libohNetCore:Thread.obj
 0001:000067b0       ??1Brx@OpenHome@@UAE@XZ    004077b0 f i libohNetCore:Thread.obj
 0001:000067d0       ??_GBrx@OpenHome@@UAEPAXI@Z 004077d0 f i libohNetCore:Thread.obj
 0001:000067d0       ??_EBrx@OpenHome@@UAEPAXI@Z 004077d0 f i libohNetCore:Thread.obj
 0001:00006810       ??_EBrv@OpenHome@@UAEPAXI@Z 00407810 f i libohNetCore:Thread.obj
 0001:00006890       ??0Brx@OpenHome@@IAE@I@Z   00407890 f i libohNetCore:Thread.obj
 0001:000068c0       ??_EBrhz@OpenHome@@UAEPAXI@Z 004078c0 f i libohNetCore:Thread.obj
 0001:000068c0       ??_GBrhz@OpenHome@@UAEPAXI@Z 004078c0 f i libohNetCore:Thread.obj
 0001:00006900       ??1Brhz@OpenHome@@UAE@XZ   00407900 f i libohNetCore:Thread.obj
 0001:00006930       ?Set@Brhz@OpenHome@@QAEXABVBrx@2@@Z 00407930 f i libohNetCore:Thread.obj
 0001:00006980       ?MutexLock@Os@OpenHome@@SGHPAX@Z 00407980 f i libohNetCore:Thread.obj
 0001:000069b0       ?MutexUnlock@Os@OpenHome@@SGXPAX@Z 004079b0 f i libohNetCore:Thread.obj
 0001:00006a00       ??_GThread@OpenHome@@UAEPAXI@Z 00407a00 f i libohNetCore:Thread.obj
 0001:00006a00       ??_EThread@OpenHome@@UAEPAXI@Z 00407a00 f i libohNetCore:Thread.obj
 0001:00006a40       ??1?$Bws@$04@OpenHome@@UAE@XZ 00407a40 f i libohNetCore:Thread.obj
 0001:00006a70       ??1Bwx@OpenHome@@UAE@XZ    00407a70 f i libohNetCore:Thread.obj
 0001:00006aa0       ?ThreadDestroy@Os@OpenHome@@SGXPAX@Z 00407aa0 f i libohNetCore:Thread.obj
 0001:00006ac0       ?ThreadCreate@Os@OpenHome@@SGPAXPBDIIP6GXPAX@Z1@Z 00407ac0 f i libohNetCore:Thread.obj
 0001:00006af0       ?ThreadTls@Os@OpenHome@@SGPAXXZ 00407af0 f i libohNetCore:Thread.obj
 0001:00006b10       ?ThreadSupportsPriorities@Os@OpenHome@@SG_NXZ 00407b10 f i libohNetCore:Thread.obj
 0001:00006b30       ??0ThreadKill@OpenHome@@QAE@PBDI@Z 00407b30 f i libohNetCore:Thread.obj
 0001:00006b70       ??1ThreadKill@OpenHome@@QAE@XZ 00407b70 f i libohNetCore:Thread.obj
 0001:00006ba0       ??_EThreadFunctor@OpenHome@@UAEPAXI@Z 00407ba0 f i libohNetCore:Thread.obj
 0001:00006ba0       ??_GThreadFunctor@OpenHome@@UAEPAXI@Z 00407ba0 f i libohNetCore:Thread.obj
 0001:00006be0       ??RFunctor@OpenHome@@QBEXXZ 00407be0 f i libohNetCore:Thread.obj
 0001:00006c20       ??0?$Bws@$04@OpenHome@@QAE@XZ 00407c20 f i libohNetCore:Thread.obj
 0001:00006c60       ?Ptr@?$Bws@$04@OpenHome@@UBEPBEXZ 00407c60 f i libohNetCore:Thread.obj
 0001:00006c80       ??_E?$Bws@$04@OpenHome@@UAEPAXI@Z 00407c80 f i libohNetCore:Thread.obj
 0001:00006c80       ??_G?$Bws@$04@OpenHome@@UAEPAXI@Z 00407c80 f i libohNetCore:Thread.obj
 0001:00006cc0       ?SetAssertHandler@OpenHome@@YGP6GXPBDI@ZP6GX0I@Z@Z 00407cc0 f   libohNetCore:Exception.obj
 0001:00006cf0       ?CallAssertHandler@OpenHome@@YGXPBDI@Z 00407cf0 f   libohNetCore:Exception.obj
 0001:00006d20       ?AssertHandlerDefault@OpenHome@@YGXPBDI@Z 00407d20 f   libohNetCore:Exception.obj
 0001:00006e10       ?UnhandledExceptionHandler@OpenHome@@YGXPBD0I@Z 00407e10 f   libohNetCore:Exception.obj
 0001:00006eb0       ?UnhandledExceptionHandler@OpenHome@@YGXAAVException@1@@Z 00407eb0 f   libohNetCore:Exception.obj
 0001:00006f60       ?UnhandledExceptionHandler@OpenHome@@YGXAAVexception@std@@@Z 00407f60 f   libohNetCore:Exception.obj
 0001:00007010       ??0Exception@OpenHome@@QAE@PBD0I@Z 00408010 f   libohNetCore:Exception.obj
 0001:00007050       ??0Exception@OpenHome@@QAE@PBD@Z 00408050 f   libohNetCore:Exception.obj
 0001:00007090       ??1Exception@OpenHome@@QAE@XZ 00408090 f   libohNetCore:Exception.obj
 0001:000070b0       ?Message@Exception@OpenHome@@QAEPBDXZ 004080b0 f   libohNetCore:Exception.obj
 0001:000070d0       ?File@Exception@OpenHome@@QAEPBDXZ 004080d0 f   libohNetCore:Exception.obj
 0001:000070f0       ?Line@Exception@OpenHome@@QAEIXZ 004080f0 f   libohNetCore:Exception.obj
 0001:00007110       ?Quit@Os@OpenHome@@SGXXZ   00408110 f i libohNetCore:Exception.obj
 0001:00007130       ??RFunctorMsg@OpenHome@@QBEXPBD@Z 00408130 f i libohNetCore:Exception.obj
 0001:00007170       ??0NetworkAdapter@OpenHome@@QAE@IIPBD@Z 00408170 f   libohNetCore:OhNet.obj
 0001:00007210       ??1NetworkAdapter@OpenHome@@AAE@XZ 00408210 f   libohNetCore:OhNet.obj
 0001:00007280       ?AddRef@NetworkAdapter@OpenHome@@QAEXXZ 00408280 f   libohNetCore:OhNet.obj
 0001:000072d0       ?RemoveRef@NetworkAdapter@OpenHome@@QAEXXZ 004082d0 f   libohNetCore:OhNet.obj
 0001:00007360       ?Address@NetworkAdapter@OpenHome@@QBEIXZ 00408360 f   libohNetCore:OhNet.obj
 0001:00007380       ?Subnet@NetworkAdapter@OpenHome@@QBEIXZ 00408380 f   libohNetCore:OhNet.obj
 0001:000073a0       ?Mask@NetworkAdapter@OpenHome@@QBEIXZ 004083a0 f   libohNetCore:OhNet.obj
 0001:000073c0       ?ContainsAddress@NetworkAdapter@OpenHome@@QAE_NI@Z 004083c0 f   libohNetCore:OhNet.obj
 0001:00007400       ?Name@NetworkAdapter@OpenHome@@QBEPBDXZ 00408400 f   libohNetCore:OhNet.obj
 0001:00007440       ?FullName@NetworkAdapter@OpenHome@@QBEPADXZ 00408440 f   libohNetCore:OhNet.obj
 0001:000075a0       ?Log@DefaultLogger@Net@OpenHome@@QAEXPBD@Z 004085a0 f   libohNetCore:OhNet.obj
 0001:000075f0       ?LogError@DefaultAsyncHandler@Net@OpenHome@@QAEXAAVIAsync@23@@Z 004085f0 f   libohNetCore:OhNet.obj
 0001:00007650       ?Output@DefaultAsyncHandler@Net@OpenHome@@EAEXPBD0@Z 00408650 f   libohNetCore:OhNet.obj
 0001:00007690       ?Create@InitialisationParams@Net@OpenHome@@SGPAV123@XZ 00408690 f   libohNetCore:OhNet.obj
 0001:00007730       ??1InitialisationParams@Net@OpenHome@@QAE@XZ 00408730 f   libohNetCore:OhNet.obj
 0001:00007790       ?SetLogOutput@InitialisationParams@Net@OpenHome@@QAEXVFunctorMsg@3@@Z 00408790 f   libohNetCore:OhNet.obj
 0001:000077c0       ?SetFatalErrorHandler@InitialisationParams@Net@OpenHome@@QAEXVFunctorMsg@3@@Z 004087c0 f   libohNetCore:OhNet.obj
 0001:00007820       ?SetAsyncBeginHandler@InitialisationParams@Net@OpenHome@@QAEXVFunctorAsync@23@@Z 00408820 f   libohNetCore:OhNet.obj
 0001:00007860       ?SetAsyncEndHandler@InitialisationParams@Net@OpenHome@@QAEXVFunctorAsync@23@@Z 00408860 f   libohNetCore:OhNet.obj
 0001:000078a0       ?SetAsyncErrorHandler@InitialisationParams@Net@OpenHome@@QAEXVFunctorAsync@23@@Z 004088a0 f   libohNetCore:OhNet.obj
 0001:000078e0       ?SetSubnetListChangedListener@InitialisationParams@Net@OpenHome@@QAEXVFunctor@3@@Z 004088e0 f   libohNetCore:OhNet.obj
 0001:00007920       ?SetTcpConnectTimeout@InitialisationParams@Net@OpenHome@@QAEXI@Z 00408920 f   libohNetCore:OhNet.obj
 0001:00007960       ?SetMsearchTime@InitialisationParams@Net@OpenHome@@QAEXI@Z 00408960 f   libohNetCore:OhNet.obj
 0001:000079b0       ?SetMsearchTtl@InitialisationParams@Net@OpenHome@@QAEXI@Z 004089b0 f   libohNetCore:OhNet.obj
 0001:000079f0       ?SetNumEventSessionThreads@InitialisationParams@Net@OpenHome@@QAEXI@Z 004089f0 f   libohNetCore:OhNet.obj
 0001:00007a40       ?SetNumXmlFetcherThreads@InitialisationParams@Net@OpenHome@@QAEXI@Z 00408a40 f   libohNetCore:OhNet.obj
 0001:00007a90       ?SetNumActionInvokerThreads@InitialisationParams@Net@OpenHome@@QAEXI@Z 00408a90 f   libohNetCore:OhNet.obj
 0001:00007ae0       ?SetNumInvocations@InitialisationParams@Net@OpenHome@@QAEXI@Z 00408ae0 f   libohNetCore:OhNet.obj
 0001:00007b20       ?SetNumSubscriberThreads@InitialisationParams@Net@OpenHome@@QAEXI@Z 00408b20 f   libohNetCore:OhNet.obj
 0001:00007b70       ?SetPendingSubscriptionTimeout@InitialisationParams@Net@OpenHome@@QAEXI@Z 00408b70 f   libohNetCore:OhNet.obj
 0001:00007bb0       ?SetFreeExternalCallback@InitialisationParams@Net@OpenHome@@QAEXP6GXPAX@Z@Z 00408bb0 f   libohNetCore:OhNet.obj
 0001:00007bd0       ?SetUseLoopbackNetworkAdapter@InitialisationParams@Net@OpenHome@@QAEXXZ 00408bd0 f   libohNetCore:OhNet.obj
 0001:00007bf0       ?SetDvMaxUpdateTime@InitialisationParams@Net@OpenHome@@QAEXI@Z 00408bf0 f   libohNetCore:OhNet.obj
 0001:00007c10       ?SetDvNumServerThreads@InitialisationParams@Net@OpenHome@@QAEXI@Z 00408c10 f   libohNetCore:OhNet.obj
 0001:00007c60       ?SetDvNumPublisherThreads@InitialisationParams@Net@OpenHome@@QAEXI@Z 00408c60 f   libohNetCore:OhNet.obj
 0001:00007cb0       ?SetDvNumWebSocketThreads@InitialisationParams@Net@OpenHome@@QAEXI@Z 00408cb0 f   libohNetCore:OhNet.obj
 0001:00007d00       ?SetDvWebSocketPort@InitialisationParams@Net@OpenHome@@QAEXI@Z 00408d00 f   libohNetCore:OhNet.obj
 0001:00007d20       ?SetDvEnableBonjour@InitialisationParams@Net@OpenHome@@QAEXXZ 00408d20 f   libohNetCore:OhNet.obj
 0001:00007d40       ?LogOutput@InitialisationParams@Net@OpenHome@@QAEAAVFunctorMsg@3@XZ 00408d40 f   libohNetCore:OhNet.obj
 0001:00007d60       ?FatalErrorHandler@InitialisationParams@Net@OpenHome@@QAEAAVFunctorMsg@3@XZ 00408d60 f   libohNetCore:OhNet.obj
 0001:00007d80       ?AsyncBeginHandler@InitialisationParams@Net@OpenHome@@QAEAAVFunctorAsync@23@XZ 00408d80 f   libohNetCore:OhNet.obj
 0001:00007da0       ?AsyncEndHandler@InitialisationParams@Net@OpenHome@@QAEAAVFunctorAsync@23@XZ 00408da0 f   libohNetCore:OhNet.obj
 0001:00007dc0       ?AsyncErrorHandler@InitialisationParams@Net@OpenHome@@QAEAAVFunctorAsync@23@XZ 00408dc0 f   libohNetCore:OhNet.obj
 0001:00007de0       ?SubnetListChangedListener@InitialisationParams@Net@OpenHome@@QAEAAVFunctor@3@XZ 00408de0 f   libohNetCore:OhNet.obj
 0001:00007e00       ?TcpConnectTimeoutMs@InitialisationParams@Net@OpenHome@@QBEIXZ 00408e00 f   libohNetCore:OhNet.obj
 0001:00007e20       ?MsearchTimeSecs@InitialisationParams@Net@OpenHome@@QBEIXZ 00408e20 f   libohNetCore:OhNet.obj
 0001:00007e40       ?MsearchTtl@InitialisationParams@Net@OpenHome@@QBEIXZ 00408e40 f   libohNetCore:OhNet.obj
 0001:00007e60       ?NumEventSessionThreads@InitialisationParams@Net@OpenHome@@QBEIXZ 00408e60 f   libohNetCore:OhNet.obj
 0001:00007e80       ?NumXmlFetcherThreads@InitialisationParams@Net@OpenHome@@QBEIXZ 00408e80 f   libohNetCore:OhNet.obj
 0001:00007ea0       ?NumActionInvokerThreads@InitialisationParams@Net@OpenHome@@QBEIXZ 00408ea0 f   libohNetCore:OhNet.obj
 0001:00007ec0       ?NumInvocations@InitialisationParams@Net@OpenHome@@QBEIXZ 00408ec0 f   libohNetCore:OhNet.obj
 0001:00007ee0       ?NumSubscriberThreads@InitialisationParams@Net@OpenHome@@QBEIXZ 00408ee0 f   libohNetCore:OhNet.obj
 0001:00007f00       ?PendingSubscriptionTimeoutMs@InitialisationParams@Net@OpenHome@@QBEIXZ 00408f00 f   libohNetCore:OhNet.obj
 0001:00007f20       ?FreeExternal@InitialisationParams@Net@OpenHome@@QBEP6GXPAX@ZXZ 00408f20 f   libohNetCore:OhNet.obj
 0001:00007f40       ?UseLoopbackNetworkAdapter@InitialisationParams@Net@OpenHome@@QBE_NXZ 00408f40 f   libohNetCore:OhNet.obj
 0001:00007f60       ?DvMaxUpdateTimeSecs@InitialisationParams@Net@OpenHome@@QBEIXZ 00408f60 f   libohNetCore:OhNet.obj
 0001:00007f80       ?DvNumServerThreads@InitialisationParams@Net@OpenHome@@QBEIXZ 00408f80 f   libohNetCore:OhNet.obj
 0001:00007fa0       ?DvNumPublisherThreads@InitialisationParams@Net@OpenHome@@QBEIXZ 00408fa0 f   libohNetCore:OhNet.obj
 0001:00007fc0       ?DvNumWebSocketThreads@InitialisationParams@Net@OpenHome@@QBEIXZ 00408fc0 f   libohNetCore:OhNet.obj
 0001:00007fe0       ?DvWebSocketPort@InitialisationParams@Net@OpenHome@@QBEIXZ 00408fe0 f   libohNetCore:OhNet.obj
 0001:00008000       ?DvIsBonjourEnabled@InitialisationParams@Net@OpenHome@@QBE_NXZ 00409000 f   libohNetCore:OhNet.obj
 0001:00008020       ??0InitialisationParams@Net@OpenHome@@AAE@XZ 00409020 f   libohNetCore:OhNet.obj
 0001:00008290       ?FatalErrorHandlerDefault@InitialisationParams@Net@OpenHome@@AAEXPBD@Z 00409290 f   libohNetCore:OhNet.obj
 0001:000082c0       ?Initialise@UpnpLibrary@Net@OpenHome@@SGXPAVInitialisationParams@23@@Z 004092c0 f   libohNetCore:OhNet.obj
 0001:000083c0       ?InitialiseMinimal@UpnpLibrary@Net@OpenHome@@SGXPAVInitialisationParams@23@@Z 004093c0 f   libohNetCore:OhNet.obj
 0001:00008460       ?Close@UpnpLibrary@Net@OpenHome@@SGXXZ 00409460 f   libohNetCore:OhNet.obj
 0001:00008480       ?CreateSubnetList@UpnpLibrary@Net@OpenHome@@SGPAV?$vector@PAVNetworkAdapter@OpenHome@@V?$allocator@PAVNetworkAdapter@OpenHome@@@std@@@std@@XZ 00409480 f   libohNetCore:OhNet.obj
 0001:000084a0       ?DestroySubnetList@UpnpLibrary@Net@OpenHome@@SGXPAV?$vector@PAVNetworkAdapter@OpenHome@@V?$allocator@PAVNetworkAdapter@OpenHome@@@std@@@std@@@Z 004094a0 f   libohNetCore:OhNet.obj
 0001:00008530       ?SetCurrentSubnet@UpnpLibrary@Net@OpenHome@@SGXI@Z 00409530 f   libohNetCore:OhNet.obj
 0001:00008550       ?CurrentSubnetAdapter@UpnpLibrary@Net@OpenHome@@SGPAVNetworkAdapter@3@XZ 00409550 f   libohNetCore:OhNet.obj
 0001:00008570       ??_GNetworkAdapter@OpenHome@@AAEPAXI@Z 00409570 f i libohNetCore:OhNet.obj
 0001:000085b0       ?Append@Bwx@OpenHome@@QAEXD@Z 004095b0 f i libohNetCore:OhNet.obj
 0001:000085e0       ??BFunctorMsg@OpenHome@@QBE_NXZ 004095e0 f i libohNetCore:OhNet.obj
 0001:00008620       ??0Functor@OpenHome@@QAE@XZ 00409620 f i libohNetCore:OhNet.obj
 0001:00008650       ??0FunctorAsync@Net@OpenHome@@QAE@XZ 00409650 f i libohNetCore:OhNet.obj
 0001:00008680       ??0FunctorMsg@OpenHome@@QAE@XZ 00409680 f i libohNetCore:OhNet.obj
 0001:000086b0       ??0DefaultAsyncHandler@Net@OpenHome@@QAE@XZ 004096b0 f i libohNetCore:OhNet.obj
 0001:000086e0       ??0IAsyncOutput@Net@OpenHome@@QAE@XZ 004096e0 f i libohNetCore:OhNet.obj
 0001:00008700       ?Create@Os@OpenHome@@SGHXZ 00409700 f i libohNetCore:OhNet.obj
 0001:00008720       ?Destroy@Os@OpenHome@@SGXXZ 00409720 f i libohNetCore:OhNet.obj
 0001:00008740       ??_G?$vector@PAVNetworkAdapter@OpenHome@@V?$allocator@PAVNetworkAdapter@OpenHome@@@std@@@std@@QAEPAXI@Z 00409740 f i libohNetCore:OhNet.obj
 0001:00008780       ??1?$vector@PAVNetworkAdapter@OpenHome@@V?$allocator@PAVNetworkAdapter@OpenHome@@@std@@@std@@QAE@XZ 00409780 f i libohNetCore:OhNet.obj
 0001:000087f0       ?size@?$vector@PAVNetworkAdapter@OpenHome@@V?$allocator@PAVNetworkAdapter@OpenHome@@@std@@@std@@QBEIXZ 004097f0 f i libohNetCore:OhNet.obj
 0001:00008820       ??A?$vector@PAVNetworkAdapter@OpenHome@@V?$allocator@PAVNetworkAdapter@OpenHome@@@std@@@std@@QAEAAPAVNetworkAdapter@OpenHome@@I@Z 00409820 f i libohNetCore:OhNet.obj
 0001:000088c0       ?_Tidy@?$vector@PAVNetworkAdapter@OpenHome@@V?$allocator@PAVNetworkAdapter@OpenHome@@@std@@@std@@IAEXXZ 004098c0 f i libohNetCore:OhNet.obj
 0001:00008950       ?_Orphan_all@_Container_base12@std@@QAEXXZ 00409950 f i libohNetCore:OhNet.obj
 0001:00008a00       ??1?$_Vector_val@PAVNetworkAdapter@OpenHome@@V?$allocator@PAVNetworkAdapter@OpenHome@@@std@@@std@@QAE@XZ 00409a00 f i libohNetCore:OhNet.obj
 0001:00008ae0       ??1_Container_base12@std@@QAE@XZ 00409ae0 f i libohNetCore:OhNet.obj
 0001:00008b10       ?_Destroy@?$vector@PAVNetworkAdapter@OpenHome@@V?$allocator@PAVNetworkAdapter@OpenHome@@@std@@@std@@IAEXPAPAVNetworkAdapter@OpenHome@@0@Z 00409b10 f i libohNetCore:OhNet.obj
 0001:00008b50       ?deallocate@?$allocator@PAVNetworkAdapter@OpenHome@@@std@@QAEXPAPAVNetworkAdapter@OpenHome@@I@Z 00409b50 f i libohNetCore:OhNet.obj
 0001:00008b80       ?deallocate@?$allocator@U_Container_proxy@std@@@std@@QAEXPAU_Container_proxy@2@I@Z 00409b80 f i libohNetCore:OhNet.obj
 0001:00008bb0       ??$MakeFunctorMsg@VDefaultLogger@Net@OpenHome@@V123@@OpenHome@@YG?AV?$MemberTranslatorMsg@VDefaultLogger@Net@OpenHome@@P8123@AEXPBD@Z@0@AAVDefaultLogger@Net@0@ABQ8230@AEXPBD@Z@Z 00409bb0 f i libohNetCore:OhNet.obj
 0001:00008be0       ??$MakeFunctorAsync@VDefaultAsyncHandler@Net@OpenHome@@V123@@Net@OpenHome@@YG?AV?$MemberTranslatorAsync@VDefaultAsyncHandler@Net@OpenHome@@P8123@AEXAAVIAsync@23@@Z@01@AAVDefaultAsyncHandler@01@ABQ8301@AEXAAVIAsync@01@@Z@Z 00409be0 f i libohNetCore:OhNet.obj
 0001:00008c10       ??$MakeFunctorMsg@VInitialisationParams@Net@OpenHome@@V123@@OpenHome@@YG?AV?$MemberTranslatorMsg@VInitialisationParams@Net@OpenHome@@P8123@AEXPBD@Z@0@AAVInitialisationParams@Net@0@ABQ8230@AEXPBD@Z@Z 00409c10 f i libohNetCore:OhNet.obj
 0001:00008c40       ??$?0PAVNetworkAdapter@OpenHome@@@?$allocator@U_Container_proxy@std@@@std@@QAE@ABV?$allocator@PAVNetworkAdapter@OpenHome@@@1@@Z 00409c40 f i libohNetCore:OhNet.obj
 0001:00008c60       ??$_Dest_val@V?$allocator@U_Container_proxy@std@@@std@@U_Container_proxy@2@@std@@YGXAAV?$allocator@U_Container_proxy@std@@@0@PAU_Container_proxy@0@@Z 00409c60 f i libohNetCore:OhNet.obj
 0001:00008c80       ??$_Destroy_range@V?$allocator@PAVNetworkAdapter@OpenHome@@@std@@@std@@YGXPAPAVNetworkAdapter@OpenHome@@0AAV?$allocator@PAVNetworkAdapter@OpenHome@@@0@@Z 00409c80 f i libohNetCore:OhNet.obj
 0001:00008cd0       ??0?$MemberTranslatorMsg@VDefaultLogger@Net@OpenHome@@P8123@AEXPBD@Z@OpenHome@@QAE@AAVDefaultLogger@Net@1@ABQ8231@AEXPBD@Z@Z 00409cd0 f i libohNetCore:OhNet.obj
 0001:00008d10       ??0?$MemberTranslatorAsync@VDefaultAsyncHandler@Net@OpenHome@@P8123@AEXAAVIAsync@23@@Z@Net@OpenHome@@QAE@AAVDefaultAsyncHandler@12@ABQ8312@AEXAAVIAsync@12@@Z@Z 00409d10 f i libohNetCore:OhNet.obj
 0001:00008d50       ??0FunctorAsync@Net@OpenHome@@IAE@P6GXABV012@AAVIAsync@12@@ZPBX3I@Z 00409d50 f i libohNetCore:OhNet.obj
 0001:00008da0       ??0?$MemberTranslatorMsg@VInitialisationParams@Net@OpenHome@@P8123@AEXPBD@Z@OpenHome@@QAE@AAVInitialisationParams@Net@1@ABQ8231@AEXPBD@Z@Z 00409da0 f i libohNetCore:OhNet.obj
 0001:00008de0       ?destroy@?$allocator@U_Container_proxy@std@@@std@@QAEXPAU_Container_proxy@2@@Z 00409de0 f i libohNetCore:OhNet.obj
 0001:00008e10       ?Thunk@?$MemberTranslatorMsg@VDefaultLogger@Net@OpenHome@@P8123@AEXPBD@Z@OpenHome@@SGXABVFunctorMsg@2@PBD@Z 00409e10 f i libohNetCore:OhNet.obj
 0001:00008e60       ?Thunk@?$MemberTranslatorAsync@VDefaultAsyncHandler@Net@OpenHome@@P8123@AEXAAVIAsync@23@@Z@Net@OpenHome@@SGXABVFunctorAsync@23@AAVIAsync@23@@Z 00409e60 f i libohNetCore:OhNet.obj
 0001:00008eb0       ?Thunk@?$MemberTranslatorMsg@VInitialisationParams@Net@OpenHome@@P8123@AEXPBD@Z@OpenHome@@SGXABVFunctorMsg@2@PBD@Z 00409eb0 f i libohNetCore:OhNet.obj
 0001:00008f00       ??$_Ptr_cat@PAVNetworkAdapter@OpenHome@@PAV12@@std@@YG?AU_Scalar_ptr_iterator_tag@0@PAPAVNetworkAdapter@OpenHome@@0@Z 00409f00 f i libohNetCore:OhNet.obj
 0001:00008f60       ??$_Destroy_range@V?$allocator@PAVNetworkAdapter@OpenHome@@@std@@@std@@YGXPAPAVNetworkAdapter@OpenHome@@0AAV?$allocator@PAVNetworkAdapter@OpenHome@@@0@U_Scalar_ptr_iterator_tag@0@@Z 00409f60 f i libohNetCore:OhNet.obj
 0001:00008f70       ??$_Destroy@U_Container_proxy@std@@@std@@YGXPAU_Container_proxy@0@@Z 00409f70 f i libohNetCore:OhNet.obj
 0001:00008f80       ?Level@Debug@OpenHome@@SGIXZ 00409f80 f   libohNetCore:Debug.obj
 0001:00008f90       ?SetLevel@Debug@OpenHome@@SGXI@Z 00409f90 f   libohNetCore:Debug.obj
 0001:00008fa0       ?TestLevel@Debug@OpenHome@@SG_NI@Z 00409fa0 f   libohNetCore:Debug.obj
 0001:00008fc0       ?BreakBeforeThrow@Debug@OpenHome@@SG_NXZ 00409fc0 f   libohNetCore:Debug.obj
 0001:00008fd0       ?SetBreakBeforeThrow@Debug@OpenHome@@SGX_N@Z 00409fd0 f   libohNetCore:Debug.obj
 0001:00008fe0       ??0AutoLog@@QAE@IPBD@Z     00409fe0 f   libohNetCore:Debug.obj
 0001:00009040       ??1AutoLog@@QAE@XZ         0040a040 f   libohNetCore:Debug.obj
 0001:00009090       _OsCreate@0                0040a090 f   libohNetCore:Os.obj
 0001:00009260       _OsDestroy@0               0040a260 f   libohNetCore:Os.obj
 0001:00009370       _OsQuit@0                  0040a370 f   libohNetCore:Os.obj
 0001:00009390       _OsTimeInUs@0              0040a390 f   libohNetCore:Os.obj
 0001:00009470       _OsConsoleWrite@4          0040a470 f   libohNetCore:Os.obj
 0001:000094b0       _OsGetPlatformNameAndVersion@12 0040a4b0 f   libohNetCore:Os.obj
 0001:00009580       _OsSemaphoreCreate@8       0040a580 f   libohNetCore:Os.obj
 0001:000095c0       _OsSemaphoreDestroy@4      0040a5c0 f   libohNetCore:Os.obj
 0001:000095f0       _OsSemaphoreWait@4         0040a5f0 f   libohNetCore:Os.obj
 0001:00009630       _OsSemaphoreTimedWait@8    0040a630 f   libohNetCore:Os.obj
 0001:00009690       _OsSemaphoreClear@4        0040a690 f   libohNetCore:Os.obj
 0001:000096e0       _OsSemaphoreSignal@4       0040a6e0 f   libohNetCore:Os.obj
 0001:00009730       _OsMutexCreate@4           0040a730 f   libohNetCore:Os.obj
 0001:00009790       _OsMutexDestroy@4          0040a790 f   libohNetCore:Os.obj
 0001:000097e0       _OsMutexLock@4             0040a7e0 f   libohNetCore:Os.obj
 0001:00009850       _OsMutexUnlock@4           0040a850 f   libohNetCore:Os.obj
 0001:000098b0       _threadEntrypoint@4        0040a8b0 f   libohNetCore:Os.obj
 0001:000099b0       _OsThreadCreate@20         0040a9b0 f   libohNetCore:Os.obj
 0001:00009a90       _OsThreadTls@0             0040aa90 f   libohNetCore:Os.obj
 0001:00009ac0       _OsThreadDestroy@4         0040aac0 f   libohNetCore:Os.obj
 0001:00009ae0       _OsThreadSupportsPriorities@0 0040aae0 f   libohNetCore:Os.obj
 0001:00009af0       _OsNetworkCreate@4         0040aaf0 f   libohNetCore:Os.obj
 0001:00009bf0       _OsNetworkBind@12          0040abf0 f   libohNetCore:Os.obj
 0001:00009cf0       _OsNetworkPort@8           0040acf0 f   libohNetCore:Os.obj
 0001:00009dc0       _OsNetworkConnect@16       0040adc0 f   libohNetCore:Os.obj
 0001:0000a050       _OsNetworkSend@12          0040b050 f   libohNetCore:Os.obj
 0001:0000a0f0       _OsNetworkSendTo@20        0040b0f0 f   libohNetCore:Os.obj
 0001:0000a1e0       _OsNetworkReceive@12       0040b1e0 f   libohNetCore:Os.obj
 0001:0000a370       _OsNetworkReceiveFrom@20   0040b370 f   libohNetCore:Os.obj
 0001:0000a570       _OsNetworkInterrupt@8      0040b570 f   libohNetCore:Os.obj
 0001:0000a600       _OsNetworkClose@4          0040b600 f   libohNetCore:Os.obj
 0001:0000a670       _OsNetworkListen@8         0040b670 f   libohNetCore:Os.obj
 0001:0000a6d0       _OsNetworkAccept@4         0040b6d0 f   libohNetCore:Os.obj
 0001:0000a870       _OsNetworkGetHostByName@8  0040b870 f   libohNetCore:Os.obj
 0001:0000a8e0       _OsNetworkSocketSetSendBufBytes@8 0040b8e0 f   libohNetCore:Os.obj
 0001:0000a940       _OsNetworkSocketSetRecvBufBytes@8 0040b940 f   libohNetCore:Os.obj
 0001:0000a9a0       _OsNetworkSocketSetReceiveTimeout@8 0040b9a0 f   libohNetCore:Os.obj
 0001:0000aa50       _OsNetworkTcpSetNoDelay@4  0040ba50 f   libohNetCore:Os.obj
 0001:0000aae0       _OsNetworkSocketSetReuseAddress@4 0040bae0 f   libohNetCore:Os.obj
 0001:0000ab80       _OsNetworkSocketSetMulticastTtl@8 0040bb80 f   libohNetCore:Os.obj
 0001:0000abe0       _OsNetworkSocketMulticastAddMembership@12 0040bbe0 f   libohNetCore:Os.obj
 0001:0000acc0       _OsNetworkSocketMulticastDropMembership@12 0040bcc0 f   libohNetCore:Os.obj
 0001:0000ad60       _OsNetworkListAdapters@8   0040bd60 f   libohNetCore:Os.obj
 0001:0000b180       _OsNetworkFreeInterfaces@4 0040c180 f   libohNetCore:Os.obj
 0001:0000b1d0       _interfaceChangeThread@4   0040c1d0 f   libohNetCore:Os.obj
 0001:0000b330       _OsNetworkSetInterfaceChangedObserver@8 0040c330 f   libohNetCore:Os.obj
 0001:0000b450       _OsNetworkSetTestInterfaceIndex@4 0040c450 f   libohNetCore:Os.obj
 0001:0000b490       ?hexChar@@YGDE@Z           0040c490 f   libohNetCore:Printer.obj
 0001:0000b4d0       ?RegisterOutput@Log@OpenHome@@SGXAAVFunctorMsg@2@@Z 0040c4d0 f   libohNetCore:Printer.obj
 0001:0000b500       ?Print@Log@OpenHome@@SGHABVBrx@2@@Z 0040c500 f   libohNetCore:Printer.obj
 0001:0000b520       ?PrintHex@Log@OpenHome@@SGHABVBrx@2@@Z 0040c520 f   libohNetCore:Printer.obj
 0001:0000b540       ?Print@Log@OpenHome@@SAHPBDZZ 0040c540 f   libohNetCore:Printer.obj
 0001:0000b590       ?Print@Log@OpenHome@@SGHPBDPAD@Z 0040c590 f   libohNetCore:Printer.obj
 0001:0000b5b0       ?PrintHex@Log@OpenHome@@SGHAAVFunctorMsg@2@ABVBrx@2@@Z 0040c5b0 f   libohNetCore:Printer.obj
 0001:0000b910       ?Print@Log@OpenHome@@SGHAAVFunctorMsg@2@ABVBrx@2@@Z 0040c910 f   libohNetCore:Printer.obj
 0001:0000baa0       ?Print@Log@OpenHome@@SGHAAVFunctorMsg@2@PBDPAD@Z 0040caa0 f   libohNetCore:Printer.obj
 0001:0000bbf0       ?DoPrint@Log@OpenHome@@CGHAAVFunctorMsg@2@PBE@Z 0040cbf0 f   libohNetCore:Printer.obj
 0001:0000bc30       ??ABrx@OpenHome@@QBEABEI@Z 0040cc30 f i libohNetCore:Printer.obj
 0001:0000bc60       ??ABwx@OpenHome@@QAEAAEI@Z 0040cc60 f i libohNetCore:Printer.obj
 0001:0000bc90       ??1?$Bws@$0EAB@@OpenHome@@UAE@XZ 0040cc90 f i libohNetCore:Printer.obj
 0001:0000bcc0       ??1Bwn@OpenHome@@UAE@XZ    0040ccc0 f i libohNetCore:Printer.obj
 0001:0000bcf0       ??0?$Bws@$0EAB@@OpenHome@@QAE@I@Z 0040ccf0 f i libohNetCore:Printer.obj
 0001:0000bd30       ?Ptr@?$Bws@$0EAB@@OpenHome@@UBEPBEXZ 0040cd30 f i libohNetCore:Printer.obj
 0001:0000bd50       ??_E?$Bws@$0EAB@@OpenHome@@UAEPAXI@Z 0040cd50 f i libohNetCore:Printer.obj
 0001:0000bd50       ??_G?$Bws@$0EAB@@OpenHome@@UAEPAXI@Z 0040cd50 f i libohNetCore:Printer.obj
 0001:0000bd90       ?Now@Time@OpenHome@@SGIXZ  0040cd90 f   libohNetCore:Timer.obj
 0001:0000bdb0       ?IsBeforeOrAt@Time@OpenHome@@SG_NII@Z 0040cdb0 f   libohNetCore:Timer.obj
 0001:0000bde0       ?IsAfter@Time@OpenHome@@SG_NII@Z 0040cde0 f   libohNetCore:Timer.obj
 0001:0000be10       ?IsInPastOrNow@Time@OpenHome@@SG_NI@Z 0040ce10 f   libohNetCore:Timer.obj
 0001:0000be30       ?IsInFuture@Time@OpenHome@@SG_NI@Z 0040ce30 f   libohNetCore:Timer.obj
 0001:0000be50       ?TimeToWaitFor@Time@OpenHome@@SGHI@Z 0040ce50 f   libohNetCore:Timer.obj
 0001:0000be70       ??0Timer@OpenHome@@QAE@VFunctor@1@@Z 0040ce70 f   libohNetCore:Timer.obj
 0001:0000bec0       ?FireIn@Timer@OpenHome@@QAEXI@Z 0040cec0 f   libohNetCore:Timer.obj
 0001:0000bf30       ?FireAt@Timer@OpenHome@@QAEXI@Z 0040cf30 f   libohNetCore:Timer.obj
 0001:0000bfc0       ?Cancel@Timer@OpenHome@@QAEXXZ 0040cfc0 f   libohNetCore:Timer.obj
 0001:0000c010       ?DoCancel@Timer@OpenHome@@AAEXXZ 0040d010 f   libohNetCore:Timer.obj
 0001:0000c080       ??1Timer@OpenHome@@QAE@XZ  0040d080 f   libohNetCore:Timer.obj
 0001:0000c100       ??0TimerManager@OpenHome@@QAE@XZ 0040d100 f   libohNetCore:Timer.obj
 0001:0000c2f0       ??1TimerManager@OpenHome@@UAE@XZ 0040d2f0 f   libohNetCore:Timer.obj
 0001:0000c430       ?Stop@TimerManager@OpenHome@@QAEXXZ 0040d430 f   libohNetCore:Timer.obj
 0001:0000c510       ?CallbackLock@TimerManager@OpenHome@@QAEXXZ 0040d510 f   libohNetCore:Timer.obj
 0001:0000c540       ?CallbackUnlock@TimerManager@OpenHome@@QAEXXZ 0040d540 f   libohNetCore:Timer.obj
 0001:0000c570       ?HeadChanged@TimerManager@OpenHome@@EAEXAAVQueueSortedEntry@2@@Z 0040d570 f   libohNetCore:Timer.obj
 0001:0000c690       ?Fire@TimerManager@OpenHome@@AAEXXZ 0040d690 f   libohNetCore:Timer.obj
 0001:0000c790       ?Thread@TimerManager@OpenHome@@ABEPAV02@XZ 0040d790 f   libohNetCore:Timer.obj
 0001:0000c7b0       ?Compare@TimerManager@OpenHome@@EAEHAAVQueueSortedEntry@2@0@Z 0040d7b0 f   libohNetCore:Timer.obj
 0001:0000c800       ?Run@TimerManager@OpenHome@@AAEXXZ 0040d800 f   libohNetCore:Timer.obj
 0001:0000c910       ??0QueueSortedEntryTimer@OpenHome@@QAE@XZ 0040d910 f i libohNetCore:Timer.obj
 0001:0000c940       ??_GTimerManager@OpenHome@@UAEPAXI@Z 0040d940 f i libohNetCore:Timer.obj
 0001:0000c940       ??_ETimerManager@OpenHome@@UAEPAXI@Z 0040d940 f i libohNetCore:Timer.obj
 0001:0000c980       ??0?$QueueSorted@VTimer@OpenHome@@@OpenHome@@QAE@XZ 0040d980 f i libohNetCore:Timer.obj
 0001:0000c9b0       ??1?$QueueSorted@VTimer@OpenHome@@@OpenHome@@UAE@XZ 0040d9b0 f i libohNetCore:Timer.obj
 0001:0000c9e0       ??_G?$QueueSorted@VTimer@OpenHome@@@OpenHome@@UAEPAXI@Z 0040d9e0 f i libohNetCore:Timer.obj
 0001:0000c9e0       ??_E?$QueueSorted@VTimer@OpenHome@@@OpenHome@@UAEPAXI@Z 0040d9e0 f i libohNetCore:Timer.obj
 0001:0000ca20       ?Add@?$QueueSorted@VTimer@OpenHome@@@OpenHome@@QAEXAAVTimer@2@@Z 0040da20 f i libohNetCore:Timer.obj
 0001:0000ca50       ?Remove@?$QueueSorted@VTimer@OpenHome@@@OpenHome@@QAEXAAVTimer@2@@Z 0040da50 f i libohNetCore:Timer.obj
 0001:0000ca80       ?RemoveHead@?$QueueSorted@VTimer@OpenHome@@@OpenHome@@QAEAAVTimer@2@XZ 0040da80 f i libohNetCore:Timer.obj
 0001:0000cab0       ?Entry@?$QueueSorted@VTimer@OpenHome@@@OpenHome@@IAEAAVTimer@2@AAVQueueSortedEntry@2@@Z 0040dab0 f i libohNetCore:Timer.obj
 0001:0000cad0       ??$MakeFunctor@VTimerManager@OpenHome@@XV12@@OpenHome@@YG?AV?$MemberTranslator@VTimerManager@OpenHome@@P812@AEXXZ@0@AAVTimerManager@0@ABQ820@AEXXZ@Z 0040dad0 f i libohNetCore:Timer.obj
 0001:0000cb00       ??0?$MemberTranslator@VTimerManager@OpenHome@@P812@AEXXZ@OpenHome@@QAE@AAVTimerManager@1@ABQ821@AEXXZ@Z 0040db00 f i libohNetCore:Timer.obj
 0001:0000cb40       ?Thunk@?$MemberTranslator@VTimerManager@OpenHome@@P812@AEXXZ@OpenHome@@SGXABVFunctor@2@@Z 0040db40 f i libohNetCore:Timer.obj
 0001:0000cb90       ?Empty@Brx@OpenHome@@SGABVBrn@2@XZ 0040db90 f   libohNetCore:Buffer.obj
 0001:0000cba0       ?Equals@Brx@OpenHome@@QBE_NABV12@@Z 0040dba0 f   libohNetCore:Buffer.obj
 0001:0000cc20       ?At@Brx@OpenHome@@QBEABEI@Z 0040dc20 f   libohNetCore:Buffer.obj
 0001:0000cc80       ?Split@Brx@OpenHome@@QBE?AVBrn@2@I@Z 0040dc80 f   libohNetCore:Buffer.obj
 0001:0000cd10       ?Split@Brx@OpenHome@@QBE?AVBrn@2@II@Z 0040dd10 f   libohNetCore:Buffer.obj
 0001:0000cd90       ?BeginsWith@Brx@OpenHome@@QBE_NABV12@@Z 0040dd90 f   libohNetCore:Buffer.obj
 0001:0000ce10       ??0Brn@OpenHome@@QAE@PBD@Z 0040de10 f   libohNetCore:Buffer.obj
 0001:0000ce60       ?Set@Brn@OpenHome@@QAEXPBD@Z 0040de60 f   libohNetCore:Buffer.obj
 0001:0000cea0       ?Ptr@Brn@OpenHome@@UBEPBEXZ 0040dea0 f   libohNetCore:Buffer.obj
 0001:0000cee0       ??1Brv@OpenHome@@UAE@XZ    0040dee0 f   libohNetCore:Buffer.obj
 0001:0000cf20       ?Ptr@Brv@OpenHome@@UBEPBEXZ 0040df20 f   libohNetCore:Buffer.obj
 0001:0000cf40       ??0Brh@OpenHome@@QAE@ABVBrx@1@@Z 0040df40 f   libohNetCore:Buffer.obj
 0001:0000cfc0       ??0Brh@OpenHome@@QAE@PBD@Z 0040dfc0 f   libohNetCore:Buffer.obj
 0001:0000d040       ?Set@Brh@OpenHome@@QAEXPBEI@Z 0040e040 f   libohNetCore:Buffer.obj
 0001:0000d0a0       ?Set@Brh@OpenHome@@QAEXPBD@Z 0040e0a0 f   libohNetCore:Buffer.obj
 0001:0000d0e0       ?TransferTo@Brh@OpenHome@@QAEXAAV12@@Z 0040e0e0 f   libohNetCore:Buffer.obj
 0001:0000d140       ?Extract@Brh@OpenHome@@QAEPADXZ 0040e140 f   libohNetCore:Buffer.obj
 0001:0000d180       ??0Brhz@OpenHome@@QAE@ABVBrx@1@@Z 0040e180 f   libohNetCore:Buffer.obj
 0001:0000d200       ??0Brhz@OpenHome@@QAE@PBD@Z 0040e200 f   libohNetCore:Buffer.obj
 0001:0000d280       ?Set@Brhz@OpenHome@@QAEXPBEI@Z 0040e280 f   libohNetCore:Buffer.obj
 0001:0000d340       ?Set@Brhz@OpenHome@@QAEXPBD@Z 0040e340 f   libohNetCore:Buffer.obj
 0001:0000d380       ?Shrink@Brhz@OpenHome@@QAEXI@Z 0040e380 f   libohNetCore:Buffer.obj
 0001:0000d420       ?TransferTo@Brhz@OpenHome@@QAEXAAVBrh@2@@Z 0040e420 f   libohNetCore:Buffer.obj
 0001:0000d480       ?TransferTo@Brhz@OpenHome@@QAEXAAV12@@Z 0040e480 f   libohNetCore:Buffer.obj
 0001:0000d4e0       ?Transfer@Brhz@OpenHome@@QAEPADXZ 0040e4e0 f   libohNetCore:Buffer.obj
 0001:0000d520       ??0Bwx@OpenHome@@IAE@II@Z  0040e520 f   libohNetCore:Buffer.obj
 0001:0000d5c0       ?Replace@Bwx@OpenHome@@QAEXABVBrx@2@@Z 0040e5c0 f   libohNetCore:Buffer.obj
 0001:0000d650       ?ReplaceThrow@Bwx@OpenHome@@QAEXABVBrx@2@@Z 0040e650 f   libohNetCore:Buffer.obj
 0001:0000d770       ?Replace@Bwx@OpenHome@@QAEXPBEI@Z 0040e770 f   libohNetCore:Buffer.obj
 0001:0000d7e0       ?Replace@Bwx@OpenHome@@QAEXPBD@Z 0040e7e0 f   libohNetCore:Buffer.obj
 0001:0000d870       ?Append@Bwx@OpenHome@@QAEXPBD@Z 0040e870 f   libohNetCore:Buffer.obj
 0001:0000d8b0       ?Append@Bwx@OpenHome@@QAEXABVBrx@2@@Z 0040e8b0 f   libohNetCore:Buffer.obj
 0001:0000d900       ?Append@Bwx@OpenHome@@QAEXPBEI@Z 0040e900 f   libohNetCore:Buffer.obj
 0001:0000d990       ?AppendPrintf@Bwx@OpenHome@@QAAXPBDZZ 0040e990 f   libohNetCore:Buffer.obj
 0001:0000dad0       ?PtrZ@Bwx@OpenHome@@QBEPBDXZ 0040ead0 f   libohNetCore:Buffer.obj
 0001:0000db50       ?Fill@Bwx@OpenHome@@QAEXE@Z 0040eb50 f   libohNetCore:Buffer.obj
 0001:0000dba0       ?SetBytes@Bwx@OpenHome@@QAEXI@Z 0040eba0 f   libohNetCore:Buffer.obj
 0001:0000dbf0       ?At@Bwx@OpenHome@@QAEAAEI@Z 0040ebf0 f   libohNetCore:Buffer.obj
 0001:0000dc50       ??0Bwn@OpenHome@@QAE@XZ    0040ec50 f   libohNetCore:Buffer.obj
 0001:0000dc90       ??0Bwn@OpenHome@@QAE@ABVBwx@1@@Z 0040ec90 f   libohNetCore:Buffer.obj
 0001:0000dd30       ??0Bwn@OpenHome@@QAE@ABV01@@Z 0040ed30 f   libohNetCore:Buffer.obj
 0001:0000ddd0       ??0Bwn@OpenHome@@QAE@PBEI@Z 0040edd0 f   libohNetCore:Buffer.obj
 0001:0000de20       ??0Bwn@OpenHome@@QAE@PBEII@Z 0040ee20 f   libohNetCore:Buffer.obj
 0001:0000de70       ??0Bwn@OpenHome@@QAE@PBDI@Z 0040ee70 f   libohNetCore:Buffer.obj
 0001:0000dec0       ??0Bwn@OpenHome@@QAE@PBDII@Z 0040eec0 f   libohNetCore:Buffer.obj
 0001:0000df10       ?Set@Bwn@OpenHome@@QAEXABVBwx@2@@Z 0040ef10 f   libohNetCore:Buffer.obj
 0001:0000df70       ?Set@Bwn@OpenHome@@QAEXPBEI@Z 0040ef70 f   libohNetCore:Buffer.obj
 0001:0000dfa0       ?Set@Bwn@OpenHome@@QAEXPBEII@Z 0040efa0 f   libohNetCore:Buffer.obj
 0001:0000dff0       ?Ptr@Bwn@OpenHome@@UBEPBEXZ 0040eff0 f   libohNetCore:Buffer.obj
 0001:0000e010       ??0Bwh@OpenHome@@QAE@XZ    0040f010 f   libohNetCore:Buffer.obj
 0001:0000e050       ??0Bwh@OpenHome@@QAE@I@Z   0040f050 f   libohNetCore:Buffer.obj
 0001:0000e0a0       ??0Bwh@OpenHome@@QAE@II@Z  0040f0a0 f   libohNetCore:Buffer.obj
 0001:0000e0f0       ??1Bwh@OpenHome@@UAE@XZ    0040f0f0 f   libohNetCore:Buffer.obj
 0001:0000e130       ?Ptr@Bwh@OpenHome@@UBEPBEXZ 0040f130 f   libohNetCore:Buffer.obj
 0001:0000e170       ??0Bwh@OpenHome@@QAE@PBD@Z 0040f170 f   libohNetCore:Buffer.obj
 0001:0000e210       ??0Bwh@OpenHome@@QAE@PBEI@Z 0040f210 f   libohNetCore:Buffer.obj
 0001:0000e2b0       ??0Bwh@OpenHome@@QAE@ABVBrx@1@@Z 0040f2b0 f   libohNetCore:Buffer.obj
 0001:0000e350       ??0Bwh@OpenHome@@QAE@ABV01@@Z 0040f350 f   libohNetCore:Buffer.obj
 0001:0000e3f0       ?Grow@Bwh@OpenHome@@QAEXI@Z 0040f3f0 f   libohNetCore:Buffer.obj
 0001:0000e4a0       ?TransferTo@Bwh@OpenHome@@QAEXAAVBrh@2@@Z 0040f4a0 f   libohNetCore:Buffer.obj
 0001:0000e500       ?TransferTo@Bwh@OpenHome@@QAEXAAVBrhz@2@@Z 0040f500 f   libohNetCore:Buffer.obj
 0001:0000e560       ?TransferTo@Bwh@OpenHome@@QAEXAAV12@@Z 0040f560 f   libohNetCore:Buffer.obj
 0001:0000e5c0       ??RBufferCmp@OpenHome@@QBE_NABVBrx@1@0@Z 0040f5c0 f   libohNetCore:Buffer.obj
 0001:0000e6c0       ??0Brn@OpenHome@@QAE@PBEI@Z 0040f6c0 f i libohNetCore:Buffer.obj
 0001:0000e700       ??_GBrn@OpenHome@@UAEPAXI@Z 0040f700 f i libohNetCore:Buffer.obj
 0001:0000e700       ??_EBrn@OpenHome@@UAEPAXI@Z 0040f700 f i libohNetCore:Buffer.obj
 0001:0000e740       ??1Brn@OpenHome@@UAE@XZ    0040f740 f i libohNetCore:Buffer.obj
 0001:0000e770       ??_GBrh@OpenHome@@UAEPAXI@Z 0040f770 f i libohNetCore:Buffer.obj
 0001:0000e770       ??_EBrh@OpenHome@@UAEPAXI@Z 0040f770 f i libohNetCore:Buffer.obj
 0001:0000e7b0       ??1Brh@OpenHome@@UAE@XZ    0040f7b0 f i libohNetCore:Buffer.obj
 0001:0000e7e0       ?Set@Brh@OpenHome@@QAEXABVBrx@2@@Z 0040f7e0 f i libohNetCore:Buffer.obj
 0001:0000e830       ??_GBwx@OpenHome@@UAEPAXI@Z 0040f830 f i libohNetCore:Buffer.obj
 0001:0000e830       ??_EBwx@OpenHome@@UAEPAXI@Z 0040f830 f i libohNetCore:Buffer.obj
 0001:0000e870       ??0BufferOverflow@OpenHome@@QAE@PBDI@Z 0040f870 f i libohNetCore:Buffer.obj
 0001:0000e8b0       ??1BufferOverflow@OpenHome@@QAE@XZ 0040f8b0 f i libohNetCore:Buffer.obj
 0001:0000e8e0       ??0BufferFull@OpenHome@@QAE@PBDI@Z 0040f8e0 f i libohNetCore:Buffer.obj
 0001:0000e920       ??1BufferFull@OpenHome@@QAE@XZ 0040f920 f i libohNetCore:Buffer.obj
 0001:0000e950       ??_GBwn@OpenHome@@UAEPAXI@Z 0040f950 f i libohNetCore:Buffer.obj
 0001:0000e950       ??_EBwn@OpenHome@@UAEPAXI@Z 0040f950 f i libohNetCore:Buffer.obj
 0001:0000e990       ??_GBwh@OpenHome@@UAEPAXI@Z 0040f990 f i libohNetCore:Buffer.obj
 0001:0000e990       ??_EBwh@OpenHome@@UAEPAXI@Z 0040f990 f i libohNetCore:Buffer.obj
 0001:0000e9d0       ??0Stack@Net@OpenHome@@QAE@XZ 0040f9d0 f   libohNetCore:Stack.obj
 0001:0000ead0       ??0Stack@Net@OpenHome@@QAE@PAVInitialisationParams@12@@Z 0040fad0 f   libohNetCore:Stack.obj
 0001:0000ecf0       ?Destroy@Stack@Net@OpenHome@@SGXXZ 0040fcf0 f   libohNetCore:Stack.obj
 0001:0000ed50       ??1Stack@Net@OpenHome@@AAE@XZ 0040fd50 f   libohNetCore:Stack.obj
 0001:0000ef60       ?IsInitialised@Stack@Net@OpenHome@@SG_NXZ 0040ff60 f   libohNetCore:Stack.obj
 0001:0000ef80       ?GetVersion@Stack@Net@OpenHome@@SGXAAI0@Z 0040ff80 f   libohNetCore:Stack.obj
 0001:0000efa0       ?TimerManager@Stack@Net@OpenHome@@SGAAV03@XZ 0040ffa0 f   libohNetCore:Stack.obj
 0001:0000efb0       ?Mutex@Stack@Net@OpenHome@@SGAAV03@XZ 0040ffb0 f   libohNetCore:Stack.obj
 0001:0000efc0       ?NetworkAdapterList@Stack@Net@OpenHome@@SGAAV03@XZ 0040ffc0 f   libohNetCore:Stack.obj
 0001:0000efd0       ?MulticastListenerClaim@Stack@Net@OpenHome@@SGAAVSsdpListenerMulticast@23@I@Z 0040ffd0 f   libohNetCore:Stack.obj
 0001:0000f180       ?MulticastListenerRelease@Stack@Net@OpenHome@@SGXI@Z 00410180 f   libohNetCore:Stack.obj
 0001:0000f320       ?SequenceNumber@Stack@Net@OpenHome@@SGIXZ 00410320 f   libohNetCore:Stack.obj
 0001:0000f380       ?InitParams@Stack@Net@OpenHome@@SGAAVInitialisationParams@23@XZ 00410380 f   libohNetCore:Stack.obj
 0001:0000f390       ?AddObject@Stack@Net@OpenHome@@SGXPAXPBD@Z 00410390 f   libohNetCore:Stack.obj
 0001:0000f3c0       ?RemoveObject@Stack@Net@OpenHome@@SGXPAXPBD@Z 004103c0 f   libohNetCore:Stack.obj
 0001:0000f3f0       ?ListObjects@Stack@Net@OpenHome@@SGXXZ 004103f0 f   libohNetCore:Stack.obj
 0001:0000f410       ?DoAddObject@Stack@Net@OpenHome@@AAEXPAXPBD@Z 00410410 f   libohNetCore:Stack.obj
 0001:0000f670       ?DoRemoveObject@Stack@Net@OpenHome@@AAEXPAXPBD@Z 00410670 f   libohNetCore:Stack.obj
 0001:0000f910       ?DoListObjects@Stack@Net@OpenHome@@AAEXXZ 00410910 f   libohNetCore:Stack.obj
 0001:0000fb20       ?SetCpiStack@Stack@Net@OpenHome@@CGXPAVIStack@23@@Z 00410b20 f   libohNetCore:Stack.obj
 0001:0000fb40       ?SetDviStack@Stack@Net@OpenHome@@CGXPAVIStack@23@@Z 00410b40 f   libohNetCore:Stack.obj
 0001:0000fb60       ?CpiStack@Stack@Net@OpenHome@@CGPAVIStack@23@XZ 00410b60 f   libohNetCore:Stack.obj
 0001:0000fb70       ?DviStack@Stack@Net@OpenHome@@CGPAVIStack@23@XZ 00410b70 f   libohNetCore:Stack.obj
 0001:0000fb80       ??0MListener@Stack@Net@OpenHome@@QAE@I@Z 00410b80 f   libohNetCore:Stack.obj
 0001:0000fbc0       ?Listener@MListener@Stack@Net@OpenHome@@QAEAAVSsdpListenerMulticast@34@XZ 00410bc0 f   libohNetCore:Stack.obj
 0001:0000fbe0       ?Interface@MListener@Stack@Net@OpenHome@@QBEIXZ 00410be0 f   libohNetCore:Stack.obj
 0001:0000fc10       ?AddRef@MListener@Stack@Net@OpenHome@@QAEXXZ 00410c10 f   libohNetCore:Stack.obj
 0001:0000fc40       ?RemoveRef@MListener@Stack@Net@OpenHome@@QAE_NXZ 00410c40 f   libohNetCore:Stack.obj
 0001:0000fc80       ??0ObjectType@Stack@Net@OpenHome@@QAE@PBD@Z 00410c80 f   libohNetCore:Stack.obj
 0001:0000fcf0       ??1ObjectType@Stack@Net@OpenHome@@QAE@XZ 00410cf0 f   libohNetCore:Stack.obj
 0001:0000fd80       ??1?$map@VBrn@OpenHome@@PAVObjectType@Stack@Net@2@VBufferCmp@2@V?$allocator@U?$pair@$$CBVBrn@OpenHome@@PAVObjectType@Stack@Net@2@@std@@@std@@@std@@QAE@XZ 00410d80 f i libohNetCore:Stack.obj
 0001:0000fdb0       ??BFunctor@OpenHome@@QBE_NXZ 00410db0 f i libohNetCore:Stack.obj
 0001:0000fdf0       ??_GStack@Net@OpenHome@@AAEPAXI@Z 00410df0 f i libohNetCore:Stack.obj
 0001:0000fe30       ??_GNetworkAdapterList@OpenHome@@QAEPAXI@Z 00410e30 f i libohNetCore:Stack.obj
 0001:0000fe70       ??_GMListener@Stack@Net@OpenHome@@QAEPAXI@Z 00410e70 f i libohNetCore:Stack.obj
 0001:0000feb0       ??1?$_Vector_iterator@V?$_Vector_val@PAVMListener@Stack@Net@OpenHome@@V?$allocator@PAVMListener@Stack@Net@OpenHome@@@std@@@std@@@std@@QAE@XZ 00410eb0 f i libohNetCore:Stack.obj
 0001:0000fee0       ??0?$_Vector_const_iterator@V?$_Vector_val@PAVMListener@Stack@Net@OpenHome@@V?$allocator@PAVMListener@Stack@Net@OpenHome@@@std@@@std@@@std@@QAE@ABV01@@Z 00410ee0 f i libohNetCore:Stack.obj
 0001:0000ff20       ??1?$_Vector_const_iterator@V?$_Vector_val@PAVMListener@Stack@Net@OpenHome@@V?$allocator@PAVMListener@Stack@Net@OpenHome@@@std@@@std@@@std@@QAE@XZ 00410f20 f i libohNetCore:Stack.obj
 0001:0000ff50       ??1MListener@Stack@Net@OpenHome@@QAE@XZ 00410f50 f i libohNetCore:Stack.obj
 0001:0000ff80       ??0?$_Iterator012@Urandom_access_iterator_tag@std@@PAVMListener@Stack@Net@OpenHome@@HPBQAV3456@ABQAV3456@U_Iterator_base12@2@@std@@QAE@ABU01@@Z 00410f80 f i libohNetCore:Stack.obj
 0001:0000ffb0       ??0_Iterator_base12@std@@QAE@ABU01@@Z 00410fb0 f i libohNetCore:Stack.obj
 0001:0000fff0       ??4_Iterator_base12@std@@QAEAAU01@ABU01@@Z 00410ff0 f i libohNetCore:Stack.obj
 0001:00010030       ?_Adopt@_Iterator_base12@std@@QAEXPBU_Container_base12@2@@Z 00411030 f i libohNetCore:Stack.obj
 0001:00010120       ?_Orphan_me@_Iterator_base12@std@@QAEXXZ 00411120 f i libohNetCore:Stack.obj
 0001:000101b0       ??1?$_Iterator012@Urandom_access_iterator_tag@std@@PAVMListener@Stack@Net@OpenHome@@HPBQAV3456@ABQAV3456@U_Iterator_base12@2@@std@@QAE@XZ 004111b0 f i libohNetCore:Stack.obj
 0001:000101e0       ??1_Iterator_base12@std@@QAE@XZ 004111e0 f i libohNetCore:Stack.obj
 0001:00010290       ?Set@Brn@OpenHome@@QAEXABVBrx@2@@Z 00411290 f i libohNetCore:Stack.obj
 0001:000102e0       ?Name@ObjectType@Stack@Net@OpenHome@@QAEABVBrx@4@XZ 004112e0 f i libohNetCore:Stack.obj
 0001:00010300       ?Map@ObjectType@Stack@Net@OpenHome@@QAEAAV?$map@PAXPAXU?$less@PAX@std@@V?$allocator@U?$pair@QAXPAX@std@@@2@@std@@XZ 00411300 f i libohNetCore:Stack.obj
 0001:00010320       ??1?$_Tree_iterator@V?$_Tree_val@V?$_Tmap_traits@VBrn@OpenHome@@PAVObjectType@Stack@Net@2@VBufferCmp@2@V?$allocator@U?$pair@$$CBVBrn@OpenHome@@PAVObjectType@Stack@Net@2@@std@@@std@@$0A@@std@@@std@@@std@@QAE@XZ 00411320 f i libohNetCore:Stack.obj
 0001:00010350       ??1?$pair@VBrn@OpenHome@@PAVObjectType@Stack@Net@2@@std@@QAE@XZ 00411350 f i libohNetCore:Stack.obj
 0001:00010380       ??1?$pair@V?$_Tree_iterator@V?$_Tree_val@V?$_Tmap_traits@VBrn@OpenHome@@PAVObjectType@Stack@Net@2@VBufferCmp@2@V?$allocator@U?$pair@$$CBVBrn@OpenHome@@PAVObjectType@Stack@Net@2@@std@@@std@@$0A@@std@@@std@@@std@@_N@std@@QAE@XZ 00411380 f i libohNetCore:Stack.obj
 0001:000103b0       ??1?$pair@V?$_Tree_iterator@V?$_Tree_val@V?$_Tmap_traits@PAXPAXU?$less@PAX@std@@V?$allocator@U?$pair@QAXPAX@std@@@2@$0A@@std@@@std@@@std@@_N@std@@QAE@XZ 004113b0 f i libohNetCore:Stack.obj
 0001:000103e0       ??1?$_Tree_const_iterator@V?$_Tree_val@V?$_Tmap_traits@VBrn@OpenHome@@PAVObjectType@Stack@Net@2@VBufferCmp@2@V?$allocator@U?$pair@$$CBVBrn@OpenHome@@PAVObjectType@Stack@Net@2@@std@@@std@@$0A@@std@@@std@@@std@@QAE@XZ 004113e0 f i libohNetCore:Stack.obj
 0001:00010410       ??1?$_Pair_base@VBrn@OpenHome@@PAVObjectType@Stack@Net@2@@std@@QAE@XZ 00411410 f i libohNetCore:Stack.obj
 0001:00010440       ??1?$_Pair_base@V?$_Tree_iterator@V?$_Tree_val@V?$_Tmap_traits@VBrn@OpenHome@@PAVObjectType@Stack@Net@2@VBufferCmp@2@V?$allocator@U?$pair@$$CBVBrn@OpenHome@@PAVObjectType@Stack@Net@2@@std@@@std@@$0A@@std@@@std@@@std@@_N@std@@QAE@XZ 00411440 f i libohNetCore:Stack.obj
 0001:00010470       ??1?$_Pair_base@V?$_Tree_iterator@V?$_Tree_val@V?$_Tmap_traits@PAXPAXU?$less@PAX@std@@V?$allocator@U?$pair@QAXPAX@std@@@2@$0A@@std@@@std@@@std@@_N@std@@QAE@XZ 00411470 f i libohNetCore:Stack.obj
 0001:000104a0       ??1?$_Tree_unchecked_const_iterator@V?$_Tree_val@V?$_Tmap_traits@VBrn@OpenHome@@PAVObjectType@Stack@Net@2@VBufferCmp@2@V?$allocator@U?$pair@$$CBVBrn@OpenHome@@PAVObjectType@Stack@Net@2@@std@@@std@@$0A@@std@@@std@@U_Iterator_base12@2@@std@@QAE@XZ 004114a0 f i libohNetCore:Stack.obj
 0001:000104d0       ??1?$_Tree_iterator@V?$_Tree_val@V?$_Tmap_traits@PAXPAXU?$less@PAX@std@@V?$allocator@U?$pair@QAXPAX@std@@@2@$0A@@std@@@std@@@std@@QAE@XZ 004114d0 f i libohNetCore:Stack.obj
 0001:00010500       ??1?$_Iterator012@Ubidirectional_iterator_tag@std@@U?$pair@$$CBVBrn@OpenHome@@PAVObjectType@Stack@Net@2@@2@HPBU32@ABU32@U_Iterator_base12@2@@std@@QAE@XZ 00411500 f i libohNetCore:Stack.obj
 0001:00010530       ??1?$_Tree_const_iterator@V?$_Tree_val@V?$_Tmap_traits@PAXPAXU?$less@PAX@std@@V?$allocator@U?$pair@QAXPAX@std@@@2@$0A@@std@@@std@@@std@@QAE@XZ 00411530 f i libohNetCore:Stack.obj
 0001:00010560       ??1?$_Tree_unchecked_const_iterator@V?$_Tree_val@V?$_Tmap_traits@PAXPAXU?$less@PAX@std@@V?$allocator@U?$pair@QAXPAX@std@@@2@$0A@@std@@@std@@U_Iterator_base12@2@@std@@QAE@XZ 00411560 f i libohNetCore:Stack.obj
 0001:00010590       ??1?$_Iterator012@Ubidirectional_iterator_tag@std@@U?$pair@QAXPAX@2@HPBU32@ABU32@U_Iterator_base12@2@@std@@QAE@XZ 00411590 f i libohNetCore:Stack.obj
 0001:000105c0       ??0?$_Tree_const_iterator@V?$_Tree_val@V?$_Tmap_traits@PAXPAXU?$less@PAX@std@@V?$allocator@U?$pair@QAXPAX@std@@@2@$0A@@std@@@std@@@std@@QAE@ABV01@@Z 004115c0 f i libohNetCore:Stack.obj
 0001:000105f0       ??_GObjectType@Stack@Net@OpenHome@@QAEPAXI@Z 004115f0 f i libohNetCore:Stack.obj
 0001:00010630       ??0?$_Tree_const_iterator@V?$_Tree_val@V?$_Tmap_traits@VBrn@OpenHome@@PAVObjectType@Stack@Net@2@VBufferCmp@2@V?$allocator@U?$pair@$$CBVBrn@OpenHome@@PAVObjectType@Stack@Net@2@@std@@@std@@$0A@@std@@@std@@@std@@QAE@ABV01@@Z 00411630 f i libohNetCore:Stack.obj
 0001:00010660       ??0?$_Tree_unchecked_const_iterator@V?$_Tree_val@V?$_Tmap_traits@PAXPAXU?$less@PAX@std@@V?$allocator@U?$pair@QAXPAX@std@@@2@$0A@@std@@@std@@U_Iterator_base12@2@@std@@QAE@ABV01@@Z 00411660 f i libohNetCore:Stack.obj
 0001:000106a0       ??0?$_Tree_unchecked_const_iterator@V?$_Tree_val@V?$_Tmap_traits@VBrn@OpenHome@@PAVObjectType@Stack@Net@2@VBufferCmp@2@V?$allocator@U?$pair@$$CBVBrn@OpenHome@@PAVObjectType@Stack@Net@2@@std@@@std@@$0A@@std@@@std@@U_Iterator_base12@2@@std@@QAE@ABV01@@Z 004116a0 f i libohNetCore:Stack.obj
 0001:000106e0       ??0?$_Iterator012@Ubidirectional_iterator_tag@std@@U?$pair@QAXPAX@2@HPBU32@ABU32@U_Iterator_base12@2@@std@@QAE@ABU01@@Z 004116e0 f i libohNetCore:Stack.obj
 0001:00010710       ??0?$_Iterator012@Ubidirectional_iterator_tag@std@@U?$pair@$$CBVBrn@OpenHome@@PAVObjectType@Stack@Net@2@@2@HPBU32@ABU32@U_Iterator_base12@2@@std@@QAE@ABU01@@Z 00411710 f i libohNetCore:Stack.obj
 0001:00010740       ??1?$map@PAXPAXU?$less@PAX@std@@V?$allocator@U?$pair@QAXPAX@std@@@2@@std@@QAE@XZ 00411740 f i libohNetCore:Stack.obj
 0001:00010770       ??0?$map@PAXPAXU?$less@PAX@std@@V?$allocator@U?$pair@QAXPAX@std@@@2@@std@@QAE@XZ 00411770 f i libohNetCore:Stack.obj
 0001:000107b0       ??1?$_Tree@V?$_Tmap_traits@PAXPAXU?$less@PAX@std@@V?$allocator@U?$pair@QAXPAX@std@@@2@$0A@@std@@@std@@QAE@XZ 004117b0 f i libohNetCore:Stack.obj
 0001:00010820       ?begin@?$_Tree@V?$_Tmap_traits@PAXPAXU?$less@PAX@std@@V?$allocator@U?$pair@QAXPAX@std@@@2@$0A@@std@@@std@@QAE?AV?$_Tree_iterator@V?$_Tree_val@V?$_Tmap_traits@PAXPAXU?$less@PAX@std@@V?$allocator@U?$pair@QAXPAX@std@@@2@$0A@@std@@@std@@@2@XZ 00411820 f i libohNetCore:Stack.obj
 0001:00010880       ?end@?$_Tree@V?$_Tmap_traits@PAXPAXU?$less@PAX@std@@V?$allocator@U?$pair@QAXPAX@std@@@2@$0A@@std@@@std@@QAE?AV?$_Tree_iterator@V?$_Tree_val@V?$_Tmap_traits@PAXPAXU?$less@PAX@std@@V?$allocator@U?$pair@QAXPAX@std@@@2@$0A@@std@@@std@@@2@XZ 00411880 f i libohNetCore:Stack.obj
 0001:000108d0       ?size@?$_Tree@V?$_Tmap_traits@PAXPAXU?$less@PAX@std@@V?$allocator@U?$pair@QAXPAX@std@@@2@$0A@@std@@@std@@QBEIXZ 004118d0 f i libohNetCore:Stack.obj
 0001:000108f0       ?erase@?$_Tree@V?$_Tmap_traits@PAXPAXU?$less@PAX@std@@V?$allocator@U?$pair@QAXPAX@std@@@2@$0A@@std@@@std@@QAE?AV?$_Tree_iterator@V?$_Tree_val@V?$_Tmap_traits@PAXPAXU?$less@PAX@std@@V?$allocator@U?$pair@QAXPAX@std@@@2@$0A@@std@@@std@@@2@V?$_Tree_const_iterator@V?$_Tree_val@V?$_Tmap_traits@PAXPAXU?$less@PAX@std@@V?$allocator@U?$pair@QAXPAX@std@@@2@$0A@@std@@@std@@@2@@Z 004118f0 f i libohNetCore:Stack.obj
 0001:00011000       ?_Getcont@_Iterator_base12@std@@QBEPBU_Container_base12@2@XZ 00412000 f i libohNetCore:Stack.obj
 0001:00011040       ?find@?$_Tree@V?$_Tmap_traits@PAXPAXU?$less@PAX@std@@V?$allocator@U?$pair@QAXPAX@std@@@2@$0A@@std@@@std@@QAE?AV?$_Tree_iterator@V?$_Tree_val@V?$_Tmap_traits@PAXPAXU?$less@PAX@std@@V?$allocator@U?$pair@QAXPAX@std@@@2@$0A@@std@@@std@@@2@ABQAX@Z 00412040 f i libohNetCore:Stack.obj
 0001:00011220       ??0?$vector@PAVMListener@Stack@Net@OpenHome@@V?$allocator@PAVMListener@Stack@Net@OpenHome@@@std@@@std@@QAE@XZ 00412220 f i libohNetCore:Stack.obj
 0001:00011260       ??1?$vector@PAVMListener@Stack@Net@OpenHome@@V?$allocator@PAVMListener@Stack@Net@OpenHome@@@std@@@std@@QAE@XZ 00412260 f i libohNetCore:Stack.obj
 0001:000112d0       ?begin@?$vector@PAVMListener@Stack@Net@OpenHome@@V?$allocator@PAVMListener@Stack@Net@OpenHome@@@std@@@std@@QAE?AV?$_Vector_iterator@V?$_Vector_val@PAVMListener@Stack@Net@OpenHome@@V?$allocator@PAVMListener@Stack@Net@OpenHome@@@std@@@std@@@2@XZ 004122d0 f i libohNetCore:Stack.obj
 0001:00011320       ?size@?$vector@PAVMListener@Stack@Net@OpenHome@@V?$allocator@PAVMListener@Stack@Net@OpenHome@@@std@@@std@@QBEIXZ 00412320 f i libohNetCore:Stack.obj
 0001:00011350       ??A?$vector@PAVMListener@Stack@Net@OpenHome@@V?$allocator@PAVMListener@Stack@Net@OpenHome@@@std@@@std@@QAEAAPAVMListener@Stack@Net@OpenHome@@I@Z 00412350 f i libohNetCore:Stack.obj
 0001:000113f0       ?push_back@?$vector@PAVMListener@Stack@Net@OpenHome@@V?$allocator@PAVMListener@Stack@Net@OpenHome@@@std@@@std@@QAEXABQAVMListener@Stack@Net@OpenHome@@@Z 004123f0 f i libohNetCore:Stack.obj
 0001:00011500       ?erase@?$vector@PAVMListener@Stack@Net@OpenHome@@V?$allocator@PAVMListener@Stack@Net@OpenHome@@@std@@@std@@QAE?AV?$_Vector_iterator@V?$_Vector_val@PAVMListener@Stack@Net@OpenHome@@V?$allocator@PAVMListener@Stack@Net@OpenHome@@@std@@@std@@@2@V?$_Vector_const_iterator@V?$_Vector_val@PAVMListener@Stack@Net@OpenHome@@V?$allocator@PAVMListener@Stack@Net@OpenHome@@@std@@@std@@@2@@Z 00412500 f i libohNetCore:Stack.obj
 0001:00011630       ??0?$map@VBrn@OpenHome@@PAVObjectType@Stack@Net@2@VBufferCmp@2@V?$allocator@U?$pair@$$CBVBrn@OpenHome@@PAVObjectType@Stack@Net@2@@std@@@std@@@std@@QAE@XZ 00412630 f i libohNetCore:Stack.obj
 0001:00011680       ??1?$_Tree@V?$_Tmap_traits@VBrn@OpenHome@@PAVObjectType@Stack@Net@2@VBufferCmp@2@V?$allocator@U?$pair@$$CBVBrn@OpenHome@@PAVObjectType@Stack@Net@2@@std@@@std@@$0A@@std@@@std@@QAE@XZ 00412680 f i libohNetCore:Stack.obj
 0001:000116f0       ?begin@?$_Tree@V?$_Tmap_traits@VBrn@OpenHome@@PAVObjectType@Stack@Net@2@VBufferCmp@2@V?$allocator@U?$pair@$$CBVBrn@OpenHome@@PAVObjectType@Stack@Net@2@@std@@@std@@$0A@@std@@@std@@QAE?AV?$_Tree_iterator@V?$_Tree_val@V?$_Tmap_traits@VBrn@OpenHome@@PAVObjectType@Stack@Net@2@VBufferCmp@2@V?$allocator@U?$pair@$$CBVBrn@OpenHome@@PAVObjectType@Stack@Net@2@@std@@@std@@$0A@@std@@@std@@@2@XZ 004126f0 f i libohNetCore:Stack.obj
 0001:00011750       ?end@?$_Tree@V?$_Tmap_traits@VBrn@OpenHome@@PAVObjectType@Stack@Net@2@VBufferCmp@2@V?$allocator@U?$pair@$$CBVBrn@OpenHome@@PAVObjectType@Stack@Net@2@@std@@@std@@$0A@@std@@@std@@QAE?AV?$_Tree_iterator@V?$_Tree_val@V?$_Tmap_traits@VBrn@OpenHome@@PAVObjectType@Stack@Net@2@VBufferCmp@2@V?$allocator@U?$pair@$$CBVBrn@OpenHome@@PAVObjectType@Stack@Net@2@@std@@@std@@$0A@@std@@@std@@@2@XZ 00412750 f i libohNetCore:Stack.obj
 0001:000117a0       ?size@?$_Tree@V?$_Tmap_traits@VBrn@OpenHome@@PAVObjectType@Stack@Net@2@VBufferCmp@2@V?$allocator@U?$pair@$$CBVBrn@OpenHome@@PAVObjectType@Stack@Net@2@@std@@@std@@$0A@@std@@@std@@QBEIXZ 004127a0 f i libohNetCore:Stack.obj
 0001:000117c0       ?erase@?$_Tree@V?$_Tmap_traits@VBrn@OpenHome@@PAVObjectType@Stack@Net@2@VBufferCmp@2@V?$allocator@U?$pair@$$CBVBrn@OpenHome@@PAVObjectType@Stack@Net@2@@std@@@std@@$0A@@std@@@std@@QAE?AV?$_Tree_iterator@V?$_Tree_val@V?$_Tmap_traits@VBrn@OpenHome@@PAVObjectType@Stack@Net@2@VBufferCmp@2@V?$allocator@U?$pair@$$CBVBrn@OpenHome@@PAVObjectType@Stack@Net@2@@std@@@std@@$0A@@std@@@std@@@2@V?$_Tree_const_iterator@V?$_Tree_val@V?$_Tmap_traits@VBrn@OpenHome@@PAVObjectType@Stack@Net@2@VBufferCmp@2@V?$allocator@U?$pair@$$CBVBrn@OpenHome@@PAVObjectType@Stack@Net@2@@std@@@std@@$0A@@std@@@std@@@2@@Z 004127c0 f i libohNetCore:Stack.obj
 0001:00011ed0       ?find@?$_Tree@V?$_Tmap_traits@VBrn@OpenHome@@PAVObjectType@Stack@Net@2@VBufferCmp@2@V?$allocator@U?$pair@$$CBVBrn@OpenHome@@PAVObjectType@Stack@Net@2@@std@@@std@@$0A@@std@@@std@@QAE?AV?$_Tree_iterator@V?$_Tree_val@V?$_Tmap_traits@VBrn@OpenHome@@PAVObjectType@Stack@Net@2@VBufferCmp@2@V?$allocator@U?$pair@$$CBVBrn@OpenHome@@PAVObjectType@Stack@Net@2@@std@@@std@@$0A@@std@@@std@@@2@ABVBrn@OpenHome@@@Z 00412ed0 f i libohNetCore:Stack.obj
 0001:000120b0       ??H?$_Vector_iterator@V?$_Vector_val@PAVMListener@Stack@Net@OpenHome@@V?$allocator@PAVMListener@Stack@Net@OpenHome@@@std@@@std@@@std@@QBE?AV01@H@Z 004130b0 f i libohNetCore:Stack.obj
 0001:00012190       ??C?$_Tree_iterator@V?$_Tree_val@V?$_Tmap_traits@VBrn@OpenHome@@PAVObjectType@Stack@Net@2@VBufferCmp@2@V?$allocator@U?$pair@$$CBVBrn@OpenHome@@PAVObjectType@Stack@Net@2@@std@@@std@@$0A@@std@@@std@@@std@@QBEPAU?$pair@$$CBVBrn@OpenHome@@PAVObjectType@Stack@Net@2@@1@XZ 00413190 f i libohNetCore:Stack.obj
 0001:000121c0       ??E?$_Tree_iterator@V?$_Tree_val@V?$_Tmap_traits@VBrn@OpenHome@@PAVObjectType@Stack@Net@2@VBufferCmp@2@V?$allocator@U?$pair@$$CBVBrn@OpenHome@@PAVObjectType@Stack@Net@2@@std@@@std@@$0A@@std@@@std@@@std@@QAE?AV01@H@Z 004131c0 f i libohNetCore:Stack.obj
 0001:00012290       ??9?$_Tree_const_iterator@V?$_Tree_val@V?$_Tmap_traits@VBrn@OpenHome@@PAVObjectType@Stack@Net@2@VBufferCmp@2@V?$allocator@U?$pair@$$CBVBrn@OpenHome@@PAVObjectType@Stack@Net@2@@std@@@std@@$0A@@std@@@std@@@std@@QBE_NABV01@@Z 00413290 f i libohNetCore:Stack.obj
 0001:000122d0       ??C?$_Tree_iterator@V?$_Tree_val@V?$_Tmap_traits@PAXPAXU?$less@PAX@std@@V?$allocator@U?$pair@QAXPAX@std@@@2@$0A@@std@@@std@@@std@@QBEPAU?$pair@QAXPAX@1@XZ 004132d0 f i libohNetCore:Stack.obj
 0001:00012300       ??E?$_Tree_iterator@V?$_Tree_val@V?$_Tmap_traits@PAXPAXU?$less@PAX@std@@V?$allocator@U?$pair@QAXPAX@std@@@2@$0A@@std@@@std@@@std@@QAE?AV01@H@Z 00413300 f i libohNetCore:Stack.obj
 0001:000123d0       ??9?$_Tree_const_iterator@V?$_Tree_val@V?$_Tmap_traits@PAXPAXU?$less@PAX@std@@V?$allocator@U?$pair@QAXPAX@std@@@2@$0A@@std@@@std@@@std@@QBE_NABV01@@Z 004133d0 f i libohNetCore:Stack.obj
 0001:00012410       ??0?$_Tree_iterator@V?$_Tree_val@V?$_Tmap_traits@PAXPAXU?$less@PAX@std@@V?$allocator@U?$pair@QAXPAX@std@@@2@$0A@@std@@@std@@@std@@QAE@ABV01@@Z 00413410 f i libohNetCore:Stack.obj
 0001:00012440       ??0?$_Tree_iterator@V?$_Tree_val@V?$_Tmap_traits@VBrn@OpenHome@@PAVObjectType@Stack@Net@2@VBufferCmp@2@V?$allocator@U?$pair@$$CBVBrn@OpenHome@@PAVObjectType@Stack@Net@2@@std@@@std@@$0A@@std@@@std@@@std@@QAE@ABV01@@Z 00413440 f i libohNetCore:Stack.obj
 0001:00012470       ??0?$_Vector_iterator@V?$_Vector_val@PAVMListener@Stack@Net@OpenHome@@V?$allocator@PAVMListener@Stack@Net@OpenHome@@@std@@@std@@@std@@QAE@ABV01@@Z 00413470 f i libohNetCore:Stack.obj
 0001:000124a0       ??0?$_Tree@V?$_Tmap_traits@PAXPAXU?$less@PAX@std@@V?$allocator@U?$pair@QAXPAX@std@@@2@$0A@@std@@@std@@QAE@ABU?$less@PAX@1@ABV?$allocator@U?$pair@QAXPAX@std@@@1@@Z 004134a0 f i libohNetCore:Stack.obj
 0001:000124f0       ?lower_bound@?$_Tree@V?$_Tmap_traits@PAXPAXU?$less@PAX@std@@V?$allocator@U?$pair@QAXPAX@std@@@2@$0A@@std@@@std@@QAE?AV?$_Tree_iterator@V?$_Tree_val@V?$_Tmap_traits@PAXPAXU?$less@PAX@std@@V?$allocator@U?$pair@QAXPAX@std@@@2@$0A@@std@@@std@@@2@ABQAX@Z 004134f0 f i libohNetCore:Stack.obj
 0001:00012550       ?_Lmost@?$_Tree@V?$_Tmap_traits@PAXPAXU?$less@PAX@std@@V?$allocator@U?$pair@QAXPAX@std@@@2@$0A@@std@@@std@@IBEAAPAU_Node@?$_Tree_nod@V?$_Tmap_traits@PAXPAXU?$less@PAX@std@@V?$allocator@U?$pair@QAXPAX@std@@@2@$0A@@std@@@2@XZ 00413550 f i libohNetCore:Stack.obj
 0001:00012580       ?_Lrotate@?$_Tree@V?$_Tmap_traits@PAXPAXU?$less@PAX@std@@V?$allocator@U?$pair@QAXPAX@std@@@2@$0A@@std@@@std@@IAEXPAU_Node@?$_Tree_nod@V?$_Tmap_traits@PAXPAXU?$less@PAX@std@@V?$allocator@U?$pair@QAXPAX@std@@@2@$0A@@std@@@2@@Z 00413580 f i libohNetCore:Stack.obj
 0001:000126a0       ?_Rmost@?$_Tree@V?$_Tmap_traits@PAXPAXU?$less@PAX@std@@V?$allocator@U?$pair@QAXPAX@std@@@2@$0A@@std@@@std@@IBEAAPAU_Node@?$_Tree_nod@V?$_Tmap_traits@PAXPAXU?$less@PAX@std@@V?$allocator@U?$pair@QAXPAX@std@@@2@$0A@@std@@@2@XZ 004136a0 f i libohNetCore:Stack.obj
 0001:000126d0       ?_Root@?$_Tree@V?$_Tmap_traits@PAXPAXU?$less@PAX@std@@V?$allocator@U?$pair@QAXPAX@std@@@2@$0A@@std@@@std@@IBEAAPAU_Node@?$_Tree_nod@V?$_Tmap_traits@PAXPAXU?$less@PAX@std@@V?$allocator@U?$pair@QAXPAX@std@@@2@$0A@@std@@@2@XZ 004136d0 f i libohNetCore:Stack.obj
 0001:00012700       ?_Rrotate@?$_Tree@V?$_Tmap_traits@PAXPAXU?$less@PAX@std@@V?$allocator@U?$pair@QAXPAX@std@@@2@$0A@@std@@@std@@IAEXPAU_Node@?$_Tree_nod@V?$_Tmap_traits@PAXPAXU?$less@PAX@std@@V?$allocator@U?$pair@QAXPAX@std@@@2@$0A@@std@@@2@@Z 00413700 f i libohNetCore:Stack.obj
 0001:00012820       ?_Orphan_ptr@?$_Tree@V?$_Tmap_traits@PAXPAXU?$less@PAX@std@@V?$allocator@U?$pair@QAXPAX@std@@@2@$0A@@std@@@std@@IBEXAAV12@PAU_Node@?$_Tree_nod@V?$_Tmap_traits@PAXPAXU?$less@PAX@std@@V?$allocator@U?$pair@QAXPAX@std@@@2@$0A@@std@@@2@@Z 00413820 f i libohNetCore:Stack.obj
 0001:00012930       ?_Getpfirst@_Container_base12@std@@QBEPAPAU_Iterator_base12@2@XZ 00413930 f i libohNetCore:Stack.obj
 0001:00012970       ?_Clrcont@_Iterator_base12@std@@QAEXXZ 00413970 f i libohNetCore:Stack.obj
 0001:00012990       ?_Getpnext@_Iterator_base12@std@@QAEPAPAU12@XZ 00413990 f i libohNetCore:Stack.obj
 0001:000129b0       ?_Tidy@?$_Tree@V?$_Tmap_traits@PAXPAXU?$less@PAX@std@@V?$allocator@U?$pair@QAXPAX@std@@@2@$0A@@std@@@std@@IAEXXZ 004139b0 f i libohNetCore:Stack.obj
 0001:00012ab0       ??1?$_Tree_val@V?$_Tmap_traits@PAXPAXU?$less@PAX@std@@V?$allocator@U?$pair@QAXPAX@std@@@2@$0A@@std@@@std@@QAE@XZ 00413ab0 f i libohNetCore:Stack.obj
 0001:00012b20       ?_Color@?$_Tree_val@V?$_Tmap_traits@PAXPAXU?$less@PAX@std@@V?$allocator@U?$pair@QAXPAX@std@@@2@$0A@@std@@@std@@SGAADPAU_Node@?$_Tree_nod@V?$_Tmap_traits@PAXPAXU?$less@PAX@std@@V?$allocator@U?$pair@QAXPAX@std@@@2@$0A@@std@@@2@@Z 00413b20 f i libohNetCore:Stack.obj
 0001:00012b30       ?_Isnil@?$_Tree_val@V?$_Tmap_traits@PAXPAXU?$less@PAX@std@@V?$allocator@U?$pair@QAXPAX@std@@@2@$0A@@std@@@std@@SGAADPAU_Node@?$_Tree_nod@V?$_Tmap_traits@PAXPAXU?$less@PAX@std@@V?$allocator@U?$pair@QAXPAX@std@@@2@$0A@@std@@@2@@Z 00413b30 f i libohNetCore:Stack.obj
 0001:00012b40       ?_Key@?$_Tree_val@V?$_Tmap_traits@PAXPAXU?$less@PAX@std@@V?$allocator@U?$pair@QAXPAX@std@@@2@$0A@@std@@@std@@SGAAPAXPAU_Node@?$_Tree_nod@V?$_Tmap_traits@PAXPAXU?$less@PAX@std@@V?$allocator@U?$pair@QAXPAX@std@@@2@$0A@@std@@@2@@Z 00413b40 f i libohNetCore:Stack.obj
 0001:00012b60       ?_Left@?$_Tree_val@V?$_Tmap_traits@PAXPAXU?$less@PAX@std@@V?$allocator@U?$pair@QAXPAX@std@@@2@$0A@@std@@@std@@SGAAPAU_Node@?$_Tree_nod@V?$_Tmap_traits@PAXPAXU?$less@PAX@std@@V?$allocator@U?$pair@QAXPAX@std@@@2@$0A@@std@@@2@PAU342@@Z 00413b60 f i libohNetCore:Stack.obj
 0001:00012b70       ?_Parent@?$_Tree_val@V?$_Tmap_traits@PAXPAXU?$less@PAX@std@@V?$allocator@U?$pair@QAXPAX@std@@@2@$0A@@std@@@std@@SGAAPAU_Node@?$_Tree_nod@V?$_Tmap_traits@PAXPAXU?$less@PAX@std@@V?$allocator@U?$pair@QAXPAX@std@@@2@$0A@@std@@@2@PAU342@@Z 00413b70 f i libohNetCore:Stack.obj
 0001:00012b80       ?_Right@?$_Tree_val@V?$_Tmap_traits@PAXPAXU?$less@PAX@std@@V?$allocator@U?$pair@QAXPAX@std@@@2@$0A@@std@@@std@@SGAAPAU_Node@?$_Tree_nod@V?$_Tmap_traits@PAXPAXU?$less@PAX@std@@V?$allocator@U?$pair@QAXPAX@std@@@2@$0A@@std@@@2@PAU342@@Z 00413b80 f i libohNetCore:Stack.obj
 0001:00012b90       ?_Myval@?$_Tree_val@V?$_Tmap_traits@PAXPAXU?$less@PAX@std@@V?$allocator@U?$pair@QAXPAX@std@@@2@$0A@@std@@@std@@SGAAU?$pair@QAXPAX@2@PAU_Node@?$_Tree_nod@V?$_Tmap_traits@PAXPAXU?$less@PAX@std@@V?$allocator@U?$pair@QAXPAX@std@@@2@$0A@@std@@@2@@Z 00413b90 f i libohNetCore:Stack.obj
 0001:00012ba0       ?_Max@?$_Tree_val@V?$_Tmap_traits@PAXPAXU?$less@PAX@std@@V?$allocator@U?$pair@QAXPAX@std@@@2@$0A@@std@@@std@@SGPAU_Node@?$_Tree_nod@V?$_Tmap_traits@PAXPAXU?$less@PAX@std@@V?$allocator@U?$pair@QAXPAX@std@@@2@$0A@@std@@@2@PAU342@@Z 00413ba0 f i libohNetCore:Stack.obj
 0001:00012be0       ?_Min@?$_Tree_val@V?$_Tmap_traits@PAXPAXU?$less@PAX@std@@V?$allocator@U?$pair@QAXPAX@std@@@2@$0A@@std@@@std@@SGPAU_Node@?$_Tree_nod@V?$_Tmap_traits@PAXPAXU?$less@PAX@std@@V?$allocator@U?$pair@QAXPAX@std@@@2@$0A@@std@@@2@PAU342@@Z 00413be0 f i libohNetCore:Stack.obj
 0001:00012c20       ??0?$allocator@U?$pair@QAXPAX@std@@@std@@QAE@XZ 00413c20 f i libohNetCore:Stack.obj
 0001:00012c40       ?deallocate@?$allocator@U_Node@?$_Tree_nod@V?$_Tmap_traits@PAXPAXU?$less@PAX@std@@V?$allocator@U?$pair@QAXPAX@std@@@2@$0A@@std@@@std@@@std@@QAEXPAU_Node@?$_Tree_nod@V?$_Tmap_traits@PAXPAXU?$less@PAX@std@@V?$allocator@U?$pair@QAXPAX@std@@@2@$0A@@std@@@2@I@Z 00413c40 f i libohNetCore:Stack.obj
 0001:00012c70       ?_Make_iter@?$vector@PAVMListener@Stack@Net@OpenHome@@V?$allocator@PAVMListener@Stack@Net@OpenHome@@@std@@@std@@QBE?AV?$_Vector_iterator@V?$_Vector_val@PAVMListener@Stack@Net@OpenHome@@V?$allocator@PAVMListener@Stack@Net@OpenHome@@@std@@@std@@@2@V?$_Vector_const_iterator@V?$_Vector_val@PAVMListener@Stack@Net@OpenHome@@V?$allocator@PAVMListener@Stack@Net@OpenHome@@@std@@@std@@@2@@Z 00413c70 f i libohNetCore:Stack.obj
 0001:00012d00       ?_Destroy@?$vector@PAVMListener@Stack@Net@OpenHome@@V?$allocator@PAVMListener@Stack@Net@OpenHome@@@std@@@std@@IAEXPAPAVMListener@Stack@Net@OpenHome@@0@Z 00413d00 f i libohNetCore:Stack.obj
 0001:00012d40       ?_Inside@?$vector@PAVMListener@Stack@Net@OpenHome@@V?$allocator@PAVMListener@Stack@Net@OpenHome@@@std@@@std@@IBE_NPBQAVMListener@Stack@Net@OpenHome@@@Z 00413d40 f i libohNetCore:Stack.obj
 0001:00012d90       ?_Reserve@?$vector@PAVMListener@Stack@Net@OpenHome@@V?$allocator@PAVMListener@Stack@Net@OpenHome@@@std@@@std@@IAEXI@Z 00413d90 f i libohNetCore:Stack.obj
 0001:00012e10       ?_Tidy@?$vector@PAVMListener@Stack@Net@OpenHome@@V?$allocator@PAVMListener@Stack@Net@OpenHome@@@std@@@std@@IAEXXZ 00413e10 f i libohNetCore:Stack.obj
 0001:00012ea0       ?_Orphan_range@?$vector@PAVMListener@Stack@Net@OpenHome@@V?$allocator@PAVMListener@Stack@Net@OpenHome@@@std@@@std@@IBEXPAPAVMListener@Stack@Net@OpenHome@@0@Z 00413ea0 f i libohNetCore:Stack.obj
 0001:00012fb0       ??0?$_Vector_val@PAVMListener@Stack@Net@OpenHome@@V?$allocator@PAVMListener@Stack@Net@OpenHome@@@std@@@std@@QAE@V?$allocator@PAVMListener@Stack@Net@OpenHome@@@1@@Z 00413fb0 f i libohNetCore:Stack.obj
 0001:000130d0       ??0_Container_proxy@std@@QAE@XZ 004140d0 f i libohNetCore:Stack.obj
 0001:00013100       ??0_Container_base12@std@@QAE@XZ 00414100 f i libohNetCore:Stack.obj
 0001:00013120       ??1?$_Vector_val@PAVMListener@Stack@Net@OpenHome@@V?$allocator@PAVMListener@Stack@Net@OpenHome@@@std@@@std@@QAE@XZ 00414120 f i libohNetCore:Stack.obj
 0001:00013200       ??0?$allocator@PAVMListener@Stack@Net@OpenHome@@@std@@QAE@XZ 00414200 f i libohNetCore:Stack.obj
 0001:00013220       ??0?$_Tree@V?$_Tmap_traits@VBrn@OpenHome@@PAVObjectType@Stack@Net@2@VBufferCmp@2@V?$allocator@U?$pair@$$CBVBrn@OpenHome@@PAVObjectType@Stack@Net@2@@std@@@std@@$0A@@std@@@std@@QAE@ABVBufferCmp@OpenHome@@ABV?$allocator@U?$pair@$$CBVBrn@OpenHome@@PAVObjectType@Stack@Net@2@@std@@@1@@Z 00414220 f i libohNetCore:Stack.obj
 0001:00013270       ?lower_bound@?$_Tree@V?$_Tmap_traits@VBrn@OpenHome@@PAVObjectType@Stack@Net@2@VBufferCmp@2@V?$allocator@U?$pair@$$CBVBrn@OpenHome@@PAVObjectType@Stack@Net@2@@std@@@std@@$0A@@std@@@std@@QAE?AV?$_Tree_iterator@V?$_Tree_val@V?$_Tmap_traits@VBrn@OpenHome@@PAVObjectType@Stack@Net@2@VBufferCmp@2@V?$allocator@U?$pair@$$CBVBrn@OpenHome@@PAVObjectType@Stack@Net@2@@std@@@std@@$0A@@std@@@std@@@2@ABVBrn@OpenHome@@@Z 00414270 f i libohNetCore:Stack.obj
 0001:000132d0       ?_Lmost@?$_Tree@V?$_Tmap_traits@VBrn@OpenHome@@PAVObjectType@Stack@Net@2@VBufferCmp@2@V?$allocator@U?$pair@$$CBVBrn@OpenHome@@PAVObjectType@Stack@Net@2@@std@@@std@@$0A@@std@@@std@@IBEAAPAU_Node@?$_Tree_nod@V?$_Tmap_traits@VBrn@OpenHome@@PAVObjectType@Stack@Net@2@VBufferCmp@2@V?$allocator@U?$pair@$$CBVBrn@OpenHome@@PAVObjectType@Stack@Net@2@@std@@@std@@$0A@@std@@@2@XZ 004142d0 f i libohNetCore:Stack.obj
 0001:00013300       ?_Lrotate@?$_Tree@V?$_Tmap_traits@VBrn@OpenHome@@PAVObjectType@Stack@Net@2@VBufferCmp@2@V?$allocator@U?$pair@$$CBVBrn@OpenHome@@PAVObjectType@Stack@Net@2@@std@@@std@@$0A@@std@@@std@@IAEXPAU_Node@?$_Tree_nod@V?$_Tmap_traits@VBrn@OpenHome@@PAVObjectType@Stack@Net@2@VBufferCmp@2@V?$allocator@U?$pair@$$CBVBrn@OpenHome@@PAVObjectType@Stack@Net@2@@std@@@std@@$0A@@std@@@2@@Z 00414300 f i libohNetCore:Stack.obj
 0001:00013420       ?_Rmost@?$_Tree@V?$_Tmap_traits@VBrn@OpenHome@@PAVObjectType@Stack@Net@2@VBufferCmp@2@V?$allocator@U?$pair@$$CBVBrn@OpenHome@@PAVObjectType@Stack@Net@2@@std@@@std@@$0A@@std@@@std@@IBEAAPAU_Node@?$_Tree_nod@V?$_Tmap_traits@VBrn@OpenHome@@PAVObjectType@Stack@Net@2@VBufferCmp@2@V?$allocator@U?$pair@$$CBVBrn@OpenHome@@PAVObjectType@Stack@Net@2@@std@@@std@@$0A@@std@@@2@XZ 00414420 f i libohNetCore:Stack.obj
 0001:00013450       ?_Root@?$_Tree@V?$_Tmap_traits@VBrn@OpenHome@@PAVObjectType@Stack@Net@2@VBufferCmp@2@V?$allocator@U?$pair@$$CBVBrn@OpenHome@@PAVObjectType@Stack@Net@2@@std@@@std@@$0A@@std@@@std@@IBEAAPAU_Node@?$_Tree_nod@V?$_Tmap_traits@VBrn@OpenHome@@PAVObjectType@Stack@Net@2@VBufferCmp@2@V?$allocator@U?$pair@$$CBVBrn@OpenHome@@PAVObjectType@Stack@Net@2@@std@@@std@@$0A@@std@@@2@XZ 00414450 f i libohNetCore:Stack.obj
 0001:00013480       ?_Rrotate@?$_Tree@V?$_Tmap_traits@VBrn@OpenHome@@PAVObjectType@Stack@Net@2@VBufferCmp@2@V?$allocator@U?$pair@$$CBVBrn@OpenHome@@PAVObjectType@Stack@Net@2@@std@@@std@@$0A@@std@@@std@@IAEXPAU_Node@?$_Tree_nod@V?$_Tmap_traits@VBrn@OpenHome@@PAVObjectType@Stack@Net@2@VBufferCmp@2@V?$allocator@U?$pair@$$CBVBrn@OpenHome@@PAVObjectType@Stack@Net@2@@std@@@std@@$0A@@std@@@2@@Z 00414480 f i libohNetCore:Stack.obj
 0001:000135a0       ?_Orphan_ptr@?$_Tree@V?$_Tmap_traits@VBrn@OpenHome@@PAVObjectType@Stack@Net@2@VBufferCmp@2@V?$allocator@U?$pair@$$CBVBrn@OpenHome@@PAVObjectType@Stack@Net@2@@std@@@std@@$0A@@std@@@std@@IBEXAAV12@PAU_Node@?$_Tree_nod@V?$_Tmap_traits@VBrn@OpenHome@@PAVObjectType@Stack@Net@2@VBufferCmp@2@V?$allocator@U?$pair@$$CBVBrn@OpenHome@@PAVObjectType@Stack@Net@2@@std@@@std@@$0A@@std@@@2@@Z 004145a0 f i libohNetCore:Stack.obj
 0001:000136b0       ?_Tidy@?$_Tree@V?$_Tmap_traits@VBrn@OpenHome@@PAVObjectType@Stack@Net@2@VBufferCmp@2@V?$allocator@U?$pair@$$CBVBrn@OpenHome@@PAVObjectType@Stack@Net@2@@std@@@std@@$0A@@std@@@std@@IAEXXZ 004146b0 f i libohNetCore:Stack.obj
 0001:000137b0       ??1?$_Tree_val@V?$_Tmap_traits@VBrn@OpenHome@@PAVObjectType@Stack@Net@2@VBufferCmp@2@V?$allocator@U?$pair@$$CBVBrn@OpenHome@@PAVObjectType@Stack@Net@2@@std@@@std@@$0A@@std@@@std@@QAE@XZ 004147b0 f i libohNetCore:Stack.obj
 0001:00013820       ?_Color@?$_Tree_val@V?$_Tmap_traits@VBrn@OpenHome@@PAVObjectType@Stack@Net@2@VBufferCmp@2@V?$allocator@U?$pair@$$CBVBrn@OpenHome@@PAVObjectType@Stack@Net@2@@std@@@std@@$0A@@std@@@std@@SGAADPAU_Node@?$_Tree_nod@V?$_Tmap_traits@VBrn@OpenHome@@PAVObjectType@Stack@Net@2@VBufferCmp@2@V?$allocator@U?$pair@$$CBVBrn@OpenHome@@PAVObjectType@Stack@Net@2@@std@@@std@@$0A@@std@@@2@@Z 00414820 f i libohNetCore:Stack.obj
 0001:00013830       ?_Isnil@?$_Tree_val@V?$_Tmap_traits@VBrn@OpenHome@@PAVObjectType@Stack@Net@2@VBufferCmp@2@V?$allocator@U?$pair@$$CBVBrn@OpenHome@@PAVObjectType@Stack@Net@2@@std@@@std@@$0A@@std@@@std@@SGAADPAU_Node@?$_Tree_nod@V?$_Tmap_traits@VBrn@OpenHome@@PAVObjectType@Stack@Net@2@VBufferCmp@2@V?$allocator@U?$pair@$$CBVBrn@OpenHome@@PAVObjectType@Stack@Net@2@@std@@@std@@$0A@@std@@@2@@Z 00414830 f i libohNetCore:Stack.obj
 0001:00013840       ?_Key@?$_Tree_val@V?$_Tmap_traits@VBrn@OpenHome@@PAVObjectType@Stack@Net@2@VBufferCmp@2@V?$allocator@U?$pair@$$CBVBrn@OpenHome@@PAVObjectType@Stack@Net@2@@std@@@std@@$0A@@std@@@std@@SGAAVBrn@OpenHome@@PAU_Node@?$_Tree_nod@V?$_Tmap_traits@VBrn@OpenHome@@PAVObjectType@Stack@Net@2@VBufferCmp@2@V?$allocator@U?$pair@$$CBVBrn@OpenHome@@PAVObjectType@Stack@Net@2@@std@@@std@@$0A@@std@@@2@@Z 00414840 f i libohNetCore:Stack.obj
 0001:00013860       ?_Left@?$_Tree_val@V?$_Tmap_traits@VBrn@OpenHome@@PAVObjectType@Stack@Net@2@VBufferCmp@2@V?$allocator@U?$pair@$$CBVBrn@OpenHome@@PAVObjectType@Stack@Net@2@@std@@@std@@$0A@@std@@@std@@SGAAPAU_Node@?$_Tree_nod@V?$_Tmap_traits@VBrn@OpenHome@@PAVObjectType@Stack@Net@2@VBufferCmp@2@V?$allocator@U?$pair@$$CBVBrn@OpenHome@@PAVObjectType@Stack@Net@2@@std@@@std@@$0A@@std@@@2@PAU342@@Z 00414860 f i libohNetCore:Stack.obj
 0001:00013870       ?_Parent@?$_Tree_val@V?$_Tmap_traits@VBrn@OpenHome@@PAVObjectType@Stack@Net@2@VBufferCmp@2@V?$allocator@U?$pair@$$CBVBrn@OpenHome@@PAVObjectType@Stack@Net@2@@std@@@std@@$0A@@std@@@std@@SGAAPAU_Node@?$_Tree_nod@V?$_Tmap_traits@VBrn@OpenHome@@PAVObjectType@Stack@Net@2@VBufferCmp@2@V?$allocator@U?$pair@$$CBVBrn@OpenHome@@PAVObjectType@Stack@Net@2@@std@@@std@@$0A@@std@@@2@PAU342@@Z 00414870 f i libohNetCore:Stack.obj
 0001:00013880       ?_Right@?$_Tree_val@V?$_Tmap_traits@VBrn@OpenHome@@PAVObjectType@Stack@Net@2@VBufferCmp@2@V?$allocator@U?$pair@$$CBVBrn@OpenHome@@PAVObjectType@Stack@Net@2@@std@@@std@@$0A@@std@@@std@@SGAAPAU_Node@?$_Tree_nod@V?$_Tmap_traits@VBrn@OpenHome@@PAVObjectType@Stack@Net@2@VBufferCmp@2@V?$allocator@U?$pair@$$CBVBrn@OpenHome@@PAVObjectType@Stack@Net@2@@std@@@std@@$0A@@std@@@2@PAU342@@Z 00414880 f i libohNetCore:Stack.obj
 0001:00013890       ?_Myval@?$_Tree_val@V?$_Tmap_traits@VBrn@OpenHome@@PAVObjectType@Stack@Net@2@VBufferCmp@2@V?$allocator@U?$pair@$$CBVBrn@OpenHome@@PAVObjectType@Stack@Net@2@@std@@@std@@$0A@@std@@@std@@SGAAU?$pair@$$CBVBrn@OpenHome@@PAVObjectType@Stack@Net@2@@2@PAU_Node@?$_Tree_nod@V?$_Tmap_traits@VBrn@OpenHome@@PAVObjectType@Stack@Net@2@VBufferCmp@2@V?$allocator@U?$pair@$$CBVBrn@OpenHome@@PAVObjectType@Stack@Net@2@@std@@@std@@$0A@@std@@@2@@Z 00414890 f i libohNetCore:Stack.obj
 0001:000138a0       ?_Max@?$_Tree_val@V?$_Tmap_traits@VBrn@OpenHome@@PAVObjectType@Stack@Net@2@VBufferCmp@2@V?$allocator@U?$pair@$$CBVBrn@OpenHome@@PAVObjectType@Stack@Net@2@@std@@@std@@$0A@@std@@@std@@SGPAU_Node@?$_Tree_nod@V?$_Tmap_traits@VBrn@OpenHome@@PAVObjectType@Stack@Net@2@VBufferCmp@2@V?$allocator@U?$pair@$$CBVBrn@OpenHome@@PAVObjectType@Stack@Net@2@@std@@@std@@$0A@@std@@@2@PAU342@@Z 004148a0 f i libohNetCore:Stack.obj
 0001:000138e0       ?_Min@?$_Tree_val@V?$_Tmap_traits@VBrn@OpenHome@@PAVObjectType@Stack@Net@2@VBufferCmp@2@V?$allocator@U?$pair@$$CBVBrn@OpenHome@@PAVObjectType@Stack@Net@2@@std@@@std@@$0A@@std@@@std@@SGPAU_Node@?$_Tree_nod@V?$_Tmap_traits@VBrn@OpenHome@@PAVObjectType@Stack@Net@2@VBufferCmp@2@V?$allocator@U?$pair@$$CBVBrn@OpenHome@@PAVObjectType@Stack@Net@2@@std@@@std@@$0A@@std@@@2@PAU342@@Z 004148e0 f i libohNetCore:Stack.obj
 0001:00013920       ??0?$allocator@U?$pair@$$CBVBrn@OpenHome@@PAVObjectType@Stack@Net@2@@std@@@std@@QAE@XZ 00414920 f i libohNetCore:Stack.obj
 0001:00013940       ?deallocate@?$allocator@U_Node@?$_Tree_nod@V?$_Tmap_traits@VBrn@OpenHome@@PAVObjectType@Stack@Net@2@VBufferCmp@2@V?$allocator@U?$pair@$$CBVBrn@OpenHome@@PAVObjectType@Stack@Net@2@@std@@@std@@$0A@@std@@@std@@@std@@QAEXPAU_Node@?$_Tree_nod@V?$_Tmap_traits@VBrn@OpenHome@@PAVObjectType@Stack@Net@2@VBufferCmp@2@V?$allocator@U?$pair@$$CBVBrn@OpenHome@@PAVObjectType@Stack@Net@2@@std@@@std@@$0A@@std@@@2@I@Z 00414940 f i libohNetCore:Stack.obj
 0001:00013970       ??0?$_Vector_iterator@V?$_Vector_val@PAVMListener@Stack@Net@OpenHome@@V?$allocator@PAVMListener@Stack@Net@OpenHome@@@std@@@std@@@std@@QAE@PAPAVMListener@Stack@Net@OpenHome@@PBU_Container_base12@1@@Z 00414970 f i libohNetCore:Stack.obj
 0001:000139b0       ??Y?$_Vector_iterator@V?$_Vector_val@PAVMListener@Stack@Net@OpenHome@@V?$allocator@PAVMListener@Stack@Net@OpenHome@@@std@@@std@@@std@@QAEAAV01@H@Z 004149b0 f i libohNetCore:Stack.obj
 0001:000139e0       ??0?$_Tree_iterator@V?$_Tree_val@V?$_Tmap_traits@VBrn@OpenHome@@PAVObjectType@Stack@Net@2@VBufferCmp@2@V?$allocator@U?$pair@$$CBVBrn@OpenHome@@PAVObjectType@Stack@Net@2@@std@@@std@@$0A@@std@@@std@@@std@@QAE@PAU_Node@?$_Tree_nod@V?$_Tmap_traits@VBrn@OpenHome@@PAVObjectType@Stack@Net@2@VBufferCmp@2@V?$allocator@U?$pair@$$CBVBrn@OpenHome@@PAVObjectType@Stack@Net@2@@std@@@std@@$0A@@std@@@1@PBV?$_Tree_val@V?$_Tmap_traits@VBrn@OpenHome@@PAVObjectType@Stack@Net@2@VBufferCmp@2@V?$allocator@U?$pair@$$CBVBrn@OpenHome@@PAVObjectType@Stack@Net@2@@std@@@std@@$0A@@std@@@1@@Z 004149e0 f i libohNetCore:Stack.obj
 0001:00013a20       ??D?$_Tree_iterator@V?$_Tree_val@V?$_Tmap_traits@VBrn@OpenHome@@PAVObjectType@Stack@Net@2@VBufferCmp@2@V?$allocator@U?$pair@$$CBVBrn@OpenHome@@PAVObjectType@Stack@Net@2@@std@@@std@@$0A@@std@@@std@@@std@@QBEAAU?$pair@$$CBVBrn@OpenHome@@PAVObjectType@Stack@Net@2@@1@XZ 00414a20 f i libohNetCore:Stack.obj
 0001:00013a50       ??E?$_Tree_iterator@V?$_Tree_val@V?$_Tmap_traits@VBrn@OpenHome@@PAVObjectType@Stack@Net@2@VBufferCmp@2@V?$allocator@U?$pair@$$CBVBrn@OpenHome@@PAVObjectType@Stack@Net@2@@std@@@std@@$0A@@std@@@std@@@std@@QAEAAV01@XZ 00414a50 f i libohNetCore:Stack.obj
 0001:00013a80       ??E?$_Tree_const_iterator@V?$_Tree_val@V?$_Tmap_traits@VBrn@OpenHome@@PAVObjectType@Stack@Net@2@VBufferCmp@2@V?$allocator@U?$pair@$$CBVBrn@OpenHome@@PAVObjectType@Stack@Net@2@@std@@@std@@$0A@@std@@@std@@@std@@QAEAAV01@XZ 00414a80 f i libohNetCore:Stack.obj
 0001:00013b40       ??8?$_Tree_const_iterator@V?$_Tree_val@V?$_Tmap_traits@VBrn@OpenHome@@PAVObjectType@Stack@Net@2@VBufferCmp@2@V?$allocator@U?$pair@$$CBVBrn@OpenHome@@PAVObjectType@Stack@Net@2@@std@@@std@@$0A@@std@@@std@@@std@@QBE_NABV01@@Z 00414b40 f i libohNetCore:Stack.obj
 0001:00013c00       ?_Mynode@?$_Tree_unchecked_const_iterator@V?$_Tree_val@V?$_Tmap_traits@VBrn@OpenHome@@PAVObjectType@Stack@Net@2@VBufferCmp@2@V?$allocator@U?$pair@$$CBVBrn@OpenHome@@PAVObjectType@Stack@Net@2@@std@@@std@@$0A@@std@@@std@@U_Iterator_base12@2@@std@@QBEPAU_Node@?$_Tree_nod@V?$_Tmap_traits@VBrn@OpenHome@@PAVObjectType@Stack@Net@2@VBufferCmp@2@V?$allocator@U?$pair@$$CBVBrn@OpenHome@@PAVObjectType@Stack@Net@2@@std@@@std@@$0A@@std@@@2@XZ 00414c00 f i libohNetCore:Stack.obj
 0001:00013c20       ??0?$_Tree_iterator@V?$_Tree_val@V?$_Tmap_traits@PAXPAXU?$less@PAX@std@@V?$allocator@U?$pair@QAXPAX@std@@@2@$0A@@std@@@std@@@std@@QAE@PAU_Node@?$_Tree_nod@V?$_Tmap_traits@PAXPAXU?$less@PAX@std@@V?$allocator@U?$pair@QAXPAX@std@@@2@$0A@@std@@@1@PBV?$_Tree_val@V?$_Tmap_traits@PAXPAXU?$less@PAX@std@@V?$allocator@U?$pair@QAXPAX@std@@@2@$0A@@std@@@1@@Z 00414c20 f i libohNetCore:Stack.obj
 0001:00013c60       ??D?$_Tree_iterator@V?$_Tree_val@V?$_Tmap_traits@PAXPAXU?$less@PAX@std@@V?$allocator@U?$pair@QAXPAX@std@@@2@$0A@@std@@@std@@@std@@QBEAAU?$pair@QAXPAX@1@XZ 00414c60 f i libohNetCore:Stack.obj
 0001:00013c90       ??E?$_Tree_iterator@V?$_Tree_val@V?$_Tmap_traits@PAXPAXU?$less@PAX@std@@V?$allocator@U?$pair@QAXPAX@std@@@2@$0A@@std@@@std@@@std@@QAEAAV01@XZ 00414c90 f i libohNetCore:Stack.obj
 0001:00013cc0       ??E?$_Tree_const_iterator@V?$_Tree_val@V?$_Tmap_traits@PAXPAXU?$less@PAX@std@@V?$allocator@U?$pair@QAXPAX@std@@@2@$0A@@std@@@std@@@std@@QAEAAV01@XZ 00414cc0 f i libohNetCore:Stack.obj
 0001:00013d80       ??8?$_Tree_const_iterator@V?$_Tree_val@V?$_Tmap_traits@PAXPAXU?$less@PAX@std@@V?$allocator@U?$pair@QAXPAX@std@@@2@$0A@@std@@@std@@@std@@QBE_NABV01@@Z 00414d80 f i libohNetCore:Stack.obj
 0001:00013e40       ?_Mynode@?$_Tree_unchecked_const_iterator@V?$_Tree_val@V?$_Tmap_traits@PAXPAXU?$less@PAX@std@@V?$allocator@U?$pair@QAXPAX@std@@@2@$0A@@std@@@std@@U_Iterator_base12@2@@std@@QBEPAU_Node@?$_Tree_nod@V?$_Tmap_traits@PAXPAXU?$less@PAX@std@@V?$allocator@U?$pair@QAXPAX@std@@@2@$0A@@std@@@2@XZ 00414e40 f i libohNetCore:Stack.obj
 0001:00013e60       ?erase@?$_Tree@V?$_Tmap_traits@PAXPAXU?$less@PAX@std@@V?$allocator@U?$pair@QAXPAX@std@@@2@$0A@@std@@@std@@QAE?AV?$_Tree_iterator@V?$_Tree_val@V?$_Tmap_traits@PAXPAXU?$less@PAX@std@@V?$allocator@U?$pair@QAXPAX@std@@@2@$0A@@std@@@std@@@2@V?$_Tree_const_iterator@V?$_Tree_val@V?$_Tmap_traits@PAXPAXU?$less@PAX@std@@V?$allocator@U?$pair@QAXPAX@std@@@2@$0A@@std@@@std@@@2@0@Z 00414e60 f i libohNetCore:Stack.obj
 0001:00014060       ?_Lbound@?$_Tree@V?$_Tmap_traits@PAXPAXU?$less@PAX@std@@V?$allocator@U?$pair@QAXPAX@std@@@2@$0A@@std@@@std@@IAEPAU_Node@?$_Tree_nod@V?$_Tmap_traits@PAXPAXU?$less@PAX@std@@V?$allocator@U?$pair@QAXPAX@std@@@2@$0A@@std@@@2@ABQAX@Z 00415060 f i libohNetCore:Stack.obj
 0001:00014110       ??0?$_Tree_val@V?$_Tmap_traits@PAXPAXU?$less@PAX@std@@V?$allocator@U?$pair@QAXPAX@std@@@2@$0A@@std@@@std@@QAE@ABU?$less@PAX@1@V?$allocator@U?$pair@QAXPAX@std@@@1@@Z 00415110 f i libohNetCore:Stack.obj
 0001:00014210       ??1?$_Tree_nod@V?$_Tmap_traits@PAXPAXU?$less@PAX@std@@V?$allocator@U?$pair@QAXPAX@std@@@2@$0A@@std@@@std@@QAE@XZ 00415210 f i libohNetCore:Stack.obj
 0001:000142f0       ??0?$allocator@U?$pair@QAXPAX@std@@@std@@QAE@ABV01@@Z 004152f0 f i libohNetCore:Stack.obj
 0001:00014310       ?reserve@?$vector@PAVMListener@Stack@Net@OpenHome@@V?$allocator@PAVMListener@Stack@Net@OpenHome@@@std@@@std@@QAEXI@Z 00415310 f i libohNetCore:Stack.obj
 0001:00014480       ?capacity@?$vector@PAVMListener@Stack@Net@OpenHome@@V?$allocator@PAVMListener@Stack@Net@OpenHome@@@std@@@std@@QBEIXZ 00415480 f i libohNetCore:Stack.obj
 0001:000144b0       ?max_size@?$vector@PAVMListener@Stack@Net@OpenHome@@V?$allocator@PAVMListener@Stack@Net@OpenHome@@@std@@@std@@QBEIXZ 004154b0 f i libohNetCore:Stack.obj
 0001:000144e0       ?_Grow_to@?$vector@PAVMListener@Stack@Net@OpenHome@@V?$allocator@PAVMListener@Stack@Net@OpenHome@@@std@@@std@@IBEII@Z 004154e0 f i libohNetCore:Stack.obj
 0001:00014560       ?_Xlen@?$vector@PAVMListener@Stack@Net@OpenHome@@V?$allocator@PAVMListener@Stack@Net@OpenHome@@@std@@@std@@IBEXXZ 00415560 f i libohNetCore:Stack.obj
 0001:00014590       ??0?$allocator@PAVMListener@Stack@Net@OpenHome@@@std@@QAE@ABV01@@Z 00415590 f i libohNetCore:Stack.obj
 0001:000145b0       ?deallocate@?$allocator@PAVMListener@Stack@Net@OpenHome@@@std@@QAEXPAPAVMListener@Stack@Net@OpenHome@@I@Z 004155b0 f i libohNetCore:Stack.obj
 0001:000145e0       ?erase@?$_Tree@V?$_Tmap_traits@VBrn@OpenHome@@PAVObjectType@Stack@Net@2@VBufferCmp@2@V?$allocator@U?$pair@$$CBVBrn@OpenHome@@PAVObjectType@Stack@Net@2@@std@@@std@@$0A@@std@@@std@@QAE?AV?$_Tree_iterator@V?$_Tree_val@V?$_Tmap_traits@VBrn@OpenHome@@PAVObjectType@Stack@Net@2@VBufferCmp@2@V?$allocator@U?$pair@$$CBVBrn@OpenHome@@PAVObjectType@Stack@Net@2@@std@@@std@@$0A@@std@@@std@@@2@V?$_Tree_const_iterator@V?$_Tree_val@V?$_Tmap_traits@VBrn@OpenHome@@PAVObjectType@Stack@Net@2@VBufferCmp@2@V?$allocator@U?$pair@$$CBVBrn@OpenHome@@PAVObjectType@Stack@Net@2@@std@@@std@@$0A@@std@@@std@@@2@0@Z 004155e0 f i libohNetCore:Stack.obj
 0001:000147e0       ?_Lbound@?$_Tree@V?$_Tmap_traits@VBrn@OpenHome@@PAVObjectType@Stack@Net@2@VBufferCmp@2@V?$allocator@U?$pair@$$CBVBrn@OpenHome@@PAVObjectType@Stack@Net@2@@std@@@std@@$0A@@std@@@std@@IAEPAU_Node@?$_Tree_nod@V?$_Tmap_traits@VBrn@OpenHome@@PAVObjectType@Stack@Net@2@VBufferCmp@2@V?$allocator@U?$pair@$$CBVBrn@OpenHome@@PAVObjectType@Stack@Net@2@@std@@@std@@$0A@@std@@@2@ABVBrn@OpenHome@@@Z 004157e0 f i libohNetCore:Stack.obj
 0001:00014890       ??0?$_Tree_val@V?$_Tmap_traits@VBrn@OpenHome@@PAVObjectType@Stack@Net@2@VBufferCmp@2@V?$allocator@U?$pair@$$CBVBrn@OpenHome@@PAVObjectType@Stack@Net@2@@std@@@std@@$0A@@std@@@std@@QAE@ABVBufferCmp@OpenHome@@V?$allocator@U?$pair@$$CBVBrn@OpenHome@@PAVObjectType@Stack@Net@2@@std@@@1@@Z 00415890 f i libohNetCore:Stack.obj
 0001:00014990       ??1?$_Tree_nod@V?$_Tmap_traits@VBrn@OpenHome@@PAVObjectType@Stack@Net@2@VBufferCmp@2@V?$allocator@U?$pair@$$CBVBrn@OpenHome@@PAVObjectType@Stack@Net@2@@std@@@std@@$0A@@std@@@std@@QAE@XZ 00415990 f i libohNetCore:Stack.obj
 0001:00014a70       ??0?$allocator@U?$pair@$$CBVBrn@OpenHome@@PAVObjectType@Stack@Net@2@@std@@@std@@QAE@ABV01@@Z 00415a70 f i libohNetCore:Stack.obj
 0001:00014a90       ??0?$_Vector_const_iterator@V?$_Vector_val@PAVMListener@Stack@Net@OpenHome@@V?$allocator@PAVMListener@Stack@Net@OpenHome@@@std@@@std@@@std@@QAE@PAPAVMListener@Stack@Net@OpenHome@@PBU_Container_base12@1@@Z 00415a90 f i libohNetCore:Stack.obj
 0001:00014b10       ??Y?$_Vector_const_iterator@V?$_Vector_val@PAVMListener@Stack@Net@OpenHome@@V?$allocator@PAVMListener@Stack@Net@OpenHome@@@std@@@std@@@std@@QAEAAV01@H@Z 00415b10 f i libohNetCore:Stack.obj
 0001:00014bf0       ??0?$_Tree_const_iterator@V?$_Tree_val@V?$_Tmap_traits@VBrn@OpenHome@@PAVObjectType@Stack@Net@2@VBufferCmp@2@V?$allocator@U?$pair@$$CBVBrn@OpenHome@@PAVObjectType@Stack@Net@2@@std@@@std@@$0A@@std@@@std@@@std@@QAE@PAU_Node@?$_Tree_nod@V?$_Tmap_traits@VBrn@OpenHome@@PAVObjectType@Stack@Net@2@VBufferCmp@2@V?$allocator@U?$pair@$$CBVBrn@OpenHome@@PAVObjectType@Stack@Net@2@@std@@@std@@$0A@@std@@@1@PBV?$_Tree_val@V?$_Tmap_traits@VBrn@OpenHome@@PAVObjectType@Stack@Net@2@VBufferCmp@2@V?$allocator@U?$pair@$$CBVBrn@OpenHome@@PAVObjectType@Stack@Net@2@@std@@@std@@$0A@@std@@@1@@Z 00415bf0 f i libohNetCore:Stack.obj
 0001:00014c30       ??D?$_Tree_const_iterator@V?$_Tree_val@V?$_Tmap_traits@VBrn@OpenHome@@PAVObjectType@Stack@Net@2@VBufferCmp@2@V?$allocator@U?$pair@$$CBVBrn@OpenHome@@PAVObjectType@Stack@Net@2@@std@@@std@@$0A@@std@@@std@@@std@@QBEABU?$pair@$$CBVBrn@OpenHome@@PAVObjectType@Stack@Net@2@@1@XZ 00415c30 f i libohNetCore:Stack.obj
 0001:00014cf0       ??E?$_Tree_unchecked_const_iterator@V?$_Tree_val@V?$_Tmap_traits@VBrn@OpenHome@@PAVObjectType@Stack@Net@2@VBufferCmp@2@V?$allocator@U?$pair@$$CBVBrn@OpenHome@@PAVObjectType@Stack@Net@2@@std@@@std@@$0A@@std@@@std@@U_Iterator_base12@2@@std@@QAEAAV01@XZ 00415cf0 f i libohNetCore:Stack.obj
 0001:00014db0       ??0?$_Tree_const_iterator@V?$_Tree_val@V?$_Tmap_traits@PAXPAXU?$less@PAX@std@@V?$allocator@U?$pair@QAXPAX@std@@@2@$0A@@std@@@std@@@std@@QAE@PAU_Node@?$_Tree_nod@V?$_Tmap_traits@PAXPAXU?$less@PAX@std@@V?$allocator@U?$pair@QAXPAX@std@@@2@$0A@@std@@@1@PBV?$_Tree_val@V?$_Tmap_traits@PAXPAXU?$less@PAX@std@@V?$allocator@U?$pair@QAXPAX@std@@@2@$0A@@std@@@1@@Z 00415db0 f i libohNetCore:Stack.obj
 0001:00014df0       ??D?$_Tree_const_iterator@V?$_Tree_val@V?$_Tmap_traits@PAXPAXU?$less@PAX@std@@V?$allocator@U?$pair@QAXPAX@std@@@2@$0A@@std@@@std@@@std@@QBEABU?$pair@QAXPAX@1@XZ 00415df0 f i libohNetCore:Stack.obj
 0001:00014eb0       ??E?$_Tree_unchecked_const_iterator@V?$_Tree_val@V?$_Tmap_traits@PAXPAXU?$less@PAX@std@@V?$allocator@U?$pair@QAXPAX@std@@@2@$0A@@std@@@std@@U_Iterator_base12@2@@std@@QAEAAV01@XZ 00415eb0 f i libohNetCore:Stack.obj
 0001:00014f70       ?allocate@?$allocator@U_Container_proxy@std@@@std@@QAEPAU_Container_proxy@2@I@Z 00415f70 f i libohNetCore:Stack.obj
 0001:00014fa0       ??1?$_Tmap_traits@PAXPAXU?$less@PAX@std@@V?$allocator@U?$pair@QAXPAX@std@@@2@$0A@@std@@QAE@XZ 00415fa0 f i libohNetCore:Stack.obj
 0001:00014fd0       ??1?$_Tmap_traits@VBrn@OpenHome@@PAVObjectType@Stack@Net@2@VBufferCmp@2@V?$allocator@U?$pair@$$CBVBrn@OpenHome@@PAVObjectType@Stack@Net@2@@std@@@std@@$0A@@std@@QAE@XZ 00415fd0 f i libohNetCore:Stack.obj
 0001:00015000       ??0?$_Iterator012@Urandom_access_iterator_tag@std@@PAVMListener@Stack@Net@OpenHome@@HPBQAV3456@ABQAV3456@U_Iterator_base12@2@@std@@QAE@XZ 00416000 f i libohNetCore:Stack.obj
 0001:00015030       ??0_Iterator_base12@std@@QAE@XZ 00416030 f i libohNetCore:Stack.obj
 0001:00015060       ?clear@?$_Tree@V?$_Tmap_traits@PAXPAXU?$less@PAX@std@@V?$allocator@U?$pair@QAXPAX@std@@@2@$0A@@std@@@std@@QAEXXZ 00416060 f i libohNetCore:Stack.obj
 0001:000150e0       ??0?$_Tree_nod@V?$_Tmap_traits@PAXPAXU?$less@PAX@std@@V?$allocator@U?$pair@QAXPAX@std@@@2@$0A@@std@@@std@@QAE@ABU?$less@PAX@1@V?$allocator@U?$pair@QAXPAX@std@@@1@@Z 004160e0 f i libohNetCore:Stack.obj
 0001:000151f0       ?allocate@?$allocator@U_Node@?$_Tree_nod@V?$_Tmap_traits@PAXPAXU?$less@PAX@std@@V?$allocator@U?$pair@QAXPAX@std@@@2@$0A@@std@@@std@@@std@@QAEPAU_Node@?$_Tree_nod@V?$_Tmap_traits@PAXPAXU?$less@PAX@std@@V?$allocator@U?$pair@QAXPAX@std@@@2@$0A@@std@@@2@I@Z 004161f0 f i libohNetCore:Stack.obj
 0001:00015220       ?allocate@?$allocator@PAVMListener@Stack@Net@OpenHome@@@std@@QAEPAPAVMListener@Stack@Net@OpenHome@@I@Z 00416220 f i libohNetCore:Stack.obj
 0001:00015250       ?max_size@?$allocator@PAVMListener@Stack@Net@OpenHome@@@std@@QBEIXZ 00416250 f i libohNetCore:Stack.obj
 0001:000152a0       ?clear@?$_Tree@V?$_Tmap_traits@VBrn@OpenHome@@PAVObjectType@Stack@Net@2@VBufferCmp@2@V?$allocator@U?$pair@$$CBVBrn@OpenHome@@PAVObjectType@Stack@Net@2@@std@@@std@@$0A@@std@@@std@@QAEXXZ 004162a0 f i libohNetCore:Stack.obj
 0001:00015320       ??0?$_Tree_nod@V?$_Tmap_traits@VBrn@OpenHome@@PAVObjectType@Stack@Net@2@VBufferCmp@2@V?$allocator@U?$pair@$$CBVBrn@OpenHome@@PAVObjectType@Stack@Net@2@@std@@@std@@$0A@@std@@@std@@QAE@ABVBufferCmp@OpenHome@@V?$allocator@U?$pair@$$CBVBrn@OpenHome@@PAVObjectType@Stack@Net@2@@std@@@1@@Z 00416320 f i libohNetCore:Stack.obj
 0001:00015430       ?allocate@?$allocator@U_Node@?$_Tree_nod@V?$_Tmap_traits@VBrn@OpenHome@@PAVObjectType@Stack@Net@2@VBufferCmp@2@V?$allocator@U?$pair@$$CBVBrn@OpenHome@@PAVObjectType@Stack@Net@2@@std@@@std@@$0A@@std@@@std@@@std@@QAEPAU_Node@?$_Tree_nod@V?$_Tmap_traits@VBrn@OpenHome@@PAVObjectType@Stack@Net@2@VBufferCmp@2@V?$allocator@U?$pair@$$CBVBrn@OpenHome@@PAVObjectType@Stack@Net@2@@std@@@std@@$0A@@std@@@2@I@Z 00416430 f i libohNetCore:Stack.obj
 0001:00015460       ??E?$_Tree_const_iterator@V?$_Tree_val@V?$_Tmap_traits@VBrn@OpenHome@@PAVObjectType@Stack@Net@2@VBufferCmp@2@V?$allocator@U?$pair@$$CBVBrn@OpenHome@@PAVObjectType@Stack@Net@2@@std@@@std@@$0A@@std@@@std@@@std@@QAE?AV01@H@Z 00416460 f i libohNetCore:Stack.obj
 0001:00015530       ??0?$_Tree_unchecked_const_iterator@V?$_Tree_val@V?$_Tmap_traits@VBrn@OpenHome@@PAVObjectType@Stack@Net@2@VBufferCmp@2@V?$allocator@U?$pair@$$CBVBrn@OpenHome@@PAVObjectType@Stack@Net@2@@std@@@std@@$0A@@std@@@std@@U_Iterator_base12@2@@std@@QAE@PAU_Node@?$_Tree_nod@V?$_Tmap_traits@VBrn@OpenHome@@PAVObjectType@Stack@Net@2@VBufferCmp@2@V?$allocator@U?$pair@$$CBVBrn@OpenHome@@PAVObjectType@Stack@Net@2@@std@@@std@@$0A@@std@@@1@PBV?$_Tree_val@V?$_Tmap_traits@VBrn@OpenHome@@PAVObjectType@Stack@Net@2@VBufferCmp@2@V?$allocator@U?$pair@$$CBVBrn@OpenHome@@PAVObjectType@Stack@Net@2@@std@@@std@@$0A@@std@@@1@@Z 00416530 f i libohNetCore:Stack.obj
 0001:000155b0       ??E?$_Tree_const_iterator@V?$_Tree_val@V?$_Tmap_traits@PAXPAXU?$less@PAX@std@@V?$allocator@U?$pair@QAXPAX@std@@@2@$0A@@std@@@std@@@std@@QAE?AV01@H@Z 004165b0 f i libohNetCore:Stack.obj
 0001:00015680       ??0?$_Tree_unchecked_const_iterator@V?$_Tree_val@V?$_Tmap_traits@PAXPAXU?$less@PAX@std@@V?$allocator@U?$pair@QAXPAX@std@@@2@$0A@@std@@@std@@U_Iterator_base12@2@@std@@QAE@PAU_Node@?$_Tree_nod@V?$_Tmap_traits@PAXPAXU?$less@PAX@std@@V?$allocator@U?$pair@QAXPAX@std@@@2@$0A@@std@@@1@PBV?$_Tree_val@V?$_Tmap_traits@PAXPAXU?$less@PAX@std@@V?$allocator@U?$pair@QAXPAX@std@@@2@$0A@@std@@@1@@Z 00416680 f i libohNetCore:Stack.obj
 0001:00015700       ??0?$_Iterator012@Ubidirectional_iterator_tag@std@@U?$pair@$$CBVBrn@OpenHome@@PAVObjectType@Stack@Net@2@@2@HPBU32@ABU32@U_Iterator_base12@2@@std@@QAE@XZ 00416700 f i libohNetCore:Stack.obj
 0001:00015730       ??0?$_Iterator012@Ubidirectional_iterator_tag@std@@U?$pair@QAXPAX@2@HPBU32@ABU32@U_Iterator_base12@2@@std@@QAE@XZ 00416730 f i libohNetCore:Stack.obj
 0001:00015760       ?_Erase@?$_Tree@V?$_Tmap_traits@PAXPAXU?$less@PAX@std@@V?$allocator@U?$pair@QAXPAX@std@@@2@$0A@@std@@@std@@IAEXPAU_Node@?$_Tree_nod@V?$_Tmap_traits@PAXPAXU?$less@PAX@std@@V?$allocator@U?$pair@QAXPAX@std@@@2@$0A@@std@@@2@@Z 00416760 f i libohNetCore:Stack.obj
 0001:00015800       ??0?$_Tmap_traits@PAXPAXU?$less@PAX@std@@V?$allocator@U?$pair@QAXPAX@std@@@2@$0A@@std@@QAE@U?$less@PAX@1@@Z 00416800 f i libohNetCore:Stack.obj
 0001:00015830       ?_Erase@?$_Tree@V?$_Tmap_traits@VBrn@OpenHome@@PAVObjectType@Stack@Net@2@VBufferCmp@2@V?$allocator@U?$pair@$$CBVBrn@OpenHome@@PAVObjectType@Stack@Net@2@@std@@@std@@$0A@@std@@@std@@IAEXPAU_Node@?$_Tree_nod@V?$_Tmap_traits@VBrn@OpenHome@@PAVObjectType@Stack@Net@2@VBufferCmp@2@V?$allocator@U?$pair@$$CBVBrn@OpenHome@@PAVObjectType@Stack@Net@2@@std@@@std@@$0A@@std@@@2@@Z 00416830 f i libohNetCore:Stack.obj
 0001:000158d0       ??0?$_Tmap_traits@VBrn@OpenHome@@PAVObjectType@Stack@Net@2@VBufferCmp@2@V?$allocator@U?$pair@$$CBVBrn@OpenHome@@PAVObjectType@Stack@Net@2@@std@@@std@@$0A@@std@@QAE@VBufferCmp@OpenHome@@@Z 004168d0 f i libohNetCore:Stack.obj
 0001:00015900       ??$?0AAVBrn@OpenHome@@AAPAVObjectType@Stack@Net@1@@?$pair@VBrn@OpenHome@@PAVObjectType@Stack@Net@2@@std@@QAE@AAVBrn@OpenHome@@AAPAVObjectType@Stack@Net@3@@Z 00416900 f i libohNetCore:Stack.obj
 0001:00015940       ??$insert@U?$pair@VBrn@OpenHome@@PAVObjectType@Stack@Net@2@@std@@@?$_Tree@V?$_Tmap_traits@VBrn@OpenHome@@PAVObjectType@Stack@Net@2@VBufferCmp@2@V?$allocator@U?$pair@$$CBVBrn@OpenHome@@PAVObjectType@Stack@Net@2@@std@@@std@@$0A@@std@@@std@@QAE?AU?$pair@V?$_Tree_iterator@V?$_Tree_val@V?$_Tmap_traits@VBrn@OpenHome@@PAVObjectType@Stack@Net@2@VBufferCmp@2@V?$allocator@U?$pair@$$CBVBrn@OpenHome@@PAVObjectType@Stack@Net@2@@std@@@std@@$0A@@std@@@std@@@std@@_N@1@$$QAU?$pair@VBrn@OpenHome@@PAVObjectType@Stack@Net@2@@1@@Z 00416940 f i libohNetCore:Stack.obj
 0001:000159a0       ??$?0AAPAXAAPAX@?$pair@PAXPAX@std@@QAE@AAPAX0@Z 004169a0 f i libohNetCore:Stack.obj
 0001:000159e0       ??$insert@U?$pair@PAXPAX@std@@@?$_Tree@V?$_Tmap_traits@PAXPAXU?$less@PAX@std@@V?$allocator@U?$pair@QAXPAX@std@@@2@$0A@@std@@@std@@QAE?AU?$pair@V?$_Tree_iterator@V?$_Tree_val@V?$_Tmap_traits@PAXPAXU?$less@PAX@std@@V?$allocator@U?$pair@QAXPAX@std@@@2@$0A@@std@@@std@@@std@@_N@1@$$QAU?$pair@PAXPAX@1@@Z 004169e0 f i libohNetCore:Stack.obj
 0001:00015a40       ??$swap@D@std@@YGXAAD0@Z   00416a40 f i libohNetCore:Stack.obj
 0001:00015ad0       ??$addressof@U?$pair@QAXPAX@std@@@std@@YGPAU?$pair@QAXPAX@0@AAU10@@Z 00416ad0 f i libohNetCore:Stack.obj
 0001:00015ae0       ??$_Dest_val@V?$allocator@U?$pair@QAXPAX@std@@@std@@U?$pair@QAXPAX@2@@std@@YGXAAV?$allocator@U?$pair@QAXPAX@std@@@0@PAU?$pair@QAXPAX@0@@Z 00416ae0 f i libohNetCore:Stack.obj
 0001:00015b00       ??$_Debug_lt_pred@U?$less@PAX@std@@PAXPAX@std@@YG_NU?$less@PAX@0@ABQAXAAPAXPB_WI@Z 00416b00 f i libohNetCore:Stack.obj
 0001:00015b60       ??$addressof@QAVMListener@Stack@Net@OpenHome@@@std@@YGPBQAVMListener@Stack@Net@OpenHome@@ABQAV1234@@Z 00416b60 f i libohNetCore:Stack.obj
 0001:00015b70       ??$_Cons_val@V?$allocator@PAVMListener@Stack@Net@OpenHome@@@std@@PAVMListener@Stack@Net@OpenHome@@AAPAV3456@@std@@YGXAAV?$allocator@PAVMListener@Stack@Net@OpenHome@@@0@PAPAVMListener@Stack@Net@OpenHome@@AAPAV2345@@Z 00416b70 f i libohNetCore:Stack.obj
 0001:00015ba0       ??$_Cons_val@V?$allocator@PAVMListener@Stack@Net@OpenHome@@@std@@PAVMListener@Stack@Net@OpenHome@@ABQAV3456@@std@@YGXAAV?$allocator@PAVMListener@Stack@Net@OpenHome@@@0@PAPAVMListener@Stack@Net@OpenHome@@ABQAV2345@@Z 00416ba0 f i libohNetCore:Stack.obj
 0001:00015bd0       ??$_Move@PAPAVMListener@Stack@Net@OpenHome@@PAPAV1234@@std@@YGPAPAVMListener@Stack@Net@OpenHome@@PAPAV1234@00@Z 00416bd0 f i libohNetCore:Stack.obj
 0001:00015c20       ??$addressof@U?$pair@$$CBVBrn@OpenHome@@PAVObjectType@Stack@Net@2@@std@@@std@@YGPAU?$pair@$$CBVBrn@OpenHome@@PAVObjectType@Stack@Net@2@@0@AAU10@@Z 00416c20 f i libohNetCore:Stack.obj
 0001:00015c30       ??$_Dest_val@V?$allocator@U?$pair@$$CBVBrn@OpenHome@@PAVObjectType@Stack@Net@2@@std@@@std@@U?$pair@$$CBVBrn@OpenHome@@PAVObjectType@Stack@Net@2@@2@@std@@YGXAAV?$allocator@U?$pair@$$CBVBrn@OpenHome@@PAVObjectType@Stack@Net@2@@std@@@0@PAU?$pair@$$CBVBrn@OpenHome@@PAVObjectType@Stack@Net@2@@0@@Z 00416c30 f i libohNetCore:Stack.obj
 0001:00015c50       ??$_Debug_lt_pred@VBufferCmp@OpenHome@@VBrn@2@V32@@std@@YG_NVBufferCmp@OpenHome@@ABVBrn@2@AAV32@PB_WI@Z 00416c50 f i libohNetCore:Stack.obj
 0001:00015cb0       ??$_Kfn@QAXPAX@?$_Tmap_traits@PAXPAXU?$less@PAX@std@@V?$allocator@U?$pair@QAXPAX@std@@@2@$0A@@std@@SGABQAXABU?$pair@QAXPAX@1@@Z 00416cb0 f i libohNetCore:Stack.obj
 0001:00015cc0       ??$_Destroy_range@V?$allocator@PAVMListener@Stack@Net@OpenHome@@@std@@@std@@YGXPAPAVMListener@Stack@Net@OpenHome@@0AAV?$allocator@PAVMListener@Stack@Net@OpenHome@@@0@@Z 00416cc0 f i libohNetCore:Stack.obj
 0001:00015d10       ??$?0PAVMListener@Stack@Net@OpenHome@@@?$allocator@U_Container_proxy@std@@@std@@QAE@ABV?$allocator@PAVMListener@Stack@Net@OpenHome@@@1@@Z 00416d10 f i libohNetCore:Stack.obj
 0001:00015d30       ??$_Cons_val@V?$allocator@U_Container_proxy@std@@@std@@U_Container_proxy@2@U32@@std@@YGXAAV?$allocator@U_Container_proxy@std@@@0@PAU_Container_proxy@0@$$QAU20@@Z 00416d30 f i libohNetCore:Stack.obj
 0001:00015d60       ??$_Kfn@$$CBVBrn@OpenHome@@PAVObjectType@Stack@Net@2@@?$_Tmap_traits@VBrn@OpenHome@@PAVObjectType@Stack@Net@2@VBufferCmp@2@V?$allocator@U?$pair@$$CBVBrn@OpenHome@@PAVObjectType@Stack@Net@2@@std@@@std@@$0A@@std@@SGABVBrn@OpenHome@@ABU?$pair@$$CBVBrn@OpenHome@@PAVObjectType@Stack@Net@2@@1@@Z 00416d60 f i libohNetCore:Stack.obj
 0001:00015d70       ??$_Debug_lt_pred@U?$less@PAX@std@@PAXPAX@std@@YG_NU?$less@PAX@0@AAPAXABQAXPB_WI@Z 00416d70 f i libohNetCore:Stack.obj
 0001:00015dd0       ??$?0U_Node@?$_Tree_nod@V?$_Tmap_traits@PAXPAXU?$less@PAX@std@@V?$allocator@U?$pair@QAXPAX@std@@@2@$0A@@std@@@std@@@?$allocator@U_Container_proxy@std@@@std@@QAE@ABV?$allocator@U_Node@?$_Tree_nod@V?$_Tmap_traits@PAXPAXU?$less@PAX@std@@V?$allocator@U?$pair@QAXPAX@std@@@2@$0A@@std@@@std@@@1@@Z 00416dd0 f i libohNetCore:Stack.obj
 0001:00015df0       ??$_Umove@PAPAVMListener@Stack@Net@OpenHome@@@?$vector@PAVMListener@Stack@Net@OpenHome@@V?$allocator@PAVMListener@Stack@Net@OpenHome@@@std@@@std@@IAEPAPAVMListener@Stack@Net@OpenHome@@PAPAV2345@00@Z 00416df0 f i libohNetCore:Stack.obj
 0001:00015e30       ??$_Debug_lt_pred@VBufferCmp@OpenHome@@VBrn@2@V32@@std@@YG_NVBufferCmp@OpenHome@@AAVBrn@2@ABV32@PB_WI@Z 00416e30 f i libohNetCore:Stack.obj
 0001:00015e90       ??$?0U_Node@?$_Tree_nod@V?$_Tmap_traits@VBrn@OpenHome@@PAVObjectType@Stack@Net@2@VBufferCmp@2@V?$allocator@U?$pair@$$CBVBrn@OpenHome@@PAVObjectType@Stack@Net@2@@std@@@std@@$0A@@std@@@std@@@?$allocator@U_Container_proxy@std@@@std@@QAE@ABV?$allocator@U_Node@?$_Tree_nod@V?$_Tmap_traits@VBrn@OpenHome@@PAVObjectType@Stack@Net@2@VBufferCmp@2@V?$allocator@U?$pair@$$CBVBrn@OpenHome@@PAVObjectType@Stack@Net@2@@std@@@std@@$0A@@std@@@std@@@1@@Z 00416e90 f i libohNetCore:Stack.obj
 0001:00015eb0       ??$_Allocate@U_Container_proxy@std@@@std@@YGPAU_Container_proxy@0@IPAU10@@Z 00416eb0 f i libohNetCore:Stack.obj
 0001:00015f30       ??0bad_alloc@std@@QAE@PBD@Z 00416f30 f i libohNetCore:Stack.obj
 0001:00015f70       ??$?0U?$pair@QAXPAX@std@@@?$allocator@U_Node@?$_Tree_nod@V?$_Tmap_traits@PAXPAXU?$less@PAX@std@@V?$allocator@U?$pair@QAXPAX@std@@@2@$0A@@std@@@std@@@std@@QAE@ABV?$allocator@U?$pair@QAXPAX@std@@@1@@Z 00416f70 f i libohNetCore:Stack.obj
 0001:00015f90       ??$_Allocate@U_Node@?$_Tree_nod@V?$_Tmap_traits@PAXPAXU?$less@PAX@std@@V?$allocator@U?$pair@QAXPAX@std@@@2@$0A@@std@@@std@@@std@@YGPAU_Node@?$_Tree_nod@V?$_Tmap_traits@PAXPAXU?$less@PAX@std@@V?$allocator@U?$pair@QAXPAX@std@@@2@$0A@@std@@@0@IPAU120@@Z 00416f90 f i libohNetCore:Stack.obj
 0001:00016010       ??$_Allocate@PAVMListener@Stack@Net@OpenHome@@@std@@YGPAPAVMListener@Stack@Net@OpenHome@@IPAPAV1234@@Z 00417010 f i libohNetCore:Stack.obj
 0001:00016090       ??$?0U?$pair@$$CBVBrn@OpenHome@@PAVObjectType@Stack@Net@2@@std@@@?$allocator@U_Node@?$_Tree_nod@V?$_Tmap_traits@VBrn@OpenHome@@PAVObjectType@Stack@Net@2@VBufferCmp@2@V?$allocator@U?$pair@$$CBVBrn@OpenHome@@PAVObjectType@Stack@Net@2@@std@@@std@@$0A@@std@@@std@@@std@@QAE@ABV?$allocator@U?$pair@$$CBVBrn@OpenHome@@PAVObjectType@Stack@Net@2@@std@@@1@@Z 00417090 f i libohNetCore:Stack.obj
 0001:000160b0       ??$_Allocate@U_Node@?$_Tree_nod@V?$_Tmap_traits@VBrn@OpenHome@@PAVObjectType@Stack@Net@2@VBufferCmp@2@V?$allocator@U?$pair@$$CBVBrn@OpenHome@@PAVObjectType@Stack@Net@2@@std@@@std@@$0A@@std@@@std@@@std@@YGPAU_Node@?$_Tree_nod@V?$_Tmap_traits@VBrn@OpenHome@@PAVObjectType@Stack@Net@2@VBufferCmp@2@V?$allocator@U?$pair@$$CBVBrn@OpenHome@@PAVObjectType@Stack@Net@2@@std@@@std@@$0A@@std@@@0@IPAU120@@Z 004170b0 f i libohNetCore:Stack.obj
 0001:00016130       ?_Linsert@?$_Tree@V?$_Tmap_traits@PAXPAXU?$less@PAX@std@@V?$allocator@U?$pair@QAXPAX@std@@@2@$0A@@std@@@std@@QAE?AU?$pair@V?$_Tree_iterator@V?$_Tree_val@V?$_Tmap_traits@PAXPAXU?$less@PAX@std@@V?$allocator@U?$pair@QAXPAX@std@@@2@$0A@@std@@@std@@@std@@_N@2@PAU_Node@?$_Tree_nod@V?$_Tmap_traits@PAXPAXU?$less@PAX@std@@V?$allocator@U?$pair@QAXPAX@std@@@2@$0A@@std@@@2@_N@Z 00417130 f i libohNetCore:Stack.obj
 0001:00016510       ?destroy@?$allocator@U?$pair@QAXPAX@std@@@std@@QAEXPAU?$pair@QAXPAX@2@@Z 00417510 f i libohNetCore:Stack.obj
 0001:00016540       ??R?$less@PAX@std@@QBE_NABQAX0@Z 00417540 f i libohNetCore:Stack.obj
 0001:00016570       ?construct@?$allocator@PAVMListener@Stack@Net@OpenHome@@@std@@QAEXPAPAVMListener@Stack@Net@OpenHome@@ABQAV3456@@Z 00417570 f i libohNetCore:Stack.obj
 0001:000165a0       ?_Linsert@?$_Tree@V?$_Tmap_traits@VBrn@OpenHome@@PAVObjectType@Stack@Net@2@VBufferCmp@2@V?$allocator@U?$pair@$$CBVBrn@OpenHome@@PAVObjectType@Stack@Net@2@@std@@@std@@$0A@@std@@@std@@QAE?AU?$pair@V?$_Tree_iterator@V?$_Tree_val@V?$_Tmap_traits@VBrn@OpenHome@@PAVObjectType@Stack@Net@2@VBufferCmp@2@V?$allocator@U?$pair@$$CBVBrn@OpenHome@@PAVObjectType@Stack@Net@2@@std@@@std@@$0A@@std@@@std@@@std@@_N@2@PAU_Node@?$_Tree_nod@V?$_Tmap_traits@VBrn@OpenHome@@PAVObjectType@Stack@Net@2@VBufferCmp@2@V?$allocator@U?$pair@$$CBVBrn@OpenHome@@PAVObjectType@Stack@Net@2@@std@@@std@@$0A@@std@@@2@_N@Z 004175a0 f i libohNetCore:Stack.obj
 0001:00016980       ?destroy@?$allocator@U?$pair@$$CBVBrn@OpenHome@@PAVObjectType@Stack@Net@2@@std@@@std@@QAEXPAU?$pair@$$CBVBrn@OpenHome@@PAVObjectType@Stack@Net@2@@2@@Z 00417980 f i libohNetCore:Stack.obj
 0001:000169b0       ?construct@?$allocator@U_Container_proxy@std@@@std@@QAEXPAU_Container_proxy@2@$$QAU32@@Z 004179b0 f i libohNetCore:Stack.obj
 0001:00016a60       ??2@YAPAXIPAX@Z            00417a60 f i libohNetCore:Stack.obj
 0001:00016a70       ??3@YAXPAX0@Z              00417a70 f i libohNetCore:Stack.obj
 0001:00016a80       ?_Insert@?$_Tree@V?$_Tmap_traits@PAXPAXU?$less@PAX@std@@V?$allocator@U?$pair@QAXPAX@std@@@2@$0A@@std@@@std@@IAE?AV?$_Tree_iterator@V?$_Tree_val@V?$_Tmap_traits@PAXPAXU?$less@PAX@std@@V?$allocator@U?$pair@QAXPAX@std@@@2@$0A@@std@@@std@@@2@_NPAU_Node@?$_Tree_nod@V?$_Tmap_traits@PAXPAXU?$less@PAX@std@@V?$allocator@U?$pair@QAXPAX@std@@@2@$0A@@std@@@2@1@Z 00417a80 f i libohNetCore:Stack.obj
 0001:00016e40       ?_Insert@?$_Tree@V?$_Tmap_traits@VBrn@OpenHome@@PAVObjectType@Stack@Net@2@VBufferCmp@2@V?$allocator@U?$pair@$$CBVBrn@OpenHome@@PAVObjectType@Stack@Net@2@@std@@@std@@$0A@@std@@@std@@IAE?AV?$_Tree_iterator@V?$_Tree_val@V?$_Tmap_traits@VBrn@OpenHome@@PAVObjectType@Stack@Net@2@VBufferCmp@2@V?$allocator@U?$pair@$$CBVBrn@OpenHome@@PAVObjectType@Stack@Net@2@@std@@@std@@$0A@@std@@@std@@@2@_NPAU_Node@?$_Tree_nod@V?$_Tmap_traits@VBrn@OpenHome@@PAVObjectType@Stack@Net@2@VBufferCmp@2@V?$allocator@U?$pair@$$CBVBrn@OpenHome@@PAVObjectType@Stack@Net@2@@std@@@std@@$0A@@std@@@2@1@Z 00417e40 f i libohNetCore:Stack.obj
 0001:00017200       ??F?$_Tree_iterator@V?$_Tree_val@V?$_Tmap_traits@VBrn@OpenHome@@PAVObjectType@Stack@Net@2@VBufferCmp@2@V?$allocator@U?$pair@$$CBVBrn@OpenHome@@PAVObjectType@Stack@Net@2@@std@@@std@@$0A@@std@@@std@@@std@@QAEAAV01@XZ 00418200 f i libohNetCore:Stack.obj
 0001:00017230       ??0?$pair@V?$_Tree_iterator@V?$_Tree_val@V?$_Tmap_traits@VBrn@OpenHome@@PAVObjectType@Stack@Net@2@VBufferCmp@2@V?$allocator@U?$pair@$$CBVBrn@OpenHome@@PAVObjectType@Stack@Net@2@@std@@@std@@$0A@@std@@@std@@@std@@_N@std@@QAE@$$QAV?$_Tree_iterator@V?$_Tree_val@V?$_Tmap_traits@VBrn@OpenHome@@PAVObjectType@Stack@Net@2@VBufferCmp@2@V?$allocator@U?$pair@$$CBVBrn@OpenHome@@PAVObjectType@Stack@Net@2@@std@@@std@@$0A@@std@@@std@@@1@$$QA_N@Z 00418230 f i libohNetCore:Stack.obj
 0001:00017270       ??0?$pair@V?$_Tree_iterator@V?$_Tree_val@V?$_Tmap_traits@PAXPAXU?$less@PAX@std@@V?$allocator@U?$pair@QAXPAX@std@@@2@$0A@@std@@@std@@@std@@_N@std@@QAE@$$QAV?$_Tree_iterator@V?$_Tree_val@V?$_Tmap_traits@PAXPAXU?$less@PAX@std@@V?$allocator@U?$pair@QAXPAX@std@@@2@$0A@@std@@@std@@@1@$$QA_N@Z 00418270 f i libohNetCore:Stack.obj
 0001:000172b0       ??F?$_Tree_iterator@V?$_Tree_val@V?$_Tmap_traits@PAXPAXU?$less@PAX@std@@V?$allocator@U?$pair@QAXPAX@std@@@2@$0A@@std@@@std@@@std@@QAEAAV01@XZ 004182b0 f i libohNetCore:Stack.obj
 0001:000172e0       ?max_size@?$_Tree@V?$_Tmap_traits@PAXPAXU?$less@PAX@std@@V?$allocator@U?$pair@QAXPAX@std@@@2@$0A@@std@@@std@@QBEIXZ 004182e0 f i libohNetCore:Stack.obj
 0001:00017310       ?max_size@?$_Tree@V?$_Tmap_traits@VBrn@OpenHome@@PAVObjectType@Stack@Net@2@VBufferCmp@2@V?$allocator@U?$pair@$$CBVBrn@OpenHome@@PAVObjectType@Stack@Net@2@@std@@@std@@$0A@@std@@@std@@QBEIXZ 00418310 f i libohNetCore:Stack.obj
 0001:00017340       ??F?$_Tree_const_iterator@V?$_Tree_val@V?$_Tmap_traits@VBrn@OpenHome@@PAVObjectType@Stack@Net@2@VBufferCmp@2@V?$allocator@U?$pair@$$CBVBrn@OpenHome@@PAVObjectType@Stack@Net@2@@std@@@std@@$0A@@std@@@std@@@std@@QAEAAV01@XZ 00418340 f i libohNetCore:Stack.obj
 0001:00017460       ??0?$_Pair_base@V?$_Tree_iterator@V?$_Tree_val@V?$_Tmap_traits@VBrn@OpenHome@@PAVObjectType@Stack@Net@2@VBufferCmp@2@V?$allocator@U?$pair@$$CBVBrn@OpenHome@@PAVObjectType@Stack@Net@2@@std@@@std@@$0A@@std@@@std@@@std@@_N@std@@QAE@$$QAV?$_Tree_iterator@V?$_Tree_val@V?$_Tmap_traits@VBrn@OpenHome@@PAVObjectType@Stack@Net@2@VBufferCmp@2@V?$allocator@U?$pair@$$CBVBrn@OpenHome@@PAVObjectType@Stack@Net@2@@std@@@std@@$0A@@std@@@std@@@1@$$QA_N@Z 00418460 f i libohNetCore:Stack.obj
 0001:000174e0       ??0?$_Pair_base@V?$_Tree_iterator@V?$_Tree_val@V?$_Tmap_traits@PAXPAXU?$less@PAX@std@@V?$allocator@U?$pair@QAXPAX@std@@@2@$0A@@std@@@std@@@std@@_N@std@@QAE@$$QAV?$_Tree_iterator@V?$_Tree_val@V?$_Tmap_traits@PAXPAXU?$less@PAX@std@@V?$allocator@U?$pair@QAXPAX@std@@@2@$0A@@std@@@std@@@1@$$QA_N@Z 004184e0 f i libohNetCore:Stack.obj
 0001:00017560       ??F?$_Tree_const_iterator@V?$_Tree_val@V?$_Tmap_traits@PAXPAXU?$less@PAX@std@@V?$allocator@U?$pair@QAXPAX@std@@@2@$0A@@std@@@std@@@std@@QAEAAV01@XZ 00418560 f i libohNetCore:Stack.obj
 0001:00017680       ?max_size@?$allocator@U?$pair@QAXPAX@std@@@std@@QBEIXZ 00418680 f i libohNetCore:Stack.obj
 0001:000176d0       ?max_size@?$allocator@U?$pair@$$CBVBrn@OpenHome@@PAVObjectType@Stack@Net@2@@std@@@std@@QBEIXZ 004186d0 f i libohNetCore:Stack.obj
 0001:00017720       ??F?$_Tree_unchecked_const_iterator@V?$_Tree_val@V?$_Tmap_traits@VBrn@OpenHome@@PAVObjectType@Stack@Net@2@VBufferCmp@2@V?$allocator@U?$pair@$$CBVBrn@OpenHome@@PAVObjectType@Stack@Net@2@@std@@@std@@$0A@@std@@@std@@U_Iterator_base12@2@@std@@QAEAAV01@XZ 00418720 f i libohNetCore:Stack.obj
 0001:00017810       ??F?$_Tree_unchecked_const_iterator@V?$_Tree_val@V?$_Tmap_traits@PAXPAXU?$less@PAX@std@@V?$allocator@U?$pair@QAXPAX@std@@@2@$0A@@std@@@std@@U_Iterator_base12@2@@std@@QAEAAV01@XZ 00418810 f i libohNetCore:Stack.obj
 0001:00017900       ??$forward@AAVBrn@OpenHome@@@std@@YGAAVBrn@OpenHome@@AAV12@@Z 00418900 f i libohNetCore:Stack.obj
 0001:00017910       ??$forward@AAPAVObjectType@Stack@Net@OpenHome@@@std@@YGAAPAVObjectType@Stack@Net@OpenHome@@AAPAV1234@@Z 00418910 f i libohNetCore:Stack.obj
 0001:00017920       ??$?0AAVBrn@OpenHome@@AAPAVObjectType@Stack@Net@1@@?$_Pair_base@VBrn@OpenHome@@PAVObjectType@Stack@Net@2@@std@@QAE@AAVBrn@OpenHome@@AAPAVObjectType@Stack@Net@3@@Z 00418920 f i libohNetCore:Stack.obj
 0001:000179a0       ??0Brn@OpenHome@@QAE@ABV01@@Z 004189a0 f i libohNetCore:Stack.obj
 0001:00017a30       ??0Brx@OpenHome@@IAE@ABV01@@Z 00418a30 f i libohNetCore:Stack.obj
 0001:00017a70       ??$forward@U?$pair@VBrn@OpenHome@@PAVObjectType@Stack@Net@2@@std@@@std@@YG$$QAU?$pair@VBrn@OpenHome@@PAVObjectType@Stack@Net@2@@0@AAU10@@Z 00418a70 f i libohNetCore:Stack.obj
 0001:00017a80       ??$_Buynode@U?$pair@VBrn@OpenHome@@PAVObjectType@Stack@Net@2@@std@@@?$_Tree_val@V?$_Tmap_traits@VBrn@OpenHome@@PAVObjectType@Stack@Net@2@VBufferCmp@2@V?$allocator@U?$pair@$$CBVBrn@OpenHome@@PAVObjectType@Stack@Net@2@@std@@@std@@$0A@@std@@@std@@QAEPAU_Node@?$_Tree_nod@V?$_Tmap_traits@VBrn@OpenHome@@PAVObjectType@Stack@Net@2@VBufferCmp@2@V?$allocator@U?$pair@$$CBVBrn@OpenHome@@PAVObjectType@Stack@Net@2@@std@@@std@@$0A@@std@@@1@$$QAU?$pair@VBrn@OpenHome@@PAVObjectType@Stack@Net@2@@1@@Z 00418a80 f i libohNetCore:Stack.obj
 0001:00017b60       ??$forward@AAPAX@std@@YGAAPAXAAPAX@Z 00418b60 f i libohNetCore:Stack.obj
 0001:00017b70       ??$?0AAPAXAAPAX@?$_Pair_base@PAXPAX@std@@QAE@AAPAX0@Z 00418b70 f i libohNetCore:Stack.obj
 0001:00017bc0       ??$forward@U?$pair@PAXPAX@std@@@std@@YG$$QAU?$pair@PAXPAX@0@AAU10@@Z 00418bc0 f i libohNetCore:Stack.obj
 0001:00017bd0       ??$_Buynode@U?$pair@PAXPAX@std@@@?$_Tree_val@V?$_Tmap_traits@PAXPAXU?$less@PAX@std@@V?$allocator@U?$pair@QAXPAX@std@@@2@$0A@@std@@@std@@QAEPAU_Node@?$_Tree_nod@V?$_Tmap_traits@PAXPAXU?$less@PAX@std@@V?$allocator@U?$pair@QAXPAX@std@@@2@$0A@@std@@@1@$$QAU?$pair@PAXPAX@1@@Z 00418bd0 f i libohNetCore:Stack.obj
 0001:00017cb0       ??$_Move@AAD@std@@YG$$QADAAD@Z 00418cb0 f i libohNetCore:Stack.obj
 0001:00017cc0       ??$forward@AAPAVMListener@Stack@Net@OpenHome@@@std@@YGAAPAVMListener@Stack@Net@OpenHome@@AAPAV1234@@Z 00418cc0 f i libohNetCore:Stack.obj
 0001:00017cd0       ??$construct@AAPAVMListener@Stack@Net@OpenHome@@@?$allocator@PAVMListener@Stack@Net@OpenHome@@@std@@QAEXPAPAVMListener@Stack@Net@OpenHome@@AAPAV2345@@Z 00418cd0 f i libohNetCore:Stack.obj
 0001:00017d70       ??$forward@ABQAVMListener@Stack@Net@OpenHome@@@std@@YGABQAVMListener@Stack@Net@OpenHome@@ABQAV1234@@Z 00418d70 f i libohNetCore:Stack.obj
 0001:00017d80       ??$_Ptr_cat@PAVMListener@Stack@Net@OpenHome@@PAV1234@@std@@YG?AU_Scalar_ptr_iterator_tag@0@PAPAVMListener@Stack@Net@OpenHome@@0@Z 00418d80 f i libohNetCore:Stack.obj
 0001:00017de0       ??$_Move@PAPAVMListener@Stack@Net@OpenHome@@PAPAV1234@@std@@YGPAPAVMListener@Stack@Net@OpenHome@@PAPAV1234@00U_Scalar_ptr_iterator_tag@0@@Z 00418de0 f i libohNetCore:Stack.obj
 0001:00017e30       ??$_Destroy_range@V?$allocator@PAVMListener@Stack@Net@OpenHome@@@std@@@std@@YGXPAPAVMListener@Stack@Net@OpenHome@@0AAV?$allocator@PAVMListener@Stack@Net@OpenHome@@@0@U_Scalar_ptr_iterator_tag@0@@Z 00418e30 f i libohNetCore:Stack.obj
 0001:00017e40       ??$forward@U_Container_proxy@std@@@std@@YG$$QAU_Container_proxy@0@AAU10@@Z 00418e40 f i libohNetCore:Stack.obj
 0001:00017e50       ??$_Uninitialized_move@PAPAVMListener@Stack@Net@OpenHome@@PAPAV1234@V?$allocator@PAVMListener@Stack@Net@OpenHome@@@std@@@std@@YGPAPAVMListener@Stack@Net@OpenHome@@PAPAV1234@00AAV?$allocator@PAVMListener@Stack@Net@OpenHome@@@0@@Z 00418e50 f i libohNetCore:Stack.obj
 0001:00017ea0       ??$?0AAV?$_Tree_iterator@V?$_Tree_val@V?$_Tmap_traits@PAXPAXU?$less@PAX@std@@V?$allocator@U?$pair@QAXPAX@std@@@2@$0A@@std@@@std@@@std@@_N@?$pair@V?$_Tree_iterator@V?$_Tree_val@V?$_Tmap_traits@PAXPAXU?$less@PAX@std@@V?$allocator@U?$pair@QAXPAX@std@@@2@$0A@@std@@@std@@@std@@_N@std@@QAE@AAV?$_Tree_iterator@V?$_Tree_val@V?$_Tmap_traits@PAXPAXU?$less@PAX@std@@V?$allocator@U?$pair@QAXPAX@std@@@2@$0A@@std@@@std@@@1@$$QA_N@Z 00418ea0 f i libohNetCore:Stack.obj
 0001:00017ee0       ??$_Destroy@U?$pair@QAXPAX@std@@@std@@YGXPAU?$pair@QAXPAX@0@@Z 00418ee0 f i libohNetCore:Stack.obj
 0001:00017ef0       ??$_Construct@PAVMListener@Stack@Net@OpenHome@@ABQAV1234@@std@@YGXPAPAVMListener@Stack@Net@OpenHome@@ABQAV1234@@Z 00418ef0 f i libohNetCore:Stack.obj
 0001:00017fa0       ??$?0AAV?$_Tree_iterator@V?$_Tree_val@V?$_Tmap_traits@VBrn@OpenHome@@PAVObjectType@Stack@Net@2@VBufferCmp@2@V?$allocator@U?$pair@$$CBVBrn@OpenHome@@PAVObjectType@Stack@Net@2@@std@@@std@@$0A@@std@@@std@@@std@@_N@?$pair@V?$_Tree_iterator@V?$_Tree_val@V?$_Tmap_traits@VBrn@OpenHome@@PAVObjectType@Stack@Net@2@VBufferCmp@2@V?$allocator@U?$pair@$$CBVBrn@OpenHome@@PAVObjectType@Stack@Net@2@@std@@@std@@$0A@@std@@@std@@@std@@_N@std@@QAE@AAV?$_Tree_iterator@V?$_Tree_val@V?$_Tmap_traits@VBrn@OpenHome@@PAVObjectType@Stack@Net@2@VBufferCmp@2@V?$allocator@U?$pair@$$CBVBrn@OpenHome@@PAVObjectType@Stack@Net@2@@std@@@std@@$0A@@std@@@std@@@1@$$QA_N@Z 00418fa0 f i libohNetCore:Stack.obj
 0001:00017fe0       ??$_Destroy@U?$pair@$$CBVBrn@OpenHome@@PAVObjectType@Stack@Net@2@@std@@@std@@YGXPAU?$pair@$$CBVBrn@OpenHome@@PAVObjectType@Stack@Net@2@@0@@Z 00418fe0 f i libohNetCore:Stack.obj
 0001:00018000       ??$move@AAV?$_Tree_iterator@V?$_Tree_val@V?$_Tmap_traits@VBrn@OpenHome@@PAVObjectType@Stack@Net@2@VBufferCmp@2@V?$allocator@U?$pair@$$CBVBrn@OpenHome@@PAVObjectType@Stack@Net@2@@std@@@std@@$0A@@std@@@std@@@std@@@std@@YG$$QAV?$_Tree_iterator@V?$_Tree_val@V?$_Tmap_traits@VBrn@OpenHome@@PAVObjectType@Stack@Net@2@VBufferCmp@2@V?$allocator@U?$pair@$$CBVBrn@OpenHome@@PAVObjectType@Stack@Net@2@@std@@@std@@$0A@@std@@@std@@@0@AAV10@@Z 00419000 f i libohNetCore:Stack.obj
 0001:00018010       ??$move@AA_N@std@@YG$$QA_NAA_N@Z 00419010 f i libohNetCore:Stack.obj
 0001:00018020       ??$move@AAV?$_Tree_iterator@V?$_Tree_val@V?$_Tmap_traits@PAXPAXU?$less@PAX@std@@V?$allocator@U?$pair@QAXPAX@std@@@2@$0A@@std@@@std@@@std@@@std@@YG$$QAV?$_Tree_iterator@V?$_Tree_val@V?$_Tmap_traits@PAXPAXU?$less@PAX@std@@V?$allocator@U?$pair@QAXPAX@std@@@2@$0A@@std@@@std@@@0@AAV10@@Z 00419020 f i libohNetCore:Stack.obj
 0001:00018030       ??_G?$pair@$$CBVBrn@OpenHome@@PAVObjectType@Stack@Net@2@@std@@QAEPAXI@Z 00419030 f i libohNetCore:Stack.obj
 0001:00018070       ??1?$pair@$$CBVBrn@OpenHome@@PAVObjectType@Stack@Net@2@@std@@QAE@XZ 00419070 f i libohNetCore:Stack.obj
 0001:000180a0       ??1?$_Pair_base@$$CBVBrn@OpenHome@@PAVObjectType@Stack@Net@2@@std@@QAE@XZ 004190a0 f i libohNetCore:Stack.obj
 0001:000180d0       ?_Buynode@?$_Tree_val@V?$_Tmap_traits@PAXPAXU?$less@PAX@std@@V?$allocator@U?$pair@QAXPAX@std@@@2@$0A@@std@@@std@@QAEPAU_Node@?$_Tree_nod@V?$_Tmap_traits@PAXPAXU?$less@PAX@std@@V?$allocator@U?$pair@QAXPAX@std@@@2@$0A@@std@@@2@XZ 004190d0 f i libohNetCore:Stack.obj
 0001:00018160       ?_Buynode@?$_Tree_val@V?$_Tmap_traits@VBrn@OpenHome@@PAVObjectType@Stack@Net@2@VBufferCmp@2@V?$allocator@U?$pair@$$CBVBrn@OpenHome@@PAVObjectType@Stack@Net@2@@std@@@std@@$0A@@std@@@std@@QAEPAU_Node@?$_Tree_nod@V?$_Tmap_traits@VBrn@OpenHome@@PAVObjectType@Stack@Net@2@VBufferCmp@2@V?$allocator@U?$pair@$$CBVBrn@OpenHome@@PAVObjectType@Stack@Net@2@@std@@@std@@$0A@@std@@@2@XZ 00419160 f i libohNetCore:Stack.obj
 0001:000181f0       ??$_Cons_val@V?$allocator@U?$pair@$$CBVBrn@OpenHome@@PAVObjectType@Stack@Net@2@@std@@@std@@U?$pair@$$CBVBrn@OpenHome@@PAVObjectType@Stack@Net@2@@2@U?$pair@VBrn@OpenHome@@PAVObjectType@Stack@Net@2@@2@@std@@YGXAAV?$allocator@U?$pair@$$CBVBrn@OpenHome@@PAVObjectType@Stack@Net@2@@std@@@0@PAU?$pair@$$CBVBrn@OpenHome@@PAVObjectType@Stack@Net@2@@0@$$QAU?$pair@VBrn@OpenHome@@PAVObjectType@Stack@Net@2@@0@@Z 004191f0 f i libohNetCore:Stack.obj
 0001:00018220       ??$_Cons_val@V?$allocator@U?$pair@QAXPAX@std@@@std@@U?$pair@QAXPAX@2@U?$pair@PAXPAX@2@@std@@YGXAAV?$allocator@U?$pair@QAXPAX@std@@@0@PAU?$pair@QAXPAX@0@$$QAU?$pair@PAXPAX@0@@Z 00419220 f i libohNetCore:Stack.obj
 0001:00018250       ??$_Val_type@PAPAVMListener@Stack@Net@OpenHome@@@std@@YGPAPAVMListener@Stack@Net@OpenHome@@PAPAV1234@@Z 00419250 f i libohNetCore:Stack.obj
 0001:00018260       ??$_Uninit_move@PAVMListener@Stack@Net@OpenHome@@PAV1234@PAV1234@@std@@YGPAPAVMListener@Stack@Net@OpenHome@@PAPAV1234@00AAV?$allocator@PAVMListener@Stack@Net@OpenHome@@@0@0U_Scalar_ptr_iterator_tag@0@@Z 00419260 f i libohNetCore:Stack.obj
 0001:000182d0       ??$forward@AAV?$_Tree_iterator@V?$_Tree_val@V?$_Tmap_traits@PAXPAXU?$less@PAX@std@@V?$allocator@U?$pair@QAXPAX@std@@@2@$0A@@std@@@std@@@std@@@std@@YGAAV?$_Tree_iterator@V?$_Tree_val@V?$_Tmap_traits@PAXPAXU?$less@PAX@std@@V?$allocator@U?$pair@QAXPAX@std@@@2@$0A@@std@@@std@@@0@AAV10@@Z 004192d0 f i libohNetCore:Stack.obj
 0001:000182e0       ??$forward@_N@std@@YG$$QA_NAA_N@Z 004192e0 f i libohNetCore:Stack.obj
 0001:000182f0       ??$?0AAV?$_Tree_iterator@V?$_Tree_val@V?$_Tmap_traits@PAXPAXU?$less@PAX@std@@V?$allocator@U?$pair@QAXPAX@std@@@2@$0A@@std@@@std@@@std@@_N@?$_Pair_base@V?$_Tree_iterator@V?$_Tree_val@V?$_Tmap_traits@PAXPAXU?$less@PAX@std@@V?$allocator@U?$pair@QAXPAX@std@@@2@$0A@@std@@@std@@@std@@_N@std@@QAE@AAV?$_Tree_iterator@V?$_Tree_val@V?$_Tmap_traits@PAXPAXU?$less@PAX@std@@V?$allocator@U?$pair@QAXPAX@std@@@2@$0A@@std@@@std@@@1@$$QA_N@Z 004192f0 f i libohNetCore:Stack.obj
 0001:00018370       ??$forward@AAV?$_Tree_iterator@V?$_Tree_val@V?$_Tmap_traits@VBrn@OpenHome@@PAVObjectType@Stack@Net@2@VBufferCmp@2@V?$allocator@U?$pair@$$CBVBrn@OpenHome@@PAVObjectType@Stack@Net@2@@std@@@std@@$0A@@std@@@std@@@std@@@std@@YGAAV?$_Tree_iterator@V?$_Tree_val@V?$_Tmap_traits@VBrn@OpenHome@@PAVObjectType@Stack@Net@2@VBufferCmp@2@V?$allocator@U?$pair@$$CBVBrn@OpenHome@@PAVObjectType@Stack@Net@2@@std@@@std@@$0A@@std@@@std@@@0@AAV10@@Z 00419370 f i libohNetCore:Stack.obj
 0001:00018380       ??$?0AAV?$_Tree_iterator@V?$_Tree_val@V?$_Tmap_traits@VBrn@OpenHome@@PAVObjectType@Stack@Net@2@VBufferCmp@2@V?$allocator@U?$pair@$$CBVBrn@OpenHome@@PAVObjectType@Stack@Net@2@@std@@@std@@$0A@@std@@@std@@@std@@_N@?$_Pair_base@V?$_Tree_iterator@V?$_Tree_val@V?$_Tmap_traits@VBrn@OpenHome@@PAVObjectType@Stack@Net@2@VBufferCmp@2@V?$allocator@U?$pair@$$CBVBrn@OpenHome@@PAVObjectType@Stack@Net@2@@std@@@std@@$0A@@std@@@std@@@std@@_N@std@@QAE@AAV?$_Tree_iterator@V?$_Tree_val@V?$_Tmap_traits@VBrn@OpenHome@@PAVObjectType@Stack@Net@2@VBufferCmp@2@V?$allocator@U?$pair@$$CBVBrn@OpenHome@@PAVObjectType@Stack@Net@2@@std@@@std@@$0A@@std@@@std@@@1@$$QA_N@Z 00419380 f i libohNetCore:Stack.obj
 0001:00018400       ??$construct@U?$pair@VBrn@OpenHome@@PAVObjectType@Stack@Net@2@@std@@@?$allocator@U?$pair@$$CBVBrn@OpenHome@@PAVObjectType@Stack@Net@2@@std@@@std@@QAEXPAU?$pair@$$CBVBrn@OpenHome@@PAVObjectType@Stack@Net@2@@1@$$QAU?$pair@VBrn@OpenHome@@PAVObjectType@Stack@Net@2@@1@@Z 00419400 f i libohNetCore:Stack.obj
 0001:000184a0       ??$construct@U?$pair@PAXPAX@std@@@?$allocator@U?$pair@QAXPAX@std@@@std@@QAEXPAU?$pair@QAXPAX@1@$$QAU?$pair@PAXPAX@1@@Z 004194a0 f i libohNetCore:Stack.obj
 0001:00018540       ??$_Debug_range@PAPAVMListener@Stack@Net@OpenHome@@@std@@YGXPAPAVMListener@Stack@Net@OpenHome@@0PB_WI@Z 00419540 f i libohNetCore:Stack.obj
 0001:00018590       ??$_Debug_pointer@PAVMListener@Stack@Net@OpenHome@@@std@@YGXPAPAVMListener@Stack@Net@OpenHome@@PB_WI@Z 00419590 f i libohNetCore:Stack.obj
 0001:000185c0       ??$?0VBrn@OpenHome@@PAVObjectType@Stack@Net@1@@?$pair@$$CBVBrn@OpenHome@@PAVObjectType@Stack@Net@2@@std@@QAE@$$QAU?$pair@VBrn@OpenHome@@PAVObjectType@Stack@Net@2@@1@@Z 004195c0 f i libohNetCore:Stack.obj
 0001:00018600       ??$?0PAXPAX@?$pair@QAXPAX@std@@QAE@$$QAU?$pair@PAXPAX@1@@Z 00419600 f i libohNetCore:Stack.obj
 0001:00018640       ??$_Iter_cat@PAPAVMListener@Stack@Net@OpenHome@@@std@@YG?AUrandom_access_iterator_tag@0@ABQAPAVMListener@Stack@Net@OpenHome@@@Z 00419640 f i libohNetCore:Stack.obj
 0001:000186a0       ??$_Debug_range2@PAPAVMListener@Stack@Net@OpenHome@@@std@@YGXPAPAVMListener@Stack@Net@OpenHome@@0PB_WIUrandom_access_iterator_tag@0@@Z 004196a0 f i libohNetCore:Stack.obj
 0001:00018700       ??$forward@VBrn@OpenHome@@@std@@YG$$QAVBrn@OpenHome@@AAV12@@Z 00419700 f i libohNetCore:Stack.obj
 0001:00018710       ??$forward@PAVObjectType@Stack@Net@OpenHome@@@std@@YG$$QAPAVObjectType@Stack@Net@OpenHome@@AAPAV1234@@Z 00419710 f i libohNetCore:Stack.obj
 0001:00018720       ??$?0VBrn@OpenHome@@PAVObjectType@Stack@Net@1@@?$_Pair_base@$$CBVBrn@OpenHome@@PAVObjectType@Stack@Net@2@@std@@QAE@$$QAVBrn@OpenHome@@$$QAPAVObjectType@Stack@Net@3@@Z 00419720 f i libohNetCore:Stack.obj
 0001:000187a0       ??$forward@PAX@std@@YG$$QAPAXAAPAX@Z 004197a0 f i libohNetCore:Stack.obj
 0001:000187b0       ??$?0PAXPAX@?$_Pair_base@QAXPAX@std@@QAE@$$QAPAX0@Z 004197b0 f i libohNetCore:Stack.obj
 0001:00018800       ??0Endpoint@OpenHome@@QAE@XZ 00419800 f   libohNetCore:Network.obj
 0001:00018830       ??0Endpoint@OpenHome@@QAE@IABVBrx@1@@Z 00419830 f   libohNetCore:Network.obj
 0001:00018870       ??0Endpoint@OpenHome@@QAE@II@Z 00419870 f   libohNetCore:Network.obj
 0001:000188a0       ?SetPort@Endpoint@OpenHome@@QAEXI@Z 004198a0 f   libohNetCore:Network.obj
 0001:000188c0       ?SetPort@Endpoint@OpenHome@@QAEXABV12@@Z 004198c0 f   libohNetCore:Network.obj
 0001:000188f0       ?SetAddress@Endpoint@OpenHome@@QAEXABVBrx@2@@Z 004198f0 f   libohNetCore:Network.obj
 0001:00018940       ?SetAddress@Endpoint@OpenHome@@QAEXI@Z 00419940 f   libohNetCore:Network.obj
 0001:00018960       ?SetAddress@Endpoint@OpenHome@@QAEXABV12@@Z 00419960 f   libohNetCore:Network.obj
 0001:00018980       ?Address@Endpoint@OpenHome@@QBEIXZ 00419980 f   libohNetCore:Network.obj
 0001:000189a0       ?Port@Endpoint@OpenHome@@QBEGXZ 004199a0 f   libohNetCore:Network.obj
 0001:000189c0       ?AppendAddress@Endpoint@OpenHome@@QBEXAAVBwx@2@@Z 004199c0 f   libohNetCore:Network.obj
 0001:00018a90       ?AppendEndpoint@Endpoint@OpenHome@@QBEXAAVBwx@2@@Z 00419a90 f   libohNetCore:Network.obj
 0001:00018b10       ?GetAddressOctets@Endpoint@OpenHome@@QBEXAAY03E@Z 00419b10 f   libohNetCore:Network.obj
 0001:00018b70       ?Replace@Endpoint@OpenHome@@QAEXABV12@@Z 00419b70 f   libohNetCore:Network.obj
 0001:00018bb0       ?Equals@Endpoint@OpenHome@@QBE_NABV12@@Z 00419bb0 f   libohNetCore:Network.obj
 0001:00018c00       ??0Socket@OpenHome@@IAE@XZ 00419c00 f   libohNetCore:Network.obj
 0001:00018c40       ?Interrupt@Socket@OpenHome@@QAEX_N@Z 00419c40 f   libohNetCore:Network.obj
 0001:00018d10       ?Close@Socket@OpenHome@@QAEXXZ 00419d10 f   libohNetCore:Network.obj
 0001:00018dd0       ?SetSendBufBytes@Socket@OpenHome@@QAEXI@Z 00419dd0 f   libohNetCore:Network.obj
 0001:00018e00       ?SetRecvBufBytes@Socket@OpenHome@@QAEXI@Z 00419e00 f   libohNetCore:Network.obj
 0001:00018e30       ?SetRecvTimeout@Socket@OpenHome@@QAEXI@Z 00419e30 f   libohNetCore:Network.obj
 0001:00018e60       ?LogVerbose@Socket@OpenHome@@QAEX_N0@Z 00419e60 f   libohNetCore:Network.obj
 0001:00018ed0       ?Send@Socket@OpenHome@@IAEXABVBrx@2@@Z 00419ed0 f   libohNetCore:Network.obj
 0001:000190d0       ?SendTo@Socket@OpenHome@@IAEXABVBrx@2@ABVEndpoint@2@@Z 0041a0d0 f   libohNetCore:Network.obj
 0001:000192e0       ?Receive@Socket@OpenHome@@IAEXAAVBwx@2@@Z 0041a2e0 f   libohNetCore:Network.obj
 0001:00019490       ?Receive@Socket@OpenHome@@IAEXAAVBwx@2@I@Z 0041a490 f   libohNetCore:Network.obj
 0001:00019730       ?ReceiveFrom@Socket@OpenHome@@IAEXAAVBwx@2@AAVEndpoint@2@@Z 0041a730 f   libohNetCore:Network.obj
 0001:000198d0       ?Bind@Socket@OpenHome@@IAEXABVEndpoint@2@@Z 0041a8d0 f   libohNetCore:Network.obj
 0001:00019a10       ?GetPort@Socket@OpenHome@@IAEXAAI@Z 0041aa10 f   libohNetCore:Network.obj
 0001:00019b50       ?Listen@Socket@OpenHome@@IAEXI@Z 0041ab50 f   libohNetCore:Network.obj
 0001:00019c90       ?Accept@Socket@OpenHome@@IAEPAXXZ 0041ac90 f   libohNetCore:Network.obj
 0001:00019e00       ?Log@Socket@OpenHome@@AAEXPBDABVBrx@2@@Z 0041ae00 f   libohNetCore:Network.obj
 0001:0001a0a0       ??0AutoSocket@OpenHome@@QAE@AAVSocket@1@@Z 0041b0a0 f   libohNetCore:Network.obj
 0001:0001a0e0       ??1AutoSocket@OpenHome@@QAE@XZ 0041b0e0 f   libohNetCore:Network.obj
 0001:0001a110       ??0SocketTcp@OpenHome@@IAE@XZ 0041b110 f   libohNetCore:Network.obj
 0001:0001a1e0       ?Receive@SocketTcp@OpenHome@@QAEXAAVBwx@2@I@Z 0041b1e0 f   libohNetCore:Network.obj
 0001:0001a250       ?Write@SocketTcp@OpenHome@@UAEXE@Z 0041b250 f   libohNetCore:Network.obj
 0001:0001a320       ?Write@SocketTcp@OpenHome@@UAEXABVBrx@2@@Z 0041b320 f   libohNetCore:Network.obj
 0001:0001a440       ?WriteFlush@SocketTcp@OpenHome@@UAEXXZ 0041b440 f   libohNetCore:Network.obj
 0001:0001a460       ?Read@SocketTcp@OpenHome@@UAEXAAVBwx@2@@Z 0041b460 f   libohNetCore:Network.obj
 0001:0001a600       ?ReadFlush@SocketTcp@OpenHome@@UAEXXZ 0041b600 f   libohNetCore:Network.obj
 0001:0001a620       ?ReadInterrupt@SocketTcp@OpenHome@@UAEXXZ 0041b620 f   libohNetCore:Network.obj
 0001:0001a650       ?Open@SocketTcpClient@OpenHome@@QAEXXZ 0041b650 f   libohNetCore:Network.obj
 0001:0001a750       ?Connect@SocketTcpClient@OpenHome@@QAEXABVEndpoint@2@I@Z 0041b750 f   libohNetCore:Network.obj
 0001:0001a7c0       ??0SocketTcpServer@OpenHome@@QAE@PBDIIIII@Z 0041b7c0 f   libohNetCore:Network.obj
 0001:0001a910       ?Add@SocketTcpServer@OpenHome@@QAEXPBDPAVSocketTcpSession@2@H@Z 0041b910 f   libohNetCore:Network.obj
 0001:0001aa40       ?Accept@SocketTcpServer@OpenHome@@AAEPAXXZ 0041ba40 f   libohNetCore:Network.obj
 0001:0001abe0       ?Terminating@SocketTcpServer@OpenHome@@AAE_NXZ 0041bbe0 f   libohNetCore:Network.obj
 0001:0001ac40       ??1SocketTcpServer@OpenHome@@UAE@XZ 0041bc40 f   libohNetCore:Network.obj
 0001:0001add0       ??0SocketTcpSession@OpenHome@@IAE@XZ 0041bdd0 f   libohNetCore:Network.obj
 0001:0001ae70       ?Add@SocketTcpSession@OpenHome@@AAEXAAVSocketTcpServer@2@PBDII@Z 0041be70 f   libohNetCore:Network.obj
 0001:0001af80       ?Start@SocketTcpSession@OpenHome@@AAEXXZ 0041bf80 f   libohNetCore:Network.obj
 0001:0001b1c0       ?Open@SocketTcpSession@OpenHome@@AAEXPAX@Z 0041c1c0 f   libohNetCore:Network.obj
 0001:0001b310       ?Close@SocketTcpSession@OpenHome@@AAEXXZ 0041c310 f   libohNetCore:Network.obj
 0001:0001b420       ??1SocketTcpSession@OpenHome@@MAE@XZ 0041c420 f   libohNetCore:Network.obj
 0001:0001b580       ??0SocketUdp@OpenHome@@QAE@XZ 0041c580 f   libohNetCore:Network.obj
 0001:0001b6b0       ??0SocketUdp@OpenHome@@QAE@I@Z 0041c6b0 f   libohNetCore:Network.obj
 0001:0001b7e0       ??0SocketUdp@OpenHome@@QAE@II@Z 0041c7e0 f   libohNetCore:Network.obj
 0001:0001b920       ?SetTtl@SocketUdp@OpenHome@@QAEXI@Z 0041c920 f   libohNetCore:Network.obj
 0001:0001b9c0       ??1SocketUdp@OpenHome@@UAE@XZ 0041c9c0 f   libohNetCore:Network.obj
 0001:0001ba30       ?Port@SocketUdp@OpenHome@@QBEIXZ 0041ca30 f   libohNetCore:Network.obj
 0001:0001ba50       ?Send@SocketUdp@OpenHome@@QAEXABVBrx@2@ABVEndpoint@2@@Z 0041ca50 f   libohNetCore:Network.obj
 0001:0001bab0       ?Receive@SocketUdp@OpenHome@@QAE?AVEndpoint@2@AAVBwx@2@@Z 0041cab0 f   libohNetCore:Network.obj
 0001:0001bba0       ??0SocketUdpMulticast@OpenHome@@QAE@IABVEndpoint@1@@Z 0041cba0 f   libohNetCore:Network.obj
 0001:0001bce0       ??1SocketUdpMulticast@OpenHome@@UAE@XZ 0041cce0 f   libohNetCore:Network.obj
 0001:0001bdd0       ??0UdpReader@OpenHome@@QAE@AAVSocketUdp@1@@Z 0041cdd0 f   libohNetCore:Network.obj
 0001:0001be60       ?Sender@UdpReader@OpenHome@@QBE?AVEndpoint@2@XZ 0041ce60 f   libohNetCore:Network.obj
 0001:0001be90       ?Read@UdpReader@OpenHome@@UAEXAAVBwx@2@@Z 0041ce90 f   libohNetCore:Network.obj
 0001:0001bff0       ?ReadFlush@UdpReader@OpenHome@@UAEXXZ 0041cff0 f   libohNetCore:Network.obj
 0001:0001c010       ?ReadInterrupt@UdpReader@OpenHome@@UAEXXZ 0041d010 f   libohNetCore:Network.obj
 0001:0001c040       ??0UdpWriter@OpenHome@@QAE@AAVSocketUdp@1@ABVEndpoint@1@@Z 0041d040 f   libohNetCore:Network.obj
 0001:0001c0e0       ?Write@UdpWriter@OpenHome@@UAEXE@Z 0041d0e0 f   libohNetCore:Network.obj
 0001:0001c110       ?Write@UdpWriter@OpenHome@@UAEXABVBrx@2@@Z 0041d110 f   libohNetCore:Network.obj
 0001:0001c260       ?WriteFlush@UdpWriter@OpenHome@@UAEXXZ 0041d260 f   libohNetCore:Network.obj
 0001:0001c280       ??_GSocket@OpenHome@@MAEPAXI@Z 0041d280 f i libohNetCore:Network.obj
 0001:0001c280       ??_ESocket@OpenHome@@MAEPAXI@Z 0041d280 f i libohNetCore:Network.obj
 0001:0001c2c0       ??1Socket@OpenHome@@MAE@XZ 0041d2c0 f i libohNetCore:Network.obj
 0001:0001c2e0       ?NetworkInterrupt@Os@OpenHome@@SGHPAX_N@Z 0041d2e0 f i libohNetCore:Network.obj
 0001:0001c310       ?NetworkClose@Os@OpenHome@@SGHPAX@Z 0041d310 f i libohNetCore:Network.obj
 0001:0001c330       ??0NetworkError@OpenHome@@QAE@PBDI@Z 0041d330 f i libohNetCore:Network.obj
 0001:0001c370       ?NetworkSend@Os@OpenHome@@SGHPAXABVBrx@2@@Z 0041d370 f i libohNetCore:Network.obj
 0001:0001c3b0       ??1NetworkError@OpenHome@@QAE@XZ 0041d3b0 f i libohNetCore:Network.obj
 0001:0001c3e0       ?NetworkSendTo@Os@OpenHome@@SGHPAXABVBrx@2@ABVEndpoint@2@@Z 0041d3e0 f i libohNetCore:Network.obj
 0001:0001c430       ?NetworkReceive@Os@OpenHome@@SGHPAXAAVBwx@2@@Z 0041d430 f i libohNetCore:Network.obj
 0001:0001c470       ?NetworkListen@Os@OpenHome@@SGHPAXI@Z 0041d470 f i libohNetCore:Network.obj
 0001:0001c490       ?NetworkAccept@Os@OpenHome@@SGPAXPAX@Z 0041d490 f i libohNetCore:Network.obj
 0001:0001c4b0       ??1IReaderSource@OpenHome@@UAE@XZ 0041d4b0 f i libohNetCore:Network.obj
 0001:0001c4d0       ??_EIReaderSource@OpenHome@@UAEPAXI@Z 0041d4d0 f i libohNetCore:Network.obj
 0001:0001c4d0       ??_GIReaderSource@OpenHome@@UAEPAXI@Z 0041d4d0 f i libohNetCore:Network.obj
 0001:0001c510       ??1IWriter@OpenHome@@UAE@XZ 0041d510 f i libohNetCore:Network.obj
 0001:0001c530       ??_GIWriter@OpenHome@@UAEPAXI@Z 0041d530 f i libohNetCore:Network.obj
 0001:0001c530       ??_EIWriter@OpenHome@@UAEPAXI@Z 0041d530 f i libohNetCore:Network.obj
 0001:0001c570       ??_GSocketTcp@OpenHome@@UAEPAXI@Z 0041d570 f i libohNetCore:Network.obj
 0001:0001c570       ??_ESocketTcp@OpenHome@@UAEPAXI@Z 0041d570 f i libohNetCore:Network.obj
 0001:0001c5b0       ??0IWriter@OpenHome@@QAE@XZ 0041d5b0 f i libohNetCore:Network.obj
 0001:0001c5d0       ??0IReaderSource@OpenHome@@QAE@XZ 0041d5d0 f i libohNetCore:Network.obj
 0001:0001c5f0       ??1SocketTcp@OpenHome@@UAE@XZ 0041d5f0 f i libohNetCore:Network.obj
 0001:0001c670       ??0WriterError@OpenHome@@QAE@PBDI@Z 0041d670 f i libohNetCore:Network.obj
 0001:0001c6b0       ??1WriterError@OpenHome@@QAE@XZ 0041d6b0 f i libohNetCore:Network.obj
 0001:0001c6e0       ??0ReaderError@OpenHome@@QAE@PBDI@Z 0041d6e0 f i libohNetCore:Network.obj
 0001:0001c720       ??1ReaderError@OpenHome@@QAE@XZ 0041d720 f i libohNetCore:Network.obj
 0001:0001c750       ??_GSocketTcpServer@OpenHome@@UAEPAXI@Z 0041d750 f i libohNetCore:Network.obj
 0001:0001c750       ??_ESocketTcpServer@OpenHome@@UAEPAXI@Z 0041d750 f i libohNetCore:Network.obj
 0001:0001c790       ??_ESocketTcpSession@OpenHome@@MAEPAXI@Z 0041d790 f i libohNetCore:Network.obj
 0001:0001c790       ??_GSocketTcpSession@OpenHome@@MAEPAXI@Z 0041d790 f i libohNetCore:Network.obj
 0001:0001c7d0       ??_ESocketUdp@OpenHome@@UAEPAXI@Z 0041d7d0 f i libohNetCore:Network.obj
 0001:0001c7d0       ??_GSocketUdp@OpenHome@@UAEPAXI@Z 0041d7d0 f i libohNetCore:Network.obj
 0001:0001c810       ??_ESocketUdpMulticast@OpenHome@@UAEPAXI@Z 0041d810 f i libohNetCore:Network.obj
 0001:0001c810       ??_GSocketUdpMulticast@OpenHome@@UAEPAXI@Z 0041d810 f i libohNetCore:Network.obj
 0001:0001c850       ??_GUdpReader@OpenHome@@UAEPAXI@Z 0041d850 f i libohNetCore:Network.obj
 0001:0001c850       ??_EUdpReader@OpenHome@@UAEPAXI@Z 0041d850 f i libohNetCore:Network.obj
 0001:0001c890       ??1UdpReader@OpenHome@@UAE@XZ 0041d890 f i libohNetCore:Network.obj
 0001:0001c8c0       ??_GUdpWriter@OpenHome@@UAEPAXI@Z 0041d8c0 f i libohNetCore:Network.obj
 0001:0001c8c0       ??_EUdpWriter@OpenHome@@UAEPAXI@Z 0041d8c0 f i libohNetCore:Network.obj
 0001:0001c900       ??1UdpWriter@OpenHome@@UAE@XZ 0041d900 f i libohNetCore:Network.obj
 0001:0001c930       ??0?$vector@PAVSocketTcpSession@OpenHome@@V?$allocator@PAVSocketTcpSession@OpenHome@@@std@@@std@@QAE@XZ 0041d930 f i libohNetCore:Network.obj
 0001:0001c970       ??1?$vector@PAVSocketTcpSession@OpenHome@@V?$allocator@PAVSocketTcpSession@OpenHome@@@std@@@std@@QAE@XZ 0041d970 f i libohNetCore:Network.obj
 0001:0001c9e0       ?size@?$vector@PAVSocketTcpSession@OpenHome@@V?$allocator@PAVSocketTcpSession@OpenHome@@@std@@@std@@QBEIXZ 0041d9e0 f i libohNetCore:Network.obj
 0001:0001ca10       ??A?$vector@PAVSocketTcpSession@OpenHome@@V?$allocator@PAVSocketTcpSession@OpenHome@@@std@@@std@@QAEAAPAVSocketTcpSession@OpenHome@@I@Z 0041da10 f i libohNetCore:Network.obj
 0001:0001cab0       ?push_back@?$vector@PAVSocketTcpSession@OpenHome@@V?$allocator@PAVSocketTcpSession@OpenHome@@@std@@@std@@QAEXABQAVSocketTcpSession@OpenHome@@@Z 0041dab0 f i libohNetCore:Network.obj
 0001:0001cbc0       ?pop_back@?$vector@PAVSocketTcpSession@OpenHome@@V?$allocator@PAVSocketTcpSession@OpenHome@@@std@@@std@@QAEXXZ 0041dbc0 f i libohNetCore:Network.obj
 0001:0001cc50       ?empty@?$vector@PAVSocketTcpSession@OpenHome@@V?$allocator@PAVSocketTcpSession@OpenHome@@@std@@@std@@QBE_NXZ 0041dc50 f i libohNetCore:Network.obj
 0001:0001cc80       ?_Inside@?$vector@PAVSocketTcpSession@OpenHome@@V?$allocator@PAVSocketTcpSession@OpenHome@@@std@@@std@@IBE_NPBQAVSocketTcpSession@OpenHome@@@Z 0041dc80 f i libohNetCore:Network.obj
 0001:0001ccd0       ?_Reserve@?$vector@PAVSocketTcpSession@OpenHome@@V?$allocator@PAVSocketTcpSession@OpenHome@@@std@@@std@@IAEXI@Z 0041dcd0 f i libohNetCore:Network.obj
 0001:0001cd50       ?_Tidy@?$vector@PAVSocketTcpSession@OpenHome@@V?$allocator@PAVSocketTcpSession@OpenHome@@@std@@@std@@IAEXXZ 0041dd50 f i libohNetCore:Network.obj
 0001:0001cde0       ?_Orphan_range@?$vector@PAVSocketTcpSession@OpenHome@@V?$allocator@PAVSocketTcpSession@OpenHome@@@std@@@std@@IBEXPAPAVSocketTcpSession@OpenHome@@0@Z 0041dde0 f i libohNetCore:Network.obj
 0001:0001cef0       ??0?$_Vector_val@PAVSocketTcpSession@OpenHome@@V?$allocator@PAVSocketTcpSession@OpenHome@@@std@@@std@@QAE@V?$allocator@PAVSocketTcpSession@OpenHome@@@1@@Z 0041def0 f i libohNetCore:Network.obj
 0001:0001d010       ??1?$_Vector_val@PAVSocketTcpSession@OpenHome@@V?$allocator@PAVSocketTcpSession@OpenHome@@@std@@@std@@QAE@XZ 0041e010 f i libohNetCore:Network.obj
 0001:0001d0f0       ??0?$allocator@PAVSocketTcpSession@OpenHome@@@std@@QAE@XZ 0041e0f0 f i libohNetCore:Network.obj
 0001:0001d110       ?reserve@?$vector@PAVSocketTcpSession@OpenHome@@V?$allocator@PAVSocketTcpSession@OpenHome@@@std@@@std@@QAEXI@Z 0041e110 f i libohNetCore:Network.obj
 0001:0001d280       ?capacity@?$vector@PAVSocketTcpSession@OpenHome@@V?$allocator@PAVSocketTcpSession@OpenHome@@@std@@@std@@QBEIXZ 0041e280 f i libohNetCore:Network.obj
 0001:0001d2b0       ?max_size@?$vector@PAVSocketTcpSession@OpenHome@@V?$allocator@PAVSocketTcpSession@OpenHome@@@std@@@std@@QBEIXZ 0041e2b0 f i libohNetCore:Network.obj
 0001:0001d2e0       ?_Destroy@?$vector@PAVSocketTcpSession@OpenHome@@V?$allocator@PAVSocketTcpSession@OpenHome@@@std@@@std@@IAEXPAPAVSocketTcpSession@OpenHome@@0@Z 0041e2e0 f i libohNetCore:Network.obj
 0001:0001d320       ?_Grow_to@?$vector@PAVSocketTcpSession@OpenHome@@V?$allocator@PAVSocketTcpSession@OpenHome@@@std@@@std@@IBEII@Z 0041e320 f i libohNetCore:Network.obj
 0001:0001d3a0       ?_Xlen@?$vector@PAVSocketTcpSession@OpenHome@@V?$allocator@PAVSocketTcpSession@OpenHome@@@std@@@std@@IBEXXZ 0041e3a0 f i libohNetCore:Network.obj
 0001:0001d3d0       ??0?$allocator@PAVSocketTcpSession@OpenHome@@@std@@QAE@ABV01@@Z 0041e3d0 f i libohNetCore:Network.obj
 0001:0001d3f0       ?deallocate@?$allocator@PAVSocketTcpSession@OpenHome@@@std@@QAEXPAPAVSocketTcpSession@OpenHome@@I@Z 0041e3f0 f i libohNetCore:Network.obj
 0001:0001d420       ?allocate@?$allocator@PAVSocketTcpSession@OpenHome@@@std@@QAEPAPAVSocketTcpSession@OpenHome@@I@Z 0041e420 f i libohNetCore:Network.obj
 0001:0001d450       ?max_size@?$allocator@PAVSocketTcpSession@OpenHome@@@std@@QBEIXZ 0041e450 f i libohNetCore:Network.obj
 0001:0001d4a0       ??$MakeFunctor@VSocketTcpSession@OpenHome@@XV12@@OpenHome@@YG?AV?$MemberTranslator@VSocketTcpSession@OpenHome@@P812@AEXXZ@0@AAVSocketTcpSession@0@ABQ820@AEXXZ@Z 0041e4a0 f i libohNetCore:Network.obj
 0001:0001d4d0       ??$addressof@QAVSocketTcpSession@OpenHome@@@std@@YGPBQAVSocketTcpSession@OpenHome@@ABQAV12@@Z 0041e4d0 f i libohNetCore:Network.obj
 0001:0001d4e0       ??$_Cons_val@V?$allocator@PAVSocketTcpSession@OpenHome@@@std@@PAVSocketTcpSession@OpenHome@@AAPAV34@@std@@YGXAAV?$allocator@PAVSocketTcpSession@OpenHome@@@0@PAPAVSocketTcpSession@OpenHome@@AAPAV23@@Z 0041e4e0 f i libohNetCore:Network.obj
 0001:0001d510       ??$_Cons_val@V?$allocator@PAVSocketTcpSession@OpenHome@@@std@@PAVSocketTcpSession@OpenHome@@ABQAV34@@std@@YGXAAV?$allocator@PAVSocketTcpSession@OpenHome@@@0@PAPAVSocketTcpSession@OpenHome@@ABQAV23@@Z 0041e510 f i libohNetCore:Network.obj
 0001:0001d540       ??$_Dest_val@V?$allocator@PAVSocketTcpSession@OpenHome@@@std@@PAVSocketTcpSession@OpenHome@@@std@@YGXAAV?$allocator@PAVSocketTcpSession@OpenHome@@@0@PAPAVSocketTcpSession@OpenHome@@@Z 0041e540 f i libohNetCore:Network.obj
 0001:0001d560       ??$?0PAVSocketTcpSession@OpenHome@@@?$allocator@U_Container_proxy@std@@@std@@QAE@ABV?$allocator@PAVSocketTcpSession@OpenHome@@@1@@Z 0041e560 f i libohNetCore:Network.obj
 0001:0001d580       ??$_Umove@PAPAVSocketTcpSession@OpenHome@@@?$vector@PAVSocketTcpSession@OpenHome@@V?$allocator@PAVSocketTcpSession@OpenHome@@@std@@@std@@IAEPAPAVSocketTcpSession@OpenHome@@PAPAV23@00@Z 0041e580 f i libohNetCore:Network.obj
 0001:0001d5c0       ??$_Destroy_range@V?$allocator@PAVSocketTcpSession@OpenHome@@@std@@@std@@YGXPAPAVSocketTcpSession@OpenHome@@0AAV?$allocator@PAVSocketTcpSession@OpenHome@@@0@@Z 0041e5c0 f i libohNetCore:Network.obj
 0001:0001d610       ??$_Allocate@PAVSocketTcpSession@OpenHome@@@std@@YGPAPAVSocketTcpSession@OpenHome@@IPAPAV12@@Z 0041e610 f i libohNetCore:Network.obj
 0001:0001d690       ?construct@?$allocator@PAVSocketTcpSession@OpenHome@@@std@@QAEXPAPAVSocketTcpSession@OpenHome@@ABQAV34@@Z 0041e690 f i libohNetCore:Network.obj
 0001:0001d6c0       ?destroy@?$allocator@PAVSocketTcpSession@OpenHome@@@std@@QAEXPAPAVSocketTcpSession@OpenHome@@@Z 0041e6c0 f i libohNetCore:Network.obj
 0001:0001d6f0       ??0?$MemberTranslator@VSocketTcpSession@OpenHome@@P812@AEXXZ@OpenHome@@QAE@AAVSocketTcpSession@1@ABQ821@AEXXZ@Z 0041e6f0 f i libohNetCore:Network.obj
 0001:0001d730       ?Thunk@?$MemberTranslator@VSocketTcpSession@OpenHome@@P812@AEXXZ@OpenHome@@SGXABVFunctor@2@@Z 0041e730 f i libohNetCore:Network.obj
 0001:0001d780       ??$forward@AAPAVSocketTcpSession@OpenHome@@@std@@YGAAPAVSocketTcpSession@OpenHome@@AAPAV12@@Z 0041e780 f i libohNetCore:Network.obj
 0001:0001d790       ??$construct@AAPAVSocketTcpSession@OpenHome@@@?$allocator@PAVSocketTcpSession@OpenHome@@@std@@QAEXPAPAVSocketTcpSession@OpenHome@@AAPAV23@@Z 0041e790 f i libohNetCore:Network.obj
 0001:0001d830       ??$forward@ABQAVSocketTcpSession@OpenHome@@@std@@YGABQAVSocketTcpSession@OpenHome@@ABQAV12@@Z 0041e830 f i libohNetCore:Network.obj
 0001:0001d840       ??$_Uninitialized_move@PAPAVSocketTcpSession@OpenHome@@PAPAV12@V?$allocator@PAVSocketTcpSession@OpenHome@@@std@@@std@@YGPAPAVSocketTcpSession@OpenHome@@PAPAV12@00AAV?$allocator@PAVSocketTcpSession@OpenHome@@@0@@Z 0041e840 f i libohNetCore:Network.obj
 0001:0001d890       ??$_Ptr_cat@PAVSocketTcpSession@OpenHome@@PAV12@@std@@YG?AU_Scalar_ptr_iterator_tag@0@PAPAVSocketTcpSession@OpenHome@@0@Z 0041e890 f i libohNetCore:Network.obj
 0001:0001d8f0       ??$_Destroy_range@V?$allocator@PAVSocketTcpSession@OpenHome@@@std@@@std@@YGXPAPAVSocketTcpSession@OpenHome@@0AAV?$allocator@PAVSocketTcpSession@OpenHome@@@0@U_Scalar_ptr_iterator_tag@0@@Z 0041e8f0 f i libohNetCore:Network.obj
 0001:0001d900       ??$_Construct@PAVSocketTcpSession@OpenHome@@ABQAV12@@std@@YGXPAPAVSocketTcpSession@OpenHome@@ABQAV12@@Z 0041e900 f i libohNetCore:Network.obj
 0001:0001d9b0       ??$_Destroy@PAVSocketTcpSession@OpenHome@@@std@@YGXPAPAVSocketTcpSession@OpenHome@@@Z 0041e9b0 f i libohNetCore:Network.obj
 0001:0001d9c0       ??$_Val_type@PAPAVSocketTcpSession@OpenHome@@@std@@YGPAPAVSocketTcpSession@OpenHome@@PAPAV12@@Z 0041e9c0 f i libohNetCore:Network.obj
 0001:0001d9d0       ??$_Uninit_move@PAVSocketTcpSession@OpenHome@@PAV12@PAV12@@std@@YGPAPAVSocketTcpSession@OpenHome@@PAPAV12@00AAV?$allocator@PAVSocketTcpSession@OpenHome@@@0@0U_Scalar_ptr_iterator_tag@0@@Z 0041e9d0 f i libohNetCore:Network.obj
 0001:0001da40       ??$_Debug_range@PAPAVSocketTcpSession@OpenHome@@@std@@YGXPAPAVSocketTcpSession@OpenHome@@0PB_WI@Z 0041ea40 f i libohNetCore:Network.obj
 0001:0001da90       ??$_Debug_pointer@PAVSocketTcpSession@OpenHome@@@std@@YGXPAPAVSocketTcpSession@OpenHome@@PB_WI@Z 0041ea90 f i libohNetCore:Network.obj
 0001:0001dac0       ??$_Iter_cat@PAPAVSocketTcpSession@OpenHome@@@std@@YG?AUrandom_access_iterator_tag@0@ABQAPAVSocketTcpSession@OpenHome@@@Z 0041eac0 f i libohNetCore:Network.obj
 0001:0001db20       ??$_Debug_range2@PAPAVSocketTcpSession@OpenHome@@@std@@YGXPAPAVSocketTcpSession@OpenHome@@0PB_WIUrandom_access_iterator_tag@0@@Z 0041eb20 f i libohNetCore:Network.obj
 0001:0001db80       ??_ESocketTcpSession@OpenHome@@OBA@AEPAXI@Z 0041eb80 f i libohNetCore:Network.obj
 0001:0001db90       ??_ESocketTcp@OpenHome@@WM@AEPAXI@Z 0041eb90 f i libohNetCore:Network.obj
 0001:0001dba0       ??_ESocketTcp@OpenHome@@WBA@AEPAXI@Z 0041eba0 f i libohNetCore:Network.obj
 0001:0001dbb0       ??_ESocketTcpSession@OpenHome@@OM@AEPAXI@Z 0041ebb0 f i libohNetCore:Network.obj
 0001:0001dbc0       ??0NetworkAdapterList@OpenHome@@QAE@I@Z 0041ebc0 f   libohNetCore:NetworkAdapterList.obj
 0001:0001dcc0       ??1NetworkAdapterList@OpenHome@@QAE@XZ 0041ecc0 f   libohNetCore:NetworkAdapterList.obj
 0001:0001dd70       ?CurrentAdapter@NetworkAdapterList@OpenHome@@QBEPAVNetworkAdapter@2@XZ 0041ed70 f   libohNetCore:NetworkAdapterList.obj
 0001:0001de50       ?List@NetworkAdapterList@OpenHome@@QBEABV?$vector@PAVNetworkAdapter@OpenHome@@V?$allocator@PAVNetworkAdapter@OpenHome@@@std@@@std@@XZ 0041ee50 f   libohNetCore:NetworkAdapterList.obj
 0001:0001de70       ?CreateSubnetList@NetworkAdapterList@OpenHome@@QBEPAV?$vector@PAVNetworkAdapter@OpenHome@@V?$allocator@PAVNetworkAdapter@OpenHome@@@std@@@std@@XZ 0041ee70 f   libohNetCore:NetworkAdapterList.obj
 0001:0001dec0       ?DestroySubnetList@NetworkAdapterList@OpenHome@@SGXPAV?$vector@PAVNetworkAdapter@OpenHome@@V?$allocator@PAVNetworkAdapter@OpenHome@@@std@@@std@@@Z 0041eec0 f   libohNetCore:NetworkAdapterList.obj
 0001:0001df50       ?SetCurrentSubnet@NetworkAdapterList@OpenHome@@QAEXI@Z 0041ef50 f   libohNetCore:NetworkAdapterList.obj
 0001:0001dfe0       ?AddCurrentChangeListener@NetworkAdapterList@OpenHome@@QAEIVFunctor@2@@Z 0041efe0 f   libohNetCore:NetworkAdapterList.obj
 0001:0001e030       ?RemoveCurrentChangeListener@NetworkAdapterList@OpenHome@@QAEXI@Z 0041f030 f   libohNetCore:NetworkAdapterList.obj
 0001:0001e070       ?AddSubnetListChangeListener@NetworkAdapterList@OpenHome@@QAEIVFunctor@2@@Z 0041f070 f   libohNetCore:NetworkAdapterList.obj
 0001:0001e0c0       ?RemoveSubnetListChangeListener@NetworkAdapterList@OpenHome@@QAEXI@Z 0041f0c0 f   libohNetCore:NetworkAdapterList.obj
 0001:0001e100       ?CreateSubnetListLocked@NetworkAdapterList@OpenHome@@ABEPAV?$vector@PAVNetworkAdapter@OpenHome@@V?$allocator@PAVNetworkAdapter@OpenHome@@@std@@@std@@XZ 0041f100 f   libohNetCore:NetworkAdapterList.obj
 0001:0001e230       ?AddListener@NetworkAdapterList@OpenHome@@AAEIVFunctor@2@AAV?$map@IVFunctor@OpenHome@@U?$less@I@std@@V?$allocator@U?$pair@$$CBIVFunctor@OpenHome@@@std@@@4@@std@@@Z 0041f230 f   libohNetCore:NetworkAdapterList.obj
 0001:0001e2e0       ?RemoveSubnetListChangeListener@NetworkAdapterList@OpenHome@@AAEXIAAV?$map@IVFunctor@OpenHome@@U?$less@I@std@@V?$allocator@U?$pair@$$CBIVFunctor@OpenHome@@@std@@@4@@std@@@Z 0041f2e0 f   libohNetCore:NetworkAdapterList.obj
 0001:0001e410       ?InterfaceListChanged@NetworkAdapterList@OpenHome@@CGXPAX@Z 0041f410 f   libohNetCore:NetworkAdapterList.obj
 0001:0001e430       ?FindSubnet@NetworkAdapterList@OpenHome@@CGHIABV?$vector@PAVNetworkAdapter@OpenHome@@V?$allocator@PAVNetworkAdapter@OpenHome@@@std@@@std@@@Z 0041f430 f   libohNetCore:NetworkAdapterList.obj
 0001:0001e490       ?UpdateCurrentAdapter@NetworkAdapterList@OpenHome@@AAEXXZ 0041f490 f   libohNetCore:NetworkAdapterList.obj
 0001:0001e540       ?HandleInterfaceListChanged@NetworkAdapterList@OpenHome@@AAEXXZ 0041f540 f   libohNetCore:NetworkAdapterList.obj
 0001:0001e6e0       ?RunCallbacks@NetworkAdapterList@OpenHome@@AAEXAAV?$map@IVFunctor@OpenHome@@U?$less@I@std@@V?$allocator@U?$pair@$$CBIVFunctor@OpenHome@@@std@@@4@@std@@@Z 0041f6e0 f   libohNetCore:NetworkAdapterList.obj
 0001:0001e800       ?NetworkSetInterfaceChangedObserver@Os@OpenHome@@SGXP6GXPAX@Z0@Z 0041f800 f i libohNetCore:NetworkAdapterList.obj
 0001:0001e820       ??1?$map@IVFunctor@OpenHome@@U?$less@I@std@@V?$allocator@U?$pair@$$CBIVFunctor@OpenHome@@@std@@@4@@std@@QAE@XZ 0041f820 f i libohNetCore:NetworkAdapterList.obj
 0001:0001e850       ??1?$pair@V?$_Tree_iterator@V?$_Tree_val@V?$_Tmap_traits@IVFunctor@OpenHome@@U?$less@I@std@@V?$allocator@U?$pair@$$CBIVFunctor@OpenHome@@@std@@@4@$0A@@std@@@std@@@std@@_N@std@@QAE@XZ 0041f850 f i libohNetCore:NetworkAdapterList.obj
 0001:0001e880       ??1?$_Pair_base@V?$_Tree_iterator@V?$_Tree_val@V?$_Tmap_traits@IVFunctor@OpenHome@@U?$less@I@std@@V?$allocator@U?$pair@$$CBIVFunctor@OpenHome@@@std@@@4@$0A@@std@@@std@@@std@@_N@std@@QAE@XZ 0041f880 f i libohNetCore:NetworkAdapterList.obj
 0001:0001e8b0       ??1?$_Tree_iterator@V?$_Tree_val@V?$_Tmap_traits@IVFunctor@OpenHome@@U?$less@I@std@@V?$allocator@U?$pair@$$CBIVFunctor@OpenHome@@@std@@@4@$0A@@std@@@std@@@std@@QAE@XZ 0041f8b0 f i libohNetCore:NetworkAdapterList.obj
 0001:0001e8e0       ??1?$_Tree_const_iterator@V?$_Tree_val@V?$_Tmap_traits@IVFunctor@OpenHome@@U?$less@I@std@@V?$allocator@U?$pair@$$CBIVFunctor@OpenHome@@@std@@@4@$0A@@std@@@std@@@std@@QAE@XZ 0041f8e0 f i libohNetCore:NetworkAdapterList.obj
 0001:0001e910       ??1?$_Tree_unchecked_const_iterator@V?$_Tree_val@V?$_Tmap_traits@IVFunctor@OpenHome@@U?$less@I@std@@V?$allocator@U?$pair@$$CBIVFunctor@OpenHome@@@std@@@4@$0A@@std@@@std@@U_Iterator_base12@2@@std@@QAE@XZ 0041f910 f i libohNetCore:NetworkAdapterList.obj
 0001:0001e940       ??1?$_Iterator012@Ubidirectional_iterator_tag@std@@U?$pair@$$CBIVFunctor@OpenHome@@@2@HPBU32@ABU32@U_Iterator_base12@2@@std@@QAE@XZ 0041f940 f i libohNetCore:NetworkAdapterList.obj
 0001:0001e970       ??0?$_Tree_const_iterator@V?$_Tree_val@V?$_Tmap_traits@IVFunctor@OpenHome@@U?$less@I@std@@V?$allocator@U?$pair@$$CBIVFunctor@OpenHome@@@std@@@4@$0A@@std@@@std@@@std@@QAE@ABV01@@Z 0041f970 f i libohNetCore:NetworkAdapterList.obj
 0001:0001e9a0       ??0?$_Tree_unchecked_const_iterator@V?$_Tree_val@V?$_Tmap_traits@IVFunctor@OpenHome@@U?$less@I@std@@V?$allocator@U?$pair@$$CBIVFunctor@OpenHome@@@std@@@4@$0A@@std@@@std@@U_Iterator_base12@2@@std@@QAE@ABV01@@Z 0041f9a0 f i libohNetCore:NetworkAdapterList.obj
 0001:0001e9e0       ??0?$_Iterator012@Ubidirectional_iterator_tag@std@@U?$pair@$$CBIVFunctor@OpenHome@@@2@HPBU32@ABU32@U_Iterator_base12@2@@std@@QAE@ABU01@@Z 0041f9e0 f i libohNetCore:NetworkAdapterList.obj
 0001:0001ea10       ??0?$map@IVFunctor@OpenHome@@U?$less@I@std@@V?$allocator@U?$pair@$$CBIVFunctor@OpenHome@@@std@@@4@@std@@QAE@XZ 0041fa10 f i libohNetCore:NetworkAdapterList.obj
 0001:0001ea50       ??1?$_Tree@V?$_Tmap_traits@IVFunctor@OpenHome@@U?$less@I@std@@V?$allocator@U?$pair@$$CBIVFunctor@OpenHome@@@std@@@4@$0A@@std@@@std@@QAE@XZ 0041fa50 f i libohNetCore:NetworkAdapterList.obj
 0001:0001eac0       ?begin@?$_Tree@V?$_Tmap_traits@IVFunctor@OpenHome@@U?$less@I@std@@V?$allocator@U?$pair@$$CBIVFunctor@OpenHome@@@std@@@4@$0A@@std@@@std@@QAE?AV?$_Tree_iterator@V?$_Tree_val@V?$_Tmap_traits@IVFunctor@OpenHome@@U?$less@I@std@@V?$allocator@U?$pair@$$CBIVFunctor@OpenHome@@@std@@@4@$0A@@std@@@std@@@2@XZ 0041fac0 f i libohNetCore:NetworkAdapterList.obj
 0001:0001eb20       ?end@?$_Tree@V?$_Tmap_traits@IVFunctor@OpenHome@@U?$less@I@std@@V?$allocator@U?$pair@$$CBIVFunctor@OpenHome@@@std@@@4@$0A@@std@@@std@@QAE?AV?$_Tree_iterator@V?$_Tree_val@V?$_Tmap_traits@IVFunctor@OpenHome@@U?$less@I@std@@V?$allocator@U?$pair@$$CBIVFunctor@OpenHome@@@std@@@4@$0A@@std@@@std@@@2@XZ 0041fb20 f i libohNetCore:NetworkAdapterList.obj
 0001:0001eb70       ?erase@?$_Tree@V?$_Tmap_traits@IVFunctor@OpenHome@@U?$less@I@std@@V?$allocator@U?$pair@$$CBIVFunctor@OpenHome@@@std@@@4@$0A@@std@@@std@@QAE?AV?$_Tree_iterator@V?$_Tree_val@V?$_Tmap_traits@IVFunctor@OpenHome@@U?$less@I@std@@V?$allocator@U?$pair@$$CBIVFunctor@OpenHome@@@std@@@4@$0A@@std@@@std@@@2@V?$_Tree_const_iterator@V?$_Tree_val@V?$_Tmap_traits@IVFunctor@OpenHome@@U?$less@I@std@@V?$allocator@U?$pair@$$CBIVFunctor@OpenHome@@@std@@@4@$0A@@std@@@std@@@2@@Z 0041fb70 f i libohNetCore:NetworkAdapterList.obj
 0001:0001f280       ?find@?$_Tree@V?$_Tmap_traits@IVFunctor@OpenHome@@U?$less@I@std@@V?$allocator@U?$pair@$$CBIVFunctor@OpenHome@@@std@@@4@$0A@@std@@@std@@QAE?AV?$_Tree_iterator@V?$_Tree_val@V?$_Tmap_traits@IVFunctor@OpenHome@@U?$less@I@std@@V?$allocator@U?$pair@$$CBIVFunctor@OpenHome@@@std@@@4@$0A@@std@@@std@@@2@ABI@Z 00420280 f i libohNetCore:NetworkAdapterList.obj
 0001:0001f460       ??0?$vector@PAVNetworkAdapter@OpenHome@@V?$allocator@PAVNetworkAdapter@OpenHome@@@std@@@std@@QAE@XZ 00420460 f i libohNetCore:NetworkAdapterList.obj
 0001:0001f4a0       ??A?$vector@PAVNetworkAdapter@OpenHome@@V?$allocator@PAVNetworkAdapter@OpenHome@@@std@@@std@@QBEABQAVNetworkAdapter@OpenHome@@I@Z 004204a0 f i libohNetCore:NetworkAdapterList.obj
 0001:0001f540       ?push_back@?$vector@PAVNetworkAdapter@OpenHome@@V?$allocator@PAVNetworkAdapter@OpenHome@@@std@@@std@@QAEXABQAVNetworkAdapter@OpenHome@@@Z 00420540 f i libohNetCore:NetworkAdapterList.obj
 0001:0001f650       ??C?$_Tree_iterator@V?$_Tree_val@V?$_Tmap_traits@IVFunctor@OpenHome@@U?$less@I@std@@V?$allocator@U?$pair@$$CBIVFunctor@OpenHome@@@std@@@4@$0A@@std@@@std@@@std@@QBEPAU?$pair@$$CBIVFunctor@OpenHome@@@1@XZ 00420650 f i libohNetCore:NetworkAdapterList.obj
 0001:0001f680       ??E?$_Tree_iterator@V?$_Tree_val@V?$_Tmap_traits@IVFunctor@OpenHome@@U?$less@I@std@@V?$allocator@U?$pair@$$CBIVFunctor@OpenHome@@@std@@@4@$0A@@std@@@std@@@std@@QAE?AV01@H@Z 00420680 f i libohNetCore:NetworkAdapterList.obj
 0001:0001f750       ??9?$_Tree_const_iterator@V?$_Tree_val@V?$_Tmap_traits@IVFunctor@OpenHome@@U?$less@I@std@@V?$allocator@U?$pair@$$CBIVFunctor@OpenHome@@@std@@@4@$0A@@std@@@std@@@std@@QBE_NABV01@@Z 00420750 f i libohNetCore:NetworkAdapterList.obj
 0001:0001f790       ??0?$_Tree_iterator@V?$_Tree_val@V?$_Tmap_traits@IVFunctor@OpenHome@@U?$less@I@std@@V?$allocator@U?$pair@$$CBIVFunctor@OpenHome@@@std@@@4@$0A@@std@@@std@@@std@@QAE@ABV01@@Z 00420790 f i libohNetCore:NetworkAdapterList.obj
 0001:0001f7c0       ??0?$_Tree@V?$_Tmap_traits@IVFunctor@OpenHome@@U?$less@I@std@@V?$allocator@U?$pair@$$CBIVFunctor@OpenHome@@@std@@@4@$0A@@std@@@std@@QAE@ABU?$less@I@1@ABV?$allocator@U?$pair@$$CBIVFunctor@OpenHome@@@std@@@1@@Z 004207c0 f i libohNetCore:NetworkAdapterList.obj
 0001:0001f810       ?lower_bound@?$_Tree@V?$_Tmap_traits@IVFunctor@OpenHome@@U?$less@I@std@@V?$allocator@U?$pair@$$CBIVFunctor@OpenHome@@@std@@@4@$0A@@std@@@std@@QAE?AV?$_Tree_iterator@V?$_Tree_val@V?$_Tmap_traits@IVFunctor@OpenHome@@U?$less@I@std@@V?$allocator@U?$pair@$$CBIVFunctor@OpenHome@@@std@@@4@$0A@@std@@@std@@@2@ABI@Z 00420810 f i libohNetCore:NetworkAdapterList.obj
 0001:0001f870       ?_Lmost@?$_Tree@V?$_Tmap_traits@IVFunctor@OpenHome@@U?$less@I@std@@V?$allocator@U?$pair@$$CBIVFunctor@OpenHome@@@std@@@4@$0A@@std@@@std@@IBEAAPAU_Node@?$_Tree_nod@V?$_Tmap_traits@IVFunctor@OpenHome@@U?$less@I@std@@V?$allocator@U?$pair@$$CBIVFunctor@OpenHome@@@std@@@4@$0A@@std@@@2@XZ 00420870 f i libohNetCore:NetworkAdapterList.obj
 0001:0001f8a0       ?_Lrotate@?$_Tree@V?$_Tmap_traits@IVFunctor@OpenHome@@U?$less@I@std@@V?$allocator@U?$pair@$$CBIVFunctor@OpenHome@@@std@@@4@$0A@@std@@@std@@IAEXPAU_Node@?$_Tree_nod@V?$_Tmap_traits@IVFunctor@OpenHome@@U?$less@I@std@@V?$allocator@U?$pair@$$CBIVFunctor@OpenHome@@@std@@@4@$0A@@std@@@2@@Z 004208a0 f i libohNetCore:NetworkAdapterList.obj
 0001:0001f9c0       ?_Rmost@?$_Tree@V?$_Tmap_traits@IVFunctor@OpenHome@@U?$less@I@std@@V?$allocator@U?$pair@$$CBIVFunctor@OpenHome@@@std@@@4@$0A@@std@@@std@@IBEAAPAU_Node@?$_Tree_nod@V?$_Tmap_traits@IVFunctor@OpenHome@@U?$less@I@std@@V?$allocator@U?$pair@$$CBIVFunctor@OpenHome@@@std@@@4@$0A@@std@@@2@XZ 004209c0 f i libohNetCore:NetworkAdapterList.obj
 0001:0001f9f0       ?_Root@?$_Tree@V?$_Tmap_traits@IVFunctor@OpenHome@@U?$less@I@std@@V?$allocator@U?$pair@$$CBIVFunctor@OpenHome@@@std@@@4@$0A@@std@@@std@@IBEAAPAU_Node@?$_Tree_nod@V?$_Tmap_traits@IVFunctor@OpenHome@@U?$less@I@std@@V?$allocator@U?$pair@$$CBIVFunctor@OpenHome@@@std@@@4@$0A@@std@@@2@XZ 004209f0 f i libohNetCore:NetworkAdapterList.obj
 0001:0001fa20       ?_Rrotate@?$_Tree@V?$_Tmap_traits@IVFunctor@OpenHome@@U?$less@I@std@@V?$allocator@U?$pair@$$CBIVFunctor@OpenHome@@@std@@@4@$0A@@std@@@std@@IAEXPAU_Node@?$_Tree_nod@V?$_Tmap_traits@IVFunctor@OpenHome@@U?$less@I@std@@V?$allocator@U?$pair@$$CBIVFunctor@OpenHome@@@std@@@4@$0A@@std@@@2@@Z 00420a20 f i libohNetCore:NetworkAdapterList.obj
 0001:0001fb40       ?_Orphan_ptr@?$_Tree@V?$_Tmap_traits@IVFunctor@OpenHome@@U?$less@I@std@@V?$allocator@U?$pair@$$CBIVFunctor@OpenHome@@@std@@@4@$0A@@std@@@std@@IBEXAAV12@PAU_Node@?$_Tree_nod@V?$_Tmap_traits@IVFunctor@OpenHome@@U?$less@I@std@@V?$allocator@U?$pair@$$CBIVFunctor@OpenHome@@@std@@@4@$0A@@std@@@2@@Z 00420b40 f i libohNetCore:NetworkAdapterList.obj
 0001:0001fc50       ?_Tidy@?$_Tree@V?$_Tmap_traits@IVFunctor@OpenHome@@U?$less@I@std@@V?$allocator@U?$pair@$$CBIVFunctor@OpenHome@@@std@@@4@$0A@@std@@@std@@IAEXXZ 00420c50 f i libohNetCore:NetworkAdapterList.obj
 0001:0001fd50       ??1?$_Tree_val@V?$_Tmap_traits@IVFunctor@OpenHome@@U?$less@I@std@@V?$allocator@U?$pair@$$CBIVFunctor@OpenHome@@@std@@@4@$0A@@std@@@std@@QAE@XZ 00420d50 f i libohNetCore:NetworkAdapterList.obj
 0001:0001fdc0       ?_Color@?$_Tree_val@V?$_Tmap_traits@IVFunctor@OpenHome@@U?$less@I@std@@V?$allocator@U?$pair@$$CBIVFunctor@OpenHome@@@std@@@4@$0A@@std@@@std@@SGAADPAU_Node@?$_Tree_nod@V?$_Tmap_traits@IVFunctor@OpenHome@@U?$less@I@std@@V?$allocator@U?$pair@$$CBIVFunctor@OpenHome@@@std@@@4@$0A@@std@@@2@@Z 00420dc0 f i libohNetCore:NetworkAdapterList.obj
 0001:0001fdd0       ?_Isnil@?$_Tree_val@V?$_Tmap_traits@IVFunctor@OpenHome@@U?$less@I@std@@V?$allocator@U?$pair@$$CBIVFunctor@OpenHome@@@std@@@4@$0A@@std@@@std@@SGAADPAU_Node@?$_Tree_nod@V?$_Tmap_traits@IVFunctor@OpenHome@@U?$less@I@std@@V?$allocator@U?$pair@$$CBIVFunctor@OpenHome@@@std@@@4@$0A@@std@@@2@@Z 00420dd0 f i libohNetCore:NetworkAdapterList.obj
 0001:0001fde0       ?_Key@?$_Tree_val@V?$_Tmap_traits@IVFunctor@OpenHome@@U?$less@I@std@@V?$allocator@U?$pair@$$CBIVFunctor@OpenHome@@@std@@@4@$0A@@std@@@std@@SGAAIPAU_Node@?$_Tree_nod@V?$_Tmap_traits@IVFunctor@OpenHome@@U?$less@I@std@@V?$allocator@U?$pair@$$CBIVFunctor@OpenHome@@@std@@@4@$0A@@std@@@2@@Z 00420de0 f i libohNetCore:NetworkAdapterList.obj
 0001:0001fe00       ?_Left@?$_Tree_val@V?$_Tmap_traits@IVFunctor@OpenHome@@U?$less@I@std@@V?$allocator@U?$pair@$$CBIVFunctor@OpenHome@@@std@@@4@$0A@@std@@@std@@SGAAPAU_Node@?$_Tree_nod@V?$_Tmap_traits@IVFunctor@OpenHome@@U?$less@I@std@@V?$allocator@U?$pair@$$CBIVFunctor@OpenHome@@@std@@@4@$0A@@std@@@2@PAU342@@Z 00420e00 f i libohNetCore:NetworkAdapterList.obj
 0001:0001fe10       ?_Parent@?$_Tree_val@V?$_Tmap_traits@IVFunctor@OpenHome@@U?$less@I@std@@V?$allocator@U?$pair@$$CBIVFunctor@OpenHome@@@std@@@4@$0A@@std@@@std@@SGAAPAU_Node@?$_Tree_nod@V?$_Tmap_traits@IVFunctor@OpenHome@@U?$less@I@std@@V?$allocator@U?$pair@$$CBIVFunctor@OpenHome@@@std@@@4@$0A@@std@@@2@PAU342@@Z 00420e10 f i libohNetCore:NetworkAdapterList.obj
 0001:0001fe20       ?_Right@?$_Tree_val@V?$_Tmap_traits@IVFunctor@OpenHome@@U?$less@I@std@@V?$allocator@U?$pair@$$CBIVFunctor@OpenHome@@@std@@@4@$0A@@std@@@std@@SGAAPAU_Node@?$_Tree_nod@V?$_Tmap_traits@IVFunctor@OpenHome@@U?$less@I@std@@V?$allocator@U?$pair@$$CBIVFunctor@OpenHome@@@std@@@4@$0A@@std@@@2@PAU342@@Z 00420e20 f i libohNetCore:NetworkAdapterList.obj
 0001:0001fe30       ?_Myval@?$_Tree_val@V?$_Tmap_traits@IVFunctor@OpenHome@@U?$less@I@std@@V?$allocator@U?$pair@$$CBIVFunctor@OpenHome@@@std@@@4@$0A@@std@@@std@@SGAAU?$pair@$$CBIVFunctor@OpenHome@@@2@PAU_Node@?$_Tree_nod@V?$_Tmap_traits@IVFunctor@OpenHome@@U?$less@I@std@@V?$allocator@U?$pair@$$CBIVFunctor@OpenHome@@@std@@@4@$0A@@std@@@2@@Z 00420e30 f i libohNetCore:NetworkAdapterList.obj
 0001:0001fe40       ?_Max@?$_Tree_val@V?$_Tmap_traits@IVFunctor@OpenHome@@U?$less@I@std@@V?$allocator@U?$pair@$$CBIVFunctor@OpenHome@@@std@@@4@$0A@@std@@@std@@SGPAU_Node@?$_Tree_nod@V?$_Tmap_traits@IVFunctor@OpenHome@@U?$less@I@std@@V?$allocator@U?$pair@$$CBIVFunctor@OpenHome@@@std@@@4@$0A@@std@@@2@PAU342@@Z 00420e40 f i libohNetCore:NetworkAdapterList.obj
 0001:0001fe80       ?_Min@?$_Tree_val@V?$_Tmap_traits@IVFunctor@OpenHome@@U?$less@I@std@@V?$allocator@U?$pair@$$CBIVFunctor@OpenHome@@@std@@@4@$0A@@std@@@std@@SGPAU_Node@?$_Tree_nod@V?$_Tmap_traits@IVFunctor@OpenHome@@U?$less@I@std@@V?$allocator@U?$pair@$$CBIVFunctor@OpenHome@@@std@@@4@$0A@@std@@@2@PAU342@@Z 00420e80 f i libohNetCore:NetworkAdapterList.obj
 0001:0001fec0       ??0?$allocator@U?$pair@$$CBIVFunctor@OpenHome@@@std@@@std@@QAE@XZ 00420ec0 f i libohNetCore:NetworkAdapterList.obj
 0001:0001fee0       ?deallocate@?$allocator@U_Node@?$_Tree_nod@V?$_Tmap_traits@IVFunctor@OpenHome@@U?$less@I@std@@V?$allocator@U?$pair@$$CBIVFunctor@OpenHome@@@std@@@4@$0A@@std@@@std@@@std@@QAEXPAU_Node@?$_Tree_nod@V?$_Tmap_traits@IVFunctor@OpenHome@@U?$less@I@std@@V?$allocator@U?$pair@$$CBIVFunctor@OpenHome@@@std@@@4@$0A@@std@@@2@I@Z 00420ee0 f i libohNetCore:NetworkAdapterList.obj
 0001:0001ff10       ?_Inside@?$vector@PAVNetworkAdapter@OpenHome@@V?$allocator@PAVNetworkAdapter@OpenHome@@@std@@@std@@IBE_NPBQAVNetworkAdapter@OpenHome@@@Z 00420f10 f i libohNetCore:NetworkAdapterList.obj
 0001:0001ff60       ?_Reserve@?$vector@PAVNetworkAdapter@OpenHome@@V?$allocator@PAVNetworkAdapter@OpenHome@@@std@@@std@@IAEXI@Z 00420f60 f i libohNetCore:NetworkAdapterList.obj
 0001:0001ffe0       ?_Orphan_range@?$vector@PAVNetworkAdapter@OpenHome@@V?$allocator@PAVNetworkAdapter@OpenHome@@@std@@@std@@IBEXPAPAVNetworkAdapter@OpenHome@@0@Z 00420fe0 f i libohNetCore:NetworkAdapterList.obj
 0001:000200f0       ??0?$_Vector_val@PAVNetworkAdapter@OpenHome@@V?$allocator@PAVNetworkAdapter@OpenHome@@@std@@@std@@QAE@V?$allocator@PAVNetworkAdapter@OpenHome@@@1@@Z 004210f0 f i libohNetCore:NetworkAdapterList.obj
 0001:00020210       ??0?$allocator@PAVNetworkAdapter@OpenHome@@@std@@QAE@XZ 00421210 f i libohNetCore:NetworkAdapterList.obj
 0001:00020230       ??0?$_Tree_iterator@V?$_Tree_val@V?$_Tmap_traits@IVFunctor@OpenHome@@U?$less@I@std@@V?$allocator@U?$pair@$$CBIVFunctor@OpenHome@@@std@@@4@$0A@@std@@@std@@@std@@QAE@PAU_Node@?$_Tree_nod@V?$_Tmap_traits@IVFunctor@OpenHome@@U?$less@I@std@@V?$allocator@U?$pair@$$CBIVFunctor@OpenHome@@@std@@@4@$0A@@std@@@1@PBV?$_Tree_val@V?$_Tmap_traits@IVFunctor@OpenHome@@U?$less@I@std@@V?$allocator@U?$pair@$$CBIVFunctor@OpenHome@@@std@@@4@$0A@@std@@@1@@Z 00421230 f i libohNetCore:NetworkAdapterList.obj
 0001:00020270       ??D?$_Tree_iterator@V?$_Tree_val@V?$_Tmap_traits@IVFunctor@OpenHome@@U?$less@I@std@@V?$allocator@U?$pair@$$CBIVFunctor@OpenHome@@@std@@@4@$0A@@std@@@std@@@std@@QBEAAU?$pair@$$CBIVFunctor@OpenHome@@@1@XZ 00421270 f i libohNetCore:NetworkAdapterList.obj
 0001:000202a0       ??E?$_Tree_iterator@V?$_Tree_val@V?$_Tmap_traits@IVFunctor@OpenHome@@U?$less@I@std@@V?$allocator@U?$pair@$$CBIVFunctor@OpenHome@@@std@@@4@$0A@@std@@@std@@@std@@QAEAAV01@XZ 004212a0 f i libohNetCore:NetworkAdapterList.obj
 0001:000202d0       ??E?$_Tree_const_iterator@V?$_Tree_val@V?$_Tmap_traits@IVFunctor@OpenHome@@U?$less@I@std@@V?$allocator@U?$pair@$$CBIVFunctor@OpenHome@@@std@@@4@$0A@@std@@@std@@@std@@QAEAAV01@XZ 004212d0 f i libohNetCore:NetworkAdapterList.obj
 0001:00020390       ??8?$_Tree_const_iterator@V?$_Tree_val@V?$_Tmap_traits@IVFunctor@OpenHome@@U?$less@I@std@@V?$allocator@U?$pair@$$CBIVFunctor@OpenHome@@@std@@@4@$0A@@std@@@std@@@std@@QBE_NABV01@@Z 00421390 f i libohNetCore:NetworkAdapterList.obj
 0001:00020450       ?_Mynode@?$_Tree_unchecked_const_iterator@V?$_Tree_val@V?$_Tmap_traits@IVFunctor@OpenHome@@U?$less@I@std@@V?$allocator@U?$pair@$$CBIVFunctor@OpenHome@@@std@@@4@$0A@@std@@@std@@U_Iterator_base12@2@@std@@QBEPAU_Node@?$_Tree_nod@V?$_Tmap_traits@IVFunctor@OpenHome@@U?$less@I@std@@V?$allocator@U?$pair@$$CBIVFunctor@OpenHome@@@std@@@4@$0A@@std@@@2@XZ 00421450 f i libohNetCore:NetworkAdapterList.obj
 0001:00020470       ?erase@?$_Tree@V?$_Tmap_traits@IVFunctor@OpenHome@@U?$less@I@std@@V?$allocator@U?$pair@$$CBIVFunctor@OpenHome@@@std@@@4@$0A@@std@@@std@@QAE?AV?$_Tree_iterator@V?$_Tree_val@V?$_Tmap_traits@IVFunctor@OpenHome@@U?$less@I@std@@V?$allocator@U?$pair@$$CBIVFunctor@OpenHome@@@std@@@4@$0A@@std@@@std@@@2@V?$_Tree_const_iterator@V?$_Tree_val@V?$_Tmap_traits@IVFunctor@OpenHome@@U?$less@I@std@@V?$allocator@U?$pair@$$CBIVFunctor@OpenHome@@@std@@@4@$0A@@std@@@std@@@2@0@Z 00421470 f i libohNetCore:NetworkAdapterList.obj
 0001:00020670       ?_Lbound@?$_Tree@V?$_Tmap_traits@IVFunctor@OpenHome@@U?$less@I@std@@V?$allocator@U?$pair@$$CBIVFunctor@OpenHome@@@std@@@4@$0A@@std@@@std@@IAEPAU_Node@?$_Tree_nod@V?$_Tmap_traits@IVFunctor@OpenHome@@U?$less@I@std@@V?$allocator@U?$pair@$$CBIVFunctor@OpenHome@@@std@@@4@$0A@@std@@@2@ABI@Z 00421670 f i libohNetCore:NetworkAdapterList.obj
 0001:00020720       ??0?$_Tree_val@V?$_Tmap_traits@IVFunctor@OpenHome@@U?$less@I@std@@V?$allocator@U?$pair@$$CBIVFunctor@OpenHome@@@std@@@4@$0A@@std@@@std@@QAE@ABU?$less@I@1@V?$allocator@U?$pair@$$CBIVFunctor@OpenHome@@@std@@@1@@Z 00421720 f i libohNetCore:NetworkAdapterList.obj
 0001:00020820       ??1?$_Tree_nod@V?$_Tmap_traits@IVFunctor@OpenHome@@U?$less@I@std@@V?$allocator@U?$pair@$$CBIVFunctor@OpenHome@@@std@@@4@$0A@@std@@@std@@QAE@XZ 00421820 f i libohNetCore:NetworkAdapterList.obj
 0001:00020900       ??0?$allocator@U?$pair@$$CBIVFunctor@OpenHome@@@std@@@std@@QAE@ABV01@@Z 00421900 f i libohNetCore:NetworkAdapterList.obj
 0001:00020920       ?reserve@?$vector@PAVNetworkAdapter@OpenHome@@V?$allocator@PAVNetworkAdapter@OpenHome@@@std@@@std@@QAEXI@Z 00421920 f i libohNetCore:NetworkAdapterList.obj
 0001:00020a90       ?capacity@?$vector@PAVNetworkAdapter@OpenHome@@V?$allocator@PAVNetworkAdapter@OpenHome@@@std@@@std@@QBEIXZ 00421a90 f i libohNetCore:NetworkAdapterList.obj
 0001:00020ac0       ?max_size@?$vector@PAVNetworkAdapter@OpenHome@@V?$allocator@PAVNetworkAdapter@OpenHome@@@std@@@std@@QBEIXZ 00421ac0 f i libohNetCore:NetworkAdapterList.obj
 0001:00020af0       ?_Grow_to@?$vector@PAVNetworkAdapter@OpenHome@@V?$allocator@PAVNetworkAdapter@OpenHome@@@std@@@std@@IBEII@Z 00421af0 f i libohNetCore:NetworkAdapterList.obj
 0001:00020b70       ?_Xlen@?$vector@PAVNetworkAdapter@OpenHome@@V?$allocator@PAVNetworkAdapter@OpenHome@@@std@@@std@@IBEXXZ 00421b70 f i libohNetCore:NetworkAdapterList.obj
 0001:00020ba0       ??0?$allocator@PAVNetworkAdapter@OpenHome@@@std@@QAE@ABV01@@Z 00421ba0 f i libohNetCore:NetworkAdapterList.obj
 0001:00020bc0       ??0?$_Tree_const_iterator@V?$_Tree_val@V?$_Tmap_traits@IVFunctor@OpenHome@@U?$less@I@std@@V?$allocator@U?$pair@$$CBIVFunctor@OpenHome@@@std@@@4@$0A@@std@@@std@@@std@@QAE@PAU_Node@?$_Tree_nod@V?$_Tmap_traits@IVFunctor@OpenHome@@U?$less@I@std@@V?$allocator@U?$pair@$$CBIVFunctor@OpenHome@@@std@@@4@$0A@@std@@@1@PBV?$_Tree_val@V?$_Tmap_traits@IVFunctor@OpenHome@@U?$less@I@std@@V?$allocator@U?$pair@$$CBIVFunctor@OpenHome@@@std@@@4@$0A@@std@@@1@@Z 00421bc0 f i libohNetCore:NetworkAdapterList.obj
 0001:00020c00       ??D?$_Tree_const_iterator@V?$_Tree_val@V?$_Tmap_traits@IVFunctor@OpenHome@@U?$less@I@std@@V?$allocator@U?$pair@$$CBIVFunctor@OpenHome@@@std@@@4@$0A@@std@@@std@@@std@@QBEABU?$pair@$$CBIVFunctor@OpenHome@@@1@XZ 00421c00 f i libohNetCore:NetworkAdapterList.obj
 0001:00020cc0       ??E?$_Tree_unchecked_const_iterator@V?$_Tree_val@V?$_Tmap_traits@IVFunctor@OpenHome@@U?$less@I@std@@V?$allocator@U?$pair@$$CBIVFunctor@OpenHome@@@std@@@4@$0A@@std@@@std@@U_Iterator_base12@2@@std@@QAEAAV01@XZ 00421cc0 f i libohNetCore:NetworkAdapterList.obj
 0001:00020d80       ??1?$_Tmap_traits@IVFunctor@OpenHome@@U?$less@I@std@@V?$allocator@U?$pair@$$CBIVFunctor@OpenHome@@@std@@@4@$0A@@std@@QAE@XZ 00421d80 f i libohNetCore:NetworkAdapterList.obj
 0001:00020db0       ?clear@?$_Tree@V?$_Tmap_traits@IVFunctor@OpenHome@@U?$less@I@std@@V?$allocator@U?$pair@$$CBIVFunctor@OpenHome@@@std@@@4@$0A@@std@@@std@@QAEXXZ 00421db0 f i libohNetCore:NetworkAdapterList.obj
 0001:00020e30       ??0?$_Tree_nod@V?$_Tmap_traits@IVFunctor@OpenHome@@U?$less@I@std@@V?$allocator@U?$pair@$$CBIVFunctor@OpenHome@@@std@@@4@$0A@@std@@@std@@QAE@ABU?$less@I@1@V?$allocator@U?$pair@$$CBIVFunctor@OpenHome@@@std@@@1@@Z 00421e30 f i libohNetCore:NetworkAdapterList.obj
 0001:00020f40       ?allocate@?$allocator@U_Node@?$_Tree_nod@V?$_Tmap_traits@IVFunctor@OpenHome@@U?$less@I@std@@V?$allocator@U?$pair@$$CBIVFunctor@OpenHome@@@std@@@4@$0A@@std@@@std@@@std@@QAEPAU_Node@?$_Tree_nod@V?$_Tmap_traits@IVFunctor@OpenHome@@U?$less@I@std@@V?$allocator@U?$pair@$$CBIVFunctor@OpenHome@@@std@@@4@$0A@@std@@@2@I@Z 00421f40 f i libohNetCore:NetworkAdapterList.obj
 0001:00020f70       ?allocate@?$allocator@PAVNetworkAdapter@OpenHome@@@std@@QAEPAPAVNetworkAdapter@OpenHome@@I@Z 00421f70 f i libohNetCore:NetworkAdapterList.obj
 0001:00020fa0       ?max_size@?$allocator@PAVNetworkAdapter@OpenHome@@@std@@QBEIXZ 00421fa0 f i libohNetCore:NetworkAdapterList.obj
 0001:00020ff0       ??E?$_Tree_const_iterator@V?$_Tree_val@V?$_Tmap_traits@IVFunctor@OpenHome@@U?$less@I@std@@V?$allocator@U?$pair@$$CBIVFunctor@OpenHome@@@std@@@4@$0A@@std@@@std@@@std@@QAE?AV01@H@Z 00421ff0 f i libohNetCore:NetworkAdapterList.obj
 0001:000210c0       ??0?$_Tree_unchecked_const_iterator@V?$_Tree_val@V?$_Tmap_traits@IVFunctor@OpenHome@@U?$less@I@std@@V?$allocator@U?$pair@$$CBIVFunctor@OpenHome@@@std@@@4@$0A@@std@@@std@@U_Iterator_base12@2@@std@@QAE@PAU_Node@?$_Tree_nod@V?$_Tmap_traits@IVFunctor@OpenHome@@U?$less@I@std@@V?$allocator@U?$pair@$$CBIVFunctor@OpenHome@@@std@@@4@$0A@@std@@@1@PBV?$_Tree_val@V?$_Tmap_traits@IVFunctor@OpenHome@@U?$less@I@std@@V?$allocator@U?$pair@$$CBIVFunctor@OpenHome@@@std@@@4@$0A@@std@@@1@@Z 004220c0 f i libohNetCore:NetworkAdapterList.obj
 0001:00021140       ??0?$_Iterator012@Ubidirectional_iterator_tag@std@@U?$pair@$$CBIVFunctor@OpenHome@@@2@HPBU32@ABU32@U_Iterator_base12@2@@std@@QAE@XZ 00422140 f i libohNetCore:NetworkAdapterList.obj
 0001:00021170       ?_Erase@?$_Tree@V?$_Tmap_traits@IVFunctor@OpenHome@@U?$less@I@std@@V?$allocator@U?$pair@$$CBIVFunctor@OpenHome@@@std@@@4@$0A@@std@@@std@@IAEXPAU_Node@?$_Tree_nod@V?$_Tmap_traits@IVFunctor@OpenHome@@U?$less@I@std@@V?$allocator@U?$pair@$$CBIVFunctor@OpenHome@@@std@@@4@$0A@@std@@@2@@Z 00422170 f i libohNetCore:NetworkAdapterList.obj
 0001:00021210       ??0?$_Tmap_traits@IVFunctor@OpenHome@@U?$less@I@std@@V?$allocator@U?$pair@$$CBIVFunctor@OpenHome@@@std@@@4@$0A@@std@@QAE@U?$less@I@1@@Z 00422210 f i libohNetCore:NetworkAdapterList.obj
 0001:00021240       ??$?0AAIAAVFunctor@OpenHome@@@?$pair@IVFunctor@OpenHome@@@std@@QAE@AAIAAVFunctor@OpenHome@@@Z 00422240 f i libohNetCore:NetworkAdapterList.obj
 0001:00021280       ??$insert@U?$pair@IVFunctor@OpenHome@@@std@@@?$_Tree@V?$_Tmap_traits@IVFunctor@OpenHome@@U?$less@I@std@@V?$allocator@U?$pair@$$CBIVFunctor@OpenHome@@@std@@@4@$0A@@std@@@std@@QAE?AU?$pair@V?$_Tree_iterator@V?$_Tree_val@V?$_Tmap_traits@IVFunctor@OpenHome@@U?$less@I@std@@V?$allocator@U?$pair@$$CBIVFunctor@OpenHome@@@std@@@4@$0A@@std@@@std@@@std@@_N@1@$$QAU?$pair@IVFunctor@OpenHome@@@1@@Z 00422280 f i libohNetCore:NetworkAdapterList.obj
 0001:000212e0       ??$addressof@U?$pair@$$CBIVFunctor@OpenHome@@@std@@@std@@YGPAU?$pair@$$CBIVFunctor@OpenHome@@@0@AAU10@@Z 004222e0 f i libohNetCore:NetworkAdapterList.obj
 0001:000212f0       ??$_Dest_val@V?$allocator@U?$pair@$$CBIVFunctor@OpenHome@@@std@@@std@@U?$pair@$$CBIVFunctor@OpenHome@@@2@@std@@YGXAAV?$allocator@U?$pair@$$CBIVFunctor@OpenHome@@@std@@@0@PAU?$pair@$$CBIVFunctor@OpenHome@@@0@@Z 004222f0 f i libohNetCore:NetworkAdapterList.obj
 0001:00021310       ??$_Debug_lt_pred@U?$less@I@std@@II@std@@YG_NU?$less@I@0@ABIAAIPB_WI@Z 00422310 f i libohNetCore:NetworkAdapterList.obj
 0001:00021370       ??$addressof@QAVNetworkAdapter@OpenHome@@@std@@YGPBQAVNetworkAdapter@OpenHome@@ABQAV12@@Z 00422370 f i libohNetCore:NetworkAdapterList.obj
 0001:00021380       ??$_Cons_val@V?$allocator@PAVNetworkAdapter@OpenHome@@@std@@PAVNetworkAdapter@OpenHome@@AAPAV34@@std@@YGXAAV?$allocator@PAVNetworkAdapter@OpenHome@@@0@PAPAVNetworkAdapter@OpenHome@@AAPAV23@@Z 00422380 f i libohNetCore:NetworkAdapterList.obj
 0001:000213b0       ??$_Cons_val@V?$allocator@PAVNetworkAdapter@OpenHome@@@std@@PAVNetworkAdapter@OpenHome@@ABQAV34@@std@@YGXAAV?$allocator@PAVNetworkAdapter@OpenHome@@@0@PAPAVNetworkAdapter@OpenHome@@ABQAV23@@Z 004223b0 f i libohNetCore:NetworkAdapterList.obj
 0001:000213e0       ??$_Kfn@$$CBIVFunctor@OpenHome@@@?$_Tmap_traits@IVFunctor@OpenHome@@U?$less@I@std@@V?$allocator@U?$pair@$$CBIVFunctor@OpenHome@@@std@@@4@$0A@@std@@SGABIABU?$pair@$$CBIVFunctor@OpenHome@@@1@@Z 004223e0 f i libohNetCore:NetworkAdapterList.obj
 0001:000213f0       ??$_Debug_lt_pred@U?$less@I@std@@II@std@@YG_NU?$less@I@0@AAIABIPB_WI@Z 004223f0 f i libohNetCore:NetworkAdapterList.obj
 0001:00021450       ??$?0U_Node@?$_Tree_nod@V?$_Tmap_traits@IVFunctor@OpenHome@@U?$less@I@std@@V?$allocator@U?$pair@$$CBIVFunctor@OpenHome@@@std@@@4@$0A@@std@@@std@@@?$allocator@U_Container_proxy@std@@@std@@QAE@ABV?$allocator@U_Node@?$_Tree_nod@V?$_Tmap_traits@IVFunctor@OpenHome@@U?$less@I@std@@V?$allocator@U?$pair@$$CBIVFunctor@OpenHome@@@std@@@4@$0A@@std@@@std@@@1@@Z 00422450 f i libohNetCore:NetworkAdapterList.obj
 0001:00021470       ??$_Umove@PAPAVNetworkAdapter@OpenHome@@@?$vector@PAVNetworkAdapter@OpenHome@@V?$allocator@PAVNetworkAdapter@OpenHome@@@std@@@std@@IAEPAPAVNetworkAdapter@OpenHome@@PAPAV23@00@Z 00422470 f i libohNetCore:NetworkAdapterList.obj
 0001:000214b0       ??$?0U?$pair@$$CBIVFunctor@OpenHome@@@std@@@?$allocator@U_Node@?$_Tree_nod@V?$_Tmap_traits@IVFunctor@OpenHome@@U?$less@I@std@@V?$allocator@U?$pair@$$CBIVFunctor@OpenHome@@@std@@@4@$0A@@std@@@std@@@std@@QAE@ABV?$allocator@U?$pair@$$CBIVFunctor@OpenHome@@@std@@@1@@Z 004224b0 f i libohNetCore:NetworkAdapterList.obj
 0001:000214d0       ??$_Allocate@U_Node@?$_Tree_nod@V?$_Tmap_traits@IVFunctor@OpenHome@@U?$less@I@std@@V?$allocator@U?$pair@$$CBIVFunctor@OpenHome@@@std@@@4@$0A@@std@@@std@@@std@@YGPAU_Node@?$_Tree_nod@V?$_Tmap_traits@IVFunctor@OpenHome@@U?$less@I@std@@V?$allocator@U?$pair@$$CBIVFunctor@OpenHome@@@std@@@4@$0A@@std@@@0@IPAU120@@Z 004224d0 f i libohNetCore:NetworkAdapterList.obj
 0001:00021550       ??$_Allocate@PAVNetworkAdapter@OpenHome@@@std@@YGPAPAVNetworkAdapter@OpenHome@@IPAPAV12@@Z 00422550 f i libohNetCore:NetworkAdapterList.obj
 0001:000215d0       ?_Linsert@?$_Tree@V?$_Tmap_traits@IVFunctor@OpenHome@@U?$less@I@std@@V?$allocator@U?$pair@$$CBIVFunctor@OpenHome@@@std@@@4@$0A@@std@@@std@@QAE?AU?$pair@V?$_Tree_iterator@V?$_Tree_val@V?$_Tmap_traits@IVFunctor@OpenHome@@U?$less@I@std@@V?$allocator@U?$pair@$$CBIVFunctor@OpenHome@@@std@@@4@$0A@@std@@@std@@@std@@_N@2@PAU_Node@?$_Tree_nod@V?$_Tmap_traits@IVFunctor@OpenHome@@U?$less@I@std@@V?$allocator@U?$pair@$$CBIVFunctor@OpenHome@@@std@@@4@$0A@@std@@@2@_N@Z 004225d0 f i libohNetCore:NetworkAdapterList.obj
 0001:000219b0       ?destroy@?$allocator@U?$pair@$$CBIVFunctor@OpenHome@@@std@@@std@@QAEXPAU?$pair@$$CBIVFunctor@OpenHome@@@2@@Z 004229b0 f i libohNetCore:NetworkAdapterList.obj
 0001:000219e0       ??R?$less@I@std@@QBE_NABI0@Z 004229e0 f i libohNetCore:NetworkAdapterList.obj
 0001:00021a10       ?construct@?$allocator@PAVNetworkAdapter@OpenHome@@@std@@QAEXPAPAVNetworkAdapter@OpenHome@@ABQAV34@@Z 00422a10 f i libohNetCore:NetworkAdapterList.obj
 0001:00021a40       ?_Insert@?$_Tree@V?$_Tmap_traits@IVFunctor@OpenHome@@U?$less@I@std@@V?$allocator@U?$pair@$$CBIVFunctor@OpenHome@@@std@@@4@$0A@@std@@@std@@IAE?AV?$_Tree_iterator@V?$_Tree_val@V?$_Tmap_traits@IVFunctor@OpenHome@@U?$less@I@std@@V?$allocator@U?$pair@$$CBIVFunctor@OpenHome@@@std@@@4@$0A@@std@@@std@@@2@_NPAU_Node@?$_Tree_nod@V?$_Tmap_traits@IVFunctor@OpenHome@@U?$less@I@std@@V?$allocator@U?$pair@$$CBIVFunctor@OpenHome@@@std@@@4@$0A@@std@@@2@1@Z 00422a40 f i libohNetCore:NetworkAdapterList.obj
 0001:00021e00       ??0?$pair@V?$_Tree_iterator@V?$_Tree_val@V?$_Tmap_traits@IVFunctor@OpenHome@@U?$less@I@std@@V?$allocator@U?$pair@$$CBIVFunctor@OpenHome@@@std@@@4@$0A@@std@@@std@@@std@@_N@std@@QAE@$$QAV?$_Tree_iterator@V?$_Tree_val@V?$_Tmap_traits@IVFunctor@OpenHome@@U?$less@I@std@@V?$allocator@U?$pair@$$CBIVFunctor@OpenHome@@@std@@@4@$0A@@std@@@std@@@1@$$QA_N@Z 00422e00 f i libohNetCore:NetworkAdapterList.obj
 0001:00021e40       ??F?$_Tree_iterator@V?$_Tree_val@V?$_Tmap_traits@IVFunctor@OpenHome@@U?$less@I@std@@V?$allocator@U?$pair@$$CBIVFunctor@OpenHome@@@std@@@4@$0A@@std@@@std@@@std@@QAEAAV01@XZ 00422e40 f i libohNetCore:NetworkAdapterList.obj
 0001:00021e70       ?max_size@?$_Tree@V?$_Tmap_traits@IVFunctor@OpenHome@@U?$less@I@std@@V?$allocator@U?$pair@$$CBIVFunctor@OpenHome@@@std@@@4@$0A@@std@@@std@@QBEIXZ 00422e70 f i libohNetCore:NetworkAdapterList.obj
 0001:00021ea0       ??0?$_Pair_base@V?$_Tree_iterator@V?$_Tree_val@V?$_Tmap_traits@IVFunctor@OpenHome@@U?$less@I@std@@V?$allocator@U?$pair@$$CBIVFunctor@OpenHome@@@std@@@4@$0A@@std@@@std@@@std@@_N@std@@QAE@$$QAV?$_Tree_iterator@V?$_Tree_val@V?$_Tmap_traits@IVFunctor@OpenHome@@U?$less@I@std@@V?$allocator@U?$pair@$$CBIVFunctor@OpenHome@@@std@@@4@$0A@@std@@@std@@@1@$$QA_N@Z 00422ea0 f i libohNetCore:NetworkAdapterList.obj
 0001:00021f20       ??F?$_Tree_const_iterator@V?$_Tree_val@V?$_Tmap_traits@IVFunctor@OpenHome@@U?$less@I@std@@V?$allocator@U?$pair@$$CBIVFunctor@OpenHome@@@std@@@4@$0A@@std@@@std@@@std@@QAEAAV01@XZ 00422f20 f i libohNetCore:NetworkAdapterList.obj
 0001:00022040       ?max_size@?$allocator@U?$pair@$$CBIVFunctor@OpenHome@@@std@@@std@@QBEIXZ 00423040 f i libohNetCore:NetworkAdapterList.obj
 0001:00022090       ??F?$_Tree_unchecked_const_iterator@V?$_Tree_val@V?$_Tmap_traits@IVFunctor@OpenHome@@U?$less@I@std@@V?$allocator@U?$pair@$$CBIVFunctor@OpenHome@@@std@@@4@$0A@@std@@@std@@U_Iterator_base12@2@@std@@QAEAAV01@XZ 00423090 f i libohNetCore:NetworkAdapterList.obj
 0001:00022180       ??$forward@AAI@std@@YGAAIAAI@Z 00423180 f i libohNetCore:NetworkAdapterList.obj
 0001:00022190       ??$forward@AAVFunctor@OpenHome@@@std@@YGAAVFunctor@OpenHome@@AAV12@@Z 00423190 f i libohNetCore:NetworkAdapterList.obj
 0001:000221a0       ??$?0AAIAAVFunctor@OpenHome@@@?$_Pair_base@IVFunctor@OpenHome@@@std@@QAE@AAIAAVFunctor@OpenHome@@@Z 004231a0 f i libohNetCore:NetworkAdapterList.obj
 0001:00022200       ??$forward@U?$pair@IVFunctor@OpenHome@@@std@@@std@@YG$$QAU?$pair@IVFunctor@OpenHome@@@0@AAU10@@Z 00423200 f i libohNetCore:NetworkAdapterList.obj
 0001:00022210       ??$_Buynode@U?$pair@IVFunctor@OpenHome@@@std@@@?$_Tree_val@V?$_Tmap_traits@IVFunctor@OpenHome@@U?$less@I@std@@V?$allocator@U?$pair@$$CBIVFunctor@OpenHome@@@std@@@4@$0A@@std@@@std@@QAEPAU_Node@?$_Tree_nod@V?$_Tmap_traits@IVFunctor@OpenHome@@U?$less@I@std@@V?$allocator@U?$pair@$$CBIVFunctor@OpenHome@@@std@@@4@$0A@@std@@@1@$$QAU?$pair@IVFunctor@OpenHome@@@1@@Z 00423210 f i libohNetCore:NetworkAdapterList.obj
 0001:000222f0       ??$forward@AAPAVNetworkAdapter@OpenHome@@@std@@YGAAPAVNetworkAdapter@OpenHome@@AAPAV12@@Z 004232f0 f i libohNetCore:NetworkAdapterList.obj
 0001:00022300       ??$construct@AAPAVNetworkAdapter@OpenHome@@@?$allocator@PAVNetworkAdapter@OpenHome@@@std@@QAEXPAPAVNetworkAdapter@OpenHome@@AAPAV23@@Z 00423300 f i libohNetCore:NetworkAdapterList.obj
 0001:000223a0       ??$forward@ABQAVNetworkAdapter@OpenHome@@@std@@YGABQAVNetworkAdapter@OpenHome@@ABQAV12@@Z 004233a0 f i libohNetCore:NetworkAdapterList.obj
 0001:000223b0       ??$_Uninitialized_move@PAPAVNetworkAdapter@OpenHome@@PAPAV12@V?$allocator@PAVNetworkAdapter@OpenHome@@@std@@@std@@YGPAPAVNetworkAdapter@OpenHome@@PAPAV12@00AAV?$allocator@PAVNetworkAdapter@OpenHome@@@0@@Z 004233b0 f i libohNetCore:NetworkAdapterList.obj
 0001:00022400       ??$?0AAV?$_Tree_iterator@V?$_Tree_val@V?$_Tmap_traits@IVFunctor@OpenHome@@U?$less@I@std@@V?$allocator@U?$pair@$$CBIVFunctor@OpenHome@@@std@@@4@$0A@@std@@@std@@@std@@_N@?$pair@V?$_Tree_iterator@V?$_Tree_val@V?$_Tmap_traits@IVFunctor@OpenHome@@U?$less@I@std@@V?$allocator@U?$pair@$$CBIVFunctor@OpenHome@@@std@@@4@$0A@@std@@@std@@@std@@_N@std@@QAE@AAV?$_Tree_iterator@V?$_Tree_val@V?$_Tmap_traits@IVFunctor@OpenHome@@U?$less@I@std@@V?$allocator@U?$pair@$$CBIVFunctor@OpenHome@@@std@@@4@$0A@@std@@@std@@@1@$$QA_N@Z 00423400 f i libohNetCore:NetworkAdapterList.obj
 0001:00022440       ??$_Destroy@U?$pair@$$CBIVFunctor@OpenHome@@@std@@@std@@YGXPAU?$pair@$$CBIVFunctor@OpenHome@@@0@@Z 00423440 f i libohNetCore:NetworkAdapterList.obj
 0001:00022450       ??$_Construct@PAVNetworkAdapter@OpenHome@@ABQAV12@@std@@YGXPAPAVNetworkAdapter@OpenHome@@ABQAV12@@Z 00423450 f i libohNetCore:NetworkAdapterList.obj
 0001:00022500       ??$move@AAV?$_Tree_iterator@V?$_Tree_val@V?$_Tmap_traits@IVFunctor@OpenHome@@U?$less@I@std@@V?$allocator@U?$pair@$$CBIVFunctor@OpenHome@@@std@@@4@$0A@@std@@@std@@@std@@@std@@YG$$QAV?$_Tree_iterator@V?$_Tree_val@V?$_Tmap_traits@IVFunctor@OpenHome@@U?$less@I@std@@V?$allocator@U?$pair@$$CBIVFunctor@OpenHome@@@std@@@4@$0A@@std@@@std@@@0@AAV10@@Z 00423500 f i libohNetCore:NetworkAdapterList.obj
 0001:00022510       ?_Buynode@?$_Tree_val@V?$_Tmap_traits@IVFunctor@OpenHome@@U?$less@I@std@@V?$allocator@U?$pair@$$CBIVFunctor@OpenHome@@@std@@@4@$0A@@std@@@std@@QAEPAU_Node@?$_Tree_nod@V?$_Tmap_traits@IVFunctor@OpenHome@@U?$less@I@std@@V?$allocator@U?$pair@$$CBIVFunctor@OpenHome@@@std@@@4@$0A@@std@@@2@XZ 00423510 f i libohNetCore:NetworkAdapterList.obj
 0001:000225a0       ??$_Cons_val@V?$allocator@U?$pair@$$CBIVFunctor@OpenHome@@@std@@@std@@U?$pair@$$CBIVFunctor@OpenHome@@@2@U?$pair@IVFunctor@OpenHome@@@2@@std@@YGXAAV?$allocator@U?$pair@$$CBIVFunctor@OpenHome@@@std@@@0@PAU?$pair@$$CBIVFunctor@OpenHome@@@0@$$QAU?$pair@IVFunctor@OpenHome@@@0@@Z 004235a0 f i libohNetCore:NetworkAdapterList.obj
 0001:000225d0       ??$_Val_type@PAPAVNetworkAdapter@OpenHome@@@std@@YGPAPAVNetworkAdapter@OpenHome@@PAPAV12@@Z 004235d0 f i libohNetCore:NetworkAdapterList.obj
 0001:000225e0       ??$_Uninit_move@PAVNetworkAdapter@OpenHome@@PAV12@PAV12@@std@@YGPAPAVNetworkAdapter@OpenHome@@PAPAV12@00AAV?$allocator@PAVNetworkAdapter@OpenHome@@@0@0U_Scalar_ptr_iterator_tag@0@@Z 004235e0 f i libohNetCore:NetworkAdapterList.obj
 0001:00022650       ??$forward@AAV?$_Tree_iterator@V?$_Tree_val@V?$_Tmap_traits@IVFunctor@OpenHome@@U?$less@I@std@@V?$allocator@U?$pair@$$CBIVFunctor@OpenHome@@@std@@@4@$0A@@std@@@std@@@std@@@std@@YGAAV?$_Tree_iterator@V?$_Tree_val@V?$_Tmap_traits@IVFunctor@OpenHome@@U?$less@I@std@@V?$allocator@U?$pair@$$CBIVFunctor@OpenHome@@@std@@@4@$0A@@std@@@std@@@0@AAV10@@Z 00423650 f i libohNetCore:NetworkAdapterList.obj
 0001:00022660       ??$?0AAV?$_Tree_iterator@V?$_Tree_val@V?$_Tmap_traits@IVFunctor@OpenHome@@U?$less@I@std@@V?$allocator@U?$pair@$$CBIVFunctor@OpenHome@@@std@@@4@$0A@@std@@@std@@@std@@_N@?$_Pair_base@V?$_Tree_iterator@V?$_Tree_val@V?$_Tmap_traits@IVFunctor@OpenHome@@U?$less@I@std@@V?$allocator@U?$pair@$$CBIVFunctor@OpenHome@@@std@@@4@$0A@@std@@@std@@@std@@_N@std@@QAE@AAV?$_Tree_iterator@V?$_Tree_val@V?$_Tmap_traits@IVFunctor@OpenHome@@U?$less@I@std@@V?$allocator@U?$pair@$$CBIVFunctor@OpenHome@@@std@@@4@$0A@@std@@@std@@@1@$$QA_N@Z 00423660 f i libohNetCore:NetworkAdapterList.obj
 0001:000226e0       ??$construct@U?$pair@IVFunctor@OpenHome@@@std@@@?$allocator@U?$pair@$$CBIVFunctor@OpenHome@@@std@@@std@@QAEXPAU?$pair@$$CBIVFunctor@OpenHome@@@1@$$QAU?$pair@IVFunctor@OpenHome@@@1@@Z 004236e0 f i libohNetCore:NetworkAdapterList.obj
 0001:00022780       ??$_Debug_range@PAPAVNetworkAdapter@OpenHome@@@std@@YGXPAPAVNetworkAdapter@OpenHome@@0PB_WI@Z 00423780 f i libohNetCore:NetworkAdapterList.obj
 0001:000227d0       ??$_Debug_pointer@PAVNetworkAdapter@OpenHome@@@std@@YGXPAPAVNetworkAdapter@OpenHome@@PB_WI@Z 004237d0 f i libohNetCore:NetworkAdapterList.obj
 0001:00022800       ??$?0IVFunctor@OpenHome@@@?$pair@$$CBIVFunctor@OpenHome@@@std@@QAE@$$QAU?$pair@IVFunctor@OpenHome@@@1@@Z 00423800 f i libohNetCore:NetworkAdapterList.obj
 0001:00022840       ??$_Iter_cat@PAPAVNetworkAdapter@OpenHome@@@std@@YG?AUrandom_access_iterator_tag@0@ABQAPAVNetworkAdapter@OpenHome@@@Z 00423840 f i libohNetCore:NetworkAdapterList.obj
 0001:000228a0       ??$_Debug_range2@PAPAVNetworkAdapter@OpenHome@@@std@@YGXPAPAVNetworkAdapter@OpenHome@@0PB_WIUrandom_access_iterator_tag@0@@Z 004238a0 f i libohNetCore:NetworkAdapterList.obj
 0001:00022900       ??$forward@I@std@@YG$$QAIAAI@Z 00423900 f i libohNetCore:NetworkAdapterList.obj
 0001:00022910       ??$forward@VFunctor@OpenHome@@@std@@YG$$QAVFunctor@OpenHome@@AAV12@@Z 00423910 f i libohNetCore:NetworkAdapterList.obj
 0001:00022920       ??$?0IVFunctor@OpenHome@@@?$_Pair_base@$$CBIVFunctor@OpenHome@@@std@@QAE@$$QAI$$QAVFunctor@OpenHome@@@Z 00423920 f i libohNetCore:NetworkAdapterList.obj
 0001:00022980       ??0QueueBase@OpenHome@@IAE@XZ 00423980 f   libohNetCore:Queue.obj
 0001:000229c0       ?Count@QueueBase@OpenHome@@QBEIXZ 004239c0 f   libohNetCore:Queue.obj
 0001:000229e0       ?DoAdd@QueueBase@OpenHome@@IAEXPAVQueueEntryBase@2@@Z 004239e0 f   libohNetCore:Queue.obj
 0001:00022a40       ?DoMoveAllTo@QueueBase@OpenHome@@IAEXAAV12@@Z 00423a40 f   libohNetCore:Queue.obj
 0001:00022b00       ?DoMoveHeadTo@QueueBase@OpenHome@@IAEAAVQueueEntryBase@2@AAV12@@Z 00423b00 f   libohNetCore:Queue.obj
 0001:00022c00       ?DoMoveTo@QueueEntryBase@OpenHome@@QAEXAAVQueueBase@2@@Z 00423c00 f   libohNetCore:Queue.obj
 0001:00022cc0       ??1QueueBase@OpenHome@@IAE@XZ 00423cc0 f   libohNetCore:Queue.obj
 0001:00022d20       ??0QueueSortedEntry@OpenHome@@IAE@XZ 00423d20 f   libohNetCore:Queue.obj
 0001:00022d60       ?Next@QueueSortedEntry@OpenHome@@IAEAAV12@XZ 00423d60 f   libohNetCore:Queue.obj
 0001:00022da0       ?Prev@QueueSortedEntry@OpenHome@@IAEAAV12@XZ 00423da0 f   libohNetCore:Queue.obj
 0001:00022de0       ?AddBefore@QueueSortedEntry@OpenHome@@IAEXAAV12@@Z 00423de0 f   libohNetCore:Queue.obj
 0001:00022e50       ?Remove@QueueSortedEntry@OpenHome@@IAEXXZ 00423e50 f   libohNetCore:Queue.obj
 0001:00022ec0       ??0QueueSortedEntryHead@OpenHome@@IAE@AAVQueueSortedEntry@1@@Z 00423ec0 f   libohNetCore:Queue.obj
 0001:00022f00       ??0QueueSortedEntryTail@OpenHome@@IAE@AAVQueueSortedEntry@1@@Z 00423f00 f   libohNetCore:Queue.obj
 0001:00022f40       ??0QueueSortedBase@OpenHome@@IAE@XZ 00423f40 f   libohNetCore:Queue.obj
 0001:00022fe0       ?IsEmpty@QueueSortedBase@OpenHome@@QAE_NXZ 00423fe0 f   libohNetCore:Queue.obj
 0001:00023010       ?IsTail@QueueSortedBase@OpenHome@@IBE_NAAVQueueSortedEntry@2@@Z 00424010 f   libohNetCore:Queue.obj
 0001:00023040       ?DoAdd@QueueSortedBase@OpenHome@@IAEXAAVQueueSortedEntry@2@@Z 00424040 f   libohNetCore:Queue.obj
 0001:00023150       ?DoRemove@QueueSortedBase@OpenHome@@IAEXAAVQueueSortedEntry@2@@Z 00424150 f   libohNetCore:Queue.obj
 0001:000231f0       ?DoRemoveHead@QueueSortedBase@OpenHome@@IAEAAVQueueSortedEntry@2@XZ 004241f0 f   libohNetCore:Queue.obj
 0001:000232a0       ?HeadChanged@QueueSortedBase@OpenHome@@EAEXAAVQueueSortedEntry@2@@Z 004242a0 f   libohNetCore:Queue.obj
 0001:000232c0       ??1QueueSortedBase@OpenHome@@UAE@XZ 004242c0 f   libohNetCore:Queue.obj
 0001:000232f0       ??0?$QueueEntry@VQueueBase@OpenHome@@@OpenHome@@QAE@XZ 004242f0 f i libohNetCore:Queue.obj
 0001:00023320       ??0QueueEntryBase@OpenHome@@QAE@XZ 00424320 f i libohNetCore:Queue.obj
 0001:00023350       ??0QueueEmpty@OpenHome@@QAE@PBDI@Z 00424350 f i libohNetCore:Queue.obj
 0001:00023390       ??1QueueEmpty@OpenHome@@QAE@XZ 00424390 f i libohNetCore:Queue.obj
 0001:000233c0       ??_EQueueSortedBase@OpenHome@@UAEPAXI@Z 004243c0 f i libohNetCore:Queue.obj
 0001:000233c0       ??_GQueueSortedBase@OpenHome@@UAEPAXI@Z 004243c0 f i libohNetCore:Queue.obj
 0001:00023400       ?Twiddle@@YGIII@Z          00424400 f   libohNetCore:Maths.obj
 0001:00023430       ?SetRandomSeed@OpenHome@@YGXABVBrx@1@@Z 00424430 f   libohNetCore:Maths.obj
 0001:00023520       ?SetRandomSeed@OpenHome@@YGXI@Z 00424520 f   libohNetCore:Maths.obj
 0001:000235b0       ?Random@OpenHome@@YGIII@Z  004245b0 f   libohNetCore:Maths.obj
 0001:00023750       ?LittleEndian4@Arch@OpenHome@@SGII@Z 00424750 f i libohNetCore:Maths.obj
 0001:00023760       ??0SsdpSocketReader@Net@OpenHome@@QAE@IABVEndpoint@2@@Z 00424760 f   libohNetCore:Discovery.obj
 0001:00023850       ??1SsdpSocketReader@Net@OpenHome@@UAE@XZ 00424850 f   libohNetCore:Discovery.obj
 0001:00023920       ?Sender@SsdpSocketReader@Net@OpenHome@@QBE?AVEndpoint@3@XZ 00424920 f   libohNetCore:Discovery.obj
 0001:00023950       ?Read@SsdpSocketReader@Net@OpenHome@@UAEXAAVBwx@3@@Z 00424950 f   libohNetCore:Discovery.obj
 0001:00023990       ?ReadFlush@SsdpSocketReader@Net@OpenHome@@UAEXXZ 00424990 f   libohNetCore:Discovery.obj
 0001:000239d0       ?ReadInterrupt@SsdpSocketReader@Net@OpenHome@@UAEXXZ 004249d0 f   libohNetCore:Discovery.obj
 0001:00023a10       ??0SsdpListener@Net@OpenHome@@IAE@XZ 00424a10 f   libohNetCore:Discovery.obj
 0001:00023ae0       ??0SsdpListenerMulticast@Net@OpenHome@@QAE@I@Z 00424ae0 f   libohNetCore:Discovery.obj
 0001:00023dc0       ?Run@SsdpListenerMulticast@Net@OpenHome@@EAEXXZ 00424dc0 f   libohNetCore:Discovery.obj
 0001:00024200       ?Msearch@SsdpListenerMulticast@Net@OpenHome@@AAEXAAVMsearchHandler@123@@Z 00425200 f   libohNetCore:Discovery.obj
 0001:000242d0       ?Msearch@SsdpListenerMulticast@Net@OpenHome@@AAEXAAVISsdpMsearchHandler@23@@Z 004252d0 f   libohNetCore:Discovery.obj
 0001:00024590       ?Notify@SsdpListenerMulticast@Net@OpenHome@@AAEXAAVNotifyHandler@123@@Z 00425590 f   libohNetCore:Discovery.obj
 0001:00024660       ?Notify@SsdpListenerMulticast@Net@OpenHome@@AAEXAAVISsdpNotifyHandler@23@@Z 00425660 f   libohNetCore:Discovery.obj
 0001:00024e60       ??1SsdpListenerMulticast@Net@OpenHome@@UAE@XZ 00425e60 f   libohNetCore:Discovery.obj
 0001:00025030       ?AddNotifyHandler@SsdpListenerMulticast@Net@OpenHome@@QAEHPAVISsdpNotifyHandler@23@@Z 00426030 f   libohNetCore:Discovery.obj
 0001:00025180       ?AddMsearchHandler@SsdpListenerMulticast@Net@OpenHome@@QAEHPAVISsdpMsearchHandler@23@@Z 00426180 f   libohNetCore:Discovery.obj
 0001:000252d0       ?RemoveNotifyHandler@SsdpListenerMulticast@Net@OpenHome@@QAEXH@Z 004262d0 f   libohNetCore:Discovery.obj
 0001:00025390       ?RemoveMsearchHandler@SsdpListenerMulticast@Net@OpenHome@@QAEXH@Z 00426390 f   libohNetCore:Discovery.obj
 0001:00025450       ?Interface@SsdpListenerMulticast@Net@OpenHome@@QBEIXZ 00426450 f   libohNetCore:Discovery.obj
 0001:00025470       ?EraseDisabled@SsdpListenerMulticast@Net@OpenHome@@AAEXAAV?$vector@PAVNotifyHandler@SsdpListenerMulticast@Net@OpenHome@@V?$allocator@PAVNotifyHandler@SsdpListenerMulticast@Net@OpenHome@@@std@@@std@@@Z 00426470 f   libohNetCore:Discovery.obj
 0001:00025610       ?EraseDisabled@SsdpListenerMulticast@Net@OpenHome@@AAEXAAV?$vector@PAVMsearchHandler@SsdpListenerMulticast@Net@OpenHome@@V?$allocator@PAVMsearchHandler@SsdpListenerMulticast@Net@OpenHome@@@std@@@std@@@Z 00426610 f   libohNetCore:Discovery.obj
 0001:000257b0       ??0SsdpListenerUnicast@Net@OpenHome@@QAE@AAVISsdpNotifyHandler@12@I@Z 004267b0 f   libohNetCore:Discovery.obj
 0001:00025a10       ??1SsdpListenerUnicast@Net@OpenHome@@UAE@XZ 00426a10 f   libohNetCore:Discovery.obj
 0001:00025b50       ?Run@SsdpListenerUnicast@Net@OpenHome@@EAEXXZ 00426b50 f   libohNetCore:Discovery.obj
 0001:00026280       ?MsearchRoot@SsdpListenerUnicast@Net@OpenHome@@QAEXXZ 00427280 f   libohNetCore:Discovery.obj
 0001:000262c0       ?MsearchUuid@SsdpListenerUnicast@Net@OpenHome@@QAEXABVBrx@3@@Z 004272c0 f   libohNetCore:Discovery.obj
 0001:00026300       ?MsearchDeviceType@SsdpListenerUnicast@Net@OpenHome@@QAEXABVBrx@3@0I@Z 00427300 f   libohNetCore:Discovery.obj
 0001:00026350       ?MsearchServiceType@SsdpListenerUnicast@Net@OpenHome@@QAEXABVBrx@3@0I@Z 00427350 f   libohNetCore:Discovery.obj
 0001:000263a0       ?MsearchAll@SsdpListenerUnicast@Net@OpenHome@@QAEXXZ 004273a0 f   libohNetCore:Discovery.obj
 0001:000263e0       ?MsearchDurationSeconds@SsdpListenerUnicast@Net@OpenHome@@ABEIXZ 004273e0 f   libohNetCore:Discovery.obj
 0001:00026410       ??_ESsdpSocketReader@Net@OpenHome@@UAEPAXI@Z 00427410 f i libohNetCore:Discovery.obj
 0001:00026410       ??_GSsdpSocketReader@Net@OpenHome@@UAEPAXI@Z 00427410 f i libohNetCore:Discovery.obj
 0001:00026450       ??_GSsdpListener@Net@OpenHome@@UAEPAXI@Z 00427450 f i libohNetCore:Discovery.obj
 0001:00026450       ??_ESsdpListener@Net@OpenHome@@UAEPAXI@Z 00427450 f i libohNetCore:Discovery.obj
 0001:00026490       ??0SsdpHeaderCacheControl@Net@OpenHome@@QAE@XZ 00427490 f i libohNetCore:Discovery.obj
 0001:000264c0       ??1SsdpHeaderCacheControl@Net@OpenHome@@UAE@XZ 004274c0 f i libohNetCore:Discovery.obj
 0001:000264f0       ??0HttpHeaderLocation@OpenHome@@QAE@XZ 004274f0 f i libohNetCore:Discovery.obj
 0001:00026570       ??1HttpHeaderLocation@OpenHome@@UAE@XZ 00427570 f i libohNetCore:Discovery.obj
 0001:000265e0       ??0SsdpHeaderServer@Net@OpenHome@@QAE@XZ 004275e0 f i libohNetCore:Discovery.obj
 0001:00026610       ??1SsdpHeaderServer@Net@OpenHome@@UAE@XZ 00427610 f i libohNetCore:Discovery.obj
 0001:00026640       ??0SsdpHeaderSt@Net@OpenHome@@QAE@XZ 00427640 f i libohNetCore:Discovery.obj
 0001:000266e0       ??1SsdpHeaderSt@Net@OpenHome@@UAE@XZ 004276e0 f i libohNetCore:Discovery.obj
 0001:00026770       ??0SsdpHeaderUsn@Net@OpenHome@@QAE@XZ 00427770 f i libohNetCore:Discovery.obj
 0001:00026810       ??1SsdpListener@Net@OpenHome@@UAE@XZ 00427810 f i libohNetCore:Discovery.obj
 0001:000268c0       ??1SsdpHeaderUsn@Net@OpenHome@@UAE@XZ 004278c0 f i libohNetCore:Discovery.obj
 0001:00026950       ??_ESsdpHeaderCacheControl@Net@OpenHome@@UAEPAXI@Z 00427950 f i libohNetCore:Discovery.obj
 0001:00026950       ??_GSsdpHeaderCacheControl@Net@OpenHome@@UAEPAXI@Z 00427950 f i libohNetCore:Discovery.obj
 0001:00026990       ??1HttpHeader@OpenHome@@UAE@XZ 00427990 f i libohNetCore:Discovery.obj
 0001:000269c0       ??1IHttpHeader@OpenHome@@UAE@XZ 004279c0 f i libohNetCore:Discovery.obj
 0001:000269e0       ??_GIHttpHeader@OpenHome@@UAEPAXI@Z 004279e0 f i libohNetCore:Discovery.obj
 0001:000269e0       ??_EIHttpHeader@OpenHome@@UAEPAXI@Z 004279e0 f i libohNetCore:Discovery.obj
 0001:00026a20       ??_EHttpHeaderLocation@OpenHome@@UAEPAXI@Z 00427a20 f i libohNetCore:Discovery.obj
 0001:00026a20       ??_GHttpHeaderLocation@OpenHome@@UAEPAXI@Z 00427a20 f i libohNetCore:Discovery.obj
 0001:00026a60       ??1?$Bws@$0DOI@@OpenHome@@UAE@XZ 00427a60 f i libohNetCore:Discovery.obj
 0001:00026a90       ??_ESsdpHeaderServer@Net@OpenHome@@UAEPAXI@Z 00427a90 f i libohNetCore:Discovery.obj
 0001:00026a90       ??_GSsdpHeaderServer@Net@OpenHome@@UAEPAXI@Z 00427a90 f i libohNetCore:Discovery.obj
 0001:00026ad0       ??_GSsdpHeaderSt@Net@OpenHome@@UAEPAXI@Z 00427ad0 f i libohNetCore:Discovery.obj
 0001:00026ad0       ??_ESsdpHeaderSt@Net@OpenHome@@UAEPAXI@Z 00427ad0 f i libohNetCore:Discovery.obj
 0001:00026b10       ??1?$Bws@$0EA@@OpenHome@@UAE@XZ 00427b10 f i libohNetCore:Discovery.obj
 0001:00026b40       ??_GSsdpHeaderUsn@Net@OpenHome@@UAEPAXI@Z 00427b40 f i libohNetCore:Discovery.obj
 0001:00026b40       ??_ESsdpHeaderUsn@Net@OpenHome@@UAEPAXI@Z 00427b40 f i libohNetCore:Discovery.obj
 0001:00026b80       ??_GSsdpListenerMulticast@Net@OpenHome@@UAEPAXI@Z 00427b80 f i libohNetCore:Discovery.obj
 0001:00026b80       ??_ESsdpListenerMulticast@Net@OpenHome@@UAEPAXI@Z 00427b80 f i libohNetCore:Discovery.obj
 0001:00026bc0       ??1?$Srs@$0EAA@@OpenHome@@UAE@XZ 00427bc0 f i libohNetCore:Discovery.obj
 0001:00026bf0       ??1ReaderHttpRequest@OpenHome@@QAE@XZ 00427bf0 f i libohNetCore:Discovery.obj
 0001:00026c70       ??0SsdpHeaderHost@Net@OpenHome@@QAE@XZ 00427c70 f i libohNetCore:Discovery.obj
 0001:00026ca0       ??1SsdpHeaderHost@Net@OpenHome@@UAE@XZ 00427ca0 f i libohNetCore:Discovery.obj
 0001:00026cd0       ??0SsdpHeaderMan@Net@OpenHome@@QAE@XZ 00427cd0 f i libohNetCore:Discovery.obj
 0001:00026d00       ??1SsdpHeaderMan@Net@OpenHome@@UAE@XZ 00427d00 f i libohNetCore:Discovery.obj
 0001:00026d30       ??0SsdpHeaderMx@Net@OpenHome@@QAE@XZ 00427d30 f i libohNetCore:Discovery.obj
 0001:00026d60       ??1SsdpHeaderMx@Net@OpenHome@@UAE@XZ 00427d60 f i libohNetCore:Discovery.obj
 0001:00026d90       ??0SsdpHeaderNt@Net@OpenHome@@QAE@XZ 00427d90 f i libohNetCore:Discovery.obj
 0001:00026e30       ??1SsdpHeaderNt@Net@OpenHome@@UAE@XZ 00427e30 f i libohNetCore:Discovery.obj
 0001:00026ec0       ??0SsdpHeaderNts@Net@OpenHome@@QAE@XZ 00427ec0 f i libohNetCore:Discovery.obj
 0001:00026ef0       ??1SsdpHeaderNts@Net@OpenHome@@UAE@XZ 00427ef0 f i libohNetCore:Discovery.obj
 0001:00026f20       ??1Srx@OpenHome@@UAE@XZ    00427f20 f i libohNetCore:Discovery.obj
 0001:00026f90       ??1IReader@OpenHome@@UAE@XZ 00427f90 f i libohNetCore:Discovery.obj
 0001:00026fb0       ??_GIReader@OpenHome@@UAEPAXI@Z 00427fb0 f i libohNetCore:Discovery.obj
 0001:00026fb0       ??_EIReader@OpenHome@@UAEPAXI@Z 00427fb0 f i libohNetCore:Discovery.obj
 0001:00026ff0       ??1ReaderHttpHeader@OpenHome@@QAE@XZ 00427ff0 f i libohNetCore:Discovery.obj
 0001:00027020       ??1?$Bws@$0MI@@OpenHome@@UAE@XZ 00428020 f i libohNetCore:Discovery.obj
 0001:00027050       ??_ESsdpHeaderHost@Net@OpenHome@@UAEPAXI@Z 00428050 f i libohNetCore:Discovery.obj
 0001:00027050       ??_GSsdpHeaderHost@Net@OpenHome@@UAEPAXI@Z 00428050 f i libohNetCore:Discovery.obj
 0001:00027090       ??_GSsdpHeaderMan@Net@OpenHome@@UAEPAXI@Z 00428090 f i libohNetCore:Discovery.obj
 0001:00027090       ??_ESsdpHeaderMan@Net@OpenHome@@UAEPAXI@Z 00428090 f i libohNetCore:Discovery.obj
 0001:000270d0       ??_ESsdpHeaderMx@Net@OpenHome@@UAEPAXI@Z 004280d0 f i libohNetCore:Discovery.obj
 0001:000270d0       ??_GSsdpHeaderMx@Net@OpenHome@@UAEPAXI@Z 004280d0 f i libohNetCore:Discovery.obj
 0001:00027110       ??_GSsdpHeaderNt@Net@OpenHome@@UAEPAXI@Z 00428110 f i libohNetCore:Discovery.obj
 0001:00027110       ??_ESsdpHeaderNt@Net@OpenHome@@UAEPAXI@Z 00428110 f i libohNetCore:Discovery.obj
 0001:00027150       ??_ESsdpHeaderNts@Net@OpenHome@@UAEPAXI@Z 00428150 f i libohNetCore:Discovery.obj
 0001:00027150       ??_GSsdpHeaderNts@Net@OpenHome@@UAEPAXI@Z 00428150 f i libohNetCore:Discovery.obj
 0001:00027190       ??8Brx@OpenHome@@QBE_NABV01@@Z 00428190 f i libohNetCore:Discovery.obj
 0001:000271c0       ?Mutex@Handler@SsdpListenerMulticast@Net@OpenHome@@QAEAAV04@XZ 004281c0 f i libohNetCore:Discovery.obj
 0001:000271e0       ?IsDisabled@Handler@SsdpListenerMulticast@Net@OpenHome@@QBE_NXZ 004281e0 f i libohNetCore:Discovery.obj
 0001:00027200       ?Handler@MsearchHandler@SsdpListenerMulticast@Net@OpenHome@@QAEPAVISsdpMsearchHandler@34@XZ 00428200 f i libohNetCore:Discovery.obj
 0001:00027220       ?Handler@NotifyHandler@SsdpListenerMulticast@Net@OpenHome@@QAEPAVISsdpNotifyHandler@34@XZ 00428220 f i libohNetCore:Discovery.obj
 0001:00027240       ??0NotifyHandler@SsdpListenerMulticast@Net@OpenHome@@QAE@PAVISsdpNotifyHandler@23@H@Z 00428240 f i libohNetCore:Discovery.obj
 0001:00027280       ??0Handler@SsdpListenerMulticast@Net@OpenHome@@IAE@H@Z 00428280 f i libohNetCore:Discovery.obj
 0001:000272c0       ??0MsearchHandler@SsdpListenerMulticast@Net@OpenHome@@QAE@PAVISsdpMsearchHandler@23@H@Z 004282c0 f i libohNetCore:Discovery.obj
 0001:00027300       ?Id@Handler@SsdpListenerMulticast@Net@OpenHome@@QBEHXZ 00428300 f i libohNetCore:Discovery.obj
 0001:00027320       ?Lock@Handler@SsdpListenerMulticast@Net@OpenHome@@QAEXXZ 00428320 f i libohNetCore:Discovery.obj
 0001:00027350       ?Unlock@Handler@SsdpListenerMulticast@Net@OpenHome@@QAEXXZ 00428350 f i libohNetCore:Discovery.obj
 0001:00027380       ?Disable@Handler@SsdpListenerMulticast@Net@OpenHome@@QAEXXZ 00428380 f i libohNetCore:Discovery.obj
 0001:000273a0       ??1?$_Vector_iterator@V?$_Vector_val@PAVNotifyHandler@SsdpListenerMulticast@Net@OpenHome@@V?$allocator@PAVNotifyHandler@SsdpListenerMulticast@Net@OpenHome@@@std@@@std@@@std@@QAE@XZ 004283a0 f i libohNetCore:Discovery.obj
 0001:000273d0       ??_GNotifyHandler@SsdpListenerMulticast@Net@OpenHome@@QAEPAXI@Z 004283d0 f i libohNetCore:Discovery.obj
 0001:00027410       ??0?$_Vector_const_iterator@V?$_Vector_val@PAVNotifyHandler@SsdpListenerMulticast@Net@OpenHome@@V?$allocator@PAVNotifyHandler@SsdpListenerMulticast@Net@OpenHome@@@std@@@std@@@std@@QAE@ABV01@@Z 00428410 f i libohNetCore:Discovery.obj
 0001:00027450       ??1?$_Vector_const_iterator@V?$_Vector_val@PAVNotifyHandler@SsdpListenerMulticast@Net@OpenHome@@V?$allocator@PAVNotifyHandler@SsdpListenerMulticast@Net@OpenHome@@@std@@@std@@@std@@QAE@XZ 00428450 f i libohNetCore:Discovery.obj
 0001:00027480       ??4?$_Vector_iterator@V?$_Vector_val@PAVNotifyHandler@SsdpListenerMulticast@Net@OpenHome@@V?$allocator@PAVNotifyHandler@SsdpListenerMulticast@Net@OpenHome@@@std@@@std@@@std@@QAEAAV01@ABV01@@Z 00428480 f i libohNetCore:Discovery.obj
 0001:000274b0       ??1NotifyHandler@SsdpListenerMulticast@Net@OpenHome@@QAE@XZ 004284b0 f i libohNetCore:Discovery.obj
 0001:000274e0       ??1Handler@SsdpListenerMulticast@Net@OpenHome@@QAE@XZ 004284e0 f i libohNetCore:Discovery.obj
 0001:00027510       ??0?$_Iterator012@Urandom_access_iterator_tag@std@@PAVNotifyHandler@SsdpListenerMulticast@Net@OpenHome@@HPBQAV3456@ABQAV3456@U_Iterator_base12@2@@std@@QAE@ABU01@@Z 00428510 f i libohNetCore:Discovery.obj
 0001:00027540       ??1?$_Iterator012@Urandom_access_iterator_tag@std@@PAVNotifyHandler@SsdpListenerMulticast@Net@OpenHome@@HPBQAV3456@ABQAV3456@U_Iterator_base12@2@@std@@QAE@XZ 00428540 f i libohNetCore:Discovery.obj
 0001:00027570       ??4?$_Vector_const_iterator@V?$_Vector_val@PAVNotifyHandler@SsdpListenerMulticast@Net@OpenHome@@V?$allocator@PAVNotifyHandler@SsdpListenerMulticast@Net@OpenHome@@@std@@@std@@@std@@QAEAAV01@ABV01@@Z 00428570 f i libohNetCore:Discovery.obj
 0001:000275b0       ??4?$_Iterator012@Urandom_access_iterator_tag@std@@PAVNotifyHandler@SsdpListenerMulticast@Net@OpenHome@@HPBQAV3456@ABQAV3456@U_Iterator_base12@2@@std@@QAEAAU01@ABU01@@Z 004285b0 f i libohNetCore:Discovery.obj
 0001:000275e0       ??1?$_Vector_iterator@V?$_Vector_val@PAVMsearchHandler@SsdpListenerMulticast@Net@OpenHome@@V?$allocator@PAVMsearchHandler@SsdpListenerMulticast@Net@OpenHome@@@std@@@std@@@std@@QAE@XZ 004285e0 f i libohNetCore:Discovery.obj
 0001:00027610       ??_GMsearchHandler@SsdpListenerMulticast@Net@OpenHome@@QAEPAXI@Z 00428610 f i libohNetCore:Discovery.obj
 0001:00027650       ??0?$_Vector_const_iterator@V?$_Vector_val@PAVMsearchHandler@SsdpListenerMulticast@Net@OpenHome@@V?$allocator@PAVMsearchHandler@SsdpListenerMulticast@Net@OpenHome@@@std@@@std@@@std@@QAE@ABV01@@Z 00428650 f i libohNetCore:Discovery.obj
 0001:00027690       ??1?$_Vector_const_iterator@V?$_Vector_val@PAVMsearchHandler@SsdpListenerMulticast@Net@OpenHome@@V?$allocator@PAVMsearchHandler@SsdpListenerMulticast@Net@OpenHome@@@std@@@std@@@std@@QAE@XZ 00428690 f i libohNetCore:Discovery.obj
 0001:000276c0       ??4?$_Vector_iterator@V?$_Vector_val@PAVMsearchHandler@SsdpListenerMulticast@Net@OpenHome@@V?$allocator@PAVMsearchHandler@SsdpListenerMulticast@Net@OpenHome@@@std@@@std@@@std@@QAEAAV01@ABV01@@Z 004286c0 f i libohNetCore:Discovery.obj
 0001:000276f0       ??1MsearchHandler@SsdpListenerMulticast@Net@OpenHome@@QAE@XZ 004286f0 f i libohNetCore:Discovery.obj
 0001:00027720       ??0?$_Iterator012@Urandom_access_iterator_tag@std@@PAVMsearchHandler@SsdpListenerMulticast@Net@OpenHome@@HPBQAV3456@ABQAV3456@U_Iterator_base12@2@@std@@QAE@ABU01@@Z 00428720 f i libohNetCore:Discovery.obj
 0001:00027750       ??1?$_Iterator012@Urandom_access_iterator_tag@std@@PAVMsearchHandler@SsdpListenerMulticast@Net@OpenHome@@HPBQAV3456@ABQAV3456@U_Iterator_base12@2@@std@@QAE@XZ 00428750 f i libohNetCore:Discovery.obj
 0001:00027780       ??4?$_Vector_const_iterator@V?$_Vector_val@PAVMsearchHandler@SsdpListenerMulticast@Net@OpenHome@@V?$allocator@PAVMsearchHandler@SsdpListenerMulticast@Net@OpenHome@@@std@@@std@@@std@@QAEAAV01@ABV01@@Z 00428780 f i libohNetCore:Discovery.obj
 0001:000277c0       ??4?$_Iterator012@Urandom_access_iterator_tag@std@@PAVMsearchHandler@SsdpListenerMulticast@Net@OpenHome@@HPBQAV3456@ABQAV3456@U_Iterator_base12@2@@std@@QAEAAU01@ABU01@@Z 004287c0 f i libohNetCore:Discovery.obj
 0001:000277f0       ??_ESsdpListenerUnicast@Net@OpenHome@@UAEPAXI@Z 004287f0 f i libohNetCore:Discovery.obj
 0001:000277f0       ??_GSsdpListenerUnicast@Net@OpenHome@@UAEPAXI@Z 004287f0 f i libohNetCore:Discovery.obj
 0001:00027830       ??1?$Sws@$0EAA@@OpenHome@@UAE@XZ 00428830 f i libohNetCore:Discovery.obj
 0001:00027860       ??1SsdpWriterMsearchRequest@Net@OpenHome@@QAE@XZ 00428860 f i libohNetCore:Discovery.obj
 0001:00027890       ??1ReaderHttpResponse@OpenHome@@QAE@XZ 00428890 f i libohNetCore:Discovery.obj
 0001:00027910       ??0SsdpHeaderExt@Net@OpenHome@@QAE@XZ 00428910 f i libohNetCore:Discovery.obj
 0001:00027940       ??1SsdpHeaderExt@Net@OpenHome@@UAE@XZ 00428940 f i libohNetCore:Discovery.obj
 0001:00027970       ??1Swx@OpenHome@@UAE@XZ    00428970 f i libohNetCore:Discovery.obj
 0001:000279e0       ??1WriterHttpRequest@OpenHome@@UAE@XZ 004289e0 f i libohNetCore:Discovery.obj
 0001:00027a50       ??1IWriterHttpMethod@OpenHome@@UAE@XZ 00428a50 f i libohNetCore:Discovery.obj
 0001:00027a70       ??_EIWriterHttpMethod@OpenHome@@UAEPAXI@Z 00428a70 f i libohNetCore:Discovery.obj
 0001:00027a70       ??_GIWriterHttpMethod@OpenHome@@UAEPAXI@Z 00428a70 f i libohNetCore:Discovery.obj
 0001:00027ab0       ??1StatusWritable@ReaderHttpResponse@OpenHome@@QAE@XZ 00428ab0 f i libohNetCore:Discovery.obj
 0001:00027ae0       ??1?$Bws@$0GE@@OpenHome@@UAE@XZ 00428ae0 f i libohNetCore:Discovery.obj
 0001:00027b10       ??_GSsdpHeaderExt@Net@OpenHome@@UAEPAXI@Z 00428b10 f i libohNetCore:Discovery.obj
 0001:00027b10       ??_ESsdpHeaderExt@Net@OpenHome@@UAEPAXI@Z 00428b10 f i libohNetCore:Discovery.obj
 0001:00027b50       ??1WriterHttpHeader@OpenHome@@UAE@XZ 00428b50 f i libohNetCore:Discovery.obj
 0001:00027bc0       ??1IWriterHttpHeader@OpenHome@@UAE@XZ 00428bc0 f i libohNetCore:Discovery.obj
 0001:00027bf0       ??_GIWriterHttpHeader@OpenHome@@UAEPAXI@Z 00428bf0 f i libohNetCore:Discovery.obj
 0001:00027bf0       ??_EIWriterHttpHeader@OpenHome@@UAEPAXI@Z 00428bf0 f i libohNetCore:Discovery.obj
 0001:00027c30       ??1HttpStatus@OpenHome@@QAE@XZ 00428c30 f i libohNetCore:Discovery.obj
 0001:00027c60       ??1WriterHttpField@OpenHome@@UAE@XZ 00428c60 f i libohNetCore:Discovery.obj
 0001:00027c90       ??1WriterAscii@OpenHome@@UAE@XZ 00428c90 f i libohNetCore:Discovery.obj
 0001:00027cc0       ??1IWriterAscii@OpenHome@@UAE@XZ 00428cc0 f i libohNetCore:Discovery.obj
 0001:00027cf0       ??_GIWriterAscii@OpenHome@@UAEPAXI@Z 00428cf0 f i libohNetCore:Discovery.obj
 0001:00027cf0       ??_EIWriterAscii@OpenHome@@UAEPAXI@Z 00428cf0 f i libohNetCore:Discovery.obj
 0001:00027d30       ??1?$vector@PAVIHttpHeader@OpenHome@@V?$allocator@PAVIHttpHeader@OpenHome@@@std@@@std@@QAE@XZ 00428d30 f i libohNetCore:Discovery.obj
 0001:00027da0       ??1?$vector@PBVBrx@OpenHome@@V?$allocator@PBVBrx@OpenHome@@@std@@@std@@QAE@XZ 00428da0 f i libohNetCore:Discovery.obj
 0001:00027e10       ??0?$Sws@$0EAA@@OpenHome@@QAE@AAVIWriter@1@@Z 00428e10 f i libohNetCore:Discovery.obj
 0001:00027e60       ?Ptr@?$Sws@$0EAA@@OpenHome@@EAEPAEXZ 00428e60 f i libohNetCore:Discovery.obj
 0001:00027e80       ??0?$vector@PAVNotifyHandler@SsdpListenerMulticast@Net@OpenHome@@V?$allocator@PAVNotifyHandler@SsdpListenerMulticast@Net@OpenHome@@@std@@@std@@QAE@XZ 00428e80 f i libohNetCore:Discovery.obj
 0001:00027ec0       ??1?$vector@PAVNotifyHandler@SsdpListenerMulticast@Net@OpenHome@@V?$allocator@PAVNotifyHandler@SsdpListenerMulticast@Net@OpenHome@@@std@@@std@@QAE@XZ 00428ec0 f i libohNetCore:Discovery.obj
 0001:00027f30       ?begin@?$vector@PAVNotifyHandler@SsdpListenerMulticast@Net@OpenHome@@V?$allocator@PAVNotifyHandler@SsdpListenerMulticast@Net@OpenHome@@@std@@@std@@QAE?AV?$_Vector_iterator@V?$_Vector_val@PAVNotifyHandler@SsdpListenerMulticast@Net@OpenHome@@V?$allocator@PAVNotifyHandler@SsdpListenerMulticast@Net@OpenHome@@@std@@@std@@@2@XZ 00428f30 f i libohNetCore:Discovery.obj
 0001:00027f80       ?end@?$vector@PAVNotifyHandler@SsdpListenerMulticast@Net@OpenHome@@V?$allocator@PAVNotifyHandler@SsdpListenerMulticast@Net@OpenHome@@@std@@@std@@QAE?AV?$_Vector_iterator@V?$_Vector_val@PAVNotifyHandler@SsdpListenerMulticast@Net@OpenHome@@V?$allocator@PAVNotifyHandler@SsdpListenerMulticast@Net@OpenHome@@@std@@@std@@@2@XZ 00428f80 f i libohNetCore:Discovery.obj
 0001:00027fd0       ?size@?$vector@PAVNotifyHandler@SsdpListenerMulticast@Net@OpenHome@@V?$allocator@PAVNotifyHandler@SsdpListenerMulticast@Net@OpenHome@@@std@@@std@@QBEIXZ 00428fd0 f i libohNetCore:Discovery.obj
 0001:00028000       ??A?$vector@PAVNotifyHandler@SsdpListenerMulticast@Net@OpenHome@@V?$allocator@PAVNotifyHandler@SsdpListenerMulticast@Net@OpenHome@@@std@@@std@@QAEAAPAVNotifyHandler@SsdpListenerMulticast@Net@OpenHome@@I@Z 00429000 f i libohNetCore:Discovery.obj
 0001:000280a0       ?push_back@?$vector@PAVNotifyHandler@SsdpListenerMulticast@Net@OpenHome@@V?$allocator@PAVNotifyHandler@SsdpListenerMulticast@Net@OpenHome@@@std@@@std@@QAEXABQAVNotifyHandler@SsdpListenerMulticast@Net@OpenHome@@@Z 004290a0 f i libohNetCore:Discovery.obj
 0001:000281b0       ?erase@?$vector@PAVNotifyHandler@SsdpListenerMulticast@Net@OpenHome@@V?$allocator@PAVNotifyHandler@SsdpListenerMulticast@Net@OpenHome@@@std@@@std@@QAE?AV?$_Vector_iterator@V?$_Vector_val@PAVNotifyHandler@SsdpListenerMulticast@Net@OpenHome@@V?$allocator@PAVNotifyHandler@SsdpListenerMulticast@Net@OpenHome@@@std@@@std@@@2@V?$_Vector_const_iterator@V?$_Vector_val@PAVNotifyHandler@SsdpListenerMulticast@Net@OpenHome@@V?$allocator@PAVNotifyHandler@SsdpListenerMulticast@Net@OpenHome@@@std@@@std@@@2@@Z 004291b0 f i libohNetCore:Discovery.obj
 0001:000282e0       ??0?$vector@PAVMsearchHandler@SsdpListenerMulticast@Net@OpenHome@@V?$allocator@PAVMsearchHandler@SsdpListenerMulticast@Net@OpenHome@@@std@@@std@@QAE@XZ 004292e0 f i libohNetCore:Discovery.obj
 0001:00028320       ??1?$vector@PAVMsearchHandler@SsdpListenerMulticast@Net@OpenHome@@V?$allocator@PAVMsearchHandler@SsdpListenerMulticast@Net@OpenHome@@@std@@@std@@QAE@XZ 00429320 f i libohNetCore:Discovery.obj
 0001:00028390       ?begin@?$vector@PAVMsearchHandler@SsdpListenerMulticast@Net@OpenHome@@V?$allocator@PAVMsearchHandler@SsdpListenerMulticast@Net@OpenHome@@@std@@@std@@QAE?AV?$_Vector_iterator@V?$_Vector_val@PAVMsearchHandler@SsdpListenerMulticast@Net@OpenHome@@V?$allocator@PAVMsearchHandler@SsdpListenerMulticast@Net@OpenHome@@@std@@@std@@@2@XZ 00429390 f i libohNetCore:Discovery.obj
 0001:000283e0       ?end@?$vector@PAVMsearchHandler@SsdpListenerMulticast@Net@OpenHome@@V?$allocator@PAVMsearchHandler@SsdpListenerMulticast@Net@OpenHome@@@std@@@std@@QAE?AV?$_Vector_iterator@V?$_Vector_val@PAVMsearchHandler@SsdpListenerMulticast@Net@OpenHome@@V?$allocator@PAVMsearchHandler@SsdpListenerMulticast@Net@OpenHome@@@std@@@std@@@2@XZ 004293e0 f i libohNetCore:Discovery.obj
 0001:00028430       ?size@?$vector@PAVMsearchHandler@SsdpListenerMulticast@Net@OpenHome@@V?$allocator@PAVMsearchHandler@SsdpListenerMulticast@Net@OpenHome@@@std@@@std@@QBEIXZ 00429430 f i libohNetCore:Discovery.obj
 0001:00028460       ??A?$vector@PAVMsearchHandler@SsdpListenerMulticast@Net@OpenHome@@V?$allocator@PAVMsearchHandler@SsdpListenerMulticast@Net@OpenHome@@@std@@@std@@QAEAAPAVMsearchHandler@SsdpListenerMulticast@Net@OpenHome@@I@Z 00429460 f i libohNetCore:Discovery.obj
 0001:00028500       ?push_back@?$vector@PAVMsearchHandler@SsdpListenerMulticast@Net@OpenHome@@V?$allocator@PAVMsearchHandler@SsdpListenerMulticast@Net@OpenHome@@@std@@@std@@QAEXABQAVMsearchHandler@SsdpListenerMulticast@Net@OpenHome@@@Z 00429500 f i libohNetCore:Discovery.obj
 0001:00028610       ?erase@?$vector@PAVMsearchHandler@SsdpListenerMulticast@Net@OpenHome@@V?$allocator@PAVMsearchHandler@SsdpListenerMulticast@Net@OpenHome@@@std@@@std@@QAE?AV?$_Vector_iterator@V?$_Vector_val@PAVMsearchHandler@SsdpListenerMulticast@Net@OpenHome@@V?$allocator@PAVMsearchHandler@SsdpListenerMulticast@Net@OpenHome@@@std@@@std@@@2@V?$_Vector_const_iterator@V?$_Vector_val@PAVMsearchHandler@SsdpListenerMulticast@Net@OpenHome@@V?$allocator@PAVMsearchHandler@SsdpListenerMulticast@Net@OpenHome@@@std@@@std@@@2@@Z 00429610 f i libohNetCore:Discovery.obj
 0001:00028740       ??0?$Srs@$0EAA@@OpenHome@@QAE@AAVIReaderSource@1@@Z 00429740 f i libohNetCore:Discovery.obj
 0001:00028790       ?Ptr@?$Srs@$0EAA@@OpenHome@@EAEPAEXZ 00429790 f i libohNetCore:Discovery.obj
 0001:000287b0       ??D?$_Vector_iterator@V?$_Vector_val@PAVNotifyHandler@SsdpListenerMulticast@Net@OpenHome@@V?$allocator@PAVNotifyHandler@SsdpListenerMulticast@Net@OpenHome@@@std@@@std@@@std@@QBEAAPAVNotifyHandler@SsdpListenerMulticast@Net@OpenHome@@XZ 004297b0 f i libohNetCore:Discovery.obj
 0001:000287e0       ??E?$_Vector_iterator@V?$_Vector_val@PAVNotifyHandler@SsdpListenerMulticast@Net@OpenHome@@V?$allocator@PAVNotifyHandler@SsdpListenerMulticast@Net@OpenHome@@@std@@@std@@@std@@QAE?AV01@H@Z 004297e0 f i libohNetCore:Discovery.obj
 0001:000288b0       ??9?$_Vector_const_iterator@V?$_Vector_val@PAVNotifyHandler@SsdpListenerMulticast@Net@OpenHome@@V?$allocator@PAVNotifyHandler@SsdpListenerMulticast@Net@OpenHome@@@std@@@std@@@std@@QBE_NABV01@@Z 004298b0 f i libohNetCore:Discovery.obj
 0001:000288f0       ??D?$_Vector_iterator@V?$_Vector_val@PAVMsearchHandler@SsdpListenerMulticast@Net@OpenHome@@V?$allocator@PAVMsearchHandler@SsdpListenerMulticast@Net@OpenHome@@@std@@@std@@@std@@QBEAAPAVMsearchHandler@SsdpListenerMulticast@Net@OpenHome@@XZ 004298f0 f i libohNetCore:Discovery.obj
 0001:00028920       ??E?$_Vector_iterator@V?$_Vector_val@PAVMsearchHandler@SsdpListenerMulticast@Net@OpenHome@@V?$allocator@PAVMsearchHandler@SsdpListenerMulticast@Net@OpenHome@@@std@@@std@@@std@@QAE?AV01@H@Z 00429920 f i libohNetCore:Discovery.obj
 0001:000289f0       ??9?$_Vector_const_iterator@V?$_Vector_val@PAVMsearchHandler@SsdpListenerMulticast@Net@OpenHome@@V?$allocator@PAVMsearchHandler@SsdpListenerMulticast@Net@OpenHome@@@std@@@std@@@std@@QBE_NABV01@@Z 004299f0 f i libohNetCore:Discovery.obj
 0001:00028a30       ??_G?$Sws@$0EAA@@OpenHome@@UAEPAXI@Z 00429a30 f i libohNetCore:Discovery.obj
 0001:00028a30       ??_E?$Sws@$0EAA@@OpenHome@@UAEPAXI@Z 00429a30 f i libohNetCore:Discovery.obj
 0001:00028a70       ??_E?$Srs@$0EAA@@OpenHome@@UAEPAXI@Z 00429a70 f i libohNetCore:Discovery.obj
 0001:00028a70       ??_G?$Srs@$0EAA@@OpenHome@@UAEPAXI@Z 00429a70 f i libohNetCore:Discovery.obj
 0001:00028ab0       ??0?$_Vector_iterator@V?$_Vector_val@PAVNotifyHandler@SsdpListenerMulticast@Net@OpenHome@@V?$allocator@PAVNotifyHandler@SsdpListenerMulticast@Net@OpenHome@@@std@@@std@@@std@@QAE@ABV01@@Z 00429ab0 f i libohNetCore:Discovery.obj
 0001:00028ae0       ??0?$_Vector_iterator@V?$_Vector_val@PAVMsearchHandler@SsdpListenerMulticast@Net@OpenHome@@V?$allocator@PAVMsearchHandler@SsdpListenerMulticast@Net@OpenHome@@@std@@@std@@@std@@QAE@ABV01@@Z 00429ae0 f i libohNetCore:Discovery.obj
 0001:00028b10       ?_Tidy@?$vector@PAVIHttpHeader@OpenHome@@V?$allocator@PAVIHttpHeader@OpenHome@@@std@@@std@@IAEXXZ 00429b10 f i libohNetCore:Discovery.obj
 0001:00028ba0       ??1?$_Vector_val@PAVIHttpHeader@OpenHome@@V?$allocator@PAVIHttpHeader@OpenHome@@@std@@@std@@QAE@XZ 00429ba0 f i libohNetCore:Discovery.obj
 0001:00028c80       ?_Tidy@?$vector@PBVBrx@OpenHome@@V?$allocator@PBVBrx@OpenHome@@@std@@@std@@IAEXXZ 00429c80 f i libohNetCore:Discovery.obj
 0001:00028d10       ??1?$_Vector_val@PBVBrx@OpenHome@@V?$allocator@PBVBrx@OpenHome@@@std@@@std@@QAE@XZ 00429d10 f i libohNetCore:Discovery.obj
 0001:00028df0       ?_Make_iter@?$vector@PAVNotifyHandler@SsdpListenerMulticast@Net@OpenHome@@V?$allocator@PAVNotifyHandler@SsdpListenerMulticast@Net@OpenHome@@@std@@@std@@QBE?AV?$_Vector_iterator@V?$_Vector_val@PAVNotifyHandler@SsdpListenerMulticast@Net@OpenHome@@V?$allocator@PAVNotifyHandler@SsdpListenerMulticast@Net@OpenHome@@@std@@@std@@@2@V?$_Vector_const_iterator@V?$_Vector_val@PAVNotifyHandler@SsdpListenerMulticast@Net@OpenHome@@V?$allocator@PAVNotifyHandler@SsdpListenerMulticast@Net@OpenHome@@@std@@@std@@@2@@Z 00429df0 f i libohNetCore:Discovery.obj
 0001:00028e80       ?_Destroy@?$vector@PAVNotifyHandler@SsdpListenerMulticast@Net@OpenHome@@V?$allocator@PAVNotifyHandler@SsdpListenerMulticast@Net@OpenHome@@@std@@@std@@IAEXPAPAVNotifyHandler@SsdpListenerMulticast@Net@OpenHome@@0@Z 00429e80 f i libohNetCore:Discovery.obj
 0001:00028ec0       ?_Inside@?$vector@PAVNotifyHandler@SsdpListenerMulticast@Net@OpenHome@@V?$allocator@PAVNotifyHandler@SsdpListenerMulticast@Net@OpenHome@@@std@@@std@@IBE_NPBQAVNotifyHandler@SsdpListenerMulticast@Net@OpenHome@@@Z 00429ec0 f i libohNetCore:Discovery.obj
 0001:00028f10       ?_Reserve@?$vector@PAVNotifyHandler@SsdpListenerMulticast@Net@OpenHome@@V?$allocator@PAVNotifyHandler@SsdpListenerMulticast@Net@OpenHome@@@std@@@std@@IAEXI@Z 00429f10 f i libohNetCore:Discovery.obj
 0001:00028f90       ?_Tidy@?$vector@PAVNotifyHandler@SsdpListenerMulticast@Net@OpenHome@@V?$allocator@PAVNotifyHandler@SsdpListenerMulticast@Net@OpenHome@@@std@@@std@@IAEXXZ 00429f90 f i libohNetCore:Discovery.obj
 0001:00029020       ?_Orphan_range@?$vector@PAVNotifyHandler@SsdpListenerMulticast@Net@OpenHome@@V?$allocator@PAVNotifyHandler@SsdpListenerMulticast@Net@OpenHome@@@std@@@std@@IBEXPAPAVNotifyHandler@SsdpListenerMulticast@Net@OpenHome@@0@Z 0042a020 f i libohNetCore:Discovery.obj
 0001:00029130       ??0?$_Vector_val@PAVNotifyHandler@SsdpListenerMulticast@Net@OpenHome@@V?$allocator@PAVNotifyHandler@SsdpListenerMulticast@Net@OpenHome@@@std@@@std@@QAE@V?$allocator@PAVNotifyHandler@SsdpListenerMulticast@Net@OpenHome@@@1@@Z 0042a130 f i libohNetCore:Discovery.obj
 0001:00029250       ??1?$_Vector_val@PAVNotifyHandler@SsdpListenerMulticast@Net@OpenHome@@V?$allocator@PAVNotifyHandler@SsdpListenerMulticast@Net@OpenHome@@@std@@@std@@QAE@XZ 0042a250 f i libohNetCore:Discovery.obj
 0001:00029330       ??0?$allocator@PAVNotifyHandler@SsdpListenerMulticast@Net@OpenHome@@@std@@QAE@XZ 0042a330 f i libohNetCore:Discovery.obj
 0001:00029350       ?_Make_iter@?$vector@PAVMsearchHandler@SsdpListenerMulticast@Net@OpenHome@@V?$allocator@PAVMsearchHandler@SsdpListenerMulticast@Net@OpenHome@@@std@@@std@@QBE?AV?$_Vector_iterator@V?$_Vector_val@PAVMsearchHandler@SsdpListenerMulticast@Net@OpenHome@@V?$allocator@PAVMsearchHandler@SsdpListenerMulticast@Net@OpenHome@@@std@@@std@@@2@V?$_Vector_const_iterator@V?$_Vector_val@PAVMsearchHandler@SsdpListenerMulticast@Net@OpenHome@@V?$allocator@PAVMsearchHandler@SsdpListenerMulticast@Net@OpenHome@@@std@@@std@@@2@@Z 0042a350 f i libohNetCore:Discovery.obj
 0001:000293e0       ?_Destroy@?$vector@PAVMsearchHandler@SsdpListenerMulticast@Net@OpenHome@@V?$allocator@PAVMsearchHandler@SsdpListenerMulticast@Net@OpenHome@@@std@@@std@@IAEXPAPAVMsearchHandler@SsdpListenerMulticast@Net@OpenHome@@0@Z 0042a3e0 f i libohNetCore:Discovery.obj
 0001:00029420       ?_Inside@?$vector@PAVMsearchHandler@SsdpListenerMulticast@Net@OpenHome@@V?$allocator@PAVMsearchHandler@SsdpListenerMulticast@Net@OpenHome@@@std@@@std@@IBE_NPBQAVMsearchHandler@SsdpListenerMulticast@Net@OpenHome@@@Z 0042a420 f i libohNetCore:Discovery.obj
 0001:00029470       ?_Reserve@?$vector@PAVMsearchHandler@SsdpListenerMulticast@Net@OpenHome@@V?$allocator@PAVMsearchHandler@SsdpListenerMulticast@Net@OpenHome@@@std@@@std@@IAEXI@Z 0042a470 f i libohNetCore:Discovery.obj
 0001:000294f0       ?_Tidy@?$vector@PAVMsearchHandler@SsdpListenerMulticast@Net@OpenHome@@V?$allocator@PAVMsearchHandler@SsdpListenerMulticast@Net@OpenHome@@@std@@@std@@IAEXXZ 0042a4f0 f i libohNetCore:Discovery.obj
 0001:00029580       ?_Orphan_range@?$vector@PAVMsearchHandler@SsdpListenerMulticast@Net@OpenHome@@V?$allocator@PAVMsearchHandler@SsdpListenerMulticast@Net@OpenHome@@@std@@@std@@IBEXPAPAVMsearchHandler@SsdpListenerMulticast@Net@OpenHome@@0@Z 0042a580 f i libohNetCore:Discovery.obj
 0001:00029690       ??0?$_Vector_val@PAVMsearchHandler@SsdpListenerMulticast@Net@OpenHome@@V?$allocator@PAVMsearchHandler@SsdpListenerMulticast@Net@OpenHome@@@std@@@std@@QAE@V?$allocator@PAVMsearchHandler@SsdpListenerMulticast@Net@OpenHome@@@1@@Z 0042a690 f i libohNetCore:Discovery.obj
 0001:000297b0       ??1?$_Vector_val@PAVMsearchHandler@SsdpListenerMulticast@Net@OpenHome@@V?$allocator@PAVMsearchHandler@SsdpListenerMulticast@Net@OpenHome@@@std@@@std@@QAE@XZ 0042a7b0 f i libohNetCore:Discovery.obj
 0001:00029890       ??0?$allocator@PAVMsearchHandler@SsdpListenerMulticast@Net@OpenHome@@@std@@QAE@XZ 0042a890 f i libohNetCore:Discovery.obj
 0001:000298b0       ??0?$_Vector_iterator@V?$_Vector_val@PAVNotifyHandler@SsdpListenerMulticast@Net@OpenHome@@V?$allocator@PAVNotifyHandler@SsdpListenerMulticast@Net@OpenHome@@@std@@@std@@@std@@QAE@PAPAVNotifyHandler@SsdpListenerMulticast@Net@OpenHome@@PBU_Container_base12@1@@Z 0042a8b0 f i libohNetCore:Discovery.obj
 0001:000298f0       ??E?$_Vector_iterator@V?$_Vector_val@PAVNotifyHandler@SsdpListenerMulticast@Net@OpenHome@@V?$allocator@PAVNotifyHandler@SsdpListenerMulticast@Net@OpenHome@@@std@@@std@@@std@@QAEAAV01@XZ 0042a8f0 f i libohNetCore:Discovery.obj
 0001:00029920       ??D?$_Vector_const_iterator@V?$_Vector_val@PAVNotifyHandler@SsdpListenerMulticast@Net@OpenHome@@V?$allocator@PAVNotifyHandler@SsdpListenerMulticast@Net@OpenHome@@@std@@@std@@@std@@QBEABQAVNotifyHandler@SsdpListenerMulticast@Net@OpenHome@@XZ 0042a920 f i libohNetCore:Discovery.obj
 0001:000299e0       ??8?$_Vector_const_iterator@V?$_Vector_val@PAVNotifyHandler@SsdpListenerMulticast@Net@OpenHome@@V?$allocator@PAVNotifyHandler@SsdpListenerMulticast@Net@OpenHome@@@std@@@std@@@std@@QBE_NABV01@@Z 0042a9e0 f i libohNetCore:Discovery.obj
 0001:00029a20       ??0?$_Vector_iterator@V?$_Vector_val@PAVMsearchHandler@SsdpListenerMulticast@Net@OpenHome@@V?$allocator@PAVMsearchHandler@SsdpListenerMulticast@Net@OpenHome@@@std@@@std@@@std@@QAE@PAPAVMsearchHandler@SsdpListenerMulticast@Net@OpenHome@@PBU_Container_base12@1@@Z 0042aa20 f i libohNetCore:Discovery.obj
 0001:00029a60       ??E?$_Vector_iterator@V?$_Vector_val@PAVMsearchHandler@SsdpListenerMulticast@Net@OpenHome@@V?$allocator@PAVMsearchHandler@SsdpListenerMulticast@Net@OpenHome@@@std@@@std@@@std@@QAEAAV01@XZ 0042aa60 f i libohNetCore:Discovery.obj
 0001:00029a90       ??D?$_Vector_const_iterator@V?$_Vector_val@PAVMsearchHandler@SsdpListenerMulticast@Net@OpenHome@@V?$allocator@PAVMsearchHandler@SsdpListenerMulticast@Net@OpenHome@@@std@@@std@@@std@@QBEABQAVMsearchHandler@SsdpListenerMulticast@Net@OpenHome@@XZ 0042aa90 f i libohNetCore:Discovery.obj
 0001:00029b50       ??8?$_Vector_const_iterator@V?$_Vector_val@PAVMsearchHandler@SsdpListenerMulticast@Net@OpenHome@@V?$allocator@PAVMsearchHandler@SsdpListenerMulticast@Net@OpenHome@@@std@@@std@@@std@@QBE_NABV01@@Z 0042ab50 f i libohNetCore:Discovery.obj
 0001:00029b90       ?_Destroy@?$vector@PAVIHttpHeader@OpenHome@@V?$allocator@PAVIHttpHeader@OpenHome@@@std@@@std@@IAEXPAPAVIHttpHeader@OpenHome@@0@Z 0042ab90 f i libohNetCore:Discovery.obj
 0001:00029bd0       ?deallocate@?$allocator@PAVIHttpHeader@OpenHome@@@std@@QAEXPAPAVIHttpHeader@OpenHome@@I@Z 0042abd0 f i libohNetCore:Discovery.obj
 0001:00029c00       ?_Destroy@?$vector@PBVBrx@OpenHome@@V?$allocator@PBVBrx@OpenHome@@@std@@@std@@IAEXPAPBVBrx@OpenHome@@0@Z 0042ac00 f i libohNetCore:Discovery.obj
 0001:00029c40       ?deallocate@?$allocator@PBVBrx@OpenHome@@@std@@QAEXPAPBVBrx@OpenHome@@I@Z 0042ac40 f i libohNetCore:Discovery.obj
 0001:00029c70       ?reserve@?$vector@PAVNotifyHandler@SsdpListenerMulticast@Net@OpenHome@@V?$allocator@PAVNotifyHandler@SsdpListenerMulticast@Net@OpenHome@@@std@@@std@@QAEXI@Z 0042ac70 f i libohNetCore:Discovery.obj
 0001:00029de0       ?capacity@?$vector@PAVNotifyHandler@SsdpListenerMulticast@Net@OpenHome@@V?$allocator@PAVNotifyHandler@SsdpListenerMulticast@Net@OpenHome@@@std@@@std@@QBEIXZ 0042ade0 f i libohNetCore:Discovery.obj
 0001:00029e10       ?max_size@?$vector@PAVNotifyHandler@SsdpListenerMulticast@Net@OpenHome@@V?$allocator@PAVNotifyHandler@SsdpListenerMulticast@Net@OpenHome@@@std@@@std@@QBEIXZ 0042ae10 f i libohNetCore:Discovery.obj
 0001:00029e40       ?_Grow_to@?$vector@PAVNotifyHandler@SsdpListenerMulticast@Net@OpenHome@@V?$allocator@PAVNotifyHandler@SsdpListenerMulticast@Net@OpenHome@@@std@@@std@@IBEII@Z 0042ae40 f i libohNetCore:Discovery.obj
 0001:00029ec0       ?_Xlen@?$vector@PAVNotifyHandler@SsdpListenerMulticast@Net@OpenHome@@V?$allocator@PAVNotifyHandler@SsdpListenerMulticast@Net@OpenHome@@@std@@@std@@IBEXXZ 0042aec0 f i libohNetCore:Discovery.obj
 0001:00029ef0       ??0?$allocator@PAVNotifyHandler@SsdpListenerMulticast@Net@OpenHome@@@std@@QAE@ABV01@@Z 0042aef0 f i libohNetCore:Discovery.obj
 0001:00029f10       ?deallocate@?$allocator@PAVNotifyHandler@SsdpListenerMulticast@Net@OpenHome@@@std@@QAEXPAPAVNotifyHandler@SsdpListenerMulticast@Net@OpenHome@@I@Z 0042af10 f i libohNetCore:Discovery.obj
 0001:00029f40       ?reserve@?$vector@PAVMsearchHandler@SsdpListenerMulticast@Net@OpenHome@@V?$allocator@PAVMsearchHandler@SsdpListenerMulticast@Net@OpenHome@@@std@@@std@@QAEXI@Z 0042af40 f i libohNetCore:Discovery.obj
 0001:0002a0b0       ?capacity@?$vector@PAVMsearchHandler@SsdpListenerMulticast@Net@OpenHome@@V?$allocator@PAVMsearchHandler@SsdpListenerMulticast@Net@OpenHome@@@std@@@std@@QBEIXZ 0042b0b0 f i libohNetCore:Discovery.obj
 0001:0002a0e0       ?max_size@?$vector@PAVMsearchHandler@SsdpListenerMulticast@Net@OpenHome@@V?$allocator@PAVMsearchHandler@SsdpListenerMulticast@Net@OpenHome@@@std@@@std@@QBEIXZ 0042b0e0 f i libohNetCore:Discovery.obj
 0001:0002a110       ?_Grow_to@?$vector@PAVMsearchHandler@SsdpListenerMulticast@Net@OpenHome@@V?$allocator@PAVMsearchHandler@SsdpListenerMulticast@Net@OpenHome@@@std@@@std@@IBEII@Z 0042b110 f i libohNetCore:Discovery.obj
 0001:0002a190       ?_Xlen@?$vector@PAVMsearchHandler@SsdpListenerMulticast@Net@OpenHome@@V?$allocator@PAVMsearchHandler@SsdpListenerMulticast@Net@OpenHome@@@std@@@std@@IBEXXZ 0042b190 f i libohNetCore:Discovery.obj
 0001:0002a1c0       ??0?$allocator@PAVMsearchHandler@SsdpListenerMulticast@Net@OpenHome@@@std@@QAE@ABV01@@Z 0042b1c0 f i libohNetCore:Discovery.obj
 0001:0002a1e0       ?deallocate@?$allocator@PAVMsearchHandler@SsdpListenerMulticast@Net@OpenHome@@@std@@QAEXPAPAVMsearchHandler@SsdpListenerMulticast@Net@OpenHome@@I@Z 0042b1e0 f i libohNetCore:Discovery.obj
 0001:0002a210       ??0?$_Vector_const_iterator@V?$_Vector_val@PAVNotifyHandler@SsdpListenerMulticast@Net@OpenHome@@V?$allocator@PAVNotifyHandler@SsdpListenerMulticast@Net@OpenHome@@@std@@@std@@@std@@QAE@PAPAVNotifyHandler@SsdpListenerMulticast@Net@OpenHome@@PBU_Container_base12@1@@Z 0042b210 f i libohNetCore:Discovery.obj
 0001:0002a290       ??E?$_Vector_const_iterator@V?$_Vector_val@PAVNotifyHandler@SsdpListenerMulticast@Net@OpenHome@@V?$allocator@PAVNotifyHandler@SsdpListenerMulticast@Net@OpenHome@@@std@@@std@@@std@@QAEAAV01@XZ 0042b290 f i libohNetCore:Discovery.obj
 0001:0002a340       ?_Compat@?$_Vector_const_iterator@V?$_Vector_val@PAVNotifyHandler@SsdpListenerMulticast@Net@OpenHome@@V?$allocator@PAVNotifyHandler@SsdpListenerMulticast@Net@OpenHome@@@std@@@std@@@std@@QBEXABV12@@Z 0042b340 f i libohNetCore:Discovery.obj
 0001:0002a3f0       ??0?$_Vector_const_iterator@V?$_Vector_val@PAVMsearchHandler@SsdpListenerMulticast@Net@OpenHome@@V?$allocator@PAVMsearchHandler@SsdpListenerMulticast@Net@OpenHome@@@std@@@std@@@std@@QAE@PAPAVMsearchHandler@SsdpListenerMulticast@Net@OpenHome@@PBU_Container_base12@1@@Z 0042b3f0 f i libohNetCore:Discovery.obj
 0001:0002a470       ??E?$_Vector_const_iterator@V?$_Vector_val@PAVMsearchHandler@SsdpListenerMulticast@Net@OpenHome@@V?$allocator@PAVMsearchHandler@SsdpListenerMulticast@Net@OpenHome@@@std@@@std@@@std@@QAEAAV01@XZ 0042b470 f i libohNetCore:Discovery.obj
 0001:0002a520       ?_Compat@?$_Vector_const_iterator@V?$_Vector_val@PAVMsearchHandler@SsdpListenerMulticast@Net@OpenHome@@V?$allocator@PAVMsearchHandler@SsdpListenerMulticast@Net@OpenHome@@@std@@@std@@@std@@QBEXABV12@@Z 0042b520 f i libohNetCore:Discovery.obj
 0001:0002a5d0       ??0?$_Iterator012@Urandom_access_iterator_tag@std@@PAVNotifyHandler@SsdpListenerMulticast@Net@OpenHome@@HPBQAV3456@ABQAV3456@U_Iterator_base12@2@@std@@QAE@XZ 0042b5d0 f i libohNetCore:Discovery.obj
 0001:0002a600       ??0?$_Iterator012@Urandom_access_iterator_tag@std@@PAVMsearchHandler@SsdpListenerMulticast@Net@OpenHome@@HPBQAV3456@ABQAV3456@U_Iterator_base12@2@@std@@QAE@XZ 0042b600 f i libohNetCore:Discovery.obj
 0001:0002a630       ?allocate@?$allocator@PAVNotifyHandler@SsdpListenerMulticast@Net@OpenHome@@@std@@QAEPAPAVNotifyHandler@SsdpListenerMulticast@Net@OpenHome@@I@Z 0042b630 f i libohNetCore:Discovery.obj
 0001:0002a660       ?max_size@?$allocator@PAVNotifyHandler@SsdpListenerMulticast@Net@OpenHome@@@std@@QBEIXZ 0042b660 f i libohNetCore:Discovery.obj
 0001:0002a6b0       ?allocate@?$allocator@PAVMsearchHandler@SsdpListenerMulticast@Net@OpenHome@@@std@@QAEPAPAVMsearchHandler@SsdpListenerMulticast@Net@OpenHome@@I@Z 0042b6b0 f i libohNetCore:Discovery.obj
 0001:0002a6e0       ?max_size@?$allocator@PAVMsearchHandler@SsdpListenerMulticast@Net@OpenHome@@@std@@QBEIXZ 0042b6e0 f i libohNetCore:Discovery.obj
 0001:0002a730       ??0?$Bws@$0DOI@@OpenHome@@QAE@XZ 0042b730 f i libohNetCore:Discovery.obj
 0001:0002a770       ?Ptr@?$Bws@$0DOI@@OpenHome@@UBEPBEXZ 0042b770 f i libohNetCore:Discovery.obj
 0001:0002a790       ??0?$Bws@$0EA@@OpenHome@@QAE@XZ 0042b790 f i libohNetCore:Discovery.obj
 0001:0002a7d0       ?Ptr@?$Bws@$0EA@@OpenHome@@UBEPBEXZ 0042b7d0 f i libohNetCore:Discovery.obj
 0001:0002a7f0       ??$addressof@QAVNotifyHandler@SsdpListenerMulticast@Net@OpenHome@@@std@@YGPBQAVNotifyHandler@SsdpListenerMulticast@Net@OpenHome@@ABQAV1234@@Z 0042b7f0 f i libohNetCore:Discovery.obj
 0001:0002a800       ??$_Cons_val@V?$allocator@PAVNotifyHandler@SsdpListenerMulticast@Net@OpenHome@@@std@@PAVNotifyHandler@SsdpListenerMulticast@Net@OpenHome@@AAPAV3456@@std@@YGXAAV?$allocator@PAVNotifyHandler@SsdpListenerMulticast@Net@OpenHome@@@0@PAPAVNotifyHandler@SsdpListenerMulticast@Net@OpenHome@@AAPAV2345@@Z 0042b800 f i libohNetCore:Discovery.obj
 0001:0002a830       ??$_Cons_val@V?$allocator@PAVNotifyHandler@SsdpListenerMulticast@Net@OpenHome@@@std@@PAVNotifyHandler@SsdpListenerMulticast@Net@OpenHome@@ABQAV3456@@std@@YGXAAV?$allocator@PAVNotifyHandler@SsdpListenerMulticast@Net@OpenHome@@@0@PAPAVNotifyHandler@SsdpListenerMulticast@Net@OpenHome@@ABQAV2345@@Z 0042b830 f i libohNetCore:Discovery.obj
 0001:0002a860       ??$_Move@PAPAVNotifyHandler@SsdpListenerMulticast@Net@OpenHome@@PAPAV1234@@std@@YGPAPAVNotifyHandler@SsdpListenerMulticast@Net@OpenHome@@PAPAV1234@00@Z 0042b860 f i libohNetCore:Discovery.obj
 0001:0002a8b0       ??$addressof@QAVMsearchHandler@SsdpListenerMulticast@Net@OpenHome@@@std@@YGPBQAVMsearchHandler@SsdpListenerMulticast@Net@OpenHome@@ABQAV1234@@Z 0042b8b0 f i libohNetCore:Discovery.obj
 0001:0002a8c0       ??$_Cons_val@V?$allocator@PAVMsearchHandler@SsdpListenerMulticast@Net@OpenHome@@@std@@PAVMsearchHandler@SsdpListenerMulticast@Net@OpenHome@@AAPAV3456@@std@@YGXAAV?$allocator@PAVMsearchHandler@SsdpListenerMulticast@Net@OpenHome@@@0@PAPAVMsearchHandler@SsdpListenerMulticast@Net@OpenHome@@AAPAV2345@@Z 0042b8c0 f i libohNetCore:Discovery.obj
 0001:0002a8f0       ??$_Cons_val@V?$allocator@PAVMsearchHandler@SsdpListenerMulticast@Net@OpenHome@@@std@@PAVMsearchHandler@SsdpListenerMulticast@Net@OpenHome@@ABQAV3456@@std@@YGXAAV?$allocator@PAVMsearchHandler@SsdpListenerMulticast@Net@OpenHome@@@0@PAPAVMsearchHandler@SsdpListenerMulticast@Net@OpenHome@@ABQAV2345@@Z 0042b8f0 f i libohNetCore:Discovery.obj
 0001:0002a920       ??$_Move@PAPAVMsearchHandler@SsdpListenerMulticast@Net@OpenHome@@PAPAV1234@@std@@YGPAPAVMsearchHandler@SsdpListenerMulticast@Net@OpenHome@@PAPAV1234@00@Z 0042b920 f i libohNetCore:Discovery.obj
 0001:0002a970       ??$?0PAVIHttpHeader@OpenHome@@@?$allocator@U_Container_proxy@std@@@std@@QAE@ABV?$allocator@PAVIHttpHeader@OpenHome@@@1@@Z 0042b970 f i libohNetCore:Discovery.obj
 0001:0002a990       ??$?0PBVBrx@OpenHome@@@?$allocator@U_Container_proxy@std@@@std@@QAE@ABV?$allocator@PBVBrx@OpenHome@@@1@@Z 0042b990 f i libohNetCore:Discovery.obj
 0001:0002a9b0       ??$_Destroy_range@V?$allocator@PAVNotifyHandler@SsdpListenerMulticast@Net@OpenHome@@@std@@@std@@YGXPAPAVNotifyHandler@SsdpListenerMulticast@Net@OpenHome@@0AAV?$allocator@PAVNotifyHandler@SsdpListenerMulticast@Net@OpenHome@@@0@@Z 0042b9b0 f i libohNetCore:Discovery.obj
 0001:0002aa00       ??$?0PAVNotifyHandler@SsdpListenerMulticast@Net@OpenHome@@@?$allocator@U_Container_proxy@std@@@std@@QAE@ABV?$allocator@PAVNotifyHandler@SsdpListenerMulticast@Net@OpenHome@@@1@@Z 0042ba00 f i libohNetCore:Discovery.obj
 0001:0002aa20       ??$_Destroy_range@V?$allocator@PAVMsearchHandler@SsdpListenerMulticast@Net@OpenHome@@@std@@@std@@YGXPAPAVMsearchHandler@SsdpListenerMulticast@Net@OpenHome@@0AAV?$allocator@PAVMsearchHandler@SsdpListenerMulticast@Net@OpenHome@@@0@@Z 0042ba20 f i libohNetCore:Discovery.obj
 0001:0002aa70       ??$?0PAVMsearchHandler@SsdpListenerMulticast@Net@OpenHome@@@?$allocator@U_Container_proxy@std@@@std@@QAE@ABV?$allocator@PAVMsearchHandler@SsdpListenerMulticast@Net@OpenHome@@@1@@Z 0042ba70 f i libohNetCore:Discovery.obj
 0001:0002aa90       ??$_Destroy_range@V?$allocator@PAVIHttpHeader@OpenHome@@@std@@@std@@YGXPAPAVIHttpHeader@OpenHome@@0AAV?$allocator@PAVIHttpHeader@OpenHome@@@0@@Z 0042ba90 f i libohNetCore:Discovery.obj
 0001:0002aae0       ??$_Destroy_range@V?$allocator@PBVBrx@OpenHome@@@std@@@std@@YGXPAPBVBrx@OpenHome@@0AAV?$allocator@PBVBrx@OpenHome@@@0@@Z 0042bae0 f i libohNetCore:Discovery.obj
 0001:0002ab30       ??$_Umove@PAPAVNotifyHandler@SsdpListenerMulticast@Net@OpenHome@@@?$vector@PAVNotifyHandler@SsdpListenerMulticast@Net@OpenHome@@V?$allocator@PAVNotifyHandler@SsdpListenerMulticast@Net@OpenHome@@@std@@@std@@IAEPAPAVNotifyHandler@SsdpListenerMulticast@Net@OpenHome@@PAPAV2345@00@Z 0042bb30 f i libohNetCore:Discovery.obj
 0001:0002ab70       ??$_Umove@PAPAVMsearchHandler@SsdpListenerMulticast@Net@OpenHome@@@?$vector@PAVMsearchHandler@SsdpListenerMulticast@Net@OpenHome@@V?$allocator@PAVMsearchHandler@SsdpListenerMulticast@Net@OpenHome@@@std@@@std@@IAEPAPAVMsearchHandler@SsdpListenerMulticast@Net@OpenHome@@PAPAV2345@00@Z 0042bb70 f i libohNetCore:Discovery.obj
 0001:0002abb0       ??$_Allocate@PAVNotifyHandler@SsdpListenerMulticast@Net@OpenHome@@@std@@YGPAPAVNotifyHandler@SsdpListenerMulticast@Net@OpenHome@@IPAPAV1234@@Z 0042bbb0 f i libohNetCore:Discovery.obj
 0001:0002ac30       ??$_Allocate@PAVMsearchHandler@SsdpListenerMulticast@Net@OpenHome@@@std@@YGPAPAVMsearchHandler@SsdpListenerMulticast@Net@OpenHome@@IPAPAV1234@@Z 0042bc30 f i libohNetCore:Discovery.obj
 0001:0002acb0       ??_E?$Bws@$0DOI@@OpenHome@@UAEPAXI@Z 0042bcb0 f i libohNetCore:Discovery.obj
 0001:0002acb0       ??_G?$Bws@$0DOI@@OpenHome@@UAEPAXI@Z 0042bcb0 f i libohNetCore:Discovery.obj
 0001:0002acf0       ??_E?$Bws@$0EA@@OpenHome@@UAEPAXI@Z 0042bcf0 f i libohNetCore:Discovery.obj
 0001:0002acf0       ??_G?$Bws@$0EA@@OpenHome@@UAEPAXI@Z 0042bcf0 f i libohNetCore:Discovery.obj
 0001:0002ad30       ?construct@?$allocator@PAVNotifyHandler@SsdpListenerMulticast@Net@OpenHome@@@std@@QAEXPAPAVNotifyHandler@SsdpListenerMulticast@Net@OpenHome@@ABQAV3456@@Z 0042bd30 f i libohNetCore:Discovery.obj
 0001:0002ad60       ?construct@?$allocator@PAVMsearchHandler@SsdpListenerMulticast@Net@OpenHome@@@std@@QAEXPAPAVMsearchHandler@SsdpListenerMulticast@Net@OpenHome@@ABQAV3456@@Z 0042bd60 f i libohNetCore:Discovery.obj
 0001:0002ad90       ??$forward@AAPAVNotifyHandler@SsdpListenerMulticast@Net@OpenHome@@@std@@YGAAPAVNotifyHandler@SsdpListenerMulticast@Net@OpenHome@@AAPAV1234@@Z 0042bd90 f i libohNetCore:Discovery.obj
 0001:0002ada0       ??$construct@AAPAVNotifyHandler@SsdpListenerMulticast@Net@OpenHome@@@?$allocator@PAVNotifyHandler@SsdpListenerMulticast@Net@OpenHome@@@std@@QAEXPAPAVNotifyHandler@SsdpListenerMulticast@Net@OpenHome@@AAPAV2345@@Z 0042bda0 f i libohNetCore:Discovery.obj
 0001:0002ae40       ??$forward@ABQAVNotifyHandler@SsdpListenerMulticast@Net@OpenHome@@@std@@YGABQAVNotifyHandler@SsdpListenerMulticast@Net@OpenHome@@ABQAV1234@@Z 0042be40 f i libohNetCore:Discovery.obj
 0001:0002ae50       ??$_Ptr_cat@PAVNotifyHandler@SsdpListenerMulticast@Net@OpenHome@@PAV1234@@std@@YG?AU_Scalar_ptr_iterator_tag@0@PAPAVNotifyHandler@SsdpListenerMulticast@Net@OpenHome@@0@Z 0042be50 f i libohNetCore:Discovery.obj
 0001:0002aeb0       ??$_Move@PAPAVNotifyHandler@SsdpListenerMulticast@Net@OpenHome@@PAPAV1234@@std@@YGPAPAVNotifyHandler@SsdpListenerMulticast@Net@OpenHome@@PAPAV1234@00U_Scalar_ptr_iterator_tag@0@@Z 0042beb0 f i libohNetCore:Discovery.obj
 0001:0002af00       ??$forward@AAPAVMsearchHandler@SsdpListenerMulticast@Net@OpenHome@@@std@@YGAAPAVMsearchHandler@SsdpListenerMulticast@Net@OpenHome@@AAPAV1234@@Z 0042bf00 f i libohNetCore:Discovery.obj
 0001:0002af10       ??$construct@AAPAVMsearchHandler@SsdpListenerMulticast@Net@OpenHome@@@?$allocator@PAVMsearchHandler@SsdpListenerMulticast@Net@OpenHome@@@std@@QAEXPAPAVMsearchHandler@SsdpListenerMulticast@Net@OpenHome@@AAPAV2345@@Z 0042bf10 f i libohNetCore:Discovery.obj
 0001:0002afb0       ??$forward@ABQAVMsearchHandler@SsdpListenerMulticast@Net@OpenHome@@@std@@YGABQAVMsearchHandler@SsdpListenerMulticast@Net@OpenHome@@ABQAV1234@@Z 0042bfb0 f i libohNetCore:Discovery.obj
 0001:0002afc0       ??$_Ptr_cat@PAVMsearchHandler@SsdpListenerMulticast@Net@OpenHome@@PAV1234@@std@@YG?AU_Scalar_ptr_iterator_tag@0@PAPAVMsearchHandler@SsdpListenerMulticast@Net@OpenHome@@0@Z 0042bfc0 f i libohNetCore:Discovery.obj
 0001:0002b020       ??$_Move@PAPAVMsearchHandler@SsdpListenerMulticast@Net@OpenHome@@PAPAV1234@@std@@YGPAPAVMsearchHandler@SsdpListenerMulticast@Net@OpenHome@@PAPAV1234@00U_Scalar_ptr_iterator_tag@0@@Z 0042c020 f i libohNetCore:Discovery.obj
 0001:0002b070       ??$_Destroy_range@V?$allocator@PAVNotifyHandler@SsdpListenerMulticast@Net@OpenHome@@@std@@@std@@YGXPAPAVNotifyHandler@SsdpListenerMulticast@Net@OpenHome@@0AAV?$allocator@PAVNotifyHandler@SsdpListenerMulticast@Net@OpenHome@@@0@U_Scalar_ptr_iterator_tag@0@@Z 0042c070 f i libohNetCore:Discovery.obj
 0001:0002b080       ??$_Destroy_range@V?$allocator@PAVMsearchHandler@SsdpListenerMulticast@Net@OpenHome@@@std@@@std@@YGXPAPAVMsearchHandler@SsdpListenerMulticast@Net@OpenHome@@0AAV?$allocator@PAVMsearchHandler@SsdpListenerMulticast@Net@OpenHome@@@0@U_Scalar_ptr_iterator_tag@0@@Z 0042c080 f i libohNetCore:Discovery.obj
 0001:0002b090       ??$_Ptr_cat@PAVIHttpHeader@OpenHome@@PAV12@@std@@YG?AU_Scalar_ptr_iterator_tag@0@PAPAVIHttpHeader@OpenHome@@0@Z 0042c090 f i libohNetCore:Discovery.obj
 0001:0002b0f0       ??$_Destroy_range@V?$allocator@PAVIHttpHeader@OpenHome@@@std@@@std@@YGXPAPAVIHttpHeader@OpenHome@@0AAV?$allocator@PAVIHttpHeader@OpenHome@@@0@U_Scalar_ptr_iterator_tag@0@@Z 0042c0f0 f i libohNetCore:Discovery.obj
 0001:0002b100       ??$_Ptr_cat@PBVBrx@OpenHome@@PBV12@@std@@YG?AU_Scalar_ptr_iterator_tag@0@PAPBVBrx@OpenHome@@0@Z 0042c100 f i libohNetCore:Discovery.obj
 0001:0002b160       ??$_Destroy_range@V?$allocator@PBVBrx@OpenHome@@@std@@@std@@YGXPAPBVBrx@OpenHome@@0AAV?$allocator@PBVBrx@OpenHome@@@0@U_Scalar_ptr_iterator_tag@0@@Z 0042c160 f i libohNetCore:Discovery.obj
 0001:0002b170       ??$_Uninitialized_move@PAPAVNotifyHandler@SsdpListenerMulticast@Net@OpenHome@@PAPAV1234@V?$allocator@PAVNotifyHandler@SsdpListenerMulticast@Net@OpenHome@@@std@@@std@@YGPAPAVNotifyHandler@SsdpListenerMulticast@Net@OpenHome@@PAPAV1234@00AAV?$allocator@PAVNotifyHandler@SsdpListenerMulticast@Net@OpenHome@@@0@@Z 0042c170 f i libohNetCore:Discovery.obj
 0001:0002b1c0       ??$_Uninitialized_move@PAPAVMsearchHandler@SsdpListenerMulticast@Net@OpenHome@@PAPAV1234@V?$allocator@PAVMsearchHandler@SsdpListenerMulticast@Net@OpenHome@@@std@@@std@@YGPAPAVMsearchHandler@SsdpListenerMulticast@Net@OpenHome@@PAPAV1234@00AAV?$allocator@PAVMsearchHandler@SsdpListenerMulticast@Net@OpenHome@@@0@@Z 0042c1c0 f i libohNetCore:Discovery.obj
 0001:0002b210       ??$_Construct@PAVNotifyHandler@SsdpListenerMulticast@Net@OpenHome@@ABQAV1234@@std@@YGXPAPAVNotifyHandler@SsdpListenerMulticast@Net@OpenHome@@ABQAV1234@@Z 0042c210 f i libohNetCore:Discovery.obj
 0001:0002b2c0       ??$_Construct@PAVMsearchHandler@SsdpListenerMulticast@Net@OpenHome@@ABQAV1234@@std@@YGXPAPAVMsearchHandler@SsdpListenerMulticast@Net@OpenHome@@ABQAV1234@@Z 0042c2c0 f i libohNetCore:Discovery.obj
 0001:0002b370       ??$_Val_type@PAPAVNotifyHandler@SsdpListenerMulticast@Net@OpenHome@@@std@@YGPAPAVNotifyHandler@SsdpListenerMulticast@Net@OpenHome@@PAPAV1234@@Z 0042c370 f i libohNetCore:Discovery.obj
 0001:0002b380       ??$_Uninit_move@PAVNotifyHandler@SsdpListenerMulticast@Net@OpenHome@@PAV1234@PAV1234@@std@@YGPAPAVNotifyHandler@SsdpListenerMulticast@Net@OpenHome@@PAPAV1234@00AAV?$allocator@PAVNotifyHandler@SsdpListenerMulticast@Net@OpenHome@@@0@0U_Scalar_ptr_iterator_tag@0@@Z 0042c380 f i libohNetCore:Discovery.obj
 0001:0002b3f0       ??$_Val_type@PAPAVMsearchHandler@SsdpListenerMulticast@Net@OpenHome@@@std@@YGPAPAVMsearchHandler@SsdpListenerMulticast@Net@OpenHome@@PAPAV1234@@Z 0042c3f0 f i libohNetCore:Discovery.obj
 0001:0002b400       ??$_Uninit_move@PAVMsearchHandler@SsdpListenerMulticast@Net@OpenHome@@PAV1234@PAV1234@@std@@YGPAPAVMsearchHandler@SsdpListenerMulticast@Net@OpenHome@@PAPAV1234@00AAV?$allocator@PAVMsearchHandler@SsdpListenerMulticast@Net@OpenHome@@@0@0U_Scalar_ptr_iterator_tag@0@@Z 0042c400 f i libohNetCore:Discovery.obj
 0001:0002b470       ??$_Debug_range@PAPAVNotifyHandler@SsdpListenerMulticast@Net@OpenHome@@@std@@YGXPAPAVNotifyHandler@SsdpListenerMulticast@Net@OpenHome@@0PB_WI@Z 0042c470 f i libohNetCore:Discovery.obj
 0001:0002b4c0       ??$_Debug_pointer@PAVNotifyHandler@SsdpListenerMulticast@Net@OpenHome@@@std@@YGXPAPAVNotifyHandler@SsdpListenerMulticast@Net@OpenHome@@PB_WI@Z 0042c4c0 f i libohNetCore:Discovery.obj
 0001:0002b4f0       ??$_Debug_range@PAPAVMsearchHandler@SsdpListenerMulticast@Net@OpenHome@@@std@@YGXPAPAVMsearchHandler@SsdpListenerMulticast@Net@OpenHome@@0PB_WI@Z 0042c4f0 f i libohNetCore:Discovery.obj
 0001:0002b540       ??$_Debug_pointer@PAVMsearchHandler@SsdpListenerMulticast@Net@OpenHome@@@std@@YGXPAPAVMsearchHandler@SsdpListenerMulticast@Net@OpenHome@@PB_WI@Z 0042c540 f i libohNetCore:Discovery.obj
 0001:0002b570       ??$_Iter_cat@PAPAVNotifyHandler@SsdpListenerMulticast@Net@OpenHome@@@std@@YG?AUrandom_access_iterator_tag@0@ABQAPAVNotifyHandler@SsdpListenerMulticast@Net@OpenHome@@@Z 0042c570 f i libohNetCore:Discovery.obj
 0001:0002b5d0       ??$_Debug_range2@PAPAVNotifyHandler@SsdpListenerMulticast@Net@OpenHome@@@std@@YGXPAPAVNotifyHandler@SsdpListenerMulticast@Net@OpenHome@@0PB_WIUrandom_access_iterator_tag@0@@Z 0042c5d0 f i libohNetCore:Discovery.obj
 0001:0002b630       ??$_Iter_cat@PAPAVMsearchHandler@SsdpListenerMulticast@Net@OpenHome@@@std@@YG?AUrandom_access_iterator_tag@0@ABQAPAVMsearchHandler@SsdpListenerMulticast@Net@OpenHome@@@Z 0042c630 f i libohNetCore:Discovery.obj
 0001:0002b690       ??$_Debug_range2@PAPAVMsearchHandler@SsdpListenerMulticast@Net@OpenHome@@@std@@YGXPAPAVMsearchHandler@SsdpListenerMulticast@Net@OpenHome@@0PB_WIUrandom_access_iterator_tag@0@@Z 0042c690 f i libohNetCore:Discovery.obj
 0001:0002b6f0       ??_ESsdpSocketReader@Net@OpenHome@@WBI@AEPAXI@Z 0042c6f0 f i libohNetCore:Discovery.obj
 0001:0002b700       ??_E?$Sws@$0EAA@@OpenHome@@WM@AEPAXI@Z 0042c700 f i libohNetCore:Discovery.obj
 0001:0002b710       ??_E?$Srs@$0EAA@@OpenHome@@WM@AEPAXI@Z 0042c710 f i libohNetCore:Discovery.obj
 0001:0002b720       ?GetPlatformNameAndVersion@Os@OpenHome@@SG?AVBrn@2@AAI0@Z 0042c720 f   libohNetCore:OsWrapper.obj
 0001:0002b810       ?NetworkCreate@Os@OpenHome@@SGPAXW4ESocketType@2@@Z 0042c810 f   libohNetCore:OsWrapper.obj
 0001:0002b8e0       ?NetworkBind@Os@OpenHome@@SGHPAXABVEndpoint@2@@Z 0042c8e0 f   libohNetCore:OsWrapper.obj
 0001:0002b920       ?NetworkPort@Os@OpenHome@@SGHPAXAAI@Z 0042c920 f   libohNetCore:OsWrapper.obj
 0001:0002b9a0       ?NetworkGetHostByName@Os@OpenHome@@SGIABVBrx@2@@Z 0042c9a0 f   libohNetCore:OsWrapper.obj
 0001:0002baf0       ?NetworkConnect@Os@OpenHome@@SGXPAXABVEndpoint@2@I@Z 0042caf0 f   libohNetCore:OsWrapper.obj
 0001:0002bc10       ?NetworkReceiveFrom@Os@OpenHome@@SGHPAXAAVBwx@2@AAVEndpoint@2@@Z 0042cc10 f   libohNetCore:OsWrapper.obj
 0001:0002bce0       ?NetworkSocketSetSendBufBytes@Os@OpenHome@@SGXPAXI@Z 0042cce0 f   libohNetCore:OsWrapper.obj
 0001:0002bdf0       ?NetworkSocketSetRecvBufBytes@Os@OpenHome@@SGXPAXI@Z 0042cdf0 f   libohNetCore:OsWrapper.obj
 0001:0002bf00       ?NetworkSocketSetReceiveTimeout@Os@OpenHome@@SGXPAXI@Z 0042cf00 f   libohNetCore:OsWrapper.obj
 0001:0002c010       ?NetworkTcpSetNoDelay@Os@OpenHome@@SGXPAX@Z 0042d010 f   libohNetCore:OsWrapper.obj
 0001:0002c110       ?NetworkSocketSetReuseAddress@Os@OpenHome@@SGXPAX@Z 0042d110 f   libohNetCore:OsWrapper.obj
 0001:0002c210       ?NetworkSocketSetMulticastTtl@Os@OpenHome@@SGXPAXE@Z 0042d210 f   libohNetCore:OsWrapper.obj
 0001:0002c320       ?NetworkSocketMulticastAddMembership@Os@OpenHome@@SGXPAXII@Z 0042d320 f   libohNetCore:OsWrapper.obj
 0001:0002c430       ?NetworkSocketMulticastDropMembership@Os@OpenHome@@SGXPAXII@Z 0042d430 f   libohNetCore:OsWrapper.obj
 0001:0002c540       ?NetworkListAdapters@Os@OpenHome@@SGPAV?$vector@PAVNetworkAdapter@OpenHome@@V?$allocator@PAVNetworkAdapter@OpenHome@@@std@@@std@@_N@Z 0042d540 f   libohNetCore:OsWrapper.obj
 0001:0002c750       ?IsHex@Ascii@OpenHome@@SG_ND@Z 0042d750 f   libohNetCore:Ascii.obj
 0001:0002c7b0       ?IsDigit@Ascii@OpenHome@@SG_ND@Z 0042d7b0 f   libohNetCore:Ascii.obj
 0001:0002c7f0       ?IsWhitespace@Ascii@OpenHome@@SG_ND@Z 0042d7f0 f   libohNetCore:Ascii.obj
 0001:0002c810       ?IsLineEnding@Ascii@OpenHome@@SG_ND@Z 0042d810 f   libohNetCore:Ascii.obj
 0001:0002c850       ?IsAlphabetic@Ascii@OpenHome@@SG_ND@Z 0042d850 f   libohNetCore:Ascii.obj
 0001:0002c8a0       ?IsUpperCase@Ascii@OpenHome@@SG_ND@Z 0042d8a0 f   libohNetCore:Ascii.obj
 0001:0002c8e0       ?IsLowerCase@Ascii@OpenHome@@SG_ND@Z 0042d8e0 f   libohNetCore:Ascii.obj
 0001:0002c920       ?ToLowerCase@Ascii@OpenHome@@SGDD@Z 0042d920 f   libohNetCore:Ascii.obj
 0001:0002c970       ?ToUpperCase@Ascii@OpenHome@@SGDD@Z 0042d970 f   libohNetCore:Ascii.obj
 0001:0002c9c0       ?CaseInsensitiveEquals@Ascii@OpenHome@@SG_NDD@Z 0042d9c0 f   libohNetCore:Ascii.obj
 0001:0002ca10       ?CaseInsensitiveEquals@Ascii@OpenHome@@SG_NABVBrx@2@0@Z 0042da10 f   libohNetCore:Ascii.obj
 0001:0002caa0       ?RemoveTheFromStart@Ascii@OpenHome@@SG_NABVBrx@2@AAVBwx@2@@Z 0042daa0 f   libohNetCore:Ascii.obj
 0001:0002cbe0       ?HexChar@Ascii@OpenHome@@SGDI@Z 0042dbe0 f   libohNetCore:Ascii.obj
 0001:0002ccb0       ?HexValue@Ascii@OpenHome@@SGID@Z 0042dcb0 f   libohNetCore:Ascii.obj
 0001:0002cdb0       ?DecChar@Ascii@OpenHome@@SGDI@Z 0042ddb0 f   libohNetCore:Ascii.obj
 0001:0002ce70       ?DecValue@Ascii@OpenHome@@SGID@Z 0042de70 f   libohNetCore:Ascii.obj
 0001:0002cf40       ?AppendDec@Ascii@OpenHome@@SGIAAVBwx@2@E@Z 0042df40 f   libohNetCore:Ascii.obj
 0001:0002cf60       ?AppendDec@Ascii@OpenHome@@SGIAAVBwx@2@C@Z 0042df60 f   libohNetCore:Ascii.obj
 0001:0002cf80       ?AppendDec@Ascii@OpenHome@@SGIAAVBwx@2@H@Z 0042df80 f   libohNetCore:Ascii.obj
 0001:0002d100       ?AppendDec@Ascii@OpenHome@@SGIAAVBwx@2@I@Z 0042e100 f   libohNetCore:Ascii.obj
 0001:0002d260       ?AppendDec@Ascii@OpenHome@@SGIAAVBwx@2@_J@Z 0042e260 f   libohNetCore:Ascii.obj
 0001:0002d410       ?AppendDec@Ascii@OpenHome@@SGIAAVBwx@2@_K@Z 0042e410 f   libohNetCore:Ascii.obj
 0001:0002d580       ?AppendHex@Ascii@OpenHome@@SGIAAVBwx@2@I@Z 0042e580 f   libohNetCore:Ascii.obj
 0001:0002d620       ?AppendHex@Ascii@OpenHome@@SGIAAVBwx@2@E@Z 0042e620 f   libohNetCore:Ascii.obj
 0001:0002d670       ?AppendHexPrefix@Ascii@OpenHome@@SGIAAVBwx@2@@Z 0042e670 f   libohNetCore:Ascii.obj
 0001:0002d690       ?Contains@Ascii@OpenHome@@SG_NABVBrx@2@D@Z 0042e690 f   libohNetCore:Ascii.obj
 0001:0002d6f0       ?ContainsWhitespace@Ascii@OpenHome@@SG_NABVBrx@2@@Z 0042e6f0 f   libohNetCore:Ascii.obj
 0001:0002d750       ?IndexOf@Ascii@OpenHome@@SGIABVBrx@2@D@Z 0042e750 f   libohNetCore:Ascii.obj
 0001:0002d7e0       ?Substitute@Ascii@OpenHome@@SGXAAVBwx@2@DD@Z 0042e7e0 f   libohNetCore:Ascii.obj
 0001:0002d870       ?Trim@Ascii@OpenHome@@SG?AVBrn@2@ABVBrx@2@@Z 0042e870 f   libohNetCore:Ascii.obj
 0001:0002d970       ?Int@Ascii@OpenHome@@SGHABVBrx@2@@Z 0042e970 f   libohNetCore:Ascii.obj
 0001:0002dbf0       ?Uint@Ascii@OpenHome@@SGIABVBrx@2@@Z 0042ebf0 f   libohNetCore:Ascii.obj
 0001:0002ddb0       ?Int64@Ascii@OpenHome@@SG_JABVBrx@2@@Z 0042edb0 f   libohNetCore:Ascii.obj
 0001:0002e080       ?Uint64@Ascii@OpenHome@@SG_KABVBrx@2@@Z 0042f080 f   libohNetCore:Ascii.obj
 0001:0002e260       ?UintHex@Ascii@OpenHome@@SGIABVBrx@2@@Z 0042f260 f   libohNetCore:Ascii.obj
 0001:0002e420       ??0ReaderAscii@OpenHome@@QAE@AAVIReader@1@@Z 0042f420 f   libohNetCore:Ascii.obj
 0001:0002e4a0       ?ReadInt@ReaderAscii@OpenHome@@QAEHE@Z 0042f4a0 f   libohNetCore:Ascii.obj
 0001:0002e560       ?ReadUint@ReaderAscii@OpenHome@@QAEIE@Z 0042f560 f   libohNetCore:Ascii.obj
 0001:0002e620       ?Read@ReaderAscii@OpenHome@@UAE?AVBrn@2@I@Z 0042f620 f   libohNetCore:Ascii.obj
 0001:0002e680       ?ReadUntil@ReaderAscii@OpenHome@@UAE?AVBrn@2@E@Z 0042f680 f   libohNetCore:Ascii.obj
 0001:0002e6f0       ??0WriterAscii@OpenHome@@QAE@AAVIWriter@1@@Z 0042f6f0 f   libohNetCore:Ascii.obj
 0001:0002e770       ?WriteSpace@WriterAscii@OpenHome@@UAEXXZ 0042f770 f   libohNetCore:Ascii.obj
 0001:0002e7b0       ?WriteNewline@WriterAscii@OpenHome@@UAEXXZ 0042f7b0 f   libohNetCore:Ascii.obj
 0001:0002e7f0       ?WriteTab@WriterAscii@OpenHome@@UAEXXZ 0042f7f0 f   libohNetCore:Ascii.obj
 0001:0002e830       ?WriteInt@WriterAscii@OpenHome@@UAEXH@Z 0042f830 f   libohNetCore:Ascii.obj
 0001:0002e910       ?WriteIntPadded@WriterAscii@OpenHome@@UAEXH@Z 0042f910 f   libohNetCore:Ascii.obj
 0001:0002ea10       ?WriteUint@WriterAscii@OpenHome@@UAEXI@Z 0042fa10 f   libohNetCore:Ascii.obj
 0001:0002eaf0       ?WriteUintPadded@WriterAscii@OpenHome@@UAEXI@Z 0042faf0 f   libohNetCore:Ascii.obj
 0001:0002ebf0       ?WriteInt64@WriterAscii@OpenHome@@UAEX_J@Z 0042fbf0 f   libohNetCore:Ascii.obj
 0001:0002ecd0       ?WriteUint64@WriterAscii@OpenHome@@UAEX_K@Z 0042fcd0 f   libohNetCore:Ascii.obj
 0001:0002edb0       ?WriteHex@WriterAscii@OpenHome@@UAEXI@Z 0042fdb0 f   libohNetCore:Ascii.obj
 0001:0002eea0       ?WriteHex@WriterAscii@OpenHome@@UAEXE@Z 0042fea0 f   libohNetCore:Ascii.obj
 0001:0002ef90       ?WriteHexPrefix@WriterAscii@OpenHome@@UAEXXZ 0042ff90 f   libohNetCore:Ascii.obj
 0001:0002efd0       ?Write@WriterAscii@OpenHome@@UAEXE@Z 0042ffd0 f   libohNetCore:Ascii.obj
 0001:0002f020       ?Write@WriterAscii@OpenHome@@UAEXABVBrx@2@@Z 00430020 f   libohNetCore:Ascii.obj
 0001:0002f060       ?WriteFlush@WriterAscii@OpenHome@@UAEXXZ 00430060 f   libohNetCore:Ascii.obj
 0001:0002f0a0       ?StreamWriteUint@Ascii@OpenHome@@SGXAAVIWriter@2@I@Z 004300a0 f   libohNetCore:Ascii.obj
 0001:0002f180       ?StreamWriteInt@Ascii@OpenHome@@SGXAAVIWriter@2@H@Z 00430180 f   libohNetCore:Ascii.obj
 0001:0002f260       ??0AsciiError@OpenHome@@QAE@PBDI@Z 00430260 f i libohNetCore:Ascii.obj
 0001:0002f2a0       ??1AsciiError@OpenHome@@QAE@XZ 004302a0 f i libohNetCore:Ascii.obj
 0001:0002f2d0       ??1?$Bws@$09@OpenHome@@UAE@XZ 004302d0 f i libohNetCore:Ascii.obj
 0001:0002f300       ??1?$Bws@$0BE@@OpenHome@@UAE@XZ 00430300 f i libohNetCore:Ascii.obj
 0001:0002f330       ??_EReaderAscii@OpenHome@@UAEPAXI@Z 00430330 f i libohNetCore:Ascii.obj
 0001:0002f330       ??_GReaderAscii@OpenHome@@UAEPAXI@Z 00430330 f i libohNetCore:Ascii.obj
 0001:0002f370       ??0IReader@OpenHome@@QAE@XZ 00430370 f i libohNetCore:Ascii.obj
 0001:0002f390       ??1ReaderAscii@OpenHome@@UAE@XZ 00430390 f i libohNetCore:Ascii.obj
 0001:0002f3c0       ??_GWriterAscii@OpenHome@@UAEPAXI@Z 004303c0 f i libohNetCore:Ascii.obj
 0001:0002f3c0       ??_EWriterAscii@OpenHome@@UAEPAXI@Z 004303c0 f i libohNetCore:Ascii.obj
 0001:0002f400       ??0IWriterAscii@OpenHome@@QAE@XZ 00430400 f i libohNetCore:Ascii.obj
 0001:0002f430       ??1?$Bws@$0L@@OpenHome@@UAE@XZ 00430430 f i libohNetCore:Ascii.obj
 0001:0002f460       ??1?$Bws@$07@OpenHome@@UAE@XZ 00430460 f i libohNetCore:Ascii.obj
 0001:0002f490       ??1?$Bws@$01@OpenHome@@UAE@XZ 00430490 f i libohNetCore:Ascii.obj
 0001:0002f4c0       ??0?$Bws@$09@OpenHome@@QAE@XZ 004304c0 f i libohNetCore:Ascii.obj
 0001:0002f500       ?Ptr@?$Bws@$09@OpenHome@@UBEPBEXZ 00430500 f i libohNetCore:Ascii.obj
 0001:0002f520       ??0?$Bws@$0BE@@OpenHome@@QAE@XZ 00430520 f i libohNetCore:Ascii.obj
 0001:0002f560       ?Ptr@?$Bws@$0BE@@OpenHome@@UBEPBEXZ 00430560 f i libohNetCore:Ascii.obj
 0001:0002f580       ??0?$Bws@$0L@@OpenHome@@QAE@XZ 00430580 f i libohNetCore:Ascii.obj
 0001:0002f5c0       ?Ptr@?$Bws@$0L@@OpenHome@@UBEPBEXZ 004305c0 f i libohNetCore:Ascii.obj
 0001:0002f5e0       ??0?$Bws@$07@OpenHome@@QAE@XZ 004305e0 f i libohNetCore:Ascii.obj
 0001:0002f620       ?Ptr@?$Bws@$07@OpenHome@@UBEPBEXZ 00430620 f i libohNetCore:Ascii.obj
 0001:0002f640       ??0?$Bws@$01@OpenHome@@QAE@XZ 00430640 f i libohNetCore:Ascii.obj
 0001:0002f680       ?Ptr@?$Bws@$01@OpenHome@@UBEPBEXZ 00430680 f i libohNetCore:Ascii.obj
 0001:0002f6a0       ??_E?$Bws@$09@OpenHome@@UAEPAXI@Z 004306a0 f i libohNetCore:Ascii.obj
 0001:0002f6a0       ??_G?$Bws@$09@OpenHome@@UAEPAXI@Z 004306a0 f i libohNetCore:Ascii.obj
 0001:0002f6e0       ??_G?$Bws@$0BE@@OpenHome@@UAEPAXI@Z 004306e0 f i libohNetCore:Ascii.obj
 0001:0002f6e0       ??_E?$Bws@$0BE@@OpenHome@@UAEPAXI@Z 004306e0 f i libohNetCore:Ascii.obj
 0001:0002f720       ??_G?$Bws@$0L@@OpenHome@@UAEPAXI@Z 00430720 f i libohNetCore:Ascii.obj
 0001:0002f720       ??_E?$Bws@$0L@@OpenHome@@UAEPAXI@Z 00430720 f i libohNetCore:Ascii.obj
 0001:0002f760       ??_E?$Bws@$07@OpenHome@@UAEPAXI@Z 00430760 f i libohNetCore:Ascii.obj
 0001:0002f760       ??_G?$Bws@$07@OpenHome@@UAEPAXI@Z 00430760 f i libohNetCore:Ascii.obj
 0001:0002f7a0       ??_G?$Bws@$01@OpenHome@@UAEPAXI@Z 004307a0 f i libohNetCore:Ascii.obj
 0001:0002f7a0       ??_E?$Bws@$01@OpenHome@@UAEPAXI@Z 004307a0 f i libohNetCore:Ascii.obj
 0001:0002f7e0       ?Version@Http@OpenHome@@SG?AW4EVersion@12@ABVBrx@2@@Z 004307e0 f   libohNetCore:Http.obj
 0001:0002f900       ?Version@Http@OpenHome@@SGABVBrx@2@W4EVersion@12@@Z 00430900 f   libohNetCore:Http.obj
 0001:0002f980       ?WriteHeaderRangeFirstOnly@Http@OpenHome@@SGXAAVWriterHttpHeader@2@_K@Z 00430980 f   libohNetCore:Http.obj
 0001:0002fa80       ?WriteHeaderRange@Http@OpenHome@@SGXAAVWriterHttpHeader@2@_K1@Z 00430a80 f   libohNetCore:Http.obj
 0001:0002fb90       ?WriteHeaderHost@Http@OpenHome@@SGXAAVWriterHttpHeader@2@ABVUri@2@@Z 00430b90 f   libohNetCore:Http.obj
 0001:0002fbd0       ?WriteHeaderHostAndPort@Http@OpenHome@@SGXAAVWriterHttpHeader@2@ABVUri@2@@Z 00430bd0 f   libohNetCore:Http.obj
 0001:0002fc80       ?WriteHeaderContentLength@Http@OpenHome@@SGXAAVWriterHttpHeader@2@I@Z 00430c80 f   libohNetCore:Http.obj
 0001:0002fd70       ?WriteHeaderContentType@Http@OpenHome@@SGXAAVWriterHttpHeader@2@ABVBrx@2@@Z 00430d70 f   libohNetCore:Http.obj
 0001:0002fda0       ?WriteHeaderConnectionClose@Http@OpenHome@@SGXAAVWriterHttpHeader@2@@Z 00430da0 f   libohNetCore:Http.obj
 0001:0002fdd0       ?Code@HttpStatus@OpenHome@@QBEIXZ 00430dd0 f   libohNetCore:Http.obj
 0001:0002fdf0       ?Reason@HttpStatus@OpenHome@@QBEABVBrx@2@XZ 00430df0 f   libohNetCore:Http.obj
 0001:0002fe10       ??8HttpStatus@OpenHome@@QBE_NABV01@@Z 00430e10 f   libohNetCore:Http.obj
 0001:0002fe40       ??9HttpStatus@OpenHome@@QBE_NABV01@@Z 00430e40 f   libohNetCore:Http.obj
 0001:0002fe70       ??0HttpStatus@OpenHome@@IAE@IVBrn@1@@Z 00430e70 f   libohNetCore:Http.obj
 0001:0002fef0       ??0ReaderHttpHeader@OpenHome@@IAE@XZ 00430ef0 f   libohNetCore:Http.obj
 0001:0002ff20       ?AddHeader@ReaderHttpHeader@OpenHome@@QAEXAAVIHttpHeader@2@@Z 00430f20 f   libohNetCore:Http.obj
 0001:0002ff50       ?Header@ReaderHttpHeader@OpenHome@@QBEAAVIHttpHeader@2@XZ 00430f50 f   libohNetCore:Http.obj
 0001:0002ff90       ?ResetHeaders@ReaderHttpHeader@OpenHome@@IAEXXZ 00430f90 f   libohNetCore:Http.obj
 0001:00030020       ?ProcessHeader@ReaderHttpHeader@OpenHome@@IAEXABVBrx@2@0@Z 00431020 f   libohNetCore:Http.obj
 0001:000300d0       ??0ReaderHttpRequest@OpenHome@@QAE@AAVIReader@1@@Z 004310d0 f   libohNetCore:Http.obj
 0001:00030160       ?Read@ReaderHttpRequest@OpenHome@@QAEXXZ 00431160 f   libohNetCore:Http.obj
 0001:00030570       ?AddMethod@ReaderHttpRequest@OpenHome@@QAEXABVBrx@2@@Z 00431570 f   libohNetCore:Http.obj
 0001:000305a0       ?MethodNotAllowed@ReaderHttpRequest@OpenHome@@QBE_NXZ 004315a0 f   libohNetCore:Http.obj
 0001:000305c0       ?Method@ReaderHttpRequest@OpenHome@@QBEABVBrx@2@XZ 004315c0 f   libohNetCore:Http.obj
 0001:00030600       ?Uri@ReaderHttpRequest@OpenHome@@QBEABVBrx@2@XZ 00431600 f   libohNetCore:Http.obj
 0001:00030620       ?Version@ReaderHttpRequest@OpenHome@@QBE?AW4EVersion@Http@2@XZ 00431620 f   libohNetCore:Http.obj
 0001:00030640       ?ProcessMethod@ReaderHttpRequest@OpenHome@@IAEXABVBrx@2@00@Z 00431640 f   libohNetCore:Http.obj
 0001:00030840       ?Flush@ReaderHttpRequest@OpenHome@@QAEXXZ 00431840 f   libohNetCore:Http.obj
 0001:00030880       ?Interrupt@ReaderHttpRequest@OpenHome@@QAEXXZ 00431880 f   libohNetCore:Http.obj
 0001:000308c0       ??0ReaderHttpResponse@OpenHome@@QAE@AAVIReader@1@@Z 004318c0 f   libohNetCore:Http.obj
 0001:00030950       ?Version@ReaderHttpResponse@OpenHome@@QBE?AW4EVersion@Http@2@XZ 00431950 f   libohNetCore:Http.obj
 0001:00030970       ?Status@ReaderHttpResponse@OpenHome@@QBEABVHttpStatus@2@XZ 00431970 f   libohNetCore:Http.obj
 0001:00030990       ?Read@ReaderHttpResponse@OpenHome@@QAEXXZ 00431990 f   libohNetCore:Http.obj
 0001:00030db0       ?ProcessStatus@ReaderHttpResponse@OpenHome@@MAEXABVBrx@2@00@Z 00431db0 f   libohNetCore:Http.obj
 0001:00030f70       ?Flush@ReaderHttpResponse@OpenHome@@QAEXXZ 00431f70 f   libohNetCore:Http.obj
 0001:00030fb0       ?Interrupt@ReaderHttpResponse@OpenHome@@QAEXXZ 00431fb0 f   libohNetCore:Http.obj
 0001:00030ff0       ??0StatusWritable@ReaderHttpResponse@OpenHome@@QAE@XZ 00431ff0 f   libohNetCore:Http.obj
 0001:00031040       ?Set@StatusWritable@ReaderHttpResponse@OpenHome@@QAEXIABVBrx@3@@Z 00432040 f   libohNetCore:Http.obj
 0001:00031080       ??0WriterHttpField@OpenHome@@QAE@AAVIWriter@1@@Z 00432080 f   libohNetCore:Http.obj
 0001:000310c0       ?Write@WriterHttpField@OpenHome@@UAEXE@Z 004320c0 f   libohNetCore:Http.obj
 0001:00031170       ?Write@WriterHttpField@OpenHome@@UAEXABVBrx@2@@Z 00432170 f   libohNetCore:Http.obj
 0001:000311c0       ?WriteFlush@WriterHttpField@OpenHome@@UAEXXZ 004321c0 f   libohNetCore:Http.obj
 0001:000311f0       ?Flush@WriterHttpField@OpenHome@@AAEXXZ 004321f0 f   libohNetCore:Http.obj
 0001:00031220       ??0WriterHttpHeader@OpenHome@@IAE@AAVIWriter@1@@Z 00432220 f   libohNetCore:Http.obj
 0001:000312a0       ?Write@WriterHttpHeader@OpenHome@@UAEXE@Z 004322a0 f   libohNetCore:Http.obj
 0001:000312d0       ?Write@WriterHttpHeader@OpenHome@@UAEXABVBrx@2@@Z 004322d0 f   libohNetCore:Http.obj
 0001:00031300       ?WriteFlush@WriterHttpHeader@OpenHome@@UAEXXZ 00432300 f   libohNetCore:Http.obj
 0001:00031370       ?WriteHeader@WriterHttpHeader@OpenHome@@UAEXABVBrx@2@0@Z 00432370 f   libohNetCore:Http.obj
 0001:00031420       ?WriteHeaderField@WriterHttpHeader@OpenHome@@UAEAAVIWriterAscii@2@ABVBrx@2@@Z 00432420 f   libohNetCore:Http.obj
 0001:000314a0       ??0WriterHttpRequest@OpenHome@@QAE@AAVIWriter@1@@Z 004324a0 f   libohNetCore:Http.obj
 0001:000314f0       ?WriteMethod@WriterHttpRequest@OpenHome@@UAEXABVBrx@2@0W4EVersion@Http@2@@Z 004324f0 f   libohNetCore:Http.obj
 0001:000315e0       ??0WriterHttpResponse@OpenHome@@QAE@AAVIWriter@1@@Z 004325e0 f   libohNetCore:Http.obj
 0001:00031630       ?WriteStatus@WriterHttpResponse@OpenHome@@UAEXABVHttpStatus@2@W4EVersion@Http@2@@Z 00432630 f   libohNetCore:Http.obj
 0001:00031730       ?Write@WriterHttpResponse@OpenHome@@UAEXABVBrx@2@@Z 00432730 f   libohNetCore:Http.obj
 0001:00031770       ??0HttpHeader@OpenHome@@IAE@XZ 00432770 f   libohNetCore:Http.obj
 0001:000317b0       ?Received@HttpHeader@OpenHome@@QBE_NXZ 004327b0 f   libohNetCore:Http.obj
 0001:000317d0       ?SetReceived@HttpHeader@OpenHome@@IAEXXZ 004327d0 f   libohNetCore:Http.obj
 0001:000317f0       ?Reset@HttpHeader@OpenHome@@MAEXXZ 004327f0 f   libohNetCore:Http.obj
 0001:00031810       ?Endpoint@HttpHeaderHost@OpenHome@@QAEAAV02@XZ 00432810 f   libohNetCore:Http.obj
 0001:000318a0       ?Host@HttpHeaderHost@OpenHome@@QBEABVBrx@2@XZ 004328a0 f   libohNetCore:Http.obj
 0001:000318c0       ?Recognise@HttpHeaderHost@OpenHome@@EAE_NABVBrx@2@@Z 004328c0 f   libohNetCore:Http.obj
 0001:000318f0       ?Process@HttpHeaderHost@OpenHome@@EAEXABVBrx@2@@Z 004328f0 f   libohNetCore:Http.obj
 0001:00031bd0       ?Location@HttpHeaderLocation@OpenHome@@QBEABVBrx@2@XZ 00432bd0 f   libohNetCore:Http.obj
 0001:00031bf0       ?Recognise@HttpHeaderLocation@OpenHome@@EAE_NABVBrx@2@@Z 00432bf0 f   libohNetCore:Http.obj
 0001:00031c20       ?Process@HttpHeaderLocation@OpenHome@@EAEXABVBrx@2@@Z 00432c20 f   libohNetCore:Http.obj
 0001:00031cb0       ?Type@HttpHeaderContentType@OpenHome@@QBEABVBrx@2@XZ 00432cb0 f   libohNetCore:Http.obj
 0001:00031cd0       ?Recognise@HttpHeaderContentType@OpenHome@@EAE_NABVBrx@2@@Z 00432cd0 f   libohNetCore:Http.obj
 0001:00031d00       ?Process@HttpHeaderContentType@OpenHome@@EAEXABVBrx@2@@Z 00432d00 f   libohNetCore:Http.obj
 0001:00031fd0       ?Process@HttpHeaderContentType@OpenHome@@IAEXABVBrx@2@0@Z 00432fd0 f   libohNetCore:Http.obj
 0001:00031ff0       ?ContentLength@HttpHeaderContentLength@OpenHome@@QBEIXZ 00432ff0 f   libohNetCore:Http.obj
 0001:00032040       ?Recognise@HttpHeaderContentLength@OpenHome@@EAE_NABVBrx@2@@Z 00433040 f   libohNetCore:Http.obj
 0001:00032070       ?Process@HttpHeaderContentLength@OpenHome@@EAEXABVBrx@2@@Z 00433070 f   libohNetCore:Http.obj
 0001:00032160       ?IsChunked@HttpHeaderTransferEncoding@OpenHome@@QBE_NXZ 00433160 f   libohNetCore:Http.obj
 0001:000321b0       ?Recognise@HttpHeaderTransferEncoding@OpenHome@@EAE_NABVBrx@2@@Z 004331b0 f   libohNetCore:Http.obj
 0001:000321e0       ?Process@HttpHeaderTransferEncoding@OpenHome@@EAEXABVBrx@2@@Z 004331e0 f   libohNetCore:Http.obj
 0001:00032230       ?Close@HttpHeaderConnection@OpenHome@@QBE_NXZ 00433230 f   libohNetCore:Http.obj
 0001:00032280       ?Upgrade@HttpHeaderConnection@OpenHome@@QBE_NXZ 00433280 f   libohNetCore:Http.obj
 0001:000322d0       ?Recognise@HttpHeaderConnection@OpenHome@@EAE_NABVBrx@2@@Z 004332d0 f   libohNetCore:Http.obj
 0001:00032300       ?Process@HttpHeaderConnection@OpenHome@@EAEXABVBrx@2@@Z 00433300 f   libohNetCore:Http.obj
 0001:00032380       ?Continue@HttpHeaderExpect@OpenHome@@QBE_NXZ 00433380 f   libohNetCore:Http.obj
 0001:000323d0       ?Recognise@HttpHeaderExpect@OpenHome@@EAE_NABVBrx@2@@Z 004333d0 f   libohNetCore:Http.obj
 0001:00032400       ?Process@HttpHeaderExpect@OpenHome@@EAEXABVBrx@2@@Z 00433400 f   libohNetCore:Http.obj
 0001:00032440       ??0EndpointHttp@OpenHome@@QAE@ABVUri@1@@Z 00433440 f   libohNetCore:Http.obj
 0001:000324b0       ??0ReaderHttpChunked@OpenHome@@QAE@AAVIReader@1@@Z 004334b0 f   libohNetCore:Http.obj
 0001:000324f0       ?Read@ReaderHttpChunked@OpenHome@@QAEXXZ 004334f0 f   libohNetCore:Http.obj
 0001:000327d0       ?TransferTo@ReaderHttpChunked@OpenHome@@QAEXAAVBwh@2@@Z 004337d0 f   libohNetCore:Http.obj
 0001:00032800       ??0WriterHttpChunked@OpenHome@@QAE@AAVIWriter@1@@Z 00433800 f   libohNetCore:Http.obj
 0001:00032890       ?SetChunked@WriterHttpChunked@OpenHome@@QAEX_N@Z 00433890 f   libohNetCore:Http.obj
 0001:000328b0       ?Write@WriterHttpChunked@OpenHome@@UAEXE@Z 004338b0 f   libohNetCore:Http.obj
 0001:00032980       ?Write@WriterHttpChunked@OpenHome@@UAEXABVBrx@2@@Z 00433980 f   libohNetCore:Http.obj
 0001:00032af0       ?WriteFlush@WriterHttpChunked@OpenHome@@UAEXXZ 00433af0 f   libohNetCore:Http.obj
 0001:00032b90       ??0HttpError@OpenHome@@QAE@PBDI@Z 00433b90 f i libohNetCore:Http.obj
 0001:00032bd0       ??1HttpError@OpenHome@@QAE@XZ 00433bd0 f i libohNetCore:Http.obj
 0001:00032c00       ??1?$Bws@$0BL@@OpenHome@@UAE@XZ 00433c00 f i libohNetCore:Http.obj
 0001:00032c30       ??1?$Bws@$0CP@@OpenHome@@UAE@XZ 00433c30 f i libohNetCore:Http.obj
 0001:00032c60       ?Host@Uri@OpenHome@@QBEABVBrx@2@XZ 00433c60 f i libohNetCore:Http.obj
 0001:00032c80       ?Port@Uri@OpenHome@@QBEHXZ 00433c80 f i libohNetCore:Http.obj
 0001:00032ca0       ??0Brn@OpenHome@@QAE@XZ    00433ca0 f i libohNetCore:Http.obj
 0001:00032ce0       ??1Parser@OpenHome@@QAE@XZ 00433ce0 f i libohNetCore:Http.obj
 0001:00032d10       ??_EWriterHttpField@OpenHome@@UAEPAXI@Z 00433d10 f i libohNetCore:Http.obj
 0001:00032d10       ??_GWriterHttpField@OpenHome@@UAEPAXI@Z 00433d10 f i libohNetCore:Http.obj
 0001:00032d50       ??_GWriterHttpHeader@OpenHome@@UAEPAXI@Z 00433d50 f i libohNetCore:Http.obj
 0001:00032d50       ??_EWriterHttpHeader@OpenHome@@UAEPAXI@Z 00433d50 f i libohNetCore:Http.obj
 0001:00032d90       ??0IWriterHttpHeader@OpenHome@@QAE@XZ 00433d90 f i libohNetCore:Http.obj
 0001:00032dc0       ??_GWriterHttpRequest@OpenHome@@UAEPAXI@Z 00433dc0 f i libohNetCore:Http.obj
 0001:00032dc0       ??_EWriterHttpRequest@OpenHome@@UAEPAXI@Z 00433dc0 f i libohNetCore:Http.obj
 0001:00032e00       ??0IWriterHttpMethod@OpenHome@@QAE@XZ 00433e00 f i libohNetCore:Http.obj
 0001:00032e20       ??_GWriterHttpResponse@OpenHome@@UAEPAXI@Z 00433e20 f i libohNetCore:Http.obj
 0001:00032e20       ??_EWriterHttpResponse@OpenHome@@UAEPAXI@Z 00433e20 f i libohNetCore:Http.obj
 0001:00032e60       ??0IWriterHttpStatus@OpenHome@@QAE@XZ 00433e60 f i libohNetCore:Http.obj
 0001:00032e80       ??_GIWriterHttpStatus@OpenHome@@UAEPAXI@Z 00433e80 f i libohNetCore:Http.obj
 0001:00032e80       ??_EIWriterHttpStatus@OpenHome@@UAEPAXI@Z 00433e80 f i libohNetCore:Http.obj
 0001:00032ec0       ??1IWriterHttpStatus@OpenHome@@UAE@XZ 00433ec0 f i libohNetCore:Http.obj
 0001:00032ee0       ??1WriterHttpResponse@OpenHome@@UAE@XZ 00433ee0 f i libohNetCore:Http.obj
 0001:00032f50       ??_GHttpHeader@OpenHome@@UAEPAXI@Z 00433f50 f i libohNetCore:Http.obj
 0001:00032f50       ??_EHttpHeader@OpenHome@@UAEPAXI@Z 00433f50 f i libohNetCore:Http.obj
 0001:00032f90       ??0IHttpHeader@OpenHome@@QAE@XZ 00433f90 f i libohNetCore:Http.obj
 0001:00032fb0       ??0Brn@OpenHome@@QAE@ABVBrx@1@@Z 00433fb0 f i libohNetCore:Http.obj
 0001:00033040       ?Set@Brn@OpenHome@@QAEXPBEI@Z 00434040 f i libohNetCore:Http.obj
 0001:00033070       ??_GWriterHttpChunked@OpenHome@@UAEPAXI@Z 00434070 f i libohNetCore:Http.obj
 0001:00033070       ??_EWriterHttpChunked@OpenHome@@UAEPAXI@Z 00434070 f i libohNetCore:Http.obj
 0001:000330b0       ??1WriterHttpChunked@OpenHome@@UAE@XZ 004340b0 f i libohNetCore:Http.obj
 0001:00033120       ??1?$Sws@$0BHHA@@OpenHome@@UAE@XZ 00434120 f i libohNetCore:Http.obj
 0001:00033150       ??1?$Bws@$0BA@@OpenHome@@UAE@XZ 00434150 f i libohNetCore:Http.obj
 0001:00033180       ??0?$vector@PAVIHttpHeader@OpenHome@@V?$allocator@PAVIHttpHeader@OpenHome@@@std@@@std@@QAE@XZ 00434180 f i libohNetCore:Http.obj
 0001:000331c0       ?push_back@?$vector@PAVIHttpHeader@OpenHome@@V?$allocator@PAVIHttpHeader@OpenHome@@@std@@@std@@QAEX$$QAPAVIHttpHeader@OpenHome@@@Z 004341c0 f i libohNetCore:Http.obj
 0001:000332e0       ?size@?$vector@PAVIHttpHeader@OpenHome@@V?$allocator@PAVIHttpHeader@OpenHome@@@std@@@std@@QBEIXZ 004342e0 f i libohNetCore:Http.obj
 0001:00033310       ??A?$vector@PAVIHttpHeader@OpenHome@@V?$allocator@PAVIHttpHeader@OpenHome@@@std@@@std@@QAEAAPAVIHttpHeader@OpenHome@@I@Z 00434310 f i libohNetCore:Http.obj
 0001:000333b0       ??0?$vector@PBVBrx@OpenHome@@V?$allocator@PBVBrx@OpenHome@@@std@@@std@@QAE@XZ 004343b0 f i libohNetCore:Http.obj
 0001:000333f0       ?push_back@?$vector@PBVBrx@OpenHome@@V?$allocator@PBVBrx@OpenHome@@@std@@@std@@QAEX$$QAPBVBrx@OpenHome@@@Z 004343f0 f i libohNetCore:Http.obj
 0001:00033510       ?size@?$vector@PBVBrx@OpenHome@@V?$allocator@PBVBrx@OpenHome@@@std@@@std@@QBEIXZ 00434510 f i libohNetCore:Http.obj
 0001:00033540       ??A?$vector@PBVBrx@OpenHome@@V?$allocator@PBVBrx@OpenHome@@@std@@@std@@QAEAAPBVBrx@OpenHome@@I@Z 00434540 f i libohNetCore:Http.obj
 0001:000335e0       ??0?$Sws@$0BHHA@@OpenHome@@QAE@AAVIWriter@1@@Z 004345e0 f i libohNetCore:Http.obj
 0001:00033630       ?Ptr@?$Sws@$0BHHA@@OpenHome@@EAEPAEXZ 00434630 f i libohNetCore:Http.obj
 0001:00033650       ??_G?$Sws@$0BHHA@@OpenHome@@UAEPAXI@Z 00434650 f i libohNetCore:Http.obj
 0001:00033650       ??_E?$Sws@$0BHHA@@OpenHome@@UAEPAXI@Z 00434650 f i libohNetCore:Http.obj
 0001:00033690       ?_Inside@?$vector@PAVIHttpHeader@OpenHome@@V?$allocator@PAVIHttpHeader@OpenHome@@@std@@@std@@IBE_NPBQAVIHttpHeader@OpenHome@@@Z 00434690 f i libohNetCore:Http.obj
 0001:000336e0       ?_Reserve@?$vector@PAVIHttpHeader@OpenHome@@V?$allocator@PAVIHttpHeader@OpenHome@@@std@@@std@@IAEXI@Z 004346e0 f i libohNetCore:Http.obj
 0001:00033760       ?_Orphan_range@?$vector@PAVIHttpHeader@OpenHome@@V?$allocator@PAVIHttpHeader@OpenHome@@@std@@@std@@IBEXPAPAVIHttpHeader@OpenHome@@0@Z 00434760 f i libohNetCore:Http.obj
 0001:00033870       ??0?$_Vector_val@PAVIHttpHeader@OpenHome@@V?$allocator@PAVIHttpHeader@OpenHome@@@std@@@std@@QAE@V?$allocator@PAVIHttpHeader@OpenHome@@@1@@Z 00434870 f i libohNetCore:Http.obj
 0001:00033990       ??0?$allocator@PAVIHttpHeader@OpenHome@@@std@@QAE@XZ 00434990 f i libohNetCore:Http.obj
 0001:000339b0       ?_Inside@?$vector@PBVBrx@OpenHome@@V?$allocator@PBVBrx@OpenHome@@@std@@@std@@IBE_NPBQBVBrx@OpenHome@@@Z 004349b0 f i libohNetCore:Http.obj
 0001:00033a00       ?_Reserve@?$vector@PBVBrx@OpenHome@@V?$allocator@PBVBrx@OpenHome@@@std@@@std@@IAEXI@Z 00434a00 f i libohNetCore:Http.obj
 0001:00033a80       ?_Orphan_range@?$vector@PBVBrx@OpenHome@@V?$allocator@PBVBrx@OpenHome@@@std@@@std@@IBEXPAPBVBrx@OpenHome@@0@Z 00434a80 f i libohNetCore:Http.obj
 0001:00033b90       ??0?$_Vector_val@PBVBrx@OpenHome@@V?$allocator@PBVBrx@OpenHome@@@std@@@std@@QAE@V?$allocator@PBVBrx@OpenHome@@@1@@Z 00434b90 f i libohNetCore:Http.obj
 0001:00033cb0       ??0?$allocator@PBVBrx@OpenHome@@@std@@QAE@XZ 00434cb0 f i libohNetCore:Http.obj
 0001:00033cd0       ?reserve@?$vector@PAVIHttpHeader@OpenHome@@V?$allocator@PAVIHttpHeader@OpenHome@@@std@@@std@@QAEXI@Z 00434cd0 f i libohNetCore:Http.obj
 0001:00033e40       ?capacity@?$vector@PAVIHttpHeader@OpenHome@@V?$allocator@PAVIHttpHeader@OpenHome@@@std@@@std@@QBEIXZ 00434e40 f i libohNetCore:Http.obj
 0001:00033e70       ?max_size@?$vector@PAVIHttpHeader@OpenHome@@V?$allocator@PAVIHttpHeader@OpenHome@@@std@@@std@@QBEIXZ 00434e70 f i libohNetCore:Http.obj
 0001:00033ea0       ?_Grow_to@?$vector@PAVIHttpHeader@OpenHome@@V?$allocator@PAVIHttpHeader@OpenHome@@@std@@@std@@IBEII@Z 00434ea0 f i libohNetCore:Http.obj
 0001:00033f20       ?_Xlen@?$vector@PAVIHttpHeader@OpenHome@@V?$allocator@PAVIHttpHeader@OpenHome@@@std@@@std@@IBEXXZ 00434f20 f i libohNetCore:Http.obj
 0001:00033f50       ??0?$allocator@PAVIHttpHeader@OpenHome@@@std@@QAE@ABV01@@Z 00434f50 f i libohNetCore:Http.obj
 0001:00033f70       ?reserve@?$vector@PBVBrx@OpenHome@@V?$allocator@PBVBrx@OpenHome@@@std@@@std@@QAEXI@Z 00434f70 f i libohNetCore:Http.obj
 0001:000340e0       ?capacity@?$vector@PBVBrx@OpenHome@@V?$allocator@PBVBrx@OpenHome@@@std@@@std@@QBEIXZ 004350e0 f i libohNetCore:Http.obj
 0001:00034110       ?max_size@?$vector@PBVBrx@OpenHome@@V?$allocator@PBVBrx@OpenHome@@@std@@@std@@QBEIXZ 00435110 f i libohNetCore:Http.obj
 0001:00034140       ?_Grow_to@?$vector@PBVBrx@OpenHome@@V?$allocator@PBVBrx@OpenHome@@@std@@@std@@IBEII@Z 00435140 f i libohNetCore:Http.obj
 0001:000341c0       ?_Xlen@?$vector@PBVBrx@OpenHome@@V?$allocator@PBVBrx@OpenHome@@@std@@@std@@IBEXXZ 004351c0 f i libohNetCore:Http.obj
 0001:000341f0       ??0?$allocator@PBVBrx@OpenHome@@@std@@QAE@ABV01@@Z 004351f0 f i libohNetCore:Http.obj
 0001:00034210       ?allocate@?$allocator@PAVIHttpHeader@OpenHome@@@std@@QAEPAPAVIHttpHeader@OpenHome@@I@Z 00435210 f i libohNetCore:Http.obj
 0001:00034240       ?max_size@?$allocator@PAVIHttpHeader@OpenHome@@@std@@QBEIXZ 00435240 f i libohNetCore:Http.obj
 0001:00034290       ?allocate@?$allocator@PBVBrx@OpenHome@@@std@@QAEPAPBVBrx@OpenHome@@I@Z 00435290 f i libohNetCore:Http.obj
 0001:000342c0       ?max_size@?$allocator@PBVBrx@OpenHome@@@std@@QBEIXZ 004352c0 f i libohNetCore:Http.obj
 0001:00034310       ??0?$Bws@$0MI@@OpenHome@@QAE@XZ 00435310 f i libohNetCore:Http.obj
 0001:00034350       ?Ptr@?$Bws@$0MI@@OpenHome@@UBEPBEXZ 00435350 f i libohNetCore:Http.obj
 0001:00034370       ??0?$Bws@$0GE@@OpenHome@@QAE@XZ 00435370 f i libohNetCore:Http.obj
 0001:000343b0       ?Ptr@?$Bws@$0GE@@OpenHome@@UBEPBEXZ 004353b0 f i libohNetCore:Http.obj
 0001:000343d0       ??0?$Bws@$0BL@@OpenHome@@QAE@XZ 004353d0 f i libohNetCore:Http.obj
 0001:00034410       ?Ptr@?$Bws@$0BL@@OpenHome@@UBEPBEXZ 00435410 f i libohNetCore:Http.obj
 0001:00034430       ??0?$Bws@$0CP@@OpenHome@@QAE@XZ 00435430 f i libohNetCore:Http.obj
 0001:00034470       ?Ptr@?$Bws@$0CP@@OpenHome@@UBEPBEXZ 00435470 f i libohNetCore:Http.obj
 0001:00034490       ??0?$Bws@$0BA@@OpenHome@@QAE@XZ 00435490 f i libohNetCore:Http.obj
 0001:000344d0       ?Ptr@?$Bws@$0BA@@OpenHome@@UBEPBEXZ 004354d0 f i libohNetCore:Http.obj
 0001:000344f0       ??$addressof@PAVIHttpHeader@OpenHome@@@std@@YGPAPAVIHttpHeader@OpenHome@@AAPAV12@@Z 004354f0 f i libohNetCore:Http.obj
 0001:00034500       ??$forward@PAVIHttpHeader@OpenHome@@@std@@YG$$QAPAVIHttpHeader@OpenHome@@AAPAV12@@Z 00435500 f i libohNetCore:Http.obj
 0001:00034510       ??$_Cons_val@V?$allocator@PAVIHttpHeader@OpenHome@@@std@@PAVIHttpHeader@OpenHome@@PAV34@@std@@YGXAAV?$allocator@PAVIHttpHeader@OpenHome@@@0@PAPAVIHttpHeader@OpenHome@@$$QAPAV23@@Z 00435510 f i libohNetCore:Http.obj
 0001:00034540       ??$addressof@PBVBrx@OpenHome@@@std@@YGPAPBVBrx@OpenHome@@AAPBV12@@Z 00435540 f i libohNetCore:Http.obj
 0001:00034550       ??$forward@PBVBrx@OpenHome@@@std@@YG$$QAPBVBrx@OpenHome@@AAPBV12@@Z 00435550 f i libohNetCore:Http.obj
 0001:00034560       ??$_Cons_val@V?$allocator@PBVBrx@OpenHome@@@std@@PBVBrx@OpenHome@@PBV34@@std@@YGXAAV?$allocator@PBVBrx@OpenHome@@@0@PAPBVBrx@OpenHome@@$$QAPBV23@@Z 00435560 f i libohNetCore:Http.obj
 0001:00034590       ??$_Umove@PAPAVIHttpHeader@OpenHome@@@?$vector@PAVIHttpHeader@OpenHome@@V?$allocator@PAVIHttpHeader@OpenHome@@@std@@@std@@IAEPAPAVIHttpHeader@OpenHome@@PAPAV23@00@Z 00435590 f i libohNetCore:Http.obj
 0001:000345d0       ??$_Umove@PAPBVBrx@OpenHome@@@?$vector@PBVBrx@OpenHome@@V?$allocator@PBVBrx@OpenHome@@@std@@@std@@IAEPAPBVBrx@OpenHome@@PAPBV23@00@Z 004355d0 f i libohNetCore:Http.obj
 0001:00034610       ??$_Allocate@PAVIHttpHeader@OpenHome@@@std@@YGPAPAVIHttpHeader@OpenHome@@IPAPAV12@@Z 00435610 f i libohNetCore:Http.obj
 0001:00034690       ??$_Allocate@PBVBrx@OpenHome@@@std@@YGPAPBVBrx@OpenHome@@IPAPBV12@@Z 00435690 f i libohNetCore:Http.obj
 0001:00034710       ??_G?$Bws@$0MI@@OpenHome@@UAEPAXI@Z 00435710 f i libohNetCore:Http.obj
 0001:00034710       ??_E?$Bws@$0MI@@OpenHome@@UAEPAXI@Z 00435710 f i libohNetCore:Http.obj
 0001:00034750       ??_G?$Bws@$0GE@@OpenHome@@UAEPAXI@Z 00435750 f i libohNetCore:Http.obj
 0001:00034750       ??_E?$Bws@$0GE@@OpenHome@@UAEPAXI@Z 00435750 f i libohNetCore:Http.obj
 0001:00034790       ??_G?$Bws@$0BL@@OpenHome@@UAEPAXI@Z 00435790 f i libohNetCore:Http.obj
 0001:00034790       ??_E?$Bws@$0BL@@OpenHome@@UAEPAXI@Z 00435790 f i libohNetCore:Http.obj
 0001:000347d0       ??_G?$Bws@$0CP@@OpenHome@@UAEPAXI@Z 004357d0 f i libohNetCore:Http.obj
 0001:000347d0       ??_E?$Bws@$0CP@@OpenHome@@UAEPAXI@Z 004357d0 f i libohNetCore:Http.obj
 0001:00034810       ??_E?$Bws@$0BA@@OpenHome@@UAEPAXI@Z 00435810 f i libohNetCore:Http.obj
 0001:00034810       ??_G?$Bws@$0BA@@OpenHome@@UAEPAXI@Z 00435810 f i libohNetCore:Http.obj
 0001:00034850       ?construct@?$allocator@PAVIHttpHeader@OpenHome@@@std@@QAEXPAPAVIHttpHeader@OpenHome@@$$QAPAV34@@Z 00435850 f i libohNetCore:Http.obj
 0001:000348f0       ?construct@?$allocator@PBVBrx@OpenHome@@@std@@QAEXPAPBVBrx@OpenHome@@$$QAPBV34@@Z 004358f0 f i libohNetCore:Http.obj
 0001:00034990       ??$_Uninitialized_move@PAPAVIHttpHeader@OpenHome@@PAPAV12@V?$allocator@PAVIHttpHeader@OpenHome@@@std@@@std@@YGPAPAVIHttpHeader@OpenHome@@PAPAV12@00AAV?$allocator@PAVIHttpHeader@OpenHome@@@0@@Z 00435990 f i libohNetCore:Http.obj
 0001:000349e0       ??$_Uninitialized_move@PAPBVBrx@OpenHome@@PAPBV12@V?$allocator@PBVBrx@OpenHome@@@std@@@std@@YGPAPBVBrx@OpenHome@@PAPBV12@00AAV?$allocator@PBVBrx@OpenHome@@@0@@Z 004359e0 f i libohNetCore:Http.obj
 0001:00034a30       ??$_Val_type@PAPAVIHttpHeader@OpenHome@@@std@@YGPAPAVIHttpHeader@OpenHome@@PAPAV12@@Z 00435a30 f i libohNetCore:Http.obj
 0001:00034a40       ??$_Uninit_move@PAVIHttpHeader@OpenHome@@PAV12@PAV12@@std@@YGPAPAVIHttpHeader@OpenHome@@PAPAV12@00AAV?$allocator@PAVIHttpHeader@OpenHome@@@0@0U_Scalar_ptr_iterator_tag@0@@Z 00435a40 f i libohNetCore:Http.obj
 0001:00034ab0       ??$_Val_type@PAPBVBrx@OpenHome@@@std@@YGPAPBVBrx@OpenHome@@PAPBV12@@Z 00435ab0 f i libohNetCore:Http.obj
 0001:00034ac0       ??$_Uninit_move@PBVBrx@OpenHome@@PBV12@PBV12@@std@@YGPAPBVBrx@OpenHome@@PAPBV12@00AAV?$allocator@PBVBrx@OpenHome@@@0@0U_Scalar_ptr_iterator_tag@0@@Z 00435ac0 f i libohNetCore:Http.obj
 0001:00034b30       ??$_Debug_range@PAPAVIHttpHeader@OpenHome@@@std@@YGXPAPAVIHttpHeader@OpenHome@@0PB_WI@Z 00435b30 f i libohNetCore:Http.obj
 0001:00034b80       ??$_Debug_pointer@PAVIHttpHeader@OpenHome@@@std@@YGXPAPAVIHttpHeader@OpenHome@@PB_WI@Z 00435b80 f i libohNetCore:Http.obj
 0001:00034bb0       ??$_Debug_range@PAPBVBrx@OpenHome@@@std@@YGXPAPBVBrx@OpenHome@@0PB_WI@Z 00435bb0 f i libohNetCore:Http.obj
 0001:00034c00       ??$_Debug_pointer@PBVBrx@OpenHome@@@std@@YGXPAPBVBrx@OpenHome@@PB_WI@Z 00435c00 f i libohNetCore:Http.obj
 0001:00034c30       ??$_Iter_cat@PAPAVIHttpHeader@OpenHome@@@std@@YG?AUrandom_access_iterator_tag@0@ABQAPAVIHttpHeader@OpenHome@@@Z 00435c30 f i libohNetCore:Http.obj
 0001:00034c90       ??$_Debug_range2@PAPAVIHttpHeader@OpenHome@@@std@@YGXPAPAVIHttpHeader@OpenHome@@0PB_WIUrandom_access_iterator_tag@0@@Z 00435c90 f i libohNetCore:Http.obj
 0001:00034cf0       ??$_Iter_cat@PAPBVBrx@OpenHome@@@std@@YG?AUrandom_access_iterator_tag@0@ABQAPBVBrx@OpenHome@@@Z 00435cf0 f i libohNetCore:Http.obj
 0001:00034d50       ??$_Debug_range2@PAPBVBrx@OpenHome@@@std@@YGXPAPBVBrx@OpenHome@@0PB_WIUrandom_access_iterator_tag@0@@Z 00435d50 f i libohNetCore:Http.obj
 0001:00034db0       ??_EWriterHttpResponse@OpenHome@@WM@AEPAXI@Z 00435db0 f i libohNetCore:Http.obj
 0001:00034dc0       ??_EWriterHttpRequest@OpenHome@@WM@AEPAXI@Z 00435dc0 f i libohNetCore:Http.obj
 0001:00034dd0       ??_E?$Sws@$0BHHA@@OpenHome@@WM@AEPAXI@Z 00435dd0 f i libohNetCore:Http.obj
 0001:00034de0       ??0HttpStatusMaker@@QAE@IVBrn@OpenHome@@@Z 00435de0 f i libohNetCore:Http.obj
 0001:00034e70       ??1HttpStatusMaker@@QAE@XZ 00435e70 f i libohNetCore:Http.obj
 0001:00034ea0       ??0HttpStatus@OpenHome@@QAE@ABV01@@Z 00435ea0 f i libohNetCore:Http.obj
 0001:00034ef0       ?UpnpDomainToCanonical@Ssdp@Net@OpenHome@@SGXABVBrx@3@AAVBwx@3@@Z 00435ef0 f   libohNetCore:Ssdp.obj
 0001:00034f80       ?CanonicalDomainToUpnp@Ssdp@Net@OpenHome@@SGXABVBrx@3@AAVBwx@3@@Z 00435f80 f   libohNetCore:Ssdp.obj
 0001:00035010       ?WriteRoot@Ssdp@Net@OpenHome@@SGXAAVIWriter@3@@Z 00436010 f   libohNetCore:Ssdp.obj
 0001:00035040       ?WriteUuid@Ssdp@Net@OpenHome@@SGXAAVIWriter@3@ABVBrx@3@@Z 00436040 f   libohNetCore:Ssdp.obj
 0001:000350a0       ?WriteDeviceType@Ssdp@Net@OpenHome@@SGXAAVIWriter@3@ABVBrx@3@1I@Z 004360a0 f   libohNetCore:Ssdp.obj
 0001:00035230       ?WriteServiceType@Ssdp@Net@OpenHome@@SGXAAVIWriter@3@ABVBrx@3@1I@Z 00436230 f   libohNetCore:Ssdp.obj
 0001:000353c0       ?WriteMethodNotify@Ssdp@Net@OpenHome@@SGXAAVIWriterHttpMethod@3@@Z 004363c0 f   libohNetCore:Ssdp.obj
 0001:00035400       ?WriteMethodMsearch@Ssdp@Net@OpenHome@@SGXAAVIWriterHttpMethod@3@@Z 00436400 f   libohNetCore:Ssdp.obj
 0001:00035440       ?WriteHost@Ssdp@Net@OpenHome@@SGXAAVIWriterHttpHeader@3@@Z 00436440 f   libohNetCore:Ssdp.obj
 0001:00035470       ?WriteMan@Ssdp@Net@OpenHome@@SGXAAVIWriterHttpHeader@3@@Z 00436470 f   libohNetCore:Ssdp.obj
 0001:000354a0       ?WriteMx@Ssdp@Net@OpenHome@@SGXAAVIWriterHttpHeader@3@I@Z 004364a0 f   libohNetCore:Ssdp.obj
 0001:00035510       ?WriteSearchTypeRoot@Ssdp@Net@OpenHome@@SGXAAVIWriterHttpHeader@3@@Z 00436510 f   libohNetCore:Ssdp.obj
 0001:00035570       ?WriteSearchTypeUuid@Ssdp@Net@OpenHome@@SGXAAVIWriterHttpHeader@3@ABVBrx@3@@Z 00436570 f   libohNetCore:Ssdp.obj
 0001:000355d0       ?WriteSearchTypeDeviceType@Ssdp@Net@OpenHome@@SGXAAVIWriterHttpHeader@3@ABVBrx@3@1I@Z 004365d0 f   libohNetCore:Ssdp.obj
 0001:00035640       ?WriteSearchTypeServiceType@Ssdp@Net@OpenHome@@SGXAAVIWriterHttpHeader@3@ABVBrx@3@1I@Z 00436640 f   libohNetCore:Ssdp.obj
 0001:000356b0       ?WriteSearchTypeAll@Ssdp@Net@OpenHome@@SGXAAVIWriterHttpHeader@3@@Z 004366b0 f   libohNetCore:Ssdp.obj
 0001:000356e0       ?WriteServer@Ssdp@Net@OpenHome@@SGXAAVIWriterHttpHeader@3@@Z 004366e0 f   libohNetCore:Ssdp.obj
 0001:00035900       ?WriteMaxAge@Ssdp@Net@OpenHome@@SGXAAVIWriterHttpHeader@3@@Z 00436900 f   libohNetCore:Ssdp.obj
 0001:000359e0       ?WriteLocation@Ssdp@Net@OpenHome@@SGXAAVIWriterHttpHeader@3@ABVBrx@3@@Z 004369e0 f   libohNetCore:Ssdp.obj
 0001:00035a50       ?WriteSubTypeAlive@Ssdp@Net@OpenHome@@SGXAAVIWriterHttpHeader@3@@Z 00436a50 f   libohNetCore:Ssdp.obj
 0001:00035a80       ?WriteSubTypeByeBye@Ssdp@Net@OpenHome@@SGXAAVIWriterHttpHeader@3@@Z 00436a80 f   libohNetCore:Ssdp.obj
 0001:00035ab0       ?WriteStatus@Ssdp@Net@OpenHome@@SGXAAVIWriterHttpStatus@3@@Z 00436ab0 f   libohNetCore:Ssdp.obj
 0001:00035ae0       ?WriteExt@Ssdp@Net@OpenHome@@SGXAAVIWriterHttpHeader@3@@Z 00436ae0 f   libohNetCore:Ssdp.obj
 0001:00035b40       ?WriteNotificationTypeRoot@Ssdp@Net@OpenHome@@SGXAAVIWriterHttpHeader@3@@Z 00436b40 f   libohNetCore:Ssdp.obj
 0001:00035ba0       ?WriteNotificationTypeUuid@Ssdp@Net@OpenHome@@SGXAAVIWriterHttpHeader@3@ABVBrx@3@@Z 00436ba0 f   libohNetCore:Ssdp.obj
 0001:00035c00       ?WriteNotificationTypeDeviceType@Ssdp@Net@OpenHome@@SGXAAVIWriterHttpHeader@3@ABVBrx@3@1I@Z 00436c00 f   libohNetCore:Ssdp.obj
 0001:00035c70       ?WriteNotificationTypeServiceType@Ssdp@Net@OpenHome@@SGXAAVIWriterHttpHeader@3@ABVBrx@3@1I@Z 00436c70 f   libohNetCore:Ssdp.obj
 0001:00035ce0       ?WriteUsnRoot@Ssdp@Net@OpenHome@@SGXAAVIWriterHttpHeader@3@ABVBrx@3@@Z 00436ce0 f   libohNetCore:Ssdp.obj
 0001:00035d70       ?WriteUsnUuid@Ssdp@Net@OpenHome@@SGXAAVIWriterHttpHeader@3@ABVBrx@3@@Z 00436d70 f   libohNetCore:Ssdp.obj
 0001:00035dd0       ?WriteUsnDeviceType@Ssdp@Net@OpenHome@@SGXAAVIWriterHttpHeader@3@ABVBrx@3@1I1@Z 00436dd0 f   libohNetCore:Ssdp.obj
 0001:00035e60       ?WriteUsnServiceType@Ssdp@Net@OpenHome@@SGXAAVIWriterHttpHeader@3@ABVBrx@3@1I1@Z 00436e60 f   libohNetCore:Ssdp.obj
 0001:00035ef0       ?WriteConfigId@Ssdp@Net@OpenHome@@SGXAAVIWriterHttpHeader@3@I@Z 00436ef0 f   libohNetCore:Ssdp.obj
 0001:00035f60       ?WriteSearchPort@Ssdp@Net@OpenHome@@SGXAAVIWriterHttpHeader@3@I@Z 00436f60 f   libohNetCore:Ssdp.obj
 0001:00035fd0       ?ParseUrnDevice@Ssdp@Net@OpenHome@@SG_NABVBrx@3@AAVBrn@3@1AAI@Z 00436fd0 f   libohNetCore:Ssdp.obj
 0001:00036000       ?ParseUrnService@Ssdp@Net@OpenHome@@SG_NABVBrx@3@AAVBrn@3@1AAI@Z 00437000 f   libohNetCore:Ssdp.obj
 0001:00036030       ?ParseUrn@Ssdp@Net@OpenHome@@CG_NABVBrx@3@0AAVBrn@3@1AAI@Z 00437030 f   libohNetCore:Ssdp.obj
 0001:00036240       ?MaxAge@SsdpHeaderCacheControl@Net@OpenHome@@QBEIXZ 00437240 f   libohNetCore:Ssdp.obj
 0001:00036290       ?Recognise@SsdpHeaderCacheControl@Net@OpenHome@@EAE_NABVBrx@3@@Z 00437290 f   libohNetCore:Ssdp.obj
 0001:000362c0       ?Process@SsdpHeaderCacheControl@Net@OpenHome@@EAEXABVBrx@3@@Z 004372c0 f   libohNetCore:Ssdp.obj
 0001:000364b0       ?Recognise@SsdpHeaderServer@Net@OpenHome@@EAE_NABVBrx@3@@Z 004374b0 f   libohNetCore:Ssdp.obj
 0001:000364e0       ?Process@SsdpHeaderServer@Net@OpenHome@@EAEXABVBrx@3@@Z 004374e0 f   libohNetCore:Ssdp.obj
 0001:00036510       ?Target@SsdpHeaderSt@Net@OpenHome@@QBE?AW4ESsdpTarget@23@XZ 00437510 f   libohNetCore:Ssdp.obj
 0001:00036530       ?Uuid@SsdpHeaderSt@Net@OpenHome@@QBEABVBrx@3@XZ 00437530 f   libohNetCore:Ssdp.obj
 0001:00036550       ?Domain@SsdpHeaderSt@Net@OpenHome@@QBEABVBrx@3@XZ 00437550 f   libohNetCore:Ssdp.obj
 0001:00036570       ?Type@SsdpHeaderSt@Net@OpenHome@@QBEABVBrx@3@XZ 00437570 f   libohNetCore:Ssdp.obj
 0001:00036590       ?Version@SsdpHeaderSt@Net@OpenHome@@QBE?BIXZ 00437590 f   libohNetCore:Ssdp.obj
 0001:000365b0       ?Recognise@SsdpHeaderSt@Net@OpenHome@@EAE_NABVBrx@3@@Z 004375b0 f   libohNetCore:Ssdp.obj
 0001:000365e0       ?Process@SsdpHeaderSt@Net@OpenHome@@EAEXABVBrx@3@@Z 004375e0 f   libohNetCore:Ssdp.obj
 0001:00036be0       ?Target@SsdpHeaderNt@Net@OpenHome@@QBE?AW4ESsdpTarget@23@XZ 00437be0 f   libohNetCore:Ssdp.obj
 0001:00036c00       ?Uuid@SsdpHeaderNt@Net@OpenHome@@QBEABVBrx@3@XZ 00437c00 f   libohNetCore:Ssdp.obj
 0001:00036c20       ?Domain@SsdpHeaderNt@Net@OpenHome@@QBEABVBrx@3@XZ 00437c20 f   libohNetCore:Ssdp.obj
 0001:00036c40       ?Type@SsdpHeaderNt@Net@OpenHome@@QBEABVBrx@3@XZ 00437c40 f   libohNetCore:Ssdp.obj
 0001:00036c60       ?Version@SsdpHeaderNt@Net@OpenHome@@QBE?BIXZ 00437c60 f   libohNetCore:Ssdp.obj
 0001:00036c80       ?Recognise@SsdpHeaderNt@Net@OpenHome@@EAE_NABVBrx@3@@Z 00437c80 f   libohNetCore:Ssdp.obj
 0001:00036cb0       ?Process@SsdpHeaderNt@Net@OpenHome@@EAEXABVBrx@3@@Z 00437cb0 f   libohNetCore:Ssdp.obj
 0001:000372b0       ?Target@SsdpHeaderUsn@Net@OpenHome@@QBE?AW4ESsdpTarget@23@XZ 004382b0 f   libohNetCore:Ssdp.obj
 0001:000372d0       ?Uuid@SsdpHeaderUsn@Net@OpenHome@@QBEABVBrx@3@XZ 004382d0 f   libohNetCore:Ssdp.obj
 0001:000372f0       ?Domain@SsdpHeaderUsn@Net@OpenHome@@QBEABVBrx@3@XZ 004382f0 f   libohNetCore:Ssdp.obj
 0001:00037310       ?Type@SsdpHeaderUsn@Net@OpenHome@@QBEABVBrx@3@XZ 00438310 f   libohNetCore:Ssdp.obj
 0001:00037330       ?Version@SsdpHeaderUsn@Net@OpenHome@@QBE?BIXZ 00438330 f   libohNetCore:Ssdp.obj
 0001:00037350       ?Recognise@SsdpHeaderUsn@Net@OpenHome@@EAE_NABVBrx@3@@Z 00438350 f   libohNetCore:Ssdp.obj
 0001:00037380       ?Process@SsdpHeaderUsn@Net@OpenHome@@EAEXABVBrx@3@@Z 00438380 f   libohNetCore:Ssdp.obj
 0001:00037bb0       ?Recognise@SsdpHeaderHost@Net@OpenHome@@EAE_NABVBrx@3@@Z 00438bb0 f   libohNetCore:Ssdp.obj
 0001:00037be0       ?Process@SsdpHeaderHost@Net@OpenHome@@EAEXABVBrx@3@@Z 00438be0 f   libohNetCore:Ssdp.obj
 0001:00037cd0       ?Recognise@SsdpHeaderMan@Net@OpenHome@@EAE_NABVBrx@3@@Z 00438cd0 f   libohNetCore:Ssdp.obj
 0001:00037d00       ?Process@SsdpHeaderMan@Net@OpenHome@@EAEXABVBrx@3@@Z 00438d00 f   libohNetCore:Ssdp.obj
 0001:00037de0       ?Mx@SsdpHeaderMx@Net@OpenHome@@QBEIXZ 00438de0 f   libohNetCore:Ssdp.obj
 0001:00037e30       ?Recognise@SsdpHeaderMx@Net@OpenHome@@EAE_NABVBrx@3@@Z 00438e30 f   libohNetCore:Ssdp.obj
 0001:00037e60       ?Process@SsdpHeaderMx@Net@OpenHome@@EAEXABVBrx@3@@Z 00438e60 f   libohNetCore:Ssdp.obj
 0001:00037f50       ?Alive@SsdpHeaderNts@Net@OpenHome@@QBE_NXZ 00438f50 f   libohNetCore:Ssdp.obj
 0001:00037f70       ?Recognise@SsdpHeaderNts@Net@OpenHome@@EAE_NABVBrx@3@@Z 00438f70 f   libohNetCore:Ssdp.obj
 0001:00037fa0       ?Process@SsdpHeaderNts@Net@OpenHome@@EAEXABVBrx@3@@Z 00438fa0 f   libohNetCore:Ssdp.obj
 0001:000380a0       ?Recognise@SsdpHeaderExt@Net@OpenHome@@EAE_NABVBrx@3@@Z 004390a0 f   libohNetCore:Ssdp.obj
 0001:000380d0       ?Process@SsdpHeaderExt@Net@OpenHome@@EAEXABVBrx@3@@Z 004390d0 f   libohNetCore:Ssdp.obj
 0001:000381b0       ??0SsdpWriterMsearchRequest@Net@OpenHome@@QAE@AAVIWriter@2@@Z 004391b0 f   libohNetCore:Ssdp.obj
 0001:000381e0       ?MsearchRoot@SsdpWriterMsearchRequest@Net@OpenHome@@QAEXI@Z 004391e0 f   libohNetCore:Ssdp.obj
 0001:00038230       ?MsearchUuid@SsdpWriterMsearchRequest@Net@OpenHome@@QAEXABVBrx@3@I@Z 00439230 f   libohNetCore:Ssdp.obj
 0001:00038280       ?MsearchDeviceType@SsdpWriterMsearchRequest@Net@OpenHome@@QAEXABVBrx@3@0II@Z 00439280 f   libohNetCore:Ssdp.obj
 0001:000382e0       ?MsearchServiceType@SsdpWriterMsearchRequest@Net@OpenHome@@QAEXABVBrx@3@0II@Z 004392e0 f   libohNetCore:Ssdp.obj
 0001:00038340       ?MsearchAll@SsdpWriterMsearchRequest@Net@OpenHome@@QAEXI@Z 00439340 f   libohNetCore:Ssdp.obj
 0001:00038390       ?Msearch@SsdpWriterMsearchRequest@Net@OpenHome@@AAEXI@Z 00439390 f   libohNetCore:Ssdp.obj
 0001:00038430       ??9Brx@OpenHome@@QBE_NABV01@@Z 00439430 f i libohNetCore:Ssdp.obj
 0001:00038470       ??0Sxx@OpenHome@@IAE@I@Z   00439470 f   libohNetCore:Stream.obj
 0001:000384c0       ??1Sxx@OpenHome@@MAE@XZ    004394c0 f   libohNetCore:Stream.obj
 0001:000384e0       ??0Srx@OpenHome@@IAE@IAAVIReaderSource@1@@Z 004394e0 f   libohNetCore:Stream.obj
 0001:00038540       ?Read@Srx@OpenHome@@UAE?AVBrn@2@I@Z 00439540 f   libohNetCore:Stream.obj
 0001:00038760       ?ReadUntil@Srx@OpenHome@@UAE?AVBrn@2@E@Z 00439760 f   libohNetCore:Stream.obj
 0001:000389f0       ?ReadFlush@Srx@OpenHome@@UAEXXZ 004399f0 f   libohNetCore:Stream.obj
 0001:00038a40       ?ReadInterrupt@Srx@OpenHome@@UAEXXZ 00439a40 f   libohNetCore:Stream.obj
 0001:00038a80       ?Snaffle@Srx@OpenHome@@QAE?AVBrn@2@XZ 00439a80 f   libohNetCore:Stream.obj
 0001:00038b80       ??0Srd@OpenHome@@QAE@IAAVIReaderSource@1@@Z 00439b80 f   libohNetCore:Stream.obj
 0001:00038c20       ?Ptr@Srd@OpenHome@@EAEPAEXZ 00439c20 f   libohNetCore:Stream.obj
 0001:00038c40       ??1Srd@OpenHome@@UAE@XZ    00439c40 f   libohNetCore:Stream.obj
 0001:00038cd0       ??0Swx@OpenHome@@IAE@IAAVIWriter@1@@Z 00439cd0 f   libohNetCore:Stream.obj
 0001:00038d30       ?Error@Swx@OpenHome@@AAEXXZ 00439d30 f   libohNetCore:Stream.obj
 0001:00038df0       ?Write@Swx@OpenHome@@UAEXE@Z 00439df0 f   libohNetCore:Stream.obj
 0001:00038f00       ?Write@Swx@OpenHome@@UAEXABVBrx@2@@Z 00439f00 f   libohNetCore:Stream.obj
 0001:00039040       ?WriteDrain@Swx@OpenHome@@AAEXXZ 0043a040 f   libohNetCore:Stream.obj
 0001:00039150       ?WriteFlush@Swx@OpenHome@@UAEXXZ 0043a150 f   libohNetCore:Stream.obj
 0001:000391a0       ??0Swd@OpenHome@@QAE@IAAVIWriter@1@@Z 0043a1a0 f   libohNetCore:Stream.obj
 0001:00039240       ?Ptr@Swd@OpenHome@@EAEPAEXZ 0043a240 f   libohNetCore:Stream.obj
 0001:00039260       ??1Swd@OpenHome@@UAE@XZ    0043a260 f   libohNetCore:Stream.obj
 0001:000392f0       ??0Swp@OpenHome@@QAE@AAVSrx@1@AAVIWriter@1@@Z 0043a2f0 f   libohNetCore:Stream.obj
 0001:00039340       ?Ptr@Swp@OpenHome@@EAEPAEXZ 0043a340 f   libohNetCore:Stream.obj
 0001:00039380       ??1Swp@OpenHome@@UAE@XZ    0043a380 f   libohNetCore:Stream.obj
 0001:000393c0       ??0ReaderBuffer@OpenHome@@QAE@XZ 0043a3c0 f   libohNetCore:Stream.obj
 0001:00039440       ?Set@ReaderBuffer@OpenHome@@QAEXABVBrx@2@@Z 0043a440 f   libohNetCore:Stream.obj
 0001:00039490       ?Read@ReaderBuffer@OpenHome@@UAE?AVBrn@2@I@Z 0043a490 f   libohNetCore:Stream.obj
 0001:000395e0       ?Bytes@ReaderBuffer@OpenHome@@QBEIXZ 0043a5e0 f   libohNetCore:Stream.obj
 0001:00039610       ?ReadRemaining@ReaderBuffer@OpenHome@@QAE?AVBrn@2@XZ 0043a610 f   libohNetCore:Stream.obj
 0001:00039700       ?ReadPartial@ReaderBuffer@OpenHome@@QAE?AVBrn@2@I@Z 0043a700 f   libohNetCore:Stream.obj
 0001:00039860       ?ReadUntil@ReaderBuffer@OpenHome@@UAE?AVBrn@2@E@Z 0043a860 f   libohNetCore:Stream.obj
 0001:000399a0       ?ReadFlush@ReaderBuffer@OpenHome@@UAEXXZ 0043a9a0 f   libohNetCore:Stream.obj
 0001:000399c0       ?ReadInterrupt@ReaderBuffer@OpenHome@@UAEXXZ 0043a9c0 f   libohNetCore:Stream.obj
 0001:000399e0       ??0WriterBuffer@OpenHome@@QAE@AAVBwx@1@@Z 0043a9e0 f   libohNetCore:Stream.obj
 0001:00039a60       ?Write@WriterBuffer@OpenHome@@UAEXE@Z 0043aa60 f   libohNetCore:Stream.obj
 0001:00039a90       ?Write@WriterBuffer@OpenHome@@UAEXABVBrx@2@@Z 0043aa90 f   libohNetCore:Stream.obj
 0001:00039ac0       ?WriteFlush@WriterBuffer@OpenHome@@UAEXXZ 0043aac0 f   libohNetCore:Stream.obj
 0001:00039ae0       ?Flush@WriterBuffer@OpenHome@@QAEXXZ 0043aae0 f   libohNetCore:Stream.obj
 0001:00039b10       ??0WriterBwh@OpenHome@@QAE@H@Z 0043ab10 f   libohNetCore:Stream.obj
 0001:00039ba0       ?TransferTo@WriterBwh@OpenHome@@QAEXAAVBwh@2@@Z 0043aba0 f   libohNetCore:Stream.obj
 0001:00039bd0       ?TransferTo@WriterBwh@OpenHome@@QAEXAAVBrh@2@@Z 0043abd0 f   libohNetCore:Stream.obj
 0001:00039c00       ?Write@WriterBwh@OpenHome@@QAEXPBD@Z 0043ac00 f   libohNetCore:Stream.obj
 0001:00039cc0       ?Write@WriterBwh@OpenHome@@UAEXE@Z 0043acc0 f   libohNetCore:Stream.obj
 0001:00039d90       ?Write@WriterBwh@OpenHome@@UAEXABVBrx@2@@Z 0043ad90 f   libohNetCore:Stream.obj
 0001:00039e30       ?WriteFlush@WriterBwh@OpenHome@@UAEXXZ 0043ae30 f   libohNetCore:Stream.obj
 0001:00039e50       ??0ReaderBinary@OpenHome@@QAE@AAVIReader@1@@Z 0043ae50 f   libohNetCore:Stream.obj
 0001:00039e90       ?Read@ReaderBinary@OpenHome@@QAE?BVBrn@2@I@Z 0043ae90 f   libohNetCore:Stream.obj
 0001:00039ef0       ?ReadUintBe@ReaderBinary@OpenHome@@QAEII@Z 0043aef0 f   libohNetCore:Stream.obj
 0001:0003a010       ?ReadIntBe@ReaderBinary@OpenHome@@QAEHI@Z 0043b010 f   libohNetCore:Stream.obj
 0001:0003a190       ?ReadUintLe@ReaderBinary@OpenHome@@QAEII@Z 0043b190 f   libohNetCore:Stream.obj
 0001:0003a2b0       ?ReadUint64Be@ReaderBinary@OpenHome@@QAE_KI@Z 0043b2b0 f   libohNetCore:Stream.obj
 0001:0003a3e0       ?ReadUint64Le@ReaderBinary@OpenHome@@QAE_KI@Z 0043b3e0 f   libohNetCore:Stream.obj
 0001:0003a500       ??0WriterBinary@OpenHome@@QAE@AAVIWriter@1@@Z 0043b500 f   libohNetCore:Stream.obj
 0001:0003a540       ?Write@WriterBinary@OpenHome@@QAEXABVBrx@2@@Z 0043b540 f   libohNetCore:Stream.obj
 0001:0003a580       ?WriteUint8@WriterBinary@OpenHome@@QAEXI@Z 0043b580 f   libohNetCore:Stream.obj
 0001:0003a5c0       ?WriteUint16Be@WriterBinary@OpenHome@@QAEXI@Z 0043b5c0 f   libohNetCore:Stream.obj
 0001:0003a620       ?WriteUint24Be@WriterBinary@OpenHome@@QAEXI@Z 0043b620 f   libohNetCore:Stream.obj
 0001:0003a6b0       ?WriteUint32Be@WriterBinary@OpenHome@@QAEXI@Z 0043b6b0 f   libohNetCore:Stream.obj
 0001:0003a760       ?WriteUint64Be@WriterBinary@OpenHome@@QAEX_K@Z 0043b760 f   libohNetCore:Stream.obj
 0001:0003a8d0       ?WriteInt8@WriterBinary@OpenHome@@QAEXH@Z 0043b8d0 f   libohNetCore:Stream.obj
 0001:0003a910       ?WriteInt16Be@WriterBinary@OpenHome@@QAEXH@Z 0043b910 f   libohNetCore:Stream.obj
 0001:0003a970       ?WriteInt24Be@WriterBinary@OpenHome@@QAEXH@Z 0043b970 f   libohNetCore:Stream.obj
 0001:0003aa00       ?WriteInt32Be@WriterBinary@OpenHome@@QAEXH@Z 0043ba00 f   libohNetCore:Stream.obj
 0001:0003aab0       ?WriteInt64Be@WriterBinary@OpenHome@@QAEX_J@Z 0043bab0 f   libohNetCore:Stream.obj
 0001:0003ac20       ??_ESxx@OpenHome@@MAEPAXI@Z 0043bc20 f i libohNetCore:Stream.obj
 0001:0003ac20       ??_GSxx@OpenHome@@MAEPAXI@Z 0043bc20 f i libohNetCore:Stream.obj
 0001:0003ac60       ??_GSrx@OpenHome@@UAEPAXI@Z 0043bc60 f i libohNetCore:Stream.obj
 0001:0003ac60       ??_ESrx@OpenHome@@UAEPAXI@Z 0043bc60 f i libohNetCore:Stream.obj
 0001:0003aca0       ??_GSrd@OpenHome@@UAEPAXI@Z 0043bca0 f i libohNetCore:Stream.obj
 0001:0003aca0       ??_ESrd@OpenHome@@UAEPAXI@Z 0043bca0 f i libohNetCore:Stream.obj
 0001:0003ace0       ??_GSwx@OpenHome@@UAEPAXI@Z 0043bce0 f i libohNetCore:Stream.obj
 0001:0003ace0       ??_ESwx@OpenHome@@UAEPAXI@Z 0043bce0 f i libohNetCore:Stream.obj
 0001:0003ad20       ??_ESwd@OpenHome@@UAEPAXI@Z 0043bd20 f i libohNetCore:Stream.obj
 0001:0003ad20       ??_GSwd@OpenHome@@UAEPAXI@Z 0043bd20 f i libohNetCore:Stream.obj
 0001:0003ad60       ??_GSwp@OpenHome@@UAEPAXI@Z 0043bd60 f i libohNetCore:Stream.obj
 0001:0003ad60       ??_ESwp@OpenHome@@UAEPAXI@Z 0043bd60 f i libohNetCore:Stream.obj
 0001:0003ada0       ??_EReaderBuffer@OpenHome@@UAEPAXI@Z 0043bda0 f i libohNetCore:Stream.obj
 0001:0003ada0       ??_GReaderBuffer@OpenHome@@UAEPAXI@Z 0043bda0 f i libohNetCore:Stream.obj
 0001:0003ade0       ??1ReaderBuffer@OpenHome@@UAE@XZ 0043bde0 f i libohNetCore:Stream.obj
 0001:0003ae50       ??_GWriterBuffer@OpenHome@@UAEPAXI@Z 0043be50 f i libohNetCore:Stream.obj
 0001:0003ae50       ??_EWriterBuffer@OpenHome@@UAEPAXI@Z 0043be50 f i libohNetCore:Stream.obj
 0001:0003ae90       ??1WriterBuffer@OpenHome@@UAE@XZ 0043be90 f i libohNetCore:Stream.obj
 0001:0003aec0       ??_GWriterBwh@OpenHome@@UAEPAXI@Z 0043bec0 f i libohNetCore:Stream.obj
 0001:0003aec0       ??_EWriterBwh@OpenHome@@UAEPAXI@Z 0043bec0 f i libohNetCore:Stream.obj
 0001:0003af00       ??1WriterBwh@OpenHome@@UAE@XZ 0043bf00 f i libohNetCore:Stream.obj
 0001:0003af70       ??_ESrx@OpenHome@@WM@AEPAXI@Z 0043bf70 f i libohNetCore:Stream.obj
 0001:0003af80       ??_ESwd@OpenHome@@WM@AEPAXI@Z 0043bf80 f i libohNetCore:Stream.obj
 0001:0003af90       ??_ESwp@OpenHome@@WM@AEPAXI@Z 0043bf90 f i libohNetCore:Stream.obj
 0001:0003afa0       ??_ESwx@OpenHome@@WM@AEPAXI@Z 0043bfa0 f i libohNetCore:Stream.obj
 0001:0003afb0       ??_ESrd@OpenHome@@WM@AEPAXI@Z 0043bfb0 f i libohNetCore:Stream.obj
 0001:0003afc0       ??0Parser@OpenHome@@QAE@XZ 0043bfc0 f   libohNetCore:Parser.obj
 0001:0003b000       ??0Parser@OpenHome@@QAE@ABVBrx@1@@Z 0043c000 f   libohNetCore:Parser.obj
 0001:0003b040       ?Set@Parser@OpenHome@@QAEXABVBrx@2@@Z 0043c040 f   libohNetCore:Parser.obj
 0001:0003b080       ?Finished@Parser@OpenHome@@QBE_NXZ 0043c080 f   libohNetCore:Parser.obj
 0001:0003b0c0       ?Restart@Parser@OpenHome@@QAEXXZ 0043c0c0 f   libohNetCore:Parser.obj
 0001:0003b0e0       ?At@Parser@OpenHome@@QAEDH@Z 0043c0e0 f   libohNetCore:Parser.obj
 0001:0003b120       ?Back@Parser@OpenHome@@QAEXI@Z 0043c120 f   libohNetCore:Parser.obj
 0001:0003b170       ?Forward@Parser@OpenHome@@QAEXI@Z 0043c170 f   libohNetCore:Parser.obj
 0001:0003b1c0       ?Remaining@Parser@OpenHome@@QAE?AVBrn@2@XZ 0043c1c0 f   libohNetCore:Parser.obj
 0001:0003b210       ?Next@Parser@OpenHome@@QAE?AVBrn@2@E@Z 0043c210 f   libohNetCore:Parser.obj
 0001:0003b390       ?Next@Parser@OpenHome@@QAE?AVBrn@2@XZ 0043c390 f   libohNetCore:Parser.obj
 0001:0003b3e0       ?NextNth@Parser@OpenHome@@QAE?AVBrn@2@IE@Z 0043c3e0 f   libohNetCore:Parser.obj
 0001:0003b460       ?NextNoTrim@Parser@OpenHome@@QAE?AVBrn@2@E@Z 0043c460 f   libohNetCore:Parser.obj
 0001:0003b560       ?NextLine@Parser@OpenHome@@QAE?AVBrn@2@XZ 0043c560 f   libohNetCore:Parser.obj
 0001:0003b700       ?NextToEnd@Parser@OpenHome@@QAE?AVBrn@2@XZ 0043c700 f   libohNetCore:Parser.obj
 0001:0003b840       ??_U@YAPAXI@Z              0043c840 f   libcpmtd:newaop.obj
 0001:0003b860       ?_Debug_message@std@@YAXPB_W0I@Z 0043c860 f   libcpmtd:stdthrow.obj
 0001:0003b890       ?_Debug_message@std@@YAXPBG0I@Z 0043c890 f   libcpmtd:stdthrow.obj
 0001:0003b8b0       ??0_Init_locks@std@@QAE@XZ 0043c8b0 f   libcpmtd:xlock.obj
 0001:0003b900       ??1_Init_locks@std@@QAE@XZ 0043c900 f   libcpmtd:xlock.obj
 0001:0003b950       ?_Init_locks_ctor@_Init_locks@std@@CAXPAV12@@Z 0043c950 f   libcpmtd:xlock.obj
 0001:0003b9a0       ?_Init_locks_dtor@_Init_locks@std@@CAXPAV12@@Z 0043c9a0 f   libcpmtd:xlock.obj
 0001:0003b9f0       ??0_Lockit@std@@QAE@XZ     0043c9f0 f   libcpmtd:xlock.obj
 0001:0003ba20       ??0_Lockit@std@@QAE@H@Z    0043ca20 f   libcpmtd:xlock.obj
 0001:0003ba60       ??1_Lockit@std@@QAE@XZ     0043ca60 f   libcpmtd:xlock.obj
 0001:0003ba90       ?_Lockit_ctor@_Lockit@std@@CAXPAV12@@Z 0043ca90 f   libcpmtd:xlock.obj
 0001:0003bab0       ?_Lockit_ctor@_Lockit@std@@CAXPAV12@H@Z 0043cab0 f   libcpmtd:xlock.obj
 0001:0003bae0       ?_Lockit_dtor@_Lockit@std@@CAXPAV12@@Z 0043cae0 f   libcpmtd:xlock.obj
 0001:0003bb00       ?_Lockit_ctor@_Lockit@std@@SAXH@Z 0043cb00 f   libcpmtd:xlock.obj
 0001:0003bb20       ?_Lockit_dtor@_Lockit@std@@SAXH@Z 0043cb20 f   libcpmtd:xlock.obj
 0001:0003bb40       ?_Xinvalid_argument@std@@YAXPBD@Z 0043cb40 f   libcpmtd:xthrow.obj
 0001:0003bb70       ??0invalid_argument@std@@QAE@PBD@Z 0043cb70 f i libcpmtd:xthrow.obj
 0001:0003bba0       ??0logic_error@std@@QAE@PBD@Z 0043cba0 f i libcpmtd:xthrow.obj
 0001:0003bbd0       ??_Glogic_error@std@@UAEPAXI@Z 0043cbd0 f i libcpmtd:xthrow.obj
 0001:0003bbd0       ??_Elogic_error@std@@UAEPAXI@Z 0043cbd0 f i libcpmtd:xthrow.obj
 0001:0003bc00       ??1logic_error@std@@UAE@XZ 0043cc00 f i libcpmtd:xthrow.obj
 0001:0003bc20       ??_Ginvalid_argument@std@@UAEPAXI@Z 0043cc20 f i libcpmtd:xthrow.obj
 0001:0003bc20       ??_Einvalid_argument@std@@UAEPAXI@Z 0043cc20 f i libcpmtd:xthrow.obj
 0001:0003bc50       ??1invalid_argument@std@@UAE@XZ 0043cc50 f i libcpmtd:xthrow.obj
 0001:0003bc70       ??0invalid_argument@std@@QAE@ABV01@@Z 0043cc70 f i libcpmtd:xthrow.obj
 0001:0003bca0       ??0logic_error@std@@QAE@ABV01@@Z 0043cca0 f i libcpmtd:xthrow.obj
 0001:0003bcd0       ?_Xlength_error@std@@YAXPBD@Z 0043ccd0 f   libcpmtd:xthrow.obj
 0001:0003bd00       ??0length_error@std@@QAE@PBD@Z 0043cd00 f i libcpmtd:xthrow.obj
 0001:0003bd30       ??_Glength_error@std@@UAEPAXI@Z 0043cd30 f i libcpmtd:xthrow.obj
 0001:0003bd30       ??_Elength_error@std@@UAEPAXI@Z 0043cd30 f i libcpmtd:xthrow.obj
 0001:0003bd60       ??1length_error@std@@UAE@XZ 0043cd60 f i libcpmtd:xthrow.obj
 0001:0003bd80       ??0length_error@std@@QAE@ABV01@@Z 0043cd80 f i libcpmtd:xthrow.obj
 0001:0003bdb0       ?_Xout_of_range@std@@YAXPBD@Z 0043cdb0 f   libcpmtd:xthrow.obj
 0001:0003bde0       ??0out_of_range@std@@QAE@PBD@Z 0043cde0 f i libcpmtd:xthrow.obj
 0001:0003be10       ??_Eout_of_range@std@@UAEPAXI@Z 0043ce10 f i libcpmtd:xthrow.obj
 0001:0003be10       ??_Gout_of_range@std@@UAEPAXI@Z 0043ce10 f i libcpmtd:xthrow.obj
 0001:0003be40       ??1out_of_range@std@@UAE@XZ 0043ce40 f i libcpmtd:xthrow.obj
 0001:0003be60       ??0out_of_range@std@@QAE@ABV01@@Z 0043ce60 f i libcpmtd:xthrow.obj
 0001:0003be90       ?_Xoverflow_error@std@@YAXPBD@Z 0043ce90 f   libcpmtd:xthrow.obj
 0001:0003bec0       ??0overflow_error@std@@QAE@PBD@Z 0043cec0 f i libcpmtd:xthrow.obj
 0001:0003bef0       ??0runtime_error@std@@QAE@PBD@Z 0043cef0 f i libcpmtd:xthrow.obj
 0001:0003bf20       ??_Gruntime_error@std@@UAEPAXI@Z 0043cf20 f i libcpmtd:xthrow.obj
 0001:0003bf20       ??_Eruntime_error@std@@UAEPAXI@Z 0043cf20 f i libcpmtd:xthrow.obj
 0001:0003bf50       ??1runtime_error@std@@UAE@XZ 0043cf50 f i libcpmtd:xthrow.obj
 0001:0003bf70       ??_Goverflow_error@std@@UAEPAXI@Z 0043cf70 f i libcpmtd:xthrow.obj
 0001:0003bf70       ??_Eoverflow_error@std@@UAEPAXI@Z 0043cf70 f i libcpmtd:xthrow.obj
 0001:0003bfa0       ??1overflow_error@std@@UAE@XZ 0043cfa0 f i libcpmtd:xthrow.obj
 0001:0003bfc0       ??0overflow_error@std@@QAE@ABV01@@Z 0043cfc0 f i libcpmtd:xthrow.obj
 0001:0003bff0       ??0runtime_error@std@@QAE@ABV01@@Z 0043cff0 f i libcpmtd:xthrow.obj
 0001:0003c020       ?_Xruntime_error@std@@YAXPBD@Z 0043d020 f   libcpmtd:xthrow.obj
 0001:0003c050       __Once                     0043d050 f   libcpmtd:xmtx.obj
 0001:0003c0b0       __Mtxinit                  0043d0b0 f   libcpmtd:xmtx.obj
 0001:0003c0d0       __Mtxdst                   0043d0d0 f   libcpmtd:xmtx.obj
 0001:0003c0f0       __Mtxlock                  0043d0f0 f   libcpmtd:xmtx.obj
 0001:0003c110       __Mtxunlock                0043d110 f   libcpmtd:xmtx.obj
 0001:0003c130       ?_JumpToContinuation@@YGXPAXPAUEHRegistrationNode@@@Z 0043d130 f   LIBCMTD:_trnsctrl_.obj
 0001:0003c170       ?_CallMemberFunction0@@YGXPAX0@Z 0043d170 f   LIBCMTD:_trnsctrl_.obj
 0001:0003c180       ?_CallMemberFunction1@@YGXPAX00@Z 0043d180 f   LIBCMTD:_trnsctrl_.obj
 0001:0003c190       ?_CallMemberFunction2@@YGXPAX00H@Z 0043d190 f   LIBCMTD:_trnsctrl_.obj
 0001:0003c1a0       ?_UnwindNestedFrames@@YGXPAUEHRegistrationNode@@PAUEHExceptionRecord@@@Z 0043d1a0 f   LIBCMTD:_trnsctrl_.obj
 0001:0003c200       ___CxxFrameHandler         0043d200 f   LIBCMTD:_trnsctrl_.obj
 0001:0003c240       ___CxxFrameHandler3        0043d240 f   LIBCMTD:_trnsctrl_.obj
 0001:0003c280       ___CxxFrameHandler2        0043d280 f   LIBCMTD:_trnsctrl_.obj
 0001:0003c2c0       ___CxxLongjmpUnwind@4      0043d2c0 f   LIBCMTD:_trnsctrl_.obj
 0001:0003c2f0       ?_CallCatchBlock2@@YAPAXPAUEHRegistrationNode@@PBU_s_FuncInfo@@PAXHK@Z 0043d2f0 f   LIBCMTD:_trnsctrl_.obj
 0001:0003c3b0       ?_CallSETranslator@@YAHPAUEHExceptionRecord@@PAUEHRegistrationNode@@PAX2PBU_s_FuncInfo@@H1@Z 0043d3b0 f   LIBCMTD:_trnsctrl_.obj
 0001:0003c550       ?_GetRangeOfTrysToCheck@@YAPBU_s_TryBlockMapEntry@@PBU_s_FuncInfo@@HHPAI1@Z 0043d550 f   LIBCMTD:_trnsctrl_.obj
 0001:0003c5d0       __CreateFrameInfo          0043d5d0 f   LIBCMTD:_trnsctrl_.obj
 0001:0003c600       __IsExceptionObjectToBeDestroyed 0043d600 f   LIBCMTD:_trnsctrl_.obj
 0001:0003c630       __FindAndUnlinkFrame       0043d630 f   LIBCMTD:_trnsctrl_.obj
 0001:0003c690       __RTC_CheckEsp             0043d690 f   LIBCMTD:_stack_.obj
 0001:0003c6c0       @_RTC_CheckStackVars@8     0043d6c0 f   LIBCMTD:_stack_.obj
 0001:0003c730       @_RTC_AllocaHelper@12      0043d730 f   LIBCMTD:_stack_.obj
 0001:0003c770       @_RTC_CheckStackVars2@12   0043d770 f   LIBCMTD:_stack_.obj
 0001:0003c850       @__security_check_cookie@4 0043d850 f   LIBCMTD:secchk.obj
 0001:0003c860       __RTC_InitBase             0043d860 f   LIBCMTD:_init_.obj
 0001:0003c890       __RTC_Shutdown             0043d890 f   LIBCMTD:_init_.obj
 0001:0003c8b0       ?name@type_info@@QBEPBDPAU__type_info_node@@@Z 0043d8b0 f   LIBCMTD:typinfo.obj
 0001:0003c8d0       ??1type_info@@UAE@XZ       0043d8d0 f   LIBCMTD:typinfo.obj
 0001:0003c900       ??_Etype_info@@UAEPAXI@Z   0043d900 f i LIBCMTD:typinfo.obj
 0001:0003c900       ??_Gtype_info@@UAEPAXI@Z   0043d900 f i LIBCMTD:typinfo.obj
 0001:0003c930       ?_name_internal_method@type_info@@QBEPBDPAU__type_info_node@@@Z 0043d930 f   LIBCMTD:typinfo.obj
 0001:0003c950       ?_type_info_dtor_internal_method@type_info@@QAEXXZ 0043d950 f   LIBCMTD:typinfo.obj
 0001:0003c970       ??8type_info@@QBE_NABV0@@Z 0043d970 f   LIBCMTD:typinfo.obj
 0001:0003c9a0       ??9type_info@@QBE_NABV0@@Z 0043d9a0 f   LIBCMTD:typinfo.obj
 0001:0003c9d0       ?before@type_info@@QBEHABV1@@Z 0043d9d0 f   LIBCMTD:typinfo.obj
 0001:0003ca00       ?raw_name@type_info@@QBEPBDXZ 0043da00 f   LIBCMTD:typinfo.obj
 0001:0003ca20       ??0type_info@@AAE@ABV0@@Z  0043da20 f   LIBCMTD:typinfo.obj
 0001:0003ca40       ??4type_info@@AAEAAV0@ABV0@@Z 0043da40 f   LIBCMTD:typinfo.obj
 0001:0003ca60       ??3@YAXPAX@Z               0043da60 f   LIBCMTD:dbgdel.obj
 0001:0003cb50       ??2@YAPAXI@Z               0043db50 f   LIBCMTD:new.obj
 0001:0003cbd0       ??_V@YAXPAX@Z              0043dbd0 f   LIBCMTD:delete2.obj
 0001:0003cbf0       _memcpy                    0043dbf0 f   LIBCMTD:memcpy.obj
 0001:0003cf60       _mainCRTStartup            0043df60 f   LIBCMTD:crt0.obj
 0001:0003d1c0       __CxxThrowException@8      0043e1c0 f   LIBCMTD:throw.obj
 0001:0003d220       __purecall                 0043e220 f   LIBCMTD:purevirt.obj
 0001:0003d260       __set_purecall_handler     0043e260 f   LIBCMTD:purevirt.obj
 0001:0003d2a0       __get_purecall_handler     0043e2a0 f   LIBCMTD:purevirt.obj
 0001:0003d2c0       __wassert                  0043e2c0 f   LIBCMTD:wassert.obj
 0001:0003de50       __invoke_watson_if_error   0043ee50 f i LIBCMTD:wassert.obj
 0001:0003dec0       _abort                     0043eec0 f   LIBCMTD:abort.obj
 0001:0003df20       __set_abort_behavior       0043ef20 f   LIBCMTD:abort.obj
 0001:0003df50       _atol                      0043ef50 f   LIBCMTD:atox.obj
 0001:0003df70       __atol_l                   0043ef70 f   LIBCMTD:atox.obj
 0001:0003df90       _atoi                      0043ef90 f   LIBCMTD:atox.obj
 0001:0003dfb0       __atoi_l                   0043efb0 f   LIBCMTD:atox.obj
 0001:0003dfd0       __atoi64                   0043efd0 f   LIBCMTD:atox.obj
 0001:0003dff0       __atoi64_l                 0043eff0 f   LIBCMTD:atox.obj
 0001:0003e010       _getenv                    0043f010 f   LIBCMTD:getenv.obj
 0001:0003e160       __getenv_helper_nolock     0043f160 f   LIBCMTD:getenv.obj
 0001:0003e280       _getenv_s                  0043f280 f   LIBCMTD:getenv.obj
 0001:0003e4b0       __dupenv_s                 0043f4b0 f   LIBCMTD:getenv.obj
 0001:0003e4e0       __dupenv_s_dbg             0043f4e0 f   LIBCMTD:getenv.obj
 0001:0003e730       ??0exception@std@@QAE@XZ   0043f730 f   LIBCMTD:stdexcpt.obj
 0001:0003e760       ??_Eexception@std@@UAEPAXI@Z 0043f760 f i LIBCMTD:stdexcpt.obj
 0001:0003e760       ??_Gexception@std@@UAEPAXI@Z 0043f760 f i LIBCMTD:stdexcpt.obj
 0001:0003e790       ??0exception@std@@QAE@ABQBD@Z 0043f790 f   LIBCMTD:stdexcpt.obj
 0001:0003e7d0       ??0exception@std@@QAE@ABQBDH@Z 0043f7d0 f   LIBCMTD:stdexcpt.obj
 0001:0003e800       ??0exception@std@@QAE@ABV01@@Z 0043f800 f   LIBCMTD:stdexcpt.obj
 0001:0003e840       ??4exception@std@@QAEAAV01@ABV01@@Z 0043f840 f   LIBCMTD:stdexcpt.obj
 0001:0003e890       ??1exception@std@@UAE@XZ   0043f890 f   LIBCMTD:stdexcpt.obj
 0001:0003e8b0       ?what@exception@std@@UBEPBDXZ 0043f8b0 f   LIBCMTD:stdexcpt.obj
 0001:0003e8e0       ?_Copy_str@exception@std@@AAEXPBD@Z 0043f8e0 f   LIBCMTD:stdexcpt.obj
 0001:0003e950       ?_Tidy@exception@std@@AAEXXZ 0043f950 f   LIBCMTD:stdexcpt.obj
 0001:0003e990       ??0bad_cast@std@@QAE@PBD@Z 0043f990 f   LIBCMTD:stdexcpt.obj
 0001:0003e9c0       ??_Gbad_cast@std@@UAEPAXI@Z 0043f9c0 f i LIBCMTD:stdexcpt.obj
 0001:0003e9c0       ??_Ebad_cast@std@@UAEPAXI@Z 0043f9c0 f i LIBCMTD:stdexcpt.obj
 0001:0003e9f0       ??0bad_cast@std@@QAE@ABV01@@Z 0043f9f0 f   LIBCMTD:stdexcpt.obj
 0001:0003ea20       ??1bad_cast@std@@UAE@XZ    0043fa20 f   LIBCMTD:stdexcpt.obj
 0001:0003ea40       ??0bad_typeid@std@@QAE@PBD@Z 0043fa40 f   LIBCMTD:stdexcpt.obj
 0001:0003ea70       ??_Ebad_typeid@std@@UAEPAXI@Z 0043fa70 f i LIBCMTD:stdexcpt.obj
 0001:0003ea70       ??_Gbad_typeid@std@@UAEPAXI@Z 0043fa70 f i LIBCMTD:stdexcpt.obj
 0001:0003eaa0       ??0bad_typeid@std@@QAE@ABV01@@Z 0043faa0 f   LIBCMTD:stdexcpt.obj
 0001:0003ead0       ??1bad_typeid@std@@UAE@XZ  0043fad0 f   LIBCMTD:stdexcpt.obj
 0001:0003eaf0       ??0__non_rtti_object@std@@QAE@PBD@Z 0043faf0 f   LIBCMTD:stdexcpt.obj
 0001:0003eb20       ??_G__non_rtti_object@std@@UAEPAXI@Z 0043fb20 f i LIBCMTD:stdexcpt.obj
 0001:0003eb20       ??_E__non_rtti_object@std@@UAEPAXI@Z 0043fb20 f i LIBCMTD:stdexcpt.obj
 0001:0003eb50       ??0__non_rtti_object@std@@QAE@ABV01@@Z 0043fb50 f   LIBCMTD:stdexcpt.obj
 0001:0003eb80       ??1__non_rtti_object@std@@UAE@XZ 0043fb80 f   LIBCMTD:stdexcpt.obj
 0001:0003eba0       _strncpy                   0043fba0 f   LIBCMTD:strncpy.obj
 0001:0003ecd0       ??_M@YGXPAXIHP6EX0@Z@Z     0043fcd0 f   LIBCMTD:ehvecdtr.obj
 0001:0003ed90       ?__ArrayUnwind@@YGXPAXIHP6EX0@Z@Z 0043fd90 f   LIBCMTD:ehvecdtr.obj
 0001:0003ee50       _strlen                    0043fe50 f   LIBCMTD:strlen.obj
 0001:0003eee0       __snprintf                 0043fee0 f   LIBCMTD:snprintf.obj
 0001:0003f0b0       __snprintf_l               004400b0 f   LIBCMTD:snprintf.obj
 0001:0003f0e0       _fflush                    004400e0 f   LIBCMTD:fflush.obj
 0001:0003f180       __fflush_nolock            00440180 f   LIBCMTD:fflush.obj
 0001:0003f1e0       __flush                    004401e0 f   LIBCMTD:fflush.obj
 0001:0003f2a0       __flushall                 004402a0 f   LIBCMTD:fflush.obj
 0001:0003f470       _fprintf                   00440470 f   LIBCMTD:fprintf.obj
 0001:0003f710       __fprintf_l                00440710 f   LIBCMTD:fprintf.obj
 0001:0003f740       __fprintf_s_l              00440740 f   LIBCMTD:fprintf.obj
 0001:0003f770       _fprintf_s                 00440770 f   LIBCMTD:fprintf.obj
 0001:0003f7a0       __fprintf_p_l              004407a0 f   LIBCMTD:fprintf.obj
 0001:0003f7d0       __fprintf_p                004407d0 f   LIBCMTD:fprintf.obj
 0001:0003f800       ___iob_func                00440800 f   LIBCMTD:_file.obj
 0001:0003f810       ___initstdio               00440810 f   LIBCMTD:_file.obj
 0001:0003f960       ___endstdio                00440960 f   LIBCMTD:_file.obj
 0001:0003f990       __lock_file                00440990 f   LIBCMTD:_file.obj
 0001:0003f9f0       __lock_file2               004409f0 f   LIBCMTD:_file.obj
 0001:0003fa30       __unlock_file              00440a30 f   LIBCMTD:_file.obj
 0001:0003fa90       __unlock_file2             00440a90 f   LIBCMTD:_file.obj
 0001:0003fad0       __initp_misc_invarg        00440ad0 f   LIBCMTD:invarg.obj
 0001:0003fae0       __invalid_parameter        00440ae0 f   LIBCMTD:invarg.obj
 0001:0003fb40       __invoke_watson            00440b40 f   LIBCMTD:invarg.obj
 0001:0003fb70       __call_reportfault         00440b70 f   LIBCMTD:invarg.obj
 0001:0003fcc0       __set_invalid_parameter_handler 00440cc0 f   LIBCMTD:invarg.obj
 0001:0003fd00       __get_invalid_parameter_handler 00440d00 f   LIBCMTD:invarg.obj
 0001:0003fd30       ?_invalid_parameter@@YAXPBG00II@Z 00440d30 f   LIBCMTD:invarg.obj
 0001:0003fd60       ?_invoke_watson@@YAXPBG00II@Z 00440d60 f   LIBCMTD:invarg.obj
 0001:0003fd90       __CrtSetReportHookW2       00440d90 f   LIBCMTD:dbgrptw.obj
 0001:000400c0       __CrtDbgReportW            004410c0 f   LIBCMTD:dbgrptw.obj
 0001:00040100       __CrtDbgReportWV           00441100 f i LIBCMTD:dbgrptw.obj
 0001:00040130       ___crtMessageWindowW       00441130 f   LIBCMTD:dbgrptw.obj
 0001:00040530       __invoke_watson_if_oneof   00441530 f i LIBCMTD:dbgrptw.obj
 0001:00040570       ?_CrtDbgReportW@@YAHHPBGH00ZZ 00441570 f   LIBCMTD:dbgrptw.obj
 0001:000405b0       _strcmp                    004415b0 f   LIBCMTD:strcmp.obj
 0001:00040640       __allshl                   00441640 f   LIBCMTD:llshl.obj
 0001:00040660       _free                      00441660 f   LIBCMTD:dbgfree.obj
 0001:00040680       __aulldiv                  00441680 f   LIBCMTD:ulldiv.obj
 0001:000406f0       _memset                    004416f0 f   LIBCMTD:memset.obj
 0001:00040770       _calloc                    00441770 f   LIBCMTD:dbgcalloc.obj
 0001:000407a0       _malloc                    004417a0 f   LIBCMTD:dbgmalloc.obj
 0001:000407d0       _memcmp                    004417d0 f   LIBCMTD:memcmp.obj
 0001:00041240       _memmove                   00442240 f   LIBCMTD:memmove.obj
 0001:000415b0       __onexit                   004425b0 f   LIBCMTD:onexit.obj
 0001:00041780       _atexit                    00442780 f   LIBCMTD:onexit.obj
 0001:000417a0       ___onexitinit              004427a0 f   LIBCMTD:onexit.obj
 0001:00041800       __allrem                   00442800 f   LIBCMTD:llrem.obj
 0001:000418c0       __time64                   004428c0 f   LIBCMTD:time64.obj
 0001:00041940       _srand                     00442940 f   LIBCMTD:rand.obj
 0001:00041960       _rand                      00442960 f   LIBCMTD:rand.obj
 0001:000419a0       __alldiv                   004429a0 f   LIBCMTD:lldiv.obj
 0001:00041a50       __aullrem                  00442a50 f   LIBCMTD:ullrem.obj
 0001:00041ad0       __allmul                   00442ad0 f   LIBCMTD:llmul.obj
 0001:00041b10       __aullshr                  00442b10 f   LIBCMTD:ullshr.obj
 0001:00041b30       __allshr                   00442b30 f   LIBCMTD:llshr.obj
 0001:00041b60       ___InternalCxxFrameHandler 00442b60 f   LIBCMTD:frame.obj
 0001:00042160       ??0bad_exception@std@@QAE@PBD@Z 00443160 f i LIBCMTD:frame.obj
 0001:00042190       ??1bad_exception@std@@UAE@XZ 00443190 f i LIBCMTD:frame.obj
 0001:000421b0       ??_Ebad_exception@std@@UAEPAXI@Z 004431b0 f i LIBCMTD:frame.obj
 0001:000421b0       ??_Gbad_exception@std@@UAEPAXI@Z 004431b0 f i LIBCMTD:frame.obj
 0001:000421e0       ??0bad_exception@std@@QAE@ABV01@@Z 004431e0 f i LIBCMTD:frame.obj
 0001:000423a0       ___TypeMatch               004433a0 f   LIBCMTD:frame.obj
 0001:00042450       ___FrameUnwindFilter       00443450 f   LIBCMTD:frame.obj
 0001:000424d0       ___FrameUnwindToState      004434d0 f   LIBCMTD:frame.obj
 0001:00042a10       ___BuildCatchObjectHelper  00443a10 f   LIBCMTD:frame.obj
 0001:00042c80       ___BuildCatchObject        00443c80 f   LIBCMTD:frame.obj
 0001:00042d90       ___DestructExceptionObject 00443d90 f   LIBCMTD:frame.obj
 0001:00042e40       ___AdjustPointer           00443e40 f   LIBCMTD:frame.obj
 0001:00042e90       ?__uncaught_exception@@YA_NXZ 00443e90 f   LIBCMTD:frame.obj
 0001:00042eb0       ___CxxExceptionFilter      00443eb0 f   LIBCMTD:frame.obj
 0001:000430b0       ___CxxRegisterExceptionObject 004440b0 f   LIBCMTD:frame.obj
 0001:000431e0       ___CxxDetectRethrow        004441e0 f   LIBCMTD:frame.obj
 0001:00043270       ___CxxUnregisterExceptionObject 00444270 f   LIBCMTD:frame.obj
 0001:000433f0       ___CxxQueryExceptionSize   004443f0 f   LIBCMTD:frame.obj
 0001:00043400       ___CxxCallUnwindDtor       00444400 f   LIBCMTD:frame.obj
 0001:00043480       ___CxxCallUnwindDelDtor    00444480 f   LIBCMTD:frame.obj
 0001:00043500       ___CxxCallUnwindStdDelDtor 00444500 f   LIBCMTD:frame.obj
 0001:00043580       ___CxxCallUnwindVecDtor    00444580 f   LIBCMTD:frame.obj
 0001:000437b0       ?_is_exception_typeof@@YAHABVtype_info@@PAU_EXCEPTION_POINTERS@@@Z 004447b0 f   LIBCMTD:frame.obj
 0001:00043890       __CallSettingFrame@12      00444890 f   LIBCMTD:lowhelpr.obj
 0001:000438b7       __NLG_Return               004448b7     LIBCMTD:lowhelpr.obj
 0001:000438e0       __encoded_null             004448e0 f   LIBCMTD:tidtable.obj
 0001:000438f0       ___crtTlsAlloc@4           004448f0 f   LIBCMTD:tidtable.obj
 0001:00043900       ___fls_getvalue@4          00444900 f   LIBCMTD:tidtable.obj
 0001:00043920       ___get_flsindex            00444920 f   LIBCMTD:tidtable.obj
 0001:00043930       ___set_flsgetvalue         00444930 f   LIBCMTD:tidtable.obj
 0001:00043980       ___fls_setvalue@8          00444980 f   LIBCMTD:tidtable.obj
 0001:000439a0       __mtinit                   004449a0 f   LIBCMTD:tidtable.obj
 0001:00043ba0       __mtterm                   00444ba0 f   LIBCMTD:tidtable.obj
 0001:00043c00       __initptd                  00444c00 f   LIBCMTD:tidtable.obj
 0001:00043d30       __getptd_noexit            00444d30 f   LIBCMTD:tidtable.obj
 0001:00043df0       __getptd                   00444df0 f   LIBCMTD:tidtable.obj
 0001:00043e20       __freefls@4                00444e20 f   LIBCMTD:tidtable.obj
 0001:00044030       __freeptd                  00445030 f   LIBCMTD:tidtable.obj
 0001:000440b0       ___threadid                004450b0 f   LIBCMTD:tidtable.obj
 0001:000440c0       ___threadhandle            004450c0 f   LIBCMTD:tidtable.obj
 0001:000440d0       __initp_eh_hooks           004450d0 f   LIBCMTD:hooks.obj
 0001:000440f0       ?terminate@@YAXXZ          004450f0 f   LIBCMTD:hooks.obj
 0001:00044170       ?unexpected@@YAXXZ         00445170 f   LIBCMTD:hooks.obj
 0001:000441a0       ?_inconsistency@@YAXXZ     004451a0 f   LIBCMTD:hooks.obj
 0001:00044230       ?_RTC_Failure@@YAXPAXH@Z   00445230 f   LIBCMTD:_error_.obj
 0001:000445e0       ?_RTC_StackFailure@@YAXPAXPBD@Z 004455e0 f   LIBCMTD:_error_.obj
 0001:000446e0       ?_RTC_AllocaFailure@@YAXPAXPAU_RTC_ALLOCA_NODE@@H@Z 004456e0 f   LIBCMTD:_error_.obj
 0001:00044890       __RTC_UninitUse            00445890 f   LIBCMTD:_error_.obj
 0001:00044980       ___report_gsfailure        00445980 f   LIBCMTD:gs_report.obj
 0001:00044a90       __RTC_NumErrors            00445a90 f   LIBCMTD:_userapi_.obj
 0001:00044aa0       __RTC_GetErrDesc           00445aa0 f   LIBCMTD:_userapi_.obj
 0001:00044ac0       __RTC_SetErrorType         00445ac0 f   LIBCMTD:_userapi_.obj
 0001:00044af0       __RTC_SetErrorFunc         00445af0 f   LIBCMTD:_userapi_.obj
 0001:00044b10       __RTC_SetErrorFuncW        00445b10 f   LIBCMTD:_userapi_.obj
 0001:00044b30       ?_RTC_GetErrorFunc@@YAP6AHHPBDH00ZZPBX@Z 00445b30 f   LIBCMTD:_userapi_.obj
 0001:00044b40       ?_RTC_GetErrorFuncW@@YAP6AHHPB_WH00ZZPBX@Z 00445b40 f   LIBCMTD:_userapi_.obj
 0001:00044b50       __chkesp                   00445b50 f   LIBCMTD:chkesp.obj
 0001:00044b90       __CRT_RTC_INIT             00445b90 f   LIBCMTD:chkesp.obj
 0001:00044ba0       __CRT_RTC_INITW            00445ba0 f   LIBCMTD:chkesp.obj
 0001:00044bb0       ?_Type_info_dtor@type_info@@CAXPAV1@@Z 00445bb0 f   LIBCMTD:typname.obj
 0001:00044cc0       ?_Name_base@type_info@@CAPBDPBV1@PAU__type_info_node@@@Z 00445cc0 f   LIBCMTD:typname.obj
 0001:00044e70       ?_Type_info_dtor_internal@type_info@@CAXPAV1@@Z 00445e70 f   LIBCMTD:typname.obj
 0001:00044f80       ___unDNameHelper           00445f80 f   LIBCMTD:typname.obj
 0001:00044fc0       ?_Name_base_internal@type_info@@CAPBDPBV1@PAU__type_info_node@@@Z 00445fc0 f   LIBCMTD:typname.obj
 0001:00045180       ___clean_type_info_names_internal 00446180 f   LIBCMTD:typname.obj
 0001:00045240       __mtinitlocks              00446240 f   LIBCMTD:mlock.obj
 0001:000452d0       __mtdeletelocks            004462d0 f   LIBCMTD:mlock.obj
 0001:00045390       __mtinitlocknum            00446390 f   LIBCMTD:mlock.obj
 0001:000454e0       __lock                     004464e0 f   LIBCMTD:mlock.obj
 0001:00045520       __unlock                   00446520 f   LIBCMTD:mlock.obj
 0001:00045540       __lockerr_exit             00446540 f   LIBCMTD:mlock.obj
 0001:00045560       __malloc_dbg               00446560 f   LIBCMTD:dbgheap.obj
 0001:00045590       __nh_malloc                00446590 f   LIBCMTD:dbgheap.obj
 0001:000455b0       __nh_malloc_dbg            004465b0 f   LIBCMTD:dbgheap.obj
 0001:00045690       __heap_alloc               00446690 f   LIBCMTD:dbgheap.obj
 0001:00045a70       __heap_alloc_dbg           00446a70 f   LIBCMTD:dbgheap.obj
 0001:00045ad0       __calloc_dbg_impl          00446ad0 f   LIBCMTD:dbgheap.obj
 0001:00045b50       __calloc_dbg               00446b50 f   LIBCMTD:dbgheap.obj
 0001:00045bb0       __recalloc                 00446bb0 f   LIBCMTD:dbgheap.obj
 0001:00045be0       __realloc_dbg              00446be0 f   LIBCMTD:dbgheap.obj
 0001:00046280       __recalloc_dbg             00447280 f   LIBCMTD:dbgheap.obj
 0001:00046330       __expand                   00447330 f   LIBCMTD:dbgheap.obj
 0001:00046360       __expand_dbg               00447360 f   LIBCMTD:dbgheap.obj
 0001:00046470       __free_nolock              00447470 f   LIBCMTD:dbgheap.obj
 0001:00046490       __free_dbg                 00447490 f   LIBCMTD:dbgheap.obj
 0001:00046510       __free_dbg_nolock          00447510 f   LIBCMTD:dbgheap.obj
 0001:000469f0       __msize                    004479f0 f   LIBCMTD:dbgheap.obj
 0001:00046a10       __msize_dbg                00447a10 f   LIBCMTD:dbgheap.obj
 0001:00046c00       __CrtSetBreakAlloc         00447c00 f   LIBCMTD:dbgheap.obj
 0001:00046c20       __CrtSetDbgBlockType       00447c20 f   LIBCMTD:dbgheap.obj
 0001:00046d10       __CrtSetAllocHook          00447d10 f   LIBCMTD:dbgheap.obj
 0001:00046d30       __CrtGetAllocHook          00447d30 f   LIBCMTD:dbgheap.obj
 0001:00046d80       __CrtCheckMemory           00447d80 f   LIBCMTD:dbgheap.obj
 0001:000471e0       __CrtSetDbgFlag            004481e0 f   LIBCMTD:dbgheap.obj
 0001:00047330       __CrtDoForAllClientObjects 00448330 f   LIBCMTD:dbgheap.obj
 0001:00047450       __CrtIsValidPointer        00448450 f   LIBCMTD:dbgheap.obj
 0001:00047460       __CrtIsValidHeapPointer    00448460 f   LIBCMTD:dbgheap.obj
 0001:000474b0       __CrtIsMemoryBlock         004484b0 f   LIBCMTD:dbgheap.obj
 0001:00047620       __CrtReportBlockType       00448620 f   LIBCMTD:dbgheap.obj
 0001:00047650       __CrtSetDumpClient         00448650 f   LIBCMTD:dbgheap.obj
 0001:00047670       __CrtGetDumpClient         00448670 f   LIBCMTD:dbgheap.obj
 0001:00047680       __CrtMemCheckpoint         00448680 f   LIBCMTD:dbgheap.obj
 0001:000478a0       __CrtMemDifference         004488a0 f   LIBCMTD:dbgheap.obj
 0001:00047ac0       __CrtMemDumpAllObjectsSince 00448ac0 f   LIBCMTD:dbgheap.obj
 0001:00047b00       ??0_LocaleUpdate@@QAE@PAUlocaleinfo_struct@@@Z 00448b00 f i LIBCMTD:dbgheap.obj
 0001:00047be0       ??1_LocaleUpdate@@QAE@XZ   00448be0 f i LIBCMTD:dbgheap.obj
 0001:00047c10       ?GetLocaleT@_LocaleUpdate@@QAEPAUlocaleinfo_struct@@XZ 00448c10 f i LIBCMTD:dbgheap.obj
 0001:000480d0       __CrtDumpMemoryLeaks       004490d0 f   LIBCMTD:dbgheap.obj
 0001:00048150       __CrtMemDumpStatistics     00449150 f   LIBCMTD:dbgheap.obj
 0001:00048260       __aligned_malloc           00449260 f   LIBCMTD:dbgheap.obj
 0001:00048280       __aligned_malloc_dbg       00449280 f   LIBCMTD:dbgheap.obj
 0001:000482b0       __aligned_realloc          004492b0 f   LIBCMTD:dbgheap.obj
 0001:000482e0       __aligned_recalloc         004492e0 f   LIBCMTD:dbgheap.obj
 0001:00048310       __aligned_realloc_dbg      00449310 f   LIBCMTD:dbgheap.obj
 0001:00048340       __aligned_recalloc_dbg     00449340 f   LIBCMTD:dbgheap.obj
 0001:00048370       __aligned_offset_malloc    00449370 f   LIBCMTD:dbgheap.obj
 0001:00048390       __aligned_offset_malloc_dbg 00449390 f   LIBCMTD:dbgheap.obj
 0001:00048550       __aligned_offset_realloc   00449550 f   LIBCMTD:dbgheap.obj
 0001:00048580       __aligned_offset_recalloc  00449580 f   LIBCMTD:dbgheap.obj
 0001:000485b0       __aligned_offset_realloc_dbg 004495b0 f   LIBCMTD:dbgheap.obj
 0001:000488a0       __aligned_offset_recalloc_dbg 004498a0 f   LIBCMTD:dbgheap.obj
 0001:00048960       __aligned_free             00449960 f   LIBCMTD:dbgheap.obj
 0001:00048980       __aligned_free_dbg         00449980 f   LIBCMTD:dbgheap.obj
 0001:00048a30       __CrtSetDebugFillThreshold 00449a30 f   LIBCMTD:dbgheap.obj
 0001:00048a50       __CrtSetCheckCount         00449a50 f   LIBCMTD:dbgheap.obj
 0001:00048a70       __CrtGetCheckCount         00449a70 f   LIBCMTD:dbgheap.obj
 0001:00048a80       __aligned_msize            00449a80 f   LIBCMTD:dbgheap.obj
 0001:00048aa0       __aligned_msize_dbg        00449aa0 f   LIBCMTD:dbgheap.obj
 0001:00048bb0       __except_handler4          00449bb0 f   LIBCMTD:chandler4.obj
 0001:00048dd0       __initp_heap_handler       00449dd0 f   LIBCMTD:handler.obj
 0001:00048de0       ?_set_new_handler@@YAP6AHI@ZP6AHI@Z@Z 00449de0 f   LIBCMTD:handler.obj
 0001:00048e20       ?_set_new_handler@@YAP6AHI@ZH@Z 00449e20 f   LIBCMTD:handler.obj
 0001:00048e60       ?_query_new_handler@@YAP6AHI@ZXZ 00449e60 f   LIBCMTD:handler.obj
 0001:00048e80       __callnewh                 00449e80 f   LIBCMTD:handler.obj
 0001:00048ec0       __VEC_memcpy               00449ec0 f   LIBCMTD:p4_memcpy.obj
 0001:00048fd0       ___sse2_available_init     00449fd0 f   LIBCMTD:cpu_disp.obj
 0001:00048ff0       ?__CxxUnhandledExceptionFilter@@YGJPAU_EXCEPTION_POINTERS@@@Z 00449ff0 f   LIBCMTD:unhandld.obj
 0001:00049060       ___CxxSetUnhandledExceptionFilter 0044a060 f   LIBCMTD:unhandld.obj
 0001:00049080       ___security_init_cookie    0044a080 f   LIBCMTD:gs_support.obj
 0001:00049160       __cinit                    0044a160 f   LIBCMTD:crt0dat.obj
 0001:00049200       _exit                      0044a200 f   LIBCMTD:crt0dat.obj
 0001:00049220       __exit                     0044a220 f   LIBCMTD:crt0dat.obj
 0001:00049240       __cexit                    0044a240 f   LIBCMTD:crt0dat.obj
 0001:00049260       __c_exit                   0044a260 f   LIBCMTD:crt0dat.obj
 0001:00049280       __amsg_exit                0044a280 f   LIBCMTD:crt0dat.obj
 0001:000492b0       ___freeCrtMemory           0044a2b0 f   LIBCMTD:crt0dat.obj
 0001:000495f0       ___crtCorExitProcess       0044a5f0 f   LIBCMTD:crt0dat.obj
 0001:00049630       ___crtExitProcess          0044a630 f   LIBCMTD:crt0dat.obj
 0001:00049650       __lockexit                 0044a650 f   LIBCMTD:crt0dat.obj
 0001:00049670       __unlockexit               0044a670 f   LIBCMTD:crt0dat.obj
 0001:00049690       __init_pointers            0044a690 f   LIBCMTD:crt0dat.obj
 0001:00049720       __initterm_e               0044a720 f   LIBCMTD:crt0dat.obj
 0001:00049760       __get_wpgmptr              0044a760 f   LIBCMTD:crt0dat.obj
 0001:00049850       __get_pgmptr               0044a850 f   LIBCMTD:crt0dat.obj
 0001:00049940       ___CppXcptFilter           0044a940 f   LIBCMTD:winxfltr.obj
 0001:00049970       __XcptFilter               0044a970 f   LIBCMTD:winxfltr.obj
 0001:00049bd0       __setenvp                  0044abd0 f   LIBCMTD:stdenvp.obj
 0001:00049d70       __setargv                  0044ad70 f   LIBCMTD:stdargv.obj
 0001:00049e90       __set_pgmptr               0044ae90 f i LIBCMTD:stdargv.obj
 0001:0004a200       ___crtGetEnvironmentStringsA 0044b200 f   LIBCMTD:a_env.obj
 0001:0004a300       __ioinit                   0044b300 f   LIBCMTD:ioinit.obj
 0001:0004a710       __ioterm                   0044b710 f   LIBCMTD:ioinit.obj
 0001:0004a7b0       __RTC_Initialize           0044b7b0 f   LIBCMTD:_initsect_.obj
 0001:0004a7e0       __RTC_Terminate            0044b7e0 f   LIBCMTD:_initsect_.obj
 0001:0004a810       __heap_init                0044b810 f   LIBCMTD:heapinit.obj
 0001:0004a850       __heap_term                0044b850 f   LIBCMTD:heapinit.obj
 0001:0004a870       __get_heap_handle          0044b870 f   LIBCMTD:heapinit.obj
 0001:0004a8b0       __FF_MSGBANNER             0044b8b0 f   LIBCMTD:crt0msg.obj
 0001:0004a900       __GET_RTERRMSG             0044b900 f   LIBCMTD:crt0msg.obj
 0001:0004a950       __NMSG_WRITE               0044b950 f   LIBCMTD:crt0msg.obj
 0001:0004ac90       ___getlocaleinfo           0044bc90 f   LIBCMTD:inithelp.obj
 0001:0004af70       __initp_misc_purevirt      0044bf70 f   LIBCMTD:inithelp.obj
 0001:0004af80       __initp_misc_winsig        0044bf80 f   LIBCMTD:winsig.obj
 0001:0004afb0       _signal                    0044bfb0 f   LIBCMTD:winsig.obj
 0001:0004b450       _raise                     0044c450 f   LIBCMTD:winsig.obj
 0001:0004b7c0       ___get_sigabrt             0044c7c0 f   LIBCMTD:winsig.obj
 0001:0004b7e0       ___fpecode                 0044c7e0 f   LIBCMTD:winsig.obj
 0001:0004b7f0       ___pxcptinfoptrs           0044c7f0 f   LIBCMTD:winsig.obj
 0001:0004b800       ___crtMessageBoxW          0044c800 f   LIBCMTD:crtmboxw.obj
 0001:0004ba20       __itow_s                   0044ca20 f   LIBCMTD:xtows.obj
 0001:0004be00       __ltow_s                   0044ce00 f   LIBCMTD:xtows.obj
 0001:0004be40       __ultow_s                  0044ce40 f   LIBCMTD:xtows.obj
 0001:0004be60       __i64tow_s                 0044ce60 f   LIBCMTD:xtows.obj
 0001:0004c280       __ui64tow_s                0044d280 f   LIBCMTD:xtows.obj
 0001:0004c2a0       _wcsncat_s                 0044d2a0 f   LIBCMTD:wcsncat_s.obj
 0001:0004c750       _wcsncpy_s                 0044d750 f   LIBCMTD:wcsncpy_s.obj
 0001:0004cb60       _wcscat_s                  0044db60 f   LIBCMTD:wcscat_s.obj
 0001:0004cf50       _wcscpy_s                  0044df50 f   LIBCMTD:wcscpy_s.obj
 0001:0004d230       _fwprintf                  0044e230 f   LIBCMTD:fwprintf.obj
 0001:0004d3b0       __fwprintf_l               0044e3b0 f   LIBCMTD:fwprintf.obj
 0001:0004d3e0       __fwprintf_s_l             0044e3e0 f   LIBCMTD:fwprintf.obj
 0001:0004d410       _fwprintf_s                0044e410 f   LIBCMTD:fwprintf.obj
 0001:0004d440       __fwprintf_p_l             0044e440 f   LIBCMTD:fwprintf.obj
 0001:0004d470       __fwprintf_p               0044e470 f   LIBCMTD:fwprintf.obj
 0001:0004d4a0       _setvbuf                   0044e4a0 f   LIBCMTD:setvbuf.obj
 0001:0004d770       _wcslen                    0044e770 f   LIBCMTD:wcslen.obj
 0001:0004d7a0       __set_error_mode           0044e7a0 f   LIBCMTD:errmode.obj
 0001:0004d860       ___set_app_type            0044e860 f   LIBCMTD:errmode.obj
 0001:0004d870       __vswprintf_helper         0044e870 f   LIBCMTD:vswprnc.obj
 0001:0004dad0       __vswprintf_c              0044ead0 f   LIBCMTD:vswprnc.obj
 0001:0004db20       __vswprintf_c_l            0044eb20 f   LIBCMTD:vswprnc.obj
 0001:0004db70       __vswprintf_s_l            0044eb70 f   LIBCMTD:vswprnc.obj
 0001:0004dde0       _vswprintf_s               0044ede0 f   LIBCMTD:vswprnc.obj
 0001:0004de10       __vsnwprintf_s_l           0044ee10 f   LIBCMTD:vswprnc.obj
 0001:0004e1c0       __vsnwprintf_s             0044f1c0 f   LIBCMTD:vswprnc.obj
 0001:0004e1f0       __vswprintf_p              0044f1f0 f   LIBCMTD:vswprnc.obj
 0001:0004e240       __vswprintf_p_l            0044f240 f   LIBCMTD:vswprnc.obj
 0001:0004e290       _strtol                    0044f290 f   LIBCMTD:strtol.obj
 0001:0004e7c0       __strtol_l                 0044f7c0 f   LIBCMTD:strtol.obj
 0001:0004e7f0       _strtoul                   0044f7f0 f   LIBCMTD:strtol.obj
 0001:0004e840       __strtoul_l                0044f840 f   LIBCMTD:strtol.obj
 0001:0004e870       __strtoi64                 0044f870 f   LIBCMTD:strtoq.obj
 0001:0004ede0       __strtoi64_l               0044fde0 f   LIBCMTD:strtoq.obj
 0001:0004ee10       __strtoui64                0044fe10 f   LIBCMTD:strtoq.obj
 0001:0004ee60       __strtoui64_l              0044fe60 f   LIBCMTD:strtoq.obj
 0001:0004ee90       _strnlen                   0044fe90 f   LIBCMTD:strlen_s.obj
 0001:0004eed0       __dosmaperr                0044fed0 f   LIBCMTD:dosmap.obj
 0001:0004ef00       __get_errno_from_oserr     0044ff00 f   LIBCMTD:dosmap.obj
 0001:0004ef80       __set_errno                0044ff80 f   LIBCMTD:dosmap.obj
 0001:0004efb0       __get_errno                0044ffb0 f   LIBCMTD:dosmap.obj
 0001:0004f030       __set_doserrno             00450030 f   LIBCMTD:dosmap.obj
 0001:0004f060       __get_doserrno             00450060 f   LIBCMTD:dosmap.obj
 0001:0004f0e0       __errno                    004500e0 f   LIBCMTD:dosmap.obj
 0001:0004f110       ___doserrno                00450110 f   LIBCMTD:dosmap.obj
 0001:0004f140       __mbsnbicoll_l             00450140 f   LIBCMTD:mbsnbico.obj
 0001:0004f380       __mbsnbicoll               00450380 f   LIBCMTD:mbsnbico.obj
 0001:0004f3a0       ___wtomb_environ           004503a0 f   LIBCMTD:wtombenv.obj
 0001:0004f490       _strcpy_s                  00450490 f   LIBCMTD:strcpy_s.obj
 0001:0004f770       __flsbuf                   00450770 f   LIBCMTD:_flsbuf.obj
 0001:0004fa30       __output_l                 00450a30 f   LIBCMTD:output.obj
 0001:00050e70       _get_int_arg               00451e70 f i LIBCMTD:output.obj
 0001:00050e90       _get_int64_arg             00451e90 f i LIBCMTD:output.obj
 0001:00050eb0       _get_short_arg             00451eb0 f i LIBCMTD:output.obj
 0001:00050ed0       __vsnprintf_l              00451ed0 f   LIBCMTD:vsnprint.obj
 0001:00051090       _vsnprintf                 00452090 f   LIBCMTD:vsnprint.obj
 0001:00051090       __vsnprintf                00452090 f   LIBCMTD:vsnprint.obj
 0001:000510c0       __commit                   004520c0 f   LIBCMTD:commit.obj
 0001:000512e0       __fileno                   004522e0 f   LIBCMTD:fileno.obj
 0001:00051360       __write                    00452360 f   LIBCMTD:write.obj
 0001:00051590       __write_nolock             00452590 f   LIBCMTD:write.obj
 0001:000520d0       __stbuf                    004530d0 f   LIBCMTD:_sftbuf.obj
 0001:00052230       __ftbuf                    00453230 f   LIBCMTD:_sftbuf.obj
 0001:000522c0       _vfprintf_helper           004532c0 f   LIBCMTD:vfprintf.obj
 0001:00052560       __vfprintf_l               00453560 f   LIBCMTD:vfprintf.obj
 0001:00052590       __vfprintf_s_l             00453590 f   LIBCMTD:vfprintf.obj
 0001:000525c0       __vfprintf_p_l             004535c0 f   LIBCMTD:vfprintf.obj
 0001:000525f0       _vfprintf                  004535f0 f   LIBCMTD:vfprintf.obj
 0001:00052620       _vfprintf_s                00453620 f   LIBCMTD:vfprintf.obj
 0001:00052650       __vfprintf_p               00453650 f   LIBCMTD:vfprintf.obj
 0001:00052680       __fcloseall                00453680 f   LIBCMTD:closeall.obj
 0001:000527b0       __CrtDefaultAllocHook      004537b0 f   LIBCMTD:dbghook.obj
 0001:000527c0       __crt_debugger_hook        004537c0 f   LIBCMTD:dbghook.obj
 0001:000527e0       __CrtDbgBreak              004537e0 f   LIBCMTD:dbgrptt.obj
 0001:000527f0       __CrtSetReportMode         004537f0 f   LIBCMTD:dbgrptt.obj
 0001:00052930       __CrtSetReportFile         00453930 f   LIBCMTD:dbgrptt.obj
 0001:00052a30       __CrtSetReportHook         00453a30 f   LIBCMTD:dbgrptt.obj
 0001:00052a50       __CrtGetReportHook         00453a50 f   LIBCMTD:dbgrptt.obj
 0001:00052a60       __VCrtDbgReportA           00453a60 f   LIBCMTD:dbgrptt.obj
 0001:00053290       __VCrtDbgReportW           00454290 f   LIBCMTD:dbgrptt.obj
 0001:00053bc0       __swprintf                 00454bc0 f   LIBCMTD:swprintf.obj
 0001:00053dc0       ___swprintf_l              00454dc0 f   LIBCMTD:swprintf.obj
 0001:00053df0       _swprintf_s                00454df0 f   LIBCMTD:swprintf.obj
 0001:00053e20       __snwprintf_s              00454e20 f   LIBCMTD:swprintf.obj
 0001:00053e50       __swprintf_p               00454e50 f   LIBCMTD:swprintf.obj
 0001:00053e80       __swprintf_s_l             00454e80 f   LIBCMTD:swprintf.obj
 0001:00053eb0       __snwprintf_s_l            00454eb0 f   LIBCMTD:swprintf.obj
 0001:00053ee0       __swprintf_p_l             00454ee0 f   LIBCMTD:swprintf.obj
 0001:00053f10       __scwprintf                00454f10 f   LIBCMTD:swprintf.obj
 0001:00053f30       __scwprintf_p              00454f30 f   LIBCMTD:swprintf.obj
 0001:00053f50       __scwprintf_l              00454f50 f   LIBCMTD:swprintf.obj
 0001:00053f80       __scwprintf_p_l            00454f80 f   LIBCMTD:swprintf.obj
 0001:00053fb0       _memcpy_s                  00454fb0 f   LIBCMTD:memcpy_s.obj
 0001:00054140       __alloca_probe             00455140     LIBCMTD:chkstk.obj
 0001:00054140       __chkstk                   00455140 f   LIBCMTD:chkstk.obj
 0001:00054170       __VEC_memzero              00455170 f   LIBCMTD:p4_memset.obj
 0001:00054230       ?_ValidateRead@@YAHPBXI@Z  00455230 f   LIBCMTD:validate.obj
 0001:00054260       ?_ValidateWrite@@YAHPAXI@Z 00455260 f   LIBCMTD:validate.obj
 0001:00054290       ?_ValidateExecute@@YAHP6GHXZ@Z 00455290 f   LIBCMTD:validate.obj
 0001:000542c0       __global_unwind2           004552c0 f   LIBCMTD:exsup.obj
 0001:00054325       __local_unwind2            00455325 f   LIBCMTD:exsup.obj
 0001:000543a9       __abnormal_termination     004553a9 f   LIBCMTD:exsup.obj
 0001:000543cc       __NLG_Notify1              004553cc f   LIBCMTD:exsup.obj
 0001:000543d5       __NLG_Notify               004553d5 f   LIBCMTD:exsup.obj
 0001:000543ec       __NLG_Dispatch             004553ec     LIBCMTD:exsup.obj
 0001:000543ec       __NLG_Dispatch2            004553ec     LIBCMTD:exsup.obj
 0001:000543f4       __NLG_Call                 004553f4 f   LIBCMTD:exsup.obj
 0001:000543f6       __NLG_Return2              004553f6     LIBCMTD:exsup.obj
 0001:00054400       ___addlocaleref            00455400 f   LIBCMTD:localref.obj
 0001:00054520       ___removelocaleref         00455520 f   LIBCMTD:localref.obj
 0001:00054650       ___freetlocinfo            00455650 f   LIBCMTD:localref.obj
 0001:00054930       __updatetlocinfoEx_nolock  00455930 f   LIBCMTD:localref.obj
 0001:000549b0       ___updatetlocinfo          004559b0 f   LIBCMTD:localref.obj
 0001:00054a80       ___updatetmbcinfo          00455a80 f   LIBCMTD:mbctype.obj
 0001:00054b90       __setmbcp                  00455b90 f   LIBCMTD:mbctype.obj
 0001:00054f40       __setmbcp_nolock           00455f40 f   LIBCMTD:mbctype.obj
 0001:00055730       __getmbcp                  00456730 f   LIBCMTD:mbctype.obj
 0001:000557a0       ___initmbctable            004567a0 f   LIBCMTD:mbctype.obj
 0001:000557d0       ?_RTC_GetSrcLine@@YAHPAEPA_WKPAH1K@Z 004567d0 f   LIBCMTD:_pdblkup_.obj
 0001:00055c80       __CrtSetReportHook2        00456c80 f   LIBCMTD:dbgrpt.obj
 0001:00055fb0       __CrtDbgReport             00456fb0 f   LIBCMTD:dbgrpt.obj
 0001:00055ff0       __CrtDbgReportV            00456ff0 f i LIBCMTD:dbgrpt.obj
 0001:00056020       ___crtMessageWindowA       00457020 f   LIBCMTD:dbgrpt.obj
 0001:00056420       ___unDName                 00457420 f   LIBCMTD:undname.obj
 0001:00056500       ?Constructor@_HeapManager@@QAEXP6APAXI@ZP6AXPAX@Z@Z 00457500 f i LIBCMTD:undname.obj
 0001:00056540       ?Destructor@_HeapManager@@QAEXXZ 00457540 f i LIBCMTD:undname.obj
 0001:00056590       ___unDNameEx               00457590 f   LIBCMTD:undname.obj
 0001:00056670       ??0UnDecorator@@QAE@PADPBDHP6APADJ@ZK@Z 00457670 f i LIBCMTD:undname.obj
 0001:00056710       ??BUnDecorator@@QAEPADXZ   00457710 f i LIBCMTD:undname.obj
 0001:00056940       ?dbGetString@DName@@QBEPADXZ 00457940 f   LIBCMTD:undname.obj
 0001:00056970       ?getDecoratedName@UnDecorator@@CA?AVDName@@XZ 00457970 f   LIBCMTD:undname.obj
 0001:00056c80       ?getSymbolName@UnDecorator@@CA?AVDName@@XZ 00457c80 f i LIBCMTD:undname.obj
 0001:00056d00       ?getZName@UnDecorator@@CA?AVDName@@_N0@Z 00457d00 f   LIBCMTD:undname.obj
 0001:00056fa0       ?getOperatorName@UnDecorator@@CA?AVDName@@_NPA_N@Z 00457fa0 f i LIBCMTD:undname.obj
 0001:00057910       ?getStringEncoding@UnDecorator@@CA?AVDName@@PADH@Z 00458910 f   LIBCMTD:undname.obj
 0001:00057a10       ?getScope@UnDecorator@@CA?AVDName@@XZ 00458a10 f   LIBCMTD:undname.obj
 0001:00057df0       ?getSignedDimension@UnDecorator@@CA?AVDName@@XZ 00458df0 f   LIBCMTD:undname.obj
 0001:00057e70       ?getDimension@UnDecorator@@CA?AVDName@@_N@Z 00458e70 f   LIBCMTD:undname.obj
 0001:00058120       ?getNumberOfDimensions@UnDecorator@@CAHXZ 00459120 f   LIBCMTD:undname.obj
 0001:00058220       ?getTemplateName@UnDecorator@@CA?AVDName@@_N@Z 00459220 f   LIBCMTD:undname.obj
 0001:000583e0       ?getTemplateArgumentList@UnDecorator@@CA?AVDName@@XZ 004593e0 f   LIBCMTD:undname.obj
 0001:00058660       ?getTemplateConstant@UnDecorator@@CA?AVDName@@XZ 00459660 f   LIBCMTD:undname.obj
 0001:00058af0       ?composeDeclaration@UnDecorator@@CA?AVDName@@ABV2@@Z 00459af0 f i LIBCMTD:undname.obj
 0001:0005a0f0       ?getTypeEncoding@UnDecorator@@CAHXZ 0045b0f0 f i LIBCMTD:undname.obj
 0001:0005ab30       ?getBasedType@UnDecorator@@CA?AVDName@@XZ 0045bb30 f   LIBCMTD:undname.obj
 0001:0005abf0       ?getScopedName@UnDecorator@@CA?AVDName@@XZ 0045bbf0 f   LIBCMTD:undname.obj
 0001:0005ad10       ?getCallingConvention@UnDecorator@@CA?AVDName@@XZ 0045bd10 f   LIBCMTD:undname.obj
 0001:0005ae90       ?getReturnType@UnDecorator@@CA?AVDName@@PAV2@@Z 0045be90 f   LIBCMTD:undname.obj
 0001:0005aee0       ?getDataType@UnDecorator@@CA?AVDName@@PAV2@@Z 0045bee0 f   LIBCMTD:undname.obj
 0001:0005b000       ?getPrimaryDataType@UnDecorator@@CA?AVDName@@ABV2@@Z 0045c000 f   LIBCMTD:undname.obj
 0001:0005b3a0       ?getArgumentTypes@UnDecorator@@CA?AVDName@@XZ 0045c3a0 f   LIBCMTD:undname.obj
 0001:0005b500       ?getArgumentList@UnDecorator@@CA?AVDName@@XZ 0045c500 f   LIBCMTD:undname.obj
 0001:0005b650       ?getThrowTypes@UnDecorator@@CA?AVDName@@XZ 0045c650 f   LIBCMTD:undname.obj
 0001:0005b700       ?getBasicDataType@UnDecorator@@CA?AVDName@@ABV2@@Z 0045c700 f   LIBCMTD:undname.obj
 0001:0005bcc0       ?getECSUDataType@UnDecorator@@CA?AVDName@@XZ 0045ccc0 f   LIBCMTD:undname.obj
 0001:0005be90       ?getECSUName@UnDecorator@@CA?AVDName@@XZ 0045ce90 f i LIBCMTD:undname.obj
 0001:0005beb0       ?getEnumType@UnDecorator@@CA?AVDName@@XZ 0045ceb0 f i LIBCMTD:undname.obj
 0001:0005c000       ?getFunctionIndirectType@UnDecorator@@CA?AVDName@@ABV2@@Z 0045d000 f   LIBCMTD:undname.obj
 0001:0005c440       ?getPtrRefType@UnDecorator@@CA?AVDName@@ABV2@0PBD@Z 0045d440 f   LIBCMTD:undname.obj
 0001:0005c5a0       ?getExtendedDataIndirectType@UnDecorator@@CA?AVDName@@AAPBDAA_NH@Z 0045d5a0 f   LIBCMTD:undname.obj
 0001:0005c7c0       ?getDataIndirectType@UnDecorator@@CA?AVDName@@ABV2@PBD0H@Z 0045d7c0 f   LIBCMTD:undname.obj
 0001:0005cec0       ?getPtrRefDataType@UnDecorator@@CA?AVDName@@ABV2@H@Z 0045dec0 f i LIBCMTD:undname.obj
 0001:0005d000       ?getArrayType@UnDecorator@@CA?AVDName@@ABV2@@Z 0045e000 f i LIBCMTD:undname.obj
 0001:0005d230       ?getLexicalFrame@UnDecorator@@CA?AVDName@@XZ 0045e230 f i LIBCMTD:undname.obj
 0001:0005d270       ?getThisType@UnDecorator@@CA?AVDName@@XZ 0045e270 f i LIBCMTD:undname.obj
 0001:0005d2b0       ?getPointerType@UnDecorator@@CA?AVDName@@ABV2@0@Z 0045e2b0 f i LIBCMTD:undname.obj
 0001:0005d2e0       ?getPointerTypeArray@UnDecorator@@CA?AVDName@@ABV2@0@Z 0045e2e0 f i LIBCMTD:undname.obj
 0001:0005d310       ?getReferenceType@UnDecorator@@CA?AVDName@@ABV2@0PBD@Z 0045e310 f i LIBCMTD:undname.obj
 0001:0005d340       ?getDisplacement@UnDecorator@@CA?AVDName@@XZ 0045e340 f i LIBCMTD:undname.obj
 0001:0005d360       ?getCallIndex@UnDecorator@@CA?AVDName@@XZ 0045e360 f i LIBCMTD:undname.obj
 0001:0005d380       ?getGuardNumber@UnDecorator@@CA?AVDName@@XZ 0045e380 f i LIBCMTD:undname.obj
 0001:0005d3a0       ?getVbTableType@UnDecorator@@CA?AVDName@@ABV2@@Z 0045e3a0 f i LIBCMTD:undname.obj
 0001:0005d3c0       ?getVCallThunkType@UnDecorator@@CA?AVDName@@XZ 0045e3c0 f i LIBCMTD:undname.obj
 0001:0005d420       ?getVfTableType@UnDecorator@@CA?AVDName@@ABV2@@Z 0045e420 f i LIBCMTD:undname.obj
 0001:0005d5e0       ?getStorageConvention@UnDecorator@@CA?AVDName@@XZ 0045e5e0 f i LIBCMTD:undname.obj
 0001:0005d600       ?getDataIndirectType@UnDecorator@@CA?AVDName@@XZ 0045e600 f i LIBCMTD:undname.obj
 0001:0005d640       ?getVdispMapType@UnDecorator@@CA?AVDName@@ABV2@@Z 0045e640 f i LIBCMTD:undname.obj
 0001:0005d6b0       ?getExternalDataType@UnDecorator@@CA?AVDName@@ABV2@@Z 0045e6b0 f i LIBCMTD:undname.obj
 0001:0005d740       ?doMSKeywords@UnDecorator@@SAHXZ 0045e740 f i LIBCMTD:undname.obj
 0001:0005d760       ?doPtr64@UnDecorator@@SAHXZ 0045e760 f i LIBCMTD:undname.obj
 0001:0005d780       ?doFunctionReturns@UnDecorator@@SAHXZ 0045e780 f i LIBCMTD:undname.obj
 0001:0005d7a0       ?doAllocationModel@UnDecorator@@SAHXZ 0045e7a0 f i LIBCMTD:undname.obj
 0001:0005d7c0       ?doAllocationLanguage@UnDecorator@@SAHXZ 0045e7c0 f i LIBCMTD:undname.obj
 0001:0005d7e0       ?doThisTypes@UnDecorator@@SAHXZ 0045e7e0 f i LIBCMTD:undname.obj
 0001:0005d800       ?doAccessSpecifiers@UnDecorator@@SAHXZ 0045e800 f i LIBCMTD:undname.obj
 0001:0005d820       ?doThrowTypes@UnDecorator@@SAHXZ 0045e820 f i LIBCMTD:undname.obj
 0001:0005d840       ?doMemberTypes@UnDecorator@@SAHXZ 0045e840 f i LIBCMTD:undname.obj
 0001:0005d860       ?doNameOnly@UnDecorator@@SAHXZ 0045e860 f i LIBCMTD:undname.obj
 0001:0005d880       ?doTypeOnly@UnDecorator@@SAHXZ 0045e880 f i LIBCMTD:undname.obj
 0001:0005d8a0       ?haveTemplateParameters@UnDecorator@@SAHXZ 0045e8a0 f i LIBCMTD:undname.obj
 0001:0005d8c0       ?doEcsu@UnDecorator@@SAHXZ 0045e8c0 f i LIBCMTD:undname.obj
 0001:0005d8e0       ?doEllipsis@UnDecorator@@SAHXZ 0045e8e0 f i LIBCMTD:undname.obj
 0001:0005d900       ?UScore@UnDecorator@@SAPBDW4Tokens@@@Z 0045e900 f   LIBCMTD:undname.obj
 0001:0005d930       ?doUnderScore@UnDecorator@@SAHXZ 0045e930 f i LIBCMTD:undname.obj
 0001:0005d950       ??2@YAPAXIAAV_HeapManager@@H@Z 0045e950 f i LIBCMTD:undname.obj
 0001:0005d970       ?getMemory@_HeapManager@@QAEPAXIH@Z 0045e970 f   LIBCMTD:undname.obj
 0001:0005da80       ??0Block@_HeapManager@@QAE@XZ 0045ea80 f i LIBCMTD:undname.obj
 0001:0005daa0       ??H@YA?AVDName@@DABV0@@Z   0045eaa0 f i LIBCMTD:undname.obj
 0001:0005dad0       ??H@YA?AVDName@@W4DNameStatus@@ABV0@@Z 0045ead0 f i LIBCMTD:undname.obj
 0001:0005db00       ??H@YA?AVDName@@PBDABV0@@Z 0045eb00 f i LIBCMTD:undname.obj
 0001:0005db30       ??0DName@@QAE@XZ           0045eb30 f i LIBCMTD:undname.obj
 0001:0005dbf0       ??0DName@@QAE@D@Z          0045ebf0 f   LIBCMTD:undname.obj
 0001:0005dcd0       ??0DName@@QAE@ABV0@@Z      0045ecd0 f i LIBCMTD:undname.obj
 0001:0005dd00       ??0DName@@QAE@PAV0@@Z      0045ed00 f   LIBCMTD:undname.obj
 0001:0005de30       ??0DName@@QAE@PBD@Z        0045ee30 f   LIBCMTD:undname.obj
 0001:0005df20       ??0DName@@QAE@AAPBDD@Z     0045ef20 f   LIBCMTD:undname.obj
 0001:0005e1e0       ?doNoIdentCharCheck@UnDecorator@@SAHXZ 0045f1e0 f i LIBCMTD:undname.obj
 0001:0005e200       ??0DName@@QAE@_K@Z         0045f200 f   LIBCMTD:undname.obj
 0001:0005e340       ??0DName@@QAE@_J@Z         0045f340 f   LIBCMTD:undname.obj
 0001:0005e4c0       ??0DName@@QAE@W4DNameStatus@@@Z 0045f4c0 f   LIBCMTD:undname.obj
 0001:0005e5e0       ?isValid@DName@@QBEHXZ     0045f5e0 f i LIBCMTD:undname.obj
 0001:0005e610       ?isEmpty@DName@@QBEHXZ     0045f610 f i LIBCMTD:undname.obj
 0001:0005e630       ?status@DName@@QBE?AW4DNameStatus@@XZ 0045f630 f i LIBCMTD:undname.obj
 0001:0005e650       ?setPtrRef@DName@@QAEAAV1@XZ 0045f650 f i LIBCMTD:undname.obj
 0001:0005e680       ?isPtrRef@DName@@QBEHXZ    0045f680 f i LIBCMTD:undname.obj
 0001:0005e6a0       ?isUDC@DName@@QBEHXZ       0045f6a0 f i LIBCMTD:undname.obj
 0001:0005e6e0       ?setIsUDC@DName@@QAEXXZ    0045f6e0 f i LIBCMTD:undname.obj
 0001:0005e710       ?isUDTThunk@DName@@QBEHXZ  0045f710 f i LIBCMTD:undname.obj
 0001:0005e750       ?setIsArray@DName@@QAEXXZ  0045f750 f i LIBCMTD:undname.obj
 0001:0005e770       ?isArray@DName@@QBEHXZ     0045f770 f i LIBCMTD:undname.obj
 0001:0005e790       ?isNoTE@DName@@QBEHXZ      0045f790 f i LIBCMTD:undname.obj
 0001:0005e7b0       ?setIsNoTE@DName@@QAEXXZ   0045f7b0 f i LIBCMTD:undname.obj
 0001:0005e7d0       ?isPinPtr@DName@@QBEHXZ    0045f7d0 f i LIBCMTD:undname.obj
 0001:0005e7f0       ?setIsPinPtr@DName@@QAEXXZ 0045f7f0 f i LIBCMTD:undname.obj
 0001:0005e810       ?isComArray@DName@@QBEHXZ  0045f810 f i LIBCMTD:undname.obj
 0001:0005e830       ?setIsComArray@DName@@QAEXXZ 0045f830 f i LIBCMTD:undname.obj
 0001:0005e850       ?isVCallThunk@DName@@QBEHXZ 0045f850 f i LIBCMTD:undname.obj
 0001:0005e870       ?setIsVCallThunk@DName@@QAEXXZ 0045f870 f i LIBCMTD:undname.obj
 0001:0005e890       ?length@DName@@QBEHXZ      0045f890 f i LIBCMTD:undname.obj
 0001:0005e8c0       ?getLastChar@DName@@QBEDXZ 0045f8c0 f i LIBCMTD:undname.obj
 0001:0005e8f0       ?getString@DName@@QBEPADPADH@Z 0045f8f0 f i LIBCMTD:undname.obj
 0001:0005e980       ?getString@DName@@QBEPADPAD0@Z 0045f980 f i LIBCMTD:undname.obj
 0001:0005e9c0       ??HDName@@QBE?AV0@D@Z      0045f9c0 f   LIBCMTD:undname.obj
 0001:0005ea00       ??HDName@@QBE?AV0@PBD@Z    0045fa00 f   LIBCMTD:undname.obj
 0001:0005ea40       ??HDName@@QBE?AV0@ABV0@@Z  0045fa40 f   LIBCMTD:undname.obj
 0001:0005ea80       ??HDName@@QBE?AV0@PAV0@@Z  0045fa80 f   LIBCMTD:undname.obj
 0001:0005eac0       ??HDName@@QBE?AV0@W4DNameStatus@@@Z 0045fac0 f   LIBCMTD:undname.obj
 0001:0005eb00       ?append@DName@@AAEXPAVDNameNode@@@Z 0045fb00 f   LIBCMTD:undname.obj
 0001:0005eb90       ??YDName@@QAEAAV0@D@Z      0045fb90 f   LIBCMTD:undname.obj
 0001:0005ec20       ??YDName@@QAEAAV0@PBD@Z    0045fc20 f   LIBCMTD:undname.obj
 0001:0005ecc0       ??YDName@@QAEAAV0@ABV0@@Z  0045fcc0 f   LIBCMTD:undname.obj
 0001:0005ed30       ??YDName@@QAEAAV0@PAV0@@Z  0045fd30 f   LIBCMTD:undname.obj
 0001:0005edf0       ??YDName@@QAEAAV0@W4DNameStatus@@@Z 0045fdf0 f   LIBCMTD:undname.obj
 0001:0005ee60       ??_5DName@@QAEAAV0@ABV0@@Z 0045fe60 f   LIBCMTD:undname.obj
 0001:0005eec0       ??4DName@@QAEAAV0@D@Z      0045fec0 f i LIBCMTD:undname.obj
 0001:0005efa0       ??4DName@@QAEAAV0@PBD@Z    0045ffa0 f   LIBCMTD:undname.obj
 0001:0005f080       ??4DName@@QAEAAV0@ABV0@@Z  00460080 f   LIBCMTD:undname.obj
 0001:0005f0b0       ??4DName@@QAEAAV0@PAV0@@Z  004600b0 f   LIBCMTD:undname.obj
 0001:0005f1f0       ??4DName@@QAEAAV0@W4DNameStatus@@@Z 004601f0 f   LIBCMTD:undname.obj
 0001:0005f2f0       ?doPchar@DName@@AAEXPBDH@Z 004602f0 f   LIBCMTD:undname.obj
 0001:0005f430       ?isFull@Replicator@@QBEHXZ 00460430 f i LIBCMTD:undname.obj
 0001:0005f450       ??0Replicator@@QAE@XZ      00460450 f i LIBCMTD:undname.obj
 0001:0005f470       ??YReplicator@@QAEAAV0@ABVDName@@@Z 00460470 f   LIBCMTD:undname.obj
 0001:0005f500       ??AReplicator@@QBE?AVDName@@H@Z 00460500 f   LIBCMTD:undname.obj
 0001:0005f570       ??0DNameNode@@IAE@XZ       00460570 f   LIBCMTD:undname.obj
 0001:0005f590       ??0charNode@@QAE@D@Z       00460590 f   LIBCMTD:undname.obj
 0001:0005f5c0       ?length@charNode@@UBEHXZ   004605c0 f i LIBCMTD:undname.obj
 0001:0005f5e0       ?getLastChar@charNode@@UBEDXZ 004605e0 f i LIBCMTD:undname.obj
 0001:0005f600       ?getString@charNode@@UBEPADPAD0@Z 00460600 f i LIBCMTD:undname.obj
 0001:0005f630       ??0pcharNode@@QAE@PBDH@Z   00460630 f   LIBCMTD:undname.obj
 0001:0005f6c0       ?length@pcharNode@@UBEHXZ  004606c0 f i LIBCMTD:undname.obj
 0001:0005f6e0       ?getLastChar@pcharNode@@UBEDXZ 004606e0 f i LIBCMTD:undname.obj
 0001:0005f720       ?getString@pcharNode@@UBEPADPAD0@Z 00460720 f i LIBCMTD:undname.obj
 0001:0005f750       ?getStringHelper@@YAPADPAD00H@Z 00460750 f i LIBCMTD:undname.obj
 0001:0005f790       ??0pDNameNode@@QAE@PAVDName@@@Z 00460790 f   LIBCMTD:undname.obj
 0001:0005f7f0       ?length@pDNameNode@@UBEHXZ 004607f0 f i LIBCMTD:undname.obj
 0001:0005f830       ?getLastChar@pDNameNode@@UBEDXZ 00460830 f i LIBCMTD:undname.obj
 0001:0005f860       ?getString@pDNameNode@@UBEPADPAD0@Z 00460860 f i LIBCMTD:undname.obj
 0001:0005f8a0       ??0DNameStatusNode@@AAE@W4DNameStatus@@@Z 004608a0 f   LIBCMTD:undname.obj
 0001:0005f8f0       ?length@DNameStatusNode@@UBEHXZ 004608f0 f i LIBCMTD:undname.obj
 0001:0005f910       ?getLastChar@DNameStatusNode@@UBEDXZ 00460910 f i LIBCMTD:undname.obj
 0001:0005f930       ?getString@DNameStatusNode@@UBEPADPAD0@Z 00460930 f i LIBCMTD:undname.obj
 0001:0005f970       ?make@DNameStatusNode@@SAPAV1@W4DNameStatus@@@Z 00460970 f i LIBCMTD:undname.obj
 0001:0005fa20       ??0pairNode@@QAE@PAVDNameNode@@0@Z 00460a20 f   LIBCMTD:undname.obj
 0001:0005fa60       ?length@pairNode@@UBEHXZ   00460a60 f i LIBCMTD:undname.obj
 0001:0005fab0       ?getLastChar@pairNode@@UBEDXZ 00460ab0 f i LIBCMTD:undname.obj
 0001:0005fb00       ?getString@pairNode@@UBEPADPAD0@Z 00460b00 f i LIBCMTD:undname.obj
 0001:0005fc40       __malloc_base              00460c40 f   LIBCMTD:malloc.obj
 0001:0005fcd0       __heap_alloc_base          00460cd0 f i LIBCMTD:malloc.obj
 0001:0005fd30       __free_base                00460d30 f   LIBCMTD:free.obj
 0001:0005fd80       __local_unwind4            00460d80 f   LIBCMTD:exsup4.obj
 0001:0005fe56       __seh_longjmp_unwind4@4    00460e56 f   LIBCMTD:exsup4.obj
 0001:0005fe72       @_EH4_CallFilterFunc@8     00460e72 f   LIBCMTD:exsup4.obj
 0001:0005fe89       @_EH4_TransferToHandler@8  00460e89 f   LIBCMTD:exsup4.obj
 0001:0005fea2       @_EH4_GlobalUnwind2@8      00460ea2 f   LIBCMTD:exsup4.obj
 0001:0005febb       @_EH4_LocalUnwind@16       00460ebb f   LIBCMTD:exsup4.obj
 0001:0005fee0       __expand_base              00460ee0 f   LIBCMTD:expand.obj
 0001:00060040       __realloc_base             00461040 f   LIBCMTD:realloc.obj
 0001:00060140       __heapchk                  00461140 f   LIBCMTD:heapchk.obj
 0001:00060170       __heapset                  00461170 f   LIBCMTD:heapchk.obj
 0001:00060180       _sprintf                   00461180 f   LIBCMTD:sprintf.obj
 0001:00060320       __sprintf_l                00461320 f   LIBCMTD:sprintf.obj
 0001:00060350       _sprintf_s                 00461350 f   LIBCMTD:sprintf.obj
 0001:00060380       __sprintf_s_l              00461380 f   LIBCMTD:sprintf.obj
 0001:000603b0       __snprintf_s               004613b0 f   LIBCMTD:sprintf.obj
 0001:000603e0       __snprintf_s_l             004613e0 f   LIBCMTD:sprintf.obj
 0001:00060410       __sprintf_p                00461410 f   LIBCMTD:sprintf.obj
 0001:00060440       __sprintf_p_l              00461440 f   LIBCMTD:sprintf.obj
 0001:00060470       __scprintf                 00461470 f   LIBCMTD:sprintf.obj
 0001:00060490       __scprintf_p               00461490 f   LIBCMTD:sprintf.obj
 0001:000604b0       __scprintf_l               004614b0 f   LIBCMTD:sprintf.obj
 0001:000604e0       __scprintf_p_l             004614e0 f   LIBCMTD:sprintf.obj
 0001:00060510       __chvalidator              00461510 f   LIBCMTD:isctype.obj
 0001:00060560       __chvalidator_l            00461560 f   LIBCMTD:isctype.obj
 0001:00060610       __isctype_l                00461610 f   LIBCMTD:isctype.obj
 0001:00060730       __isctype                  00461730 f   LIBCMTD:isctype.obj
 0001:00060770       __ValidateImageBase        00461770 f   LIBCMTD:pesect.obj
 0001:000607d0       __FindPESection            004617d0 f   LIBCMTD:pesect.obj
 0001:00060850       __IsNonwritableInCurrentImage 00461850 f   LIBCMTD:pesect.obj
 0001:00060970       __initp_misc_cfltcvt_tab   00461970 f   LIBCMTD:cmiscdat.obj
 0001:000609b0       __initp_misc_rand_s        004619b0 f   LIBCMTD:rand_s.obj
 0001:000609c0       _rand_s                    004619c0 f   LIBCMTD:rand_s.obj
 0001:00060be0       __ismbbkalnum_l            00461be0 f   LIBCMTD:ismbbyte.obj
 0001:00060c00       __ismbbkalnum              00461c00 f   LIBCMTD:ismbbyte.obj
 0001:00060c20       __ismbbkprint_l            00461c20 f   LIBCMTD:ismbbyte.obj
 0001:00060c40       __ismbbkprint              00461c40 f   LIBCMTD:ismbbyte.obj
 0001:00060c60       __ismbbkpunct_l            00461c60 f   LIBCMTD:ismbbyte.obj
 0001:00060c80       __ismbbkpunct              00461c80 f   LIBCMTD:ismbbyte.obj
 0001:00060ca0       __ismbbalnum_l             00461ca0 f   LIBCMTD:ismbbyte.obj
 0001:00060cc0       __ismbbalnum               00461cc0 f   LIBCMTD:ismbbyte.obj
 0001:00060ce0       __ismbbalpha_l             00461ce0 f   LIBCMTD:ismbbyte.obj
 0001:00060d00       __ismbbalpha               00461d00 f   LIBCMTD:ismbbyte.obj
 0001:00060d20       __ismbbgraph_l             00461d20 f   LIBCMTD:ismbbyte.obj
 0001:00060d40       __ismbbgraph               00461d40 f   LIBCMTD:ismbbyte.obj
 0001:00060d60       __ismbbprint_l             00461d60 f   LIBCMTD:ismbbyte.obj
 0001:00060d80       __ismbbprint               00461d80 f   LIBCMTD:ismbbyte.obj
 0001:00060da0       __ismbbpunct_l             00461da0 f   LIBCMTD:ismbbyte.obj
 0001:00060dc0       __ismbbpunct               00461dc0 f   LIBCMTD:ismbbyte.obj
 0001:00060de0       __ismbblead_l              00461de0 f   LIBCMTD:ismbbyte.obj
 0001:00060e00       __ismbblead                00461e00 f   LIBCMTD:ismbbyte.obj
 0001:00060e20       __ismbbtrail_l             00461e20 f   LIBCMTD:ismbbyte.obj
 0001:00060e40       __ismbbtrail               00461e40 f   LIBCMTD:ismbbyte.obj
 0001:00060e60       __ismbbkana_l              00461e60 f   LIBCMTD:ismbbyte.obj
 0001:00060ed0       __ismbbkana                00461ed0 f   LIBCMTD:ismbbyte.obj
 0001:00060fc0       _strncpy_s                 00461fc0 f   LIBCMTD:strncpy_s.obj
 0001:000613b0       ___crtGetLocaleInfoA       004623b0 f   LIBCMTD:a_loc.obj
 0001:00061510       __MarkAllocaS              00462510 f i LIBCMTD:a_loc.obj
 0001:00061540       __freea                    00462540 f i LIBCMTD:a_loc.obj
 0001:000615b0       __woutput_l                004625b0 f   LIBCMTD:woutput.obj
 0001:00062780       _vfwprintf_helper          00463780 f   LIBCMTD:vfwprint.obj
 0001:00062900       __vfwprintf_l              00463900 f   LIBCMTD:vfwprint.obj
 0001:00062930       __vfwprintf_s_l            00463930 f   LIBCMTD:vfwprint.obj
 0001:00062960       __vfwprintf_p_l            00463960 f   LIBCMTD:vfwprint.obj
 0001:00062990       _vfwprintf                 00463990 f   LIBCMTD:vfwprint.obj
 0001:000629c0       _vfwprintf_s               004639c0 f   LIBCMTD:vfwprint.obj
 0001:000629f0       __vfwprintf_p              004639f0 f   LIBCMTD:vfwprint.obj
 0001:00062a20       __freebuf                  00463a20 f   LIBCMTD:_freebuf.obj
 0001:00062ab0       __woutput_s_l              00463ab0 f   LIBCMTD:woutputs.obj
 0001:00063dd0       __validate_param_reuseW    00464dd0 f   LIBCMTD:woutputp.obj
 0001:00064040       __woutput_p_l              00465040 f   LIBCMTD:woutputp.obj
 0001:00067790       ____setlc_active_func      00468790 f   LIBCMTD:setlocal.obj
 0001:000677a0       ____unguarded_readlc_active_add_func 004687a0 f   LIBCMTD:setlocal.obj
 0001:000677b0       __configthreadlocale       004687b0 f   LIBCMTD:setlocal.obj
 0001:000678c0       __locterm                  004688c0 f   LIBCMTD:setlocal.obj
 0001:00067960       __free_locale              00468960 f   LIBCMTD:setlocal.obj
 0001:00067aa0       ___free_locale             00468aa0 f   LIBCMTD:setlocal.obj
 0001:00067ac0       __create_locale            00468ac0 f   LIBCMTD:setlocal.obj
 0001:00067cf0       ___create_locale           00468cf0 f   LIBCMTD:setlocal.obj
 0001:00067d10       __get_current_locale       00468d10 f   LIBCMTD:setlocal.obj
 0001:00067e30       ___get_current_locale      00468e30 f   LIBCMTD:setlocal.obj
 0001:00067e40       _setlocale                 00468e40 f   LIBCMTD:setlocal.obj
 0001:00068cf0       __expandlocale             00469cf0 f   LIBCMTD:setlocal.obj
 0001:00068fa0       ___init_dummy              00469fa0 f   LIBCMTD:setlocal.obj
 0001:00068fb0       __strcats                  00469fb0 f   LIBCMTD:setlocal.obj
 0001:00069030       ___lc_strtolc              0046a030 f   LIBCMTD:setlocal.obj
 0001:00069230       ___lc_lctostr              0046a230 f   LIBCMTD:setlocal.obj
 0001:000692d0       ___crtCompareStringA       0046a2d0 f   LIBCMTD:a_cmp.obj
 0001:00069710       __strnicoll_l              0046a710 f   LIBCMTD:strnicol.obj
 0001:00069960       __strnicoll                0046a960 f   LIBCMTD:strnicol.obj
 0001:000699a0       ___crtsetenv               0046a9a0 f   LIBCMTD:setenv.obj
 0001:0006a020       __lseeki64                 0046b020 f   LIBCMTD:lseeki64.obj
 0001:0006a270       __lseeki64_nolock          0046b270 f   LIBCMTD:lseeki64.obj
 0001:0006a360       __getbuf                   0046b360 f   LIBCMTD:_getbuf.obj
 0001:0006a430       __isatty                   0046b430 f   LIBCMTD:isatty.obj
 0001:0006a4f0       _printf                    0046b4f0 f   LIBCMTD:printf.obj
 0001:0006a630       __printf_l                 0046b630 f   LIBCMTD:printf.obj
 0001:0006a660       __printf_s_l               0046b660 f   LIBCMTD:printf.obj
 0001:0006a690       _printf_s                  0046b690 f   LIBCMTD:printf.obj
 0001:0006a6c0       __printf_p_l               0046b6c0 f   LIBCMTD:printf.obj
 0001:0006a6f0       __printf_p                 0046b6f0 f   LIBCMTD:printf.obj
 0001:0006a720       __set_printf_count_output  0046b720 f   LIBCMTD:printf.obj
 0001:0006a770       __get_printf_count_output  0046b770 f   LIBCMTD:printf.obj
 0001:0006a790       __wctomb_s_l               0046b790 f   LIBCMTD:wctomb.obj
 0001:0006aa90       _wctomb_s                  0046ba90 f   LIBCMTD:wctomb.obj
 0001:0006aac0       __wctomb_l                 0046bac0 f   LIBCMTD:wctomb.obj
 0001:0006ab40       _wctomb                    0046bb40 f   LIBCMTD:wctomb.obj
 0001:0006ab90       __isleadbyte_l             0046bb90 f i LIBCMTD:_wctype.obj
 0001:0006abe0       _isleadbyte                0046bbe0 f i LIBCMTD:_wctype.obj
 0001:0006ac00       __iswalpha_l               0046bc00 f i LIBCMTD:_wctype.obj
 0001:0006ac20       _iswalpha                  0046bc20 f i LIBCMTD:_wctype.obj
 0001:0006ac40       __iswupper_l               0046bc40 f i LIBCMTD:_wctype.obj
 0001:0006ac60       _iswupper                  0046bc60 f i LIBCMTD:_wctype.obj
 0001:0006ac80       __iswlower_l               0046bc80 f i LIBCMTD:_wctype.obj
 0001:0006aca0       _iswlower                  0046bca0 f i LIBCMTD:_wctype.obj
 0001:0006acc0       __iswdigit_l               0046bcc0 f i LIBCMTD:_wctype.obj
 0001:0006ace0       _iswdigit                  0046bce0 f i LIBCMTD:_wctype.obj
 0001:0006ad00       __iswxdigit_l              0046bd00 f i LIBCMTD:_wctype.obj
 0001:0006ad20       _iswxdigit                 0046bd20 f i LIBCMTD:_wctype.obj
 0001:0006ad40       __iswspace_l               0046bd40 f i LIBCMTD:_wctype.obj
 0001:0006ad60       _iswspace                  0046bd60 f i LIBCMTD:_wctype.obj
 0001:0006ad80       __iswpunct_l               0046bd80 f i LIBCMTD:_wctype.obj
 0001:0006ada0       _iswpunct                  0046bda0 f i LIBCMTD:_wctype.obj
 0001:0006adc0       __iswalnum_l               0046bdc0 f i LIBCMTD:_wctype.obj
 0001:0006ade0       _iswalnum                  0046bde0 f i LIBCMTD:_wctype.obj
 0001:0006ae00       __iswprint_l               0046be00 f i LIBCMTD:_wctype.obj
 0001:0006ae20       _iswprint                  0046be20 f i LIBCMTD:_wctype.obj
 0001:0006ae40       __iswgraph_l               0046be40 f i LIBCMTD:_wctype.obj
 0001:0006ae60       _iswgraph                  0046be60 f i LIBCMTD:_wctype.obj
 0001:0006ae80       __iswcntrl_l               0046be80 f i LIBCMTD:_wctype.obj
 0001:0006aea0       _iswcntrl                  0046bea0 f i LIBCMTD:_wctype.obj
 0001:0006aec0       _iswascii                  0046bec0 f i LIBCMTD:_wctype.obj
 0001:0006aee0       __iswcsym_l                0046bee0 f i LIBCMTD:_wctype.obj
 0001:0006af20       ___iswcsym                 0046bf20 f i LIBCMTD:_wctype.obj
 0001:0006af60       __iswcsymf_l               0046bf60 f i LIBCMTD:_wctype.obj
 0001:0006afa0       ___iswcsymf                0046bfa0 f i LIBCMTD:_wctype.obj
 0001:0006b000       __alloc_osfhnd             0046c000 f   LIBCMTD:osfinfo.obj
 0001:0006b2b0       __set_osfhnd               0046c2b0 f   LIBCMTD:osfinfo.obj
 0001:0006b380       __free_osfhnd              0046c380 f   LIBCMTD:osfinfo.obj
 0001:0006b470       __get_osfhandle            0046c470 f   LIBCMTD:osfinfo.obj
 0001:0006b5e0       __open_osfhandle           0046c5e0 f   LIBCMTD:osfinfo.obj
 0001:0006b810       ___lock_fhandle            0046c810 f   LIBCMTD:osfinfo.obj
 0001:0006b910       __unlock_fhandle           0046c910 f   LIBCMTD:osfinfo.obj
 0001:0006b940       __putwch                   0046c940 f   LIBCMTD:putwch.obj
 0001:0006b9d0       __putwch_nolock            0046c9d0 f   LIBCMTD:putwch.obj
 0001:0006ba20       __mbtowc_l                 0046ca20 f   LIBCMTD:mbtowc.obj
 0001:0006bc40       _mbtowc                    0046cc40 f   LIBCMTD:mbtowc.obj
 0001:0006bc60       __output_s_l               0046cc60 f   LIBCMTD:outputs.obj
 0001:0006d1f0       __validate_param_reuseA    0046e1f0 f   LIBCMTD:outputp.obj
 0001:0006d480       __output_p_l               0046e480 f   LIBCMTD:outputp.obj
 0001:00071050       _get_crtdouble_arg         00472050 f i LIBCMTD:outputp.obj
 0001:00071070       _fclose                    00472070 f   LIBCMTD:fclose.obj
 0001:00071180       __fclose_nolock            00472180 f   LIBCMTD:fclose.obj
 0001:00071280       __mbstowcs_l_helper        00472280 f   LIBCMTD:mbstowcs.obj
 0001:000715d0       __mbstowcs_l               004725d0 f   LIBCMTD:mbstowcs.obj
 0001:000715f0       _mbstowcs                  004725f0 f   LIBCMTD:mbstowcs.obj
 0001:00071640       __mbstowcs_s_l             00472640 f   LIBCMTD:mbstowcs.obj
 0001:000719c0       _mbstowcs_s                004729c0 f   LIBCMTD:mbstowcs.obj
 0001:000719f0       _strcat_s                  004729f0 f   LIBCMTD:strcat_s.obj
 0001:00071dd0       __vsnprintf_helper         00472dd0 f   LIBCMTD:vsnprnc.obj
 0001:00071fc0       __vsnprintf_c              00472fc0 f   LIBCMTD:vsnprnc.obj
 0001:00072010       __vsnprintf_c_l            00473010 f   LIBCMTD:vsnprnc.obj
 0001:00072060       __vsprintf_s_l             00473060 f   LIBCMTD:vsnprnc.obj
 0001:000722d0       _vsprintf_s                004732d0 f   LIBCMTD:vsnprnc.obj
 0001:00072300       __vsnprintf_s_l            00473300 f   LIBCMTD:vsnprnc.obj
 0001:000726a0       __vsnprintf_s              004736a0 f   LIBCMTD:vsnprnc.obj
 0001:000726d0       __vsprintf_p               004736d0 f   LIBCMTD:vsnprnc.obj
 0001:00072720       __vsprintf_p_l             00473720 f   LIBCMTD:vsnprnc.obj
 0001:00072770       __itoa_s                   00473770 f   LIBCMTD:xtoas.obj
 0001:00072b40       __ltoa_s                   00473b40 f   LIBCMTD:xtoas.obj
 0001:00072b80       __ultoa_s                  00473b80 f   LIBCMTD:xtoas.obj
 0001:00072ba0       __i64toa_s                 00473ba0 f   LIBCMTD:xtoas.obj
 0001:00072fa0       __ui64toa_s                00473fa0 f   LIBCMTD:xtoas.obj
 0001:00072fc0       __wcstombs_l_helper        00473fc0 f   LIBCMTD:wcstombs.obj
 0001:00073500       __wcstombs_l               00474500 f   LIBCMTD:wcstombs.obj
 0001:00073520       _wcstombs                  00474520 f   LIBCMTD:wcstombs.obj
 0001:00073540       __wcstombs_s_l             00474540 f   LIBCMTD:wcstombs.obj
 0001:00073870       _wcstombs_s                00474870 f   LIBCMTD:wcstombs.obj
 0001:000738a0       __vswprintf_l              004748a0 f   LIBCMTD:vswprint.obj
 0001:00073a90       __vswprintf                00474a90 f   LIBCMTD:vswprint.obj
 0001:00073ab0       ___vswprintf_l             00474ab0 f   LIBCMTD:vswprint.obj
 0001:00073ad0       __vscwprintf_helper        00474ad0 f   LIBCMTD:vswprint.obj
 0001:00073bb0       __vscwprintf               00474bb0 f   LIBCMTD:vswprint.obj
 0001:00073bd0       __vscwprintf_l             00474bd0 f   LIBCMTD:vswprint.obj
 0001:00073bf0       __vscwprintf_p             00474bf0 f   LIBCMTD:vswprint.obj
 0001:00073c10       __vscwprintf_p_l           00474c10 f   LIBCMTD:vswprint.obj
 0001:00073c30       ___init_time               00474c30 f   LIBCMTD:inittime.obj
 0001:00074960       ___free_lc_time            00475960 f   LIBCMTD:inittime.obj
 0001:00074fd0       ___init_numeric            00475fd0 f   LIBCMTD:initnum.obj
 0001:00075380       ___free_lconv_num          00476380 f   LIBCMTD:initnum.obj
 0001:00075430       ___init_monetary           00476430 f   LIBCMTD:initmon.obj
 0001:00075a20       ___free_lconv_mon          00476a20 f   LIBCMTD:initmon.obj
 0001:00075bd0       _localeconv                00476bd0 f   LIBCMTD:lconv.obj
 0001:00075c20       ___pwctype_func            00476c20 f   LIBCMTD:ctype.obj
 0001:00075c30       ___pctype_func             00476c30 f   LIBCMTD:ctype.obj
 0001:00075c80       ___crtLCMapStringA         00476c80 f   LIBCMTD:a_map.obj
 0001:00075fc0       ___crtGetStringTypeA       00476fc0 f   LIBCMTD:a_str.obj
 0001:00076130       ___crtMessageBoxA          00477130 f   LIBCMTD:crtmbox.obj
 0001:00076350       __vsprintf_l               00477350 f   LIBCMTD:vsprintf.obj
 0001:000764f0       _vsprintf                  004774f0 f   LIBCMTD:vsprintf.obj
 0001:00076510       __vscprintf_helper         00477510 f   LIBCMTD:vsprintf.obj
 0001:000765f0       __vscprintf                004775f0 f   LIBCMTD:vsprintf.obj
 0001:00076610       __vscprintf_l              00477610 f   LIBCMTD:vsprintf.obj
 0001:00076630       __vscprintf_p              00477630 f   LIBCMTD:vsprintf.obj
 0001:00076650       __vscprintf_p_l            00477650 f   LIBCMTD:vsprintf.obj
 0001:00076670       __fptrap                   00477670 f   LIBCMTD:crt0fp.obj
 0001:00076690       _fputwc                    00477690 f   LIBCMTD:fputwc.obj
 0001:00076790       __fputwc_nolock            00477790 f   LIBCMTD:fputwc.obj
 0001:00076a80       _putwc                     00477a80 f   LIBCMTD:fputwc.obj
 0001:00076aa0       _wcstol                    00477aa0 f   LIBCMTD:wcstol.obj
 0001:00076e70       __wcstol_l                 00477e70 f   LIBCMTD:wcstol.obj
 0001:00076e90       _wcstoul                   00477e90 f   LIBCMTD:wcstol.obj
 0001:00076eb0       __wcstoul_l                00477eb0 f   LIBCMTD:wcstol.obj
 0001:00076ed0       ___init_ctype              00477ed0 f   LIBCMTD:initctyp.obj
 0001:00077480       ____mb_cur_max_func        00478480 f   LIBCMTD:initctyp.obj
 0001:000774d0       ____mb_cur_max_l_func      004784d0 f   LIBCMTD:initctyp.obj
 0001:00077500       ____lc_codepage_func       00478500 f   LIBCMTD:initctyp.obj
 0001:00077550       ____lc_collate_cp_func     00478550 f   LIBCMTD:initctyp.obj
 0001:000775a0       ____lc_handle_func         004785a0 f   LIBCMTD:initctyp.obj
 0001:000775f0       ___init_collate            004785f0 f   LIBCMTD:initcoll.obj
 0001:00077600       _strcspn                   00478600 f   LIBCMTD:strcspn.obj
 0001:00077650       _strncmp                   00478650 f   LIBCMTD:strncmp.obj
 0001:000777d0       _strpbrk                   004787d0 f   LIBCMTD:strpbrk.obj
 0001:00077810       ___get_qualified_locale    00478810 f   LIBCMTD:getqloc.obj
 0001:00078670       __strnicmp_l               00479670 f   LIBCMTD:strnicmp.obj
 0001:000788b0       __strnicmp                 004798b0 f   LIBCMTD:strnicmp.obj
 0001:00078a40       __mbschr_l                 00479a40 f   LIBCMTD:mbschr.obj
 0001:00078bd0       __mbschr                   00479bd0 f   LIBCMTD:mbschr.obj
 0001:00078bf0       _vprintf_helper            00479bf0 f   LIBCMTD:vprintf.obj
 0001:00078d10       __vprintf_l                00479d10 f   LIBCMTD:vprintf.obj
 0001:00078d30       __vprintf_s_l              00479d30 f   LIBCMTD:vprintf.obj
 0001:00078d50       __vprintf_p_l              00479d50 f   LIBCMTD:vprintf.obj
 0001:00078d70       _vprintf                   00479d70 f   LIBCMTD:vprintf.obj
 0001:00078d90       _vprintf_s                 00479d90 f   LIBCMTD:vprintf.obj
 0001:00078db0       __vprintf_p                00479db0 f   LIBCMTD:vprintf.obj
 0001:00078dd0       __iswctype_l               00479dd0 f   LIBCMTD:iswctype.obj
 0001:00078df0       _iswctype                  00479df0 f   LIBCMTD:iswctype.obj
 0001:00078e50       _is_wctype                 00479e50 f   LIBCMTD:iswctype.obj
 0001:00078e70       ___initconout              00479e70 f   LIBCMTD:initcon.obj
 0001:00078ea0       ___termconout              00479ea0 f   LIBCMTD:initcon.obj
 0001:00078ed0       __close                    00479ed0 f   LIBCMTD:close.obj
 0001:000790e0       __close_nolock             0047a0e0 f   LIBCMTD:close.obj
 0001:000791b0       __flswbuf                  0047a1b0 f   LIBCMTD:_flswbuf.obj
 0001:00079490       __wchartodigit             0047a490 f   LIBCMTD:wchtodig.obj
 0001:000797c0       __stricmp_l                0047a7c0 f   LIBCMTD:stricmp.obj
 0001:00079970       ___ascii_stricmp           0047a970 f   LIBCMTD:stricmp.obj
 0001:000799f0       __stricmp                  0047a9f0 f   LIBCMTD:stricmp.obj
 0001:00079b00       __tolower                  0047ab00 f   LIBCMTD:tolower.obj
 0001:00079b10       __tolower_l                0047ab10 f   LIBCMTD:tolower.obj
 0001:00079cf0       _tolower                   0047acf0 f   LIBCMTD:tolower.obj
 0001:00079d40       ___ascii_strnicmp          0047ad40 f   LIBCMTD:_strnicm.obj
 0001:00079dc0       _strchr                    0047adc0 f   LIBCMTD:strchr.obj
 0001:00079dc6       ___from_strstr_to_strchr   0047adc6     LIBCMTD:strchr.obj
 0001:00079e7e       _TlsFree@4                 0047ae7e f   kernel32:KERNEL32.dll
 0001:00079e84       _TlsAlloc@0                0047ae84 f   kernel32:KERNEL32.dll
 0001:00079e8a       _GetSystemTimeAsFileTime@4 0047ae8a f   kernel32:KERNEL32.dll
 0001:00079e90       _CloseHandle@4             0047ae90 f   kernel32:KERNEL32.dll
 0001:00079e96       _WaitForSingleObject@8     0047ae96 f   kernel32:KERNEL32.dll
 0001:00079e9c       _GetVersionExA@4           0047ae9c f   kernel32:KERNEL32.dll
 0001:00079ea2       _CreateSemaphoreA@16       0047aea2 f   kernel32:KERNEL32.dll
 0001:00079ea8       _ReleaseSemaphore@12       0047aea8 f   kernel32:KERNEL32.dll
 0001:00079eae       _InitializeCriticalSection@4 0047aeae f   kernel32:KERNEL32.dll
 0001:00079eb4       _DeleteCriticalSection@4   0047aeb4 f   kernel32:KERNEL32.dll
 0001:00079eba       _LeaveCriticalSection@4    0047aeba f   kernel32:KERNEL32.dll
 0001:00079ec0       _EnterCriticalSection@4    0047aec0 f   kernel32:KERNEL32.dll
 0001:00079ec6       _TlsSetValue@8             0047aec6 f   kernel32:KERNEL32.dll
 0001:00079ecc       _SetThreadPriority@8       0047aecc f   kernel32:KERNEL32.dll
 0001:00079ed2       _CreateThread@24           0047aed2 f   kernel32:KERNEL32.dll
 0001:00079ed8       _TlsGetValue@4             0047aed8 f   kernel32:KERNEL32.dll
 0001:00079ede       _InterlockedIncrement@4    0047aede f   kernel32:KERNEL32.dll
 0001:00079ee4       _InterlockedDecrement@4    0047aee4 f   kernel32:KERNEL32.dll
 0001:00079eea       _Sleep@4                   0047aeea f   kernel32:KERNEL32.dll
 0001:00079ef0       _InterlockedExchange@8     0047aef0 f   kernel32:KERNEL32.dll
 0001:00079ef6       _RtlUnwind@16              0047aef6 f   kernel32:KERNEL32.dll
 0001:00079efc       _GetCommandLineA@0         0047aefc f   kernel32:KERNEL32.dll
 0001:00079f02       _HeapSetInformation@16     0047af02 f   kernel32:KERNEL32.dll
 0001:00079f08       _RaiseException@16         0047af08 f   kernel32:KERNEL32.dll
 0001:00079f0e       _DecodePointer@4           0047af0e f   kernel32:KERNEL32.dll
 0001:00079f14       _EncodePointer@4           0047af14 f   kernel32:KERNEL32.dll
 0001:00079f1a       _GetModuleFileNameW@12     0047af1a f   kernel32:KERNEL32.dll
 0001:00079f20       _WriteConsoleW@20          0047af20 f   kernel32:KERNEL32.dll
 0001:00079f26       _GetFileType@4             0047af26 f   kernel32:KERNEL32.dll
 0001:00079f2c       _GetStdHandle@4            0047af2c f   kernel32:KERNEL32.dll
 0001:00079f32       _TerminateProcess@8        0047af32 f   kernel32:KERNEL32.dll
 0001:00079f38       _GetCurrentProcess@0       0047af38 f   kernel32:KERNEL32.dll
 0001:00079f3e       _UnhandledExceptionFilter@4 0047af3e f   kernel32:KERNEL32.dll
 0001:00079f44       _SetUnhandledExceptionFilter@4 0047af44 f   kernel32:KERNEL32.dll
 0001:00079f4a       _IsDebuggerPresent@0       0047af4a f   kernel32:KERNEL32.dll
 0001:00079f50       _GetCurrentThreadId@0      0047af50 f   kernel32:KERNEL32.dll
 0001:00079f56       _GetProcAddress@8          0047af56 f   kernel32:KERNEL32.dll
 0001:00079f5c       _GetModuleHandleW@4        0047af5c f   kernel32:KERNEL32.dll
 0001:00079f62       _SetLastError@4            0047af62 f   kernel32:KERNEL32.dll
 0001:00079f68       _GetLastError@0            0047af68 f   kernel32:KERNEL32.dll
 0001:00079f6e       _GetCurrentThread@0        0047af6e f   kernel32:KERNEL32.dll
 0001:00079f74       _WideCharToMultiByte@32    0047af74 f   kernel32:KERNEL32.dll
 0001:00079f7a       _MultiByteToWideChar@24    0047af7a f   kernel32:KERNEL32.dll
 0001:00079f80       _lstrlenA@4                0047af80 f   kernel32:KERNEL32.dll
 0001:00079f86       _LoadLibraryW@4            0047af86 f   kernel32:KERNEL32.dll
 0001:00079f8c       _InitializeCriticalSectionAndSpinCount@8 0047af8c f   kernel32:KERNEL32.dll
 0001:00079f92       _FatalAppExitA@8           0047af92 f   kernel32:KERNEL32.dll
 0001:00079f98       _HeapValidate@12           0047af98 f   kernel32:KERNEL32.dll
 0001:00079f9e       _IsBadReadPtr@8            0047af9e f   kernel32:KERNEL32.dll
 0001:00079fa4       _IsProcessorFeaturePresent@4 0047afa4 f   kernel32:KERNEL32.dll
 0001:00079faa       _QueryPerformanceCounter@4 0047afaa f   kernel32:KERNEL32.dll
 0001:00079fb0       _GetTickCount@0            0047afb0 f   kernel32:KERNEL32.dll
 0001:00079fb6       _GetCurrentProcessId@0     0047afb6 f   kernel32:KERNEL32.dll
 0001:00079fbc       _ExitProcess@4             0047afbc f   kernel32:KERNEL32.dll
 0001:00079fc2       _GetModuleFileNameA@12     0047afc2 f   kernel32:KERNEL32.dll
 0001:00079fc8       _FreeEnvironmentStringsW@4 0047afc8 f   kernel32:KERNEL32.dll
 0001:00079fce       _GetEnvironmentStringsW@0  0047afce f   kernel32:KERNEL32.dll
 0001:00079fd4       _SetHandleCount@4          0047afd4 f   kernel32:KERNEL32.dll
 0001:00079fda       _GetStartupInfoW@4         0047afda f   kernel32:KERNEL32.dll
 0001:00079fe0       _HeapCreate@12             0047afe0 f   kernel32:KERNEL32.dll
 0001:00079fe6       _HeapDestroy@4             0047afe6 f   kernel32:KERNEL32.dll
 0001:00079fec       _WriteFile@20              0047afec f   kernel32:KERNEL32.dll
 0001:00079ff2       _GetLocaleInfoW@16         0047aff2 f   kernel32:KERNEL32.dll
 0001:00079ff8       _SetConsoleCtrlHandler@8   0047aff8 f   kernel32:KERNEL32.dll
 0001:00079ffe       _FlushFileBuffers@4        0047affe f   kernel32:KERNEL32.dll
 0001:0007a004       _GetConsoleCP@0            0047b004 f   kernel32:KERNEL32.dll
 0001:0007a00a       _GetConsoleMode@8          0047b00a f   kernel32:KERNEL32.dll
 0001:0007a010       _OutputDebugStringA@4      0047b010 f   kernel32:KERNEL32.dll
 0001:0007a016       _OutputDebugStringW@4      0047b016 f   kernel32:KERNEL32.dll
 0001:0007a01c       _GetACP@0                  0047b01c f   kernel32:KERNEL32.dll
 0001:0007a022       _GetOEMCP@0                0047b022 f   kernel32:KERNEL32.dll
 0001:0007a028       _GetCPInfo@8               0047b028 f   kernel32:KERNEL32.dll
 0001:0007a02e       _IsValidCodePage@4         0047b02e f   kernel32:KERNEL32.dll
 0001:0007a034       _HeapFree@12               0047b034 f   kernel32:KERNEL32.dll
 0001:0007a03a       _HeapAlloc@12              0047b03a f   kernel32:KERNEL32.dll
 0001:0007a040       _GetProcessHeap@0          0047b040 f   kernel32:KERNEL32.dll
 0001:0007a046       _VirtualQuery@12           0047b046 f   kernel32:KERNEL32.dll
 0001:0007a04c       _FreeLibrary@4             0047b04c f   kernel32:KERNEL32.dll
 0001:0007a052       _HeapReAlloc@16            0047b052 f   kernel32:KERNEL32.dll
 0001:0007a058       _HeapSize@12               0047b058 f   kernel32:KERNEL32.dll
 0001:0007a05e       _HeapQueryInformation@20   0047b05e f   kernel32:KERNEL32.dll
 0001:0007a064       _CompareStringW@24         0047b064 f   kernel32:KERNEL32.dll
 0001:0007a06a       _SetEnvironmentVariableA@8 0047b06a f   kernel32:KERNEL32.dll
 0001:0007a070       _SetFilePointer@16         0047b070 f   kernel32:KERNEL32.dll
 0001:0007a076       _SetStdHandle@8            0047b076 f   kernel32:KERNEL32.dll
 0001:0007a07c       _LCMapStringW@24           0047b07c f   kernel32:KERNEL32.dll
 0001:0007a082       _GetStringTypeW@16         0047b082 f   kernel32:KERNEL32.dll
 0001:0007a088       _GetLocaleInfoA@16         0047b088 f   kernel32:KERNEL32.dll
 0001:0007a08e       _IsValidLocale@8           0047b08e f   kernel32:KERNEL32.dll
 0001:0007a094       _EnumSystemLocalesA@8      0047b094 f   kernel32:KERNEL32.dll
 0001:0007a09a       _GetUserDefaultLCID@0      0047b09a f   kernel32:KERNEL32.dll
 0001:0007a0a0       _CreateFileW@28            0047b0a0 f   kernel32:KERNEL32.dll
 0001:0007a0a6       _WSAStartup@8              0047b0a6 f   Ws2_32:WS2_32.dll
 0001:0007a0ac       _WSACleanup@0              0047b0ac f   Ws2_32:WS2_32.dll
 0001:0007a0b2       _closesocket@4             0047b0b2 f   Ws2_32:WS2_32.dll
 0001:0007a0b8       _WSACloseEvent@4           0047b0b8 f   Ws2_32:WS2_32.dll
 0001:0007a0be       _WSASetEvent@4             0047b0be f   Ws2_32:WS2_32.dll
 0001:0007a0c4       _socket@12                 0047b0c4 f   Ws2_32:WS2_32.dll
 0001:0007a0ca       _WSACreateEvent@0          0047b0ca f   Ws2_32:WS2_32.dll
 0001:0007a0d0       _bind@12                   0047b0d0 f   Ws2_32:WS2_32.dll
 0001:0007a0d6       _getsockname@12            0047b0d6 f   Ws2_32:WS2_32.dll
 0001:0007a0dc       _WSAWaitForMultipleEvents@20 0047b0dc f   Ws2_32:WS2_32.dll
 0001:0007a0e2       _connect@12                0047b0e2 f   Ws2_32:WS2_32.dll
 0001:0007a0e8       _WSAEventSelect@12         0047b0e8 f   Ws2_32:WS2_32.dll
 0001:0007a0ee       _ioctlsocket@12            0047b0ee f   Ws2_32:WS2_32.dll
 0001:0007a0f4       _send@16                   0047b0f4 f   Ws2_32:WS2_32.dll
 0001:0007a0fa       _sendto@24                 0047b0fa f   Ws2_32:WS2_32.dll
 0001:0007a100       _WSAGetLastError@0         0047b100 f   Ws2_32:WS2_32.dll
 0001:0007a106       _recv@16                   0047b106 f   Ws2_32:WS2_32.dll
 0001:0007a10c       _recvfrom@24               0047b10c f   Ws2_32:WS2_32.dll
 0001:0007a112       _WSAResetEvent@4           0047b112 f   Ws2_32:WS2_32.dll
 0001:0007a118       _listen@8                  0047b118 f   Ws2_32:WS2_32.dll
 0001:0007a11e       _accept@12                 0047b11e f   Ws2_32:WS2_32.dll
 0001:0007a124       _gethostbyname@4           0047b124 f   Ws2_32:WS2_32.dll
 0001:0007a12a       _setsockopt@20             0047b12a f   Ws2_32:WS2_32.dll
 0001:0007a130       _WSAIoctl@36               0047b130 f   Ws2_32:WS2_32.dll
 0001:0007a136       _GetIfTable@12             0047b136 f   Iphlpapi:IPHLPAPI.DLL
 0001:0007a13c       _GetIpAddrTable@12         0047b13c f   Iphlpapi:IPHLPAPI.DLL
 0001:0007a150       ?Log@Logger@@QAEXPBD@Z     0047b150 f   libTestFramework:Main.obj
 0001:0007a1a0       _main                      0047b1a0 f   libTestFramework:Main.obj
 0001:0007a2b0       ??$MakeFunctorMsg@VLogger@@V1@@OpenHome@@YG?AV?$MemberTranslatorMsg@VLogger@@P81@AEXPBD@Z@0@AAVLogger@@ABQ82@AEXPBD@Z@Z 0047b2b0 f i libTestFramework:Main.obj
 0001:0007a2e0       ??0?$MemberTranslatorMsg@VLogger@@P81@AEXPBD@Z@OpenHome@@QAE@AAVLogger@@ABQ82@AEXPBD@Z@Z 0047b2e0 f i libTestFramework:Main.obj
 0001:0007a320       ?Thunk@?$MemberTranslatorMsg@VLogger@@P81@AEXPBD@Z@OpenHome@@SGXABVFunctorMsg@2@PBD@Z 0047b320 f i libTestFramework:Main.obj
 0002:00000000       __imp__GetIpAddrTable@12   00485000     Iphlpapi:IPHLPAPI.DLL
 0002:00000004       __imp__GetIfTable@12       00485004     Iphlpapi:IPHLPAPI.DLL
 0002:00000008       \177IPHLPAPI_NULL_THUNK_DATA 00485008     Iphlpapi:IPHLPAPI.DLL
 0002:0000000c       __imp__CloseHandle@4       0048500c     kernel32:KERNEL32.dll
 0002:00000010       __imp__WaitForSingleObject@8 00485010     kernel32:KERNEL32.dll
 0002:00000014       __imp__GetVersionExA@4     00485014     kernel32:KERNEL32.dll
 0002:00000018       __imp__CreateSemaphoreA@16 00485018     kernel32:KERNEL32.dll
 0002:0000001c       __imp__ReleaseSemaphore@12 0048501c     kernel32:KERNEL32.dll
 0002:00000020       __imp__InitializeCriticalSection@4 00485020     kernel32:KERNEL32.dll
 0002:00000024       __imp__DeleteCriticalSection@4 00485024     kernel32:KERNEL32.dll
 0002:00000028       __imp__LeaveCriticalSection@4 00485028     kernel32:KERNEL32.dll
 0002:0000002c       __imp__EnterCriticalSection@4 0048502c     kernel32:KERNEL32.dll
 0002:00000030       __imp__TlsSetValue@8       00485030     kernel32:KERNEL32.dll
 0002:00000034       __imp__SetThreadPriority@8 00485034     kernel32:KERNEL32.dll
 0002:00000038       __imp__CreateThread@24     00485038     kernel32:KERNEL32.dll
 0002:0000003c       __imp__TlsGetValue@4       0048503c     kernel32:KERNEL32.dll
 0002:00000040       __imp__InterlockedIncrement@4 00485040     kernel32:KERNEL32.dll
 0002:00000044       __imp__InterlockedDecrement@4 00485044     kernel32:KERNEL32.dll
 0002:00000048       __imp__Sleep@4             00485048     kernel32:KERNEL32.dll
 0002:0000004c       __imp__InterlockedExchange@8 0048504c     kernel32:KERNEL32.dll
 0002:00000050       __imp__RtlUnwind@16        00485050     kernel32:KERNEL32.dll
 0002:00000054       __imp__GetCommandLineA@0   00485054     kernel32:KERNEL32.dll
 0002:00000058       __imp__HeapSetInformation@16 00485058     kernel32:KERNEL32.dll
 0002:0000005c       __imp__RaiseException@16   0048505c     kernel32:KERNEL32.dll
 0002:00000060       __imp__DecodePointer@4     00485060     kernel32:KERNEL32.dll
 0002:00000064       __imp__EncodePointer@4     00485064     kernel32:KERNEL32.dll
 0002:00000068       __imp__GetModuleFileNameW@12 00485068     kernel32:KERNEL32.dll
 0002:0000006c       __imp__WriteConsoleW@20    0048506c     kernel32:KERNEL32.dll
 0002:00000070       __imp__GetFileType@4       00485070     kernel32:KERNEL32.dll
 0002:00000074       __imp__GetStdHandle@4      00485074     kernel32:KERNEL32.dll
 0002:00000078       __imp__TerminateProcess@8  00485078     kernel32:KERNEL32.dll
 0002:0000007c       __imp__GetCurrentProcess@0 0048507c     kernel32:KERNEL32.dll
 0002:00000080       __imp__UnhandledExceptionFilter@4 00485080     kernel32:KERNEL32.dll
 0002:00000084       __imp__SetUnhandledExceptionFilter@4 00485084     kernel32:KERNEL32.dll
 0002:00000088       __imp__IsDebuggerPresent@0 00485088     kernel32:KERNEL32.dll
 0002:0000008c       __imp__GetCurrentThreadId@0 0048508c     kernel32:KERNEL32.dll
 0002:00000090       __imp__GetProcAddress@8    00485090     kernel32:KERNEL32.dll
 0002:00000094       __imp__GetModuleHandleW@4  00485094     kernel32:KERNEL32.dll
 0002:00000098       __imp__SetLastError@4      00485098     kernel32:KERNEL32.dll
 0002:0000009c       __imp__GetLastError@0      0048509c     kernel32:KERNEL32.dll
 0002:000000a0       __imp__GetCurrentThread@0  004850a0     kernel32:KERNEL32.dll
 0002:000000a4       __imp__WideCharToMultiByte@32 004850a4     kernel32:KERNEL32.dll
 0002:000000a8       __imp__MultiByteToWideChar@24 004850a8     kernel32:KERNEL32.dll
 0002:000000ac       __imp__lstrlenA@4          004850ac     kernel32:KERNEL32.dll
 0002:000000b0       __imp__LoadLibraryW@4      004850b0     kernel32:KERNEL32.dll
 0002:000000b4       __imp__InitializeCriticalSectionAndSpinCount@8 004850b4     kernel32:KERNEL32.dll
 0002:000000b8       __imp__FatalAppExitA@8     004850b8     kernel32:KERNEL32.dll
 0002:000000bc       __imp__GetSystemTimeAsFileTime@4 004850bc     kernel32:KERNEL32.dll
 0002:000000c0       __imp__IsBadReadPtr@8      004850c0     kernel32:KERNEL32.dll
 0002:000000c4       __imp__IsProcessorFeaturePresent@4 004850c4     kernel32:KERNEL32.dll
 0002:000000c8       __imp__QueryPerformanceCounter@4 004850c8     kernel32:KERNEL32.dll
 0002:000000cc       __imp__GetTickCount@0      004850cc     kernel32:KERNEL32.dll
 0002:000000d0       __imp__GetCurrentProcessId@0 004850d0     kernel32:KERNEL32.dll
 0002:000000d4       __imp__ExitProcess@4       004850d4     kernel32:KERNEL32.dll
 0002:000000d8       __imp__GetModuleFileNameA@12 004850d8     kernel32:KERNEL32.dll
 0002:000000dc       __imp__FreeEnvironmentStringsW@4 004850dc     kernel32:KERNEL32.dll
 0002:000000e0       __imp__GetEnvironmentStringsW@0 004850e0     kernel32:KERNEL32.dll
 0002:000000e4       __imp__SetHandleCount@4    004850e4     kernel32:KERNEL32.dll
 0002:000000e8       __imp__GetStartupInfoW@4   004850e8     kernel32:KERNEL32.dll
 0002:000000ec       __imp__HeapCreate@12       004850ec     kernel32:KERNEL32.dll
 0002:000000f0       __imp__HeapDestroy@4       004850f0     kernel32:KERNEL32.dll
 0002:000000f4       __imp__WriteFile@20        004850f4     kernel32:KERNEL32.dll
 0002:000000f8       __imp__GetLocaleInfoW@16   004850f8     kernel32:KERNEL32.dll
 0002:000000fc       __imp__SetConsoleCtrlHandler@8 004850fc     kernel32:KERNEL32.dll
 0002:00000100       __imp__FlushFileBuffers@4  00485100     kernel32:KERNEL32.dll
 0002:00000104       __imp__GetConsoleCP@0      00485104     kernel32:KERNEL32.dll
 0002:00000108       __imp__GetConsoleMode@8    00485108     kernel32:KERNEL32.dll
 0002:0000010c       __imp__OutputDebugStringA@4 0048510c     kernel32:KERNEL32.dll
 0002:00000110       __imp__OutputDebugStringW@4 00485110     kernel32:KERNEL32.dll
 0002:00000114       __imp__GetACP@0            00485114     kernel32:KERNEL32.dll
 0002:00000118       __imp__GetOEMCP@0          00485118     kernel32:KERNEL32.dll
 0002:0000011c       __imp__GetCPInfo@8         0048511c     kernel32:KERNEL32.dll
 0002:00000120       __imp__IsValidCodePage@4   00485120     kernel32:KERNEL32.dll
 0002:00000124       __imp__HeapFree@12         00485124     kernel32:KERNEL32.dll
 0002:00000128       __imp__HeapAlloc@12        00485128     kernel32:KERNEL32.dll
 0002:0000012c       __imp__GetProcessHeap@0    0048512c     kernel32:KERNEL32.dll
 0002:00000130       __imp__VirtualQuery@12     00485130     kernel32:KERNEL32.dll
 0002:00000134       __imp__FreeLibrary@4       00485134     kernel32:KERNEL32.dll
 0002:00000138       __imp__HeapReAlloc@16      00485138     kernel32:KERNEL32.dll
 0002:0000013c       __imp__HeapSize@12         0048513c     kernel32:KERNEL32.dll
 0002:00000140       __imp__HeapQueryInformation@20 00485140     kernel32:KERNEL32.dll
 0002:00000144       __imp__CompareStringW@24   00485144     kernel32:KERNEL32.dll
 0002:00000148       __imp__SetEnvironmentVariableA@8 00485148     kernel32:KERNEL32.dll
 0002:0000014c       __imp__SetFilePointer@16   0048514c     kernel32:KERNEL32.dll
 0002:00000150       __imp__SetStdHandle@8      00485150     kernel32:KERNEL32.dll
 0002:00000154       __imp__LCMapStringW@24     00485154     kernel32:KERNEL32.dll
 0002:00000158       __imp__GetStringTypeW@16   00485158     kernel32:KERNEL32.dll
 0002:0000015c       __imp__GetLocaleInfoA@16   0048515c     kernel32:KERNEL32.dll
 0002:00000160       __imp__IsValidLocale@8     00485160     kernel32:KERNEL32.dll
 0002:00000164       __imp__EnumSystemLocalesA@8 00485164     kernel32:KERNEL32.dll
 0002:00000168       __imp__GetUserDefaultLCID@0 00485168     kernel32:KERNEL32.dll
 0002:0000016c       __imp__CreateFileW@28      0048516c     kernel32:KERNEL32.dll
 0002:00000170       __imp__TlsAlloc@0          00485170     kernel32:KERNEL32.dll
 0002:00000174       __imp__HeapValidate@12     00485174     kernel32:KERNEL32.dll
 0002:00000178       __imp__TlsFree@4           00485178     kernel32:KERNEL32.dll
 0002:0000017c       \177KERNEL32_NULL_THUNK_DATA 0048517c     kernel32:KERNEL32.dll
 0002:00000180       __imp__WSACloseEvent@4     00485180     Ws2_32:WS2_32.dll
 0002:00000184       __imp__WSASetEvent@4       00485184     Ws2_32:WS2_32.dll
 0002:00000188       __imp__socket@12           00485188     Ws2_32:WS2_32.dll
 0002:0000018c       __imp__WSACreateEvent@0    0048518c     Ws2_32:WS2_32.dll
 0002:00000190       __imp__bind@12             00485190     Ws2_32:WS2_32.dll
 0002:00000194       __imp__getsockname@12      00485194     Ws2_32:WS2_32.dll
 0002:00000198       __imp__WSAWaitForMultipleEvents@20 00485198     Ws2_32:WS2_32.dll
 0002:0000019c       __imp__connect@12          0048519c     Ws2_32:WS2_32.dll
 0002:000001a0       __imp__WSAEventSelect@12   004851a0     Ws2_32:WS2_32.dll
 0002:000001a4       __imp__ioctlsocket@12      004851a4     Ws2_32:WS2_32.dll
 0002:000001a8       __imp__send@16             004851a8     Ws2_32:WS2_32.dll
 0002:000001ac       __imp__sendto@24           004851ac     Ws2_32:WS2_32.dll
 0002:000001b0       __imp__WSAGetLastError@0   004851b0     Ws2_32:WS2_32.dll
 0002:000001b4       __imp__recv@16             004851b4     Ws2_32:WS2_32.dll
 0002:000001b8       __imp__recvfrom@24         004851b8     Ws2_32:WS2_32.dll
 0002:000001bc       __imp__WSAResetEvent@4     004851bc     Ws2_32:WS2_32.dll
 0002:000001c0       __imp__listen@8            004851c0     Ws2_32:WS2_32.dll
 0002:000001c4       __imp__accept@12           004851c4     Ws2_32:WS2_32.dll
 0002:000001c8       __imp__gethostbyname@4     004851c8     Ws2_32:WS2_32.dll
 0002:000001cc       __imp__setsockopt@20       004851cc     Ws2_32:WS2_32.dll
 0002:000001d0       __imp__WSAIoctl@36         004851d0     Ws2_32:WS2_32.dll
 0002:000001d4       __imp__WSACleanup@0        004851d4     Ws2_32:WS2_32.dll
 0002:000001d8       __imp__WSAStartup@8        004851d8     Ws2_32:WS2_32.dll
 0002:000001dc       __imp__closesocket@4       004851dc     Ws2_32:WS2_32.dll
 0002:000001e0       \177WS2_32_NULL_THUNK_DATA 004851e0     Ws2_32:WS2_32.dll
 0002:000001e4       ___xc_a                    004851e4     LIBCMTD:crt0init.obj
 0002:00000480       ___xc_z                    00485480     LIBCMTD:crt0init.obj
 0002:00000484       ___xi_a                    00485484     LIBCMTD:crt0init.obj
 0002:0000049c       ___xi_z                    0048549c     LIBCMTD:crt0init.obj
 0002:000004a0       ___xp_a                    004854a0     LIBCMTD:crt0init.obj
 0002:000004b0       ___xp_z                    004854b0     LIBCMTD:crt0init.obj
 0002:000004b4       ___xt_a                    004854b4     LIBCMTD:crt0init.obj
 0002:000004b8       ___xt_z                    004854b8     LIBCMTD:crt0init.obj
 0002:000004dc       ?kFudgeFactor@Functor@OpenHome@@2IB 004854dc     TestFifo.obj
 0002:000004e0       ?kFudgeFactor@FunctorAsync@Net@OpenHome@@2IB 004854e0     TestFifo.obj
 0002:000004e4       ?kFudgeFactor@FunctorMsg@OpenHome@@2IB 004854e4     TestFifo.obj
 0002:000004e8       ?has_denorm@_Num_base@std@@2W4float_denorm_style@2@B 004854e8     TestFifo.obj
 0002:000004ec       ?has_denorm_loss@_Num_base@std@@2_NB 004854ec     TestFifo.obj
 0002:000004ed       ?has_infinity@_Num_base@std@@2_NB 004854ed     TestFifo.obj
 0002:000004ee       ?has_quiet_NaN@_Num_base@std@@2_NB 004854ee     TestFifo.obj
 0002:000004ef       ?has_signaling_NaN@_Num_base@std@@2_NB 004854ef     TestFifo.obj
 0002:000004f0       ?is_bounded@_Num_base@std@@2_NB 004854f0     TestFifo.obj
 0002:000004f1       ?is_exact@_Num_base@std@@2_NB 004854f1     TestFifo.obj
 0002:000004f2       ?is_iec559@_Num_base@std@@2_NB 004854f2     TestFifo.obj
 0002:000004f3       ?is_integer@_Num_base@std@@2_NB 004854f3     TestFifo.obj
 0002:000004f4       ?is_modulo@_Num_base@std@@2_NB 004854f4     TestFifo.obj
 0002:000004f5       ?is_signed@_Num_base@std@@2_NB 004854f5     TestFifo.obj
 0002:000004f6       ?is_specialized@_Num_base@std@@2_NB 004854f6     TestFifo.obj
 0002:000004f7       ?tinyness_before@_Num_base@std@@2_NB 004854f7     TestFifo.obj
 0002:000004f8       ?traps@_Num_base@std@@2_NB 004854f8     TestFifo.obj
 0002:000004fc       ?round_style@_Num_base@std@@2W4float_round_style@2@B 004854fc     TestFifo.obj
 0002:00000500       ?digits@_Num_base@std@@2HB 00485500     TestFifo.obj
 0002:00000504       ?digits10@_Num_base@std@@2HB 00485504     TestFifo.obj
 0002:00000508       ?max_digits10@_Num_base@std@@2HB 00485508     TestFifo.obj
 0002:0000050c       ?max_exponent@_Num_base@std@@2HB 0048550c     TestFifo.obj
 0002:00000510       ?max_exponent10@_Num_base@std@@2HB 00485510     TestFifo.obj
 0002:00000514       ?min_exponent@_Num_base@std@@2HB 00485514     TestFifo.obj
 0002:00000518       ?min_exponent10@_Num_base@std@@2HB 00485518     TestFifo.obj
 0002:0000051c       ?radix@_Num_base@std@@2HB  0048551c     TestFifo.obj
 0002:00000520       ?is_bounded@_Num_int_base@std@@2_NB 00485520     TestFifo.obj
 0002:00000521       ?is_exact@_Num_int_base@std@@2_NB 00485521     TestFifo.obj
 0002:00000522       ?is_integer@_Num_int_base@std@@2_NB 00485522     TestFifo.obj
 0002:00000523       ?is_modulo@_Num_int_base@std@@2_NB 00485523     TestFifo.obj
 0002:00000524       ?is_specialized@_Num_int_base@std@@2_NB 00485524     TestFifo.obj
 0002:00000528       ?radix@_Num_int_base@std@@2HB 00485528     TestFifo.obj
 0002:0000052c       ?has_denorm@_Num_float_base@std@@2W4float_denorm_style@2@B 0048552c     TestFifo.obj
 0002:00000530       ?has_denorm_loss@_Num_float_base@std@@2_NB 00485530     TestFifo.obj
 0002:00000531       ?has_infinity@_Num_float_base@std@@2_NB 00485531     TestFifo.obj
 0002:00000532       ?has_quiet_NaN@_Num_float_base@std@@2_NB 00485532     TestFifo.obj
 0002:00000533       ?has_signaling_NaN@_Num_float_base@std@@2_NB 00485533     TestFifo.obj
 0002:00000534       ?is_bounded@_Num_float_base@std@@2_NB 00485534     TestFifo.obj
 0002:00000535       ?is_exact@_Num_float_base@std@@2_NB 00485535     TestFifo.obj
 0002:00000536       ?is_iec559@_Num_float_base@std@@2_NB 00485536     TestFifo.obj
 0002:00000537       ?is_integer@_Num_float_base@std@@2_NB 00485537     TestFifo.obj
 0002:00000538       ?is_modulo@_Num_float_base@std@@2_NB 00485538     TestFifo.obj
 0002:00000539       ?is_signed@_Num_float_base@std@@2_NB 00485539     TestFifo.obj
 0002:0000053a       ?is_specialized@_Num_float_base@std@@2_NB 0048553a     TestFifo.obj
 0002:0000053b       ?tinyness_before@_Num_float_base@std@@2_NB 0048553b     TestFifo.obj
 0002:0000053c       ?traps@_Num_float_base@std@@2_NB 0048553c     TestFifo.obj
 0002:00000540       ?round_style@_Num_float_base@std@@2W4float_round_style@2@B 00485540     TestFifo.obj
 0002:00000544       ?radix@_Num_float_base@std@@2HB 00485544     TestFifo.obj
 0002:00000548       ?is_signed@?$numeric_limits@D@std@@2_NB 00485548     TestFifo.obj
 0002:0000054c       ?digits@?$numeric_limits@D@std@@2HB 0048554c     TestFifo.obj
 0002:00000550       ?digits10@?$numeric_limits@D@std@@2HB 00485550     TestFifo.obj
 0002:00000554       ?max_digits10@?$numeric_limits@D@std@@2HB 00485554     TestFifo.obj
 0002:00000558       ?is_signed@?$numeric_limits@_W@std@@2_NB 00485558     TestFifo.obj
 0002:0000055c       ?digits@?$numeric_limits@_W@std@@2HB 0048555c     TestFifo.obj
 0002:00000560       ?digits10@?$numeric_limits@_W@std@@2HB 00485560     TestFifo.obj
 0002:00000564       ?max_digits10@?$numeric_limits@_W@std@@2HB 00485564     TestFifo.obj
 0002:00000568       ?is_modulo@?$numeric_limits@_N@std@@2_NB 00485568     TestFifo.obj
 0002:00000569       ?is_signed@?$numeric_limits@_N@std@@2_NB 00485569     TestFifo.obj
 0002:0000056c       ?digits@?$numeric_limits@_N@std@@2HB 0048556c     TestFifo.obj
 0002:00000570       ?digits10@?$numeric_limits@_N@std@@2HB 00485570     TestFifo.obj
 0002:00000574       ?max_digits10@?$numeric_limits@_N@std@@2HB 00485574     TestFifo.obj
 0002:00000578       ?is_signed@?$numeric_limits@C@std@@2_NB 00485578     TestFifo.obj
 0002:0000057c       ?digits@?$numeric_limits@C@std@@2HB 0048557c     TestFifo.obj
 0002:00000580       ?digits10@?$numeric_limits@C@std@@2HB 00485580     TestFifo.obj
 0002:00000584       ?max_digits10@?$numeric_limits@C@std@@2HB 00485584     TestFifo.obj
 0002:00000588       ?is_signed@?$numeric_limits@E@std@@2_NB 00485588     TestFifo.obj
 0002:0000058c       ?digits@?$numeric_limits@E@std@@2HB 0048558c     TestFifo.obj
 0002:00000590       ?digits10@?$numeric_limits@E@std@@2HB 00485590     TestFifo.obj
 0002:00000594       ?max_digits10@?$numeric_limits@E@std@@2HB 00485594     TestFifo.obj
 0002:00000598       ?is_signed@?$numeric_limits@F@std@@2_NB 00485598     TestFifo.obj
 0002:0000059c       ?digits@?$numeric_limits@F@std@@2HB 0048559c     TestFifo.obj
 0002:000005a0       ?digits10@?$numeric_limits@F@std@@2HB 004855a0     TestFifo.obj
 0002:000005a4       ?max_digits10@?$numeric_limits@F@std@@2HB 004855a4     TestFifo.obj
 0002:000005a8       ?is_signed@?$numeric_limits@G@std@@2_NB 004855a8     TestFifo.obj
 0002:000005ac       ?digits@?$numeric_limits@G@std@@2HB 004855ac     TestFifo.obj
 0002:000005b0       ?digits10@?$numeric_limits@G@std@@2HB 004855b0     TestFifo.obj
 0002:000005b4       ?max_digits10@?$numeric_limits@G@std@@2HB 004855b4     TestFifo.obj
 0002:000005b8       ?is_signed@?$numeric_limits@H@std@@2_NB 004855b8     TestFifo.obj
 0002:000005bc       ?digits@?$numeric_limits@H@std@@2HB 004855bc     TestFifo.obj
 0002:000005c0       ?digits10@?$numeric_limits@H@std@@2HB 004855c0     TestFifo.obj
 0002:000005c4       ?max_digits10@?$numeric_limits@H@std@@2HB 004855c4     TestFifo.obj
 0002:000005c8       ?is_signed@?$numeric_limits@I@std@@2_NB 004855c8     TestFifo.obj
 0002:000005cc       ?digits@?$numeric_limits@I@std@@2HB 004855cc     TestFifo.obj
 0002:000005d0       ?digits10@?$numeric_limits@I@std@@2HB 004855d0     TestFifo.obj
 0002:000005d4       ?max_digits10@?$numeric_limits@I@std@@2HB 004855d4     TestFifo.obj
 0002:000005d8       ?is_signed@?$numeric_limits@J@std@@2_NB 004855d8     TestFifo.obj
 0002:000005dc       ?digits@?$numeric_limits@J@std@@2HB 004855dc     TestFifo.obj
 0002:000005e0       ?digits10@?$numeric_limits@J@std@@2HB 004855e0     TestFifo.obj
 0002:000005e4       ?max_digits10@?$numeric_limits@J@std@@2HB 004855e4     TestFifo.obj
 0002:000005e8       ?is_signed@?$numeric_limits@K@std@@2_NB 004855e8     TestFifo.obj
 0002:000005ec       ?digits@?$numeric_limits@K@std@@2HB 004855ec     TestFifo.obj
 0002:000005f0       ?digits10@?$numeric_limits@K@std@@2HB 004855f0     TestFifo.obj
 0002:000005f4       ?max_digits10@?$numeric_limits@K@std@@2HB 004855f4     TestFifo.obj
 0002:000005f8       ?is_signed@?$numeric_limits@_J@std@@2_NB 004855f8     TestFifo.obj
 0002:000005fc       ?digits@?$numeric_limits@_J@std@@2HB 004855fc     TestFifo.obj
 0002:00000600       ?digits10@?$numeric_limits@_J@std@@2HB 00485600     TestFifo.obj
 0002:00000604       ?max_digits10@?$numeric_limits@_J@std@@2HB 00485604     TestFifo.obj
 0002:00000608       ?is_signed@?$numeric_limits@_K@std@@2_NB 00485608     TestFifo.obj
 0002:0000060c       ?digits@?$numeric_limits@_K@std@@2HB 0048560c     TestFifo.obj
 0002:00000610       ?digits10@?$numeric_limits@_K@std@@2HB 00485610     TestFifo.obj
 0002:00000614       ?max_digits10@?$numeric_limits@_K@std@@2HB 00485614     TestFifo.obj
 0002:00000618       ?digits@?$numeric_limits@M@std@@2HB 00485618     TestFifo.obj
 0002:0000061c       ?digits10@?$numeric_limits@M@std@@2HB 0048561c     TestFifo.obj
 0002:00000620       ?max_digits10@?$numeric_limits@M@std@@2HB 00485620     TestFifo.obj
 0002:00000624       ?max_exponent@?$numeric_limits@M@std@@2HB 00485624     TestFifo.obj
 0002:00000628       ?max_exponent10@?$numeric_limits@M@std@@2HB 00485628     TestFifo.obj
 0002:0000062c       ?min_exponent@?$numeric_limits@M@std@@2HB 0048562c     TestFifo.obj
 0002:00000630       ?min_exponent10@?$numeric_limits@M@std@@2HB 00485630     TestFifo.obj
 0002:00000634       ?digits@?$numeric_limits@N@std@@2HB 00485634     TestFifo.obj
 0002:00000638       ?digits10@?$numeric_limits@N@std@@2HB 00485638     TestFifo.obj
 0002:0000063c       ?max_digits10@?$numeric_limits@N@std@@2HB 0048563c     TestFifo.obj
 0002:00000640       ?max_exponent@?$numeric_limits@N@std@@2HB 00485640     TestFifo.obj
 0002:00000644       ?max_exponent10@?$numeric_limits@N@std@@2HB 00485644     TestFifo.obj
 0002:00000648       ?min_exponent@?$numeric_limits@N@std@@2HB 00485648     TestFifo.obj
 0002:0000064c       ?min_exponent10@?$numeric_limits@N@std@@2HB 0048564c     TestFifo.obj
 0002:00000650       ?digits@?$numeric_limits@O@std@@2HB 00485650     TestFifo.obj
 0002:00000654       ?digits10@?$numeric_limits@O@std@@2HB 00485654     TestFifo.obj
 0002:00000658       ?max_digits10@?$numeric_limits@O@std@@2HB 00485658     TestFifo.obj
 0002:0000065c       ?max_exponent@?$numeric_limits@O@std@@2HB 0048565c     TestFifo.obj
 0002:00000660       ?max_exponent10@?$numeric_limits@O@std@@2HB 00485660     TestFifo.obj
 0002:00000664       ?min_exponent@?$numeric_limits@O@std@@2HB 00485664     TestFifo.obj
 0002:00000668       ?min_exponent10@?$numeric_limits@O@std@@2HB 00485668     TestFifo.obj
 0002:0000066c       ?value@?$integral_constant@_N$0A@@tr1@std@@2_NB 0048566c     TestFifo.obj
 0002:0000066d       ?value@?$integral_constant@_N$00@tr1@std@@2_NB 0048566d     TestFifo.obj
 0002:00000670       ?value@?$integral_constant@I$0A@@tr1@std@@2IB 00485670     TestFifo.obj
 0002:00000674       ?_Rank@?$_Arithmetic_traits@_N@std@@2HB 00485674     TestFifo.obj
 0002:00000678       ?_Rank@?$_Arithmetic_traits@D@std@@2HB 00485678     TestFifo.obj
 0002:0000067c       ?_Rank@?$_Arithmetic_traits@C@std@@2HB 0048567c     TestFifo.obj
 0002:00000680       ?_Rank@?$_Arithmetic_traits@E@std@@2HB 00485680     TestFifo.obj
 0002:00000684       ?_Rank@?$_Arithmetic_traits@F@std@@2HB 00485684     TestFifo.obj
 0002:00000688       ?_Rank@?$_Arithmetic_traits@G@std@@2HB 00485688     TestFifo.obj
 0002:0000068c       ?_Rank@?$_Arithmetic_traits@H@std@@2HB 0048568c     TestFifo.obj
 0002:00000690       ?_Rank@?$_Arithmetic_traits@I@std@@2HB 00485690     TestFifo.obj
 0002:00000694       ?_Rank@?$_Arithmetic_traits@J@std@@2HB 00485694     TestFifo.obj
 0002:00000698       ?_Rank@?$_Arithmetic_traits@K@std@@2HB 00485698     TestFifo.obj
 0002:0000069c       ?_Rank@?$_Arithmetic_traits@_J@std@@2HB 0048569c     TestFifo.obj
 0002:000006a0       ?_Rank@?$_Arithmetic_traits@_K@std@@2HB 004856a0     TestFifo.obj
 0002:000006a4       ?_Rank@?$_Arithmetic_traits@M@std@@2HB 004856a4     TestFifo.obj
 0002:000006a8       ?_Rank@?$_Arithmetic_traits@N@std@@2HB 004856a8     TestFifo.obj
 0002:000006ac       ?_Rank@?$_Arithmetic_traits@O@std@@2HB 004856ac     TestFifo.obj
 0002:000006b0       ?kNone@Debug@OpenHome@@2IB 004856b0     TestFifo.obj
 0002:000006b4       ?kError@Debug@OpenHome@@2IB 004856b4     TestFifo.obj
 0002:000006b8       ?kThread@Debug@OpenHome@@2IB 004856b8     TestFifo.obj
 0002:000006bc       ?kNetwork@Debug@OpenHome@@2IB 004856bc     TestFifo.obj
 0002:000006c0       ?kTimer@Debug@OpenHome@@2IB 004856c0     TestFifo.obj
 0002:000006c4       ?kSsdpMulticast@Debug@OpenHome@@2IB 004856c4     TestFifo.obj
 0002:000006c8       ?kSsdpUnicast@Debug@OpenHome@@2IB 004856c8     TestFifo.obj
 0002:000006cc       ?kHttp@Debug@OpenHome@@2IB 004856cc     TestFifo.obj
 0002:000006d0       ?kDevice@Debug@OpenHome@@2IB 004856d0     TestFifo.obj
 0002:000006d4       ?kXmlFetch@Debug@OpenHome@@2IB 004856d4     TestFifo.obj
 0002:000006d8       ?kService@Debug@OpenHome@@2IB 004856d8     TestFifo.obj
 0002:000006dc       ?kEvent@Debug@OpenHome@@2IB 004856dc     TestFifo.obj
 0002:000006e0       ?kTopology@Debug@OpenHome@@2IB 004856e0     TestFifo.obj
 0002:000006e4       ?kDvInvocation@Debug@OpenHome@@2IB 004856e4     TestFifo.obj
 0002:000006e8       ?kDvEvent@Debug@OpenHome@@2IB 004856e8     TestFifo.obj
 0002:000006ec       ?kDvWebSocket@Debug@OpenHome@@2IB 004856ec     TestFifo.obj
 0002:000006f0       ?kMedia@Debug@OpenHome@@2IB 004856f0     TestFifo.obj
 0002:000006f4       ?kBonjour@Debug@OpenHome@@2IB 004856f4     TestFifo.obj
 0002:000006f8       ?kAll@Debug@OpenHome@@2IB  004856f8     TestFifo.obj
 0002:000006fc       ?kVerbose@Debug@OpenHome@@2IB 004856fc     TestFifo.obj
 0002:00000700       ?kMaxDebugPrintBytes@Debug@OpenHome@@0IB 00485700     TestFifo.obj
 0002:00000704       ?kWaitForever@Semaphore@OpenHome@@2IB 00485704     TestFifo.obj
 0002:00000708       ?kNameBytes@Thread@OpenHome@@1IB 00485708     TestFifo.obj
 0002:0000164c       ??_7ThreadSafetyTests@@6B@ 0048664c     TestFifo.obj
 0002:00001654       ??_C@_04BKMDBJIC@THST?$AA@ 00486654     TestFifo.obj
 0002:00001660       ??_7SuiteFifoBasic@@6B@    00486660     TestFifo.obj
 0002:00001668       ??_C@_0CD@FDDADHLP@Single?5threaded?5basic?5Fifo?5testi@ 00486668     TestFifo.obj
 0002:00001690       ??_7SuiteFifoThreadSafety@@6B@ 00486690     TestFifo.obj
 0002:00001698       ??_C@_0CO@HOGGPBKP@Fifo?5thread?5safety?5multiple?5writ@ 00486698     TestFifo.obj
 0002:000016cc       ??_7SuiteFifoLiteBasic@@6B@ 004866cc     TestFifo.obj
 0002:000016d4       ??_C@_0BB@KFHGIBIN@FifoLite?5testing?$AA@ 004866d4     TestFifo.obj
 0002:000016e8       ?kMaxAddressBytes@Endpoint@OpenHome@@2IB 004866e8     libTestFramework:TestFramework.obj
 0002:000016ec       ?kMaxEndpointBytes@Endpoint@OpenHome@@2IB 004866ec     libTestFramework:TestFramework.obj
 0002:000016f0       ?kLogNone@Socket@OpenHome@@0IB 004866f0     libTestFramework:TestFramework.obj
 0002:000016f4       ?kLogPlainText@Socket@OpenHome@@0IB 004866f4     libTestFramework:TestFramework.obj
 0002:000016f8       ?kLogHex@Socket@OpenHome@@0IB 004866f8     libTestFramework:TestFramework.obj
 0002:00001900       ??_C@_0BA@KCEOBHMI@AssertionFailed?$AA@ 00486900     libTestFramework:TestFramework.obj
 0002:00001914       ??_7Suite@TestFramework@OpenHome@@6B@ 00486914     libTestFramework:TestFramework.obj
 0002:000019a4       ??_C@_0O@JBIEMMJM@FifoReadError?$AA@ 004869a4     libohNetCore:Fifo.obj
 0002:000019b4       ?kListenerIdNull@NetworkAdapterList@OpenHome@@2IB 004869b4     libohNetCore:Thread.obj
 0002:000019b8       ?kNul@Ascii@OpenHome@@2EB  004869b8     libohNetCore:Thread.obj
 0002:000019b9       ?kSoh@Ascii@OpenHome@@2EB  004869b9     libohNetCore:Thread.obj
 0002:000019ba       ?kStx@Ascii@OpenHome@@2EB  004869ba     libohNetCore:Thread.obj
 0002:000019bb       ?kEtx@Ascii@OpenHome@@2EB  004869bb     libohNetCore:Thread.obj
 0002:000019bc       ?kEot@Ascii@OpenHome@@2EB  004869bc     libohNetCore:Thread.obj
 0002:000019bd       ?kEnq@Ascii@OpenHome@@2EB  004869bd     libohNetCore:Thread.obj
 0002:000019be       ?kAck@Ascii@OpenHome@@2EB  004869be     libohNetCore:Thread.obj
 0002:000019bf       ?kBel@Ascii@OpenHome@@2EB  004869bf     libohNetCore:Thread.obj
 0002:000019c0       ?kBs@Ascii@OpenHome@@2EB   004869c0     libohNetCore:Thread.obj
 0002:000019c1       ?kHt@Ascii@OpenHome@@2EB   004869c1     libohNetCore:Thread.obj
 0002:000019c2       ?kLf@Ascii@OpenHome@@2EB   004869c2     libohNetCore:Thread.obj
 0002:000019c3       ?kVt@Ascii@OpenHome@@2EB   004869c3     libohNetCore:Thread.obj
 0002:000019c4       ?kFf@Ascii@OpenHome@@2EB   004869c4     libohNetCore:Thread.obj
 0002:000019c5       ?kCr@Ascii@OpenHome@@2EB   004869c5     libohNetCore:Thread.obj
 0002:000019c6       ?kSo@Ascii@OpenHome@@2EB   004869c6     libohNetCore:Thread.obj
 0002:000019c7       ?kSi@Ascii@OpenHome@@2EB   004869c7     libohNetCore:Thread.obj
 0002:000019c8       ?kDle@Ascii@OpenHome@@2EB  004869c8     libohNetCore:Thread.obj
 0002:000019c9       ?kDc1@Ascii@OpenHome@@2EB  004869c9     libohNetCore:Thread.obj
 0002:000019ca       ?kDc2@Ascii@OpenHome@@2EB  004869ca     libohNetCore:Thread.obj
 0002:000019cb       ?kDc3@Ascii@OpenHome@@2EB  004869cb     libohNetCore:Thread.obj
 0002:000019cc       ?kDc4@Ascii@OpenHome@@2EB  004869cc     libohNetCore:Thread.obj
 0002:000019cd       ?kNak@Ascii@OpenHome@@2EB  004869cd     libohNetCore:Thread.obj
 0002:000019ce       ?kSyn@Ascii@OpenHome@@2EB  004869ce     libohNetCore:Thread.obj
 0002:000019cf       ?kEtb@Ascii@OpenHome@@2EB  004869cf     libohNetCore:Thread.obj
 0002:000019d0       ?kCan@Ascii@OpenHome@@2EB  004869d0     libohNetCore:Thread.obj
 0002:000019d1       ?kEm@Ascii@OpenHome@@2EB   004869d1     libohNetCore:Thread.obj
 0002:000019d2       ?kSub@Ascii@OpenHome@@2EB  004869d2     libohNetCore:Thread.obj
 0002:000019d3       ?kEsc@Ascii@OpenHome@@2EB  004869d3     libohNetCore:Thread.obj
 0002:000019d4       ?kFs@Ascii@OpenHome@@2EB   004869d4     libohNetCore:Thread.obj
 0002:000019d5       ?kGs@Ascii@OpenHome@@2EB   004869d5     libohNetCore:Thread.obj
 0002:000019d6       ?kRs@Ascii@OpenHome@@2EB   004869d6     libohNetCore:Thread.obj
 0002:000019d7       ?kUs@Ascii@OpenHome@@2EB   004869d7     libohNetCore:Thread.obj
 0002:000019d8       ?kSp@Ascii@OpenHome@@2EB   004869d8     libohNetCore:Thread.obj
 0002:000019d9       ?kDel@Ascii@OpenHome@@2EB  004869d9     libohNetCore:Thread.obj
 0002:000019dc       ?kMaxIntStringBytes@Ascii@OpenHome@@2IB 004869dc     libohNetCore:Thread.obj
 0002:000019e0       ?kMaxUintStringBytes@Ascii@OpenHome@@2IB 004869e0     libohNetCore:Thread.obj
 0002:000019e4       ?kMaxInt64StringBytes@Ascii@OpenHome@@2IB 004869e4     libohNetCore:Thread.obj
 0002:000019e8       ?kMaxUint64StringBytes@Ascii@OpenHome@@2IB 004869e8     libohNetCore:Thread.obj
 0002:000019ec       ?kMaxUintHexStringBytes@Ascii@OpenHome@@2IB 004869ec     libohNetCore:Thread.obj
 0002:000019f0       ?kMaxByteHexStringBytes@Ascii@OpenHome@@2IB 004869f0     libohNetCore:Thread.obj
 0002:000019f4       ?kMaxDirLevels@Uri@OpenHome@@2IB 004869f4     libohNetCore:Thread.obj
 0002:000019f8       ?kMaxUriBytes@Uri@OpenHome@@2IB 004869f8     libohNetCore:Thread.obj
 0002:000019fc       ?kInformationCodes@HttpStatus@OpenHome@@2IB 004869fc     libohNetCore:Thread.obj
 0002:00001a00       ?kSuccessCodes@HttpStatus@OpenHome@@2IB 00486a00     libohNetCore:Thread.obj
 0002:00001a04       ?kRedirectionCodes@HttpStatus@OpenHome@@2IB 00486a04     libohNetCore:Thread.obj
 0002:00001a08       ?kClientErrorCodes@HttpStatus@OpenHome@@2IB 00486a08     libohNetCore:Thread.obj
 0002:00001a0c       ?kServerErrorCodes@HttpStatus@OpenHome@@2IB 00486a0c     libohNetCore:Thread.obj
 0002:00001a10       ?kMaxMethodBytes@ReaderHttpRequest@OpenHome@@0IB 00486a10     libohNetCore:Thread.obj
 0002:00001a14       ?kMaxUriBytes@ReaderHttpRequest@OpenHome@@0IB 00486a14     libohNetCore:Thread.obj
 0002:00001a18       ?kMaxDescriptionBytes@ReaderHttpResponse@OpenHome@@2IB 00486a18     libohNetCore:Thread.obj
 0002:00001a1c       ?kMaxUriBytes@ReaderHttpResponse@OpenHome@@2IB 00486a1c     libohNetCore:Thread.obj
 0002:00001a20       ?kMaxLocationBytes@HttpHeaderLocation@OpenHome@@0IB 00486a20     libohNetCore:Thread.obj
 0002:00001a24       ?kMaxTypeBytes@HttpHeaderContentType@OpenHome@@0IB 00486a24     libohNetCore:Thread.obj
 0002:00001a28       ?kMaxBufferBytes@WriterHttpChunked@OpenHome@@0IB 00486a28     libohNetCore:Thread.obj
 0002:00001a2c       ?kMaxUuidBytes@SsdpHeaderSt@Net@OpenHome@@0IB 00486a2c     libohNetCore:Thread.obj
 0002:00001a30       ?kMaxDomainBytes@SsdpHeaderSt@Net@OpenHome@@0IB 00486a30     libohNetCore:Thread.obj
 0002:00001a34       ?kMaxTypeBytes@SsdpHeaderSt@Net@OpenHome@@0IB 00486a34     libohNetCore:Thread.obj
 0002:00001a38       ?kMaxUuidBytes@SsdpHeaderNt@Net@OpenHome@@0IB 00486a38     libohNetCore:Thread.obj
 0002:00001a3c       ?kMaxDomainBytes@SsdpHeaderNt@Net@OpenHome@@0IB 00486a3c     libohNetCore:Thread.obj
 0002:00001a40       ?kMaxTypeBytes@SsdpHeaderNt@Net@OpenHome@@0IB 00486a40     libohNetCore:Thread.obj
 0002:00001a44       ?kMaxUuidBytes@SsdpHeaderUsn@Net@OpenHome@@0IB 00486a44     libohNetCore:Thread.obj
 0002:00001a48       ?kMaxDomainBytes@SsdpHeaderUsn@Net@OpenHome@@0IB 00486a48     libohNetCore:Thread.obj
 0002:00001a4c       ?kMaxTypeBytes@SsdpHeaderUsn@Net@OpenHome@@0IB 00486a4c     libohNetCore:Thread.obj
 0002:00001a50       ?kMinMsearchSeconds@SsdpWriterMsearchRequest@Net@OpenHome@@0IB 00486a50     libohNetCore:Thread.obj
 0002:00001a54       ?kMaxMsearchSeconds@SsdpWriterMsearchRequest@Net@OpenHome@@0IB 00486a54     libohNetCore:Thread.obj
 0002:00001a58       ?kMaxBufferBytes@SsdpNotifier@Net@OpenHome@@0IB 00486a58     libohNetCore:Thread.obj
 0002:00001a5c       ?kTimeToLive@SsdpNotifier@Net@OpenHome@@0IB 00486a5c     libohNetCore:Thread.obj
 0002:00001a60       ?kMaxBufferBytes@SsdpMsearchResponder@Net@OpenHome@@0IB 00486a60     libohNetCore:Thread.obj
 0002:00001a64       ?kPriority@SsdpListener@Net@OpenHome@@0IB 00486a64     libohNetCore:Thread.obj
 0002:00001a68       ?kMaxBufferBytes@SsdpListenerMulticast@Net@OpenHome@@0IB 00486a68     libohNetCore:Thread.obj
 0002:00001a6c       ?kRecvBufBytes@SsdpListenerMulticast@Net@OpenHome@@0IB 00486a6c     libohNetCore:Thread.obj
 0002:00001a70       ?kMaxBufferBytes@SsdpListenerUnicast@Net@OpenHome@@0IB 00486a70     libohNetCore:Thread.obj
 0002:00001a74       ?kRecvBufBytes@SsdpListenerUnicast@Net@OpenHome@@0IB 00486a74     libohNetCore:Thread.obj
 0002:00001b88       ?kDefaultStackBytes@Thread@OpenHome@@2IB 00486b88     libohNetCore:Thread.obj
 0002:00001d04       ??_7Semaphore@OpenHome@@6B@ 00486d04     libohNetCore:Thread.obj
 0002:00001d0c       ??_7bad_alloc@std@@6B@     00486d0c     libohNetCore:Thread.obj
 0002:00001d14       ??_C@_0P@GHFPNOJB@bad?5allocation?$AA@ 00486d14     libohNetCore:Thread.obj
 0002:00001d24       ??_C@_0CO@DMLLNKJC@C?3?2git?2ohnet?2Upnp?2Build?2Include?2@ 00486d24     libohNetCore:Thread.obj
 0002:00001d54       ??_C@_07MKALMBDJ@Timeout?$AA@ 00486d54     libohNetCore:Thread.obj
 0002:00001d60       ??_7Mutex@OpenHome@@6B@    00486d60     libohNetCore:Thread.obj
 0002:00001d68       ??_7Brhz@OpenHome@@6B@     00486d68     libohNetCore:Thread.obj
 0002:00001d74       ??_7Brv@OpenHome@@6B@      00486d74     libohNetCore:Thread.obj
 0002:00001d80       ??_7Brx@OpenHome@@6B@      00486d80     libohNetCore:Thread.obj
 0002:00001d8c       ??_7Thread@OpenHome@@6B@   00486d8c     libohNetCore:Thread.obj
 0002:00001d94       ??_C@_0L@IHFNCMJO@ThreadKill?$AA@ 00486d94     libohNetCore:Thread.obj
 0002:00001da4       ??_7ThreadFunctor@OpenHome@@6B@ 00486da4     libohNetCore:Thread.obj
 0002:00001db0       ??_7?$Bws@$04@OpenHome@@6B@ 00486db0     libohNetCore:Thread.obj
 0002:00002010       ??_7DefaultAsyncHandler@Net@OpenHome@@6B@ 00487010     libohNetCore:OhNet.obj
 0002:00002018       ??_7IAsyncOutput@Net@OpenHome@@6B@ 00487018     libohNetCore:OhNet.obj
 0002:0000201c       ??_C@_1BO@MEPPHOO@?$AA?$CC?$AAo?$AAu?$AAt?$AA?5?$AAo?$AAf?$AA?5?$AAr?$AAa?$AAn?$AAg?$AAe?$AA?$CC?$AA?$AA@ 0048701c     libohNetCore:OhNet.obj
 0002:00002040       ??_C@_1OG@JCALBKPI@?$AAs?$AAt?$AAd?$AA?3?$AA?3?$AAv?$AAe?$AAc?$AAt?$AAo?$AAr?$AA?$DM?$AAc?$AAl?$AAa?$AAs?$AAs?$AA?5?$AAO?$AAp?$AAe?$AAn?$AAH?$AAo?$AAm?$AAe?$AA?3?$AA?3?$AAN?$AAe?$AAt?$AAw@ 00487040     libohNetCore:OhNet.obj
 0002:00002128       ??_C@_1FG@IBPIFFN@?$AA?$CC?$AAS?$AAt?$AAa?$AAn?$AAd?$AAa?$AAr?$AAd?$AA?5?$AAC?$AA?$CL?$AA?$CL?$AA?5?$AAL?$AAi?$AAb?$AAr?$AAa?$AAr?$AAi?$AAe?$AAs?$AA?5?$AAO?$AAu?$AAt?$AA?5?$AAo?$AAf?$AA?5?$AAR@ 00487128     libohNetCore:OhNet.obj
 0002:00002180       ??_C@_0CE@OFMIGAMM@Standard?5C?$CL?$CL?5Libraries?5Out?5of?5Ra@ 00487180     libohNetCore:OhNet.obj
 0002:000021a4       ??_C@_1DM@LHGCHCBA@?$AAv?$AAe?$AAc?$AAt?$AAo?$AAr?$AA?5?$AAs?$AAu?$AAb?$AAs?$AAc?$AAr?$AAi?$AAp?$AAt?$AA?5?$AAo?$AAu?$AAt?$AA?5?$AAo?$AAf?$AA?5?$AAr?$AAa?$AAn?$AAg?$AAe?$AA?$AA@ 004871a4     libohNetCore:OhNet.obj
 0002:000021e0       ??_C@_1IM@KDKPEFIN@?$AAc?$AA?3?$AA?2?$AAP?$AAr?$AAo?$AAg?$AAr?$AAa?$AAm?$AA?5?$AAF?$AAi?$AAl?$AAe?$AAs?$AA?5?$AA?$CI?$AAx?$AA8?$AA6?$AA?$CJ?$AA?2?$AAM?$AAi?$AAc?$AAr?$AAo?$AAs?$AAo?$AAf?$AAt@ 004871e0     libohNetCore:OhNet.obj
 0002:000022b0       ??_7?$Bws@$0EAB@@OpenHome@@6B@ 004872b0     libohNetCore:Printer.obj
 0002:000025ac       ??_7TimerManager@OpenHome@@6B@ 004875ac     libohNetCore:Timer.obj
 0002:000025bc       ??_7?$QueueSorted@VTimer@OpenHome@@@OpenHome@@6B@ 004875bc     libohNetCore:Timer.obj
 0002:000027b0       ??_7Brn@OpenHome@@6B@      004877b0     libohNetCore:Buffer.obj
 0002:000027bc       ??_7Brh@OpenHome@@6B@      004877bc     libohNetCore:Buffer.obj
 0002:000027c8       ??_7Bwx@OpenHome@@6B@      004877c8     libohNetCore:Buffer.obj
 0002:000027d0       ??_C@_0P@CONMHKFL@BufferOverflow?$AA@ 004877d0     libohNetCore:Buffer.obj
 0002:000027e0       ??_C@_0L@KPHCNFND@BufferFull?$AA@ 004877e0     libohNetCore:Buffer.obj
 0002:000027f0       ??_7Bwn@OpenHome@@6B@      004877f0     libohNetCore:Buffer.obj
 0002:000027fc       ??_7Bwh@OpenHome@@6B@      004877fc     libohNetCore:Buffer.obj
 0002:00002804       ?kOhNetMimeTypeCss@@3QBDB  00487804     libohNetCore:Stack.obj
 0002:00002810       ?kOhNetMimeTypeHtml@@3QBDB 00487810     libohNetCore:Stack.obj
 0002:0000281c       ?kOhNetMimeTypeJs@@3QBDB   0048781c     libohNetCore:Stack.obj
 0002:00002838       ?kOhNetMimeTypeXml@@3QBDB  00487838     libohNetCore:Stack.obj
 0002:00002848       ?kOhNetMimeTypeBmp@@3QBDB  00487848     libohNetCore:Stack.obj
 0002:00002854       ?kOhNetMimeTypeGif@@3QBDB  00487854     libohNetCore:Stack.obj
 0002:00002860       ?kOhNetMimeTypeJpeg@@3QBDB 00487860     libohNetCore:Stack.obj
 0002:0000286c       ?kOhNetMimeTypePng@@3QBDB  0048786c     libohNetCore:Stack.obj
 0002:00002940       ??_C@_1DC@POOIKBAO@?$AAI?$AAT?$AAE?$AAR?$AAA?$AAT?$AAO?$AAR?$AA?5?$AAL?$AAI?$AAS?$AAT?$AA?5?$AAC?$AAO?$AAR?$AAR?$AAU?$AAP?$AAT?$AAE?$AAD?$AA?$CB?$AA?$AA@ 00487940     libohNetCore:Stack.obj
 0002:00002978       ??_C@_1JA@CNICBDKP@?$AAc?$AA?3?$AA?2?$AAP?$AAr?$AAo?$AAg?$AAr?$AAa?$AAm?$AA?5?$AAF?$AAi?$AAl?$AAe?$AAs?$AA?5?$AA?$CI?$AAx?$AA8?$AA6?$AA?$CJ?$AA?2?$AAM?$AAi?$AAc?$AAr?$AAo?$AAs?$AAo?$AAf?$AAt@ 00487978     libohNetCore:Stack.obj
 0002:00002a08       ??_C@_1EK@PPDBPCAN@?$AAm?$AAa?$AAp?$AA?1?$AAs?$AAe?$AAt?$AA?5?$AAe?$AAr?$AAa?$AAs?$AAe?$AA?5?$AAi?$AAt?$AAe?$AAr?$AAa?$AAt?$AAo?$AAr?$AA?5?$AAo?$AAu?$AAt?$AAs?$AAi?$AAd?$AAe?$AA?5?$AAr@ 00487a08     libohNetCore:Stack.obj
 0002:00002a58       ??_C@_1IK@CBDBGEL@?$AAc?$AA?3?$AA?2?$AAP?$AAr?$AAo?$AAg?$AAr?$AAa?$AAm?$AA?5?$AAF?$AAi?$AAl?$AAe?$AAs?$AA?5?$AA?$CI?$AAx?$AA8?$AA6?$AA?$CJ?$AA?2?$AAM?$AAi?$AAc?$AAr?$AAo?$AAs?$AAo?$AAf?$AAt@ 00487a58     libohNetCore:Stack.obj
 0002:00002ae8       ??_C@_1BAC@KDFNAFOI@?$AAs?$AAt?$AAd?$AA?3?$AA?3?$AAv?$AAe?$AAc?$AAt?$AAo?$AAr?$AA?$DM?$AAc?$AAl?$AAa?$AAs?$AAs?$AA?5?$AAO?$AAp?$AAe?$AAn?$AAH?$AAo?$AAm?$AAe?$AA?3?$AA?3?$AAN?$AAe?$AAt?$AA?3@ 00487ae8     libohNetCore:Stack.obj
 0002:00002bf0       ??_C@_1EI@HGIDLLCM@?$AAv?$AAe?$AAc?$AAt?$AAo?$AAr?$AA?5?$AAe?$AAr?$AAa?$AAs?$AAe?$AA?5?$AAi?$AAt?$AAe?$AAr?$AAa?$AAt?$AAo?$AAr?$AA?5?$AAo?$AAu?$AAt?$AAs?$AAi?$AAd?$AAe?$AA?5?$AAr?$AAa@ 00487bf0     libohNetCore:Stack.obj
 0002:00002c38       ??_C@_1CDO@JFIJPCE@?$AAs?$AAt?$AAd?$AA?3?$AA?3?$AA_?$AAT?$AAr?$AAe?$AAe?$AA_?$AAc?$AAo?$AAn?$AAs?$AAt?$AA_?$AAi?$AAt?$AAe?$AAr?$AAa?$AAt?$AAo?$AAr?$AA?$DM?$AAc?$AAl?$AAa?$AAs?$AAs?$AA?5@ 00487c38     libohNetCore:Stack.obj
 0002:00002e78       ??_C@_1EG@EHJFMBHJ@?$AAm?$AAa?$AAp?$AA?1?$AAs?$AAe?$AAt?$AA?5?$AAi?$AAt?$AAe?$AAr?$AAa?$AAt?$AAo?$AAr?$AA?5?$AAn?$AAo?$AAt?$AA?5?$AAi?$AAn?$AAc?$AAr?$AAe?$AAm?$AAe?$AAn?$AAt?$AAa?$AAb@ 00487e78     libohNetCore:Stack.obj
 0002:00002ec0       ??_C@_1CG@JNLFBNGN@?$AA?$CC?$AAi?$AAn?$AAv?$AAa?$AAl?$AAi?$AAd?$AA?5?$AAa?$AAr?$AAg?$AAu?$AAm?$AAe?$AAn?$AAt?$AA?$CC?$AA?$AA@ 00487ec0     libohNetCore:Stack.obj
 0002:00002ee8       ??_C@_1CDO@KJKFHGOB@?$AAs?$AAt?$AAd?$AA?3?$AA?3?$AA_?$AAT?$AAr?$AAe?$AAe?$AA_?$AAc?$AAo?$AAn?$AAs?$AAt?$AA_?$AAi?$AAt?$AAe?$AAr?$AAa?$AAt?$AAo?$AAr?$AA?$DM?$AAc?$AAl?$AAa?$AAs?$AAs?$AA?5@ 00487ee8     libohNetCore:Stack.obj
 0002:00003128       ??_C@_1FO@GJIHNDLM@?$AA?$CC?$AAS?$AAt?$AAa?$AAn?$AAd?$AAa?$AAr?$AAd?$AA?5?$AAC?$AA?$CL?$AA?$CL?$AA?5?$AAL?$AAi?$AAb?$AAr?$AAa?$AAr?$AAi?$AAe?$AAs?$AA?5?$AAI?$AAn?$AAv?$AAa?$AAl?$AAi?$AAd?$AA?5@ 00488128     libohNetCore:Stack.obj
 0002:00003188       ??_C@_0CI@FNPHFCCM@Standard?5C?$CL?$CL?5Libraries?5Invalid?5A@ 00488188     libohNetCore:Stack.obj
 0002:000031b0       ??_C@_1DO@CFEEPGGJ@?$AAm?$AAa?$AAp?$AA?1?$AAs?$AAe?$AAt?$AA?5?$AAi?$AAt?$AAe?$AAr?$AAa?$AAt?$AAo?$AAr?$AAs?$AA?5?$AAi?$AAn?$AAc?$AAo?$AAm?$AAp?$AAa?$AAt?$AAi?$AAb?$AAl?$AAe?$AA?$AA@ 004881b0     libohNetCore:Stack.obj
 0002:000031f0       ??_C@_1BHO@EGFLFDNA@?$AAs?$AAt?$AAd?$AA?3?$AA?3?$AA_?$AAT?$AAr?$AAe?$AAe?$AA_?$AAc?$AAo?$AAn?$AAs?$AAt?$AA_?$AAi?$AAt?$AAe?$AAr?$AAa?$AAt?$AAo?$AAr?$AA?$DM?$AAc?$AAl?$AAa?$AAs?$AAs?$AA?5@ 004881f0     libohNetCore:Stack.obj
 0002:00003370       ??_C@_1BHO@OGKGLKBF@?$AAs?$AAt?$AAd?$AA?3?$AA?3?$AA_?$AAT?$AAr?$AAe?$AAe?$AA_?$AAc?$AAo?$AAn?$AAs?$AAt?$AA_?$AAi?$AAt?$AAe?$AAr?$AAa?$AAt?$AAo?$AAr?$AA?$DM?$AAc?$AAl?$AAa?$AAs?$AAs?$AA?5@ 00488370     libohNetCore:Stack.obj
 0002:000034f0       ??_C@_0BD@OLBABOEK@vector?$DMT?$DO?5too?5long?$AA@ 004884f0     libohNetCore:Stack.obj
 0002:00003508       ??_C@_1BFE@LJAAGJKJ@?$AAs?$AAt?$AAd?$AA?3?$AA?3?$AA_?$AAV?$AAe?$AAc?$AAt?$AAo?$AAr?$AA_?$AAc?$AAo?$AAn?$AAs?$AAt?$AA_?$AAi?$AAt?$AAe?$AAr?$AAa?$AAt?$AAo?$AAr?$AA?$DM?$AAc?$AAl?$AAa?$AAs@ 00488508     libohNetCore:Stack.obj
 0002:00003660       ??_C@_1EM@FKAOCOMF@?$AAv?$AAe?$AAc?$AAt?$AAo?$AAr?$AA?5?$AAi?$AAt?$AAe?$AAr?$AAa?$AAt?$AAo?$AAr?$AA?5?$AA?$CL?$AA?5?$AAo?$AAf?$AAf?$AAs?$AAe?$AAt?$AA?5?$AAo?$AAu?$AAt?$AA?5?$AAo?$AAf?$AA?5@ 00488660     libohNetCore:Stack.obj
 0002:000036b0       ??_C@_1CDM@BDKCLKAO@?$AAs?$AAt?$AAd?$AA?3?$AA?3?$AA_?$AAT?$AAr?$AAe?$AAe?$AA_?$AAc?$AAo?$AAn?$AAs?$AAt?$AA_?$AAi?$AAt?$AAe?$AAr?$AAa?$AAt?$AAo?$AAr?$AA?$DM?$AAc?$AAl?$AAa?$AAs?$AAs?$AA?5@ 004886b0     libohNetCore:Stack.obj
 0002:000038f0       ??_C@_1EI@FHEHNNNM@?$AAm?$AAa?$AAp?$AA?1?$AAs?$AAe?$AAt?$AA?5?$AAi?$AAt?$AAe?$AAr?$AAa?$AAt?$AAo?$AAr?$AA?5?$AAn?$AAo?$AAt?$AA?5?$AAd?$AAe?$AAr?$AAe?$AAf?$AAe?$AAr?$AAe?$AAn?$AAc?$AAa@ 004888f0     libohNetCore:Stack.obj
 0002:00003938       ??_C@_1BHM@PLAJNGCA@?$AAs?$AAt?$AAd?$AA?3?$AA?3?$AA_?$AAT?$AAr?$AAe?$AAe?$AA_?$AAc?$AAo?$AAn?$AAs?$AAt?$AA_?$AAi?$AAt?$AAe?$AAr?$AAa?$AAt?$AAo?$AAr?$AA?$DM?$AAc?$AAl?$AAa?$AAs?$AAs?$AA?5@ 00488938     libohNetCore:Stack.obj
 0002:00003ab4       ??_C@_1CE@IGJMOCCK@?$AAi?$AAn?$AAv?$AAa?$AAl?$AAi?$AAd?$AA?5?$AAo?$AAp?$AAe?$AAr?$AAa?$AAt?$AAo?$AAr?$AA?$DM?$AA?$AA@ 00488ab4     libohNetCore:Stack.obj
 0002:00003ad8       ??_C@_0BE@JONHPENG@map?1set?$DMT?$DO?5too?5long?$AA@ 00488ad8     libohNetCore:Stack.obj
 0002:00003af0       ??_C@_1CDO@PKGKCDOF@?$AAs?$AAt?$AAd?$AA?3?$AA?3?$AA_?$AAT?$AAr?$AAe?$AAe?$AA_?$AAc?$AAo?$AAn?$AAs?$AAt?$AA_?$AAi?$AAt?$AAe?$AAr?$AAa?$AAt?$AAo?$AAr?$AA?$DM?$AAc?$AAl?$AAa?$AAs?$AAs?$AA?5@ 00488af0     libohNetCore:Stack.obj
 0002:00003d30       ??_C@_1EG@OKCGOALM@?$AAm?$AAa?$AAp?$AA?1?$AAs?$AAe?$AAt?$AA?5?$AAi?$AAt?$AAe?$AAr?$AAa?$AAt?$AAo?$AAr?$AA?5?$AAn?$AAo?$AAt?$AA?5?$AAd?$AAe?$AAc?$AAr?$AAe?$AAm?$AAe?$AAn?$AAt?$AAa?$AAb@ 00488d30     libohNetCore:Stack.obj
 0002:00003d78       ??_C@_1BHO@LFGJOPBB@?$AAs?$AAt?$AAd?$AA?3?$AA?3?$AA_?$AAT?$AAr?$AAe?$AAe?$AA_?$AAc?$AAo?$AAn?$AAs?$AAt?$AA_?$AAi?$AAt?$AAe?$AAr?$AAa?$AAt?$AAo?$AAr?$AA?$DM?$AAc?$AAl?$AAa?$AAs?$AAs?$AA?5@ 00488d78     libohNetCore:Stack.obj
 0002:00003ef8       ??_C@_1IM@NNHEMJIG@?$AAc?$AA?3?$AA?2?$AAP?$AAr?$AAo?$AAg?$AAr?$AAa?$AAm?$AA?5?$AAF?$AAi?$AAl?$AAe?$AAs?$AA?5?$AA?$CI?$AAx?$AA8?$AA6?$AA?$CJ?$AA?2?$AAM?$AAi?$AAc?$AAr?$AAo?$AAs?$AAo?$AAf?$AAt@ 00488ef8     libohNetCore:Stack.obj
 0002:00003f84       ??_C@_1CK@EOPGIILJ@?$AAi?$AAn?$AAv?$AAa?$AAl?$AAi?$AAd?$AA?5?$AAn?$AAu?$AAl?$AAl?$AA?5?$AAp?$AAo?$AAi?$AAn?$AAt?$AAe?$AAr?$AA?$AA@ 00488f84     libohNetCore:Stack.obj
 0002:00003fb0       ??_C@_1CO@DGLIKNHI@?$AAi?$AAn?$AAv?$AAa?$AAl?$AAi?$AAd?$AA?5?$AAi?$AAt?$AAe?$AAr?$AAa?$AAt?$AAo?$AAr?$AA?5?$AAr?$AAa?$AAn?$AAg?$AAe?$AA?$AA@ 00488fb0     libohNetCore:Stack.obj
 0002:000053f4       ??_7Socket@OpenHome@@6B@   0048a3f4     libohNetCore:Network.obj
 0002:000053f8       ??_C@_0N@PKFCJHGH@NetworkError?$AA@ 0048a3f8     libohNetCore:Network.obj
 0002:0000540c       ??_7SocketTcp@OpenHome@@6BIReaderSource@1@@ 0048a40c     libohNetCore:Network.obj
 0002:00005420       ??_7SocketTcp@OpenHome@@6BIWriter@1@@ 0048a420     libohNetCore:Network.obj
 0002:00005434       ??_7SocketTcp@OpenHome@@6BSocket@1@@ 0048a434     libohNetCore:Network.obj
 0002:0000543c       ??_7IReaderSource@OpenHome@@6B@ 0048a43c     libohNetCore:Network.obj
 0002:00005450       ??_7IWriter@OpenHome@@6B@  0048a450     libohNetCore:Network.obj
 0002:00005460       ??_C@_0M@EKPFGEJB@WriterError?$AA@ 0048a460     libohNetCore:Network.obj
 0002:0000546c       ??_C@_0M@OKIMMAEM@ReaderError?$AA@ 0048a46c     libohNetCore:Network.obj
 0002:0000547c       ??_7SocketTcpServer@OpenHome@@6B@ 0048a47c     libohNetCore:Network.obj
 0002:00005484       ??_7SocketTcpSession@OpenHome@@6BIReaderSource@1@@ 0048a484     libohNetCore:Network.obj
 0002:00005498       ??_7SocketTcpSession@OpenHome@@6BIWriter@1@@ 0048a498     libohNetCore:Network.obj
 0002:000054ac       ??_7SocketTcpSession@OpenHome@@6BSocket@1@@ 0048a4ac     libohNetCore:Network.obj
 0002:000054b8       ??_7SocketUdp@OpenHome@@6B@ 0048a4b8     libohNetCore:Network.obj
 0002:000054c0       ??_7SocketUdpMulticast@OpenHome@@6B@ 0048a4c0     libohNetCore:Network.obj
 0002:000054c8       ??_7UdpReader@OpenHome@@6B@ 0048a4c8     libohNetCore:Network.obj
 0002:000054dc       ??_7UdpWriter@OpenHome@@6B@ 0048a4dc     libohNetCore:Network.obj
 0002:000054f0       ??_C@_1OO@LKOOOFKI@?$AAs?$AAt?$AAd?$AA?3?$AA?3?$AAv?$AAe?$AAc?$AAt?$AAo?$AAr?$AA?$DM?$AAc?$AAl?$AAa?$AAs?$AAs?$AA?5?$AAO?$AAp?$AAe?$AAn?$AAH?$AAo?$AAm?$AAe?$AA?3?$AA?3?$AAS?$AAo?$AAc?$AAk@ 0048a4f0     libohNetCore:Network.obj
 0002:000055e0       ??_C@_1DA@JIKEAPDO@?$AAv?$AAe?$AAc?$AAt?$AAo?$AAr?$AA?5?$AAe?$AAm?$AAp?$AAt?$AAy?$AA?5?$AAb?$AAe?$AAf?$AAo?$AAr?$AAe?$AA?5?$AAp?$AAo?$AAp?$AA?$AA@ 0048a5e0     libohNetCore:Network.obj
 0002:00005648       ??_C@_1BOI@EOEFLMOE@?$AAs?$AAt?$AAd?$AA?3?$AA?3?$AA_?$AAT?$AAr?$AAe?$AAe?$AA_?$AAc?$AAo?$AAn?$AAs?$AAt?$AA_?$AAi?$AAt?$AAe?$AAr?$AAa?$AAt?$AAo?$AAr?$AA?$DM?$AAc?$AAl?$AAa?$AAs?$AAs?$AA?5@ 0048a648     libohNetCore:NetworkAdapterList.obj
 0002:00005830       ??_C@_1BOI@OOLIFFCB@?$AAs?$AAt?$AAd?$AA?3?$AA?3?$AA_?$AAT?$AAr?$AAe?$AAe?$AA_?$AAc?$AAo?$AAn?$AAs?$AAt?$AA_?$AAi?$AAt?$AAe?$AAr?$AAa?$AAt?$AAo?$AAr?$AA?$DM?$AAc?$AAl?$AAa?$AAs?$AAs?$AA?5@ 0048a830     libohNetCore:NetworkAdapterList.obj
 0002:00005a18       ??_C@_1BOG@PFAGBIKH@?$AAs?$AAt?$AAd?$AA?3?$AA?3?$AA_?$AAT?$AAr?$AAe?$AAe?$AA_?$AAc?$AAo?$AAn?$AAs?$AAt?$AA_?$AAi?$AAt?$AAe?$AAr?$AAa?$AAt?$AAo?$AAr?$AA?$DM?$AAc?$AAl?$AAa?$AAs?$AAs?$AA?5@ 0048aa18     libohNetCore:NetworkAdapterList.obj
 0002:00005c00       ??_C@_1BOI@LNHHAACF@?$AAs?$AAt?$AAd?$AA?3?$AA?3?$AA_?$AAT?$AAr?$AAe?$AAe?$AA_?$AAc?$AAo?$AAn?$AAs?$AAt?$AA_?$AAi?$AAt?$AAe?$AAr?$AAa?$AAt?$AAo?$AAr?$AA?$DM?$AAc?$AAl?$AAa?$AAs?$AAs?$AA?5@ 0048ac00     libohNetCore:NetworkAdapterList.obj
 0002:00005e60       ??_C@_0L@OOOPLAPK@QueueEmpty?$AA@ 0048ae60     libohNetCore:Queue.obj
 0002:00005e70       ??_7QueueSortedBase@OpenHome@@6B@ 0048ae70     libohNetCore:Queue.obj
 0002:00006358       ??_7SsdpSocketReader@Net@OpenHome@@6BIReaderSource@2@@ 0048b358     libohNetCore:Discovery.obj
 0002:0000636c       ??_7SsdpSocketReader@Net@OpenHome@@6BSocketUdpMulticast@2@@ 0048b36c     libohNetCore:Discovery.obj
 0002:00006374       ??_7SsdpListener@Net@OpenHome@@6B@ 0048b374     libohNetCore:Discovery.obj
 0002:00006380       ??_7SsdpHeaderCacheControl@Net@OpenHome@@6B@ 0048b380     libohNetCore:Discovery.obj
 0002:00006394       ??_7HttpHeaderLocation@OpenHome@@6B@ 0048b394     libohNetCore:Discovery.obj
 0002:000063a8       ??_7SsdpHeaderServer@Net@OpenHome@@6B@ 0048b3a8     libohNetCore:Discovery.obj
 0002:000063bc       ??_7SsdpHeaderSt@Net@OpenHome@@6B@ 0048b3bc     libohNetCore:Discovery.obj
 0002:000063d0       ??_7SsdpHeaderUsn@Net@OpenHome@@6B@ 0048b3d0     libohNetCore:Discovery.obj
 0002:000063e4       ??_7IHttpHeader@OpenHome@@6B@ 0048b3e4     libohNetCore:Discovery.obj
 0002:000063f8       ??_7SsdpListenerMulticast@Net@OpenHome@@6B@ 0048b3f8     libohNetCore:Discovery.obj
 0002:00006404       ??_7SsdpHeaderHost@Net@OpenHome@@6B@ 0048b404     libohNetCore:Discovery.obj
 0002:00006418       ??_7SsdpHeaderMan@Net@OpenHome@@6B@ 0048b418     libohNetCore:Discovery.obj
 0002:0000642c       ??_7SsdpHeaderMx@Net@OpenHome@@6B@ 0048b42c     libohNetCore:Discovery.obj
 0002:00006440       ??_7SsdpHeaderNt@Net@OpenHome@@6B@ 0048b440     libohNetCore:Discovery.obj
 0002:00006454       ??_7SsdpHeaderNts@Net@OpenHome@@6B@ 0048b454     libohNetCore:Discovery.obj
 0002:00006468       ??_7IReader@OpenHome@@6B@  0048b468     libohNetCore:Discovery.obj
 0002:0000647c       ??_C@_04KNJCAJOB@SSDM?$AA@ 0048b47c     libohNetCore:Discovery.obj
 0002:00006488       ??_7SsdpListenerUnicast@Net@OpenHome@@6B@ 0048b488     libohNetCore:Discovery.obj
 0002:00006494       ??_7SsdpHeaderExt@Net@OpenHome@@6B@ 0048b494     libohNetCore:Discovery.obj
 0002:000064a8       ??_7IWriterHttpMethod@OpenHome@@6B@ 0048b4a8     libohNetCore:Discovery.obj
 0002:000064b4       ??_7IWriterHttpHeader@OpenHome@@6B@ 0048b4b4     libohNetCore:Discovery.obj
 0002:000064d4       ??_7IWriterAscii@OpenHome@@6B@ 0048b4d4     libohNetCore:Discovery.obj
 0002:00006518       ??_7?$Sws@$0EAA@@OpenHome@@6BIWriter@1@@ 0048b518     libohNetCore:Discovery.obj
 0002:0000652c       ??_7?$Sws@$0EAA@@OpenHome@@6BSxx@1@@ 0048b52c     libohNetCore:Discovery.obj
 0002:00006538       ??_C@_1BFC@MEFHADCK@?$AAs?$AAt?$AAd?$AA?3?$AA?3?$AAv?$AAe?$AAc?$AAt?$AAo?$AAr?$AA?$DM?$AAc?$AAl?$AAa?$AAs?$AAs?$AA?5?$AAO?$AAp?$AAe?$AAn?$AAH?$AAo?$AAm?$AAe?$AA?3?$AA?3?$AAN?$AAe?$AAt?$AA?3@ 0048b538     libohNetCore:Discovery.obj
 0002:00006690       ??_C@_1BFG@DKMCFOOJ@?$AAs?$AAt?$AAd?$AA?3?$AA?3?$AAv?$AAe?$AAc?$AAt?$AAo?$AAr?$AA?$DM?$AAc?$AAl?$AAa?$AAs?$AAs?$AA?5?$AAO?$AAp?$AAe?$AAn?$AAH?$AAo?$AAm?$AAe?$AA?3?$AA?3?$AAN?$AAe?$AAt?$AA?3@ 0048b690     libohNetCore:Discovery.obj
 0002:000067ec       ??_7?$Srs@$0EAA@@OpenHome@@6BIReader@1@@ 0048b7ec     libohNetCore:Discovery.obj
 0002:00006804       ??_7?$Srs@$0EAA@@OpenHome@@6BSxx@1@@ 0048b804     libohNetCore:Discovery.obj
 0002:00006810       ??_C@_1BKC@MFHILGBM@?$AAs?$AAt?$AAd?$AA?3?$AA?3?$AA_?$AAV?$AAe?$AAc?$AAt?$AAo?$AAr?$AA_?$AAc?$AAo?$AAn?$AAs?$AAt?$AA_?$AAi?$AAt?$AAe?$AAr?$AAa?$AAt?$AAo?$AAr?$AA?$DM?$AAc?$AAl?$AAa?$AAs@ 0048b810     libohNetCore:Discovery.obj
 0002:000069b8       ??_C@_1EG@FOHJJHAC@?$AAv?$AAe?$AAc?$AAt?$AAo?$AAr?$AA?5?$AAi?$AAt?$AAe?$AAr?$AAa?$AAt?$AAo?$AAr?$AA?5?$AAn?$AAo?$AAt?$AA?5?$AAd?$AAe?$AAr?$AAe?$AAf?$AAe?$AAr?$AAe?$AAn?$AAc?$AAa?$AAb@ 0048b9b8     libohNetCore:Discovery.obj
 0002:00006a00       ??_C@_1BKG@ELBCJCGE@?$AAs?$AAt?$AAd?$AA?3?$AA?3?$AA_?$AAV?$AAe?$AAc?$AAt?$AAo?$AAr?$AA_?$AAc?$AAo?$AAn?$AAs?$AAt?$AA_?$AAi?$AAt?$AAe?$AAr?$AAa?$AAt?$AAo?$AAr?$AA?$DM?$AAc?$AAl?$AAa?$AAs@ 0048ba00     libohNetCore:Discovery.obj
 0002:00006ba8       ??_C@_1BKE@HIBKHFAG@?$AAs?$AAt?$AAd?$AA?3?$AA?3?$AA_?$AAV?$AAe?$AAc?$AAt?$AAo?$AAr?$AA_?$AAc?$AAo?$AAn?$AAs?$AAt?$AA_?$AAi?$AAt?$AAe?$AAr?$AAa?$AAt?$AAo?$AAr?$AA?$DM?$AAc?$AAl?$AAa?$AAs@ 0048bba8     libohNetCore:Discovery.obj
 0002:00006d50       ??_C@_1EE@EJDKCLKB@?$AAv?$AAe?$AAc?$AAt?$AAo?$AAr?$AA?5?$AAi?$AAt?$AAe?$AAr?$AAa?$AAt?$AAo?$AAr?$AA?5?$AAn?$AAo?$AAt?$AA?5?$AAi?$AAn?$AAc?$AAr?$AAe?$AAm?$AAe?$AAn?$AAt?$AAa?$AAb?$AAl@ 0048bd50     libohNetCore:Discovery.obj
 0002:00006d98       ??_C@_1BJM@IABICBIB@?$AAs?$AAt?$AAd?$AA?3?$AA?3?$AA_?$AAV?$AAe?$AAc?$AAt?$AAo?$AAr?$AA_?$AAc?$AAo?$AAn?$AAs?$AAt?$AA_?$AAi?$AAt?$AAe?$AAr?$AAa?$AAt?$AAo?$AAr?$AA?$DM?$AAc?$AAl?$AAa?$AAs@ 0048bd98     libohNetCore:Discovery.obj
 0002:00006f34       ??_C@_1DM@HINDPMBP@?$AAv?$AAe?$AAc?$AAt?$AAo?$AAr?$AA?5?$AAi?$AAt?$AAe?$AAr?$AAa?$AAt?$AAo?$AAr?$AAs?$AA?5?$AAi?$AAn?$AAc?$AAo?$AAm?$AAp?$AAa?$AAt?$AAi?$AAb?$AAl?$AAe?$AA?$AA@ 0048bf34     libohNetCore:Discovery.obj
 0002:00006f70       ??_C@_1BKI@KDPPOMED@?$AAs?$AAt?$AAd?$AA?3?$AA?3?$AA_?$AAV?$AAe?$AAc?$AAt?$AAo?$AAr?$AA_?$AAc?$AAo?$AAn?$AAs?$AAt?$AA_?$AAi?$AAt?$AAe?$AAr?$AAa?$AAt?$AAo?$AAr?$AA?$DM?$AAc?$AAl?$AAa?$AAs@ 0048bf70     libohNetCore:Discovery.obj
 0002:00007118       ??_C@_1BKA@BDMGFPIO@?$AAs?$AAt?$AAd?$AA?3?$AA?3?$AA_?$AAV?$AAe?$AAc?$AAt?$AAo?$AAr?$AA_?$AAc?$AAo?$AAn?$AAs?$AAt?$AA_?$AAi?$AAt?$AAe?$AAr?$AAa?$AAt?$AAo?$AAr?$AA?$DM?$AAc?$AAl?$AAa?$AAs@ 0048c118     libohNetCore:Discovery.obj
 0002:000072bc       ??_7?$Bws@$0DOI@@OpenHome@@6B@ 0048c2bc     libohNetCore:Discovery.obj
 0002:000072c8       ??_7?$Bws@$0EA@@OpenHome@@6B@ 0048c2c8     libohNetCore:Discovery.obj
 0002:00007848       ??_C@_0L@GJJHGOGO@AsciiError?$AA@ 0048c848     libohNetCore:Ascii.obj
 0002:00007858       ??_7ReaderAscii@OpenHome@@6B@ 0048c858     libohNetCore:Ascii.obj
 0002:00007874       ??_7WriterAscii@OpenHome@@6B@ 0048c874     libohNetCore:Ascii.obj
 0002:000078b8       ??_7?$Bws@$09@OpenHome@@6B@ 0048c8b8     libohNetCore:Ascii.obj
 0002:000078c4       ??_7?$Bws@$0BE@@OpenHome@@6B@ 0048c8c4     libohNetCore:Ascii.obj
 0002:000078d0       ??_7?$Bws@$0L@@OpenHome@@6B@ 0048c8d0     libohNetCore:Ascii.obj
 0002:000078dc       ??_7?$Bws@$07@OpenHome@@6B@ 0048c8dc     libohNetCore:Ascii.obj
 0002:000078e8       ??_7?$Bws@$01@OpenHome@@6B@ 0048c8e8     libohNetCore:Ascii.obj
 0002:000080ac       ??_C@_09LLBGNKEL@HttpError?$AA@ 0048d0ac     libohNetCore:Http.obj
 0002:000080bc       ??_7ReaderHttpResponse@OpenHome@@6B@ 0048d0bc     libohNetCore:Http.obj
 0002:000080c4       ??_7WriterHttpField@OpenHome@@6B@ 0048d0c4     libohNetCore:Http.obj
 0002:00008108       ??_7WriterHttpHeader@OpenHome@@6B@ 0048d108     libohNetCore:Http.obj
 0002:00008124       ??_7WriterHttpRequest@OpenHome@@6BIWriterHttpMethod@1@@ 0048d124     libohNetCore:Http.obj
 0002:00008130       ??_7WriterHttpRequest@OpenHome@@6BWriterHttpHeader@1@@ 0048d130     libohNetCore:Http.obj
 0002:0000814c       ??_7WriterHttpResponse@OpenHome@@6BIWriterHttpStatus@1@@ 0048d14c     libohNetCore:Http.obj
 0002:00008158       ??_7WriterHttpResponse@OpenHome@@6BWriterHttpHeader@1@@ 0048d158     libohNetCore:Http.obj
 0002:00008174       ??_7IWriterHttpStatus@OpenHome@@6B@ 0048d174     libohNetCore:Http.obj
 0002:00008180       ??_7HttpHeader@OpenHome@@6B@ 0048d180     libohNetCore:Http.obj
 0002:00008194       ??_7WriterHttpChunked@OpenHome@@6B@ 0048d194     libohNetCore:Http.obj
 0002:000081a8       ??_C@_1NK@KMBABFAN@?$AAs?$AAt?$AAd?$AA?3?$AA?3?$AAv?$AAe?$AAc?$AAt?$AAo?$AAr?$AA?$DM?$AAc?$AAl?$AAa?$AAs?$AAs?$AA?5?$AAO?$AAp?$AAe?$AAn?$AAH?$AAo?$AAm?$AAe?$AA?3?$AA?3?$AAI?$AAH?$AAt?$AAt@ 0048d1a8     libohNetCore:Http.obj
 0002:00008288       ??_C@_1NC@JMMDDDNI@?$AAs?$AAt?$AAd?$AA?3?$AA?3?$AAv?$AAe?$AAc?$AAt?$AAo?$AAr?$AA?$DM?$AAc?$AAl?$AAa?$AAs?$AAs?$AA?5?$AAO?$AAp?$AAe?$AAn?$AAH?$AAo?$AAm?$AAe?$AA?3?$AA?3?$AAB?$AAr?$AAx?$AA?5@ 0048d288     libohNetCore:Http.obj
 0002:00008360       ??_7?$Sws@$0BHHA@@OpenHome@@6BIWriter@1@@ 0048d360     libohNetCore:Http.obj
 0002:00008374       ??_7?$Sws@$0BHHA@@OpenHome@@6BSxx@1@@ 0048d374     libohNetCore:Http.obj
 0002:00008380       ??_7?$Bws@$0MI@@OpenHome@@6B@ 0048d380     libohNetCore:Http.obj
 0002:0000838c       ??_7?$Bws@$0GE@@OpenHome@@6B@ 0048d38c     libohNetCore:Http.obj
 0002:00008398       ??_7?$Bws@$0BL@@OpenHome@@6B@ 0048d398     libohNetCore:Http.obj
 0002:000083a4       ??_7?$Bws@$0CP@@OpenHome@@6B@ 0048d3a4     libohNetCore:Http.obj
 0002:000083b0       ??_7?$Bws@$0BA@@OpenHome@@6B@ 0048d3b0     libohNetCore:Http.obj
 0002:000083c3       ?kUrnSeparator@Ssdp@Net@OpenHome@@2EB 0048d3c3     libohNetCore:Ssdp.obj
 0002:00008478       ?kMulticastPort@Ssdp@Net@OpenHome@@2IB 0048d478     libohNetCore:Ssdp.obj
 0002:0000885c       ??_7Sxx@OpenHome@@6B@      0048d85c     libohNetCore:Stream.obj
 0002:00008868       ??_7Srx@OpenHome@@6BIReader@1@@ 0048d868     libohNetCore:Stream.obj
 0002:00008880       ??_7Srx@OpenHome@@6BSxx@1@@ 0048d880     libohNetCore:Stream.obj
 0002:0000888c       ??_7Srd@OpenHome@@6BIReader@1@@ 0048d88c     libohNetCore:Stream.obj
 0002:000088a4       ??_7Srd@OpenHome@@6BSxx@1@@ 0048d8a4     libohNetCore:Stream.obj
 0002:000088b0       ??_7Swx@OpenHome@@6BIWriter@1@@ 0048d8b0     libohNetCore:Stream.obj
 0002:000088c4       ??_7Swx@OpenHome@@6BSxx@1@@ 0048d8c4     libohNetCore:Stream.obj
 0002:000088d0       ??_7Swd@OpenHome@@6BIWriter@1@@ 0048d8d0     libohNetCore:Stream.obj
 0002:000088e4       ??_7Swd@OpenHome@@6BSxx@1@@ 0048d8e4     libohNetCore:Stream.obj
 0002:000088f0       ??_7Swp@OpenHome@@6BIWriter@1@@ 0048d8f0     libohNetCore:Stream.obj
 0002:00008904       ??_7Swp@OpenHome@@6BSxx@1@@ 0048d904     libohNetCore:Stream.obj
 0002:00008910       ??_7ReaderBuffer@OpenHome@@6B@ 0048d910     libohNetCore:Stream.obj
 0002:00008928       ??_7WriterBuffer@OpenHome@@6B@ 0048d928     libohNetCore:Stream.obj
 0002:0000893c       ??_7WriterBwh@OpenHome@@6B@ 0048d93c     libohNetCore:Stream.obj
 0002:00008978       ??_7invalid_argument@std@@6B@ 0048d978     libcpmtd:xthrow.obj
 0002:00008984       ??_7logic_error@std@@6B@   0048d984     libcpmtd:xthrow.obj
 0002:00008990       ??_7length_error@std@@6B@  0048d990     libcpmtd:xthrow.obj
 0002:0000899c       ??_7out_of_range@std@@6B@  0048d99c     libcpmtd:xthrow.obj
 0002:000089a8       ??_7overflow_error@std@@6B@ 0048d9a8     libcpmtd:xthrow.obj
 0002:000089b4       ??_7runtime_error@std@@6B@ 0048d9b4     libcpmtd:xthrow.obj
 0002:000089bc       ?ProcessDetach@NativeDll@<CrtImplementationDetails>@@0IB 0048d9bc     LIBCMTD:_trnsctrl_.obj
 0002:000089c0       ?ProcessAttach@NativeDll@<CrtImplementationDetails>@@0IB 0048d9c0     LIBCMTD:_trnsctrl_.obj
 0002:000089c4       ?ThreadAttach@NativeDll@<CrtImplementationDetails>@@0IB 0048d9c4     LIBCMTD:_trnsctrl_.obj
 0002:000089c8       ?ThreadDetach@NativeDll@<CrtImplementationDetails>@@0IB 0048d9c8     LIBCMTD:_trnsctrl_.obj
 0002:000089cc       ?ProcessVerifier@NativeDll@<CrtImplementationDetails>@@0IB 0048d9cc     LIBCMTD:_trnsctrl_.obj
 0002:000089d4       ??_7type_info@@6B@         0048d9d4     LIBCMTD:typinfo.obj
 0002:000089d8       ??_C@_1GE@BDAODJCD@?$AAf?$AA?3?$AA?2?$AAd?$AAd?$AA?2?$AAv?$AAc?$AAt?$AAo?$AAo?$AAl?$AAs?$AA?2?$AAc?$AAr?$AAt?$AA_?$AAb?$AAl?$AAd?$AA?2?$AAs?$AAe?$AAl?$AAf?$AA_?$AAx?$AA8?$AA6?$AA?2?$AAc@ 0048d9d8     LIBCMTD:dbgdel.obj
 0002:00008a40       ??_C@_1EO@LHDAJOCM@?$AA_?$AAB?$AAL?$AAO?$AAC?$AAK?$AA_?$AAT?$AAY?$AAP?$AAE?$AA_?$AAI?$AAS?$AA_?$AAV?$AAA?$AAL?$AAI?$AAD?$AA?$CI?$AAp?$AAH?$AAe?$AAa?$AAd?$AA?9?$AA?$DO?$AAn?$AAB?$AAl?$AAo@ 0048da40     LIBCMTD:dbgdel.obj
 0002:00008ab0       ??_C@_15IABLJNFO@?$AA?6?$AA?6?$AA?$AA@ 0048dab0     LIBCMTD:wassert.obj
 0002:00008ab8       ??_C@_13LBAGMAIH@?$AA?6?$AA?$AA@ 0048dab8     LIBCMTD:wassert.obj
 0002:00008abc       ??_C@_17LGKOMLJ@?$AA?4?$AA?4?$AA?4?$AA?$AA@ 0048dabc     LIBCMTD:wassert.obj
 0002:00008ac8       ??_C@_1EK@MBDPDCGA@?$AAM?$AAi?$AAc?$AAr?$AAo?$AAs?$AAo?$AAf?$AAt?$AA?5?$AAV?$AAi?$AAs?$AAu?$AAa?$AAl?$AA?5?$AAC?$AA?$CL?$AA?$CL?$AA?5?$AAR?$AAu?$AAn?$AAt?$AAi?$AAm?$AAe?$AA?5?$AAL?$AAi?$AAb@ 0048dac8     LIBCMTD:wassert.obj
 0002:00008b18       ??_C@_1HK@POCJMFGK@?$AA?$CI?$AAP?$AAr?$AAe?$AAs?$AAs?$AA?5?$AAR?$AAe?$AAt?$AAr?$AAy?$AA?5?$AAt?$AAo?$AA?5?$AAd?$AAe?$AAb?$AAu?$AAg?$AA?5?$AAt?$AAh?$AAe?$AA?5?$AAa?$AAp?$AAp?$AAl?$AAi?$AAc@ 0048db18     LIBCMTD:wassert.obj
 0002:00008b98       ??_C@_1LO@HBAMOOPN@?$AAw?$AAc?$AAs?$AAc?$AAa?$AAt?$AA_?$AAs?$AA?$CI?$AAa?$AAs?$AAs?$AAe?$AAr?$AAt?$AAb?$AAu?$AAf?$AA?0?$AA?5?$AA?$CI?$AA6?$AA0?$AA?5?$AA?$CK?$AA?5?$AA9?$AA?$CJ?$AA?0?$AA?5?$AAL?$AA?$CC@ 0048db98     LIBCMTD:wassert.obj
 0002:00008c58       ??_C@_1FG@GMPCGFKH@?$AAw?$AAc?$AAs?$AAc?$AAa?$AAt?$AA_?$AAs?$AA?$CI?$AAa?$AAs?$AAs?$AAe?$AAr?$AAt?$AAb?$AAu?$AAf?$AA?0?$AA?5?$AA?$CI?$AA6?$AA0?$AA?5?$AA?$CK?$AA?5?$AA9?$AA?$CJ?$AA?0?$AA?5?$AAd?$AAb@ 0048dc58     LIBCMTD:wassert.obj
 0002:00008cb0       ??_C@_1OA@EGMLFBHJ@?$AAF?$AAo?$AAr?$AA?5?$AAi?$AAn?$AAf?$AAo?$AAr?$AAm?$AAa?$AAt?$AAi?$AAo?$AAn?$AA?5?$AAo?$AAn?$AA?5?$AAh?$AAo?$AAw?$AA?5?$AAy?$AAo?$AAu?$AAr?$AA?5?$AAp?$AAr?$AAo?$AAg@ 0048dcb0     LIBCMTD:wassert.obj
 0002:00008d90       ??_C@_1BCO@FMFFDPPF@?$AAw?$AAc?$AAs?$AAc?$AAa?$AAt?$AA_?$AAs?$AA?$CI?$AAa?$AAs?$AAs?$AAe?$AAr?$AAt?$AAb?$AAu?$AAf?$AA?0?$AA?5?$AA?$CI?$AA6?$AA0?$AA?5?$AA?$CK?$AA?5?$AA9?$AA?$CJ?$AA?0?$AA?5?$AAL?$AA?$CC@ 0048dd90     LIBCMTD:wassert.obj
 0002:00008ec0       ??_C@_1EM@MBEKCGIC@?$AAw?$AAc?$AAs?$AAc?$AAa?$AAt?$AA_?$AAs?$AA?$CI?$AA?5?$AAa?$AAs?$AAs?$AAe?$AAr?$AAt?$AAb?$AAu?$AAf?$AA?0?$AA?5?$AA?$CI?$AA6?$AA0?$AA?5?$AA?$CK?$AA?5?$AA9?$AA?$CJ?$AA?0?$AA?5?$AAe@ 0048dec0     LIBCMTD:wassert.obj
 0002:00008f10       ??_C@_1CHM@CEIMNDLH@?$AAw?$AAc?$AAs?$AAn?$AAc?$AAa?$AAt?$AA_?$AAs?$AA?$CI?$AA?5?$AAa?$AAs?$AAs?$AAe?$AAr?$AAt?$AAb?$AAu?$AAf?$AA?0?$AA?5?$AA?$CI?$AA6?$AA0?$AA?5?$AA?$CK?$AA?5?$AA9?$AA?$CJ?$AA?0?$AA?5@ 0048df10     LIBCMTD:wassert.obj
 0002:0000918c       ??_C@_1BK@PEDCIPMA@?$AAE?$AAx?$AAp?$AAr?$AAe?$AAs?$AAs?$AAi?$AAo?$AAn?$AA?3?$AA?5?$AA?$AA@ 0048e18c     LIBCMTD:wassert.obj
 0002:000091a8       ??_C@_1GC@HOBBPFHJ@?$AAw?$AAc?$AAs?$AAc?$AAa?$AAt?$AA_?$AAs?$AA?$CI?$AA?5?$AAa?$AAs?$AAs?$AAe?$AAr?$AAt?$AAb?$AAu?$AAf?$AA?0?$AA?5?$AA?$CI?$AA6?$AA0?$AA?5?$AA?$CK?$AA?5?$AA9?$AA?$CJ?$AA?0?$AA?5?$AAL@ 0048e1a8     LIBCMTD:wassert.obj
 0002:00009210       ??_C@_1KG@CFEIMPNH@?$AA_?$AAi?$AAt?$AAo?$AAw?$AA_?$AAs?$AA?$CI?$AA?5?$AAl?$AAi?$AAn?$AAe?$AAn?$AAo?$AA?0?$AA?5?$AAa?$AAs?$AAs?$AAe?$AAr?$AAt?$AAb?$AAu?$AAf?$AA?5?$AA?$CL?$AA?5?$AAw?$AAc?$AAs@ 0048e210     LIBCMTD:wassert.obj
 0002:000092b8       ??_C@_1O@KCAFKHJE@?$AAL?$AAi?$AAn?$AAe?$AA?3?$AA?5?$AA?$AA@ 0048e2b8     LIBCMTD:wassert.obj
 0002:000092c8       ??_C@_1FG@NHDGJLMI@?$AAw?$AAc?$AAs?$AAc?$AAa?$AAt?$AA_?$AAs?$AA?$CI?$AA?5?$AAa?$AAs?$AAs?$AAe?$AAr?$AAt?$AAb?$AAu?$AAf?$AA?0?$AA?5?$AA?$CI?$AA6?$AA0?$AA?5?$AA?$CK?$AA?5?$AA9?$AA?$CJ?$AA?0?$AA?5?$AAL@ 0048e2c8     LIBCMTD:wassert.obj
 0002:00009320       ??_C@_1FE@IIFBBPFI@?$AAw?$AAc?$AAs?$AAc?$AAa?$AAt?$AA_?$AAs?$AA?$CI?$AA?5?$AAa?$AAs?$AAs?$AAe?$AAr?$AAt?$AAb?$AAu?$AAf?$AA?0?$AA?5?$AA?$CI?$AA6?$AA0?$AA?5?$AA?$CK?$AA?5?$AA9?$AA?$CJ?$AA?0?$AA?5?$AAf@ 0048e320     LIBCMTD:wassert.obj
 0002:00009378       ??_C@_1IC@CFFJBMAD@?$AAw?$AAc?$AAs?$AAc?$AAa?$AAt?$AA_?$AAs?$AA?$CI?$AA?5?$AAa?$AAs?$AAs?$AAe?$AAr?$AAt?$AAb?$AAu?$AAf?$AA?0?$AA?5?$AA?$CI?$AA6?$AA0?$AA?5?$AA?$CK?$AA?5?$AA9?$AA?$CJ?$AA?0?$AA?5?$AAp@ 0048e378     LIBCMTD:wassert.obj
 0002:00009400       ??_C@_1HG@OJJMBIKO@?$AAw?$AAc?$AAs?$AAn?$AAc?$AAa?$AAt?$AA_?$AAs?$AA?$CI?$AA?5?$AAa?$AAs?$AAs?$AAe?$AAr?$AAt?$AAb?$AAu?$AAf?$AA?0?$AA?5?$AA?$CI?$AA6?$AA0?$AA?5?$AA?$CK?$AA?5?$AA9?$AA?$CJ?$AA?0?$AA?5@ 0048e400     LIBCMTD:wassert.obj
 0002:00009478       ??_C@_1GO@BIHLMMND@?$AAw?$AAc?$AAs?$AAn?$AAc?$AAa?$AAt?$AA_?$AAs?$AA?$CI?$AA?5?$AAa?$AAs?$AAs?$AAe?$AAr?$AAt?$AAb?$AAu?$AAf?$AA?0?$AA?5?$AA?$CI?$AA6?$AA0?$AA?5?$AA?$CK?$AA?5?$AA9?$AA?$CJ?$AA?0?$AA?5@ 0048e478     LIBCMTD:wassert.obj
 0002:000094e8       ??_C@_1FO@IJLLDBEB@?$AAw?$AAc?$AAs?$AAc?$AAa?$AAt?$AA_?$AAs?$AA?$CI?$AA?5?$AAa?$AAs?$AAs?$AAe?$AAr?$AAt?$AAb?$AAu?$AAf?$AA?0?$AA?5?$AA?$CI?$AA6?$AA0?$AA?5?$AA?$CK?$AA?5?$AA9?$AA?$CJ?$AA?0?$AA?5?$AAp@ 0048e4e8     LIBCMTD:wassert.obj
 0002:00009548       ??_C@_1FG@CLEECKIJ@?$AAw?$AAc?$AAs?$AAc?$AAa?$AAt?$AA_?$AAs?$AA?$CI?$AA?5?$AAa?$AAs?$AAs?$AAe?$AAr?$AAt?$AAb?$AAu?$AAf?$AA?0?$AA?5?$AA?$CI?$AA6?$AA0?$AA?5?$AA?$CK?$AA?5?$AA9?$AA?$CJ?$AA?0?$AA?5?$AAd@ 0048e548     LIBCMTD:wassert.obj
 0002:000095a0       ??_C@_1GG@PMHOPJKA@?$AAw?$AAc?$AAs?$AAn?$AAc?$AAa?$AAt?$AA_?$AAs?$AA?$CI?$AA?5?$AAa?$AAs?$AAs?$AAe?$AAr?$AAt?$AAb?$AAu?$AAf?$AA?0?$AA?5?$AA?$CI?$AA6?$AA0?$AA?5?$AA?$CK?$AA?5?$AA9?$AA?$CJ?$AA?0?$AA?5@ 0048e5a0     LIBCMTD:wassert.obj
 0002:00009608       ??_C@_1O@HEMHKNDC@?$AAF?$AAi?$AAl?$AAe?$AA?3?$AA?5?$AA?$AA@ 0048e608     LIBCMTD:wassert.obj
 0002:00009618       ??_C@_1FG@HIDBOJF@?$AAw?$AAc?$AAs?$AAc?$AAa?$AAt?$AA_?$AAs?$AA?$CI?$AA?5?$AAa?$AAs?$AAs?$AAe?$AAr?$AAt?$AAb?$AAu?$AAf?$AA?0?$AA?5?$AA?$CI?$AA6?$AA0?$AA?5?$AA?$CK?$AA?5?$AA9?$AA?$CJ?$AA?0?$AA?5?$AAL@ 0048e618     LIBCMTD:wassert.obj
 0002:00009670       ??_C@_1FC@FFKGGIKO@?$AAw?$AAc?$AAs?$AAc?$AAa?$AAt?$AA_?$AAs?$AA?$CI?$AA?5?$AAa?$AAs?$AAs?$AAe?$AAr?$AAt?$AAb?$AAu?$AAf?$AA?0?$AA?5?$AA?$CI?$AA6?$AA0?$AA?5?$AA?$CK?$AA?5?$AA9?$AA?$CJ?$AA?0?$AA?5?$AAn@ 0048e670     LIBCMTD:wassert.obj
 0002:000096c8       ??_C@_1EK@BDNABPEK@?$AAw?$AAc?$AAs?$AAc?$AAa?$AAt?$AA_?$AAs?$AA?$CI?$AA?5?$AAa?$AAs?$AAs?$AAe?$AAr?$AAt?$AAb?$AAu?$AAf?$AA?0?$AA?5?$AA?$CI?$AA6?$AA0?$AA?5?$AA?$CK?$AA?5?$AA9?$AA?$CJ?$AA?0?$AA?5?$AAp@ 0048e6c8     LIBCMTD:wassert.obj
 0002:00009718       ??_C@_1HK@JKBDGMGN@?$AAw?$AAc?$AAs?$AAn?$AAc?$AAp?$AAy?$AA_?$AAs?$AA?$CI?$AA?5?$AAp?$AAc?$AAh?$AA?0?$AA?5?$AA?$CI?$AA2?$AA6?$AA0?$AA?5?$AA?$CL?$AA?5?$AA1?$AA?$CJ?$AA?5?$AA?9?$AA?5?$AA?$CI?$AAp?$AAc?$AAh@ 0048e718     LIBCMTD:wassert.obj
 0002:00009794       ??_C@_1CO@EAEJAADC@?$AA?$DM?$AAp?$AAr?$AAo?$AAg?$AAr?$AAa?$AAm?$AA?5?$AAn?$AAa?$AAm?$AAe?$AA?5?$AAu?$AAn?$AAk?$AAn?$AAo?$AAw?$AAn?$AA?$DO?$AA?$AA@ 0048e794     LIBCMTD:wassert.obj
 0002:000097c8       ??_C@_1HA@EPFCONEE@?$AAw?$AAc?$AAs?$AAc?$AAp?$AAy?$AA_?$AAs?$AA?$CI?$AA?5?$AAp?$AAr?$AAo?$AAg?$AAn?$AAa?$AAm?$AAe?$AA?0?$AA?5?$AA2?$AA6?$AA0?$AA?5?$AA?$CL?$AA?5?$AA1?$AA?0?$AA?5?$AAL?$AA?$CC?$AA?$DM@ 0048e7c8     LIBCMTD:wassert.obj
 0002:00009838       ??_C@_1BE@PHKBBGE@?$AAP?$AAr?$AAo?$AAg?$AAr?$AAa?$AAm?$AA?3?$AA?5?$AA?$AA@ 0048e838     LIBCMTD:wassert.obj
 0002:00009850       ??_C@_1FM@LKICECBD@?$AAw?$AAc?$AAs?$AAc?$AAa?$AAt?$AA_?$AAs?$AA?$CI?$AA?5?$AAa?$AAs?$AAs?$AAe?$AAr?$AAt?$AAb?$AAu?$AAf?$AA?0?$AA?5?$AA?$CI?$AA6?$AA0?$AA?5?$AA?$CK?$AA?5?$AA9?$AA?$CJ?$AA?0?$AA?5?$AAL@ 0048e850     LIBCMTD:wassert.obj
 0002:000098b0       ??_C@_1FI@JIGMFG@?$AAw?$AAc?$AAs?$AAc?$AAa?$AAt?$AA_?$AAs?$AA?$CI?$AA?5?$AAa?$AAs?$AAs?$AAe?$AAr?$AAt?$AAb?$AAu?$AAf?$AA?0?$AA?5?$AA?$CI?$AA6?$AA0?$AA?5?$AA?$CK?$AA?5?$AA9?$AA?$CJ?$AA?0?$AA?5?$AAd@ 0048e8b0     LIBCMTD:wassert.obj
 0002:00009908       ??_C@_1CE@OJBNHDMO@?$AAA?$AAs?$AAs?$AAe?$AAr?$AAt?$AAi?$AAo?$AAn?$AA?5?$AAf?$AAa?$AAi?$AAl?$AAe?$AAd?$AA?$CB?$AA?$AA@ 0048e908     LIBCMTD:wassert.obj
 0002:00009930       ??_C@_1GM@EFCJNBAA@?$AAw?$AAc?$AAs?$AAc?$AAp?$AAy?$AA_?$AAs?$AA?$CI?$AA?5?$AAa?$AAs?$AAs?$AAe?$AAr?$AAt?$AAb?$AAu?$AAf?$AA?0?$AA?5?$AA?$CI?$AA6?$AA0?$AA?5?$AA?$CK?$AA?5?$AA9?$AA?$CJ?$AA?0?$AA?5?$AAL@ 0048e930     LIBCMTD:wassert.obj
 0002:0000999c       ??_C@_1BC@LNOOMFNA@?$AA_?$AAw?$AAa?$AAs?$AAs?$AAe?$AAr?$AAt?$AA?$AA@ 0048e99c     LIBCMTD:wassert.obj
 0002:000099b0       ??_C@_1GA@COEIABIF@?$AAf?$AA?3?$AA?2?$AAd?$AAd?$AA?2?$AAv?$AAc?$AAt?$AAo?$AAo?$AAl?$AAs?$AA?2?$AAc?$AAr?$AAt?$AA_?$AAb?$AAl?$AAd?$AA?2?$AAs?$AAe?$AAl?$AAf?$AA_?$AAx?$AA8?$AA6?$AA?2?$AAc@ 0048e9b0     LIBCMTD:wassert.obj
 0002:00009a10       ??_C@_1FA@HILOOCMA@?$AA?$CI?$AA_?$AAt?$AAc?$AAs?$AAn?$AAl?$AAe?$AAn?$AA?$CI?$AAo?$AAp?$AAt?$AAi?$AAo?$AAn?$AA?0?$AA?5?$AA_?$AAM?$AAA?$AAX?$AA_?$AAE?$AAN?$AAV?$AA?$CJ?$AA?5?$AA?$DM?$AA?5?$AA_?$AAM@ 0048ea10     LIBCMTD:getenv.obj
 0002:00009a60       ??_C@_1O@GMKGKCJO@?$AAg?$AAe?$AAt?$AAe?$AAn?$AAv?$AA?$AA@ 0048ea60     LIBCMTD:getenv.obj
 0002:00009a70       ??_C@_1GA@IPPICGKB@?$AAf?$AA?3?$AA?2?$AAd?$AAd?$AA?2?$AAv?$AAc?$AAt?$AAo?$AAo?$AAl?$AAs?$AA?2?$AAc?$AAr?$AAt?$AA_?$AAb?$AAl?$AAd?$AA?2?$AAs?$AAe?$AAl?$AAf?$AA_?$AAx?$AA8?$AA6?$AA?2?$AAc@ 0048ea70     LIBCMTD:getenv.obj
 0002:00009ad0       ??_C@_1CC@FKAOHHLO@?$AA?$CI?$AAo?$AAp?$AAt?$AAi?$AAo?$AAn?$AA?5?$AA?$CB?$AA?$DN?$AA?5?$AAN?$AAU?$AAL?$AAL?$AA?$CJ?$AA?$AA@ 0048ead0     LIBCMTD:getenv.obj
 0002:00009af8       ??_C@_1GI@JBIFPFJH@?$AA_?$AAt?$AAc?$AAs?$AAn?$AAl?$AAe?$AAn?$AA?$CI?$AA?$CK?$AAs?$AAe?$AAa?$AAr?$AAc?$AAh?$AA?5?$AA?$CL?$AA?5?$AAl?$AAe?$AAn?$AAg?$AAt?$AAh?$AA?5?$AA?$CL?$AA?5?$AA1?$AA?0?$AA?5?$AA_@ 0048eaf8     LIBCMTD:getenv.obj
 0002:00009b60       ??_C@_1EI@HHOBPCFK@?$AAs?$AAt?$AAr?$AAc?$AAp?$AAy?$AA_?$AAs?$AA?$CI?$AAb?$AAu?$AAf?$AAf?$AAe?$AAr?$AA?0?$AA?5?$AAs?$AAi?$AAz?$AAe?$AAI?$AAn?$AAT?$AAC?$AAh?$AAa?$AAr?$AAs?$AA?0?$AA?5?$AAs@ 0048eb60     LIBCMTD:getenv.obj
 0002:00009ba8       ??_C@_1JM@NLPGJJPH@?$AA?$CI?$AAb?$AAu?$AAf?$AAf?$AAe?$AAr?$AA?5?$AA?$CB?$AA?$DN?$AA?5?$AAN?$AAU?$AAL?$AAL?$AA?5?$AA?$CG?$AA?$CG?$AA?5?$AAs?$AAi?$AAz?$AAe?$AAI?$AAn?$AAT?$AAC?$AAh?$AAa?$AAr?$AAs?$AA?5@ 0048eba8     LIBCMTD:getenv.obj
 0002:00009c44       ??_C@_1CC@BAJKDIIF@?$AA_?$AAg?$AAe?$AAt?$AAe?$AAn?$AAv?$AA_?$AAs?$AA_?$AAh?$AAe?$AAl?$AAp?$AAe?$AAr?$AA?$AA@ 0048ec44     LIBCMTD:getenv.obj
 0002:00009c68       ??_C@_1CK@PIKDAOCL@?$AAp?$AAR?$AAe?$AAt?$AAu?$AAr?$AAn?$AAV?$AAa?$AAl?$AAu?$AAe?$AA?5?$AA?$CB?$AA?$DN?$AA?5?$AAN?$AAU?$AAL?$AAL?$AA?$AA@ 0048ec68     LIBCMTD:getenv.obj
 0002:00009c94       ??_C@_1DM@GNKNEGJO@?$AAs?$AAt?$AAr?$AAc?$AAp?$AAy?$AA_?$AAs?$AA?$CI?$AA?$CK?$AAp?$AAB?$AAu?$AAf?$AAf?$AAe?$AAr?$AA?0?$AA?5?$AAs?$AAi?$AAz?$AAe?$AA?0?$AA?5?$AAs?$AAt?$AAr?$AA?$CJ?$AA?$AA@ 0048ec94     LIBCMTD:getenv.obj
 0002:00009cd0       ??_C@_1CA@GDBKELOE@?$AAv?$AAa?$AAr?$AAn?$AAa?$AAm?$AAe?$AA?5?$AA?$CB?$AA?$DN?$AA?5?$AAN?$AAU?$AAL?$AAL?$AA?$AA@ 0048ecd0     LIBCMTD:getenv.obj
 0002:00009cf0       ??_C@_1CC@KPLOPIEM@?$AA_?$AAd?$AAu?$AAp?$AAe?$AAn?$AAv?$AA_?$AAs?$AA_?$AAh?$AAe?$AAl?$AAp?$AAe?$AAr?$AA?$AA@ 0048ecf0     LIBCMTD:getenv.obj
 0002:00009d14       ??_C@_1CA@FHNFMDOJ@?$AAp?$AAB?$AAu?$AAf?$AAf?$AAe?$AAr?$AA?5?$AA?$CB?$AA?$DN?$AA?5?$AAN?$AAU?$AAL?$AAL?$AA?$AA@ 0048ed14     LIBCMTD:getenv.obj
 0002:00009d38       ??_7exception@std@@6B@     0048ed38     LIBCMTD:stdexcpt.obj
 0002:00009d40       ??_C@_0BC@EOODALEL@Unknown?5exception?$AA@ 0048ed40     LIBCMTD:stdexcpt.obj
 0002:00009d58       ??_7bad_cast@std@@6B@      0048ed58     LIBCMTD:stdexcpt.obj
 0002:00009d64       ??_7bad_typeid@std@@6B@    0048ed64     LIBCMTD:stdexcpt.obj
 0002:00009d70       ??_7__non_rtti_object@std@@6B@ 0048ed70     LIBCMTD:stdexcpt.obj
 0002:00009d78       ??_C@_1EC@FABAOFFO@?$AA?$CI?$AAc?$AAo?$AAu?$AAn?$AAt?$AA?5?$AA?$DN?$AA?$DN?$AA?5?$AA0?$AA?$CJ?$AA?5?$AA?$HM?$AA?$HM?$AA?5?$AA?$CI?$AAs?$AAt?$AAr?$AAi?$AAn?$AAg?$AA?5?$AA?$CB?$AA?$DN?$AA?5?$AAN?$AAU?$AAL?$AAL?$AA?$CJ@ 0048ed78     LIBCMTD:snprintf.obj
 0002:00009dbc       ??_C@_1BE@CHNFPLHD@?$AA_?$AAs?$AAn?$AAp?$AAr?$AAi?$AAn?$AAt?$AAf?$AA?$AA@ 0048edbc     LIBCMTD:snprintf.obj
 0002:00009dd0       ??_C@_1GC@BMNPEKNN@?$AAf?$AA?3?$AA?2?$AAd?$AAd?$AA?2?$AAv?$AAc?$AAt?$AAo?$AAo?$AAl?$AAs?$AA?2?$AAc?$AAr?$AAt?$AA_?$AAb?$AAl?$AAd?$AA?2?$AAs?$AAe?$AAl?$AAf?$AA_?$AAx?$AA8?$AA6?$AA?2?$AAc@ 0048edd0     LIBCMTD:snprintf.obj
 0002:00009e34       ??_C@_1CC@MGIEJOME@?$AA?$CI?$AAf?$AAo?$AAr?$AAm?$AAa?$AAt?$AA?5?$AA?$CB?$AA?$DN?$AA?5?$AAN?$AAU?$AAL?$AAL?$AA?$CJ?$AA?$AA@ 0048ee34     LIBCMTD:snprintf.obj
 0002:00009e58       ??_C@_1BAA@ODEGEDCK@?$AA?$CI?$AA?5?$AA?$CI?$AA_?$AAS?$AAt?$AAr?$AAe?$AAa?$AAm?$AA?9?$AA?$DO?$AA_?$AAf?$AAl?$AAa?$AAg?$AA?5?$AA?$CG?$AA?5?$AA_?$AAI?$AAO?$AAS?$AAT?$AAR?$AAG?$AA?$CJ?$AA?5?$AA?$HM?$AA?$HM?$AA?5@ 0048ee58     LIBCMTD:fprintf.obj
 0002:00009f58       ??_C@_1BA@DNOHIGNM@?$AAf?$AAp?$AAr?$AAi?$AAn?$AAt?$AAf?$AA?$AA@ 0048ef58     LIBCMTD:fprintf.obj
 0002:00009f68       ??_C@_1GC@NHJDDBOH@?$AAf?$AA?3?$AA?2?$AAd?$AAd?$AA?2?$AAv?$AAc?$AAt?$AAo?$AAo?$AAl?$AAs?$AA?2?$AAc?$AAr?$AAt?$AA_?$AAb?$AAl?$AAd?$AA?2?$AAs?$AAe?$AAl?$AAf?$AA_?$AAx?$AA8?$AA6?$AA?2?$AAc@ 0048ef68     LIBCMTD:fprintf.obj
 0002:00009fcc       ??_C@_1BM@JMKHIAHP@?$AA?$CI?$AAs?$AAt?$AAr?$AA?5?$AA?$CB?$AA?$DN?$AA?5?$AAN?$AAU?$AAL?$AAL?$AA?$CJ?$AA?$AA@ 0048efcc     LIBCMTD:fprintf.obj
 0002:00009fe8       ??_C@_0CP@BNKDODJJ@f?3?2dd?2vctools?2crt_bld?2self_x86?2c@ 0048efe8     LIBCMTD:_file.obj
 0002:0000a018       ??_C@_1CC@CGHMNGDG@?$AAA?$AAs?$AAs?$AAe?$AAr?$AAt?$AAi?$AAo?$AAn?$AA?5?$AAF?$AAa?$AAi?$AAl?$AAe?$AAd?$AA?$AA@ 0048f018     LIBCMTD:dbgrptw.obj
 0002:0000a03c       ??_C@_1M@ILHOPKA@?$AAE?$AAr?$AAr?$AAo?$AAr?$AA?$AA@ 0048f03c     LIBCMTD:dbgrptw.obj
 0002:0000a048       ??_C@_1BA@GLMCNLEM@?$AAW?$AAa?$AAr?$AAn?$AAi?$AAn?$AAg?$AA?$AA@ 0048f048     LIBCMTD:dbgrptw.obj
 0002:0000a064       ??_C@_0DA@PCCBBBID@f?3?2dd?2vctools?2crt_bld?2self_x86?2c@ 0048f064     LIBCMTD:dbgrptw.obj
 0002:0000a098       ??_C@_1FI@PHIAFFHM@?$AA?$CI?$AA?$CC?$AAT?$AAh?$AAe?$AA?5?$AAh?$AAo?$AAo?$AAk?$AA?5?$AAf?$AAu?$AAn?$AAc?$AAt?$AAi?$AAo?$AAn?$AA?5?$AAi?$AAs?$AA?5?$AAn?$AAo?$AAt?$AA?5?$AAi?$AAn?$AA?5?$AAt?$AAh@ 0048f098     LIBCMTD:dbgrptw.obj
 0002:0000a0f0       ??_C@_1CG@JBJEFOCM@?$AAp?$AAf?$AAn?$AAN?$AAe?$AAw?$AAH?$AAo?$AAo?$AAk?$AA?5?$AA?$CB?$AA?$DN?$AA?5?$AAN?$AAU?$AAL?$AAL?$AA?$AA@ 0048f0f0     LIBCMTD:dbgrptw.obj
 0002:0000a118       ??_C@_1CI@IIHEAKEI@?$AA_?$AAC?$AAr?$AAt?$AAS?$AAe?$AAt?$AAR?$AAe?$AAp?$AAo?$AAr?$AAt?$AAH?$AAo?$AAo?$AAk?$AAW?$AA2?$AA?$AA@ 0048f118     LIBCMTD:dbgrptw.obj
 0002:0000a140       ??_C@_1GA@IBJGKIFE@?$AAf?$AA?3?$AA?2?$AAd?$AAd?$AA?2?$AAv?$AAc?$AAt?$AAo?$AAo?$AAl?$AAs?$AA?2?$AAc?$AAr?$AAt?$AA_?$AAb?$AAl?$AAd?$AA?2?$AAs?$AAe?$AAl?$AAf?$AA_?$AAx?$AA8?$AA6?$AA?2?$AAc@ 0048f140     LIBCMTD:dbgrptw.obj
 0002:0000a1a0       ??_C@_1HI@OFEHGPPC@?$AAm?$AAo?$AAd?$AAe?$AA?5?$AA?$DN?$AA?$DN?$AA?5?$AA_?$AAC?$AAR?$AAT?$AA_?$AAR?$AAP?$AAT?$AAH?$AAO?$AAO?$AAK?$AA_?$AAI?$AAN?$AAS?$AAT?$AAA?$AAL?$AAL?$AA?5?$AA?$HM?$AA?$HM?$AA?5@ 0048f1a0     LIBCMTD:dbgrptw.obj
 0002:0000a218       ??_C@_1EG@PEOEAKBB@?$AAM?$AAi?$AAc?$AAr?$AAo?$AAs?$AAo?$AAf?$AAt?$AA?5?$AAV?$AAi?$AAs?$AAu?$AAa?$AAl?$AA?5?$AAC?$AA?$CL?$AA?$CL?$AA?5?$AAD?$AAe?$AAb?$AAu?$AAg?$AA?5?$AAL?$AAi?$AAb?$AAr?$AAa@ 0048f218     LIBCMTD:dbgrptw.obj
 0002:0000a260       ??_C@_1FG@BBOLDHGF@?$AA_?$AAC?$AAr?$AAt?$AAD?$AAb?$AAg?$AAR?$AAe?$AAp?$AAo?$AAr?$AAt?$AA?3?$AA?5?$AAS?$AAt?$AAr?$AAi?$AAn?$AAg?$AA?5?$AAt?$AAo?$AAo?$AA?5?$AAl?$AAo?$AAn?$AAg?$AA?5?$AAo@ 0048f260     LIBCMTD:dbgrptw.obj
 0002:0000a2b8       ??_C@_1JI@EACPGHID@?$AAw?$AAc?$AAs?$AAc?$AAp?$AAy?$AA_?$AAs?$AA?$CI?$AAs?$AAz?$AAO?$AAu?$AAt?$AAM?$AAe?$AAs?$AAs?$AAa?$AAg?$AAe?$AA?0?$AA?5?$AA4?$AA0?$AA9?$AA6?$AA?0?$AA?5?$AAL?$AA?$CC?$AA_@ 0048f2b8     LIBCMTD:dbgrptw.obj
 0002:0000a350       ??_C@_1BI@KALLJECN@?$AA?$CI?$AA?$CK?$AA_?$AAe?$AAr?$AAr?$AAn?$AAo?$AA?$CI?$AA?$CJ?$AA?$CJ?$AA?$AA@ 0048f350     LIBCMTD:dbgrptw.obj
 0002:0000a368       ??_C@_1KK@MEFMPOLM@?$AAD?$AAe?$AAb?$AAu?$AAg?$AA?5?$AA?$CF?$AAs?$AA?$CB?$AA?6?$AA?6?$AAP?$AAr?$AAo?$AAg?$AAr?$AAa?$AAm?$AA?3?$AA?5?$AA?$CF?$AAs?$AA?$CF?$AAs?$AA?$CF?$AAs?$AA?$CF?$AAs?$AA?$CF?$AAs?$AA?$CF?$AAs@ 0048f368     LIBCMTD:dbgrptw.obj
 0002:0000a414       ??_C@_1BE@CGCJKGHI@?$AA?6?$AAM?$AAo?$AAd?$AAu?$AAl?$AAe?$AA?3?$AA?5?$AA?$AA@ 0048f414     LIBCMTD:dbgrptw.obj
 0002:0000a428       ??_C@_1BA@LNHECFIM@?$AA?6?$AAF?$AAi?$AAl?$AAe?$AA?3?$AA?5?$AA?$AA@ 0048f428     LIBCMTD:dbgrptw.obj
 0002:0000a438       ??_C@_1BA@GLLGCPCK@?$AA?6?$AAL?$AAi?$AAn?$AAe?$AA?3?$AA?5?$AA?$AA@ 0048f438     LIBCMTD:dbgrptw.obj
 0002:0000a448       ??_C@_11LOCGONAA@?$AA?$AA@ 0048f448     LIBCMTD:dbgrptw.obj
 0002:0000a450       ??_C@_1OG@PMPPFHAF@?$AA?6?$AA?6?$AAF?$AAo?$AAr?$AA?5?$AAi?$AAn?$AAf?$AAo?$AAr?$AAm?$AAa?$AAt?$AAi?$AAo?$AAn?$AA?5?$AAo?$AAn?$AA?5?$AAh?$AAo?$AAw?$AA?5?$AAy?$AAo?$AAu?$AAr?$AA?5?$AAp?$AAr@ 0048f450     LIBCMTD:dbgrptw.obj
 0002:0000a538       ??_C@_1NO@LECLLHOL@?$AAm?$AAe?$AAm?$AAc?$AAp?$AAy?$AA_?$AAs?$AA?$CI?$AAs?$AAz?$AAS?$AAh?$AAo?$AAr?$AAt?$AAP?$AAr?$AAo?$AAg?$AAN?$AAa?$AAm?$AAe?$AA?0?$AA?5?$AAs?$AAi?$AAz?$AAe?$AAo?$AAf@ 0048f538     LIBCMTD:dbgrptw.obj
 0002:0000a618       ??_C@_1GI@DEDNNLCI@?$AAw?$AAc?$AAs?$AAc?$AAp?$AAy?$AA_?$AAs?$AA?$CI?$AAs?$AAz?$AAE?$AAx?$AAe?$AAN?$AAa?$AAm?$AAe?$AA?0?$AA?5?$AA2?$AA6?$AA0?$AA?0?$AA?5?$AAL?$AA?$CC?$AA?$DM?$AAp?$AAr?$AAo?$AAg@ 0048f618     LIBCMTD:dbgrptw.obj
 0002:0000a680       ??_C@_1CI@PGJIFDEK@?$AA_?$AA_?$AAc?$AAr?$AAt?$AAM?$AAe?$AAs?$AAs?$AAa?$AAg?$AAe?$AAW?$AAi?$AAn?$AAd?$AAo?$AAw?$AAW?$AA?$AA@ 0048f680     LIBCMTD:dbgrptw.obj
 0002:0000a6a8       ??_C@_0DA@HMCPFNKN@f?3?2dd?2vctools?2crt_bld?2self_x86?2c@ 0048f6a8     LIBCMTD:onexit.obj
 0002:0000a6d8       __pDestructExceptionObject 0048f6d8     LIBCMTD:frame.obj
 0002:0000a6dc       ??_C@_0O@DPKOEFFH@bad?5exception?$AA@ 0048f6dc     LIBCMTD:frame.obj
 0002:0000a6f0       ??_7bad_exception@std@@6B@ 0048f6f0     LIBCMTD:frame.obj
 0002:0000a6f8       ??_C@_0DC@LMJHGCKC@f?3?2dd?2vctools?2crt_bld?2self_x86?2c@ 0048f6f8     LIBCMTD:tidtable.obj
 0002:0000a72c       ??_C@_07PEJMOBNF@FlsFree?$AA@ 0048f72c     LIBCMTD:tidtable.obj
 0002:0000a734       ??_C@_0M@JCPCPOEF@FlsSetValue?$AA@ 0048f734     LIBCMTD:tidtable.obj
 0002:0000a740       ??_C@_0M@GDNOONDI@FlsGetValue?$AA@ 0048f740     LIBCMTD:tidtable.obj
 0002:0000a74c       ??_C@_08KNHFBNJ@FlsAlloc?$AA@ 0048f74c     LIBCMTD:tidtable.obj
 0002:0000a758       ??_C@_1BK@DBDEIDLH@?$AAK?$AAE?$AAR?$AAN?$AAE?$AAL?$AA3?$AA2?$AA?4?$AAD?$AAL?$AAL?$AA?$AA@ 0048f758     LIBCMTD:tidtable.obj
 0002:0000a774       ??_C@_0BO@GNIAFIKK@Unknown?5Runtime?5Check?5Error?6?$AN?$AA@ 0048f774     LIBCMTD:_error_.obj
 0002:0000a794       ??_C@_0CM@NGINOKPC@Stack?5memory?5around?5_alloca?5was?5@ 0048f794     LIBCMTD:_error_.obj
 0002:0000a7c0       ??_C@_0DG@HKJMLLLP@A?5local?5variable?5was?5used?5before@ 0048f7c0     LIBCMTD:_error_.obj
 0002:0000a7f8       ??_C@_0BN@FFOINMNJ@Stack?5memory?5was?5corrupted?6?$AN?$AA@ 0048f7f8     LIBCMTD:_error_.obj
 0002:0000a818       ??_C@_0BBN@GPMLNJCF@A?5cast?5to?5a?5smaller?5data?5type?5ha@ 0048f818     LIBCMTD:_error_.obj
 0002:0000a938       ??_C@_0NN@NGPKDKPD@The?5value?5of?5ESP?5was?5not?5properl@ 0048f938     LIBCMTD:_error_.obj
 0002:0000aab4       ??_C@_0CA@IODNCDPG@Run?9Time?5Check?5Failure?5?$CD?$CFd?5?9?5?$CFs?$AA@ 0048fab4     LIBCMTD:_error_.obj
 0002:0000aad4       ??_C@_0BE@GNBOBNCK@Unknown?5Module?5Name?$AA@ 0048fad4     LIBCMTD:_error_.obj
 0002:0000aae8       ??_C@_0BB@PFFGGCJP@Unknown?5Filename?$AA@ 0048fae8     LIBCMTD:_error_.obj
 0002:0000ab00       ??_C@_1EA@NFKNIFJP@?$AAR?$AAu?$AAn?$AA?9?$AAT?$AAi?$AAm?$AAe?$AA?5?$AAC?$AAh?$AAe?$AAc?$AAk?$AA?5?$AAF?$AAa?$AAi?$AAl?$AAu?$AAr?$AAe?$AA?5?$AA?$CD?$AA?$CF?$AAd?$AA?5?$AA?9?$AA?5?$AA?$CF?$AAs?$AA?$AA@ 0048fb00     LIBCMTD:_error_.obj
 0002:0000ab40       ??_C@_1GM@OLMCBDMB@?$AAR?$AAu?$AAn?$AAt?$AAi?$AAm?$AAe?$AA?5?$AAC?$AAh?$AAe?$AAc?$AAk?$AA?5?$AAE?$AAr?$AAr?$AAo?$AAr?$AA?4?$AA?6?$AA?$AN?$AA?5?$AAU?$AAn?$AAa?$AAb?$AAl?$AAe?$AA?5?$AAt?$AAo@ 0048fb40     LIBCMTD:_error_.obj
 0002:0000abac       ??_C@_0CG@IAFNJNEE@Stack?5corrupted?5near?5unknown?5var@ 0048fbac     LIBCMTD:_error_.obj
 0002:0000abd8       ??_C@_0EJ@LJKNEOLN@Stack?5area?5around?5_alloca?5memory@ 0048fbd8     LIBCMTD:_error_.obj
 0002:0000ac24       ??_C@_08KJEDNCKC@?$CFs?$CFs?$CFs?$CFs?$AA@ 0048fc24     LIBCMTD:_error_.obj
 0002:0000ac30       ??_C@_02LLMPMKNF@?$DO?5?$AA@ 0048fc30     LIBCMTD:_error_.obj
 0002:0000ac34       ??_C@_01EEMJAFIK@?6?$AA@   0048fc34     LIBCMTD:_error_.obj
 0002:0000ac38       ??_C@_0BC@KIBAILCI@?$CFs?$CFs?$CFp?$CFs?$CFld?$CFs?$CFd?$CFs?$AA@ 0048fc38     LIBCMTD:_error_.obj
 0002:0000ac50       ??_C@_0EI@CLEPFNGI@Stack?5area?5around?5_alloca?5memory@ 0048fc50     LIBCMTD:_error_.obj
 0002:0000ac98       ??_C@_0N@MHFFIMFG@?6Address?3?50x?$AA@ 0048fc98     LIBCMTD:_error_.obj
 0002:0000aca8       ??_C@_07DFDJCKFN@?6Size?3?5?$AA@ 0048fca8     LIBCMTD:_error_.obj
 0002:0000acb0       ??_C@_0CK@DKGBICFE@?6Allocation?5number?5within?5this?5f@ 0048fcb0     LIBCMTD:_error_.obj
 0002:0000acdc       ??_C@_08OMAHNMHJ@?6Data?3?5?$DM?$AA@ 0048fcdc     LIBCMTD:_error_.obj
 0002:0000ace8       ??_C@_09FOPFMPEJ@wsprintfA?$AA@ 0048fce8     LIBCMTD:_error_.obj
 0002:0000acf4       ??_C@_1BG@OILDLIOJ@?$AAu?$AAs?$AAe?$AAr?$AA3?$AA2?$AA?4?$AAd?$AAl?$AAl?$AA?$AA@ 0048fcf4     LIBCMTD:_error_.obj
 0002:0000ad0c       ??_C@_05MKKEDADM@?$CF?42X?5?$AA@ 0048fd0c     LIBCMTD:_error_.obj
 0002:0000ad14       ??_C@_0DE@OHJBPMBP@A?5variable?5is?5being?5used?5without@ 0048fd14     LIBCMTD:_error_.obj
 0002:0000ad50       ??_C@_0BP@OGBCLIBO@Stack?5around?5_alloca?5corrupted?$AA@ 0048fd50     LIBCMTD:_userapi_.obj
 0002:0000ad70       ??_C@_0CK@CNLNOEPB@Local?5variable?5used?5before?5initi@ 0048fd70     LIBCMTD:_userapi_.obj
 0002:0000ad9c       ??_C@_0BI@CIGMDCBH@Stack?5memory?5corruption?$AA@ 0048fd9c     LIBCMTD:_userapi_.obj
 0002:0000adb4       ??_C@_0CK@FEGOIOPB@Cast?5to?5smaller?5type?5causing?5los@ 0048fdb4     LIBCMTD:_userapi_.obj
 0002:0000ade0       ??_C@_0BJ@HEGAHDFO@Stack?5pointer?5corruption?$AA@ 0048fde0     LIBCMTD:_userapi_.obj
 0002:0000ae10       ??_C@_0DP@CBBAPGOP@f?3?2dd?2vctools?2crt_bld?2self_x86?2c@ 0048fe10     LIBCMTD:chkesp.obj
 0002:0000ae4f       ??_C@_00CNPNBAHC@?$AA@     0048fe4f     LIBCMTD:chkesp.obj
 0002:0000ae50       ??_C@_0NM@DNEDKLDF@The?5value?5of?5ESP?5was?5not?5properl@ 0048fe50     LIBCMTD:chkesp.obj
 0002:0000af30       ??_C@_1HG@KNCBMCDD@?$AAf?$AA?3?$AA?2?$AAd?$AAd?$AA?2?$AAv?$AAc?$AAt?$AAo?$AAo?$AAl?$AAs?$AA?2?$AAc?$AAr?$AAt?$AA_?$AAb?$AAl?$AAd?$AA?2?$AAs?$AAe?$AAl?$AAf?$AA_?$AAx?$AA8?$AA6?$AA?2?$AAc@ 0048ff30     LIBCMTD:typname.obj
 0002:0000afa8       ??_C@_1CK@GELGGBDK@?$AAp?$AAN?$AAo?$AAd?$AAe?$AA?9?$AA?$DO?$AA_?$AAN?$AAe?$AAx?$AAt?$AA?5?$AA?$CB?$AA?$DN?$AA?5?$AAN?$AAU?$AAL?$AAL?$AA?$AA@ 0048ffa8     LIBCMTD:typname.obj
 0002:0000afd8       ??_C@_1JK@NAFNEPGC@?$AAs?$AAt?$AAr?$AAc?$AAp?$AAy?$AA_?$AAs?$AA?5?$AA?$CI?$AA?$CI?$AAc?$AAh?$AAa?$AAr?$AA?5?$AA?$CK?$AA?$CJ?$AA?$CI?$AA?$CI?$AAt?$AAy?$AAp?$AAe?$AA_?$AAi?$AAn?$AAf?$AAo?$AA?5?$AA?$CK?$AA?$CJ@ 0048ffd8     LIBCMTD:typname.obj
 0002:0000b074       ??_C@_1CM@OOICDMK@?$AAt?$AAy?$AAp?$AAe?$AA_?$AAi?$AAn?$AAf?$AAo?$AA?3?$AA?3?$AA_?$AAN?$AAa?$AAm?$AAe?$AA_?$AAb?$AAa?$AAs?$AAe?$AA?$AA@ 00490074     LIBCMTD:typname.obj
 0002:0000b0a0       ??_C@_1GI@EAJKJPED@?$AAs?$AAt?$AAr?$AAc?$AAp?$AAy?$AA_?$AAs?$AA?5?$AA?$CI?$AAp?$AAT?$AAm?$AAp?$AAT?$AAy?$AAp?$AAe?$AAN?$AAa?$AAm?$AAe?$AA?0?$AA?5?$AAl?$AAe?$AAn?$AA?$CL?$AA2?$AA?0?$AA?5?$AA?$CI@ 004900a0     LIBCMTD:typname.obj
 0002:0000b108       ??_C@_1DO@OJJLFJPE@?$AAt?$AAy?$AAp?$AAe?$AA_?$AAi?$AAn?$AAf?$AAo?$AA?3?$AA?3?$AA_?$AAN?$AAa?$AAm?$AAe?$AA_?$AAb?$AAa?$AAs?$AAe?$AA_?$AAi?$AAn?$AAt?$AAe?$AAr?$AAn?$AAa?$AAl?$AA?$AA@ 00490108     LIBCMTD:typname.obj
 0002:0000b148       ??_C@_0CP@MKONOLCI@f?3?2dd?2vctools?2crt_bld?2self_x86?2c@ 00490148     LIBCMTD:mlock.obj
 0002:0000b178       ??_C@_06PJIGMIJB@Client?$AA@ 00490178     LIBCMTD:dbgheap.obj
 0002:0000b180       ??_C@_06KMEJCCGM@Ignore?$AA@ 00490180     LIBCMTD:dbgheap.obj
 0002:0000b188       ??_C@_03OGPFLFLO@CRT?$AA@  00490188     LIBCMTD:dbgheap.obj
 0002:0000b18c       ??_C@_06EFAGIKOH@Normal?$AA@ 0049018c     LIBCMTD:dbgheap.obj
 0002:0000b194       ??_C@_04HJMOFLDF@Free?$AA@ 00490194     LIBCMTD:dbgheap.obj
 0002:0000b1b0       ??_C@_0DC@JEMAGEKG@Error?3?5memory?5allocation?3?5bad?5me@ 004901b0     LIBCMTD:dbgheap.obj
 0002:0000b1e4       ??_C@_0CF@BICKFLAF@Invalid?5allocation?5size?3?5?$CFIu?5byt@ 004901e4     LIBCMTD:dbgheap.obj
 0002:0000b20c       ??_C@_02DKCKIIND@?$CFs?$AA@ 0049020c     LIBCMTD:dbgheap.obj
 0002:0000b210       ??_C@_0CB@CCLOLAHO@Client?5hook?5allocation?5failure?4?6@ 00490210     LIBCMTD:dbgheap.obj
 0002:0000b234       ??_C@_0DF@BBEGIFEK@Client?5hook?5allocation?5failure?5a@ 00490234     LIBCMTD:dbgheap.obj
 0002:0000b270       ??_C@_1GC@DNJKKEAA@?$AAf?$AA?3?$AA?2?$AAd?$AAd?$AA?2?$AAv?$AAc?$AAt?$AAo?$AAo?$AAl?$AAs?$AA?2?$AAc?$AAr?$AAt?$AA_?$AAb?$AAl?$AAd?$AA?2?$AAs?$AAe?$AAl?$AAf?$AA_?$AAx?$AA8?$AA6?$AA?2?$AAc@ 00490270     LIBCMTD:dbgheap.obj
 0002:0000b2d4       ??_C@_1CE@LJFEPPMP@?$AA_?$AAC?$AAr?$AAt?$AAC?$AAh?$AAe?$AAc?$AAk?$AAM?$AAe?$AAm?$AAo?$AAr?$AAy?$AA?$CI?$AA?$CJ?$AA?$AA@ 004902d4     LIBCMTD:dbgheap.obj
 0002:0000b2f8       ??_C@_1DE@KOOKLFBB@?$AA_?$AAp?$AAF?$AAi?$AAr?$AAs?$AAt?$AAB?$AAl?$AAo?$AAc?$AAk?$AA?5?$AA?$DN?$AA?$DN?$AA?5?$AAp?$AAO?$AAl?$AAd?$AAB?$AAl?$AAo?$AAc?$AAk?$AA?$AA@ 004902f8     LIBCMTD:dbgheap.obj
 0002:0000b32c       ??_C@_1DC@GEFKNOOL@?$AA_?$AAp?$AAL?$AAa?$AAs?$AAt?$AAB?$AAl?$AAo?$AAc?$AAk?$AA?5?$AA?$DN?$AA?$DN?$AA?5?$AAp?$AAO?$AAl?$AAd?$AAB?$AAl?$AAo?$AAc?$AAk?$AA?$AA@ 0049032c     LIBCMTD:dbgheap.obj
 0002:0000b360       ??_C@_1GE@PCKLOLAO@?$AAf?$AAR?$AAe?$AAa?$AAl?$AAl?$AAo?$AAc?$AA?5?$AA?$HM?$AA?$HM?$AA?5?$AA?$CI?$AA?$CB?$AAf?$AAR?$AAe?$AAa?$AAl?$AAl?$AAo?$AAc?$AA?5?$AA?$CG?$AA?$CG?$AA?5?$AAp?$AAN?$AAe?$AAw?$AAB?$AAl@ 00490360     LIBCMTD:dbgheap.obj
 0002:0000b3c4       ??_C@_0DA@HFBKENN@Error?3?5possible?5heap?5corruption?5@ 004903c4     LIBCMTD:dbgheap.obj
 0002:0000b3f8       ??_C@_1IK@DCPKDGNH@?$AAp?$AAO?$AAl?$AAd?$AAB?$AAl?$AAo?$AAc?$AAk?$AA?9?$AA?$DO?$AAn?$AAL?$AAi?$AAn?$AAe?$AA?5?$AA?$DN?$AA?$DN?$AA?5?$AAI?$AAG?$AAN?$AAO?$AAR?$AAE?$AA_?$AAL?$AAI?$AAN?$AAE?$AA?5@ 004903f8     LIBCMTD:dbgheap.obj
 0002:0000b488       ??_C@_1EE@GFOPCECE@?$AA_?$AAC?$AAr?$AAt?$AAI?$AAs?$AAV?$AAa?$AAl?$AAi?$AAd?$AAH?$AAe?$AAa?$AAp?$AAP?$AAo?$AAi?$AAn?$AAt?$AAe?$AAr?$AA?$CI?$AAp?$AAU?$AAs?$AAe?$AAr?$AAD?$AAa?$AAt?$AAa@ 00490488     LIBCMTD:dbgheap.obj
 0002:0000b4d0       ??_C@_0EM@LGFLMAGJ@The?5Block?5at?50x?$CFp?5was?5allocated?5@ 004904d0     LIBCMTD:dbgheap.obj
 0002:0000b520       ??_C@_0FA@EFEIGJKG@Error?3?5memory?5allocation?3?5bad?5me@ 00490520     LIBCMTD:dbgheap.obj
 0002:0000b570       ??_C@_0ED@GPCPBAGP@Invalid?5allocation?5size?3?5?$CFIu?5byt@ 00490570     LIBCMTD:dbgheap.obj
 0002:0000b5b4       ??_C@_0CE@DOFMDOL@Client?5hook?5re?9allocation?5failur@ 004905b4     LIBCMTD:dbgheap.obj
 0002:0000b5d8       ??_C@_0DI@KKJPDPGM@Client?5hook?5re?9allocation?5failur@ 004905d8     LIBCMTD:dbgheap.obj
 0002:0000b610       ??_C@_1BI@HAPNGHDP@?$AA_?$AAe?$AAx?$AAp?$AAa?$AAn?$AAd?$AA_?$AAd?$AAb?$AAg?$AA?$AA@ 00490610     LIBCMTD:dbgheap.obj
 0002:0000b628       ??_C@_1CE@CJACEFBA@?$AAp?$AAU?$AAs?$AAe?$AAr?$AAD?$AAa?$AAt?$AAa?$AA?5?$AA?$CB?$AA?$DN?$AA?5?$AAN?$AAU?$AAL?$AAL?$AA?$AA@ 00490628     LIBCMTD:dbgheap.obj
 0002:0000b64c       ??_C@_1CM@MMAADDMD@?$AA_?$AAp?$AAF?$AAi?$AAr?$AAs?$AAt?$AAB?$AAl?$AAo?$AAc?$AAk?$AA?5?$AA?$DN?$AA?$DN?$AA?5?$AAp?$AAH?$AAe?$AAa?$AAd?$AA?$AA@ 0049064c     LIBCMTD:dbgheap.obj
 0002:0000b678       ??_C@_1CK@DMAGEMBG@?$AA_?$AAp?$AAL?$AAa?$AAs?$AAt?$AAB?$AAl?$AAo?$AAc?$AAk?$AA?5?$AA?$DN?$AA?$DN?$AA?5?$AAp?$AAH?$AAe?$AAa?$AAd?$AA?$AA@ 00490678     LIBCMTD:dbgheap.obj
 0002:0000b6a4       ??_C@_1DM@ODCJIDCP@?$AAp?$AAH?$AAe?$AAa?$AAd?$AA?9?$AA?$DO?$AAn?$AAB?$AAl?$AAo?$AAc?$AAk?$AAU?$AAs?$AAe?$AA?5?$AA?$DN?$AA?$DN?$AA?5?$AAn?$AAB?$AAl?$AAo?$AAc?$AAk?$AAU?$AAs?$AAe?$AA?$AA@ 004906a4     LIBCMTD:dbgheap.obj
 0002:0000b6e0       ??_C@_1HK@HPCBMDFG@?$AAp?$AAH?$AAe?$AAa?$AAd?$AA?9?$AA?$DO?$AAn?$AAL?$AAi?$AAn?$AAe?$AA?5?$AA?$DN?$AA?$DN?$AA?5?$AAI?$AAG?$AAN?$AAO?$AAR?$AAE?$AA_?$AAL?$AAI?$AAN?$AAE?$AA?5?$AA?$CG?$AA?$CG?$AA?5?$AAp@ 004906e0     LIBCMTD:dbgheap.obj
 0002:0000b760       ??_C@_0IG@LEMBDCJK@HEAP?5CORRUPTION?5DETECTED?3?5after?5@ 00490760     LIBCMTD:dbgheap.obj
 0002:0000b7e8       ??_C@_0KE@MBMNHHHN@HEAP?5CORRUPTION?5DETECTED?3?5after?5@ 004907e8     LIBCMTD:dbgheap.obj
 0002:0000b890       ??_C@_0IK@PJCGLBOB@HEAP?5CORRUPTION?5DETECTED?3?5before@ 00490890     LIBCMTD:dbgheap.obj
 0002:0000b920       ??_C@_0KI@JGFOHMEB@HEAP?5CORRUPTION?5DETECTED?3?5before@ 00490920     LIBCMTD:dbgheap.obj
 0002:0000b9c8       ??_C@_0BL@KEIPLFAC@Client?5hook?5free?5failure?4?6?$AA@ 004909c8     LIBCMTD:dbgheap.obj
 0002:0000b9e8       ??_C@_0EJ@HEIBCIMJ@The?5Block?5at?50x?$CFp?5was?5allocated?5@ 004909e8     LIBCMTD:dbgheap.obj
 0002:0000ba34       ??_C@_1BG@MBKOGDLD@?$AA_?$AAm?$AAs?$AAi?$AAz?$AAe?$AA_?$AAd?$AAb?$AAg?$AA?$AA@ 00490a34     LIBCMTD:dbgheap.obj
 0002:0000ba4c       ??_C@_0CI@JMLBEDHJ@?$CFhs?5located?5at?50x?$CFp?5is?5?$CFIu?5bytes@ 00490a4c     LIBCMTD:dbgheap.obj
 0002:0000ba78       ??_C@_0EG@DGJMPDBH@?$CFhs?5located?5at?50x?$CFp?5is?5?$CFIu?5bytes@ 00490a78     LIBCMTD:dbgheap.obj
 0002:0000bac0       ??_C@_0IC@BBJIOOJH@HEAP?5CORRUPTION?5DETECTED?3?5on?5top@ 00490ac0     LIBCMTD:dbgheap.obj
 0002:0000bb48       ??_C@_0KA@IHNJJKPL@HEAP?5CORRUPTION?5DETECTED?3?5on?5top@ 00490b48     LIBCMTD:dbgheap.obj
 0002:0000bbe8       ??_C@_07OHKEFPKJ@DAMAGED?$AA@ 00490be8     LIBCMTD:dbgheap.obj
 0002:0000bbf0       ??_C@_0CL@HNNNMKMJ@_heapchk?5fails?5with?5unknown?5retu@ 00490bf0     LIBCMTD:dbgheap.obj
 0002:0000bc1c       ??_C@_0CC@MFFCHFHO@_heapchk?5fails?5with?5_HEAPBADPTR?4@ 00490c1c     LIBCMTD:dbgheap.obj
 0002:0000bc40       ??_C@_0CC@MJGLGBDG@_heapchk?5fails?5with?5_HEAPBADEND?4@ 00490c40     LIBCMTD:dbgheap.obj
 0002:0000bc64       ??_C@_0CD@CPKEAPBD@_heapchk?5fails?5with?5_HEAPBADNODE@ 00490c64     LIBCMTD:dbgheap.obj
 0002:0000bc88       ??_C@_0CE@MKKHMBMK@_heapchk?5fails?5with?5_HEAPBADBEGI@ 00490c88     LIBCMTD:dbgheap.obj
 0002:0000bcac       ??_C@_1BO@GJFDNMNF@?$AA_?$AAC?$AAr?$AAt?$AAS?$AAe?$AAt?$AAD?$AAb?$AAg?$AAF?$AAl?$AAa?$AAg?$AA?$AA@ 00490cac     LIBCMTD:dbgheap.obj
 0002:0000bcd0       ??_C@_1BHO@NNANJNF@?$AA?$CI?$AAf?$AAN?$AAe?$AAw?$AAB?$AAi?$AAt?$AAs?$AA?$DN?$AA?$DN?$AA_?$AAC?$AAR?$AAT?$AAD?$AAB?$AAG?$AA_?$AAR?$AAE?$AAP?$AAO?$AAR?$AAT?$AA_?$AAF?$AAL?$AAA?$AAG?$AA?$CJ?$AA?5@ 00490cd0     LIBCMTD:dbgheap.obj
 0002:0000be50       ??_C@_1DE@GJCKCKEC@?$AA_?$AAC?$AAr?$AAt?$AAD?$AAo?$AAF?$AAo?$AAr?$AAA?$AAl?$AAl?$AAC?$AAl?$AAi?$AAe?$AAn?$AAt?$AAO?$AAb?$AAj?$AAe?$AAc?$AAt?$AAs?$AA?$AA@ 00490e50     LIBCMTD:dbgheap.obj
 0002:0000be84       ??_C@_1BI@CJGCEEDL@?$AAp?$AAf?$AAn?$AA?5?$AA?$CB?$AA?$DN?$AA?5?$AAN?$AAU?$AAL?$AAL?$AA?$AA@ 00490e84     LIBCMTD:dbgheap.obj
 0002:0000be9c       ??_C@_0CB@EAAIGELO@Bad?5memory?5block?5found?5at?50x?$CFp?4?6@ 00490e9c     LIBCMTD:dbgheap.obj
 0002:0000bec0       ??_C@_0DP@LEFMFBOD@Bad?5memory?5block?5found?5at?50x?$CFp?4?6@ 00490ec0     LIBCMTD:dbgheap.obj
 0002:0000bf00       ??_C@_1CE@NJJKELF@?$AA_?$AAC?$AAr?$AAt?$AAM?$AAe?$AAm?$AAC?$AAh?$AAe?$AAc?$AAk?$AAp?$AAo?$AAi?$AAn?$AAt?$AA?$AA@ 00490f00     LIBCMTD:dbgheap.obj
 0002:0000bf24       ??_C@_1BM@MIMANDHC@?$AAs?$AAt?$AAa?$AAt?$AAe?$AA?5?$AA?$CB?$AA?$DN?$AA?5?$AAN?$AAU?$AAL?$AAL?$AA?$AA@ 00490f24     LIBCMTD:dbgheap.obj
 0002:0000bf40       ??_C@_1CC@DFPEDFBP@?$AAn?$AAe?$AAw?$AAS?$AAt?$AAa?$AAt?$AAe?$AA?5?$AA?$CB?$AA?$DN?$AA?5?$AAN?$AAU?$AAL?$AAL?$AA?$AA@ 00490f40     LIBCMTD:dbgheap.obj
 0002:0000bf64       ??_C@_1CC@DHPFEMMN@?$AAo?$AAl?$AAd?$AAS?$AAt?$AAa?$AAt?$AAe?$AA?5?$AA?$CB?$AA?$DN?$AA?5?$AAN?$AAU?$AAL?$AAL?$AA?$AA@ 00490f64     LIBCMTD:dbgheap.obj
 0002:0000bf88       ??_C@_1CE@PDIENACM@?$AA_?$AAC?$AAr?$AAt?$AAM?$AAe?$AAm?$AAD?$AAi?$AAf?$AAf?$AAe?$AAr?$AAe?$AAn?$AAc?$AAe?$AA?$AA@ 00490f88     LIBCMTD:dbgheap.obj
 0002:0000bfac       ??_C@_0BH@GFGKJDCO@Object?5dump?5complete?4?6?$AA@ 00490fac     LIBCMTD:dbgheap.obj
 0002:0000bfc4       ??_C@_0DA@MDLBNIBM@crt?5block?5at?50x?$CFp?0?5subtype?5?$CFx?0?5?$CF@ 00490fc4     LIBCMTD:dbgheap.obj
 0002:0000bff4       ??_C@_0CH@FAGDDGPN@normal?5block?5at?50x?$CFp?0?5?$CFIu?5bytes?5@ 00490ff4     LIBCMTD:dbgheap.obj
 0002:0000c01c       ??_C@_0DD@GHNAAKBB@client?5block?5at?50x?$CFp?0?5subtype?5?$CFx@ 0049101c     LIBCMTD:dbgheap.obj
 0002:0000c050       ??_C@_06PKLGBFGM@?$HL?$CFld?$HN?5?$AA@ 00491050     LIBCMTD:dbgheap.obj
 0002:0000c058       ??_C@_0L@JMEFFCCJ@?$CFhs?$CI?$CFd?$CJ?5?3?5?$AA@ 00491058     LIBCMTD:dbgheap.obj
 0002:0000c064       ??_C@_0BE@OIEFNFL@?$CDFile?5Error?$CD?$CI?$CFd?$CJ?5?3?5?$AA@ 00491064     LIBCMTD:dbgheap.obj
 0002:0000c078       ??_C@_0BE@KCIPKCIA@Dumping?5objects?5?9?$DO?6?$AA@ 00491078     LIBCMTD:dbgheap.obj
 0002:0000c08c       ??_C@_0BA@HJBKCELP@?5Data?3?5?$DM?$CFs?$DO?5?$CFs?6?$AA@ 0049108c     LIBCMTD:dbgheap.obj
 0002:0000c09c       ??_C@_1CG@LPFIACGM@?$AA_?$AAp?$AAr?$AAi?$AAn?$AAt?$AAM?$AAe?$AAm?$AAB?$AAl?$AAo?$AAc?$AAk?$AAD?$AAa?$AAt?$AAa?$AA?$AA@ 0049109c     LIBCMTD:dbgheap.obj
 0002:0000c0c4       ??_C@_0BI@JBFPOEJA@Detected?5memory?5leaks?$CB?6?$AA@ 004910c4     LIBCMTD:dbgheap.obj
 0002:0000c0dc       ??_C@_0BP@DEDHGGGI@Total?5allocations?3?5?$CFId?5bytes?4?6?$AA@ 004910dc     LIBCMTD:dbgheap.obj
 0002:0000c0fc       ??_C@_0CB@BLHDAFNE@Largest?5number?5used?3?5?$CFId?5bytes?4?6@ 004910fc     LIBCMTD:dbgheap.obj
 0002:0000c120       ??_C@_0BO@DACNIABB@?$CFId?5bytes?5in?5?$CFId?5?$CFhs?5Blocks?4?6?$AA@ 00491120     LIBCMTD:dbgheap.obj
 0002:0000c140       ??_C@_1CM@MPNIBKGK@?$AA_?$AAC?$AAr?$AAt?$AAM?$AAe?$AAm?$AAD?$AAu?$AAm?$AAp?$AAS?$AAt?$AAa?$AAt?$AAi?$AAs?$AAt?$AAi?$AAc?$AAs?$AA?$AA@ 00491140     LIBCMTD:dbgheap.obj
 0002:0000c16c       ??_C@_1DK@LFLKFPDA@?$AAo?$AAf?$AAf?$AAs?$AAe?$AAt?$AA?5?$AA?$DN?$AA?$DN?$AA?5?$AA0?$AA?5?$AA?$HM?$AA?$HM?$AA?5?$AAo?$AAf?$AAf?$AAs?$AAe?$AAt?$AA?5?$AA?$DM?$AA?5?$AAs?$AAi?$AAz?$AAe?$AA?$AA@ 0049116c     LIBCMTD:dbgheap.obj
 0002:0000c1a8       ??_C@_1DG@DONCJBBJ@?$AA_?$AAa?$AAl?$AAi?$AAg?$AAn?$AAe?$AAd?$AA_?$AAo?$AAf?$AAf?$AAs?$AAe?$AAt?$AA_?$AAm?$AAa?$AAl?$AAl?$AAo?$AAc?$AA_?$AAd?$AAb?$AAg?$AA?$AA@ 004911a8     LIBCMTD:dbgheap.obj
 0002:0000c1e0       ??_C@_1CE@NPMGPNNP@?$AAI?$AAS?$AA_?$AA2?$AA_?$AAP?$AAO?$AAW?$AA_?$AAN?$AA?$CI?$AAa?$AAl?$AAi?$AAg?$AAn?$AA?$CJ?$AA?$AA@ 004911e0     LIBCMTD:dbgheap.obj
 0002:0000c204       ??_C@_1DI@NINIKFFK@?$AA_?$AAa?$AAl?$AAi?$AAg?$AAn?$AAe?$AAd?$AA_?$AAo?$AAf?$AAf?$AAs?$AAe?$AAt?$AA_?$AAr?$AAe?$AAa?$AAl?$AAl?$AAo?$AAc?$AA_?$AAd?$AAb?$AAg?$AA?$AA@ 00491204     LIBCMTD:dbgheap.obj
 0002:0000c23c       ??_C@_0DL@PGHMMKNE@Damage?5before?50x?$CFp?5which?5was?5all@ 0049123c     LIBCMTD:dbgheap.obj
 0002:0000c278       ??_C@_0EI@NDNJMAJK@The?5block?5at?50x?$CFp?5was?5not?5alloca@ 00491278     LIBCMTD:dbgheap.obj
 0002:0000c2c0       ??_C@_0EF@PGELACII@The?5block?5at?50x?$CFp?5was?5not?5alloca@ 004912c0     LIBCMTD:dbgheap.obj
 0002:0000c308       ??_C@_1CG@CEGMHIMN@?$AA_?$AAa?$AAl?$AAi?$AAg?$AAn?$AAe?$AAd?$AA_?$AAm?$AAs?$AAi?$AAz?$AAe?$AA_?$AAd?$AAb?$AAg?$AA?$AA@ 00491308     LIBCMTD:dbgheap.obj
 0002:0000c330       ??_C@_1CC@MOBIKHH@?$AAm?$AAe?$AAm?$AAb?$AAl?$AAo?$AAc?$AAk?$AA?5?$AA?$CB?$AA?$DN?$AA?5?$AAN?$AAU?$AAL?$AAL?$AA?$AA@ 00491330     LIBCMTD:dbgheap.obj
 0002:0000c358       ??_C@_1GG@CDHAPCGF@?$AAf?$AA?3?$AA?2?$AAd?$AAd?$AA?2?$AAv?$AAc?$AAt?$AAo?$AAo?$AAl?$AAs?$AA?2?$AAc?$AAr?$AAt?$AA_?$AAb?$AAl?$AAd?$AA?2?$AAs?$AAe?$AAl?$AAf?$AA_?$AAx?$AA8?$AA6?$AA?2?$AAc@ 00491358     LIBCMTD:handler.obj
 0002:0000c3c0       ??_C@_1BC@JLLICHIC@?$AAp?$AAn?$AAh?$AA?5?$AA?$DN?$AA?$DN?$AA?5?$AA0?$AA?$AA@ 004913c0     LIBCMTD:handler.obj
 0002:0000c3d4       ??_C@_0P@MIGLKIOC@CorExitProcess?$AA@ 004913d4     LIBCMTD:crt0dat.obj
 0002:0000c3e4       ??_C@_1BI@BGOHAHKC@?$AAm?$AAs?$AAc?$AAo?$AAr?$AAe?$AAe?$AA?4?$AAd?$AAl?$AAl?$AA?$AA@ 004913e4     LIBCMTD:crt0dat.obj
 0002:0000c3fc       ??_C@_1CC@CDIPMFPD@?$AA_?$AAw?$AAp?$AAg?$AAm?$AAp?$AAt?$AAr?$AA?5?$AA?$CB?$AA?$DN?$AA?5?$AAN?$AAU?$AAL?$AAL?$AA?$AA@ 004913fc     LIBCMTD:crt0dat.obj
 0002:0000c420       ??_C@_1BK@PNLDCCDP@?$AA_?$AAg?$AAe?$AAt?$AA_?$AAw?$AAp?$AAg?$AAm?$AAp?$AAt?$AAr?$AA?$AA@ 00491420     LIBCMTD:crt0dat.obj
 0002:0000c440       ??_C@_1GC@DGCPEDNJ@?$AAf?$AA?3?$AA?2?$AAd?$AAd?$AA?2?$AAv?$AAc?$AAt?$AAo?$AAo?$AAl?$AAs?$AA?2?$AAc?$AAr?$AAt?$AA_?$AAb?$AAl?$AAd?$AA?2?$AAs?$AAe?$AAl?$AAf?$AA_?$AAx?$AA8?$AA6?$AA?2?$AAc@ 00491440     LIBCMTD:crt0dat.obj
 0002:0000c4a4       ??_C@_1BO@LKEBEKJP@?$AAp?$AAV?$AAa?$AAl?$AAu?$AAe?$AA?5?$AA?$CB?$AA?$DN?$AA?5?$AAN?$AAU?$AAL?$AAL?$AA?$AA@ 004914a4     LIBCMTD:crt0dat.obj
 0002:0000c4c4       ??_C@_1CA@BBNAFCKO@?$AA_?$AAp?$AAg?$AAm?$AAp?$AAt?$AAr?$AA?5?$AA?$CB?$AA?$DN?$AA?5?$AAN?$AAU?$AAL?$AAL?$AA?$AA@ 004914c4     LIBCMTD:crt0dat.obj
 0002:0000c4e4       ??_C@_1BI@COAAPHJK@?$AA_?$AAg?$AAe?$AAt?$AA_?$AAp?$AAg?$AAm?$AAp?$AAt?$AAr?$AA?$AA@ 004914e4     LIBCMTD:crt0dat.obj
 0002:0000c500       __XcptActTab               00491500     LIBCMTD:winxfltr.obj
 0002:0000c590       __First_FPE_Indx           00491590     LIBCMTD:winxfltr.obj
 0002:0000c594       __Num_FPE                  00491594     LIBCMTD:winxfltr.obj
 0002:0000c598       __XcptActTabSize           00491598     LIBCMTD:winxfltr.obj
 0002:0000c59c       __XcptActTabCount          0049159c     LIBCMTD:winxfltr.obj
 0002:0000c5a0       ??_C@_1DE@MMOGFGHF@?$AAs?$AAt?$AAr?$AAc?$AAp?$AAy?$AA_?$AAs?$AA?$CI?$AA?$CK?$AAe?$AAn?$AAv?$AA?0?$AA?5?$AAc?$AAc?$AAh?$AAa?$AAr?$AAs?$AA?0?$AA?5?$AAp?$AA?$CJ?$AA?$AA@ 004915a0     LIBCMTD:stdenvp.obj
 0002:0000c5d4       ??_C@_1BC@GHMCNHHL@?$AA_?$AAs?$AAe?$AAt?$AAe?$AAn?$AAv?$AAp?$AA?$AA@ 004915d4     LIBCMTD:stdenvp.obj
 0002:0000c5e8       ??_C@_1GC@DGBFLDBN@?$AAf?$AA?3?$AA?2?$AAd?$AAd?$AA?2?$AAv?$AAc?$AAt?$AAo?$AAo?$AAl?$AAs?$AA?2?$AAc?$AAr?$AAt?$AA_?$AAb?$AAl?$AAd?$AA?2?$AAs?$AAe?$AAl?$AAf?$AA_?$AAx?$AA8?$AA6?$AA?2?$AAc@ 004915e8     LIBCMTD:stdenvp.obj
 0002:0000c64c       ??_C@_0DB@BMEBJJKP@f?3?2dd?2vctools?2crt_bld?2self_x86?2c@ 0049164c     LIBCMTD:stdenvp.obj
 0002:0000c680       ??_C@_0DB@OEPBJOLC@f?3?2dd?2vctools?2crt_bld?2self_x86?2c@ 00491680     LIBCMTD:stdargv.obj
 0002:0000c6b4       ??_C@_0CP@PPLBCJDN@f?3?2dd?2vctools?2crt_bld?2self_x86?2c@ 004916b4     LIBCMTD:a_env.obj
 0002:0000c6e4       ??_C@_0DA@NBLAKPEL@f?3?2dd?2vctools?2crt_bld?2self_x86?2c@ 004916e4     LIBCMTD:ioinit.obj
 0002:0000c718       ??_C@_1GE@JDDMFOID@?$AAf?$AA?3?$AA?2?$AAd?$AAd?$AA?2?$AAv?$AAc?$AAt?$AAo?$AAo?$AAl?$AAs?$AA?2?$AAc?$AAr?$AAt?$AA_?$AAb?$AAl?$AAd?$AA?2?$AAs?$AAe?$AAl?$AAf?$AA_?$AAx?$AA8?$AA6?$AA?2?$AAc@ 00491718     LIBCMTD:heapinit.obj
 0002:0000c77c       ??_C@_1BC@DENNNKIM@?$AA_?$AAc?$AAr?$AAt?$AAh?$AAe?$AAa?$AAp?$AA?$AA@ 0049177c     LIBCMTD:heapinit.obj
 0002:0000c790       ??_C@_1BO@BKOMIGKJ@?$AAr?$AAu?$AAn?$AAt?$AAi?$AAm?$AAe?$AA?5?$AAe?$AAr?$AAr?$AAo?$AAr?$AA?5?$AA?$AA@ 00491790     LIBCMTD:crt0msg.obj
 0002:0000c7b0       ??_C@_15JNBOKNOG@?$AA?$AN?$AA?6?$AA?$AA@ 004917b0     LIBCMTD:crt0msg.obj
 0002:0000c7b8       ??_C@_1BM@JBBEPPHI@?$AAT?$AAL?$AAO?$AAS?$AAS?$AA?5?$AAe?$AAr?$AAr?$AAo?$AAr?$AA?$AN?$AA?6?$AA?$AA@ 004917b8     LIBCMTD:crt0msg.obj
 0002:0000c7d4       ??_C@_1BK@KMOMNAAI@?$AAS?$AAI?$AAN?$AAG?$AA?5?$AAe?$AAr?$AAr?$AAo?$AAr?$AA?$AN?$AA?6?$AA?$AA@ 004917d4     LIBCMTD:crt0msg.obj
 0002:0000c7f0       ??_C@_1BO@BFCDCGC@?$AAD?$AAO?$AAM?$AAA?$AAI?$AAN?$AA?5?$AAe?$AAr?$AAr?$AAo?$AAr?$AA?$AN?$AA?6?$AA?$AA@ 004917f0     LIBCMTD:crt0msg.obj
 0002:0000c810       ??_C@_1BOO@KGEDBGAJ@?$AAR?$AA6?$AA0?$AA3?$AA3?$AA?$AN?$AA?6?$AA?9?$AA?5?$AAA?$AAt?$AAt?$AAe?$AAm?$AAp?$AAt?$AA?5?$AAt?$AAo?$AA?5?$AAu?$AAs?$AAe?$AA?5?$AAM?$AAS?$AAI?$AAL?$AA?5?$AAc?$AAo?$AAd@ 00491810     LIBCMTD:crt0msg.obj
 0002:0000ca00       ??_C@_1GG@GOPILAJP@?$AAR?$AA6?$AA0?$AA3?$AA2?$AA?$AN?$AA?6?$AA?9?$AA?5?$AAn?$AAo?$AAt?$AA?5?$AAe?$AAn?$AAo?$AAu?$AAg?$AAh?$AA?5?$AAs?$AAp?$AAa?$AAc?$AAe?$AA?5?$AAf?$AAo?$AAr?$AA?5?$AAl?$AAo@ 00491a00     LIBCMTD:crt0msg.obj
 0002:0000ca68       ??_C@_1MG@ENCOOIDF@?$AAR?$AA6?$AA0?$AA3?$AA1?$AA?$AN?$AA?6?$AA?9?$AA?5?$AAA?$AAt?$AAt?$AAe?$AAm?$AAp?$AAt?$AA?5?$AAt?$AAo?$AA?5?$AAi?$AAn?$AAi?$AAt?$AAi?$AAa?$AAl?$AAi?$AAz?$AAe?$AA?5?$AAt@ 00491a68     LIBCMTD:crt0msg.obj
 0002:0000cb30       ??_C@_1DO@BMFCDCD@?$AAR?$AA6?$AA0?$AA3?$AA0?$AA?$AN?$AA?6?$AA?9?$AA?5?$AAC?$AAR?$AAT?$AA?5?$AAn?$AAo?$AAt?$AA?5?$AAi?$AAn?$AAi?$AAt?$AAi?$AAa?$AAl?$AAi?$AAz?$AAe?$AAd?$AA?$AN?$AA?6?$AA?$AA@ 00491b30     LIBCMTD:crt0msg.obj
 0002:0000cb70       ??_C@_1EK@HHFLMAOL@?$AAR?$AA6?$AA0?$AA2?$AA8?$AA?$AN?$AA?6?$AA?9?$AA?5?$AAu?$AAn?$AAa?$AAb?$AAl?$AAe?$AA?5?$AAt?$AAo?$AA?5?$AAi?$AAn?$AAi?$AAt?$AAi?$AAa?$AAl?$AAi?$AAz?$AAe?$AA?5?$AAh?$AAe@ 00491b70     LIBCMTD:crt0msg.obj
 0002:0000cbc0       ??_C@_1GK@MFGOKLAG@?$AAR?$AA6?$AA0?$AA2?$AA7?$AA?$AN?$AA?6?$AA?9?$AA?5?$AAn?$AAo?$AAt?$AA?5?$AAe?$AAn?$AAo?$AAu?$AAg?$AAh?$AA?5?$AAs?$AAp?$AAa?$AAc?$AAe?$AA?5?$AAf?$AAo?$AAr?$AA?5?$AAl?$AAo@ 00491bc0     LIBCMTD:crt0msg.obj
 0002:0000cc30       ??_C@_1GK@MCAAGJMO@?$AAR?$AA6?$AA0?$AA2?$AA6?$AA?$AN?$AA?6?$AA?9?$AA?5?$AAn?$AAo?$AAt?$AA?5?$AAe?$AAn?$AAo?$AAu?$AAg?$AAh?$AA?5?$AAs?$AAp?$AAa?$AAc?$AAe?$AA?5?$AAf?$AAo?$AAr?$AA?5?$AAs?$AAt@ 00491c30     LIBCMTD:crt0msg.obj
 0002:0000cca0       ??_C@_1EM@MAADIHMB@?$AAR?$AA6?$AA0?$AA2?$AA5?$AA?$AN?$AA?6?$AA?9?$AA?5?$AAp?$AAu?$AAr?$AAe?$AA?5?$AAv?$AAi?$AAr?$AAt?$AAu?$AAa?$AAl?$AA?5?$AAf?$AAu?$AAn?$AAc?$AAt?$AAi?$AAo?$AAn?$AA?5?$AAc@ 00491ca0     LIBCMTD:crt0msg.obj
 0002:0000ccf0       ??_C@_1GK@FHCKBEFA@?$AAR?$AA6?$AA0?$AA2?$AA4?$AA?$AN?$AA?6?$AA?9?$AA?5?$AAn?$AAo?$AAt?$AA?5?$AAe?$AAn?$AAo?$AAu?$AAg?$AAh?$AA?5?$AAs?$AAp?$AAa?$AAc?$AAe?$AA?5?$AAf?$AAo?$AAr?$AA?5?$AA_?$AAo@ 00491cf0     LIBCMTD:crt0msg.obj
 0002:0000cd60       ??_C@_1FC@ECHBIFBC@?$AAR?$AA6?$AA0?$AA1?$AA9?$AA?$AN?$AA?6?$AA?9?$AA?5?$AAu?$AAn?$AAa?$AAb?$AAl?$AAe?$AA?5?$AAt?$AAo?$AA?5?$AAo?$AAp?$AAe?$AAn?$AA?5?$AAc?$AAo?$AAn?$AAs?$AAo?$AAl?$AAe?$AA?5@ 00491d60     LIBCMTD:crt0msg.obj
 0002:0000cdb8       ??_C@_1EC@JIBHAOPH@?$AAR?$AA6?$AA0?$AA1?$AA8?$AA?$AN?$AA?6?$AA?9?$AA?5?$AAu?$AAn?$AAe?$AAx?$AAp?$AAe?$AAc?$AAt?$AAe?$AAd?$AA?5?$AAh?$AAe?$AAa?$AAp?$AA?5?$AAe?$AAr?$AAr?$AAo?$AAr?$AA?$AN?$AA?6@ 00491db8     LIBCMTD:crt0msg.obj
 0002:0000ce00       ??_C@_1FK@BEOGODMC@?$AAR?$AA6?$AA0?$AA1?$AA7?$AA?$AN?$AA?6?$AA?9?$AA?5?$AAu?$AAn?$AAe?$AAx?$AAp?$AAe?$AAc?$AAt?$AAe?$AAd?$AA?5?$AAm?$AAu?$AAl?$AAt?$AAi?$AAt?$AAh?$AAr?$AAe?$AAa?$AAd?$AA?5@ 00491e00     LIBCMTD:crt0msg.obj
 0002:0000ce60       ??_C@_1FI@LOGNIKDM@?$AAR?$AA6?$AA0?$AA1?$AA6?$AA?$AN?$AA?6?$AA?9?$AA?5?$AAn?$AAo?$AAt?$AA?5?$AAe?$AAn?$AAo?$AAu?$AAg?$AAh?$AA?5?$AAs?$AAp?$AAa?$AAc?$AAe?$AA?5?$AAf?$AAo?$AAr?$AA?5?$AAt?$AAh@ 00491e60     LIBCMTD:crt0msg.obj
 0002:0000ceb8       ??_C@_1EG@BEHAGFJD@?$AAR?$AA6?$AA0?$AA1?$AA0?$AA?$AN?$AA?6?$AA?9?$AA?5?$AAa?$AAb?$AAo?$AAr?$AAt?$AA?$CI?$AA?$CJ?$AA?5?$AAh?$AAa?$AAs?$AA?5?$AAb?$AAe?$AAe?$AAn?$AA?5?$AAc?$AAa?$AAl?$AAl?$AAe?$AAd@ 00491eb8     LIBCMTD:crt0msg.obj
 0002:0000cf00       ??_C@_1FI@HONFMGBI@?$AAR?$AA6?$AA0?$AA0?$AA9?$AA?$AN?$AA?6?$AA?9?$AA?5?$AAn?$AAo?$AAt?$AA?5?$AAe?$AAn?$AAo?$AAu?$AAg?$AAh?$AA?5?$AAs?$AAp?$AAa?$AAc?$AAe?$AA?5?$AAf?$AAo?$AAr?$AA?5?$AAe?$AAn@ 00491f00     LIBCMTD:crt0msg.obj
 0002:0000cf58       ??_C@_1FE@LLNEDJMD@?$AAR?$AA6?$AA0?$AA0?$AA8?$AA?$AN?$AA?6?$AA?9?$AA?5?$AAn?$AAo?$AAt?$AA?5?$AAe?$AAn?$AAo?$AAu?$AAg?$AAh?$AA?5?$AAs?$AAp?$AAa?$AAc?$AAe?$AA?5?$AAf?$AAo?$AAr?$AA?5?$AAa?$AAr@ 00491f58     LIBCMTD:crt0msg.obj
 0002:0000cfb0       ??_C@_1FK@PGACCAFB@?$AAR?$AA6?$AA0?$AA0?$AA2?$AA?$AN?$AA?6?$AA?9?$AA?5?$AAf?$AAl?$AAo?$AAa?$AAt?$AAi?$AAn?$AAg?$AA?5?$AAp?$AAo?$AAi?$AAn?$AAt?$AA?5?$AAs?$AAu?$AAp?$AAp?$AAo?$AAr?$AAt?$AA?5@ 00491fb0     LIBCMTD:crt0msg.obj
 0002:0000d0c0       ??_C@_1IG@NMONDPP@?$AAw?$AAc?$AAs?$AAc?$AAa?$AAt?$AA_?$AAs?$AA?$CI?$AAo?$AAu?$AAt?$AAm?$AAs?$AAg?$AA?0?$AA?5?$AA?$CI?$AAs?$AAi?$AAz?$AAe?$AAo?$AAf?$AA?$CI?$AAo?$AAu?$AAt?$AAm?$AAs?$AAg?$AA?$CJ@ 004920c0     LIBCMTD:crt0msg.obj
 0002:0000d148       ??_C@_1IA@DCJGKHFO@?$AAw?$AAc?$AAs?$AAc?$AAa?$AAt?$AA_?$AAs?$AA?$CI?$AAo?$AAu?$AAt?$AAm?$AAs?$AAg?$AA?0?$AA?5?$AA?$CI?$AAs?$AAi?$AAz?$AAe?$AAo?$AAf?$AA?$CI?$AAo?$AAu?$AAt?$AAm?$AAs?$AAg?$AA?$CJ@ 00492148     LIBCMTD:crt0msg.obj
 0002:0000d1c8       ??_C@_1HI@FLHKGEBE@?$AAw?$AAc?$AAs?$AAn?$AAc?$AAp?$AAy?$AA_?$AAs?$AA?$CI?$AAp?$AAc?$AAh?$AA?0?$AA?5?$AAp?$AAr?$AAo?$AAg?$AAn?$AAa?$AAm?$AAe?$AA_?$AAs?$AAi?$AAz?$AAe?$AA?5?$AA?9?$AA?5?$AA?$CI@ 004921c8     LIBCMTD:crt0msg.obj
 0002:0000d240       ??_C@_1HK@FJJNAABO@?$AAw?$AAc?$AAs?$AAc?$AAp?$AAy?$AA_?$AAs?$AA?$CI?$AAp?$AAr?$AAo?$AAg?$AAn?$AAa?$AAm?$AAe?$AA?0?$AA?5?$AAp?$AAr?$AAo?$AAg?$AAn?$AAa?$AAm?$AAe?$AA_?$AAs?$AAi?$AAz?$AAe@ 00492240     LIBCMTD:crt0msg.obj
 0002:0000d2bc       ??_C@_1DE@JNGNBFGO@?$AAR?$AAu?$AAn?$AAt?$AAi?$AAm?$AAe?$AA?5?$AAE?$AAr?$AAr?$AAo?$AAr?$AA?$CB?$AA?6?$AA?6?$AAP?$AAr?$AAo?$AAg?$AAr?$AAa?$AAm?$AA?3?$AA?5?$AA?$AA@ 004922bc     LIBCMTD:crt0msg.obj
 0002:0000d2f0       ??_C@_1KO@BKLCKNFL@?$AAw?$AAc?$AAs?$AAc?$AAp?$AAy?$AA_?$AAs?$AA?$CI?$AAo?$AAu?$AAt?$AAm?$AAs?$AAg?$AA?0?$AA?5?$AA?$CI?$AAs?$AAi?$AAz?$AAe?$AAo?$AAf?$AA?$CI?$AAo?$AAu?$AAt?$AAm?$AAs?$AAg?$AA?$CJ@ 004922f0     LIBCMTD:crt0msg.obj
 0002:0000d3a0       ??_C@_1BI@EAHMBMEC@?$AA_?$AAN?$AAM?$AAS?$AAG?$AA_?$AAW?$AAR?$AAI?$AAT?$AAE?$AA?$AA@ 004923a0     LIBCMTD:crt0msg.obj
 0002:0000d3b8       ??_C@_1GC@HKOJBOFF@?$AAf?$AA?3?$AA?2?$AAd?$AAd?$AA?2?$AAv?$AAc?$AAt?$AAo?$AAo?$AAl?$AAs?$AA?2?$AAc?$AAr?$AAt?$AA_?$AAb?$AAl?$AAd?$AA?2?$AAs?$AAe?$AAl?$AAf?$AA_?$AAx?$AA8?$AA6?$AA?2?$AAc@ 004923b8     LIBCMTD:crt0msg.obj
 0002:0000d420       ??_C@_1GO@NGIGJNHH@?$AAs?$AAt?$AAr?$AAn?$AAc?$AAp?$AAy?$AA_?$AAs?$AA?$CI?$AA?$CK?$AAs?$AAt?$AAr?$AAa?$AAd?$AAd?$AAr?$AAe?$AAs?$AAs?$AA?0?$AA?5?$AAo?$AAu?$AAt?$AAs?$AAi?$AAz?$AAe?$AA?0?$AA?5@ 00492420     LIBCMTD:inithelp.obj
 0002:0000d490       ??_C@_1CA@KHHCPEI@?$AA_?$AA_?$AAg?$AAe?$AAt?$AAl?$AAo?$AAc?$AAa?$AAl?$AAe?$AAi?$AAn?$AAf?$AAo?$AA?$AA@ 00492490     LIBCMTD:inithelp.obj
 0002:0000d4b0       ??_C@_1GE@PLPIMDHG@?$AAf?$AA?3?$AA?2?$AAd?$AAd?$AA?2?$AAv?$AAc?$AAt?$AAo?$AAo?$AAl?$AAs?$AA?2?$AAc?$AAr?$AAt?$AA_?$AAb?$AAl?$AAd?$AA?2?$AAs?$AAe?$AAl?$AAf?$AA_?$AAx?$AA8?$AA6?$AA?2?$AAc@ 004924b0     LIBCMTD:inithelp.obj
 0002:0000d514       ??_C@_0DC@CFDMMFIG@f?3?2dd?2vctools?2crt_bld?2self_x86?2c@ 00492514     LIBCMTD:inithelp.obj
 0002:0000d548       ??_C@_1O@EJLDHPPL@?$AAs?$AAi?$AAg?$AAn?$AAa?$AAl?$AA?$AA@ 00492548     LIBCMTD:winsig.obj
 0002:0000d558       ??_C@_1GA@DBECNFG@?$AAf?$AA?3?$AA?2?$AAd?$AAd?$AA?2?$AAv?$AAc?$AAt?$AAo?$AAo?$AAl?$AAs?$AA?2?$AAc?$AAr?$AAt?$AA_?$AAb?$AAl?$AAd?$AA?2?$AAs?$AAe?$AAl?$AAf?$AA_?$AAx?$AA8?$AA6?$AA?2?$AAc@ 00492558     LIBCMTD:winsig.obj
 0002:0000d5b8       ??_C@_1DO@MLNEDKGB@?$AA?$CI?$AA?$CC?$AAI?$AAn?$AAv?$AAa?$AAl?$AAi?$AAd?$AA?5?$AAs?$AAi?$AAg?$AAn?$AAa?$AAl?$AA?5?$AAo?$AAr?$AA?5?$AAe?$AAr?$AAr?$AAo?$AAr?$AA?$CC?$AA?0?$AA?5?$AA0?$AA?$CJ?$AA?$AA@ 004925b8     LIBCMTD:winsig.obj
 0002:0000d5f8       ??_C@_0DA@ELJOOIJF@f?3?2dd?2vctools?2crt_bld?2self_x86?2c@ 004925f8     LIBCMTD:winsig.obj
 0002:0000d628       ??_C@_1M@DMJEIKHL@?$AAr?$AAa?$AAi?$AAs?$AAe?$AA?$AA@ 00492628     LIBCMTD:winsig.obj
 0002:0000d634       ??_C@_0BI@DFKBFLJE@GetProcessWindowStation?$AA@ 00492634     LIBCMTD:crtmboxw.obj
 0002:0000d64c       ??_C@_0BK@DEKFELLI@GetUserObjectInformationW?$AA@ 0049264c     LIBCMTD:crtmboxw.obj
 0002:0000d668       ??_C@_0BD@HHGDFDBJ@GetLastActivePopup?$AA@ 00492668     LIBCMTD:crtmboxw.obj
 0002:0000d67c       ??_C@_0BA@HNOPNCHB@GetActiveWindow?$AA@ 0049267c     LIBCMTD:crtmboxw.obj
 0002:0000d68c       ??_C@_0M@DLDCCGNP@MessageBoxW?$AA@ 0049268c     LIBCMTD:crtmboxw.obj
 0002:0000d698       ??_C@_1BG@GOEBHBDC@?$AAU?$AAS?$AAE?$AAR?$AA3?$AA2?$AA?4?$AAD?$AAL?$AAL?$AA?$AA@ 00492698     LIBCMTD:crtmboxw.obj
 0002:0000d6b0       ??_C@_1CM@HABGDNLJ@?$AAl?$AAe?$AAn?$AAg?$AAt?$AAh?$AA?5?$AA?$DM?$AA?5?$AAs?$AAi?$AAz?$AAe?$AAI?$AAn?$AAT?$AAC?$AAh?$AAa?$AAr?$AAs?$AA?$AA@ 004926b0     LIBCMTD:xtows.obj
 0002:0000d6dc       ??_C@_1DE@PCJGDBBD@?$AA2?$AA?5?$AA?$DM?$AA?$DN?$AA?5?$AAr?$AAa?$AAd?$AAi?$AAx?$AA?5?$AA?$CG?$AA?$CG?$AA?5?$AAr?$AAa?$AAd?$AAi?$AAx?$AA?5?$AA?$DM?$AA?$DN?$AA?5?$AA3?$AA6?$AA?$AA@ 004926dc     LIBCMTD:xtows.obj
 0002:0000d710       ??_C@_1FA@MKGGAGEI@?$AAs?$AAi?$AAz?$AAe?$AAI?$AAn?$AAT?$AAC?$AAh?$AAa?$AAr?$AAs?$AA?5?$AA?$DO?$AA?5?$AA?$CI?$AAs?$AAi?$AAz?$AAe?$AA_?$AAt?$AA?$CJ?$AA?$CI?$AAi?$AAs?$AA_?$AAn?$AAe?$AAg?$AA?5?$AA?$DP@ 00492710     LIBCMTD:xtows.obj
 0002:0000d760       ??_C@_1CC@JNJFIMGE@?$AAs?$AAi?$AAz?$AAe?$AAI?$AAn?$AAT?$AAC?$AAh?$AAa?$AAr?$AAs?$AA?5?$AA?$DO?$AA?5?$AA0?$AA?$AA@ 00492760     LIBCMTD:xtows.obj
 0002:0000d784       ??_C@_1O@NCBFODOE@?$AAx?$AAt?$AAo?$AAw?$AA_?$AAs?$AA?$AA@ 00492784     LIBCMTD:xtows.obj
 0002:0000d798       ??_C@_1FM@MFCBFCGB@?$AAf?$AA?3?$AA?2?$AAd?$AAd?$AA?2?$AAv?$AAc?$AAt?$AAo?$AAo?$AAl?$AAs?$AA?2?$AAc?$AAr?$AAt?$AA_?$AAb?$AAl?$AAd?$AA?2?$AAs?$AAe?$AAl?$AAf?$AA_?$AAx?$AA8?$AA6?$AA?2?$AAc@ 00492798     LIBCMTD:xtows.obj
 0002:0000d7f4       ??_C@_1BI@ICGGMGLK@?$AAb?$AAu?$AAf?$AA?5?$AA?$CB?$AA?$DN?$AA?5?$AAN?$AAU?$AAL?$AAL?$AA?$AA@ 004927f4     LIBCMTD:xtows.obj
 0002:0000d80c       ??_C@_1BC@HDEJCFPB@?$AAx?$AA6?$AA4?$AAt?$AAo?$AAw?$AA_?$AAs?$AA?$AA@ 0049280c     LIBCMTD:xtows.obj
 0002:0000d820       ??_C@_1DM@MADKGDLO@?$AA?$CI?$AAL?$AA?$CC?$AAB?$AAu?$AAf?$AAf?$AAe?$AAr?$AA?5?$AAi?$AAs?$AA?5?$AAt?$AAo?$AAo?$AA?5?$AAs?$AAm?$AAa?$AAl?$AAl?$AA?$CC?$AA?5?$AA?$CG?$AA?$CG?$AA?5?$AA0?$AA?$CJ?$AA?$AA@ 00492820     LIBCMTD:wcsncat_s.obj
 0002:0000d85c       ??_C@_1CI@HCPHDDLE@?$AAB?$AAu?$AAf?$AAf?$AAe?$AAr?$AA?5?$AAi?$AAs?$AA?5?$AAt?$AAo?$AAo?$AA?5?$AAs?$AAm?$AAa?$AAl?$AAl?$AA?$AA@ 0049285c     LIBCMTD:wcsncat_s.obj
 0002:0000d888       ??_C@_1FA@MJKDNFFB@?$AA?$CI?$AAL?$AA?$CC?$AAS?$AAt?$AAr?$AAi?$AAn?$AAg?$AA?5?$AAi?$AAs?$AA?5?$AAn?$AAo?$AAt?$AA?5?$AAn?$AAu?$AAl?$AAl?$AA?5?$AAt?$AAe?$AAr?$AAm?$AAi?$AAn?$AAa?$AAt?$AAe?$AAd@ 00492888     LIBCMTD:wcsncat_s.obj
 0002:0000d8d8       ??_C@_1DM@FHLMIEG@?$AAS?$AAt?$AAr?$AAi?$AAn?$AAg?$AA?5?$AAi?$AAs?$AA?5?$AAn?$AAo?$AAt?$AA?5?$AAn?$AAu?$AAl?$AAl?$AA?5?$AAt?$AAe?$AAr?$AAm?$AAi?$AAn?$AAa?$AAt?$AAe?$AAd?$AA?$AA@ 004928d8     LIBCMTD:wcsncat_s.obj
 0002:0000d914       ??_C@_1CG@OFBJMIGJ@?$AA?$CI?$AA?$CI?$AA?$CI?$AA_?$AAS?$AAr?$AAc?$AA?$CJ?$AA?$CJ?$AA?$CJ?$AA?5?$AA?$CB?$AA?$DN?$AA?5?$AAN?$AAU?$AAL?$AAL?$AA?$AA@ 00492914     LIBCMTD:wcsncat_s.obj
 0002:0000d93c       ??_C@_1BE@KPKIKKCF@?$AAw?$AAc?$AAs?$AAn?$AAc?$AAa?$AAt?$AA_?$AAs?$AA?$AA@ 0049293c     LIBCMTD:wcsncat_s.obj
 0002:0000d950       ??_C@_1GK@DICCLCDF@?$AAf?$AA?3?$AA?2?$AAd?$AAd?$AA?2?$AAv?$AAc?$AAt?$AAo?$AAo?$AAl?$AAs?$AA?2?$AAc?$AAr?$AAt?$AA_?$AAb?$AAl?$AAd?$AA?2?$AAs?$AAe?$AAl?$AAf?$AA_?$AAx?$AA8?$AA6?$AA?2?$AAc@ 00492950     LIBCMTD:wcsncat_s.obj
 0002:0000d9c0       ??_C@_1FC@PFMLEHKI@?$AA?$CI?$AA?$CI?$AA_?$AAD?$AAs?$AAt?$AA?$CJ?$AA?$CJ?$AA?5?$AA?$CB?$AA?$DN?$AA?5?$AAN?$AAU?$AAL?$AAL?$AA?5?$AA?$CG?$AA?$CG?$AA?5?$AA?$CI?$AA?$CI?$AA_?$AAS?$AAi?$AAz?$AAe?$AAI?$AAn?$AAW?$AAo?$AAr@ 004929c0     LIBCMTD:wcsncat_s.obj
 0002:0000da14       ??_C@_1BE@PMMBFFCC@?$AAw?$AAc?$AAs?$AAn?$AAc?$AAp?$AAy?$AA_?$AAs?$AA?$AA@ 00492a14     LIBCMTD:wcsncpy_s.obj
 0002:0000da28       ??_C@_1GK@PAJJBKJF@?$AAf?$AA?3?$AA?2?$AAd?$AAd?$AA?2?$AAv?$AAc?$AAt?$AAo?$AAo?$AAl?$AAs?$AA?2?$AAc?$AAr?$AAt?$AA_?$AAb?$AAl?$AAd?$AA?2?$AAs?$AAe?$AAl?$AAf?$AA_?$AAx?$AA8?$AA6?$AA?2?$AAc@ 00492a28     LIBCMTD:wcsncpy_s.obj
 0002:0000da94       ??_C@_1BC@PLIEPKPJ@?$AAw?$AAc?$AAs?$AAc?$AAa?$AAt?$AA_?$AAs?$AA?$AA@ 00492a94     LIBCMTD:wcscat_s.obj
 0002:0000daa8       ??_C@_1GI@NOKGIAGA@?$AAf?$AA?3?$AA?2?$AAd?$AAd?$AA?2?$AAv?$AAc?$AAt?$AAo?$AAo?$AAl?$AAs?$AA?2?$AAc?$AAr?$AAt?$AA_?$AAb?$AAl?$AAd?$AA?2?$AAs?$AAe?$AAl?$AAf?$AA_?$AAx?$AA8?$AA6?$AA?2?$AAc@ 00492aa8     LIBCMTD:wcscat_s.obj
 0002:0000db10       ??_C@_1BC@KIONAFPO@?$AAw?$AAc?$AAs?$AAc?$AAp?$AAy?$AA_?$AAs?$AA?$AA@ 00492b10     LIBCMTD:wcscpy_s.obj
 0002:0000db28       ??_C@_1GI@BGBNCIMA@?$AAf?$AA?3?$AA?2?$AAd?$AAd?$AA?2?$AAv?$AAc?$AAt?$AAo?$AAo?$AAl?$AAs?$AA?2?$AAc?$AAr?$AAt?$AA_?$AAb?$AAl?$AAd?$AA?2?$AAs?$AAe?$AAl?$AAf?$AA_?$AAx?$AA8?$AA6?$AA?2?$AAc@ 00492b28     LIBCMTD:wcscpy_s.obj
 0002:0000db90       ??_C@_1BC@BHLPNJBO@?$AAf?$AAw?$AAp?$AAr?$AAi?$AAn?$AAt?$AAf?$AA?$AA@ 00492b90     LIBCMTD:fwprintf.obj
 0002:0000dba8       ??_C@_1GE@NIBJAMDO@?$AAf?$AA?3?$AA?2?$AAd?$AAd?$AA?2?$AAv?$AAc?$AAt?$AAo?$AAo?$AAl?$AAs?$AA?2?$AAc?$AAr?$AAt?$AA_?$AAb?$AAl?$AAd?$AA?2?$AAs?$AAe?$AAl?$AAf?$AA_?$AAx?$AA8?$AA6?$AA?2?$AAc@ 00492ba8     LIBCMTD:fwprintf.obj
 0002:0000dc0c       ??_C@_0DB@MIGHMKAN@f?3?2dd?2vctools?2crt_bld?2self_x86?2c@ 00492c0c     LIBCMTD:setvbuf.obj
 0002:0000dc40       ??_C@_1EG@IJNJIDNB@?$AA?$CI?$AA?$CI?$AA2?$AA?5?$AA?$DM?$AA?$DN?$AA?5?$AAs?$AAi?$AAz?$AAe?$AA?$CJ?$AA?5?$AA?$CG?$AA?$CG?$AA?5?$AA?$CI?$AAs?$AAi?$AAz?$AAe?$AA?5?$AA?$DM?$AA?$DN?$AA?5?$AAI?$AAN?$AAT?$AA_?$AAM?$AAA?$AAX@ 00492c40     LIBCMTD:setvbuf.obj
 0002:0000dc88       ??_C@_1HC@CBFEDAGG@?$AA?$CI?$AAt?$AAy?$AAp?$AAe?$AA?5?$AA?$DN?$AA?$DN?$AA?5?$AA_?$AAI?$AAO?$AAN?$AAB?$AAF?$AA?$CJ?$AA?5?$AA?$HM?$AA?$HM?$AA?5?$AA?$CI?$AAt?$AAy?$AAp?$AAe?$AA?5?$AA?$DN?$AA?$DN?$AA?5?$AA_?$AAI?$AAO@ 00492c88     LIBCMTD:setvbuf.obj
 0002:0000dcfc       ??_C@_1BA@OGODIODK@?$AAs?$AAe?$AAt?$AAv?$AAb?$AAu?$AAf?$AA?$AA@ 00492cfc     LIBCMTD:setvbuf.obj
 0002:0000dd10       ??_C@_1GC@FPPJLAOD@?$AAf?$AA?3?$AA?2?$AAd?$AAd?$AA?2?$AAv?$AAc?$AAt?$AAo?$AAo?$AAl?$AAs?$AA?2?$AAc?$AAr?$AAt?$AA_?$AAb?$AAl?$AAd?$AA?2?$AAs?$AAe?$AAl?$AAf?$AA_?$AAx?$AA8?$AA6?$AA?2?$AAc@ 00492d10     LIBCMTD:setvbuf.obj
 0002:0000dd74       ??_C@_1CA@LFDHAMEM@?$AA_?$AAs?$AAe?$AAt?$AA_?$AAe?$AAr?$AAr?$AAo?$AAr?$AA_?$AAm?$AAo?$AAd?$AAe?$AA?$AA@ 00492d74     LIBCMTD:errmode.obj
 0002:0000dd98       ??_C@_1GC@FGMGFCNB@?$AAf?$AA?3?$AA?2?$AAd?$AAd?$AA?2?$AAv?$AAc?$AAt?$AAo?$AAo?$AAl?$AAs?$AA?2?$AAc?$AAr?$AAt?$AA_?$AAb?$AAl?$AAd?$AA?2?$AAs?$AAe?$AAl?$AAf?$AA_?$AAx?$AA8?$AA6?$AA?2?$AAc@ 00492d98     LIBCMTD:errmode.obj
 0002:0000ddfc       ??_C@_1DE@BCNCAIK@?$AA?$CI?$AA?$CC?$AAI?$AAn?$AAv?$AAa?$AAl?$AAi?$AAd?$AA?5?$AAe?$AAr?$AAr?$AAo?$AAr?$AA_?$AAm?$AAo?$AAd?$AAe?$AA?$CC?$AA?0?$AA?5?$AA0?$AA?$CJ?$AA?$AA@ 00492dfc     LIBCMTD:errmode.obj
 0002:0000de30       ??_C@_1CE@IGKFIJFD@?$AA_?$AAv?$AAs?$AAw?$AAp?$AAr?$AAi?$AAn?$AAt?$AAf?$AA_?$AAh?$AAe?$AAl?$AAp?$AAe?$AAr?$AA?$AA@ 00492e30     LIBCMTD:vswprnc.obj
 0002:0000de58       ??_C@_1GE@KINELFI@?$AAf?$AA?3?$AA?2?$AAd?$AAd?$AA?2?$AAv?$AAc?$AAt?$AAo?$AAo?$AAl?$AAs?$AA?2?$AAc?$AAr?$AAt?$AA_?$AAb?$AAl?$AAd?$AA?2?$AAs?$AAe?$AAl?$AAf?$AA_?$AAx?$AA8?$AA6?$AA?2?$AAc@ 00492e58     LIBCMTD:vswprnc.obj
 0002:0000debc       ??_C@_1DA@HPBFKMEB@?$AA?$CI?$AA?$CC?$AAB?$AAu?$AAf?$AAf?$AAe?$AAr?$AA?5?$AAt?$AAo?$AAo?$AA?5?$AAs?$AAm?$AAa?$AAl?$AAl?$AA?$CC?$AA?0?$AA?5?$AA0?$AA?$CJ?$AA?$AA@ 00492ebc     LIBCMTD:vswprnc.obj
 0002:0000def0       ??_C@_1EE@MPCHJFGP@?$AAs?$AAt?$AAr?$AAi?$AAn?$AAg?$AA?5?$AA?$CB?$AA?$DN?$AA?5?$AAN?$AAU?$AAL?$AAL?$AA?5?$AA?$CG?$AA?$CG?$AA?5?$AAs?$AAi?$AAz?$AAe?$AAI?$AAn?$AAW?$AAo?$AAr?$AAd?$AAs?$AA?5?$AA?$DO?$AA?5@ 00492ef0     LIBCMTD:vswprnc.obj
 0002:0000df34       ??_C@_1BO@OALHJLCI@?$AA_?$AAv?$AAs?$AAw?$AAp?$AAr?$AAi?$AAn?$AAt?$AAf?$AA_?$AAs?$AA_?$AAl?$AA?$AA@ 00492f34     LIBCMTD:vswprnc.obj
 0002:0000df54       ??_C@_1BO@MLMCMBKN@?$AAf?$AAo?$AAr?$AAm?$AAa?$AAt?$AA?5?$AA?$CB?$AA?$DN?$AA?5?$AAN?$AAU?$AAL?$AAL?$AA?$AA@ 00492f54     LIBCMTD:vswprnc.obj
 0002:0000df74       ??_C@_1CA@BKFKMJFF@?$AA_?$AAv?$AAs?$AAn?$AAw?$AAp?$AAr?$AAi?$AAn?$AAt?$AAf?$AA_?$AAs?$AA_?$AAl?$AA?$AA@ 00492f74     LIBCMTD:vswprnc.obj
 0002:0000df98       ??_C@_1FE@CEHLKAHD@?$AAi?$AAb?$AAa?$AAs?$AAe?$AA?5?$AA?$DN?$AA?$DN?$AA?5?$AA0?$AA?5?$AA?$HM?$AA?$HM?$AA?5?$AA?$CI?$AA2?$AA?5?$AA?$DM?$AA?$DN?$AA?5?$AAi?$AAb?$AAa?$AAs?$AAe?$AA?5?$AA?$CG?$AA?$CG?$AA?5?$AAi?$AAb?$AAa@ 00492f98     LIBCMTD:strtol.obj
 0002:0000dfec       ??_C@_1BA@LOLAMAJG@?$AAs?$AAt?$AAr?$AAt?$AAo?$AAx?$AAl?$AA?$AA@ 00492fec     LIBCMTD:strtol.obj
 0002:0000e000       ??_C@_1GA@IPHKKOEI@?$AAf?$AA?3?$AA?2?$AAd?$AAd?$AA?2?$AAv?$AAc?$AAt?$AAo?$AAo?$AAl?$AAs?$AA?2?$AAc?$AAr?$AAt?$AA_?$AAb?$AAl?$AAd?$AA?2?$AAs?$AAe?$AAl?$AAf?$AA_?$AAx?$AA8?$AA6?$AA?2?$AAc@ 00493000     LIBCMTD:strtol.obj
 0002:0000e060       ??_C@_1BK@LAOAACLJ@?$AAn?$AAp?$AAt?$AAr?$AA?5?$AA?$CB?$AA?$DN?$AA?5?$AAN?$AAU?$AAL?$AAL?$AA?$AA@ 00493060     LIBCMTD:strtol.obj
 0002:0000e07c       ??_C@_1BA@BMMDEPNE@?$AAs?$AAt?$AAr?$AAt?$AAo?$AAx?$AAq?$AA?$AA@ 0049307c     LIBCMTD:strtoq.obj
 0002:0000e090       ??_C@_1GA@GIMEIKLC@?$AAf?$AA?3?$AA?2?$AAd?$AAd?$AA?2?$AAv?$AAc?$AAt?$AAo?$AAo?$AAl?$AAs?$AA?2?$AAc?$AAr?$AAt?$AA_?$AAb?$AAl?$AAd?$AA?2?$AAs?$AAe?$AAl?$AAf?$AA_?$AAx?$AA8?$AA6?$AA?2?$AAc@ 00493090     LIBCMTD:strtoq.obj
 0002:0000e0f0       ??_C@_1BG@KCMPBBDK@?$AA_?$AAg?$AAe?$AAt?$AA_?$AAe?$AAr?$AAr?$AAn?$AAo?$AA?$AA@ 004930f0     LIBCMTD:dosmap.obj
 0002:0000e108       ??_C@_1GA@MFGIMPNL@?$AAf?$AA?3?$AA?2?$AAd?$AAd?$AA?2?$AAv?$AAc?$AAt?$AAo?$AAo?$AAl?$AAs?$AA?2?$AAc?$AAr?$AAt?$AA_?$AAb?$AAl?$AAd?$AA?2?$AAs?$AAe?$AAl?$AAf?$AA_?$AAx?$AA8?$AA6?$AA?2?$AAc@ 00493108     LIBCMTD:dosmap.obj
 0002:0000e168       ??_C@_1BM@INIPHHDD@?$AA_?$AAg?$AAe?$AAt?$AA_?$AAd?$AAo?$AAs?$AAe?$AAr?$AAr?$AAn?$AAo?$AA?$AA@ 00493168     LIBCMTD:dosmap.obj
 0002:0000e184       ??_C@_1BK@CMPKHPEC@?$AAn?$AA?5?$AA?$DM?$AA?$DN?$AA?5?$AAI?$AAN?$AAT?$AA_?$AAM?$AAA?$AAX?$AA?$AA@ 00493184     LIBCMTD:mbsnbico.obj
 0002:0000e1a0       ??_C@_1BG@GBJNMPFA@?$AAs?$AA2?$AA?5?$AA?$CB?$AA?$DN?$AA?5?$AAN?$AAU?$AAL?$AAL?$AA?$AA@ 004931a0     LIBCMTD:mbsnbico.obj
 0002:0000e1b8       ??_C@_1BM@FKNNDAHH@?$AA_?$AAm?$AAb?$AAs?$AAn?$AAb?$AAi?$AAc?$AAo?$AAl?$AAl?$AA_?$AAl?$AA?$AA@ 004931b8     LIBCMTD:mbsnbico.obj
 0002:0000e1d8       ??_C@_1GE@NJHAJPKI@?$AAf?$AA?3?$AA?2?$AAd?$AAd?$AA?2?$AAv?$AAc?$AAt?$AAo?$AAo?$AAl?$AAs?$AA?2?$AAc?$AAr?$AAt?$AA_?$AAb?$AAl?$AAd?$AA?2?$AAs?$AAe?$AAl?$AAf?$AA_?$AAx?$AA8?$AA6?$AA?2?$AAc@ 004931d8     LIBCMTD:mbsnbico.obj
 0002:0000e23c       ??_C@_1BG@MODEICJK@?$AAs?$AA1?$AA?5?$AA?$CB?$AA?$DN?$AA?5?$AAN?$AAU?$AAL?$AAL?$AA?$AA@ 0049323c     LIBCMTD:mbsnbico.obj
 0002:0000e254       ??_C@_0DC@CAFDLBC@f?3?2dd?2vctools?2crt_bld?2self_x86?2c@ 00493254     LIBCMTD:wtombenv.obj
 0002:0000e288       ??_C@_1BC@CFJEPFGF@?$AAs?$AAt?$AAr?$AAc?$AAp?$AAy?$AA_?$AAs?$AA?$AA@ 00493288     LIBCMTD:strcpy_s.obj
 0002:0000e2a0       ??_C@_1FC@NCPEPIBI@?$AA?$CI?$AA?$CI?$AA_?$AAD?$AAs?$AAt?$AA?$CJ?$AA?$CJ?$AA?5?$AA?$CB?$AA?$DN?$AA?5?$AAN?$AAU?$AAL?$AAL?$AA?5?$AA?$CG?$AA?$CG?$AA?5?$AA?$CI?$AA?$CI?$AA_?$AAS?$AAi?$AAz?$AAe?$AAI?$AAn?$AAB?$AAy?$AAt@ 004932a0     LIBCMTD:strcpy_s.obj
 0002:0000e2f8       ??_C@_1HO@MLMGPAFH@?$AA?$CI?$AA?$CC?$AAi?$AAn?$AAc?$AAo?$AAn?$AAs?$AAi?$AAs?$AAt?$AAe?$AAn?$AAt?$AA?5?$AAI?$AAO?$AAB?$AA?5?$AAf?$AAi?$AAe?$AAl?$AAd?$AAs?$AA?$CC?$AA?0?$AA?5?$AAs?$AAt?$AAr?$AAe@ 004932f8     LIBCMTD:_flsbuf.obj
 0002:0000e378       ??_C@_1GC@GNCCMPNN@?$AAf?$AA?3?$AA?2?$AAd?$AAd?$AA?2?$AAv?$AAc?$AAt?$AAo?$AAo?$AAl?$AAs?$AA?2?$AAc?$AAr?$AAt?$AA_?$AAb?$AAl?$AAd?$AA?2?$AAs?$AAe?$AAl?$AAf?$AA_?$AAx?$AA8?$AA6?$AA?2?$AAc@ 00493378     LIBCMTD:_flsbuf.obj
 0002:0000e3dc       ??_C@_1BI@MFCLPIBM@?$AAs?$AAt?$AAr?$AA?5?$AA?$CB?$AA?$DN?$AA?5?$AAN?$AAU?$AAL?$AAL?$AA?$AA@ 004933dc     LIBCMTD:_flsbuf.obj
 0002:0000e3f4       ??_C@_1O@CEDCILHN@?$AA?$CI?$AAn?$AAu?$AAl?$AAl?$AA?$CJ?$AA?$AA@ 004933f4     LIBCMTD:output.obj
 0002:0000e404       ??_C@_06OJHGLDPL@?$CInull?$CJ?$AA@ 00493404     LIBCMTD:output.obj
 0002:0000e410       ___lookuptable             00493410     LIBCMTD:output.obj
 0002:0000e46c       ??_C@_0DA@NFBEBPEE@f?3?2dd?2vctools?2crt_bld?2self_x86?2c@ 0049346c     LIBCMTD:output.obj
 0002:0000e4a0       ??_C@_1EK@PNGFDECN@?$AA?$CI?$AA?$CC?$AA?8?$AAn?$AA?8?$AA?5?$AAf?$AAo?$AAr?$AAm?$AAa?$AAt?$AA?5?$AAs?$AAp?$AAe?$AAc?$AAi?$AAf?$AAi?$AAe?$AAr?$AA?5?$AAd?$AAi?$AAs?$AAa?$AAb?$AAl?$AAe?$AAd?$AA?$CC@ 004934a0     LIBCMTD:output.obj
 0002:0000e4ec       ??_C@_1CC@IFFHEMNF@?$AA?$CI?$AAc?$AAh?$AA?5?$AA?$CB?$AA?$DN?$AA?5?$AA_?$AAT?$AA?$CI?$AA?8?$AA?2?$AA0?$AA?8?$AA?$CJ?$AA?$CJ?$AA?$AA@ 004934ec     LIBCMTD:output.obj
 0002:0000e510       ??_C@_1BE@IONLIDNC@?$AA_?$AAo?$AAu?$AAt?$AAp?$AAu?$AAt?$AA_?$AAl?$AA?$AA@ 00493510     LIBCMTD:output.obj
 0002:0000e528       ??_C@_1GA@HHFOFBLN@?$AAf?$AA?3?$AA?2?$AAd?$AAd?$AA?2?$AAv?$AAc?$AAt?$AAo?$AAo?$AAl?$AAs?$AA?2?$AAc?$AAr?$AAt?$AA_?$AAb?$AAl?$AAd?$AA?2?$AAs?$AAe?$AAl?$AAf?$AA_?$AAx?$AA8?$AA6?$AA?2?$AAc@ 00493528     LIBCMTD:output.obj
 0002:0000e588       ??_C@_1CC@FADMNIL@?$AA?$CI?$AAs?$AAt?$AAr?$AAe?$AAa?$AAm?$AA?5?$AA?$CB?$AA?$DN?$AA?5?$AAN?$AAU?$AAL?$AAL?$AA?$CJ?$AA?$AA@ 00493588     LIBCMTD:output.obj
 0002:0000e5ac       ??_C@_1BK@FHMHFMNL@?$AA_?$AAv?$AAs?$AAn?$AAp?$AAr?$AAi?$AAn?$AAt?$AAf?$AA_?$AAl?$AA?$AA@ 004935ac     LIBCMTD:vsnprint.obj
 0002:0000e5c8       ??_C@_1GE@DPADKNCG@?$AAf?$AA?3?$AA?2?$AAd?$AAd?$AA?2?$AAv?$AAc?$AAt?$AAo?$AAo?$AAl?$AAs?$AA?2?$AAc?$AAr?$AAt?$AA_?$AAb?$AAl?$AAd?$AA?2?$AAs?$AAe?$AAl?$AAf?$AA_?$AAx?$AA8?$AA6?$AA?2?$AAc@ 004935c8     LIBCMTD:vsnprint.obj
 0002:0000e630       ??_C@_1JE@ECKHFIFP@?$AA?$CI?$AA?$CC?$AAI?$AAn?$AAv?$AAa?$AAl?$AAi?$AAd?$AA?5?$AAf?$AAi?$AAl?$AAe?$AA?5?$AAd?$AAe?$AAs?$AAc?$AAr?$AAi?$AAp?$AAt?$AAo?$AAr?$AA?4?$AA?5?$AAF?$AAi?$AAl?$AAe?$AA?5@ 00493630     LIBCMTD:commit.obj
 0002:0000e6c4       ??_C@_1DG@LNNHNFHJ@?$AA?$CI?$AA_?$AAo?$AAs?$AAf?$AAi?$AAl?$AAe?$AA?$CI?$AAf?$AAi?$AAl?$AAe?$AAd?$AAe?$AAs?$AA?$CJ?$AA?5?$AA?$CG?$AA?5?$AAF?$AAO?$AAP?$AAE?$AAN?$AA?$CJ?$AA?$AA@ 004936c4     LIBCMTD:commit.obj
 0002:0000e6fc       ??_C@_1BA@FLNMBBIM@?$AA_?$AAc?$AAo?$AAm?$AAm?$AAi?$AAt?$AA?$AA@ 004936fc     LIBCMTD:commit.obj
 0002:0000e710       ??_C@_1GA@BOPCOCFN@?$AAf?$AA?3?$AA?2?$AAd?$AAd?$AA?2?$AAv?$AAc?$AAt?$AAo?$AAo?$AAl?$AAs?$AA?2?$AAc?$AAr?$AAt?$AA_?$AAb?$AAl?$AAd?$AA?2?$AAs?$AAe?$AAl?$AAf?$AA_?$AAx?$AA8?$AA6?$AA?2?$AAc@ 00493710     LIBCMTD:commit.obj
 0002:0000e770       ??_C@_1HC@KFLBHHBC@?$AA?$CI?$AAf?$AAi?$AAl?$AAe?$AAd?$AAe?$AAs?$AA?5?$AA?$DO?$AA?$DN?$AA?5?$AA0?$AA?5?$AA?$CG?$AA?$CG?$AA?5?$AA?$CI?$AAu?$AAn?$AAs?$AAi?$AAg?$AAn?$AAe?$AAd?$AA?$CJ?$AAf?$AAi?$AAl?$AAe?$AAd@ 00493770     LIBCMTD:commit.obj
 0002:0000e7e4       ??_C@_1BA@JGHIEKKM@?$AA_?$AAf?$AAi?$AAl?$AAe?$AAn?$AAo?$AA?$AA@ 004937e4     LIBCMTD:fileno.obj
 0002:0000e7f8       ??_C@_1GA@PBJHELNC@?$AAf?$AA?3?$AA?2?$AAd?$AAd?$AA?2?$AAv?$AAc?$AAt?$AAo?$AAo?$AAl?$AAs?$AA?2?$AAc?$AAr?$AAt?$AA_?$AAb?$AAl?$AAd?$AA?2?$AAs?$AAe?$AAl?$AAf?$AA_?$AAx?$AA8?$AA6?$AA?2?$AAc@ 004937f8     LIBCMTD:fileno.obj
 0002:0000e858       ??_C@_1CM@OKGMMMDH@?$AA?$CI?$AA_?$AAo?$AAs?$AAf?$AAi?$AAl?$AAe?$AA?$CI?$AAf?$AAh?$AA?$CJ?$AA?5?$AA?$CG?$AA?5?$AAF?$AAO?$AAP?$AAE?$AAN?$AA?$CJ?$AA?$AA@ 00493858     LIBCMTD:write.obj
 0002:0000e884       ??_C@_1O@KOFKDHPL@?$AA_?$AAw?$AAr?$AAi?$AAt?$AAe?$AA?$AA@ 00493884     LIBCMTD:write.obj
 0002:0000e898       ??_C@_1FO@EPLDPDDL@?$AAf?$AA?3?$AA?2?$AAd?$AAd?$AA?2?$AAv?$AAc?$AAt?$AAo?$AAo?$AAl?$AAs?$AA?2?$AAc?$AAr?$AAt?$AA_?$AAb?$AAl?$AAd?$AA?2?$AAs?$AAe?$AAl?$AAf?$AA_?$AAx?$AA8?$AA6?$AA?2?$AAc@ 00493898     LIBCMTD:write.obj
 0002:0000e8f8       ??_C@_1FO@LPCLHKGE@?$AA?$CI?$AAf?$AAh?$AA?5?$AA?$DO?$AA?$DN?$AA?5?$AA0?$AA?5?$AA?$CG?$AA?$CG?$AA?5?$AA?$CI?$AAu?$AAn?$AAs?$AAi?$AAg?$AAn?$AAe?$AAd?$AA?$CJ?$AAf?$AAh?$AA?5?$AA?$DM?$AA?5?$AA?$CI?$AAu?$AAn?$AAs?$AAi@ 004938f8     LIBCMTD:write.obj
 0002:0000e958       ??_C@_1DI@CNMHHHLG@?$AAi?$AAs?$AAl?$AAe?$AAa?$AAd?$AAb?$AAy?$AAt?$AAe?$AA?$CI?$AA_?$AAd?$AAb?$AAc?$AAs?$AAB?$AAu?$AAf?$AAf?$AAe?$AAr?$AA?$CI?$AAf?$AAh?$AA?$CJ?$AA?$CJ?$AA?$AA@ 00493958     LIBCMTD:write.obj
 0002:0000e990       ??_C@_1CC@EEOLPHGO@?$AA?$CI?$AA?$CI?$AAc?$AAn?$AAt?$AA?5?$AA?$CG?$AA?5?$AA1?$AA?$CJ?$AA?5?$AA?$DN?$AA?$DN?$AA?5?$AA0?$AA?$CJ?$AA?$AA@ 00493990     LIBCMTD:write.obj
 0002:0000e9b4       ??_C@_1BM@NCANHCIP@?$AA_?$AAw?$AAr?$AAi?$AAt?$AAe?$AA_?$AAn?$AAo?$AAl?$AAo?$AAc?$AAk?$AA?$AA@ 004939b4     LIBCMTD:write.obj
 0002:0000e9d0       ??_C@_1BM@KFJLMBPG@?$AA?$CI?$AAb?$AAu?$AAf?$AA?5?$AA?$CB?$AA?$DN?$AA?5?$AAN?$AAU?$AAL?$AAL?$AA?$CJ?$AA?$AA@ 004939d0     LIBCMTD:write.obj
 0002:0000e9ec       ??_C@_0DB@OLNNDFNH@f?3?2dd?2vctools?2crt_bld?2self_x86?2c@ 004939ec     LIBCMTD:_sftbuf.obj
 0002:0000ea20       ??_C@_1GC@DGAFOCMO@?$AAf?$AA?3?$AA?2?$AAd?$AAd?$AA?2?$AAv?$AAc?$AAt?$AAo?$AAo?$AAl?$AAs?$AA?2?$AAc?$AAr?$AAt?$AA_?$AAb?$AAl?$AAd?$AA?2?$AAs?$AAe?$AAl?$AAf?$AA_?$AAx?$AA8?$AA6?$AA?2?$AAc@ 00493a20     LIBCMTD:_sftbuf.obj
 0002:0000ea84       ??_C@_1CO@KCKAACMI@?$AAf?$AAl?$AAa?$AAg?$AA?5?$AA?$DN?$AA?$DN?$AA?5?$AA0?$AA?5?$AA?$HM?$AA?$HM?$AA?5?$AAf?$AAl?$AAa?$AAg?$AA?5?$AA?$DN?$AA?$DN?$AA?5?$AA1?$AA?$AA@ 00493a84     LIBCMTD:_sftbuf.obj
 0002:0000eab4       ??_C@_1CA@OEHMHBJF@?$AAv?$AAf?$AAp?$AAr?$AAi?$AAn?$AAt?$AAf?$AA_?$AAh?$AAe?$AAl?$AAp?$AAe?$AAr?$AA?$AA@ 00493ab4     LIBCMTD:vfprintf.obj
 0002:0000ead8       ??_C@_1GE@PEEPNGBM@?$AAf?$AA?3?$AA?2?$AAd?$AAd?$AA?2?$AAv?$AAc?$AAt?$AAo?$AAo?$AAl?$AAs?$AA?2?$AAc?$AAr?$AAt?$AA_?$AAb?$AAl?$AAd?$AA?2?$AAs?$AAe?$AAl?$AAf?$AA_?$AAx?$AA8?$AA6?$AA?2?$AAc@ 00493ad8     LIBCMTD:vfprintf.obj
 0002:0000eb40       ??_C@_1NK@LOFHIHFC@?$AAf?$AAM?$AAo?$AAd?$AAe?$AA?5?$AA?$DN?$AA?$DN?$AA?5?$AA_?$AAC?$AAR?$AAT?$AAD?$AAB?$AAG?$AA_?$AAR?$AAE?$AAP?$AAO?$AAR?$AAT?$AA_?$AAM?$AAO?$AAD?$AAE?$AA?5?$AA?$HM?$AA?$HM?$AA?5@ 00493b40     LIBCMTD:dbgrptt.obj
 0002:0000ec1c       ??_C@_1CE@FIHIECNJ@?$AA_?$AAC?$AAr?$AAt?$AAS?$AAe?$AAt?$AAR?$AAe?$AAp?$AAo?$AAr?$AAt?$AAM?$AAo?$AAd?$AAe?$AA?$AA@ 00493c1c     LIBCMTD:dbgrptt.obj
 0002:0000ec40       ??_C@_1GC@FIGJJMEN@?$AAf?$AA?3?$AA?2?$AAd?$AAd?$AA?2?$AAv?$AAc?$AAt?$AAo?$AAo?$AAl?$AAs?$AA?2?$AAc?$AAr?$AAt?$AA_?$AAb?$AAl?$AAd?$AA?2?$AAs?$AAe?$AAl?$AAf?$AA_?$AAx?$AA8?$AA6?$AA?2?$AAc@ 00493c40     LIBCMTD:dbgrptt.obj
 0002:0000eca8       ??_C@_1FA@IFFFOLDJ@?$AAn?$AAR?$AAp?$AAt?$AAT?$AAy?$AAp?$AAe?$AA?5?$AA?$DO?$AA?$DN?$AA?5?$AA0?$AA?5?$AA?$CG?$AA?$CG?$AA?5?$AAn?$AAR?$AAp?$AAt?$AAT?$AAy?$AAp?$AAe?$AA?5?$AA?$DM?$AA?5?$AA_?$AAC?$AAR?$AAT@ 00493ca8     LIBCMTD:dbgrptt.obj
 0002:0000ecf8       ??_C@_1CE@IKKEDCME@?$AA_?$AAC?$AAr?$AAt?$AAS?$AAe?$AAt?$AAR?$AAe?$AAp?$AAo?$AAr?$AAt?$AAF?$AAi?$AAl?$AAe?$AA?$AA@ 00493cf8     LIBCMTD:dbgrptt.obj
 0002:0000ed20       ??_C@_1HO@PJOFIKFE@?$AA_?$AAC?$AAr?$AAt?$AAD?$AAb?$AAg?$AAR?$AAe?$AAp?$AAo?$AAr?$AAt?$AA?3?$AA?5?$AAS?$AAt?$AAr?$AAi?$AAn?$AAg?$AA?5?$AAt?$AAo?$AAo?$AA?5?$AAl?$AAo?$AAn?$AAg?$AA?5?$AAo@ 00493d20     LIBCMTD:dbgrptt.obj
 0002:0000eda0       ??_C@_1MC@IGEECMDB@?$AAw?$AAc?$AAs?$AAc?$AAp?$AAy?$AA_?$AAs?$AA?$CI?$AAs?$AAz?$AAO?$AAu?$AAt?$AAM?$AAe?$AAs?$AAs?$AAa?$AAg?$AAe?$AA2?$AA?0?$AA?5?$AA4?$AA0?$AA9?$AA6?$AA?0?$AA?5?$AAL?$AA?$CC@ 00493da0     LIBCMTD:dbgrptt.obj
 0002:0000ee68       ??_C@_1IM@OOKIFKOH@?$AAe?$AA?5?$AA?$DN?$AA?5?$AAm?$AAb?$AAs?$AAt?$AAo?$AAw?$AAc?$AAs?$AA_?$AAs?$AA?$CI?$AA?$CG?$AAr?$AAe?$AAt?$AA?0?$AA?5?$AAs?$AAz?$AAO?$AAu?$AAt?$AAM?$AAe?$AAs?$AAs?$AAa?$AAg@ 00493e68     LIBCMTD:dbgrptt.obj
 0002:0000eef8       ??_C@_1FI@IBIOIHEG@?$AAs?$AAt?$AAr?$AAc?$AAp?$AAy?$AA_?$AAs?$AA?$CI?$AAs?$AAz?$AAO?$AAu?$AAt?$AAM?$AAe?$AAs?$AAs?$AAa?$AAg?$AAe?$AA?0?$AA?5?$AA4?$AA0?$AA9?$AA6?$AA?0?$AA?5?$AAs?$AAz?$AAL@ 00493ef8     LIBCMTD:dbgrptt.obj
 0002:0000ef50       ??_C@_1JG@CPKCIOEE@?$AAs?$AAt?$AAr?$AAc?$AAp?$AAy?$AA_?$AAs?$AA?$CI?$AAs?$AAz?$AAO?$AAu?$AAt?$AAM?$AAe?$AAs?$AAs?$AAa?$AAg?$AAe?$AA?0?$AA?5?$AA4?$AA0?$AA9?$AA6?$AA?0?$AA?5?$AA?$CC?$AA_?$AAC@ 00493f50     LIBCMTD:dbgrptt.obj
 0002:0000efe8       ??_C@_0M@IPILFDFN@?$CFs?$CI?$CFd?$CJ?5?3?5?$CFs?$AA@ 00493fe8     LIBCMTD:dbgrptt.obj
 0002:0000eff8       ??_C@_1EI@LDHJEDO@?$AAs?$AAt?$AAr?$AAc?$AAa?$AAt?$AA_?$AAs?$AA?$CI?$AAs?$AAz?$AAL?$AAi?$AAn?$AAe?$AAM?$AAe?$AAs?$AAs?$AAa?$AAg?$AAe?$AA?0?$AA?5?$AA4?$AA0?$AA9?$AA6?$AA?0?$AA?5?$AA?$CC?$AA?2@ 00493ff8     LIBCMTD:dbgrptt.obj
 0002:0000f040       ??_C@_01LIIJDEN@?$AN?$AA@  00494040     LIBCMTD:dbgrptt.obj
 0002:0000f048       ??_C@_1EI@CACDLAFK@?$AAs?$AAt?$AAr?$AAc?$AAa?$AAt?$AA_?$AAs?$AA?$CI?$AAs?$AAz?$AAL?$AAi?$AAn?$AAe?$AAM?$AAe?$AAs?$AAs?$AAa?$AAg?$AAe?$AA?0?$AA?5?$AA4?$AA0?$AA9?$AA6?$AA?0?$AA?5?$AA?$CC?$AA?2@ 00494048     LIBCMTD:dbgrptt.obj
 0002:0000f090       ??_C@_1FK@NPGBPOFO@?$AAs?$AAt?$AAr?$AAc?$AAa?$AAt?$AA_?$AAs?$AA?$CI?$AAs?$AAz?$AAL?$AAi?$AAn?$AAe?$AAM?$AAe?$AAs?$AAs?$AAa?$AAg?$AAe?$AA?0?$AA?5?$AA4?$AA0?$AA9?$AA6?$AA?0?$AA?5?$AAs?$AAz@ 00494090     LIBCMTD:dbgrptt.obj
 0002:0000f0f0       ??_C@_1KK@GIGAEDMO@?$AAs?$AAt?$AAr?$AAc?$AAp?$AAy?$AA_?$AAs?$AA?$CI?$AAs?$AAz?$AAL?$AAi?$AAn?$AAe?$AAM?$AAe?$AAs?$AAs?$AAa?$AAg?$AAe?$AA?0?$AA?5?$AA4?$AA0?$AA9?$AA6?$AA?0?$AA?5?$AAs?$AAz@ 004940f0     LIBCMTD:dbgrptt.obj
 0002:0000f19c       ??_C@_0BC@LAIDCHCH@Assertion?5failed?$CB?$AA@ 0049419c     LIBCMTD:dbgrptt.obj
 0002:0000f1b0       ??_C@_0BD@CAENFOHP@Assertion?5failed?3?5?$AA@ 004941b0     LIBCMTD:dbgrptt.obj
 0002:0000f1c4       ??_C@_0CL@EACFGMNB@_CrtDbgReport?3?5String?5too?5long?5o@ 004941c4     LIBCMTD:dbgrptt.obj
 0002:0000f1f0       ??_C@_1JI@GAALPGBM@?$AAs?$AAt?$AAr?$AAc?$AAp?$AAy?$AA_?$AAs?$AA?$CI?$AAs?$AAz?$AAU?$AAs?$AAe?$AAr?$AAM?$AAe?$AAs?$AAs?$AAa?$AAg?$AAe?$AA?0?$AA?5?$AA4?$AA0?$AA9?$AA6?$AA?0?$AA?5?$AA?$CC?$AA_@ 004941f0     LIBCMTD:dbgrptt.obj
 0002:0000f288       ??_C@_07BHGABMGB@?0?5Line?5?$AA@ 00494288     LIBCMTD:dbgrptt.obj
 0002:0000f290       ??_C@_0P@DFJNDPOP@?$DMfile?5unknown?$DO?$AA@ 00494290     LIBCMTD:dbgrptt.obj
 0002:0000f2a0       ??_C@_0CG@BNGLOCEO@Second?5Chance?5Assertion?5Failed?3?5@ 004942a0     LIBCMTD:dbgrptt.obj
 0002:0000f2c8       ??_C@_1FA@JPHJBHEM@?$AA_?$AAi?$AAt?$AAo?$AAa?$AA_?$AAs?$AA?$CI?$AAn?$AAL?$AAi?$AAn?$AAe?$AA?0?$AA?5?$AAs?$AAz?$AAL?$AAi?$AAn?$AAe?$AAM?$AAe?$AAs?$AAs?$AAa?$AAg?$AAe?$AA?0?$AA?5?$AA4?$AA0@ 004942c8     LIBCMTD:dbgrptt.obj
 0002:0000f318       ??_C@_1CA@KHJHLKA@?$AA_?$AAV?$AAC?$AAr?$AAt?$AAD?$AAb?$AAg?$AAR?$AAe?$AAp?$AAo?$AAr?$AAt?$AAA?$AA?$AA@ 00494318     LIBCMTD:dbgrptt.obj
 0002:0000f338       ??_C@_1IE@CPGKIAGP@?$AAw?$AAc?$AAs?$AAt?$AAo?$AAm?$AAb?$AAs?$AA_?$AAs?$AA?$CI?$AA?$CG?$AAr?$AAe?$AAt?$AA?0?$AA?5?$AAs?$AAz?$AAa?$AAO?$AAu?$AAt?$AAM?$AAe?$AAs?$AAs?$AAa?$AAg?$AAe?$AA?0?$AA?5@ 00494338     LIBCMTD:dbgrptt.obj
 0002:0000f3bc       ??_C@_0DP@GNPEPHJD@_CrtDbgReport?3?5String?5too?5long?5o@ 004943bc     LIBCMTD:dbgrptt.obj
 0002:0000f400       ??_C@_1MA@LBAMNNOB@?$AAs?$AAt?$AAr?$AAc?$AAp?$AAy?$AA_?$AAs?$AA?$CI?$AAs?$AAz?$AAO?$AAu?$AAt?$AAM?$AAe?$AAs?$AAs?$AAa?$AAg?$AAe?$AA2?$AA?0?$AA?5?$AA4?$AA0?$AA9?$AA6?$AA?0?$AA?5?$AA?$CC?$AA_@ 00494400     LIBCMTD:dbgrptt.obj
 0002:0000f4c0       ??_C@_1JC@EOAPFDLN@?$AAw?$AAc?$AAs?$AAt?$AAo?$AAm?$AAb?$AAs?$AA_?$AAs?$AA?$CI?$AA?$CI?$AA?$CI?$AAv?$AAo?$AAi?$AAd?$AA?5?$AA?$CK?$AA?$CJ?$AA0?$AA?$CJ?$AA?0?$AA?5?$AAs?$AAz?$AAO?$AAu?$AAt?$AAM?$AAe?$AAs@ 004944c0     LIBCMTD:dbgrptt.obj
 0002:0000f558       ??_C@_1FI@DBAIJPJE@?$AAw?$AAc?$AAs?$AAc?$AAp?$AAy?$AA_?$AAs?$AA?$CI?$AAs?$AAz?$AAO?$AAu?$AAt?$AAM?$AAe?$AAs?$AAs?$AAa?$AAg?$AAe?$AA?0?$AA?5?$AA4?$AA0?$AA9?$AA6?$AA?0?$AA?5?$AAs?$AAz?$AAL@ 00494558     LIBCMTD:dbgrptt.obj
 0002:0000f5b0       ??_C@_1BI@JIDBEPIG@?$AA?$CF?$AAs?$AA?$CI?$AA?$CF?$AAd?$AA?$CJ?$AA?5?$AA?3?$AA?5?$AA?$CF?$AAs?$AA?$AA@ 004945b0     LIBCMTD:dbgrptt.obj
 0002:0000f5c8       ??_C@_1EK@PHCBEDKB@?$AAw?$AAc?$AAs?$AAc?$AAa?$AAt?$AA_?$AAs?$AA?$CI?$AAs?$AAz?$AAL?$AAi?$AAn?$AAe?$AAM?$AAe?$AAs?$AAs?$AAa?$AAg?$AAe?$AA?0?$AA?5?$AA4?$AA0?$AA9?$AA6?$AA?0?$AA?5?$AAL?$AA?$CC@ 004945c8     LIBCMTD:dbgrptt.obj
 0002:0000f614       ??_C@_13CMNBPIDO@?$AA?$AN?$AA?$AA@ 00494614     LIBCMTD:dbgrptt.obj
 0002:0000f618       ??_C@_1EK@NMDFGHMF@?$AAw?$AAc?$AAs?$AAc?$AAa?$AAt?$AA_?$AAs?$AA?$CI?$AAs?$AAz?$AAL?$AAi?$AAn?$AAe?$AAM?$AAe?$AAs?$AAs?$AAa?$AAg?$AAe?$AA?0?$AA?5?$AA4?$AA0?$AA9?$AA6?$AA?0?$AA?5?$AAL?$AA?$CC@ 00494618     LIBCMTD:dbgrptt.obj
 0002:0000f668       ??_C@_1FK@HPADHBBD@?$AAw?$AAc?$AAs?$AAc?$AAa?$AAt?$AA_?$AAs?$AA?$CI?$AAs?$AAz?$AAL?$AAi?$AAn?$AAe?$AAM?$AAe?$AAs?$AAs?$AAa?$AAg?$AAe?$AA?0?$AA?5?$AA4?$AA0?$AA9?$AA6?$AA?0?$AA?5?$AAs?$AAz@ 00494668     LIBCMTD:dbgrptt.obj
 0002:0000f6c8       ??_C@_1KO@DGAHENCH@?$AAw?$AAc?$AAs?$AAc?$AAp?$AAy?$AA_?$AAs?$AA?$CI?$AAs?$AAz?$AAL?$AAi?$AAn?$AAe?$AAM?$AAe?$AAs?$AAs?$AAa?$AAg?$AAe?$AA?0?$AA?5?$AA4?$AA0?$AA9?$AA6?$AA?0?$AA?5?$AAs?$AAz@ 004946c8     LIBCMTD:dbgrptt.obj
 0002:0000f778       ??_C@_1CG@FFFGGODN@?$AAA?$AAs?$AAs?$AAe?$AAr?$AAt?$AAi?$AAo?$AAn?$AA?5?$AAf?$AAa?$AAi?$AAl?$AAe?$AAd?$AA?3?$AA?5?$AA?$AA@ 00494778     LIBCMTD:dbgrptt.obj
 0002:0000f7a0       ??_C@_1JK@KHFABAEO@?$AAw?$AAc?$AAs?$AAc?$AAp?$AAy?$AA_?$AAs?$AA?$CI?$AAs?$AAz?$AAU?$AAs?$AAe?$AAr?$AAM?$AAe?$AAs?$AAs?$AAa?$AAg?$AAe?$AA?0?$AA?5?$AA4?$AA0?$AA9?$AA6?$AA?0?$AA?5?$AAL?$AA?$CC@ 004947a0     LIBCMTD:dbgrptt.obj
 0002:0000f83c       ??_C@_1BA@ELMMDCFC@?$AA?0?$AA?5?$AAL?$AAi?$AAn?$AAe?$AA?5?$AA?$AA@ 0049483c     LIBCMTD:dbgrptt.obj
 0002:0000f84c       ??_C@_1BO@OCHMLCAG@?$AA?$DM?$AAf?$AAi?$AAl?$AAe?$AA?5?$AAu?$AAn?$AAk?$AAn?$AAo?$AAw?$AAn?$AA?$DO?$AA?$AA@ 0049484c     LIBCMTD:dbgrptt.obj
 0002:0000f870       ??_C@_1EM@MJFLEDMB@?$AAS?$AAe?$AAc?$AAo?$AAn?$AAd?$AA?5?$AAC?$AAh?$AAa?$AAn?$AAc?$AAe?$AA?5?$AAA?$AAs?$AAs?$AAe?$AAr?$AAt?$AAi?$AAo?$AAn?$AA?5?$AAF?$AAa?$AAi?$AAl?$AAe?$AAd?$AA?3?$AA?5@ 00494870     LIBCMTD:dbgrptt.obj
 0002:0000f8c0       ??_C@_1FA@CNLLOMHI@?$AA_?$AAi?$AAt?$AAo?$AAw?$AA_?$AAs?$AA?$CI?$AAn?$AAL?$AAi?$AAn?$AAe?$AA?0?$AA?5?$AAs?$AAz?$AAL?$AAi?$AAn?$AAe?$AAM?$AAe?$AAs?$AAs?$AAa?$AAg?$AAe?$AA?0?$AA?5?$AA4?$AA0@ 004948c0     LIBCMTD:dbgrptt.obj
 0002:0000f910       ??_C@_1CA@HPALHDOD@?$AA_?$AAV?$AAC?$AAr?$AAt?$AAD?$AAb?$AAg?$AAR?$AAe?$AAp?$AAo?$AAr?$AAt?$AAW?$AA?$AA@ 00494910     LIBCMTD:dbgrptt.obj
 0002:0000f930       ??_C@_1CC@OLIJCKA@?$AA?$CI?$AAs?$AAt?$AAr?$AAi?$AAn?$AAg?$AA?5?$AA?$CB?$AA?$DN?$AA?5?$AAN?$AAU?$AAL?$AAL?$AA?$CJ?$AA?$AA@ 00494930     LIBCMTD:swprintf.obj
 0002:0000f954       ??_C@_1BE@BMIJMLDD@?$AA_?$AAs?$AAw?$AAp?$AAr?$AAi?$AAn?$AAt?$AAf?$AA?$AA@ 00494954     LIBCMTD:swprintf.obj
 0002:0000f968       ??_C@_1GE@DKGHLBLP@?$AAf?$AA?3?$AA?2?$AAd?$AAd?$AA?2?$AAv?$AAc?$AAt?$AAo?$AAo?$AAl?$AAs?$AA?2?$AAc?$AAr?$AAt?$AA_?$AAb?$AAl?$AAd?$AA?2?$AAs?$AAe?$AAl?$AAf?$AA_?$AAx?$AA8?$AA6?$AA?2?$AAc@ 00494968     LIBCMTD:swprintf.obj
 0002:0000f9cc       ??_C@_1CK@DDKKOLAN@?$AAs?$AAi?$AAz?$AAe?$AAI?$AAn?$AAB?$AAy?$AAt?$AAe?$AAs?$AA?5?$AA?$DO?$AA?$DN?$AA?5?$AAc?$AAo?$AAu?$AAn?$AAt?$AA?$AA@ 004949cc     LIBCMTD:memcpy_s.obj
 0002:0000f9f8       ??_C@_1BI@DCHLDCPP@?$AAs?$AAr?$AAc?$AA?5?$AA?$CB?$AA?$DN?$AA?5?$AAN?$AAU?$AAL?$AAL?$AA?$AA@ 004949f8     LIBCMTD:memcpy_s.obj
 0002:0000fa10       ??_C@_1BC@GKHDJMGB@?$AAm?$AAe?$AAm?$AAc?$AAp?$AAy?$AA_?$AAs?$AA?$AA@ 00494a10     LIBCMTD:memcpy_s.obj
 0002:0000fa28       ??_C@_1GE@NEOPGGBM@?$AAf?$AA?3?$AA?2?$AAd?$AAd?$AA?2?$AAv?$AAc?$AAt?$AAo?$AAo?$AAl?$AAs?$AA?2?$AAc?$AAr?$AAt?$AA_?$AAb?$AAl?$AAd?$AA?2?$AAs?$AAe?$AAl?$AAf?$AA_?$AAx?$AA8?$AA6?$AA?2?$AAc@ 00494a28     LIBCMTD:memcpy_s.obj
 0002:0000fa8c       ??_C@_1BI@GKKCBDMD@?$AAd?$AAs?$AAt?$AA?5?$AA?$CB?$AA?$DN?$AA?5?$AAN?$AAU?$AAL?$AAL?$AA?$AA@ 00494a8c     LIBCMTD:memcpy_s.obj
 0002:0000faa8       ??_C@_1GE@HMAALBPJ@?$AAf?$AA?3?$AA?2?$AAd?$AAd?$AA?2?$AAv?$AAc?$AAt?$AAo?$AAo?$AAl?$AAs?$AA?2?$AAc?$AAr?$AAt?$AA_?$AAb?$AAl?$AAd?$AA?2?$AAs?$AAe?$AAl?$AAf?$AA_?$AAx?$AA8?$AA6?$AA?2?$AAc@ 00494aa8     LIBCMTD:localref.obj
 0002:0000fb10       ??_C@_1BKC@GGIENNAK@?$AA?$CI?$AA?$CI?$AAp?$AAt?$AAl?$AAo?$AAc?$AAi?$AA?9?$AA?$DO?$AAl?$AAc?$AA_?$AAc?$AAa?$AAt?$AAe?$AAg?$AAo?$AAr?$AAy?$AA?$FL?$AAc?$AAa?$AAt?$AAe?$AAg?$AAo?$AAr?$AAy?$AA?$FN?$AA?4@ 00494b10     LIBCMTD:localref.obj
 0002:0000fcb4       ??_C@_1BC@GDGBMEMK@?$AAH?$AAH?$AA?3?$AAm?$AAm?$AA?3?$AAs?$AAs?$AA?$AA@ 00494cb4     LIBCMTD:nlsdata2.obj
 0002:0000fcc8       ??_C@_1CI@KNAKOEBC@?$AAd?$AAd?$AAd?$AAd?$AA?0?$AA?5?$AAM?$AAM?$AAM?$AAM?$AA?5?$AAd?$AAd?$AA?0?$AA?5?$AAy?$AAy?$AAy?$AAy?$AA?$AA@ 00494cc8     LIBCMTD:nlsdata2.obj
 0002:0000fcf0       ??_C@_1BC@IEBCMHCM@?$AAM?$AAM?$AA?1?$AAd?$AAd?$AA?1?$AAy?$AAy?$AA?$AA@ 00494cf0     LIBCMTD:nlsdata2.obj
 0002:0000fd04       ??_C@_15CLMNNGEL@?$AAP?$AAM?$AA?$AA@ 00494d04     LIBCMTD:nlsdata2.obj
 0002:0000fd0c       ??_C@_15ODEHAHHF@?$AAA?$AAM?$AA?$AA@ 00494d0c     LIBCMTD:nlsdata2.obj
 0002:0000fd14       ??_C@_1BC@FEMKIFH@?$AAD?$AAe?$AAc?$AAe?$AAm?$AAb?$AAe?$AAr?$AA?$AA@ 00494d14     LIBCMTD:nlsdata2.obj
 0002:0000fd28       ??_C@_1BC@BGLIFPF@?$AAN?$AAo?$AAv?$AAe?$AAm?$AAb?$AAe?$AAr?$AA?$AA@ 00494d28     LIBCMTD:nlsdata2.obj
 0002:0000fd3c       ??_C@_1BA@EPANDLNG@?$AAO?$AAc?$AAt?$AAo?$AAb?$AAe?$AAr?$AA?$AA@ 00494d3c     LIBCMTD:nlsdata2.obj
 0002:0000fd4c       ??_C@_1BE@DKAAMBJL@?$AAS?$AAe?$AAp?$AAt?$AAe?$AAm?$AAb?$AAe?$AAr?$AA?$AA@ 00494d4c     LIBCMTD:nlsdata2.obj
 0002:0000fd60       ??_C@_1O@PAHLKOAC@?$AAA?$AAu?$AAg?$AAu?$AAs?$AAt?$AA?$AA@ 00494d60     LIBCMTD:nlsdata2.obj
 0002:0000fd70       ??_C@_19BIFMLPCD@?$AAJ?$AAu?$AAl?$AAy?$AA?$AA@ 00494d70     LIBCMTD:nlsdata2.obj
 0002:0000fd7c       ??_C@_19EPFLPGAP@?$AAJ?$AAu?$AAn?$AAe?$AA?$AA@ 00494d7c     LIBCMTD:nlsdata2.obj
 0002:0000fd88       ??_C@_1M@GJNLMHFD@?$AAA?$AAp?$AAr?$AAi?$AAl?$AA?$AA@ 00494d88     LIBCMTD:nlsdata2.obj
 0002:0000fd94       ??_C@_1M@IKEENEDF@?$AAM?$AAa?$AAr?$AAc?$AAh?$AA?$AA@ 00494d94     LIBCMTD:nlsdata2.obj
 0002:0000fda0       ??_C@_1BC@JGDDFFAM@?$AAF?$AAe?$AAb?$AAr?$AAu?$AAa?$AAr?$AAy?$AA?$AA@ 00494da0     LIBCMTD:nlsdata2.obj
 0002:0000fdb4       ??_C@_1BA@EFMEIEBA@?$AAJ?$AAa?$AAn?$AAu?$AAa?$AAr?$AAy?$AA?$AA@ 00494db4     LIBCMTD:nlsdata2.obj
 0002:0000fdc4       ??_C@_17EGKACKIF@?$AAD?$AAe?$AAc?$AA?$AA@ 00494dc4     LIBCMTD:nlsdata2.obj
 0002:0000fdcc       ??_C@_17BBDMLCIG@?$AAN?$AAo?$AAv?$AA?$AA@ 00494dcc     LIBCMTD:nlsdata2.obj
 0002:0000fdd4       ??_C@_17FNLKOI@?$AAO?$AAc?$AAt?$AA?$AA@ 00494dd4     LIBCMTD:nlsdata2.obj
 0002:0000fddc       ??_C@_17HCHCOKMG@?$AAS?$AAe?$AAp?$AA?$AA@ 00494ddc     LIBCMTD:nlsdata2.obj
 0002:0000fde4       ??_C@_17ICPELBCN@?$AAA?$AAu?$AAg?$AA?$AA@ 00494de4     LIBCMTD:nlsdata2.obj
 0002:0000fdec       ??_C@_17IJPCKHK@?$AAJ?$AAu?$AAl?$AA?$AA@ 00494dec     LIBCMTD:nlsdata2.obj
 0002:0000fdf4       ??_C@_17KCJGOCPB@?$AAJ?$AAu?$AAn?$AA?$AA@ 00494df4     LIBCMTD:nlsdata2.obj
 0002:0000fdfc       ??_C@_17PNNKMEED@?$AAM?$AAa?$AAy?$AA?$AA@ 00494dfc     LIBCMTD:nlsdata2.obj
 0002:0000fe04       ??_C@_17LFPOIHDD@?$AAA?$AAp?$AAr?$AA?$AA@ 00494e04     LIBCMTD:nlsdata2.obj
 0002:0000fe0c       ??_C@_17CKNLEDEC@?$AAM?$AAa?$AAr?$AA?$AA@ 00494e0c     LIBCMTD:nlsdata2.obj
 0002:0000fe14       ??_C@_17LMDJEKJN@?$AAF?$AAe?$AAb?$AA?$AA@ 00494e14     LIBCMTD:nlsdata2.obj
 0002:0000fe1c       ??_C@_17DKNBKCHM@?$AAJ?$AAa?$AAn?$AA?$AA@ 00494e1c     LIBCMTD:nlsdata2.obj
 0002:0000fe24       ??_C@_1BC@ENMNNPAJ@?$AAS?$AAa?$AAt?$AAu?$AAr?$AAd?$AAa?$AAy?$AA?$AA@ 00494e24     LIBCMTD:nlsdata2.obj
 0002:0000fe38       ??_C@_1O@PDICJHAG@?$AAF?$AAr?$AAi?$AAd?$AAa?$AAy?$AA?$AA@ 00494e38     LIBCMTD:nlsdata2.obj
 0002:0000fe48       ??_C@_1BC@HHMNLIHE@?$AAT?$AAh?$AAu?$AAr?$AAs?$AAd?$AAa?$AAy?$AA?$AA@ 00494e48     LIBCMTD:nlsdata2.obj
 0002:0000fe5c       ??_C@_1BE@EBOGMDOH@?$AAW?$AAe?$AAd?$AAn?$AAe?$AAs?$AAd?$AAa?$AAy?$AA?$AA@ 00494e5c     LIBCMTD:nlsdata2.obj
 0002:0000fe70       ??_C@_1BA@ENFBFFEK@?$AAT?$AAu?$AAe?$AAs?$AAd?$AAa?$AAy?$AA?$AA@ 00494e70     LIBCMTD:nlsdata2.obj
 0002:0000fe80       ??_C@_1O@MMNBFLIA@?$AAM?$AAo?$AAn?$AAd?$AAa?$AAy?$AA?$AA@ 00494e80     LIBCMTD:nlsdata2.obj
 0002:0000fe90       ??_C@_1O@IHNHDHPB@?$AAS?$AAu?$AAn?$AAd?$AAa?$AAy?$AA?$AA@ 00494e90     LIBCMTD:nlsdata2.obj
 0002:0000fea0       ??_C@_17GGIBDPIH@?$AAS?$AAa?$AAt?$AA?$AA@ 00494ea0     LIBCMTD:nlsdata2.obj
 0002:0000fea8       ??_C@_17HFOLPPLP@?$AAF?$AAr?$AAi?$AA?$AA@ 00494ea8     LIBCMTD:nlsdata2.obj
 0002:0000feb0       ??_C@_17PDPHAADD@?$AAT?$AAh?$AAu?$AA?$AA@ 00494eb0     LIBCMTD:nlsdata2.obj
 0002:0000feb8       ??_C@_17CJEDCEPE@?$AAW?$AAe?$AAd?$AA?$AA@ 00494eb8     LIBCMTD:nlsdata2.obj
 0002:0000fec0       ??_C@_17BMKGEGOJ@?$AAT?$AAu?$AAe?$AA?$AA@ 00494ec0     LIBCMTD:nlsdata2.obj
 0002:0000fec8       ??_C@_17KBOMKBF@?$AAM?$AAo?$AAn?$AA?$AA@ 00494ec8     LIBCMTD:nlsdata2.obj
 0002:0000fed0       ??_C@_17MBGCMIPB@?$AAS?$AAu?$AAn?$AA?$AA@ 00494ed0     LIBCMTD:nlsdata2.obj
 0002:0000fed8       ??_C@_08JCCMCCIL@HH?3mm?3ss?$AA@ 00494ed8     LIBCMTD:nlsdata2.obj
 0002:0000fee4       ??_C@_0BE@CKGJFCPC@dddd?0?5MMMM?5dd?0?5yyyy?$AA@ 00494ee4     LIBCMTD:nlsdata2.obj
 0002:0000fef8       ??_C@_08BPBNCDIB@MM?1dd?1yy?$AA@ 00494ef8     LIBCMTD:nlsdata2.obj
 0002:0000ff04       ??_C@_02CJNFDJBF@PM?$AA@   00494f04     LIBCMTD:nlsdata2.obj
 0002:0000ff08       ??_C@_02DEDBPAFC@AM?$AA@   00494f08     LIBCMTD:nlsdata2.obj
 0002:0000ff0c       ??_C@_08EDHMEBNP@December?$AA@ 00494f0c     LIBCMTD:nlsdata2.obj
 0002:0000ff18       ??_C@_08HCHEGEOA@November?$AA@ 00494f18     LIBCMTD:nlsdata2.obj
 0002:0000ff24       ??_C@_07JJNFCEND@October?$AA@ 00494f24     LIBCMTD:nlsdata2.obj
 0002:0000ff2c       ??_C@_09BHHEALKD@September?$AA@ 00494f2c     LIBCMTD:nlsdata2.obj
 0002:0000ff38       ??_C@_06LBBHFDDG@August?$AA@ 00494f38     LIBCMTD:nlsdata2.obj
 0002:0000ff40       ??_C@_04MIEPOIFP@July?$AA@ 00494f40     LIBCMTD:nlsdata2.obj
 0002:0000ff48       ??_C@_04CNLMGBGM@June?$AA@ 00494f48     LIBCMTD:nlsdata2.obj
 0002:0000ff50       ??_C@_05DMJDNLEJ@April?$AA@ 00494f50     LIBCMTD:nlsdata2.obj
 0002:0000ff58       ??_C@_05HPCKOFNC@March?$AA@ 00494f58     LIBCMTD:nlsdata2.obj
 0002:0000ff60       ??_C@_08GNJGEPFN@February?$AA@ 00494f60     LIBCMTD:nlsdata2.obj
 0002:0000ff6c       ??_C@_07CGJPFGJA@January?$AA@ 00494f6c     LIBCMTD:nlsdata2.obj
 0002:0000ff74       ??_C@_03MKABNOCG@Dec?$AA@  00494f74     LIBCMTD:nlsdata2.obj
 0002:0000ff78       ??_C@_03JPJOFNIA@Nov?$AA@  00494f78     LIBCMTD:nlsdata2.obj
 0002:0000ff7c       ??_C@_03BMAOKBAD@Oct?$AA@  00494f7c     LIBCMTD:nlsdata2.obj
 0002:0000ff80       ??_C@_03GGCAPAJC@Sep?$AA@  00494f80     LIBCMTD:nlsdata2.obj
 0002:0000ff84       ??_C@_03IFJFEIGA@Aug?$AA@  00494f84     LIBCMTD:nlsdata2.obj
 0002:0000ff88       ??_C@_03LBGABGKK@Jul?$AA@  00494f88     LIBCMTD:nlsdata2.obj
 0002:0000ff8c       ??_C@_03IDFGHECI@Jun?$AA@  00494f8c     LIBCMTD:nlsdata2.obj
 0002:0000ff90       ??_C@_03CNMDKL@May?$AA@    00494f90     LIBCMTD:nlsdata2.obj
 0002:0000ff94       ??_C@_03LEOLGMJP@Apr?$AA@  00494f94     LIBCMTD:nlsdata2.obj
 0002:0000ff98       ??_C@_03ODNJBKGA@Mar?$AA@  00494f98     LIBCMTD:nlsdata2.obj
 0002:0000ff9c       ??_C@_03HJBDCHOM@Feb?$AA@  00494f9c     LIBCMTD:nlsdata2.obj
 0002:0000ffa0       ??_C@_03JIHJHPIE@Jan?$AA@  00494fa0     LIBCMTD:nlsdata2.obj
 0002:0000ffa4       ??_C@_08INBOOONO@Saturday?$AA@ 00494fa4     LIBCMTD:nlsdata2.obj
 0002:0000ffb0       ??_C@_06JECMNKMI@Friday?$AA@ 00494fb0     LIBCMTD:nlsdata2.obj
 0002:0000ffb8       ??_C@_08HACCIKIA@Thursday?$AA@ 00494fb8     LIBCMTD:nlsdata2.obj
 0002:0000ffc4       ??_C@_09DLIGFAKA@Wednesday?$AA@ 00494fc4     LIBCMTD:nlsdata2.obj
 0002:0000ffd0       ??_C@_07BAAGCFCM@Tuesday?$AA@ 00494fd0     LIBCMTD:nlsdata2.obj
 0002:0000ffd8       ??_C@_06JLEDEDGH@Monday?$AA@ 00494fd8     LIBCMTD:nlsdata2.obj
 0002:0000ffe0       ??_C@_06OOPIFAJ@Sunday?$AA@ 00494fe0     LIBCMTD:nlsdata2.obj
 0002:0000ffe8       ??_C@_03FEFJNEK@Sat?$AA@   00494fe8     LIBCMTD:nlsdata2.obj
 0002:0000ffec       ??_C@_03IDIOELNC@Fri?$AA@  00494fec     LIBCMTD:nlsdata2.obj
 0002:0000fff0       ??_C@_03IOFIKPDN@Thu?$AA@  00494ff0     LIBCMTD:nlsdata2.obj
 0002:0000fff4       ??_C@_03MHOMLAJA@Wed?$AA@  00494ff4     LIBCMTD:nlsdata2.obj
 0002:0000fff8       ??_C@_03NAGEINEP@Tue?$AA@  00494ff8     LIBCMTD:nlsdata2.obj
 0002:0000fffc       ??_C@_03PDAGKDH@Mon?$AA@   00494ffc     LIBCMTD:nlsdata2.obj
 0002:00010000       ??_C@_03KOEHGMDN@Sun?$AA@  00495000     LIBCMTD:nlsdata2.obj
 0002:00010004       ??_C@_0DB@MHMEONEC@f?3?2dd?2vctools?2crt_bld?2self_x86?2c@ 00495004     LIBCMTD:mbctype.obj
 0002:00010054       ??_C@_01KDCPPGHE@r?$AA@    00495054     LIBCMTD:_pdblkup_.obj
 0002:00010058       ??_C@_0BB@KCIACLNC@PDBOpenValidate5?$AA@ 00495058     LIBCMTD:_pdblkup_.obj
 0002:0001006c       ??_C@_1CK@HHHCOJPD@?$AAE?$AAn?$AAv?$AAi?$AAr?$AAo?$AAn?$AAm?$AAe?$AAn?$AAt?$AAD?$AAi?$AAr?$AAe?$AAc?$AAt?$AAo?$AAr?$AAy?$AA?$AA@ 0049506c     LIBCMTD:_pdblkup_.obj
 0002:00010098       ??_C@_1FM@DNCABAP@?$AAS?$AAO?$AAF?$AAT?$AAW?$AAA?$AAR?$AAE?$AA?2?$AAM?$AAi?$AAc?$AAr?$AAo?$AAs?$AAo?$AAf?$AAt?$AA?2?$AAV?$AAi?$AAs?$AAu?$AAa?$AAl?$AAS?$AAt?$AAu?$AAd?$AAi?$AAo?$AA?2@ 00495098     LIBCMTD:_pdblkup_.obj
 0002:000100f4       ??_C@_0M@HLOHPNFA@RegCloseKey?$AA@ 004950f4     LIBCMTD:_pdblkup_.obj
 0002:00010100       ??_C@_0BB@GLNAEDBD@RegQueryValueExW?$AA@ 00495100     LIBCMTD:_pdblkup_.obj
 0002:00010114       ??_C@_0O@COHOBMLB@RegOpenKeyExW?$AA@ 00495114     LIBCMTD:_pdblkup_.obj
 0002:00010124       ??_C@_1BK@GAEMIDIL@?$AAA?$AAD?$AAV?$AAA?$AAP?$AAI?$AA3?$AA2?$AA?4?$AAD?$AAL?$AAL?$AA?$AA@ 00495124     LIBCMTD:_pdblkup_.obj
 0002:00010140       ??_C@_03KHICJKCI@?4?4?4?$AA@ 00495140     LIBCMTD:dbgrpt.obj
 0002:00010144       ??_C@_0BB@NAGLCMLI@Assertion?5Failed?$AA@ 00495144     LIBCMTD:dbgrpt.obj
 0002:00010158       ??_C@_05NAOIJFC@Error?$AA@ 00495158     LIBCMTD:dbgrpt.obj
 0002:00010160       ??_C@_07KGMMFLDN@Warning?$AA@ 00495160     LIBCMTD:dbgrpt.obj
 0002:00010174       ??_C@_1CG@GNMJDMIO@?$AA_?$AAC?$AAr?$AAt?$AAS?$AAe?$AAt?$AAR?$AAe?$AAp?$AAo?$AAr?$AAt?$AAH?$AAo?$AAo?$AAk?$AA2?$AA?$AA@ 00495174     LIBCMTD:dbgrpt.obj
 0002:0001019c       ??_C@_0CD@EBCGLDDL@Microsoft?5Visual?5C?$CL?$CL?5Debug?5Libra@ 0049519c     LIBCMTD:dbgrpt.obj
 0002:000101c0       ??_C@_0FF@CCONDJCB@Debug?5?$CFs?$CB?6?6Program?3?5?$CFs?$CFs?$CFs?$CFs?$CFs?$CFs@ 004951c0     LIBCMTD:dbgrpt.obj
 0002:00010218       ??_C@_09OFBFHMBK@?6Module?3?5?$AA@ 00495218     LIBCMTD:dbgrpt.obj
 0002:00010224       ??_C@_07OPHPPLBG@?6File?3?5?$AA@ 00495224     LIBCMTD:dbgrpt.obj
 0002:0001022c       ??_C@_07DBMPPHDI@?6Line?3?5?$AA@ 0049522c     LIBCMTD:dbgrpt.obj
 0002:00010234       ??_C@_02PHMGELLB@?6?6?$AA@ 00495234     LIBCMTD:dbgrpt.obj
 0002:00010238       ??_C@_0N@MEECIJGN@Expression?3?5?$AA@ 00495238     LIBCMTD:dbgrpt.obj
 0002:00010248       ??_C@_0HD@GNBNFCCL@?6?6For?5information?5on?5how?5your?5pr@ 00495248     LIBCMTD:dbgrpt.obj
 0002:000102bc       ??_C@_0BH@DNAGHKFM@?$DMprogram?5name?5unknown?$DO?$AA@ 004952bc     LIBCMTD:dbgrpt.obj
 0002:000102d8       ??_C@_1GG@DLDHOIGE@?$AAs?$AAt?$AAr?$AAc?$AAp?$AAy?$AA_?$AAs?$AA?$CI?$AAs?$AAz?$AAE?$AAx?$AAe?$AAN?$AAa?$AAm?$AAe?$AA?0?$AA?5?$AA2?$AA6?$AA0?$AA?0?$AA?5?$AA?$CC?$AA?$DM?$AAp?$AAr?$AAo?$AAg?$AAr@ 004952d8     LIBCMTD:dbgrpt.obj
 0002:00010340       ??_C@_1CI@IDOKFLAJ@?$AA_?$AA_?$AAc?$AAr?$AAt?$AAM?$AAe?$AAs?$AAs?$AAa?$AAg?$AAe?$AAW?$AAi?$AAn?$AAd?$AAo?$AAw?$AAA?$AA?$AA@ 00495340     LIBCMTD:dbgrpt.obj
 0002:00010368       ??_C@_0BK@CFCOFLF@?5Complete?5Object?5Locator?8?$AA@ 00495368     LIBCMTD:undname.obj
 0002:00010384       ??_C@_0BN@MECKDCOJ@?5Class?5Hierarchy?5Descriptor?8?$AA@ 00495384     LIBCMTD:undname.obj
 0002:000103a4       ??_C@_0BD@LGICGFMM@?5Base?5Class?5Array?8?$AA@ 004953a4     LIBCMTD:undname.obj
 0002:000103b8       ??_C@_0BM@LDKODKLH@?5Base?5Class?5Descriptor?5at?5?$CI?$AA@ 004953b8     LIBCMTD:undname.obj
 0002:000103d4       ??_C@_0BC@DAFEJGAK@?5Type?5Descriptor?8?$AA@ 004953d4     LIBCMTD:undname.obj
 0002:000103e8       ??_C@_0BM@PMGGMLDN@?$GAlocal?5static?5thread?5guard?8?$AA@ 004953e8     LIBCMTD:undname.obj
 0002:00010404       ??_C@_0CL@FGIJHLCE@?$GAmanaged?5vector?5copy?5constructor@ 00495404     LIBCMTD:undname.obj
 0002:00010430       ??_C@_0CJ@GJELGAMM@?$GAvector?5vbase?5copy?5constructor?5i@ 00495430     LIBCMTD:undname.obj
 0002:0001045c       ??_C@_0CD@CGAJBKEJ@?$GAvector?5copy?5constructor?5iterato@ 0049545c     LIBCMTD:undname.obj
 0002:00010480       ??_C@_0CB@PDBIFEP@?$GAdynamic?5atexit?5destructor?5for?5?8@ 00495480     LIBCMTD:undname.obj
 0002:000104a4       ??_C@_0BL@CLIPGLGB@?$GAdynamic?5initializer?5for?5?8?$AA@ 004954a4     LIBCMTD:undname.obj
 0002:000104c0       ??_C@_0CM@FCBBDIGB@?$GAeh?5vector?5vbase?5copy?5constructo@ 004954c0     LIBCMTD:undname.obj
 0002:000104ec       ??_C@_0CG@HLDDJMAG@?$GAeh?5vector?5copy?5constructor?5iter@ 004954ec     LIBCMTD:undname.obj
 0002:00010514       ??_C@_0CF@IMGKMJNO@?$GAmanaged?5vector?5destructor?5itera@ 00495514     LIBCMTD:undname.obj
 0002:0001053c       ??_C@_0CG@CFDHKGGD@?$GAmanaged?5vector?5constructor?5iter@ 0049553c     LIBCMTD:undname.obj
 0002:00010564       ??_C@_0BN@CKNJLHMB@?$GAplacement?5delete?$FL?$FN?5closure?8?$AA@ 00495564     LIBCMTD:undname.obj
 0002:00010584       ??_C@_0BL@CNOONJFP@?$GAplacement?5delete?5closure?8?$AA@ 00495584     LIBCMTD:undname.obj
 0002:000105a0       ??_C@_0P@HJKNJFNN@?$GAomni?5callsig?8?$AA@ 004955a0     LIBCMTD:undname.obj
 0002:000105b0       ??_C@_09LBNFPBCA@?5delete?$FL?$FN?$AA@ 004955b0     LIBCMTD:undname.obj
 0002:000105bc       ??_C@_06FHBGPFGH@?5new?$FL?$FN?$AA@ 004955bc     LIBCMTD:undname.obj
 0002:000105c4       ??_C@_0CE@IIHCMGGL@?$GAlocal?5vftable?5constructor?5closu@ 004955c4     LIBCMTD:undname.obj
 0002:000105e8       ??_C@_0BA@KKLDJDLB@?$GAlocal?5vftable?8?$AA@ 004955e8     LIBCMTD:undname.obj
 0002:000105f8       ??_C@_05KHLCHHI@?$GARTTI?$AA@ 004955f8     LIBCMTD:undname.obj
 0002:00010600       ??_C@_03KLGMFNMG@?$GAEH?$AA@ 00495600     LIBCMTD:undname.obj
 0002:00010604       ??_C@_0BA@KBCDOMBN@?$GAudt?5returning?8?$AA@ 00495604     LIBCMTD:undname.obj
 0002:00010614       ??_C@_0BL@LLKPOHJI@?$GAcopy?5constructor?5closure?8?$AA@ 00495614     LIBCMTD:undname.obj
 0002:00010630       ??_C@_0CH@OOJPLCPH@?$GAeh?5vector?5vbase?5constructor?5ite@ 00495630     LIBCMTD:undname.obj
 0002:00010658       ??_C@_0CA@GCEOPDGL@?$GAeh?5vector?5destructor?5iterator?8?$AA@ 00495658     LIBCMTD:undname.obj
 0002:00010678       ??_C@_0CB@JONCMFFK@?$GAeh?5vector?5constructor?5iterator?8@ 00495678     LIBCMTD:undname.obj
 0002:0001069c       ??_C@_0BL@NILFHHPC@?$GAvirtual?5displacement?5map?8?$AA@ 0049569c     LIBCMTD:undname.obj
 0002:000106b8       ??_C@_0CE@IKBNEHA@?$GAvector?5vbase?5constructor?5iterat@ 004956b8     LIBCMTD:undname.obj
 0002:000106dc       ??_C@_0BN@LFPFMEDL@?$GAvector?5destructor?5iterator?8?$AA@ 004956dc     LIBCMTD:undname.obj
 0002:000106fc       ??_C@_0BO@PFGOCPJJ@?$GAvector?5constructor?5iterator?8?$AA@ 004956fc     LIBCMTD:undname.obj
 0002:0001071c       ??_C@_0BN@IMDCHIKM@?$GAscalar?5deleting?5destructor?8?$AA@ 0049571c     LIBCMTD:undname.obj
 0002:0001073c       ??_C@_0BO@OBMKPJIG@?$GAdefault?5constructor?5closure?8?$AA@ 0049573c     LIBCMTD:undname.obj
 0002:0001075c       ??_C@_0BN@DEGPLNFK@?$GAvector?5deleting?5destructor?8?$AA@ 0049575c     LIBCMTD:undname.obj
 0002:0001077c       ??_C@_0BD@JDLKDPAB@?$GAvbase?5destructor?8?$AA@ 0049577c     LIBCMTD:undname.obj
 0002:00010790       ??_C@_08OBABFOLI@?$GAstring?8?$AA@ 00495790     LIBCMTD:undname.obj
 0002:0001079c       ??_C@_0BF@KDPPACIK@?$GAlocal?5static?5guard?8?$AA@ 0049579c     LIBCMTD:undname.obj
 0002:000107b4       ??_C@_08LLFFHHDJ@?$GAtypeof?8?$AA@ 004957b4     LIBCMTD:undname.obj
 0002:000107c0       ??_C@_07FEEIOKP@?$GAvcall?8?$AA@ 004957c0     LIBCMTD:undname.obj
 0002:000107c8       ??_C@_09BLBHBJP@?$GAvbtable?8?$AA@ 004957c8     LIBCMTD:undname.obj
 0002:000107d4       ??_C@_09IFPLHPGF@?$GAvftable?8?$AA@ 004957d4     LIBCMTD:undname.obj
 0002:000107e0       ??_C@_02MHEGNOJ@?$FO?$DN?$AA@ 004957e0     LIBCMTD:undname.obj
 0002:000107e4       ??_C@_02DHLNPPGH@?$HM?$DN?$AA@ 004957e4     LIBCMTD:undname.obj
 0002:000107e8       ??_C@_02FGJGFEAB@?$CG?$DN?$AA@ 004957e8     LIBCMTD:undname.obj
 0002:000107ec       ??_C@_03CDNPDDLA@?$DM?$DM?$DN?$AA@ 004957ec     LIBCMTD:undname.obj
 0002:000107f0       ??_C@_03IKFCCPFF@?$DO?$DO?$DN?$AA@ 004957f0     LIBCMTD:undname.obj
 0002:000107f4       ??_C@_02FENAOKFI@?$CF?$DN?$AA@ 004957f4     LIBCMTD:undname.obj
 0002:000107f8       ??_C@_02FJEHGPIO@?1?$DN?$AA@ 004957f8     LIBCMTD:undname.obj
 0002:000107fc       ??_C@_02FKMDLLOA@?9?$DN?$AA@ 004957fc     LIBCMTD:undname.obj
 0002:00010800       ??_C@_02FOEOMHFC@?$CL?$DN?$AA@ 00495800     LIBCMTD:undname.obj
 0002:00010804       ??_C@_02FPIMKNGF@?$CK?$DN?$AA@ 00495804     LIBCMTD:undname.obj
 0002:00010808       ??_C@_02NONPIBCD@?$HM?$HM?$AA@ 00495808     LIBCMTD:undname.obj
 0002:0001080c       ??_C@_02PPKAJPJL@?$CG?$CG?$AA@ 0049580c     LIBCMTD:undname.obj
 0002:00010810       ??_C@_01DNKMNLPK@?$HM?$AA@ 00495810     LIBCMTD:undname.obj
 0002:00010814       ??_C@_01JKBOJNNK@?$FO?$AA@ 00495814     LIBCMTD:undname.obj
 0002:00010818       ??_C@_01PJKLJHI@?$HO?$AA@  00495818     LIBCMTD:undname.obj
 0002:0001081c       ??_C@_02HCKGKOFO@?$CI?$CJ?$AA@ 0049581c     LIBCMTD:undname.obj
 0002:00010820       ??_C@_01IHBHIGKO@?0?$AA@   00495820     LIBCMTD:undname.obj
 0002:00010824       ??_C@_02EEKDKGMJ@?$DO?$DN?$AA@ 00495824     LIBCMTD:undname.obj
 0002:00010828       ??_C@_01PPODPGHN@?$DO?$AA@ 00495828     LIBCMTD:undname.obj
 0002:0001082c       ??_C@_02EHCHHCKH@?$DM?$DN?$AA@ 0049582c     LIBCMTD:undname.obj
 0002:00010830       ??_C@_01MNNFJEPP@?$DM?$AA@ 00495830     LIBCMTD:undname.obj
 0002:00010834       ??_C@_01FGNFDNOH@?$CF?$AA@ 00495834     LIBCMTD:undname.obj
 0002:00010838       ??_C@_01KMDKNFGN@?1?$AA@   00495838     LIBCMTD:undname.obj
 0002:0001083c       ??_C@_03MNHNFDLC@?9?$DO?$CK?$AA@ 0049583c     LIBCMTD:undname.obj
 0002:00010840       ??_C@_01HNPIGOCE@?$CG?$AA@ 00495840     LIBCMTD:undname.obj
 0002:00010844       ??_C@_01MIFGBAGJ@?$CL?$AA@ 00495844     LIBCMTD:undname.obj
 0002:00010848       ??_C@_01JOAMLHOP@?9?$AA@   00495848     LIBCMTD:undname.obj
 0002:0001084c       ??_C@_02BAABKJLB@?9?9?$AA@ 0049584c     LIBCMTD:undname.obj
 0002:00010850       ??_C@_02ECNGHCIF@?$CL?$CL?$AA@ 00495850     LIBCMTD:undname.obj
 0002:00010854       ??_C@_01NBENCBCI@?$CK?$AA@ 00495854     LIBCMTD:undname.obj
 0002:00010858       ??_C@_02HBOOOICD@?9?$DO?$AA@ 00495858     LIBCMTD:undname.obj
 0002:0001085c       ??_C@_08LHJFAFGD@operator?$AA@ 0049585c     LIBCMTD:undname.obj
 0002:00010868       ??_C@_02GPECMEKF@?$FL?$FN?$AA@ 00495868     LIBCMTD:undname.obj
 0002:0001086c       ??_C@_02FDNJECIE@?$CB?$DN?$AA@ 0049586c     LIBCMTD:undname.obj
 0002:00010870       ??_C@_02EGOFBIJA@?$DN?$DN?$AA@ 00495870     LIBCMTD:undname.obj
 0002:00010874       ??_C@_01DCLJPIOD@?$CB?$AA@ 00495874     LIBCMTD:undname.obj
 0002:00010878       ??_C@_02FODMEDOG@?$DM?$DM?$AA@ 00495878     LIBCMTD:undname.obj
 0002:0001087c       ??_C@_02GPIOPFAK@?$DO?$DO?$AA@ 0049587c     LIBCMTD:undname.obj
 0002:00010880       ??_C@_01NEMOKFLO@?$DN?$AA@ 00495880     LIBCMTD:undname.obj
 0002:00010884       ??_C@_07FPCDHGMM@?5delete?$AA@ 00495884     LIBCMTD:undname.obj
 0002:0001088c       ??_C@_04NIHEBCM@?5new?$AA@ 0049588c     LIBCMTD:undname.obj
 0002:00010894       ??_C@_0M@GFIIJFMG@__unaligned?$AA@ 00495894     LIBCMTD:undname.obj
 0002:000108a0       ??_C@_0L@PILCLIHE@__restrict?$AA@ 004958a0     LIBCMTD:undname.obj
 0002:000108ac       ??_C@_07JOMMBBKO@__ptr64?$AA@ 004958ac     LIBCMTD:undname.obj
 0002:000108b4       ??_C@_06GHPCKEAG@__eabi?$AA@ 004958b4     LIBCMTD:undname.obj
 0002:000108bc       ??_C@_09HIJEGCPM@__clrcall?$AA@ 004958bc     LIBCMTD:undname.obj
 0002:000108c8       ??_C@_0L@JMKHOMEK@__fastcall?$AA@ 004958c8     LIBCMTD:undname.obj
 0002:000108d4       ??_C@_0L@NPHFGOKO@__thiscall?$AA@ 004958d4     LIBCMTD:undname.obj
 0002:000108e0       ??_C@_09IFJBGAPI@__stdcall?$AA@ 004958e0     LIBCMTD:undname.obj
 0002:000108ec       ??_C@_08GHMPAG@__pascal?$AA@ 004958ec     LIBCMTD:undname.obj
 0002:000108f8       ??_C@_07KOLFKCDI@__cdecl?$AA@ 004958f8     LIBCMTD:undname.obj
 0002:00010900       ??_C@_08EHJDFFNH@__based?$CI?$AA@ 00495900     LIBCMTD:undname.obj
 0002:00010a94       ??_C@_04HEJADOOB@CV?3?5?$AA@ 00495a94     LIBCMTD:undname.obj
 0002:00010a9c       ??_C@_02MOLJINC@?3?3?$AA@  00495a9c     LIBCMTD:undname.obj
 0002:00010aa0       ??_C@_01GEODFPGF@?8?$AA@   00495aa0     LIBCMTD:undname.obj
 0002:00010aa4       ??_C@_01NLNLIGKH@?$GA?$AA@ 00495aa4     LIBCMTD:undname.obj
 0002:00010aa8       ??_C@_0O@KHGCOMHP@generic?9type?9?$AA@ 00495aa8     LIBCMTD:undname.obj
 0002:00010ab8       ??_C@_0BE@JAEOCHPE@template?9parameter?9?$AA@ 00495ab8     LIBCMTD:undname.obj
 0002:00010acc       ??_C@_02OHHJMEON@?8?8?$AA@ 00495acc     LIBCMTD:undname.obj
 0002:00010ad0       ??_C@_0BG@JNJLAMPM@?$GAanonymous?5namespace?8?$AA@ 00495ad0     LIBCMTD:undname.obj
 0002:00010ae8       ??_C@_0BN@IBLMMFAP@?$GAnon?9type?9template?9parameter?$AA@ 00495ae8     LIBCMTD:undname.obj
 0002:00010b08       ??_C@_0BE@EODMJLIF@?$GAtemplate?9parameter?$AA@ 00495b08     LIBCMTD:undname.obj
 0002:00010b1c       ??_C@_04GKJNKENE@void?$AA@ 00495b1c     LIBCMTD:undname.obj
 0002:00010b24       ??_C@_04HIBGFPH@NULL?$AA@  00495b24     LIBCMTD:undname.obj
 0002:00010b2c       ??_C@_0M@DHNBOJMP@extern?5?$CCC?$CC?5?$AA@ 00495b2c     LIBCMTD:undname.obj
 0002:00010b38       ??_C@_08KJLFOPNE@?$FLthunk?$FN?3?$AA@ 00495b38     LIBCMTD:undname.obj
 0002:00010b44       ??_C@_08GPDDCMKI@public?3?5?$AA@ 00495b44     LIBCMTD:undname.obj
 0002:00010b50       ??_C@_0M@GAIFPFIP@protected?3?5?$AA@ 00495b50     LIBCMTD:undname.obj
 0002:00010b5c       ??_C@_09LAPHOOG@private?3?5?$AA@ 00495b5c     LIBCMTD:undname.obj
 0002:00010b68       ??_C@_08NIEOINHE@virtual?5?$AA@ 00495b68     LIBCMTD:undname.obj
 0002:00010b74       ??_C@_07PGOEDBHP@static?5?$AA@ 00495b74     LIBCMTD:undname.obj
 0002:00010b7c       ??_C@_0DA@HGFJFBBE@?$GAtemplate?5static?5data?5member?5des@ 00495b7c     LIBCMTD:undname.obj
 0002:00010bac       ??_C@_0DB@ILEFOCIJ@?$GAtemplate?5static?5data?5member?5con@ 00495bac     LIBCMTD:undname.obj
 0002:00010be0       ??_C@_0CB@KJDOOODE@?$GAlocal?5static?5destructor?5helper?8@ 00495be0     LIBCMTD:undname.obj
 0002:00010c04       ??_C@_0L@HNGCOGAE@?$GAadjustor?$HL?$AA@ 00495c04     LIBCMTD:undname.obj
 0002:00010c10       ??_C@_0L@GHPFDFH@?$GAvtordisp?$HL?$AA@ 00495c10     LIBCMTD:undname.obj
 0002:00010c1c       ??_C@_0N@CBHHHENL@?$GAvtordispex?$HL?$AA@ 00495c1c     LIBCMTD:undname.obj
 0002:00010c2c       ??_C@_01CLKCMJKC@?5?$AA@   00495c2c     LIBCMTD:undname.obj
 0002:00010c30       ??_C@_02IGFCGPIL@?$HN?8?$AA@ 00495c30     LIBCMTD:undname.obj
 0002:00010c34       ??_C@_03OPGICMGF@?$HN?8?5?$AA@ 00495c34     LIBCMTD:undname.obj
 0002:00010c38       ??_C@_02KCKGHPCA@?$CJ?5?$AA@ 00495c38     LIBCMTD:undname.obj
 0002:00010c3c       ??_C@_05BEFAKPML@void?5?$AA@ 00495c3c     LIBCMTD:undname.obj
 0002:00010c44       ??_C@_0P@GCOCNKDM@std?3?3nullptr_t?$AA@ 00495c44     LIBCMTD:undname.obj
 0002:00010c54       ??_C@_08PABEKFH@volatile?$AA@ 00495c54     LIBCMTD:undname.obj
 0002:00010c60       ??_C@_0M@ELJOJFFH@?0?$DMellipsis?$DO?$AA@ 00495c60     LIBCMTD:undname.obj
 0002:00010c6c       ??_C@_04EENFHACM@?0?4?4?4?$AA@ 00495c6c     LIBCMTD:undname.obj
 0002:00010c74       ??_C@_0L@EGPHHEKN@?$DMellipsis?$DO?$AA@ 00495c74     LIBCMTD:undname.obj
 0002:00010c80       ??_C@_07HDJPLPEK@?5throw?$CI?$AA@ 00495c80     LIBCMTD:undname.obj
 0002:00010c88       ??_C@_09EFNPDFFP@?5volatile?$AA@ 00495c88     LIBCMTD:undname.obj
 0002:00010c94       ??_C@_05BNCCCJPP@const?$AA@ 00495c94     LIBCMTD:undname.obj
 0002:00010c9c       ??_C@_07EDHNAJHC@signed?5?$AA@ 00495c9c     LIBCMTD:undname.obj
 0002:00010ca4       ??_C@_09EBBEKKIH@unsigned?5?$AA@ 00495ca4     LIBCMTD:undname.obj
 0002:00010cb0       ??_C@_07NFANNNEC@UNKNOWN?$AA@ 00495cb0     LIBCMTD:undname.obj
 0002:00010cb8       ??_C@_06GCICPBLB@__w64?5?$AA@ 00495cb8     LIBCMTD:undname.obj
 0002:00010cc0       ??_C@_07CLGGIAMF@wchar_t?$AA@ 00495cc0     LIBCMTD:undname.obj
 0002:00010cc8       ??_C@_09EEKGDCPH@?$DMunknown?$DO?$AA@ 00495cc8     LIBCMTD:undname.obj
 0002:00010cd4       ??_C@_08GAHOLHEO@__int128?$AA@ 00495cd4     LIBCMTD:undname.obj
 0002:00010ce0       ??_C@_07LFCOJCAC@__int64?$AA@ 00495ce0     LIBCMTD:undname.obj
 0002:00010ce8       ??_C@_07OFLPPHGP@__int32?$AA@ 00495ce8     LIBCMTD:undname.obj
 0002:00010cf0       ??_C@_07ICFHOGAF@__int16?$AA@ 00495cf0     LIBCMTD:undname.obj
 0002:00010cf8       ??_C@_06EBGKOKIG@__int8?$AA@ 00495cf8     LIBCMTD:undname.obj
 0002:00010d00       ??_C@_04DDKJGDCM@bool?$AA@ 00495d00     LIBCMTD:undname.obj
 0002:00010d08       ??_C@_06BNJCAIGJ@double?$AA@ 00495d08     LIBCMTD:undname.obj
 0002:00010d10       ??_C@_05CJIMAING@long?5?$AA@ 00495d10     LIBCMTD:undname.obj
 0002:00010d18       ??_C@_05KNFBNCOH@float?$AA@ 00495d18     LIBCMTD:undname.obj
 0002:00010d20       ??_C@_04GOKPGOLB@long?$AA@ 00495d20     LIBCMTD:undname.obj
 0002:00010d28       ??_C@_03JBIPMCLC@int?$AA@  00495d28     LIBCMTD:undname.obj
 0002:00010d2c       ??_C@_05BFKKPKCG@short?$AA@ 00495d2c     LIBCMTD:undname.obj
 0002:00010d34       ??_C@_04ENMBGAPA@char?$AA@ 00495d34     LIBCMTD:undname.obj
 0002:00010d3c       ??_C@_05LJGMCFOG@enum?5?$AA@ 00495d3c     LIBCMTD:undname.obj
 0002:00010d44       ??_C@_0N@DLIEFKNA@cointerface?5?$AA@ 00495d44     LIBCMTD:undname.obj
 0002:00010d54       ??_C@_08KOFANOFK@coclass?5?$AA@ 00495d54     LIBCMTD:undname.obj
 0002:00010d60       ??_C@_06LJBABKPM@class?5?$AA@ 00495d60     LIBCMTD:undname.obj
 0002:00010d68       ??_C@_07DIBCDNGL@struct?5?$AA@ 00495d68     LIBCMTD:undname.obj
 0002:00010d70       ??_C@_06MOJHIBMG@union?5?$AA@ 00495d70     LIBCMTD:undname.obj
 0002:00010d78       ??_C@_0P@GCIFDJCJ@?$GAunknown?5ecsu?8?$AA@ 00495d78     LIBCMTD:undname.obj
 0002:00010d88       ??_C@_04LAHKHJMA@int?5?$AA@ 00495d88     LIBCMTD:undname.obj
 0002:00010d90       ??_C@_06EHJMALKF@short?5?$AA@ 00495d90     LIBCMTD:undname.obj
 0002:00010d98       ??_C@_05CIHEBHNO@char?5?$AA@ 00495d98     LIBCMTD:undname.obj
 0002:00010da0       ??_C@_06LIJLOJAG@const?5?$AA@ 00495da0     LIBCMTD:undname.obj
 0002:00010da8       ??_C@_09GAIEOBLP@volatile?5?$AA@ 00495da8     LIBCMTD:undname.obj
 0002:00010db4       ??_C@_0O@GKABPPIF@cli?3?3pin_ptr?$DM?$AA@ 00495db4     LIBCMTD:undname.obj
 0002:00010dc4       ??_C@_0M@EALIELKG@cli?3?3array?$DM?$AA@ 00495dc4     LIBCMTD:undname.obj
 0002:00010dd0       ??_C@_02GOGNNPBN@?$CJ?$FL?$AA@ 00495dd0     LIBCMTD:undname.obj
 0002:00010dd4       ??_C@_06EEGAIFAK@?$HLflat?$HN?$AA@ 00495dd4     LIBCMTD:undname.obj
 0002:00010ddc       ??_C@_02MDINNEEG@s?5?$AA@  00495ddc     LIBCMTD:undname.obj
 0002:00010de0       ??_C@_05JIBOFOHK@?$HLfor?5?$AA@ 00495de0     LIBCMTD:undname.obj
 0002:00010de8       ??_7DNameNode@@6B@         00495de8     LIBCMTD:undname.obj
 0002:00010df4       ??_7charNode@@6B@          00495df4     LIBCMTD:undname.obj
 0002:00010e00       ??_7pcharNode@@6B@         00495e00     LIBCMTD:undname.obj
 0002:00010e0c       ??_7pDNameNode@@6B@        00495e0c     LIBCMTD:undname.obj
 0002:00010e18       ??_7DNameStatusNode@@6B@   00495e18     LIBCMTD:undname.obj
 0002:00010e24       ??_C@_04OKOHEJBO@?5?$DP?$DP?5?$AA@ 00495e24     LIBCMTD:undname.obj
 0002:00010e2c       ??_7pairNode@@6B@          00495e2c     LIBCMTD:undname.obj
 0002:00010e38       ??_C@_1BK@JMCGJOCC@?$AA_?$AAe?$AAx?$AAp?$AAa?$AAn?$AAd?$AA_?$AAb?$AAa?$AAs?$AAe?$AA?$AA@ 00495e38     LIBCMTD:expand.obj
 0002:00010e58       ??_C@_1GA@EBHFLDNH@?$AAf?$AA?3?$AA?2?$AAd?$AAd?$AA?2?$AAv?$AAc?$AAt?$AAo?$AAo?$AAl?$AAs?$AA?2?$AAc?$AAr?$AAt?$AA_?$AAb?$AAl?$AAd?$AA?2?$AAs?$AAe?$AAl?$AAf?$AA_?$AAx?$AA8?$AA6?$AA?2?$AAc@ 00495e58     LIBCMTD:expand.obj
 0002:00010eb8       ??_C@_1BO@KFIJIAEA@?$AAp?$AAB?$AAl?$AAo?$AAc?$AAk?$AA?5?$AA?$CB?$AA?$DN?$AA?5?$AAN?$AAU?$AAL?$AAL?$AA?$AA@ 00495eb8     LIBCMTD:expand.obj
 0002:00010ed8       ??_C@_1BA@KBJJGFFE@?$AAs?$AAp?$AAr?$AAi?$AAn?$AAt?$AAf?$AA?$AA@ 00495ed8     LIBCMTD:sprintf.obj
 0002:00010ee8       ??_C@_1GC@CHGJNMHG@?$AAf?$AA?3?$AA?2?$AAd?$AAd?$AA?2?$AAv?$AAc?$AAt?$AAo?$AAo?$AAl?$AAs?$AA?2?$AAc?$AAr?$AAt?$AA_?$AAb?$AAl?$AAd?$AA?2?$AAs?$AAe?$AAl?$AAf?$AA_?$AAx?$AA8?$AA6?$AA?2?$AAc@ 00495ee8     LIBCMTD:isctype.obj
 0002:00010f4c       ??_C@_1DC@BPLPALML@?$AA?$CI?$AAu?$AAn?$AAs?$AAi?$AAg?$AAn?$AAe?$AAd?$AA?$CJ?$AA?$CI?$AAc?$AA?5?$AA?$CL?$AA?5?$AA1?$AA?$CJ?$AA?5?$AA?$DM?$AA?$DN?$AA?5?$AA2?$AA5?$AA6?$AA?$AA@ 00495f4c     LIBCMTD:isctype.obj
 0002:00010f80       ??_C@_0BC@JEAENNKH@SystemFunction036?$AA@ 00495f80     LIBCMTD:rand_s.obj
 0002:00010f98       ??_C@_1GA@EBEDGGGB@?$AA?$CI?$AA?$CC?$AAr?$AAa?$AAn?$AAd?$AA_?$AAs?$AA?5?$AAi?$AAs?$AA?5?$AAn?$AAo?$AAt?$AA?5?$AAa?$AAv?$AAa?$AAi?$AAl?$AAa?$AAb?$AAl?$AAe?$AA?5?$AAo?$AAn?$AA?5?$AAt?$AAh?$AAi@ 00495f98     LIBCMTD:rand_s.obj
 0002:00010ff8       ??_C@_1O@IJGPPOGF@?$AAr?$AAa?$AAn?$AAd?$AA_?$AAs?$AA?$AA@ 00495ff8     LIBCMTD:rand_s.obj
 0002:00011008       ??_C@_1GA@HBGBBKCD@?$AAf?$AA?3?$AA?2?$AAd?$AAd?$AA?2?$AAv?$AAc?$AAt?$AAo?$AAo?$AAl?$AAs?$AA?2?$AAc?$AAr?$AAt?$AA_?$AAb?$AAl?$AAd?$AA?2?$AAs?$AAe?$AAl?$AAf?$AA_?$AAx?$AA8?$AA6?$AA?2?$AAc@ 00496008     LIBCMTD:rand_s.obj
 0002:00011068       ??_C@_1CK@GFDNDKK@?$AA_?$AAR?$AAa?$AAn?$AAd?$AAo?$AAm?$AAV?$AAa?$AAl?$AAu?$AAe?$AA?5?$AA?$CB?$AA?$DN?$AA?5?$AAN?$AAU?$AAL?$AAL?$AA?$AA@ 00496068     LIBCMTD:rand_s.obj
 0002:00011094       ??_C@_1BE@NDMJHJJG@?$AAs?$AAt?$AAr?$AAn?$AAc?$AAp?$AAy?$AA_?$AAs?$AA?$AA@ 00496094     LIBCMTD:strncpy_s.obj
 0002:000110a8       ??_C@_1GA@INJGGEBC@?$AAf?$AA?3?$AA?2?$AAd?$AAd?$AA?2?$AAv?$AAc?$AAt?$AAo?$AAo?$AAl?$AAs?$AA?2?$AAc?$AAr?$AAt?$AA_?$AAb?$AAl?$AAd?$AA?2?$AAs?$AAe?$AAl?$AAf?$AA_?$AAx?$AA8?$AA6?$AA?2?$AAc@ 004960a8     LIBCMTD:a_loc.obj
 0002:00011108       ??_C@_1FE@KNPCCODH@?$AA?$CI?$AA?$CC?$AAC?$AAo?$AAr?$AAr?$AAu?$AAp?$AAt?$AAe?$AAd?$AA?5?$AAp?$AAo?$AAi?$AAn?$AAt?$AAe?$AAr?$AA?5?$AAp?$AAa?$AAs?$AAs?$AAe?$AAd?$AA?5?$AAt?$AAo?$AA?5?$AA_?$AAf@ 00496108     LIBCMTD:a_loc.obj
 0002:0001115c       ??_C@_1BG@BBCDFOMA@?$AA_?$AAw?$AAo?$AAu?$AAt?$AAp?$AAu?$AAt?$AA_?$AAl?$AA?$AA@ 0049615c     LIBCMTD:woutput.obj
 0002:00011174       ??_C@_1CC@MONNFDCM@?$AAv?$AAf?$AAw?$AAp?$AAr?$AAi?$AAn?$AAt?$AAf?$AA_?$AAh?$AAe?$AAl?$AAp?$AAe?$AAr?$AA?$AA@ 00496174     LIBCMTD:vfwprint.obj
 0002:00011198       ??_C@_1GE@MBMBDAGC@?$AAf?$AA?3?$AA?2?$AAd?$AAd?$AA?2?$AAv?$AAc?$AAt?$AAo?$AAo?$AAl?$AAs?$AA?2?$AAc?$AAr?$AAt?$AA_?$AAb?$AAl?$AAd?$AA?2?$AAs?$AAe?$AAl?$AAf?$AA_?$AAx?$AA8?$AA6?$AA?2?$AAc@ 00496198     LIBCMTD:vfwprint.obj
 0002:00011200       ??_C@_1GE@MIMBMOF@?$AAf?$AA?3?$AA?2?$AAd?$AAd?$AA?2?$AAv?$AAc?$AAt?$AAo?$AAo?$AAl?$AAs?$AA?2?$AAc?$AAr?$AAt?$AA_?$AAb?$AAl?$AAd?$AA?2?$AAs?$AAe?$AAl?$AAf?$AA_?$AAx?$AA8?$AA6?$AA?2?$AAc@ 00496200     LIBCMTD:_freebuf.obj
 0002:00011264       ??_C@_1BO@KIJENGPH@?$AAs?$AAt?$AAr?$AAe?$AAa?$AAm?$AA?5?$AA?$CB?$AA?$DN?$AA?5?$AAN?$AAU?$AAL?$AAL?$AA?$AA@ 00496264     LIBCMTD:_freebuf.obj
 0002:00011288       ??_C@_1FK@LNCFKALM@?$AA?$CI?$AA?$CI?$AAs?$AAt?$AAa?$AAt?$AAe?$AA?5?$AA?$DN?$AA?$DN?$AA?5?$AAS?$AAT?$AA_?$AAN?$AAO?$AAR?$AAM?$AAA?$AAL?$AA?$CJ?$AA?5?$AA?$HM?$AA?$HM?$AA?5?$AA?$CI?$AAs?$AAt?$AAa?$AAt?$AAe?$AA?5@ 00496288     LIBCMTD:woutputs.obj
 0002:000112e8       ??_C@_1EE@DMAIGNBG@?$AA?$CI?$AA?$CC?$AAI?$AAn?$AAc?$AAo?$AAr?$AAr?$AAe?$AAc?$AAt?$AA?5?$AAf?$AAo?$AAr?$AAm?$AAa?$AAt?$AA?5?$AAs?$AAp?$AAe?$AAc?$AAi?$AAf?$AAi?$AAe?$AAr?$AA?$CC?$AA?0?$AA?5?$AA0@ 004962e8     LIBCMTD:woutputs.obj
 0002:0001132c       ??_C@_1BK@ONMFGLDB@?$AA_?$AAw?$AAo?$AAu?$AAt?$AAp?$AAu?$AAt?$AA_?$AAs?$AA_?$AAl?$AA?$AA@ 0049632c     LIBCMTD:woutputs.obj
 0002:00011348       ??_C@_1FK@BCPANIEK@?$AA?$CI?$AA?$CC?$AAM?$AAi?$AAs?$AAs?$AAi?$AAn?$AAg?$AA?5?$AAp?$AAo?$AAs?$AAi?$AAt?$AAi?$AAo?$AAn?$AA?5?$AAi?$AAn?$AA?5?$AAt?$AAh?$AAe?$AA?5?$AAf?$AAo?$AAr?$AAm?$AAa?$AAt@ 00496348     LIBCMTD:woutputp.obj
 0002:000113a8       ??_C@_1JC@OACKELNN@?$AA_?$AAt?$AAv?$AAa?$AAl?$AAi?$AAd?$AAa?$AAt?$AAe?$AA_?$AAp?$AAa?$AAr?$AAa?$AAm?$AA_?$AAr?$AAe?$AAu?$AAs?$AAe?$AA?$CI?$AA?$CG?$AAp?$AAo?$AAs?$AA_?$AAv?$AAa?$AAl?$AAu@ 004963a8     LIBCMTD:woutputp.obj
 0002:00011440       ??_C@_1IK@NBGDDCBN@?$AA_?$AAt?$AAv?$AAa?$AAl?$AAi?$AAd?$AAa?$AAt?$AAe?$AA_?$AAp?$AAa?$AAr?$AAa?$AAm?$AA_?$AAr?$AAe?$AAu?$AAs?$AAe?$AA?$CI?$AA?$CG?$AAp?$AAo?$AAs?$AA_?$AAv?$AAa?$AAl?$AAu@ 00496440     LIBCMTD:woutputp.obj
 0002:000114cc       ??_C@_1DG@GOHGNKHE@?$AAp?$AAa?$AAs?$AAs?$AA?5?$AA?$DN?$AA?$DN?$AA?5?$AAF?$AAO?$AAR?$AAM?$AAA?$AAT?$AA_?$AAO?$AAU?$AAT?$AAP?$AAU?$AAT?$AA_?$AAP?$AAA?$AAS?$AAS?$AA?$AA@ 004964cc     LIBCMTD:woutputp.obj
 0002:00011508       ??_C@_1IM@DNGHAPLB@?$AA_?$AAt?$AAv?$AAa?$AAl?$AAi?$AAd?$AAa?$AAt?$AAe?$AA_?$AAp?$AAa?$AAr?$AAa?$AAm?$AA_?$AAr?$AAe?$AAu?$AAs?$AAe?$AA?$CI?$AA?$CG?$AAp?$AAo?$AAs?$AA_?$AAv?$AAa?$AAl?$AAu@ 00496508     LIBCMTD:woutputp.obj
 0002:00011598       ??_C@_1IG@HJIMKDHC@?$AA_?$AAt?$AAv?$AAa?$AAl?$AAi?$AAd?$AAa?$AAt?$AAe?$AA_?$AAp?$AAa?$AAr?$AAa?$AAm?$AA_?$AAr?$AAe?$AAu?$AAs?$AAe?$AA?$CI?$AA?$CG?$AAp?$AAo?$AAs?$AA_?$AAv?$AAa?$AAl?$AAu@ 00496598     LIBCMTD:woutputp.obj
 0002:00011620       ??_C@_1IG@FDCPLALG@?$AA_?$AAt?$AAv?$AAa?$AAl?$AAi?$AAd?$AAa?$AAt?$AAe?$AA_?$AAp?$AAa?$AAr?$AAa?$AAm?$AA_?$AAr?$AAe?$AAu?$AAs?$AAe?$AA?$CI?$AA?$CG?$AAp?$AAo?$AAs?$AA_?$AAv?$AAa?$AAl?$AAu@ 00496620     LIBCMTD:woutputp.obj
 0002:000116a8       ??_C@_1EM@BNPHBBIA@?$AA?$CI?$AA?$CI?$AAt?$AAy?$AAp?$AAe?$AA_?$AAp?$AAo?$AAs?$AA?$DO?$AA?$DN?$AA0?$AA?$CJ?$AA?5?$AA?$CG?$AA?$CG?$AA?5?$AA?$CI?$AAt?$AAy?$AAp?$AAe?$AA_?$AAp?$AAo?$AAs?$AA?$DM?$AA_?$AAA?$AAR?$AAG@ 004966a8     LIBCMTD:woutputp.obj
 0002:000116f8       ??_C@_1IK@EIEPDKHJ@?$AA_?$AAt?$AAv?$AAa?$AAl?$AAi?$AAd?$AAa?$AAt?$AAe?$AA_?$AAp?$AAa?$AAr?$AAa?$AAm?$AA_?$AAr?$AAe?$AAu?$AAs?$AAe?$AA?$CI?$AA?$CG?$AAp?$AAo?$AAs?$AA_?$AAv?$AAa?$AAl?$AAu@ 004966f8     LIBCMTD:woutputp.obj
 0002:00011788       ??_C@_1JG@JBJBOCFB@?$AA?$CI?$AA?$CI?$AAp?$AAr?$AAe?$AAc?$AAi?$AAs?$AA_?$AAp?$AAo?$AAs?$AA?5?$AA?$DO?$AA?$DN?$AA?5?$AA0?$AA?$CJ?$AA?5?$AA?$CG?$AA?$CG?$AA?5?$AA?$CI?$AA?$CK?$AAe?$AAn?$AAd?$AA_?$AAp?$AAo?$AAs?$AA?5@ 00496788     LIBCMTD:woutputp.obj
 0002:00011820       ??_C@_1II@PIPIMLPF@?$AA_?$AAt?$AAv?$AAa?$AAl?$AAi?$AAd?$AAa?$AAt?$AAe?$AA_?$AAp?$AAa?$AAr?$AAa?$AAm?$AA_?$AAr?$AAe?$AAu?$AAs?$AAe?$AA?$CI?$AA?$CG?$AAp?$AAo?$AAs?$AA_?$AAv?$AAa?$AAl?$AAu@ 00496820     LIBCMTD:woutputp.obj
 0002:000118a8       ??_C@_1JE@NMBHOLFI@?$AA?$CI?$AA?$CI?$AAw?$AAi?$AAd?$AAt?$AAh?$AA_?$AAp?$AAo?$AAs?$AA?5?$AA?$DO?$AA?$DN?$AA?5?$AA0?$AA?$CJ?$AA?5?$AA?$CG?$AA?$CG?$AA?5?$AA?$CI?$AA?$CK?$AAe?$AAn?$AAd?$AA_?$AAp?$AAo?$AAs?$AA?5?$AA?$DN@ 004968a8     LIBCMTD:woutputp.obj
 0002:00011940       ??_C@_1JC@PFJNKEIO@?$AA?$CI?$AA?$CI?$AAt?$AAy?$AAp?$AAe?$AA_?$AAp?$AAo?$AAs?$AA?5?$AA?$DO?$AA?$DN?$AA?5?$AA0?$AA?$CJ?$AA?5?$AA?$CG?$AA?$CG?$AA?5?$AA?$CI?$AA?$CK?$AAe?$AAn?$AAd?$AA_?$AAp?$AAo?$AAs?$AA?5?$AA?$DN?$AA?$DN@ 00496940     LIBCMTD:woutputp.obj
 0002:000119d4       ??_C@_1BK@GDEKGMNC@?$AA_?$AAw?$AAo?$AAu?$AAt?$AAp?$AAu?$AAt?$AA_?$AAp?$AA_?$AAl?$AA?$AA@ 004969d4     LIBCMTD:woutputp.obj
 0002:000119f0       ??_C@_07LCBHPJJN@LC_TIME?$AA@ 004969f0     LIBCMTD:setlocal.obj
 0002:000119f8       ??_C@_0L@DLHIECNL@LC_NUMERIC?$AA@ 004969f8     LIBCMTD:setlocal.obj
 0002:00011a04       ??_C@_0M@MIENIKLA@LC_MONETARY?$AA@ 00496a04     LIBCMTD:setlocal.obj
 0002:00011a10       ??_C@_08EADHIDAD@LC_CTYPE?$AA@ 00496a10     LIBCMTD:setlocal.obj
 0002:00011a1c       ??_C@_0L@KFJHEKIK@LC_COLLATE?$AA@ 00496a1c     LIBCMTD:setlocal.obj
 0002:00011a28       ??_C@_06NEFDFEKB@LC_ALL?$AA@ 00496a28     LIBCMTD:setlocal.obj
 0002:00011a30       ___lc_category             00496a30     LIBCMTD:setlocal.obj
 0002:00011af8       ??_C@_1CI@FGIONOJM@?$AA_?$AAc?$AAo?$AAn?$AAf?$AAi?$AAg?$AAt?$AAh?$AAr?$AAe?$AAa?$AAd?$AAl?$AAo?$AAc?$AAa?$AAl?$AAe?$AA?$AA@ 00496af8     LIBCMTD:setlocal.obj
 0002:00011b20       ??_C@_1GE@OLEIGPBJ@?$AAf?$AA?3?$AA?2?$AAd?$AAd?$AA?2?$AAv?$AAc?$AAt?$AAo?$AAo?$AAl?$AAs?$AA?2?$AAc?$AAr?$AAt?$AA_?$AAb?$AAl?$AAd?$AA?2?$AAs?$AAe?$AAl?$AAf?$AA_?$AAx?$AA8?$AA6?$AA?2?$AAc@ 00496b20     LIBCMTD:setlocal.obj
 0002:00011b88       ??_C@_1GA@LDEGDKD@?$AA?$CI?$AA?$CC?$AAI?$AAn?$AAv?$AAa?$AAl?$AAi?$AAd?$AA?5?$AAp?$AAa?$AAr?$AAa?$AAm?$AAe?$AAt?$AAe?$AAr?$AA?5?$AAf?$AAo?$AAr?$AA?5?$AA_?$AAc?$AAo?$AAn?$AAf?$AAi?$AAg?$AAt@ 00496b88     LIBCMTD:setlocal.obj
 0002:00011be8       ??_C@_0DC@JCPFNMID@f?3?2dd?2vctools?2crt_bld?2self_x86?2c@ 00496be8     LIBCMTD:setlocal.obj
 0002:00011c1c       ??_C@_1BE@DBJGBOJC@?$AAs?$AAe?$AAt?$AAl?$AAo?$AAc?$AAa?$AAl?$AAe?$AA?$AA@ 00496c1c     LIBCMTD:setlocal.obj
 0002:00011c30       ??_C@_1FG@OHLFEKMC@?$AAL?$AAC?$AA_?$AAM?$AAI?$AAN?$AA?5?$AA?$DM?$AA?$DN?$AA?5?$AA_?$AAc?$AAa?$AAt?$AAe?$AAg?$AAo?$AAr?$AAy?$AA?5?$AA?$CG?$AA?$CG?$AA?5?$AA_?$AAc?$AAa?$AAt?$AAe?$AAg?$AAo?$AAr?$AAy@ 00496c30     LIBCMTD:setlocal.obj
 0002:00011c88       ??_C@_1IA@PFIKKKFB@?$AAs?$AAt?$AAr?$AAn?$AAc?$AAp?$AAy?$AA_?$AAs?$AA?$CI?$AAl?$AAc?$AAt?$AAe?$AAm?$AAp?$AA?0?$AA?5?$AA?$CI?$AAs?$AAi?$AAz?$AAe?$AAo?$AAf?$AA?$CI?$AAl?$AAc?$AAt?$AAe?$AAm?$AAp@ 00496c88     LIBCMTD:setlocal.obj
 0002:00011d08       ??_C@_1CE@OFNHIOO@?$AA_?$AAs?$AAe?$AAt?$AAl?$AAo?$AAc?$AAa?$AAl?$AAe?$AA_?$AAn?$AAo?$AAl?$AAo?$AAc?$AAk?$AA?$AA@ 00496d08     LIBCMTD:setlocal.obj
 0002:00011d2c       ??_C@_01ICJEACDI@?$DL?$AA@ 00496d2c     LIBCMTD:setlocal.obj
 0002:00011d30       ??_C@_02BALPLPBG@?$DN?$DL?$AA@ 00496d30     LIBCMTD:setlocal.obj
 0002:00011d38       ??_C@_1GO@JALHLJEH@?$AAs?$AAt?$AAr?$AAc?$AAp?$AAy?$AA_?$AAs?$AA?$CI?$AAp?$AAc?$AAh?$AA?5?$AA?$CL?$AA?5?$AAs?$AAi?$AAz?$AAe?$AAo?$AAf?$AA?$CI?$AAi?$AAn?$AAt?$AA?$CJ?$AA?0?$AA?5?$AAc?$AAc?$AAh?$AA?5@ 00496d38     LIBCMTD:setlocal.obj
 0002:00011da8       ??_C@_1CG@IEFIICPK@?$AA_?$AAs?$AAe?$AAt?$AAl?$AAo?$AAc?$AAa?$AAl?$AAe?$AA_?$AAs?$AAe?$AAt?$AA_?$AAc?$AAa?$AAt?$AA?$AA@ 00496da8     LIBCMTD:setlocal.obj
 0002:00011dd0       ??_C@_1DA@GDKKLCLM@?$AAs?$AAt?$AAr?$AAc?$AAa?$AAt?$AA_?$AAs?$AA?$CI?$AAp?$AAc?$AAh?$AA?0?$AA?5?$AAc?$AAc?$AAh?$AA?0?$AA?5?$AA?$CC?$AA?$DL?$AA?$CC?$AA?$CJ?$AA?$AA@ 00496dd0     LIBCMTD:setlocal.obj
 0002:00011e00       ??_C@_1CG@NNFIJLDA@?$AA_?$AAs?$AAe?$AAt?$AAl?$AAo?$AAc?$AAa?$AAl?$AAe?$AA_?$AAg?$AAe?$AAt?$AA_?$AAa?$AAl?$AAl?$AA?$AA@ 00496e00     LIBCMTD:setlocal.obj
 0002:00011e28       ??_C@_1FA@MHAOOIBO@?$AAs?$AAt?$AAr?$AAc?$AAp?$AAy?$AA_?$AAs?$AA?$CI?$AAo?$AAu?$AAt?$AAp?$AAu?$AAt?$AA?0?$AA?5?$AAs?$AAi?$AAz?$AAe?$AAI?$AAn?$AAC?$AAh?$AAa?$AAr?$AAs?$AA?0?$AA?5?$AAc?$AAa@ 00496e28     LIBCMTD:setlocal.obj
 0002:00011e78       ??_C@_1IA@ONNFOEDA@?$AAs?$AAt?$AAr?$AAn?$AAc?$AAp?$AAy?$AA_?$AAs?$AA?$CI?$AAc?$AAa?$AAc?$AAh?$AAe?$AAi?$AAn?$AA?0?$AA?5?$AAc?$AAa?$AAc?$AAh?$AAe?$AAi?$AAn?$AAS?$AAi?$AAz?$AAe?$AA?0?$AA?5@ 00496e78     LIBCMTD:setlocal.obj
 0002:00011ef8       ??_C@_01GFHCPBMG@C?$AA@    00496ef8     LIBCMTD:setlocal.obj
 0002:00011f00       ??_C@_1EG@MOMHKOD@?$AAs?$AAt?$AAr?$AAc?$AAp?$AAy?$AA_?$AAs?$AA?$CI?$AAo?$AAu?$AAt?$AAp?$AAu?$AAt?$AA?0?$AA?5?$AAs?$AAi?$AAz?$AAe?$AAI?$AAn?$AAC?$AAh?$AAa?$AAr?$AAs?$AA?0?$AA?5?$AA?$CC?$AAC@ 00496f00     LIBCMTD:setlocal.obj
 0002:00011f48       ??_C@_1BM@OIIBLEFG@?$AA_?$AAe?$AAx?$AAp?$AAa?$AAn?$AAd?$AAl?$AAo?$AAc?$AAa?$AAl?$AAe?$AA?$AA@ 00496f48     LIBCMTD:setlocal.obj
 0002:00011f68       ??_C@_1BGM@IJDLABMC@?$AAs?$AAt?$AAr?$AAc?$AAa?$AAt?$AA_?$AAs?$AA?$CI?$AAo?$AAu?$AAt?$AAs?$AAt?$AAr?$AA?0?$AA?5?$AAs?$AAi?$AAz?$AAe?$AAI?$AAn?$AAB?$AAy?$AAt?$AAe?$AAs?$AA?0?$AA?5?$AA?$CI?$AA?5@ 00496f68     LIBCMTD:setlocal.obj
 0002:000120d4       ??_C@_1BC@PIABMDIP@?$AA_?$AAs?$AAt?$AAr?$AAc?$AAa?$AAt?$AAs?$AA?$AA@ 004970d4     LIBCMTD:setlocal.obj
 0002:000120e8       ??_C@_1MM@NOPMGFHF@?$AAs?$AAt?$AAr?$AAn?$AAc?$AAp?$AAy?$AA_?$AAs?$AA?$CI?$AAn?$AAa?$AAm?$AAe?$AAs?$AA?9?$AA?$DO?$AAs?$AAz?$AAC?$AAo?$AAd?$AAe?$AAP?$AAa?$AAg?$AAe?$AA?0?$AA?5?$AA?$CI?$AAs?$AAi@ 004970e8     LIBCMTD:setlocal.obj
 0002:000121b8       ??_C@_1MG@PHNILIAG@?$AAs?$AAt?$AAr?$AAn?$AAc?$AAp?$AAy?$AA_?$AAs?$AA?$CI?$AAn?$AAa?$AAm?$AAe?$AAs?$AA?9?$AA?$DO?$AAs?$AAz?$AAC?$AAo?$AAu?$AAn?$AAt?$AAr?$AAy?$AA?0?$AA?5?$AA?$CI?$AAs?$AAi?$AAz@ 004971b8     LIBCMTD:setlocal.obj
 0002:00012280       ??_C@_1MM@BFEECMAF@?$AAs?$AAt?$AAr?$AAn?$AAc?$AAp?$AAy?$AA_?$AAs?$AA?$CI?$AAn?$AAa?$AAm?$AAe?$AAs?$AA?9?$AA?$DO?$AAs?$AAz?$AAL?$AAa?$AAn?$AAg?$AAu?$AAa?$AAg?$AAe?$AA?0?$AA?5?$AA?$CI?$AAs?$AAi@ 00497280     LIBCMTD:setlocal.obj
 0002:0001234c       ??_C@_03EGDHDPFD@_?4?0?$AA@ 0049734c     LIBCMTD:setlocal.obj
 0002:00012350       ??_C@_1NG@FMOPGKGG@?$AAs?$AAt?$AAr?$AAn?$AAc?$AAp?$AAy?$AA_?$AAs?$AA?$CI?$AAn?$AAa?$AAm?$AAe?$AAs?$AA?9?$AA?$DO?$AAs?$AAz?$AAC?$AAo?$AAd?$AAe?$AAP?$AAa?$AAg?$AAe?$AA?0?$AA?5?$AA?$CI?$AAs?$AAi@ 00497350     LIBCMTD:setlocal.obj
 0002:00012428       ??_C@_1BK@CBMMLAGJ@?$AA_?$AA_?$AAl?$AAc?$AA_?$AAs?$AAt?$AAr?$AAt?$AAo?$AAl?$AAc?$AA?$AA@ 00497428     LIBCMTD:setlocal.obj
 0002:00012444       ??_C@_01LFCBOECM@?4?$AA@   00497444     LIBCMTD:setlocal.obj
 0002:00012448       ??_C@_01IDAFKMJL@_?$AA@    00497448     LIBCMTD:setlocal.obj
 0002:00012450       ??_C@_1HC@IBDBLKCB@?$AAs?$AAt?$AAr?$AAc?$AAp?$AAy?$AA_?$AAs?$AA?$CI?$AAl?$AAo?$AAc?$AAa?$AAl?$AAe?$AA?0?$AA?5?$AAs?$AAi?$AAz?$AAe?$AAI?$AAn?$AAB?$AAy?$AAt?$AAe?$AAs?$AA?0?$AA?5?$AA?$CI?$AAc@ 00497450     LIBCMTD:setlocal.obj
 0002:000124c4       ??_C@_1BK@FGDJDEPG@?$AA_?$AA_?$AAl?$AAc?$AA_?$AAl?$AAc?$AAt?$AAo?$AAs?$AAt?$AAr?$AA?$AA@ 004974c4     LIBCMTD:setlocal.obj
 0002:000124e0       ??_C@_1FO@IFEMNBMO@?$AAf?$AA?3?$AA?2?$AAd?$AAd?$AA?2?$AAv?$AAc?$AAt?$AAo?$AAo?$AAl?$AAs?$AA?2?$AAc?$AAr?$AAt?$AA_?$AAb?$AAl?$AAd?$AA?2?$AAs?$AAe?$AAl?$AAf?$AA_?$AAx?$AA8?$AA6?$AA?2?$AAc@ 004974e0     LIBCMTD:a_cmp.obj
 0002:00012540       ??_C@_1HK@ELDMAMK@?$AAc?$AAc?$AAh?$AAC?$AAo?$AAu?$AAn?$AAt?$AA1?$AA?$DN?$AA?$DN?$AA0?$AA?5?$AA?$CG?$AA?$CG?$AA?5?$AAc?$AAc?$AAh?$AAC?$AAo?$AAu?$AAn?$AAt?$AA2?$AA?$DN?$AA?$DN?$AA1?$AA?5?$AA?$HM?$AA?$HM?$AA?5@ 00497540     LIBCMTD:a_cmp.obj
 0002:000125bc       ??_C@_1CC@JLPHKJPH@?$AAc?$AAo?$AAu?$AAn?$AAt?$AA?5?$AA?$DM?$AA?$DN?$AA?5?$AAI?$AAN?$AAT?$AA_?$AAM?$AAA?$AAX?$AA?$AA@ 004975bc     LIBCMTD:strnicol.obj
 0002:000125e0       ??_C@_1CC@CNADELFK@?$AA_?$AAs?$AAt?$AAr?$AAi?$AAn?$AAg?$AA2?$AA?5?$AA?$CB?$AA?$DN?$AA?5?$AAN?$AAU?$AAL?$AAL?$AA?$AA@ 004975e0     LIBCMTD:strnicol.obj
 0002:00012604       ??_C@_1BK@IOJEBPLP@?$AA_?$AAs?$AAt?$AAr?$AAn?$AAi?$AAc?$AAo?$AAl?$AAl?$AA_?$AAl?$AA?$AA@ 00497604     LIBCMTD:strnicol.obj
 0002:00012620       ??_C@_1GE@BDOBNJJ@?$AAf?$AA?3?$AA?2?$AAd?$AAd?$AA?2?$AAv?$AAc?$AAt?$AAo?$AAo?$AAl?$AAs?$AA?2?$AAc?$AAr?$AAt?$AA_?$AAb?$AAl?$AAd?$AA?2?$AAs?$AAe?$AAl?$AAf?$AA_?$AAx?$AA8?$AA6?$AA?2?$AAc@ 00497620     LIBCMTD:strnicol.obj
 0002:00012684       ??_C@_1CC@ICKKAGJA@?$AA_?$AAs?$AAt?$AAr?$AAi?$AAn?$AAg?$AA1?$AA?5?$AA?$CB?$AA?$DN?$AA?5?$AAN?$AAU?$AAL?$AAL?$AA?$AA@ 00497684     LIBCMTD:strnicol.obj
 0002:000126a8       ??_C@_1FG@OKIAKKPK@?$AAs?$AAt?$AAr?$AAc?$AAp?$AAy?$AA_?$AAs?$AA?$CI?$AAn?$AAa?$AAm?$AAe?$AA?0?$AA?5?$AAs?$AAt?$AAr?$AAl?$AAe?$AAn?$AA?$CI?$AAo?$AAp?$AAt?$AAi?$AAo?$AAn?$AA?$CJ?$AA?5?$AA?$CL?$AA?5@ 004976a8     LIBCMTD:setenv.obj
 0002:00012700       ??_C@_1EI@GHDNAPMG@?$AA?$CI?$AA?$CC?$AAC?$AAR?$AAT?$AA?5?$AAL?$AAo?$AAg?$AAi?$AAc?$AA?5?$AAe?$AAr?$AAr?$AAo?$AAr?$AA?5?$AAd?$AAu?$AAr?$AAi?$AAn?$AAg?$AA?5?$AAs?$AAe?$AAt?$AAe?$AAn?$AAv?$AA?$CC@ 00497700     LIBCMTD:setenv.obj
 0002:00012748       ??_C@_0DA@NHJGCDK@f?3?2dd?2vctools?2crt_bld?2self_x86?2c@ 00497748     LIBCMTD:setenv.obj
 0002:00012778       ??_C@_1FC@EEJIEIDF@?$AA_?$AAt?$AAc?$AAs?$AAn?$AAl?$AAe?$AAn?$AA?$CI?$AAe?$AAq?$AAu?$AAa?$AAl?$AA?5?$AA?$CL?$AA?5?$AA1?$AA?0?$AA?5?$AA_?$AAM?$AAA?$AAX?$AA_?$AAE?$AAN?$AAV?$AA?$CJ?$AA?5?$AA?$DM?$AA?5@ 00497778     LIBCMTD:setenv.obj
 0002:000127cc       ??_C@_1DE@EEHFNNGH@?$AAe?$AAq?$AAu?$AAa?$AAl?$AA?5?$AA?9?$AA?5?$AAo?$AAp?$AAt?$AAi?$AAo?$AAn?$AA?5?$AA?$DM?$AA?5?$AA_?$AAM?$AAA?$AAX?$AA_?$AAE?$AAN?$AAV?$AA?$AA@ 004977cc     LIBCMTD:setenv.obj
 0002:00012800       ??_C@_1BI@CDAFOAAL@?$AA_?$AA_?$AAc?$AAr?$AAt?$AAs?$AAe?$AAt?$AAe?$AAn?$AAv?$AA?$AA@ 00497800     LIBCMTD:setenv.obj
 0002:00012818       ??_C@_1GA@KKPDKNLP@?$AAf?$AA?3?$AA?2?$AAd?$AAd?$AA?2?$AAv?$AAc?$AAt?$AAo?$AAo?$AAl?$AAs?$AA?2?$AAc?$AAr?$AAt?$AA_?$AAb?$AAl?$AAd?$AA?2?$AAs?$AAe?$AAl?$AAf?$AA_?$AAx?$AA8?$AA6?$AA?2?$AAc@ 00497818     LIBCMTD:setenv.obj
 0002:00012878       ??_C@_1CA@LMBEKBDN@?$AAp?$AAo?$AAp?$AAt?$AAi?$AAo?$AAn?$AA?5?$AA?$CB?$AA?$DN?$AA?5?$AAN?$AAU?$AAL?$AAL?$AA?$AA@ 00497878     LIBCMTD:setenv.obj
 0002:00012898       ??_C@_1FK@DNFLNPD@?$AAs?$AAt?$AAr?$AAc?$AAp?$AAy?$AA_?$AAs?$AA?$CI?$AA?$CK?$AAn?$AAe?$AAw?$AAe?$AAn?$AAv?$AAp?$AAt?$AAr?$AA?0?$AA?5?$AAe?$AAn?$AAv?$AAp?$AAt?$AAr?$AAS?$AAi?$AAz?$AAe?$AA?0@ 00497898     LIBCMTD:setenv.obj
 0002:000128f4       ??_C@_1BK@ECKIJLPM@?$AAc?$AAo?$AAp?$AAy?$AA_?$AAe?$AAn?$AAv?$AAi?$AAr?$AAo?$AAn?$AA?$AA@ 004978f4     LIBCMTD:setenv.obj
 0002:00012910       ??_C@_1BE@KHFBJMNM@?$AA_?$AAl?$AAs?$AAe?$AAe?$AAk?$AAi?$AA6?$AA4?$AA?$AA@ 00497910     LIBCMTD:lseeki64.obj
 0002:00012928       ??_C@_1GE@MINKPNPH@?$AAf?$AA?3?$AA?2?$AAd?$AAd?$AA?2?$AAv?$AAc?$AAt?$AAo?$AAo?$AAl?$AAs?$AA?2?$AAc?$AAr?$AAt?$AA_?$AAb?$AAl?$AAd?$AA?2?$AAs?$AAe?$AAl?$AAf?$AA_?$AAx?$AA8?$AA6?$AA?2?$AAc@ 00497928     LIBCMTD:lseeki64.obj
 0002:0001298c       ??_C@_0DB@JEHOCBEJ@f?3?2dd?2vctools?2crt_bld?2self_x86?2c@ 0049798c     LIBCMTD:_getbuf.obj
 0002:000129c0       ??_C@_1GC@DKMGNNCC@?$AAf?$AA?3?$AA?2?$AAd?$AAd?$AA?2?$AAv?$AAc?$AAt?$AAo?$AAo?$AAl?$AAs?$AA?2?$AAc?$AAr?$AAt?$AA_?$AAb?$AAl?$AAd?$AA?2?$AAs?$AAe?$AAl?$AAf?$AA_?$AAx?$AA8?$AA6?$AA?2?$AAc@ 004979c0     LIBCMTD:_getbuf.obj
 0002:00012a24       ??_C@_1BA@LEBDGIHM@?$AA_?$AAi?$AAs?$AAa?$AAt?$AAt?$AAy?$AA?$AA@ 00497a24     LIBCMTD:isatty.obj
 0002:00012a38       ??_C@_1GA@LPGDJDEN@?$AAf?$AA?3?$AA?2?$AAd?$AAd?$AA?2?$AAv?$AAc?$AAt?$AAo?$AAo?$AAl?$AAs?$AA?2?$AAc?$AAr?$AAt?$AA_?$AAb?$AAl?$AAd?$AA?2?$AAs?$AAe?$AAl?$AAf?$AA_?$AAx?$AA8?$AA6?$AA?2?$AAc@ 00497a38     LIBCMTD:isatty.obj
 0002:00012a98       ??_C@_1O@GKDHFACN@?$AAp?$AAr?$AAi?$AAn?$AAt?$AAf?$AA?$AA@ 00497a98     LIBCMTD:printf.obj
 0002:00012aa8       ??_C@_1GA@LHEGHOAF@?$AAf?$AA?3?$AA?2?$AAd?$AAd?$AA?2?$AAv?$AAc?$AAt?$AAo?$AAo?$AAl?$AAs?$AA?2?$AAc?$AAr?$AAt?$AA_?$AAb?$AAl?$AAd?$AA?2?$AAs?$AAe?$AAl?$AAf?$AA_?$AAx?$AA8?$AA6?$AA?2?$AAc@ 00497aa8     LIBCMTD:printf.obj
 0002:00012b08       ??_C@_1CA@CBMNPEO@?$AAs?$AAi?$AAz?$AAe?$AAI?$AAn?$AAB?$AAy?$AAt?$AAe?$AAs?$AA?5?$AA?$DO?$AA?5?$AA0?$AA?$AA@ 00497b08     LIBCMTD:wctomb.obj
 0002:00012b28       ??_C@_1BI@IEADNOHF@?$AA_?$AAw?$AAc?$AAt?$AAo?$AAm?$AAb?$AA_?$AAs?$AA_?$AAl?$AA?$AA@ 00497b28     LIBCMTD:wctomb.obj
 0002:00012b40       ??_C@_1GA@LDLHPOO@?$AAf?$AA?3?$AA?2?$AAd?$AAd?$AA?2?$AAv?$AAc?$AAt?$AAo?$AAo?$AAl?$AAs?$AA?2?$AAc?$AAr?$AAt?$AA_?$AAb?$AAl?$AAd?$AA?2?$AAs?$AAe?$AAl?$AAf?$AA_?$AAx?$AA8?$AA6?$AA?2?$AAc@ 00497b40     LIBCMTD:wctomb.obj
 0002:00012ba0       ??_C@_1CO@HFMIILNF@?$AAs?$AAi?$AAz?$AAe?$AAI?$AAn?$AAB?$AAy?$AAt?$AAe?$AAs?$AA?5?$AA?$DM?$AA?$DN?$AA?5?$AAI?$AAN?$AAT?$AA_?$AAM?$AAA?$AAX?$AA?$AA@ 00497ba0     LIBCMTD:wctomb.obj
 0002:00012bd0       ??_C@_0DB@KIKNCIEC@f?3?2dd?2vctools?2crt_bld?2self_x86?2c@ 00497bd0     LIBCMTD:osfinfo.obj
 0002:00012c04       ??_C@_1BO@EMBOBGKE@?$AA_?$AAg?$AAe?$AAt?$AA_?$AAo?$AAs?$AAf?$AAh?$AAa?$AAn?$AAd?$AAl?$AAe?$AA?$AA@ 00497c04     LIBCMTD:osfinfo.obj
 0002:00012c28       ??_C@_1GC@MLKLDJJG@?$AAf?$AA?3?$AA?2?$AAd?$AAd?$AA?2?$AAv?$AAc?$AAt?$AAo?$AAo?$AAl?$AAs?$AA?2?$AAc?$AAr?$AAt?$AA_?$AAb?$AAl?$AAd?$AA?2?$AAs?$AAe?$AAl?$AAf?$AA_?$AAx?$AA8?$AA6?$AA?2?$AAc@ 00497c28     LIBCMTD:osfinfo.obj
 0002:00012c90       ??_C@_1GA@GFFDGGFH@?$AAf?$AA?3?$AA?2?$AAd?$AAd?$AA?2?$AAv?$AAc?$AAt?$AAo?$AAo?$AAl?$AAs?$AA?2?$AAc?$AAr?$AAt?$AA_?$AAb?$AAl?$AAd?$AA?2?$AAs?$AAe?$AAl?$AAf?$AA_?$AAx?$AA8?$AA6?$AA?2?$AAc@ 00497c90     LIBCMTD:mbtowc.obj
 0002:00012cf0       ??_C@_1NC@EINCOKCO@?$AA_?$AAl?$AAo?$AAc?$AA_?$AAu?$AAp?$AAd?$AAa?$AAt?$AAe?$AA?4?$AAG?$AAe?$AAt?$AAL?$AAo?$AAc?$AAa?$AAl?$AAe?$AAT?$AA?$CI?$AA?$CJ?$AA?9?$AA?$DO?$AAl?$AAo?$AAc?$AAi?$AAn?$AAf@ 00497cf0     LIBCMTD:mbtowc.obj
 0002:00012dc8       ___lookuptable_s           00497dc8     LIBCMTD:outputs.obj
 0002:00012e24       ??_C@_1BI@COFBLHCG@?$AA_?$AAo?$AAu?$AAt?$AAp?$AAu?$AAt?$AA_?$AAs?$AA_?$AAl?$AA?$AA@ 00497e24     LIBCMTD:outputs.obj
 0002:00012e40       ??_C@_1IK@MHEDJAMK@?$AA_?$AAt?$AAv?$AAa?$AAl?$AAi?$AAd?$AAa?$AAt?$AAe?$AA_?$AAp?$AAa?$AAr?$AAa?$AAm?$AA_?$AAr?$AAe?$AAu?$AAs?$AAe?$AA?$CI?$AA?$CG?$AAp?$AAo?$AAs?$AA_?$AAv?$AAa?$AAl?$AAu@ 00497e40     LIBCMTD:outputp.obj
 0002:00012ecc       ??_C@_1BI@KANOLAMF@?$AA_?$AAo?$AAu?$AAt?$AAp?$AAu?$AAt?$AA_?$AAp?$AA_?$AAl?$AA?$AA@ 00497ecc     LIBCMTD:outputp.obj
 0002:00012ee4       ??_C@_1O@EGMJNCOI@?$AAf?$AAc?$AAl?$AAo?$AAs?$AAe?$AA?$AA@ 00497ee4     LIBCMTD:fclose.obj
 0002:00012ef8       ??_C@_1GA@KMIDAPAP@?$AAf?$AA?3?$AA?2?$AAd?$AAd?$AA?2?$AAv?$AAc?$AAt?$AAo?$AAo?$AAl?$AAs?$AA?2?$AAc?$AAr?$AAt?$AA_?$AAb?$AAl?$AAd?$AA?2?$AAs?$AAe?$AAl?$AAf?$AA_?$AAx?$AA8?$AA6?$AA?2?$AAc@ 00497ef8     LIBCMTD:fclose.obj
 0002:00012f58       ??_C@_1BO@JINCABEC@?$AA_?$AAf?$AAc?$AAl?$AAo?$AAs?$AAe?$AA_?$AAn?$AAo?$AAl?$AAo?$AAc?$AAk?$AA?$AA@ 00497f58     LIBCMTD:fclose.obj
 0002:00012f78       ??_C@_1CG@JEHFHLNG@?$AA_?$AAm?$AAb?$AAs?$AAt?$AAo?$AAw?$AAc?$AAs?$AA_?$AAl?$AA_?$AAh?$AAe?$AAl?$AAp?$AAe?$AAr?$AA?$AA@ 00497f78     LIBCMTD:mbstowcs.obj
 0002:00012fa0       ??_C@_1GE@LCCDHBMH@?$AAf?$AA?3?$AA?2?$AAd?$AAd?$AA?2?$AAv?$AAc?$AAt?$AAo?$AAo?$AAl?$AAs?$AA?2?$AAc?$AAr?$AAt?$AA_?$AAb?$AAl?$AAd?$AA?2?$AAs?$AAe?$AAl?$AAf?$AA_?$AAx?$AA8?$AA6?$AA?2?$AAc@ 00497fa0     LIBCMTD:mbstowcs.obj
 0002:00013004       ??_C@_1BE@EEKACIGI@?$AAs?$AA?5?$AA?$CB?$AA?$DN?$AA?5?$AAN?$AAU?$AAL?$AAL?$AA?$AA@ 00498004     LIBCMTD:mbstowcs.obj
 0002:00013018       ??_C@_1CO@JNPEPJAL@?$AAr?$AAe?$AAt?$AAs?$AAi?$AAz?$AAe?$AA?5?$AA?$DM?$AA?$DN?$AA?5?$AAs?$AAi?$AAz?$AAe?$AAI?$AAn?$AAW?$AAo?$AAr?$AAd?$AAs?$AA?$AA@ 00498018     LIBCMTD:mbstowcs.obj
 0002:00013048       ??_C@_1CM@LLECFMFH@?$AAb?$AAu?$AAf?$AAf?$AAe?$AAr?$AAS?$AAi?$AAz?$AAe?$AA?5?$AA?$DM?$AA?$DN?$AA?5?$AAI?$AAN?$AAT?$AA_?$AAM?$AAA?$AAX?$AA?$AA@ 00498048     LIBCMTD:mbstowcs.obj
 0002:00013074       ??_C@_1BM@PHENIGHD@?$AA_?$AAm?$AAb?$AAs?$AAt?$AAo?$AAw?$AAc?$AAs?$AA_?$AAs?$AA_?$AAl?$AA?$AA@ 00498074     LIBCMTD:mbstowcs.obj
 0002:00013090       ??_C@_1JA@JKDFMOPO@?$AA?$CI?$AAp?$AAw?$AAc?$AAs?$AA?5?$AA?$DN?$AA?$DN?$AA?5?$AAN?$AAU?$AAL?$AAL?$AA?5?$AA?$CG?$AA?$CG?$AA?5?$AAs?$AAi?$AAz?$AAe?$AAI?$AAn?$AAW?$AAo?$AAr?$AAd?$AAs?$AA?5?$AA?$DN?$AA?$DN?$AA?5@ 00498090     LIBCMTD:mbstowcs.obj
 0002:00013120       ??_C@_1BC@HGPNAKGC@?$AAs?$AAt?$AAr?$AAc?$AAa?$AAt?$AA_?$AAs?$AA?$AA@ 00498120     LIBCMTD:strcat_s.obj
 0002:00013134       ??_C@_1CE@PCFPEIFI@?$AA_?$AAv?$AAs?$AAn?$AAp?$AAr?$AAi?$AAn?$AAt?$AAf?$AA_?$AAh?$AAe?$AAl?$AAp?$AAe?$AAr?$AA?$AA@ 00498134     LIBCMTD:vsnprnc.obj
 0002:00013158       ??_C@_1EE@OKCKIGFK@?$AAs?$AAt?$AAr?$AAi?$AAn?$AAg?$AA?5?$AA?$CB?$AA?$DN?$AA?5?$AAN?$AAU?$AAL?$AAL?$AA?5?$AA?$CG?$AA?$CG?$AA?5?$AAs?$AAi?$AAz?$AAe?$AAI?$AAn?$AAB?$AAy?$AAt?$AAe?$AAs?$AA?5?$AA?$DO?$AA?5@ 00498158     LIBCMTD:vsnprnc.obj
 0002:0001319c       ??_C@_1BM@BLJALHEF@?$AA_?$AAv?$AAs?$AAp?$AAr?$AAi?$AAn?$AAt?$AAf?$AA_?$AAs?$AA_?$AAl?$AA?$AA@ 0049819c     LIBCMTD:vsnprnc.obj
 0002:000131b8       ??_C@_1BO@MMPELNIM@?$AA_?$AAv?$AAs?$AAn?$AAp?$AAr?$AAi?$AAn?$AAt?$AAf?$AA_?$AAs?$AA_?$AAl?$AA?$AA@ 004981b8     LIBCMTD:vsnprnc.obj
 0002:000131d8       ??_C@_1O@GIMBNLEI@?$AAx?$AAt?$AAo?$AAa?$AA_?$AAs?$AA?$AA@ 004981d8     LIBCMTD:xtoas.obj
 0002:000131e8       ??_C@_1BC@MJJNBNFN@?$AAx?$AA6?$AA4?$AAt?$AAo?$AAa?$AA_?$AAs?$AA?$AA@ 004981e8     LIBCMTD:xtoas.obj
 0002:000131fc       ??_C@_1CG@LLJCAOHF@?$AA_?$AAw?$AAc?$AAs?$AAt?$AAo?$AAm?$AAb?$AAs?$AA_?$AAl?$AA_?$AAh?$AAe?$AAl?$AAp?$AAe?$AAr?$AA?$AA@ 004981fc     LIBCMTD:wcstombs.obj
 0002:00013228       ??_C@_1GE@OAENIBOD@?$AAf?$AA?3?$AA?2?$AAd?$AAd?$AA?2?$AAv?$AAc?$AAt?$AAo?$AAo?$AAl?$AAs?$AA?2?$AAc?$AAr?$AAt?$AA_?$AAb?$AAl?$AAd?$AA?2?$AAs?$AAe?$AAl?$AAf?$AA_?$AAx?$AA8?$AA6?$AA?2?$AAc@ 00498228     LIBCMTD:wcstombs.obj
 0002:0001328c       ??_C@_1BK@OIBENBPM@?$AAp?$AAw?$AAc?$AAs?$AA?5?$AA?$CB?$AA?$DN?$AA?5?$AAN?$AAU?$AAL?$AAL?$AA?$AA@ 0049828c     LIBCMTD:wcstombs.obj
 0002:000132a8       ??_C@_1CM@KEOGBFLI@?$AAs?$AAi?$AAz?$AAe?$AAI?$AAn?$AAB?$AAy?$AAt?$AAe?$AAs?$AA?5?$AA?$DO?$AA?5?$AAr?$AAe?$AAt?$AAs?$AAi?$AAz?$AAe?$AA?$AA@ 004982a8     LIBCMTD:wcstombs.obj
 0002:000132d4       ??_C@_1BM@BDMCLLDL@?$AA_?$AAw?$AAc?$AAs?$AAt?$AAo?$AAm?$AAb?$AAs?$AA_?$AAs?$AA_?$AAl?$AA?$AA@ 004982d4     LIBCMTD:wcstombs.obj
 0002:000132f0       ??_C@_1IM@MFGKHGBP@?$AA?$CI?$AAd?$AAs?$AAt?$AA?5?$AA?$CB?$AA?$DN?$AA?5?$AAN?$AAU?$AAL?$AAL?$AA?5?$AA?$CG?$AA?$CG?$AA?5?$AAs?$AAi?$AAz?$AAe?$AAI?$AAn?$AAB?$AAy?$AAt?$AAe?$AAs?$AA?5?$AA?$DO?$AA?5?$AA0?$AA?$CJ@ 004982f0     LIBCMTD:wcstombs.obj
 0002:0001337c       ??_C@_1BK@EPLNBKAK@?$AA_?$AAv?$AAs?$AAw?$AAp?$AAr?$AAi?$AAn?$AAt?$AAf?$AA_?$AAl?$AA?$AA@ 0049837c     LIBCMTD:vswprint.obj
 0002:00013398       ??_C@_1CG@IMMIEPNA@?$AA_?$AAv?$AAs?$AAc?$AAw?$AAp?$AAr?$AAi?$AAn?$AAt?$AAf?$AA_?$AAh?$AAe?$AAl?$AAp?$AAe?$AAr?$AA?$AA@ 00498398     LIBCMTD:vswprint.obj
 0002:000133c0       ??_C@_1GE@GJCMHHMH@?$AAf?$AA?3?$AA?2?$AAd?$AAd?$AA?2?$AAv?$AAc?$AAt?$AAo?$AAo?$AAl?$AAs?$AA?2?$AAc?$AAr?$AAt?$AA_?$AAb?$AAl?$AAd?$AA?2?$AAs?$AAe?$AAl?$AAf?$AA_?$AAx?$AA8?$AA6?$AA?2?$AAc@ 004983c0     LIBCMTD:inittime.obj
 0002:00013428       ??_C@_1EE@FDHCFDHN@?$AAp?$AAl?$AAo?$AAc?$AAi?$AA?9?$AA?$DO?$AAl?$AAc?$AA_?$AAt?$AAi?$AAm?$AAe?$AA_?$AAc?$AAu?$AAr?$AAr?$AA?9?$AA?$DO?$AAr?$AAe?$AAf?$AAc?$AAo?$AAu?$AAn?$AAt?$AA?5?$AA?$DO?$AA?5@ 00498428     LIBCMTD:inittime.obj
 0002:0001346c       ??_C@_0DC@KICHHNFK@f?3?2dd?2vctools?2crt_bld?2self_x86?2c@ 0049846c     LIBCMTD:inittime.obj
 0002:000134a0       ??_C@_1GC@EDJOCBCL@?$AAf?$AA?3?$AA?2?$AAd?$AAd?$AA?2?$AAv?$AAc?$AAt?$AAo?$AAo?$AAl?$AAs?$AA?2?$AAc?$AAr?$AAt?$AA_?$AAb?$AAl?$AAd?$AA?2?$AAs?$AAe?$AAl?$AAf?$AA_?$AAx?$AA8?$AA6?$AA?2?$AAc@ 004984a0     LIBCMTD:initnum.obj
 0002:00013504       ??_C@_1DM@IFKAINNE@?$AAp?$AAl?$AAo?$AAc?$AAi?$AA?9?$AA?$DO?$AAl?$AAc?$AAo?$AAn?$AAv?$AA_?$AAn?$AAu?$AAm?$AA_?$AAr?$AAe?$AAf?$AAc?$AAo?$AAu?$AAn?$AAt?$AA?5?$AA?$DO?$AA?5?$AA0?$AA?$AA@ 00498504     LIBCMTD:initnum.obj
 0002:00013540       ??_C@_0DB@KKFMDHFI@f?3?2dd?2vctools?2crt_bld?2self_x86?2c@ 00498540     LIBCMTD:initnum.obj
 0002:00013578       ??_C@_1GC@IKADOFBJ@?$AAf?$AA?3?$AA?2?$AAd?$AAd?$AA?2?$AAv?$AAc?$AAt?$AAo?$AAo?$AAl?$AAs?$AA?2?$AAc?$AAr?$AAt?$AA_?$AAb?$AAl?$AAd?$AA?2?$AAs?$AAe?$AAl?$AAf?$AA_?$AAx?$AA8?$AA6?$AA?2?$AAc@ 00498578     LIBCMTD:initmon.obj
 0002:000135dc       ??_C@_1DM@GKAPAMDO@?$AAp?$AAl?$AAo?$AAc?$AAi?$AA?9?$AA?$DO?$AAl?$AAc?$AAo?$AAn?$AAv?$AA_?$AAm?$AAo?$AAn?$AA_?$AAr?$AAe?$AAf?$AAc?$AAo?$AAu?$AAn?$AAt?$AA?5?$AA?$DO?$AA?5?$AA0?$AA?$AA@ 004985dc     LIBCMTD:initmon.obj
 0002:00013618       ??_C@_0DB@BECNGFDL@f?3?2dd?2vctools?2crt_bld?2self_x86?2c@ 00498618     LIBCMTD:initmon.obj
 0002:00013650       ___newctype                00498650     LIBCMTD:ctype.obj
 0002:00013950       __wctype                   00498950     LIBCMTD:ctype.obj
 0002:00013b58       ___newclmap                00498b58     LIBCMTD:ctype.obj
 0002:00013cd8       ___newcumap                00498cd8     LIBCMTD:ctype.obj
 0002:00013e58       ??_C@_0BK@CIDNPOGP@GetUserObjectInformationA?$AA@ 00498e58     LIBCMTD:crtmbox.obj
 0002:00013e74       ??_C@_0M@CHKKJDAI@MessageBoxA?$AA@ 00498e74     LIBCMTD:crtmbox.obj
 0002:00013e80       ??_C@_1BI@IGILPKD@?$AA_?$AAv?$AAs?$AAp?$AAr?$AAi?$AAn?$AAt?$AAf?$AA_?$AAl?$AA?$AA@ 00498e80     LIBCMTD:vsprintf.obj
 0002:00013e98       ??_C@_1CE@HMKDJHB@?$AA_?$AAv?$AAs?$AAc?$AAp?$AAr?$AAi?$AAn?$AAt?$AAf?$AA_?$AAh?$AAe?$AAl?$AAp?$AAe?$AAr?$AA?$AA@ 00498e98     LIBCMTD:vsprintf.obj
 0002:00013ebc       ??_C@_1O@HJNPHHHB@?$AAf?$AAp?$AAu?$AAt?$AAw?$AAc?$AA?$AA@ 00498ebc     LIBCMTD:fputwc.obj
 0002:00013ed0       ??_C@_1GA@BJIGKGEA@?$AAf?$AA?3?$AA?2?$AAd?$AAd?$AA?2?$AAv?$AAc?$AAt?$AAo?$AAo?$AAl?$AAs?$AA?2?$AAc?$AAr?$AAt?$AA_?$AAb?$AAl?$AAd?$AA?2?$AAs?$AAe?$AAl?$AAf?$AA_?$AAx?$AA8?$AA6?$AA?2?$AAc@ 00498ed0     LIBCMTD:fputwc.obj
 0002:00013f30       ??_C@_1BA@PCFLFGNC@?$AAw?$AAc?$AAs?$AAt?$AAo?$AAx?$AAl?$AA?$AA@ 00498f30     LIBCMTD:wcstol.obj
 0002:00013f40       ??_C@_1GA@CADFOND@?$AAf?$AA?3?$AA?2?$AAd?$AAd?$AA?2?$AAv?$AAc?$AAt?$AAo?$AAo?$AAl?$AAs?$AA?2?$AAc?$AAr?$AAt?$AA_?$AAb?$AAl?$AAd?$AA?2?$AAs?$AAe?$AAl?$AAf?$AA_?$AAx?$AA8?$AA6?$AA?2?$AAc@ 00498f40     LIBCMTD:wcstol.obj
 0002:00013fa0       ??_C@_1DG@NMBGBDM@?$AAp?$AAl?$AAo?$AAc?$AAi?$AA?9?$AA?$DO?$AAc?$AAt?$AAy?$AAp?$AAe?$AA1?$AA_?$AAr?$AAe?$AAf?$AAc?$AAo?$AAu?$AAn?$AAt?$AA?5?$AA?$DO?$AA?5?$AA0?$AA?$AA@ 00498fa0     LIBCMTD:initctyp.obj
 0002:00013fd8       ??_C@_1GE@OCPKBDKE@?$AAf?$AA?3?$AA?2?$AAd?$AAd?$AA?2?$AAv?$AAc?$AAt?$AAo?$AAo?$AAl?$AAs?$AA?2?$AAc?$AAr?$AAt?$AA_?$AAb?$AAl?$AAd?$AA?2?$AAs?$AAe?$AAl?$AAf?$AA_?$AAx?$AA8?$AA6?$AA?2?$AAc@ 00498fd8     LIBCMTD:initctyp.obj
 0002:0001403c       ??_C@_0DC@EHLBFILA@f?3?2dd?2vctools?2crt_bld?2self_x86?2c@ 0049903c     LIBCMTD:initctyp.obj
 0002:00014070       ??_C@_0O@FMJNFNKE@united?9states?$AA@ 00499070     LIBCMTD:getqloc.obj
 0002:00014080       ??_C@_0P@NDHFFKCA@united?9kingdom?$AA@ 00499080     LIBCMTD:getqloc.obj
 0002:00014090       ??_C@_0BC@HHDADLGF@trinidad?5?$CG?5tobago?$AA@ 00499090     LIBCMTD:getqloc.obj
 0002:000140a4       ??_C@_0M@IOAEBDAC@south?9korea?$AA@ 004990a4     LIBCMTD:getqloc.obj
 0002:000140b0       ??_C@_0N@FIELFKIJ@south?9africa?$AA@ 004990b0     LIBCMTD:getqloc.obj
 0002:000140c0       ??_C@_0M@OPNDHCMC@south?5korea?$AA@ 004990c0     LIBCMTD:getqloc.obj
 0002:000140cc       ??_C@_0N@MDEOEPFI@south?5africa?$AA@ 004990cc     LIBCMTD:getqloc.obj
 0002:000140dc       ??_C@_06FKAPCJLB@slovak?$AA@ 004990dc     LIBCMTD:getqloc.obj
 0002:000140e4       ??_C@_0M@EFJANOAL@puerto?9rico?$AA@ 004990e4     LIBCMTD:getqloc.obj
 0002:000140f0       ??_C@_08PGOJKDAI@pr?9china?$AA@ 004990f0     LIBCMTD:getqloc.obj
 0002:000140fc       ??_C@_08JHDOMCMI@pr?5china?$AA@ 004990fc     LIBCMTD:getqloc.obj
 0002:00014108       ??_C@_02JHCHFBLL@nz?$AA@   00499108     LIBCMTD:getqloc.obj
 0002:0001410c       ??_C@_0M@LINHDHKP@new?9zealand?$AA@ 0049910c     LIBCMTD:getqloc.obj
 0002:00014118       ??_C@_09IIIPPBDB@hong?9kong?$AA@ 00499118     LIBCMTD:getqloc.obj
 0002:00014124       ??_C@_07HJLCKBG@holland?$AA@ 00499124     LIBCMTD:getqloc.obj
 0002:0001412c       ??_C@_0O@LEHGMHAG@great?5britain?$AA@ 0049912c     LIBCMTD:getqloc.obj
 0002:0001413c       ??_C@_07FACOMELA@england?$AA@ 0049913c     LIBCMTD:getqloc.obj
 0002:00014144       ??_C@_05JIHCEICB@czech?$AA@ 00499144     LIBCMTD:getqloc.obj
 0002:0001414c       ??_C@_05BBJOBLGB@china?$AA@ 0049914c     LIBCMTD:getqloc.obj
 0002:00014154       ??_C@_07GPKPHICP@britain?$AA@ 00499154     LIBCMTD:getqloc.obj
 0002:0001415c       ??_C@_07MHIPBHMG@america?$AA@ 0049915c     LIBCMTD:getqloc.obj
 0002:00014164       ??_C@_03KIALPMKC@usa?$AA@  00499164     LIBCMTD:getqloc.obj
 0002:00014168       ??_C@_02FGJGKGGD@us?$AA@   00499168     LIBCMTD:getqloc.obj
 0002:0001416c       ??_C@_02NEINDODK@uk?$AA@   0049916c     LIBCMTD:getqloc.obj
 0002:00014170       ??_C@_05JMPCFJFJ@swiss?$AA@ 00499170     LIBCMTD:getqloc.obj
 0002:00014178       ??_C@_0BA@HLOCPIOD@swedish?9finland?$AA@ 00499178     LIBCMTD:getqloc.obj
 0002:00014188       ??_C@_0BC@PKCNIABK@spanish?9venezuela?$AA@ 00499188     LIBCMTD:getqloc.obj
 0002:0001419c       ??_C@_0BA@GBHHMIJI@spanish?9uruguay?$AA@ 0049919c     LIBCMTD:getqloc.obj
 0002:000141ac       ??_C@_0BE@BHDOHPMC@spanish?9puerto?5rico?$AA@ 004991ac     LIBCMTD:getqloc.obj
 0002:000141c0       ??_C@_0N@KMOIDGGN@spanish?9peru?$AA@ 004991c0     LIBCMTD:getqloc.obj
 0002:000141d0       ??_C@_0BB@HMHLPGPH@spanish?9paraguay?$AA@ 004991d0     LIBCMTD:getqloc.obj
 0002:000141e4       ??_C@_0P@MCPKNGFD@spanish?9panama?$AA@ 004991e4     LIBCMTD:getqloc.obj
 0002:000141f4       ??_C@_0BC@IHOHGAIL@spanish?9nicaragua?$AA@ 004991f4     LIBCMTD:getqloc.obj
 0002:00014208       ??_C@_0P@KLMJDNFJ@spanish?9modern?$AA@ 00499208     LIBCMTD:getqloc.obj
 0002:00014218       ??_C@_0BA@BPAPGBCM@spanish?9mexican?$AA@ 00499218     LIBCMTD:getqloc.obj
 0002:00014228       ??_C@_0BB@PDECHHHE@spanish?9honduras?$AA@ 00499228     LIBCMTD:getqloc.obj
 0002:0001423c       ??_C@_0BC@KLHKFGDB@spanish?9guatemala?$AA@ 0049923c     LIBCMTD:getqloc.obj
 0002:00014250       ??_C@_0BE@MFOOKJAI@spanish?9el?5salvador?$AA@ 00499250     LIBCMTD:getqloc.obj
 0002:00014264       ??_C@_0BA@FCOKFPFC@spanish?9ecuador?$AA@ 00499264     LIBCMTD:getqloc.obj
 0002:00014274       ??_C@_0BL@PLMGIMOO@spanish?9dominican?5republic?$AA@ 00499274     LIBCMTD:getqloc.obj
 0002:00014290       ??_C@_0BD@HLGDNMHB@spanish?9costa?5rica?$AA@ 00499290     LIBCMTD:getqloc.obj
 0002:000142a4       ??_C@_0BB@PKCBKCPE@spanish?9colombia?$AA@ 004992a4     LIBCMTD:getqloc.obj
 0002:000142b8       ??_C@_0O@MCBIJGNE@spanish?9chile?$AA@ 004992b8     LIBCMTD:getqloc.obj
 0002:000142c8       ??_C@_0BA@BEFEIGJJ@spanish?9bolivia?$AA@ 004992c8     LIBCMTD:getqloc.obj
 0002:000142d8       ??_C@_0BC@EMECMPD@spanish?9argentina?$AA@ 004992d8     LIBCMTD:getqloc.obj
 0002:000142ec       ??_C@_0BF@EALFLENP@portuguese?9brazilian?$AA@ 004992ec     LIBCMTD:getqloc.obj
 0002:00014304       ??_C@_0BC@HBLEBLNN@norwegian?9nynorsk?$AA@ 00499304     LIBCMTD:getqloc.obj
 0002:00014318       ??_C@_0BB@HMACDDCK@norwegian?9bokmal?$AA@ 00499318     LIBCMTD:getqloc.obj
 0002:0001432c       ??_C@_09BAFFPPHE@norwegian?$AA@ 0049932c     LIBCMTD:getqloc.obj
 0002:00014338       ??_C@_0O@EAJFJDFG@italian?9swiss?$AA@ 00499338     LIBCMTD:getqloc.obj
 0002:00014348       ??_C@_0O@CNOMPGD@irish?9english?$AA@ 00499348     LIBCMTD:getqloc.obj
 0002:00014358       ??_C@_0N@EDHBGCKG@german?9swiss?$AA@ 00499358     LIBCMTD:getqloc.obj
 0002:00014368       ??_C@_0BC@JACMHNBP@german?9luxembourg?$AA@ 00499368     LIBCMTD:getqloc.obj
 0002:0001437c       ??_C@_0BE@HBGMGFEG@german?9lichtenstein?$AA@ 0049937c     LIBCMTD:getqloc.obj
 0002:00014390       ??_C@_0BA@HKKBIBKL@german?9austrian?$AA@ 00499390     LIBCMTD:getqloc.obj
 0002:000143a0       ??_C@_0N@GCAEPEBK@french?9swiss?$AA@ 004993a0     LIBCMTD:getqloc.obj
 0002:000143b0       ??_C@_0BC@DJFJJCK@french?9luxembourg?$AA@ 004993b0     LIBCMTD:getqloc.obj
 0002:000143c4       ??_C@_0BA@NNCEDFIC@french?9canadian?$AA@ 004993c4     LIBCMTD:getqloc.obj
 0002:000143d4       ??_C@_0P@CMPOCLM@french?9belgian?$AA@ 004993d4     LIBCMTD:getqloc.obj
 0002:000143e4       ??_C@_0M@GHHDJOK@english?9usa?$AA@ 004993e4     LIBCMTD:getqloc.obj
 0002:000143f0       ??_C@_0L@PLDJKEIL@english?9us?$AA@ 004993f0     LIBCMTD:getqloc.obj
 0002:000143fc       ??_C@_0L@HJCCDMNC@english?9uk?$AA@ 004993fc     LIBCMTD:getqloc.obj
 0002:00014408       ??_C@_0BK@CKLIAGJB@english?9trinidad?5y?5tobago?$AA@ 00499408     LIBCMTD:getqloc.obj
 0002:00014424       ??_C@_0BF@JMJMGNNF@english?9south?5africa?$AA@ 00499424     LIBCMTD:getqloc.obj
 0002:0001443c       ??_C@_0L@DKIIFDFD@english?9nz?$AA@ 0049943c     LIBCMTD:getqloc.obj
 0002:00014448       ??_C@_0BA@ONHGJCLH@english?9jamaica?$AA@ 00499448     LIBCMTD:getqloc.obj
 0002:00014458       ??_C@_0M@HJBGHOPO@english?9ire?$AA@ 00499458     LIBCMTD:getqloc.obj
 0002:00014464       ??_C@_0BC@LFEKMIFB@english?9caribbean?$AA@ 00499464     LIBCMTD:getqloc.obj
 0002:00014478       ??_C@_0M@OLDPFKHI@english?9can?$AA@ 00499478     LIBCMTD:getqloc.obj
 0002:00014484       ??_C@_0P@OMDEHBMP@english?9belize?$AA@ 00499484     LIBCMTD:getqloc.obj
 0002:00014494       ??_C@_0M@KFHFPFED@english?9aus?$AA@ 00499494     LIBCMTD:getqloc.obj
 0002:000144a0       ??_C@_0BB@MNMBKDFE@english?9american?$AA@ 004994a0     LIBCMTD:getqloc.obj
 0002:000144b4       ??_C@_0O@KIDLNNBA@dutch?9belgian?$AA@ 004994b4     LIBCMTD:getqloc.obj
 0002:000144c4       ??_C@_0BE@JBKABBMH@chinese?9traditional?$AA@ 004994c4     LIBCMTD:getqloc.obj
 0002:000144d8       ??_C@_0BC@MJJMPKCG@chinese?9singapore?$AA@ 004994d8     LIBCMTD:getqloc.obj
 0002:000144ec       ??_C@_0BD@FDKADDCP@chinese?9simplified?$AA@ 004994ec     LIBCMTD:getqloc.obj
 0002:00014500       ??_C@_0BB@DBEFDDME@chinese?9hongkong?$AA@ 00499500     LIBCMTD:getqloc.obj
 0002:00014514       ??_C@_07DHNMFMCI@chinese?$AA@ 00499514     LIBCMTD:getqloc.obj
 0002:0001451c       ??_C@_03FNDDCHI@chi?$AA@   0049951c     LIBCMTD:getqloc.obj
 0002:00014520       ??_C@_03BMMIADDJ@chh?$AA@  00499520     LIBCMTD:getqloc.obj
 0002:00014524       ??_C@_08OAIPJDGI@canadian?$AA@ 00499524     LIBCMTD:getqloc.obj
 0002:00014530       ??_C@_07HBPMNPNJ@belgian?$AA@ 00499530     LIBCMTD:getqloc.obj
 0002:00014538       ??_C@_0L@OEKOPBEL@australian?$AA@ 00499538     LIBCMTD:getqloc.obj
 0002:00014544       ??_C@_0BB@MEIMBEDG@american?9english?$AA@ 00499544     LIBCMTD:getqloc.obj
 0002:00014558       ??_C@_0BB@DFMDPDGB@american?5english?$AA@ 00499558     LIBCMTD:getqloc.obj
 0002:0001456c       ??_C@_08IJLOKOLL@american?$AA@ 0049956c     LIBCMTD:getqloc.obj
 0002:00014578       ___rg_language             00499578     LIBCMTD:getqloc.obj
 0002:00014780       ___rg_country              00499780     LIBCMTD:getqloc.obj
 0002:00014838       ___rglangidNotDefault      00499838     LIBCMTD:getqloc.obj
 0002:0001484c       ??_C@_0BC@NFIEMBLL@Norwegian?9Nynorsk?$AA@ 0049984c     LIBCMTD:getqloc.obj
 0002:00014860       ??_C@_1OM@OECHDGCF@?$AAs?$AAt?$AAr?$AAc?$AAp?$AAy?$AA_?$AAs?$AA?$CI?$AAl?$AAp?$AAO?$AAu?$AAt?$AAS?$AAt?$AAr?$AA?9?$AA?$DO?$AAs?$AAz?$AAL?$AAa?$AAn?$AAg?$AAu?$AAa?$AAg?$AAe?$AA?0?$AA?5?$AA?$CI@ 00499860     LIBCMTD:getqloc.obj
 0002:0001494c       ??_C@_1CO@NJACLALJ@?$AA_?$AA_?$AAg?$AAe?$AAt?$AA_?$AAq?$AAu?$AAa?$AAl?$AAi?$AAf?$AAi?$AAe?$AAd?$AA_?$AAl?$AAo?$AAc?$AAa?$AAl?$AAe?$AA?$AA@ 0049994c     LIBCMTD:getqloc.obj
 0002:00014980       ??_C@_1GC@FECJGAE@?$AAf?$AA?3?$AA?2?$AAd?$AAd?$AA?2?$AAv?$AAc?$AAt?$AAo?$AAo?$AAl?$AAs?$AA?2?$AAc?$AAr?$AAt?$AA_?$AAb?$AAl?$AAd?$AA?2?$AAs?$AAe?$AAl?$AAf?$AA_?$AAx?$AA8?$AA6?$AA?2?$AAc@ 00499980     LIBCMTD:getqloc.obj
 0002:000149e4       ??_C@_03NFKLAGEF@OCP?$AA@  004999e4     LIBCMTD:getqloc.obj
 0002:000149e8       ??_C@_03DFHEHBHG@ACP?$AA@  004999e8     LIBCMTD:getqloc.obj
 0002:000149ec       ??_C@_1BI@BJLEPLEF@?$AA_?$AAs?$AAt?$AAr?$AAn?$AAi?$AAc?$AAm?$AAp?$AA_?$AAl?$AA?$AA@ 004999ec     LIBCMTD:strnicmp.obj
 0002:00014a08       ??_C@_1GE@CONPOJMA@?$AAf?$AA?3?$AA?2?$AAd?$AAd?$AA?2?$AAv?$AAc?$AAt?$AAo?$AAo?$AAl?$AAs?$AA?2?$AAc?$AAr?$AAt?$AA_?$AAb?$AAl?$AAd?$AA?2?$AAs?$AAe?$AAl?$AAf?$AA_?$AAx?$AA8?$AA6?$AA?2?$AAc@ 00499a08     LIBCMTD:strnicmp.obj
 0002:00014a6c       ??_C@_1BE@BHJDFFNA@?$AA_?$AAs?$AAt?$AAr?$AAn?$AAi?$AAc?$AAm?$AAp?$AA?$AA@ 00499a6c     LIBCMTD:strnicmp.obj
 0002:00014a80       ??_C@_1BE@JKKFLIKJ@?$AA_?$AAm?$AAb?$AAs?$AAc?$AAh?$AAr?$AA_?$AAl?$AA?$AA@ 00499a80     LIBCMTD:mbschr.obj
 0002:00014a98       ??_C@_1GA@GDCAGKMG@?$AAf?$AA?3?$AA?2?$AAd?$AAd?$AA?2?$AAv?$AAc?$AAt?$AAo?$AAo?$AAl?$AAs?$AA?2?$AAc?$AAr?$AAt?$AA_?$AAb?$AAl?$AAd?$AA?2?$AAs?$AAe?$AAl?$AAf?$AA_?$AAx?$AA8?$AA6?$AA?2?$AAc@ 00499a98     LIBCMTD:mbschr.obj
 0002:00014af8       ??_C@_1BO@JIBAMMGI@?$AAs?$AAt?$AAr?$AAi?$AAn?$AAg?$AA?5?$AA?$CB?$AA?$DN?$AA?5?$AAN?$AAU?$AAL?$AAL?$AA?$AA@ 00499af8     LIBCMTD:mbschr.obj
 0002:00014b18       ??_C@_1BO@JGFPDJCP@?$AAv?$AAp?$AAr?$AAi?$AAn?$AAt?$AAf?$AA_?$AAh?$AAe?$AAl?$AAp?$AAe?$AAr?$AA?$AA@ 00499b18     LIBCMTD:vprintf.obj
 0002:00014b38       ??_C@_1GC@DHFFJKMC@?$AAf?$AA?3?$AA?2?$AAd?$AAd?$AA?2?$AAv?$AAc?$AAt?$AAo?$AAo?$AAl?$AAs?$AA?2?$AAc?$AAr?$AAt?$AA_?$AAb?$AAl?$AAd?$AA?2?$AAs?$AAe?$AAl?$AAf?$AA_?$AAx?$AA8?$AA6?$AA?2?$AAc@ 00499b38     LIBCMTD:vprintf.obj
 0002:00014b9c       ??_C@_1BA@BALFACEM@?$AAC?$AAO?$AAN?$AAO?$AAU?$AAT?$AA$?$AA?$AA@ 00499b9c     LIBCMTD:initcon.obj
 0002:00014bac       ??_C@_1O@EDEJGJBM@?$AA_?$AAc?$AAl?$AAo?$AAs?$AAe?$AA?$AA@ 00499bac     LIBCMTD:close.obj
 0002:00014bc0       ??_C@_1FO@NNGNFGFH@?$AAf?$AA?3?$AA?2?$AAd?$AAd?$AA?2?$AAv?$AAc?$AAt?$AAo?$AAo?$AAl?$AAs?$AA?2?$AAc?$AAr?$AAt?$AA_?$AAb?$AAl?$AAd?$AA?2?$AAs?$AAe?$AAl?$AAf?$AA_?$AAx?$AA8?$AA6?$AA?2?$AAc@ 00499bc0     LIBCMTD:close.obj
 0002:00014c20       ??_C@_1BG@GLLONOEH@?$AA_?$AAs?$AAt?$AAr?$AAi?$AAc?$AAm?$AAp?$AA_?$AAl?$AA?$AA@ 00499c20     LIBCMTD:stricmp.obj
 0002:00014c38       ??_C@_1GC@OILHAOLL@?$AAf?$AA?3?$AA?2?$AAd?$AAd?$AA?2?$AAv?$AAc?$AAt?$AAo?$AAo?$AAl?$AAs?$AA?2?$AAc?$AAr?$AAt?$AA_?$AAb?$AAl?$AAd?$AA?2?$AAs?$AAe?$AAl?$AAf?$AA_?$AAx?$AA8?$AA6?$AA?2?$AAc@ 00499c38     LIBCMTD:stricmp.obj
 0002:00014c9c       ??_C@_1BC@JLGKKIIG@?$AA_?$AAs?$AAt?$AAr?$AAi?$AAc?$AAm?$AAp?$AA?$AA@ 00499c9c     LIBCMTD:stricmp.obj
 0002:00014cd0       __load_config_used         00499cd0     LIBCMTD:loadcfg.obj
 0002:00014d68       ??_R4ThreadSafetyTests@@6B@ 00499d68     TestFifo.obj
 0002:00014d7c       ??_R3ThreadSafetyTests@@8  00499d7c     TestFifo.obj
 0002:00014d8c       ??_R2ThreadSafetyTests@@8  00499d8c     TestFifo.obj
 0002:00014d9c       ??_R1A@?0A@EA@ThreadSafetyTests@@8 00499d9c     TestFifo.obj
 0002:00014db8       ??_R1A@?0A@EA@Thread@OpenHome@@8 00499db8     TestFifo.obj
 0002:00014dd4       ??_R3Thread@OpenHome@@8    00499dd4     TestFifo.obj
 0002:00014de4       ??_R2Thread@OpenHome@@8    00499de4     TestFifo.obj
 0002:00014df0       ??_R13?0A@EA@INonCopyable@OpenHome@@8 00499df0     TestFifo.obj
 0002:00014e0c       ??_R3INonCopyable@OpenHome@@8 00499e0c     TestFifo.obj
 0002:00014e1c       ??_R2INonCopyable@OpenHome@@8 00499e1c     TestFifo.obj
 0002:00014e24       ??_R1A@?0A@EA@INonCopyable@OpenHome@@8 00499e24     TestFifo.obj
 0002:00014e40       ??_R4SuiteFifoBasic@@6B@   00499e40     TestFifo.obj
 0002:00014e54       ??_R3SuiteFifoBasic@@8     00499e54     TestFifo.obj
 0002:00014e64       ??_R2SuiteFifoBasic@@8     00499e64     TestFifo.obj
 0002:00014e70       ??_R1A@?0A@EA@SuiteFifoBasic@@8 00499e70     TestFifo.obj
 0002:00014e8c       ??_R1A@?0A@EA@Suite@TestFramework@OpenHome@@8 00499e8c     TestFifo.obj
 0002:00014ea8       ??_R3Suite@TestFramework@OpenHome@@8 00499ea8     TestFifo.obj
 0002:00014eb8       ??_R2Suite@TestFramework@OpenHome@@8 00499eb8     TestFifo.obj
 0002:00014ec0       ??_R4SuiteFifoThreadSafety@@6B@ 00499ec0     TestFifo.obj
 0002:00014ed4       ??_R3SuiteFifoThreadSafety@@8 00499ed4     TestFifo.obj
 0002:00014ee4       ??_R2SuiteFifoThreadSafety@@8 00499ee4     TestFifo.obj
 0002:00014ef0       ??_R1A@?0A@EA@SuiteFifoThreadSafety@@8 00499ef0     TestFifo.obj
 0002:00014f0c       ??_R4SuiteFifoLiteBasic@@6B@ 00499f0c     TestFifo.obj
 0002:00014f20       ??_R3SuiteFifoLiteBasic@@8 00499f20     TestFifo.obj
 0002:00014f30       ??_R2SuiteFifoLiteBasic@@8 00499f30     TestFifo.obj
 0002:00014f3c       ??_R1A@?0A@EA@SuiteFifoLiteBasic@@8 00499f3c     TestFifo.obj
 0002:00014f58       ??_R4Suite@TestFramework@OpenHome@@6B@ 00499f58     libTestFramework:TestFramework.obj
 0002:00014f6c       ??_R4Semaphore@OpenHome@@6B@ 00499f6c     libohNetCore:Thread.obj
 0002:00014f80       ??_R3Semaphore@OpenHome@@8 00499f80     libohNetCore:Thread.obj
 0002:00014f90       ??_R2Semaphore@OpenHome@@8 00499f90     libohNetCore:Thread.obj
 0002:00014f9c       ??_R1A@?0A@EA@Semaphore@OpenHome@@8 00499f9c     libohNetCore:Thread.obj
 0002:00014fb8       ??_R4bad_alloc@std@@6B@    00499fb8     libohNetCore:Thread.obj
 0002:00014fcc       ??_R3bad_alloc@std@@8      00499fcc     libohNetCore:Thread.obj
 0002:00014fdc       ??_R2bad_alloc@std@@8      00499fdc     libohNetCore:Thread.obj
 0002:00014fe8       ??_R1A@?0A@EA@bad_alloc@std@@8 00499fe8     libohNetCore:Thread.obj
 0002:00015004       ??_R1A@?0A@EA@exception@std@@8 0049a004     libohNetCore:Thread.obj
 0002:00015020       ??_R3exception@std@@8      0049a020     libohNetCore:Thread.obj
 0002:00015030       ??_R2exception@std@@8      0049a030     libohNetCore:Thread.obj
 0002:00015038       ??_R4Mutex@OpenHome@@6B@   0049a038     libohNetCore:Thread.obj
 0002:0001504c       ??_R3Mutex@OpenHome@@8     0049a04c     libohNetCore:Thread.obj
 0002:0001505c       ??_R2Mutex@OpenHome@@8     0049a05c     libohNetCore:Thread.obj
 0002:00015068       ??_R1A@?0A@EA@Mutex@OpenHome@@8 0049a068     libohNetCore:Thread.obj
 0002:00015084       ??_R4Brhz@OpenHome@@6B@    0049a084     libohNetCore:Thread.obj
 0002:00015098       ??_R3Brhz@OpenHome@@8      0049a098     libohNetCore:Thread.obj
 0002:000150a8       ??_R2Brhz@OpenHome@@8      0049a0a8     libohNetCore:Thread.obj
 0002:000150bc       ??_R1A@?0A@EA@Brhz@OpenHome@@8 0049a0bc     libohNetCore:Thread.obj
 0002:000150d8       ??_R1A@?0A@EA@Brv@OpenHome@@8 0049a0d8     libohNetCore:Thread.obj
 0002:000150f4       ??_R3Brv@OpenHome@@8       0049a0f4     libohNetCore:Thread.obj
 0002:00015104       ??_R2Brv@OpenHome@@8       0049a104     libohNetCore:Thread.obj
 0002:00015114       ??_R1A@?0A@EA@Brx@OpenHome@@8 0049a114     libohNetCore:Thread.obj
 0002:00015130       ??_R3Brx@OpenHome@@8       0049a130     libohNetCore:Thread.obj
 0002:00015140       ??_R2Brx@OpenHome@@8       0049a140     libohNetCore:Thread.obj
 0002:00015148       ??_R17?0A@EA@INonCopyable@OpenHome@@8 0049a148     libohNetCore:Thread.obj
 0002:00015164       ??_R4Brv@OpenHome@@6B@     0049a164     libohNetCore:Thread.obj
 0002:00015178       ??_R4Brx@OpenHome@@6B@     0049a178     libohNetCore:Thread.obj
 0002:0001518c       ??_R4Thread@OpenHome@@6B@  0049a18c     libohNetCore:Thread.obj
 0002:000151a0       ??_R4ThreadFunctor@OpenHome@@6B@ 0049a1a0     libohNetCore:Thread.obj
 0002:000151b4       ??_R3ThreadFunctor@OpenHome@@8 0049a1b4     libohNetCore:Thread.obj
 0002:000151c4       ??_R2ThreadFunctor@OpenHome@@8 0049a1c4     libohNetCore:Thread.obj
 0002:000151d4       ??_R1A@?0A@EA@ThreadFunctor@OpenHome@@8 0049a1d4     libohNetCore:Thread.obj
 0002:000151f0       ??_R4?$Bws@$04@OpenHome@@6B@ 0049a1f0     libohNetCore:Thread.obj
 0002:00015204       ??_R3?$Bws@$04@OpenHome@@8 0049a204     libohNetCore:Thread.obj
 0002:00015214       ??_R2?$Bws@$04@OpenHome@@8 0049a214     libohNetCore:Thread.obj
 0002:00015224       ??_R1A@?0A@EA@?$Bws@$04@OpenHome@@8 0049a224     libohNetCore:Thread.obj
 0002:00015240       ??_R1A@?0A@EA@Bwx@OpenHome@@8 0049a240     libohNetCore:Thread.obj
 0002:0001525c       ??_R3Bwx@OpenHome@@8       0049a25c     libohNetCore:Thread.obj
 0002:0001526c       ??_R2Bwx@OpenHome@@8       0049a26c     libohNetCore:Thread.obj
 0002:00015278       ??_R4DefaultAsyncHandler@Net@OpenHome@@6B@ 0049a278     libohNetCore:OhNet.obj
 0002:0001528c       ??_R3DefaultAsyncHandler@Net@OpenHome@@8 0049a28c     libohNetCore:OhNet.obj
 0002:0001529c       ??_R2DefaultAsyncHandler@Net@OpenHome@@8 0049a29c     libohNetCore:OhNet.obj
 0002:000152a8       ??_R1A@?0A@EA@DefaultAsyncHandler@Net@OpenHome@@8 0049a2a8     libohNetCore:OhNet.obj
 0002:000152c4       ??_R1A@?0A@EN@IAsyncOutput@Net@OpenHome@@8 0049a2c4     libohNetCore:OhNet.obj
 0002:000152e0       ??_R3IAsyncOutput@Net@OpenHome@@8 0049a2e0     libohNetCore:OhNet.obj
 0002:000152f0       ??_R2IAsyncOutput@Net@OpenHome@@8 0049a2f0     libohNetCore:OhNet.obj
 0002:000152f8       ??_R1A@?0A@EA@IAsyncOutput@Net@OpenHome@@8 0049a2f8     libohNetCore:OhNet.obj
 0002:00015314       ??_R4IAsyncOutput@Net@OpenHome@@6B@ 0049a314     libohNetCore:OhNet.obj
 0002:00015328       ??_R4?$Bws@$0EAB@@OpenHome@@6B@ 0049a328     libohNetCore:Printer.obj
 0002:0001533c       ??_R3?$Bws@$0EAB@@OpenHome@@8 0049a33c     libohNetCore:Printer.obj
 0002:0001534c       ??_R2?$Bws@$0EAB@@OpenHome@@8 0049a34c     libohNetCore:Printer.obj
 0002:0001535c       ??_R1A@?0A@EA@?$Bws@$0EAB@@OpenHome@@8 0049a35c     libohNetCore:Printer.obj
 0002:00015378       ??_R4TimerManager@OpenHome@@6B@ 0049a378     libohNetCore:Timer.obj
 0002:0001538c       ??_R3TimerManager@OpenHome@@8 0049a38c     libohNetCore:Timer.obj
 0002:0001539c       ??_R2TimerManager@OpenHome@@8 0049a39c     libohNetCore:Timer.obj
 0002:000153b0       ??_R1A@?0A@EA@TimerManager@OpenHome@@8 0049a3b0     libohNetCore:Timer.obj
 0002:000153cc       ??_R1A@?0A@EA@?$QueueSorted@VTimer@OpenHome@@@OpenHome@@8 0049a3cc     libohNetCore:Timer.obj
 0002:000153e8       ??_R3?$QueueSorted@VTimer@OpenHome@@@OpenHome@@8 0049a3e8     libohNetCore:Timer.obj
 0002:000153f8       ??_R2?$QueueSorted@VTimer@OpenHome@@@OpenHome@@8 0049a3f8     libohNetCore:Timer.obj
 0002:00015408       ??_R1A@?0A@EA@QueueSortedBase@OpenHome@@8 0049a408     libohNetCore:Timer.obj
 0002:00015424       ??_R3QueueSortedBase@OpenHome@@8 0049a424     libohNetCore:Timer.obj
 0002:00015434       ??_R2QueueSortedBase@OpenHome@@8 0049a434     libohNetCore:Timer.obj
 0002:00015440       ??_R4?$QueueSorted@VTimer@OpenHome@@@OpenHome@@6B@ 0049a440     libohNetCore:Timer.obj
 0002:00015454       ??_R4Brn@OpenHome@@6B@     0049a454     libohNetCore:Buffer.obj
 0002:00015468       ??_R3Brn@OpenHome@@8       0049a468     libohNetCore:Buffer.obj
 0002:00015478       ??_R2Brn@OpenHome@@8       0049a478     libohNetCore:Buffer.obj
 0002:00015484       ??_R1A@?0A@EA@Brn@OpenHome@@8 0049a484     libohNetCore:Buffer.obj
 0002:000154a0       ??_R4Brh@OpenHome@@6B@     0049a4a0     libohNetCore:Buffer.obj
 0002:000154b4       ??_R3Brh@OpenHome@@8       0049a4b4     libohNetCore:Buffer.obj
 0002:000154c4       ??_R2Brh@OpenHome@@8       0049a4c4     libohNetCore:Buffer.obj
 0002:000154d8       ??_R1A@?0A@EA@Brh@OpenHome@@8 0049a4d8     libohNetCore:Buffer.obj
 0002:000154f4       ??_R4Bwx@OpenHome@@6B@     0049a4f4     libohNetCore:Buffer.obj
 0002:00015508       ??_R4Bwn@OpenHome@@6B@     0049a508     libohNetCore:Buffer.obj
 0002:0001551c       ??_R3Bwn@OpenHome@@8       0049a51c     libohNetCore:Buffer.obj
 0002:0001552c       ??_R2Bwn@OpenHome@@8       0049a52c     libohNetCore:Buffer.obj
 0002:0001553c       ??_R1A@?0A@EA@Bwn@OpenHome@@8 0049a53c     libohNetCore:Buffer.obj
 0002:00015558       ??_R4Bwh@OpenHome@@6B@     0049a558     libohNetCore:Buffer.obj
 0002:0001556c       ??_R3Bwh@OpenHome@@8       0049a56c     libohNetCore:Buffer.obj
 0002:0001557c       ??_R2Bwh@OpenHome@@8       0049a57c     libohNetCore:Buffer.obj
 0002:0001558c       ??_R1A@?0A@EA@Bwh@OpenHome@@8 0049a58c     libohNetCore:Buffer.obj
 0002:000155a8       ??_R4Socket@OpenHome@@6B@  0049a5a8     libohNetCore:Network.obj
 0002:000155bc       ??_R3Socket@OpenHome@@8    0049a5bc     libohNetCore:Network.obj
 0002:000155cc       ??_R2Socket@OpenHome@@8    0049a5cc     libohNetCore:Network.obj
 0002:000155d4       ??_R1A@?0A@EA@Socket@OpenHome@@8 0049a5d4     libohNetCore:Network.obj
 0002:000155f0       ??_R4SocketTcp@OpenHome@@6BSocket@1@@ 0049a5f0     libohNetCore:Network.obj
 0002:00015604       ??_R3SocketTcp@OpenHome@@8 0049a604     libohNetCore:Network.obj
 0002:00015614       ??_R2SocketTcp@OpenHome@@8 0049a614     libohNetCore:Network.obj
 0002:00015628       ??_R1A@?0A@EA@SocketTcp@OpenHome@@8 0049a628     libohNetCore:Network.obj
 0002:00015644       ??_R1M@?0A@EA@IWriter@OpenHome@@8 0049a644     libohNetCore:Network.obj
 0002:00015660       ??_R3IWriter@OpenHome@@8   0049a660     libohNetCore:Network.obj
 0002:00015670       ??_R2IWriter@OpenHome@@8   0049a670     libohNetCore:Network.obj
 0002:00015678       ??_R1A@?0A@EA@IWriter@OpenHome@@8 0049a678     libohNetCore:Network.obj
 0002:00015694       ??_R1BA@?0A@EA@IReaderSource@OpenHome@@8 0049a694     libohNetCore:Network.obj
 0002:000156b0       ??_R3IReaderSource@OpenHome@@8 0049a6b0     libohNetCore:Network.obj
 0002:000156c0       ??_R2IReaderSource@OpenHome@@8 0049a6c0     libohNetCore:Network.obj
 0002:000156c8       ??_R1A@?0A@EA@IReaderSource@OpenHome@@8 0049a6c8     libohNetCore:Network.obj
 0002:000156e4       ??_R4SocketTcp@OpenHome@@6BIWriter@1@@ 0049a6e4     libohNetCore:Network.obj
 0002:000156f8       ??_R4SocketTcp@OpenHome@@6BIReaderSource@1@@ 0049a6f8     libohNetCore:Network.obj
 0002:0001570c       ??_R4IReaderSource@OpenHome@@6B@ 0049a70c     libohNetCore:Network.obj
 0002:00015720       ??_R4IWriter@OpenHome@@6B@ 0049a720     libohNetCore:Network.obj
 0002:00015734       ??_R4SocketTcpServer@OpenHome@@6B@ 0049a734     libohNetCore:Network.obj
 0002:00015748       ??_R3SocketTcpServer@OpenHome@@8 0049a748     libohNetCore:Network.obj
 0002:00015758       ??_R2SocketTcpServer@OpenHome@@8 0049a758     libohNetCore:Network.obj
 0002:00015764       ??_R1A@?0A@EA@SocketTcpServer@OpenHome@@8 0049a764     libohNetCore:Network.obj
 0002:00015780       ??_R4SocketTcpSession@OpenHome@@6BSocket@1@@ 0049a780     libohNetCore:Network.obj
 0002:00015794       ??_R3SocketTcpSession@OpenHome@@8 0049a794     libohNetCore:Network.obj
 0002:000157a4       ??_R2SocketTcpSession@OpenHome@@8 0049a7a4     libohNetCore:Network.obj
 0002:000157bc       ??_R1A@?0A@EA@SocketTcpSession@OpenHome@@8 0049a7bc     libohNetCore:Network.obj
 0002:000157d8       ??_R4SocketTcpSession@OpenHome@@6BIWriter@1@@ 0049a7d8     libohNetCore:Network.obj
 0002:000157ec       ??_R4SocketTcpSession@OpenHome@@6BIReaderSource@1@@ 0049a7ec     libohNetCore:Network.obj
 0002:00015800       ??_R4SocketUdp@OpenHome@@6B@ 0049a800     libohNetCore:Network.obj
 0002:00015814       ??_R3SocketUdp@OpenHome@@8 0049a814     libohNetCore:Network.obj
 0002:00015824       ??_R2SocketUdp@OpenHome@@8 0049a824     libohNetCore:Network.obj
 0002:00015830       ??_R1A@?0A@EA@SocketUdp@OpenHome@@8 0049a830     libohNetCore:Network.obj
 0002:0001584c       ??_R4SocketUdpMulticast@OpenHome@@6B@ 0049a84c     libohNetCore:Network.obj
 0002:00015860       ??_R3SocketUdpMulticast@OpenHome@@8 0049a860     libohNetCore:Network.obj
 0002:00015870       ??_R2SocketUdpMulticast@OpenHome@@8 0049a870     libohNetCore:Network.obj
 0002:00015880       ??_R1A@?0A@EA@SocketUdpMulticast@OpenHome@@8 0049a880     libohNetCore:Network.obj
 0002:0001589c       ??_R4UdpReader@OpenHome@@6B@ 0049a89c     libohNetCore:Network.obj
 0002:000158b0       ??_R3UdpReader@OpenHome@@8 0049a8b0     libohNetCore:Network.obj
 0002:000158c0       ??_R2UdpReader@OpenHome@@8 0049a8c0     libohNetCore:Network.obj
 0002:000158d0       ??_R1A@?0A@EA@UdpReader@OpenHome@@8 0049a8d0     libohNetCore:Network.obj
 0002:000158ec       ??_R4UdpWriter@OpenHome@@6B@ 0049a8ec     libohNetCore:Network.obj
 0002:00015900       ??_R3UdpWriter@OpenHome@@8 0049a900     libohNetCore:Network.obj
 0002:00015910       ??_R2UdpWriter@OpenHome@@8 0049a910     libohNetCore:Network.obj
 0002:00015920       ??_R1A@?0A@EA@UdpWriter@OpenHome@@8 0049a920     libohNetCore:Network.obj
 0002:0001593c       ??_R4QueueSortedBase@OpenHome@@6B@ 0049a93c     libohNetCore:Queue.obj
 0002:00015950       ??_R4SsdpSocketReader@Net@OpenHome@@6BSocketUdpMulticast@2@@ 0049a950     libohNetCore:Discovery.obj
 0002:00015964       ??_R3SsdpSocketReader@Net@OpenHome@@8 0049a964     libohNetCore:Discovery.obj
 0002:00015974       ??_R2SsdpSocketReader@Net@OpenHome@@8 0049a974     libohNetCore:Discovery.obj
 0002:0001598c       ??_R1A@?0A@EA@SsdpSocketReader@Net@OpenHome@@8 0049a98c     libohNetCore:Discovery.obj
 0002:000159a8       ??_R1BI@?0A@EA@IReaderSource@OpenHome@@8 0049a9a8     libohNetCore:Discovery.obj
 0002:000159c4       ??_R4SsdpSocketReader@Net@OpenHome@@6BIReaderSource@2@@ 0049a9c4     libohNetCore:Discovery.obj
 0002:000159d8       ??_R4SsdpListener@Net@OpenHome@@6B@ 0049a9d8     libohNetCore:Discovery.obj
 0002:000159ec       ??_R3SsdpListener@Net@OpenHome@@8 0049a9ec     libohNetCore:Discovery.obj
 0002:000159fc       ??_R2SsdpListener@Net@OpenHome@@8 0049a9fc     libohNetCore:Discovery.obj
 0002:00015a0c       ??_R1A@?0A@EA@SsdpListener@Net@OpenHome@@8 0049aa0c     libohNetCore:Discovery.obj
 0002:00015a28       ??_R4SsdpHeaderCacheControl@Net@OpenHome@@6B@ 0049aa28     libohNetCore:Discovery.obj
 0002:00015a3c       ??_R3SsdpHeaderCacheControl@Net@OpenHome@@8 0049aa3c     libohNetCore:Discovery.obj
 0002:00015a4c       ??_R2SsdpHeaderCacheControl@Net@OpenHome@@8 0049aa4c     libohNetCore:Discovery.obj
 0002:00015a5c       ??_R1A@?0A@EA@SsdpHeaderCacheControl@Net@OpenHome@@8 0049aa5c     libohNetCore:Discovery.obj
 0002:00015a78       ??_R1A@?0A@EA@HttpHeader@OpenHome@@8 0049aa78     libohNetCore:Discovery.obj
 0002:00015a94       ??_R3HttpHeader@OpenHome@@8 0049aa94     libohNetCore:Discovery.obj
 0002:00015aa4       ??_R2HttpHeader@OpenHome@@8 0049aaa4     libohNetCore:Discovery.obj
 0002:00015ab0       ??_R1A@?0A@EA@IHttpHeader@OpenHome@@8 0049aab0     libohNetCore:Discovery.obj
 0002:00015acc       ??_R3IHttpHeader@OpenHome@@8 0049aacc     libohNetCore:Discovery.obj
 0002:00015adc       ??_R2IHttpHeader@OpenHome@@8 0049aadc     libohNetCore:Discovery.obj
 0002:00015ae4       ??_R4HttpHeaderLocation@OpenHome@@6B@ 0049aae4     libohNetCore:Discovery.obj
 0002:00015af8       ??_R3HttpHeaderLocation@OpenHome@@8 0049aaf8     libohNetCore:Discovery.obj
 0002:00015b08       ??_R2HttpHeaderLocation@OpenHome@@8 0049ab08     libohNetCore:Discovery.obj
 0002:00015b18       ??_R1A@?0A@EA@HttpHeaderLocation@OpenHome@@8 0049ab18     libohNetCore:Discovery.obj
 0002:00015b34       ??_R4SsdpHeaderServer@Net@OpenHome@@6B@ 0049ab34     libohNetCore:Discovery.obj
 0002:00015b48       ??_R3SsdpHeaderServer@Net@OpenHome@@8 0049ab48     libohNetCore:Discovery.obj
 0002:00015b58       ??_R2SsdpHeaderServer@Net@OpenHome@@8 0049ab58     libohNetCore:Discovery.obj
 0002:00015b68       ??_R1A@?0A@EA@SsdpHeaderServer@Net@OpenHome@@8 0049ab68     libohNetCore:Discovery.obj
 0002:00015b84       ??_R4SsdpHeaderSt@Net@OpenHome@@6B@ 0049ab84     libohNetCore:Discovery.obj
 0002:00015b98       ??_R3SsdpHeaderSt@Net@OpenHome@@8 0049ab98     libohNetCore:Discovery.obj
 0002:00015ba8       ??_R2SsdpHeaderSt@Net@OpenHome@@8 0049aba8     libohNetCore:Discovery.obj
 0002:00015bb8       ??_R1A@?0A@EA@SsdpHeaderSt@Net@OpenHome@@8 0049abb8     libohNetCore:Discovery.obj
 0002:00015bd4       ??_R4SsdpHeaderUsn@Net@OpenHome@@6B@ 0049abd4     libohNetCore:Discovery.obj
 0002:00015be8       ??_R3SsdpHeaderUsn@Net@OpenHome@@8 0049abe8     libohNetCore:Discovery.obj
 0002:00015bf8       ??_R2SsdpHeaderUsn@Net@OpenHome@@8 0049abf8     libohNetCore:Discovery.obj
 0002:00015c08       ??_R1A@?0A@EA@SsdpHeaderUsn@Net@OpenHome@@8 0049ac08     libohNetCore:Discovery.obj
 0002:00015c24       ??_R4IHttpHeader@OpenHome@@6B@ 0049ac24     libohNetCore:Discovery.obj
 0002:00015c38       ??_R4SsdpListenerMulticast@Net@OpenHome@@6B@ 0049ac38     libohNetCore:Discovery.obj
 0002:00015c4c       ??_R3SsdpListenerMulticast@Net@OpenHome@@8 0049ac4c     libohNetCore:Discovery.obj
 0002:00015c5c       ??_R2SsdpListenerMulticast@Net@OpenHome@@8 0049ac5c     libohNetCore:Discovery.obj
 0002:00015c70       ??_R1A@?0A@EA@SsdpListenerMulticast@Net@OpenHome@@8 0049ac70     libohNetCore:Discovery.obj
 0002:00015c8c       ??_R4SsdpHeaderHost@Net@OpenHome@@6B@ 0049ac8c     libohNetCore:Discovery.obj
 0002:00015ca0       ??_R3SsdpHeaderHost@Net@OpenHome@@8 0049aca0     libohNetCore:Discovery.obj
 0002:00015cb0       ??_R2SsdpHeaderHost@Net@OpenHome@@8 0049acb0     libohNetCore:Discovery.obj
 0002:00015cc0       ??_R1A@?0A@EA@SsdpHeaderHost@Net@OpenHome@@8 0049acc0     libohNetCore:Discovery.obj
 0002:00015cdc       ??_R4SsdpHeaderMan@Net@OpenHome@@6B@ 0049acdc     libohNetCore:Discovery.obj
 0002:00015cf0       ??_R3SsdpHeaderMan@Net@OpenHome@@8 0049acf0     libohNetCore:Discovery.obj
 0002:00015d00       ??_R2SsdpHeaderMan@Net@OpenHome@@8 0049ad00     libohNetCore:Discovery.obj
 0002:00015d10       ??_R1A@?0A@EA@SsdpHeaderMan@Net@OpenHome@@8 0049ad10     libohNetCore:Discovery.obj
 0002:00015d2c       ??_R4SsdpHeaderMx@Net@OpenHome@@6B@ 0049ad2c     libohNetCore:Discovery.obj
 0002:00015d40       ??_R3SsdpHeaderMx@Net@OpenHome@@8 0049ad40     libohNetCore:Discovery.obj
 0002:00015d50       ??_R2SsdpHeaderMx@Net@OpenHome@@8 0049ad50     libohNetCore:Discovery.obj
 0002:00015d60       ??_R1A@?0A@EA@SsdpHeaderMx@Net@OpenHome@@8 0049ad60     libohNetCore:Discovery.obj
 0002:00015d7c       ??_R4SsdpHeaderNt@Net@OpenHome@@6B@ 0049ad7c     libohNetCore:Discovery.obj
 0002:00015d90       ??_R3SsdpHeaderNt@Net@OpenHome@@8 0049ad90     libohNetCore:Discovery.obj
 0002:00015da0       ??_R2SsdpHeaderNt@Net@OpenHome@@8 0049ada0     libohNetCore:Discovery.obj
 0002:00015db0       ??_R1A@?0A@EA@SsdpHeaderNt@Net@OpenHome@@8 0049adb0     libohNetCore:Discovery.obj
 0002:00015dcc       ??_R4SsdpHeaderNts@Net@OpenHome@@6B@ 0049adcc     libohNetCore:Discovery.obj
 0002:00015de0       ??_R3SsdpHeaderNts@Net@OpenHome@@8 0049ade0     libohNetCore:Discovery.obj
 0002:00015df0       ??_R2SsdpHeaderNts@Net@OpenHome@@8 0049adf0     libohNetCore:Discovery.obj
 0002:00015e00       ??_R1A@?0A@EA@SsdpHeaderNts@Net@OpenHome@@8 0049ae00     libohNetCore:Discovery.obj
 0002:00015e1c       ??_R4IReader@OpenHome@@6B@ 0049ae1c     libohNetCore:Discovery.obj
 0002:00015e30       ??_R3IReader@OpenHome@@8   0049ae30     libohNetCore:Discovery.obj
 0002:00015e40       ??_R2IReader@OpenHome@@8   0049ae40     libohNetCore:Discovery.obj
 0002:00015e48       ??_R1A@?0A@EA@IReader@OpenHome@@8 0049ae48     libohNetCore:Discovery.obj
 0002:00015e64       ??_R4SsdpListenerUnicast@Net@OpenHome@@6B@ 0049ae64     libohNetCore:Discovery.obj
 0002:00015e78       ??_R3SsdpListenerUnicast@Net@OpenHome@@8 0049ae78     libohNetCore:Discovery.obj
 0002:00015e88       ??_R2SsdpListenerUnicast@Net@OpenHome@@8 0049ae88     libohNetCore:Discovery.obj
 0002:00015e9c       ??_R1A@?0A@EA@SsdpListenerUnicast@Net@OpenHome@@8 0049ae9c     libohNetCore:Discovery.obj
 0002:00015eb8       ??_R4SsdpHeaderExt@Net@OpenHome@@6B@ 0049aeb8     libohNetCore:Discovery.obj
 0002:00015ecc       ??_R3SsdpHeaderExt@Net@OpenHome@@8 0049aecc     libohNetCore:Discovery.obj
 0002:00015edc       ??_R2SsdpHeaderExt@Net@OpenHome@@8 0049aedc     libohNetCore:Discovery.obj
 0002:00015eec       ??_R1A@?0A@EA@SsdpHeaderExt@Net@OpenHome@@8 0049aeec     libohNetCore:Discovery.obj
 0002:00015f08       ??_R4IWriterHttpMethod@OpenHome@@6B@ 0049af08     libohNetCore:Discovery.obj
 0002:00015f1c       ??_R3IWriterHttpMethod@OpenHome@@8 0049af1c     libohNetCore:Discovery.obj
 0002:00015f2c       ??_R2IWriterHttpMethod@OpenHome@@8 0049af2c     libohNetCore:Discovery.obj
 0002:00015f34       ??_R1A@?0A@EA@IWriterHttpMethod@OpenHome@@8 0049af34     libohNetCore:Discovery.obj
 0002:00015f50       ??_R4IWriterHttpHeader@OpenHome@@6B@ 0049af50     libohNetCore:Discovery.obj
 0002:00015f64       ??_R3IWriterHttpHeader@OpenHome@@8 0049af64     libohNetCore:Discovery.obj
 0002:00015f74       ??_R2IWriterHttpHeader@OpenHome@@8 0049af74     libohNetCore:Discovery.obj
 0002:00015f80       ??_R1A@?0A@EA@IWriterHttpHeader@OpenHome@@8 0049af80     libohNetCore:Discovery.obj
 0002:00015f9c       ??_R4IWriterAscii@OpenHome@@6B@ 0049af9c     libohNetCore:Discovery.obj
 0002:00015fb0       ??_R3IWriterAscii@OpenHome@@8 0049afb0     libohNetCore:Discovery.obj
 0002:00015fc0       ??_R2IWriterAscii@OpenHome@@8 0049afc0     libohNetCore:Discovery.obj
 0002:00015fcc       ??_R1A@?0A@EA@IWriterAscii@OpenHome@@8 0049afcc     libohNetCore:Discovery.obj
 0002:00015fe8       ??_R4?$Sws@$0EAA@@OpenHome@@6BSxx@1@@ 0049afe8     libohNetCore:Discovery.obj
 0002:00015ffc       ??_R3?$Sws@$0EAA@@OpenHome@@8 0049affc     libohNetCore:Discovery.obj
 0002:0001600c       ??_R2?$Sws@$0EAA@@OpenHome@@8 0049b00c     libohNetCore:Discovery.obj
 0002:00016024       ??_R1A@?0A@EA@?$Sws@$0EAA@@OpenHome@@8 0049b024     libohNetCore:Discovery.obj
 0002:00016040       ??_R1A@?0A@EA@Swx@OpenHome@@8 0049b040     libohNetCore:Discovery.obj
 0002:0001605c       ??_R3Swx@OpenHome@@8       0049b05c     libohNetCore:Discovery.obj
 0002:0001606c       ??_R2Swx@OpenHome@@8       0049b06c     libohNetCore:Discovery.obj
 0002:00016080       ??_R1A@?0A@EA@Sxx@OpenHome@@8 0049b080     libohNetCore:Discovery.obj
 0002:0001609c       ??_R3Sxx@OpenHome@@8       0049b09c     libohNetCore:Discovery.obj
 0002:000160ac       ??_R2Sxx@OpenHome@@8       0049b0ac     libohNetCore:Discovery.obj
 0002:000160b8       ??_R4?$Sws@$0EAA@@OpenHome@@6BIWriter@1@@ 0049b0b8     libohNetCore:Discovery.obj
 0002:000160cc       ??_R4?$Srs@$0EAA@@OpenHome@@6BSxx@1@@ 0049b0cc     libohNetCore:Discovery.obj
 0002:000160e0       ??_R3?$Srs@$0EAA@@OpenHome@@8 0049b0e0     libohNetCore:Discovery.obj
 0002:000160f0       ??_R2?$Srs@$0EAA@@OpenHome@@8 0049b0f0     libohNetCore:Discovery.obj
 0002:00016108       ??_R1A@?0A@EA@?$Srs@$0EAA@@OpenHome@@8 0049b108     libohNetCore:Discovery.obj
 0002:00016124       ??_R1A@?0A@EA@Srx@OpenHome@@8 0049b124     libohNetCore:Discovery.obj
 0002:00016140       ??_R3Srx@OpenHome@@8       0049b140     libohNetCore:Discovery.obj
 0002:00016150       ??_R2Srx@OpenHome@@8       0049b150     libohNetCore:Discovery.obj
 0002:00016164       ??_R1M@?0A@EA@IReader@OpenHome@@8 0049b164     libohNetCore:Discovery.obj
 0002:00016180       ??_R4?$Srs@$0EAA@@OpenHome@@6BIReader@1@@ 0049b180     libohNetCore:Discovery.obj
 0002:00016194       ??_R4?$Bws@$0DOI@@OpenHome@@6B@ 0049b194     libohNetCore:Discovery.obj
 0002:000161a8       ??_R3?$Bws@$0DOI@@OpenHome@@8 0049b1a8     libohNetCore:Discovery.obj
 0002:000161b8       ??_R2?$Bws@$0DOI@@OpenHome@@8 0049b1b8     libohNetCore:Discovery.obj
 0002:000161c8       ??_R1A@?0A@EA@?$Bws@$0DOI@@OpenHome@@8 0049b1c8     libohNetCore:Discovery.obj
 0002:000161e4       ??_R4?$Bws@$0EA@@OpenHome@@6B@ 0049b1e4     libohNetCore:Discovery.obj
 0002:000161f8       ??_R3?$Bws@$0EA@@OpenHome@@8 0049b1f8     libohNetCore:Discovery.obj
 0002:00016208       ??_R2?$Bws@$0EA@@OpenHome@@8 0049b208     libohNetCore:Discovery.obj
 0002:00016218       ??_R1A@?0A@EA@?$Bws@$0EA@@OpenHome@@8 0049b218     libohNetCore:Discovery.obj
 0002:00016234       ??_R4ReaderAscii@OpenHome@@6B@ 0049b234     libohNetCore:Ascii.obj
 0002:00016248       ??_R3ReaderAscii@OpenHome@@8 0049b248     libohNetCore:Ascii.obj
 0002:00016258       ??_R2ReaderAscii@OpenHome@@8 0049b258     libohNetCore:Ascii.obj
 0002:00016268       ??_R1A@?0A@EA@ReaderAscii@OpenHome@@8 0049b268     libohNetCore:Ascii.obj
 0002:00016284       ??_R4WriterAscii@OpenHome@@6B@ 0049b284     libohNetCore:Ascii.obj
 0002:00016298       ??_R3WriterAscii@OpenHome@@8 0049b298     libohNetCore:Ascii.obj
 0002:000162a8       ??_R2WriterAscii@OpenHome@@8 0049b2a8     libohNetCore:Ascii.obj
 0002:000162bc       ??_R1A@?0A@EA@WriterAscii@OpenHome@@8 0049b2bc     libohNetCore:Ascii.obj
 0002:000162d8       ??_R4?$Bws@$09@OpenHome@@6B@ 0049b2d8     libohNetCore:Ascii.obj
 0002:000162ec       ??_R3?$Bws@$09@OpenHome@@8 0049b2ec     libohNetCore:Ascii.obj
 0002:000162fc       ??_R2?$Bws@$09@OpenHome@@8 0049b2fc     libohNetCore:Ascii.obj
 0002:0001630c       ??_R1A@?0A@EA@?$Bws@$09@OpenHome@@8 0049b30c     libohNetCore:Ascii.obj
 0002:00016328       ??_R4?$Bws@$0BE@@OpenHome@@6B@ 0049b328     libohNetCore:Ascii.obj
 0002:0001633c       ??_R3?$Bws@$0BE@@OpenHome@@8 0049b33c     libohNetCore:Ascii.obj
 0002:0001634c       ??_R2?$Bws@$0BE@@OpenHome@@8 0049b34c     libohNetCore:Ascii.obj
 0002:0001635c       ??_R1A@?0A@EA@?$Bws@$0BE@@OpenHome@@8 0049b35c     libohNetCore:Ascii.obj
 0002:00016378       ??_R4?$Bws@$0L@@OpenHome@@6B@ 0049b378     libohNetCore:Ascii.obj
 0002:0001638c       ??_R3?$Bws@$0L@@OpenHome@@8 0049b38c     libohNetCore:Ascii.obj
 0002:0001639c       ??_R2?$Bws@$0L@@OpenHome@@8 0049b39c     libohNetCore:Ascii.obj
 0002:000163ac       ??_R1A@?0A@EA@?$Bws@$0L@@OpenHome@@8 0049b3ac     libohNetCore:Ascii.obj
 0002:000163c8       ??_R4?$Bws@$07@OpenHome@@6B@ 0049b3c8     libohNetCore:Ascii.obj
 0002:000163dc       ??_R3?$Bws@$07@OpenHome@@8 0049b3dc     libohNetCore:Ascii.obj
 0002:000163ec       ??_R2?$Bws@$07@OpenHome@@8 0049b3ec     libohNetCore:Ascii.obj
 0002:000163fc       ??_R1A@?0A@EA@?$Bws@$07@OpenHome@@8 0049b3fc     libohNetCore:Ascii.obj
 0002:00016418       ??_R4?$Bws@$01@OpenHome@@6B@ 0049b418     libohNetCore:Ascii.obj
 0002:0001642c       ??_R3?$Bws@$01@OpenHome@@8 0049b42c     libohNetCore:Ascii.obj
 0002:0001643c       ??_R2?$Bws@$01@OpenHome@@8 0049b43c     libohNetCore:Ascii.obj
 0002:0001644c       ??_R1A@?0A@EA@?$Bws@$01@OpenHome@@8 0049b44c     libohNetCore:Ascii.obj
 0002:00016468       ??_R4ReaderHttpResponse@OpenHome@@6B@ 0049b468     libohNetCore:Http.obj
 0002:0001647c       ??_R3ReaderHttpResponse@OpenHome@@8 0049b47c     libohNetCore:Http.obj
 0002:0001648c       ??_R2ReaderHttpResponse@OpenHome@@8 0049b48c     libohNetCore:Http.obj
 0002:00016498       ??_R1A@?0A@EA@ReaderHttpResponse@OpenHome@@8 0049b498     libohNetCore:Http.obj
 0002:000164b4       ??_R13?0A@EA@ReaderHttpHeader@OpenHome@@8 0049b4b4     libohNetCore:Http.obj
 0002:000164d0       ??_R3ReaderHttpHeader@OpenHome@@8 0049b4d0     libohNetCore:Http.obj
 0002:000164e0       ??_R2ReaderHttpHeader@OpenHome@@8 0049b4e0     libohNetCore:Http.obj
 0002:000164e8       ??_R1A@?0A@EA@ReaderHttpHeader@OpenHome@@8 0049b4e8     libohNetCore:Http.obj
 0002:00016504       ??_R4WriterHttpField@OpenHome@@6B@ 0049b504     libohNetCore:Http.obj
 0002:00016518       ??_R3WriterHttpField@OpenHome@@8 0049b518     libohNetCore:Http.obj
 0002:00016528       ??_R2WriterHttpField@OpenHome@@8 0049b528     libohNetCore:Http.obj
 0002:00016540       ??_R1A@?0A@EA@WriterHttpField@OpenHome@@8 0049b540     libohNetCore:Http.obj
 0002:0001655c       ??_R4WriterHttpHeader@OpenHome@@6B@ 0049b55c     libohNetCore:Http.obj
 0002:00016570       ??_R3WriterHttpHeader@OpenHome@@8 0049b570     libohNetCore:Http.obj
 0002:00016580       ??_R2WriterHttpHeader@OpenHome@@8 0049b580     libohNetCore:Http.obj
 0002:00016590       ??_R1A@?0A@EA@WriterHttpHeader@OpenHome@@8 0049b590     libohNetCore:Http.obj
 0002:000165ac       ??_R4WriterHttpRequest@OpenHome@@6BWriterHttpHeader@1@@ 0049b5ac     libohNetCore:Http.obj
 0002:000165c0       ??_R3WriterHttpRequest@OpenHome@@8 0049b5c0     libohNetCore:Http.obj
 0002:000165d0       ??_R2WriterHttpRequest@OpenHome@@8 0049b5d0     libohNetCore:Http.obj
 0002:000165e8       ??_R1A@?0A@EA@WriterHttpRequest@OpenHome@@8 0049b5e8     libohNetCore:Http.obj
 0002:00016604       ??_R1M@?0A@EA@IWriterHttpMethod@OpenHome@@8 0049b604     libohNetCore:Http.obj
 0002:00016620       ??_R4WriterHttpRequest@OpenHome@@6BIWriterHttpMethod@1@@ 0049b620     libohNetCore:Http.obj
 0002:00016634       ??_R4WriterHttpResponse@OpenHome@@6BWriterHttpHeader@1@@ 0049b634     libohNetCore:Http.obj
 0002:00016648       ??_R3WriterHttpResponse@OpenHome@@8 0049b648     libohNetCore:Http.obj
 0002:00016658       ??_R2WriterHttpResponse@OpenHome@@8 0049b658     libohNetCore:Http.obj
 0002:00016670       ??_R1A@?0A@EA@WriterHttpResponse@OpenHome@@8 0049b670     libohNetCore:Http.obj
 0002:0001668c       ??_R1M@?0A@EA@IWriterHttpStatus@OpenHome@@8 0049b68c     libohNetCore:Http.obj
 0002:000166a8       ??_R3IWriterHttpStatus@OpenHome@@8 0049b6a8     libohNetCore:Http.obj
 0002:000166b8       ??_R2IWriterHttpStatus@OpenHome@@8 0049b6b8     libohNetCore:Http.obj
 0002:000166c0       ??_R1A@?0A@EA@IWriterHttpStatus@OpenHome@@8 0049b6c0     libohNetCore:Http.obj
 0002:000166dc       ??_R4WriterHttpResponse@OpenHome@@6BIWriterHttpStatus@1@@ 0049b6dc     libohNetCore:Http.obj
 0002:000166f0       ??_R4IWriterHttpStatus@OpenHome@@6B@ 0049b6f0     libohNetCore:Http.obj
 0002:00016704       ??_R4HttpHeader@OpenHome@@6B@ 0049b704     libohNetCore:Http.obj
 0002:00016718       ??_R4WriterHttpChunked@OpenHome@@6B@ 0049b718     libohNetCore:Http.obj
 0002:0001672c       ??_R3WriterHttpChunked@OpenHome@@8 0049b72c     libohNetCore:Http.obj
 0002:0001673c       ??_R2WriterHttpChunked@OpenHome@@8 0049b73c     libohNetCore:Http.obj
 0002:00016748       ??_R1A@?0A@EA@WriterHttpChunked@OpenHome@@8 0049b748     libohNetCore:Http.obj
 0002:00016764       ??_R4?$Sws@$0BHHA@@OpenHome@@6BSxx@1@@ 0049b764     libohNetCore:Http.obj
 0002:00016778       ??_R3?$Sws@$0BHHA@@OpenHome@@8 0049b778     libohNetCore:Http.obj
 0002:00016788       ??_R2?$Sws@$0BHHA@@OpenHome@@8 0049b788     libohNetCore:Http.obj
 0002:000167a0       ??_R1A@?0A@EA@?$Sws@$0BHHA@@OpenHome@@8 0049b7a0     libohNetCore:Http.obj
 0002:000167bc       ??_R4?$Sws@$0BHHA@@OpenHome@@6BIWriter@1@@ 0049b7bc     libohNetCore:Http.obj
 0002:000167d0       ??_R4?$Bws@$0MI@@OpenHome@@6B@ 0049b7d0     libohNetCore:Http.obj
 0002:000167e4       ??_R3?$Bws@$0MI@@OpenHome@@8 0049b7e4     libohNetCore:Http.obj
 0002:000167f4       ??_R2?$Bws@$0MI@@OpenHome@@8 0049b7f4     libohNetCore:Http.obj
 0002:00016804       ??_R1A@?0A@EA@?$Bws@$0MI@@OpenHome@@8 0049b804     libohNetCore:Http.obj
 0002:00016820       ??_R4?$Bws@$0GE@@OpenHome@@6B@ 0049b820     libohNetCore:Http.obj
 0002:00016834       ??_R3?$Bws@$0GE@@OpenHome@@8 0049b834     libohNetCore:Http.obj
 0002:00016844       ??_R2?$Bws@$0GE@@OpenHome@@8 0049b844     libohNetCore:Http.obj
 0002:00016854       ??_R1A@?0A@EA@?$Bws@$0GE@@OpenHome@@8 0049b854     libohNetCore:Http.obj
 0002:00016870       ??_R4?$Bws@$0BL@@OpenHome@@6B@ 0049b870     libohNetCore:Http.obj
 0002:00016884       ??_R3?$Bws@$0BL@@OpenHome@@8 0049b884     libohNetCore:Http.obj
 0002:00016894       ??_R2?$Bws@$0BL@@OpenHome@@8 0049b894     libohNetCore:Http.obj
 0002:000168a4       ??_R1A@?0A@EA@?$Bws@$0BL@@OpenHome@@8 0049b8a4     libohNetCore:Http.obj
 0002:000168c0       ??_R4?$Bws@$0CP@@OpenHome@@6B@ 0049b8c0     libohNetCore:Http.obj
 0002:000168d4       ??_R3?$Bws@$0CP@@OpenHome@@8 0049b8d4     libohNetCore:Http.obj
 0002:000168e4       ??_R2?$Bws@$0CP@@OpenHome@@8 0049b8e4     libohNetCore:Http.obj
 0002:000168f4       ??_R1A@?0A@EA@?$Bws@$0CP@@OpenHome@@8 0049b8f4     libohNetCore:Http.obj
 0002:00016910       ??_R4?$Bws@$0BA@@OpenHome@@6B@ 0049b910     libohNetCore:Http.obj
 0002:00016924       ??_R3?$Bws@$0BA@@OpenHome@@8 0049b924     libohNetCore:Http.obj
 0002:00016934       ??_R2?$Bws@$0BA@@OpenHome@@8 0049b934     libohNetCore:Http.obj
 0002:00016944       ??_R1A@?0A@EA@?$Bws@$0BA@@OpenHome@@8 0049b944     libohNetCore:Http.obj
 0002:00016960       ??_R4Sxx@OpenHome@@6B@     0049b960     libohNetCore:Stream.obj
 0002:00016974       ??_R4Srx@OpenHome@@6BSxx@1@@ 0049b974     libohNetCore:Stream.obj
 0002:00016988       ??_R4Srx@OpenHome@@6BIReader@1@@ 0049b988     libohNetCore:Stream.obj
 0002:0001699c       ??_R4Srd@OpenHome@@6BSxx@1@@ 0049b99c     libohNetCore:Stream.obj
 0002:000169b0       ??_R3Srd@OpenHome@@8       0049b9b0     libohNetCore:Stream.obj
 0002:000169c0       ??_R2Srd@OpenHome@@8       0049b9c0     libohNetCore:Stream.obj
 0002:000169d8       ??_R1A@?0A@EA@Srd@OpenHome@@8 0049b9d8     libohNetCore:Stream.obj
 0002:000169f4       ??_R4Srd@OpenHome@@6BIReader@1@@ 0049b9f4     libohNetCore:Stream.obj
 0002:00016a08       ??_R4Swx@OpenHome@@6BSxx@1@@ 0049ba08     libohNetCore:Stream.obj
 0002:00016a1c       ??_R4Swx@OpenHome@@6BIWriter@1@@ 0049ba1c     libohNetCore:Stream.obj
 0002:00016a30       ??_R4Swd@OpenHome@@6BSxx@1@@ 0049ba30     libohNetCore:Stream.obj
 0002:00016a44       ??_R3Swd@OpenHome@@8       0049ba44     libohNetCore:Stream.obj
 0002:00016a54       ??_R2Swd@OpenHome@@8       0049ba54     libohNetCore:Stream.obj
 0002:00016a6c       ??_R1A@?0A@EA@Swd@OpenHome@@8 0049ba6c     libohNetCore:Stream.obj
 0002:00016a88       ??_R4Swd@OpenHome@@6BIWriter@1@@ 0049ba88     libohNetCore:Stream.obj
 0002:00016a9c       ??_R4Swp@OpenHome@@6BSxx@1@@ 0049ba9c     libohNetCore:Stream.obj
 0002:00016ab0       ??_R3Swp@OpenHome@@8       0049bab0     libohNetCore:Stream.obj
 0002:00016ac0       ??_R2Swp@OpenHome@@8       0049bac0     libohNetCore:Stream.obj
 0002:00016ad8       ??_R1A@?0A@EA@Swp@OpenHome@@8 0049bad8     libohNetCore:Stream.obj
 0002:00016af4       ??_R4Swp@OpenHome@@6BIWriter@1@@ 0049baf4     libohNetCore:Stream.obj
 0002:00016b08       ??_R4ReaderBuffer@OpenHome@@6B@ 0049bb08     libohNetCore:Stream.obj
 0002:00016b1c       ??_R3ReaderBuffer@OpenHome@@8 0049bb1c     libohNetCore:Stream.obj
 0002:00016b2c       ??_R2ReaderBuffer@OpenHome@@8 0049bb2c     libohNetCore:Stream.obj
 0002:00016b38       ??_R1A@?0A@EA@ReaderBuffer@OpenHome@@8 0049bb38     libohNetCore:Stream.obj
 0002:00016b54       ??_R4WriterBuffer@OpenHome@@6B@ 0049bb54     libohNetCore:Stream.obj
 0002:00016b68       ??_R3WriterBuffer@OpenHome@@8 0049bb68     libohNetCore:Stream.obj
 0002:00016b78       ??_R2WriterBuffer@OpenHome@@8 0049bb78     libohNetCore:Stream.obj
 0002:00016b88       ??_R1A@?0A@EA@WriterBuffer@OpenHome@@8 0049bb88     libohNetCore:Stream.obj
 0002:00016ba4       ??_R4WriterBwh@OpenHome@@6B@ 0049bba4     libohNetCore:Stream.obj
 0002:00016bb8       ??_R3WriterBwh@OpenHome@@8 0049bbb8     libohNetCore:Stream.obj
 0002:00016bc8       ??_R2WriterBwh@OpenHome@@8 0049bbc8     libohNetCore:Stream.obj
 0002:00016bd4       ??_R1A@?0A@EA@WriterBwh@OpenHome@@8 0049bbd4     libohNetCore:Stream.obj
 0002:00016bf0       ??_R4invalid_argument@std@@6B@ 0049bbf0     libcpmtd:xthrow.obj
 0002:00016c04       ??_R3invalid_argument@std@@8 0049bc04     libcpmtd:xthrow.obj
 0002:00016c14       ??_R2invalid_argument@std@@8 0049bc14     libcpmtd:xthrow.obj
 0002:00016c24       ??_R1A@?0A@EA@invalid_argument@std@@8 0049bc24     libcpmtd:xthrow.obj
 0002:00016c40       ??_R1A@?0A@EA@logic_error@std@@8 0049bc40     libcpmtd:xthrow.obj
 0002:00016c5c       ??_R3logic_error@std@@8    0049bc5c     libcpmtd:xthrow.obj
 0002:00016c6c       ??_R2logic_error@std@@8    0049bc6c     libcpmtd:xthrow.obj
 0002:00016c78       ??_R4logic_error@std@@6B@  0049bc78     libcpmtd:xthrow.obj
 0002:00016c8c       ??_R4length_error@std@@6B@ 0049bc8c     libcpmtd:xthrow.obj
 0002:00016ca0       ??_R3length_error@std@@8   0049bca0     libcpmtd:xthrow.obj
 0002:00016cb0       ??_R2length_error@std@@8   0049bcb0     libcpmtd:xthrow.obj
 0002:00016cc0       ??_R1A@?0A@EA@length_error@std@@8 0049bcc0     libcpmtd:xthrow.obj
 0002:00016cdc       ??_R4out_of_range@std@@6B@ 0049bcdc     libcpmtd:xthrow.obj
 0002:00016cf0       ??_R3out_of_range@std@@8   0049bcf0     libcpmtd:xthrow.obj
 0002:00016d00       ??_R2out_of_range@std@@8   0049bd00     libcpmtd:xthrow.obj
 0002:00016d10       ??_R1A@?0A@EA@out_of_range@std@@8 0049bd10     libcpmtd:xthrow.obj
 0002:00016d2c       ??_R4overflow_error@std@@6B@ 0049bd2c     libcpmtd:xthrow.obj
 0002:00016d40       ??_R3overflow_error@std@@8 0049bd40     libcpmtd:xthrow.obj
 0002:00016d50       ??_R2overflow_error@std@@8 0049bd50     libcpmtd:xthrow.obj
 0002:00016d60       ??_R1A@?0A@EA@overflow_error@std@@8 0049bd60     libcpmtd:xthrow.obj
 0002:00016d7c       ??_R1A@?0A@EA@runtime_error@std@@8 0049bd7c     libcpmtd:xthrow.obj
 0002:00016d98       ??_R3runtime_error@std@@8  0049bd98     libcpmtd:xthrow.obj
 0002:00016da8       ??_R2runtime_error@std@@8  0049bda8     libcpmtd:xthrow.obj
 0002:00016db4       ??_R4runtime_error@std@@6B@ 0049bdb4     libcpmtd:xthrow.obj
 0002:00016dc8       ??_R4type_info@@6B@        0049bdc8     LIBCMTD:typinfo.obj
 0002:00016ddc       ??_R3type_info@@8          0049bddc     LIBCMTD:typinfo.obj
 0002:00016dec       ??_R2type_info@@8          0049bdec     LIBCMTD:typinfo.obj
 0002:00016df4       ??_R1A@?0A@EA@type_info@@8 0049bdf4     LIBCMTD:typinfo.obj
 0002:00016e10       ??_R4exception@std@@6B@    0049be10     LIBCMTD:stdexcpt.obj
 0002:00016e24       ??_R4bad_cast@std@@6B@     0049be24     LIBCMTD:stdexcpt.obj
 0002:00016e38       ??_R3bad_cast@std@@8       0049be38     LIBCMTD:stdexcpt.obj
 0002:00016e48       ??_R2bad_cast@std@@8       0049be48     LIBCMTD:stdexcpt.obj
 0002:00016e54       ??_R1A@?0A@EA@bad_cast@std@@8 0049be54     LIBCMTD:stdexcpt.obj
 0002:00016e70       ??_R4bad_typeid@std@@6B@   0049be70     LIBCMTD:stdexcpt.obj
 0002:00016e84       ??_R3bad_typeid@std@@8     0049be84     LIBCMTD:stdexcpt.obj
 0002:00016e94       ??_R2bad_typeid@std@@8     0049be94     LIBCMTD:stdexcpt.obj
 0002:00016ea0       ??_R1A@?0A@EA@bad_typeid@std@@8 0049bea0     LIBCMTD:stdexcpt.obj
 0002:00016ebc       ??_R4__non_rtti_object@std@@6B@ 0049bebc     LIBCMTD:stdexcpt.obj
 0002:00016ed0       ??_R3__non_rtti_object@std@@8 0049bed0     LIBCMTD:stdexcpt.obj
 0002:00016ee0       ??_R2__non_rtti_object@std@@8 0049bee0     LIBCMTD:stdexcpt.obj
 0002:00016ef0       ??_R1A@?0A@EA@__non_rtti_object@std@@8 0049bef0     LIBCMTD:stdexcpt.obj
 0002:00016f0c       ??_R4bad_exception@std@@6B@ 0049bf0c     LIBCMTD:frame.obj
 0002:00016f20       ??_R3bad_exception@std@@8  0049bf20     LIBCMTD:frame.obj
 0002:00016f30       ??_R2bad_exception@std@@8  0049bf30     LIBCMTD:frame.obj
 0002:00016f3c       ??_R1A@?0A@EA@bad_exception@std@@8 0049bf3c     LIBCMTD:frame.obj
 0002:00016f60       ___safe_se_handler_table   0049bf60     <linker-defined>
 0002:000175c4       ___rtc_iaa                 0049c5c4     LIBCMTD:_initsect_.obj
 0002:00017628       ___rtc_izz                 0049c628     LIBCMTD:_initsect_.obj
 0002:0001762c       ___rtc_taa                 0049c62c     LIBCMTD:_initsect_.obj
 0002:00017690       ___rtc_tzz                 0049c690     LIBCMTD:_initsect_.obj
 0002:00017908       __TI2?AVAssertionFailed@OpenHome@@ 0049c908     libTestFramework:TestFramework.obj
 0002:00017a0c       __CTA2?AVAssertionFailed@OpenHome@@ 0049ca0c     libTestFramework:TestFramework.obj
 0002:00017a18       __CT??_R0?AVAssertionFailed@OpenHome@@@812 0049ca18     libTestFramework:TestFramework.obj
 0002:00017a34       __CT??_R0?AVException@OpenHome@@@812 0049ca34     libTestFramework:TestFramework.obj
 0002:00017ab8       __TI2?AVFifoReadError@OpenHome@@ 0049cab8     libohNetCore:Fifo.obj
 0002:00017ac8       __CTA2?AVFifoReadError@OpenHome@@ 0049cac8     libohNetCore:Fifo.obj
 0002:00017ad4       __CT??_R0?AVFifoReadError@OpenHome@@@812 0049cad4     libohNetCore:Fifo.obj
 0002:00017b1c       __TI2?AVbad_alloc@std@@    0049cb1c     libohNetCore:Thread.obj
 0002:00017b2c       __CTA2?AVbad_alloc@std@@   0049cb2c     libohNetCore:Thread.obj
 0002:00017b38       __CT??_R0?AVbad_alloc@std@@@8??0bad_alloc@std@@QAE@ABV01@@Z12 0049cb38     libohNetCore:Thread.obj
 0002:00017b54       __CT??_R0?AVexception@std@@@8??0exception@std@@QAE@ABV01@@Z12 0049cb54     libohNetCore:Thread.obj
 0002:00017b70       __TI2?AVTimeout@OpenHome@@ 0049cb70     libohNetCore:Thread.obj
 0002:00017dc4       __CTA2?AVTimeout@OpenHome@@ 0049cdc4     libohNetCore:Thread.obj
 0002:00017dd0       __CT??_R0?AVTimeout@OpenHome@@@812 0049cdd0     libohNetCore:Thread.obj
 0002:00017e18       __TI2?AVThreadKill@OpenHome@@ 0049ce18     libohNetCore:Thread.obj
 0002:00017e28       __CTA2?AVThreadKill@OpenHome@@ 0049ce28     libohNetCore:Thread.obj
 0002:00017e34       __CT??_R0?AVThreadKill@OpenHome@@@812 0049ce34     libohNetCore:Thread.obj
 0002:000183d8       __TI2?AVBufferOverflow@OpenHome@@ 0049d3d8     libohNetCore:Buffer.obj
 0002:000183e8       __CTA2?AVBufferOverflow@OpenHome@@ 0049d3e8     libohNetCore:Buffer.obj
 0002:000183f4       __CT??_R0?AVBufferOverflow@OpenHome@@@812 0049d3f4     libohNetCore:Buffer.obj
 0002:00018410       __TI2?AVBufferFull@OpenHome@@ 0049d410     libohNetCore:Buffer.obj
 0002:00018420       __CTA2?AVBufferFull@OpenHome@@ 0049d420     libohNetCore:Buffer.obj
 0002:0001842c       __CT??_R0?AVBufferFull@OpenHome@@@812 0049d42c     libohNetCore:Buffer.obj
 0002:000191b0       __TI2?AVNetworkError@OpenHome@@ 0049e1b0     libohNetCore:Network.obj
 0002:00019a08       __CTA2?AVNetworkError@OpenHome@@ 0049ea08     libohNetCore:Network.obj
 0002:00019a14       __CT??_R0?AVNetworkError@OpenHome@@@812 0049ea14     libohNetCore:Network.obj
 0002:00019a64       __TI2?AVWriterError@OpenHome@@ 0049ea64     libohNetCore:Network.obj
 0002:00019a74       __CTA2?AVWriterError@OpenHome@@ 0049ea74     libohNetCore:Network.obj
 0002:00019a80       __CT??_R0?AVWriterError@OpenHome@@@812 0049ea80     libohNetCore:Network.obj
 0002:00019a9c       __TI2?AVReaderError@OpenHome@@ 0049ea9c     libohNetCore:Network.obj
 0002:00019aac       __CTA2?AVReaderError@OpenHome@@ 0049eaac     libohNetCore:Network.obj
 0002:00019ab8       __CT??_R0?AVReaderError@OpenHome@@@812 0049eab8     libohNetCore:Network.obj
 0002:0001a260       __TI2?AVQueueEmpty@OpenHome@@ 0049f260     libohNetCore:Queue.obj
 0002:0001a2c8       __CTA2?AVQueueEmpty@OpenHome@@ 0049f2c8     libohNetCore:Queue.obj
 0002:0001a2d4       __CT??_R0?AVQueueEmpty@OpenHome@@@812 0049f2d4     libohNetCore:Queue.obj
 0002:0001b76c       __TI2?AVAsciiError@OpenHome@@ 004a076c     libohNetCore:Ascii.obj
 0002:0001b77c       __CTA2?AVAsciiError@OpenHome@@ 004a077c     libohNetCore:Ascii.obj
 0002:0001b788       __CT??_R0?AVAsciiError@OpenHome@@@812 004a0788     libohNetCore:Ascii.obj
 0002:0001b7a4       __TI2?AVHttpError@OpenHome@@ 004a07a4     libohNetCore:Http.obj
 0002:0001bdc4       __CTA2?AVHttpError@OpenHome@@ 004a0dc4     libohNetCore:Http.obj
 0002:0001bdd0       __CT??_R0?AVHttpError@OpenHome@@@812 004a0dd0     libohNetCore:Http.obj
 0002:0001d18c       __TI3?AVinvalid_argument@std@@ 004a218c     libcpmtd:xthrow.obj
 0002:0001d19c       __CTA3?AVinvalid_argument@std@@ 004a219c     libcpmtd:xthrow.obj
 0002:0001d1ac       __CT??_R0?AVinvalid_argument@std@@@8??0invalid_argument@std@@QAE@ABV01@@Z12 004a21ac     libcpmtd:xthrow.obj
 0002:0001d1c8       __CT??_R0?AVlogic_error@std@@@8??0logic_error@std@@QAE@ABV01@@Z12 004a21c8     libcpmtd:xthrow.obj
 0002:0001d1e4       __TI3?AVlength_error@std@@ 004a21e4     libcpmtd:xthrow.obj
 0002:0001d1f4       __CTA3?AVlength_error@std@@ 004a21f4     libcpmtd:xthrow.obj
 0002:0001d204       __CT??_R0?AVlength_error@std@@@8??0length_error@std@@QAE@ABV01@@Z12 004a2204     libcpmtd:xthrow.obj
 0002:0001d220       __TI3?AVout_of_range@std@@ 004a2220     libcpmtd:xthrow.obj
 0002:0001d230       __CTA3?AVout_of_range@std@@ 004a2230     libcpmtd:xthrow.obj
 0002:0001d240       __CT??_R0?AVout_of_range@std@@@8??0out_of_range@std@@QAE@ABV01@@Z12 004a2240     libcpmtd:xthrow.obj
 0002:0001d25c       __TI3?AVoverflow_error@std@@ 004a225c     libcpmtd:xthrow.obj
 0002:0001d26c       __CTA3?AVoverflow_error@std@@ 004a226c     libcpmtd:xthrow.obj
 0002:0001d27c       __CT??_R0?AVoverflow_error@std@@@8??0overflow_error@std@@QAE@ABV01@@Z12 004a227c     libcpmtd:xthrow.obj
 0002:0001d298       __CT??_R0?AVruntime_error@std@@@8??0runtime_error@std@@QAE@ABV01@@Z12 004a2298     libcpmtd:xthrow.obj
 0002:0001d2b4       __TI2?AVruntime_error@std@@ 004a22b4     libcpmtd:xthrow.obj
 0002:0001d2c4       __CTA2?AVruntime_error@std@@ 004a22c4     libcpmtd:xthrow.obj
 0002:0001d454       __TI2?AVbad_exception@std@@ 004a2454     LIBCMTD:frame.obj
 0002:0001d464       __CTA2?AVbad_exception@std@@ 004a2464     LIBCMTD:frame.obj
 0002:0001d470       __CT??_R0?AVbad_exception@std@@@8??0bad_exception@std@@QAE@ABV01@@Z12 004a2470     LIBCMTD:frame.obj
 0002:0001de74       __IMPORT_DESCRIPTOR_KERNEL32 004a2e74     kernel32:KERNEL32.dll
 0002:0001de88       __IMPORT_DESCRIPTOR_WS2_32 004a2e88     Ws2_32:WS2_32.dll
 0002:0001de9c       __IMPORT_DESCRIPTOR_IPHLPAPI 004a2e9c     Iphlpapi:IPHLPAPI.DLL
 0002:0001deb0       __NULL_IMPORT_DESCRIPTOR   004a2eb0     kernel32:KERNEL32.dll
 0003:00000000       ??_R0?AVTimeout@OpenHome@@@8 004a4000     TestFifo.obj
 0003:00000020       ??_R0?AVThreadSafetyTests@@@8 004a4020     TestFifo.obj
 0003:00000040       ??_R0?AVThread@OpenHome@@@8 004a4040     TestFifo.obj
 0003:00000060       ??_R0?AVINonCopyable@OpenHome@@@8 004a4060     TestFifo.obj
 0003:00000084       ??_R0?AVSuiteFifoBasic@@@8 004a4084     TestFifo.obj
 0003:000000a4       ??_R0?AVSuite@TestFramework@OpenHome@@@8 004a40a4     TestFifo.obj
 0003:000000d0       ??_R0?AVSuiteFifoThreadSafety@@@8 004a40d0     TestFifo.obj
 0003:000000f4       ??_R0?AVSuiteFifoLiteBasic@@@8 004a40f4     TestFifo.obj
 0003:00000118       ??_R0?AVAssertionFailed@OpenHome@@@8 004a4118     libTestFramework:TestFramework.obj
 0003:00000140       ??_R0?AVException@OpenHome@@@8 004a4140     libTestFramework:TestFramework.obj
 0003:00000164       ??_R0?AVFifoReadError@OpenHome@@@8 004a4164     libohNetCore:Fifo.obj
 0003:0000018c       ??_R0?AVSemaphore@OpenHome@@@8 004a418c     libohNetCore:Thread.obj
 0003:000001b0       ??_R0?AVbad_alloc@std@@@8  004a41b0     libohNetCore:Thread.obj
 0003:000001cc       ??_R0?AVexception@std@@@8  004a41cc     libohNetCore:Thread.obj
 0003:000001e8       ??_R0?AVMutex@OpenHome@@@8 004a41e8     libohNetCore:Thread.obj
 0003:00000208       ??_R0?AVBrhz@OpenHome@@@8  004a4208     libohNetCore:Thread.obj
 0003:00000224       ??_R0?AVBrv@OpenHome@@@8   004a4224     libohNetCore:Thread.obj
 0003:00000240       ??_R0?AVBrx@OpenHome@@@8   004a4240     libohNetCore:Thread.obj
 0003:0000025c       ??_R0?AVThreadKill@OpenHome@@@8 004a425c     libohNetCore:Thread.obj
 0003:00000280       ??_R0?AVThreadFunctor@OpenHome@@@8 004a4280     libohNetCore:Thread.obj
 0003:000002a8       ??_R0?AV?$Bws@$04@OpenHome@@@8 004a42a8     libohNetCore:Thread.obj
 0003:000002cc       ??_R0?AVBwx@OpenHome@@@8   004a42cc     libohNetCore:Thread.obj
 0003:000002e8       ?kUnknown@@3PBDB           004a42e8     libohNetCore:Exception.obj
 0003:000002ec       ??_R0?AVDefaultAsyncHandler@Net@OpenHome@@@8 004a42ec     libohNetCore:OhNet.obj
 0003:0000031c       ??_R0?AVIAsyncOutput@Net@OpenHome@@@8 004a431c     libohNetCore:OhNet.obj
 0003:000003fc       ??_R0?AV?$Bws@$0EAB@@OpenHome@@@8 004a43fc     libohNetCore:Printer.obj
 0003:00000420       ??_R0?AVTimerManager@OpenHome@@@8 004a4420     libohNetCore:Timer.obj
 0003:00000444       ??_R0?AV?$QueueSorted@VTimer@OpenHome@@@OpenHome@@@8 004a4444     libohNetCore:Timer.obj
 0003:0000047c       ??_R0?AVQueueSortedBase@OpenHome@@@8 004a447c     libohNetCore:Timer.obj
 0003:000004a4       ??_R0?AVBrn@OpenHome@@@8   004a44a4     libohNetCore:Buffer.obj
 0003:000004c0       ??_R0?AVBrh@OpenHome@@@8   004a44c0     libohNetCore:Buffer.obj
 0003:000004dc       ??_R0?AVBufferOverflow@OpenHome@@@8 004a44dc     libohNetCore:Buffer.obj
 0003:00000504       ??_R0?AVBufferFull@OpenHome@@@8 004a4504     libohNetCore:Buffer.obj
 0003:00000528       ??_R0?AVBwn@OpenHome@@@8   004a4528     libohNetCore:Buffer.obj
 0003:00000544       ??_R0?AVBwh@OpenHome@@@8   004a4544     libohNetCore:Buffer.obj
 0003:00000560       ??_R0?AVSocket@OpenHome@@@8 004a4560     libohNetCore:Network.obj
 0003:00000580       ??_R0?AVNetworkError@OpenHome@@@8 004a4580     libohNetCore:Network.obj
 0003:000005a4       ??_R0?AVSocketTcp@OpenHome@@@8 004a45a4     libohNetCore:Network.obj
 0003:000005c8       ??_R0?AVIWriter@OpenHome@@@8 004a45c8     libohNetCore:Network.obj
 0003:000005e8       ??_R0?AVIReaderSource@OpenHome@@@8 004a45e8     libohNetCore:Network.obj
 0003:00000610       ??_R0?AVWriterError@OpenHome@@@8 004a4610     libohNetCore:Network.obj
 0003:00000634       ??_R0?AVReaderError@OpenHome@@@8 004a4634     libohNetCore:Network.obj
 0003:00000658       ??_R0?AVSocketTcpServer@OpenHome@@@8 004a4658     libohNetCore:Network.obj
 0003:00000680       ??_R0?AVSocketTcpSession@OpenHome@@@8 004a4680     libohNetCore:Network.obj
 0003:000006a8       ??_R0?AVSocketUdp@OpenHome@@@8 004a46a8     libohNetCore:Network.obj
 0003:000006cc       ??_R0?AVSocketUdpMulticast@OpenHome@@@8 004a46cc     libohNetCore:Network.obj
 0003:000006f8       ??_R0?AVUdpReader@OpenHome@@@8 004a46f8     libohNetCore:Network.obj
 0003:0000071c       ??_R0?AVUdpWriter@OpenHome@@@8 004a471c     libohNetCore:Network.obj
 0003:00000740       ??_R0?AVQueueEmpty@OpenHome@@@8 004a4740     libohNetCore:Queue.obj
 0003:00000764       ??_R0?AVSsdpSocketReader@Net@OpenHome@@@8 004a4764     libohNetCore:Discovery.obj
 0003:00000790       ??_R0?AVSsdpListener@Net@OpenHome@@@8 004a4790     libohNetCore:Discovery.obj
 0003:000007b8       ??_R0?AVSsdpHeaderCacheControl@Net@OpenHome@@@8 004a47b8     libohNetCore:Discovery.obj
 0003:000007ec       ??_R0?AVHttpHeader@OpenHome@@@8 004a47ec     libohNetCore:Discovery.obj
 0003:00000810       ??_R0?AVIHttpHeader@OpenHome@@@8 004a4810     libohNetCore:Discovery.obj
 0003:00000834       ??_R0?AVHttpHeaderLocation@OpenHome@@@8 004a4834     libohNetCore:Discovery.obj
 0003:00000860       ??_R0?AVSsdpHeaderServer@Net@OpenHome@@@8 004a4860     libohNetCore:Discovery.obj
 0003:0000088c       ??_R0?AVSsdpHeaderSt@Net@OpenHome@@@8 004a488c     libohNetCore:Discovery.obj
 0003:000008b4       ??_R0?AVSsdpHeaderUsn@Net@OpenHome@@@8 004a48b4     libohNetCore:Discovery.obj
 0003:000008e0       ??_R0?AVSsdpListenerMulticast@Net@OpenHome@@@8 004a48e0     libohNetCore:Discovery.obj
 0003:00000914       ??_R0?AVSsdpHeaderHost@Net@OpenHome@@@8 004a4914     libohNetCore:Discovery.obj
 0003:00000940       ??_R0?AVSsdpHeaderMan@Net@OpenHome@@@8 004a4940     libohNetCore:Discovery.obj
 0003:0000096c       ??_R0?AVSsdpHeaderMx@Net@OpenHome@@@8 004a496c     libohNetCore:Discovery.obj
 0003:00000994       ??_R0?AVSsdpHeaderNt@Net@OpenHome@@@8 004a4994     libohNetCore:Discovery.obj
 0003:000009bc       ??_R0?AVSsdpHeaderNts@Net@OpenHome@@@8 004a49bc     libohNetCore:Discovery.obj
 0003:000009e8       ??_R0?AVIReader@OpenHome@@@8 004a49e8     libohNetCore:Discovery.obj
 0003:00000a08       ??_R0?AVHttpError@OpenHome@@@8 004a4a08     libohNetCore:Discovery.obj
 0003:00000a2c       ??_R0?AVSsdpListenerUnicast@Net@OpenHome@@@8 004a4a2c     libohNetCore:Discovery.obj
 0003:00000a5c       ??_R0?AVSsdpHeaderExt@Net@OpenHome@@@8 004a4a5c     libohNetCore:Discovery.obj
 0003:00000a88       ??_R0?AVIWriterHttpMethod@OpenHome@@@8 004a4a88     libohNetCore:Discovery.obj
 0003:00000ab4       ??_R0?AVIWriterHttpHeader@OpenHome@@@8 004a4ab4     libohNetCore:Discovery.obj
 0003:00000ae0       ??_R0?AVIWriterAscii@OpenHome@@@8 004a4ae0     libohNetCore:Discovery.obj
 0003:00000b04       ??_R0?AV?$Sws@$0EAA@@OpenHome@@@8 004a4b04     libohNetCore:Discovery.obj
 0003:00000b28       ??_R0?AVSwx@OpenHome@@@8   004a4b28     libohNetCore:Discovery.obj
 0003:00000b44       ??_R0?AVSxx@OpenHome@@@8   004a4b44     libohNetCore:Discovery.obj
 0003:00000b60       ??_R0?AV?$Srs@$0EAA@@OpenHome@@@8 004a4b60     libohNetCore:Discovery.obj
 0003:00000b84       ??_R0?AVSrx@OpenHome@@@8   004a4b84     libohNetCore:Discovery.obj
 0003:00000ba0       ??_R0?AV?$Bws@$0DOI@@OpenHome@@@8 004a4ba0     libohNetCore:Discovery.obj
 0003:00000bc4       ??_R0?AV?$Bws@$0EA@@OpenHome@@@8 004a4bc4     libohNetCore:Discovery.obj
 0003:00000be8       ??_R0?AVAsciiError@OpenHome@@@8 004a4be8     libohNetCore:Ascii.obj
 0003:00000c0c       ??_R0?AVReaderAscii@OpenHome@@@8 004a4c0c     libohNetCore:Ascii.obj
 0003:00000c30       ??_R0?AVWriterAscii@OpenHome@@@8 004a4c30     libohNetCore:Ascii.obj
 0003:00000c54       ??_R0?AV?$Bws@$09@OpenHome@@@8 004a4c54     libohNetCore:Ascii.obj
 0003:00000c78       ??_R0?AV?$Bws@$0BE@@OpenHome@@@8 004a4c78     libohNetCore:Ascii.obj
 0003:00000c9c       ??_R0?AV?$Bws@$0L@@OpenHome@@@8 004a4c9c     libohNetCore:Ascii.obj
 0003:00000cc0       ??_R0?AV?$Bws@$07@OpenHome@@@8 004a4cc0     libohNetCore:Ascii.obj
 0003:00000ce4       ??_R0?AV?$Bws@$01@OpenHome@@@8 004a4ce4     libohNetCore:Ascii.obj
 0003:00000d08       ??_R0?AVReaderHttpResponse@OpenHome@@@8 004a4d08     libohNetCore:Http.obj
 0003:00000d34       ??_R0?AVReaderHttpHeader@OpenHome@@@8 004a4d34     libohNetCore:Http.obj
 0003:00000d5c       ??_R0?AVWriterHttpField@OpenHome@@@8 004a4d5c     libohNetCore:Http.obj
 0003:00000d84       ??_R0?AVWriterHttpHeader@OpenHome@@@8 004a4d84     libohNetCore:Http.obj
 0003:00000dac       ??_R0?AVWriterHttpRequest@OpenHome@@@8 004a4dac     libohNetCore:Http.obj
 0003:00000dd8       ??_R0?AVWriterHttpResponse@OpenHome@@@8 004a4dd8     libohNetCore:Http.obj
 0003:00000e04       ??_R0?AVIWriterHttpStatus@OpenHome@@@8 004a4e04     libohNetCore:Http.obj
 0003:00000e30       ??_R0?AVWriterHttpChunked@OpenHome@@@8 004a4e30     libohNetCore:Http.obj
 0003:00000e5c       ??_R0?AV?$Sws@$0BHHA@@OpenHome@@@8 004a4e5c     libohNetCore:Http.obj
 0003:00000e84       ??_R0?AV?$Bws@$0MI@@OpenHome@@@8 004a4e84     libohNetCore:Http.obj
 0003:00000ea8       ??_R0?AV?$Bws@$0GE@@OpenHome@@@8 004a4ea8     libohNetCore:Http.obj
 0003:00000ecc       ??_R0?AV?$Bws@$0BL@@OpenHome@@@8 004a4ecc     libohNetCore:Http.obj
 0003:00000ef0       ??_R0?AV?$Bws@$0CP@@OpenHome@@@8 004a4ef0     libohNetCore:Http.obj
 0003:00000f14       ??_R0?AV?$Bws@$0BA@@OpenHome@@@8 004a4f14     libohNetCore:Http.obj
 0003:00000f38       ??_R0?AVSrd@OpenHome@@@8   004a4f38     libohNetCore:Stream.obj
 0003:00000f54       ??_R0?AVSwd@OpenHome@@@8   004a4f54     libohNetCore:Stream.obj
 0003:00000f70       ??_R0?AVSwp@OpenHome@@@8   004a4f70     libohNetCore:Stream.obj
 0003:00000f8c       ??_R0?AVReaderBuffer@OpenHome@@@8 004a4f8c     libohNetCore:Stream.obj
 0003:00000fb0       ??_R0?AVWriterBuffer@OpenHome@@@8 004a4fb0     libohNetCore:Stream.obj
 0003:00000fd4       ??_R0?AVWriterBwh@OpenHome@@@8 004a4fd4     libohNetCore:Stream.obj
 0003:00000ffc       ??_R0?AVinvalid_argument@std@@@8 004a4ffc     libcpmtd:xthrow.obj
 0003:00001020       ??_R0?AVlogic_error@std@@@8 004a5020     libcpmtd:xthrow.obj
 0003:00001040       ??_R0?AVlength_error@std@@@8 004a5040     libcpmtd:xthrow.obj
 0003:00001060       ??_R0?AVout_of_range@std@@@8 004a5060     libcpmtd:xthrow.obj
 0003:00001080       ??_R0?AVoverflow_error@std@@@8 004a5080     libcpmtd:xthrow.obj
 0003:000010a4       ??_R0?AVruntime_error@std@@@8 004a50a4     libcpmtd:xthrow.obj
 0003:000010c4       ___security_cookie         004a50c4     LIBCMTD:gs_cookie.obj
 0003:000010c8       ___security_cookie_complement 004a50c8     LIBCMTD:gs_cookie.obj
 0003:000010cc       ??_R0?AVtype_info@@@8      004a50cc     LIBCMTD:typinfo.obj
 0003:000010f0       ___app_type                004a50f0     LIBCMTD:crt0.obj
 0003:00001154       ___abort_behavior          004a5154     LIBCMTD:abort.obj
 0003:00001158       ??_R0?AVbad_cast@std@@@8   004a5158     LIBCMTD:stdexcpt.obj
 0003:00001174       ??_R0?AVbad_typeid@std@@@8 004a5174     LIBCMTD:stdexcpt.obj
 0003:00001194       ??_R0?AV__non_rtti_object@std@@@8 004a5194     LIBCMTD:stdexcpt.obj
 0003:000011c0       __iob                      004a51c0     LIBCMTD:_file.obj
 0003:00001450       ??_R0?AVbad_exception@std@@@8 004a5450     LIBCMTD:frame.obj
 0003:00001470       ___flsindex                004a5470     LIBCMTD:tidtable.obj
 0003:00001474       ___getvalueindex           004a5474     LIBCMTD:tidtable.obj
 0003:00001478       ?_RTC_ErrorLevels@@3PAHA   004a5478     LIBCMTD:_error_.obj
 0003:000015b0       __crtDbgFlag               004a55b0     LIBCMTD:dbgheap.obj
 0003:000015b4       ___crtDebugFillThreshold   004a55b4     LIBCMTD:dbgheap.obj
 0003:000015bc       __crtBreakAlloc            004a55bc     LIBCMTD:dbgheap.obj
 0003:000015c8       ___badioinfo               004a55c8     LIBCMTD:ioinit.obj
 0003:00001778       ___nullstring              004a5778     LIBCMTD:output.obj
 0003:0000177c       ___wnullstring             004a577c     LIBCMTD:output.obj
 0003:00001780       __pfnAllocHook             004a5780     LIBCMTD:dbghook.obj
 0003:00001784       __crtAssertBusy            004a5784     LIBCMTD:dbgrptt.obj
 0003:00001788       __CrtDbgMode               004a5788     LIBCMTD:dbgrptt.obj
 0003:00001794       __CrtDbgFile               004a5794     LIBCMTD:dbgrptt.obj
 0003:000017a0       __NLG_Destination          004a57a0     LIBCMTD:exsup.obj
 0003:000017b0       ___clocalestr              004a57b0     LIBCMTD:nlsdata2.obj
 0003:000017b8       ___lc_time_c               004a57b8     LIBCMTD:nlsdata2.obj
 0003:00001920       ___initiallocinfo          004a5920     LIBCMTD:nlsdata2.obj
 0003:000019f8       ___ptlocinfo               004a59f8     LIBCMTD:nlsdata2.obj
 0003:000019fc       ___initiallocalestructinfo 004a59fc     LIBCMTD:nlsdata2.obj
 0003:00001a08       ___initialmbcinfo          004a5a08     LIBCMTD:mbctype.obj
 0003:00001c28       __mbctype                  004a5c28     LIBCMTD:mbctype.obj
 0003:00001d30       __mbcasemap                004a5d30     LIBCMTD:mbctype.obj
 0003:00001e30       ___ptmbcinfo               004a5e30     LIBCMTD:mbctype.obj
 0003:00001f30       ___globallocalestatus      004a5f30     LIBCMTD:glstatus.obj
 0003:00001f34       __cfltcvt_tab              004a5f34     LIBCMTD:cmiscdat.obj
 0003:00001f60       ___lconv_static_decimal    004a5f60     LIBCMTD:lconv.obj
 0003:00001f64       ___lconv_static_W_decimal  004a5f64     LIBCMTD:lconv.obj
 0003:00001f68       ___lconv_c                 004a5f68     LIBCMTD:lconv.obj
 0003:00001fb8       ___lconv                   004a5fb8     LIBCMTD:lconv.obj
 0003:00001fbc       __pctype                   004a5fbc     LIBCMTD:ctype.obj
 0003:00001fc0       __pwctype                  004a5fc0     LIBCMTD:ctype.obj
 0003:00001fc4       ___mb_cur_max              004a5fc4     LIBCMTD:nlsdata1.obj
 0003:00001fc8       ___decimal_point           004a5fc8     LIBCMTD:nlsdata1.obj
 0003:00001fcc       ___decimal_point_length    004a5fcc     LIBCMTD:nlsdata1.obj
 0003:00001fd0       __confh                    004a5fd0     LIBCMTD:initcon.obj
 0003:00001fe0       ?i2@@3VI@@A                004a5fe0     TestFifo.obj
 0003:00001fe4       ?i1@@3VI@@A                004a5fe4     TestFifo.obj
 0003:00001fe8       ?i4@@3VI@@A                004a5fe8     TestFifo.obj
 0003:00001fec       ?i3@@3VI@@A                004a5fec     TestFifo.obj
 0003:00001ff0       ?gFail@@3IA                004a5ff0     libTestFramework:TestFramework.obj
 0003:00001ff4       ?gLastSuccessfulFile@@3PBDB 004a5ff4     libTestFramework:TestFramework.obj
 0003:00001ff8       ?gPass@@3IA                004a5ff8     libTestFramework:TestFramework.obj
 0003:00001ffc       ?gLastSuccessfulLine@@3IA  004a5ffc     libTestFramework:TestFramework.obj
 0003:00002000       ?gAssertHandler@@3P6GXPBDI@ZA 004a6000     libohNetCore:Exception.obj
 0003:00002004       ?iLevel@Debug@OpenHome@@0IA 004a6004     libohNetCore:Debug.obj
 0003:00002008       ?iBreak@Debug@OpenHome@@0_NA 004a6008     libohNetCore:Debug.obj
 0003:00002044       ?gStackInitCount@@3IA      004a6044     libohNetCore:Stack.obj
 0003:00002048       ?gStack@@3PAVStack@Net@OpenHome@@A 004a6048     libohNetCore:Stack.obj
 0003:00002050       ?gRandomState@@3PAIA       004a6050     libohNetCore:Maths.obj
 0003:00002a10       ?gRandomIndex@@3IA         004a6a10     libohNetCore:Maths.obj
 0003:00002a14       ?gRandomSeedSet@@3_NA      004a6a14     libohNetCore:Maths.obj
 0003:00002a3c       ?kHeaderAcceptEncoding@Http@OpenHome@@2VBrn@2@B 004a6a3c     libohNetCore:Http.obj
 0003:00002a48       ?kHeaderHost@Http@OpenHome@@2VBrn@2@B 004a6a48     libohNetCore:Http.obj
 0003:00002a54       ?kSeeOther@HttpStatus@OpenHome@@2V12@B 004a6a54     libohNetCore:Http.obj
 0003:00002a64       ?kHeaderAcceptLanguage@Http@OpenHome@@2VBrn@2@B 004a6a64     libohNetCore:Http.obj
 0003:00002a70       ?kPreconditionFailed@HttpStatus@OpenHome@@2V12@B 004a6a70     libohNetCore:Http.obj
 0003:00002a80       ?kHeaderLocation@Http@OpenHome@@2VBrn@2@B 004a6a80     libohNetCore:Http.obj
 0003:00002a8c       ?kNotAcceptable@HttpStatus@OpenHome@@2V12@B 004a6a8c     libohNetCore:Http.obj
 0003:00002a9c       ?kTemporaryRedirect@HttpStatus@OpenHome@@2V12@B 004a6a9c     libohNetCore:Http.obj
 0003:00002aac       ?kOk@HttpStatus@OpenHome@@2V12@B 004a6aac     libohNetCore:Http.obj
 0003:00002abc       ?kHeaderPragma@Http@OpenHome@@2VBrn@2@B 004a6abc     libohNetCore:Http.obj
 0003:00002ac8       ?kHeaderConnection@Http@OpenHome@@2VBrn@2@B 004a6ac8     libohNetCore:Http.obj
 0003:00002ad4       ?kHeaderVia@Http@OpenHome@@2VBrn@2@B 004a6ad4     libohNetCore:Http.obj
 0003:00002ae0       ?kHeaderAcceptCharset@Http@OpenHome@@2VBrn@2@B 004a6ae0     libohNetCore:Http.obj
 0003:00002aec       ?kHeaderIfMatch@Http@OpenHome@@2VBrn@2@B 004a6aec     libohNetCore:Http.obj
 0003:00002af8       ?kHeaderTrailer@Http@OpenHome@@2VBrn@2@B 004a6af8     libohNetCore:Http.obj
 0003:00002b04       ?kHeaderContentLanguage@Http@OpenHome@@2VBrn@2@B 004a6b04     libohNetCore:Http.obj
 0003:00002b10       ?kMethodGet@Http@OpenHome@@2VBrn@2@B 004a6b10     libohNetCore:Http.obj
 0003:00002b1c       ?kHeaderContentType@Http@OpenHome@@2VBrn@2@B 004a6b1c     libohNetCore:Http.obj
 0003:00002b28       ?kNotFound@HttpStatus@OpenHome@@2V12@B 004a6b28     libohNetCore:Http.obj
 0003:00002b38       ?kHeaderWarning@Http@OpenHome@@2VBrn@2@B 004a6b38     libohNetCore:Http.obj
 0003:00002b44       ?kHeaderLastModified@Http@OpenHome@@2VBrn@2@B 004a6b44     libohNetCore:Http.obj
 0003:00002b50       ?kForbidden@HttpStatus@OpenHome@@2V12@B 004a6b50     libohNetCore:Http.obj
 0003:00002b60       ?kHeaderIfNoneMatch@Http@OpenHome@@2VBrn@2@B 004a6b60     libohNetCore:Http.obj
 0003:00002b6c       ?kHeaderUserAgent@Http@OpenHome@@2VBrn@2@B 004a6b6c     libohNetCore:Http.obj
 0003:00002b78       ?kHeaderServer@Http@OpenHome@@2VBrn@2@B 004a6b78     libohNetCore:Http.obj
 0003:00002b84       ?kSwitchingProtocols@HttpStatus@OpenHome@@2V12@B 004a6b84     libohNetCore:Http.obj
 0003:00002b94       ?kTransferEncodingIdentity@Http@OpenHome@@2VBrn@2@B 004a6b94     libohNetCore:Http.obj
 0003:00002ba0       ?kConflict@HttpStatus@OpenHome@@2V12@B 004a6ba0     libohNetCore:Http.obj
 0003:00002bb0       ?kMovedPermanently@HttpStatus@OpenHome@@2V12@B 004a6bb0     libohNetCore:Http.obj
 0003:00002bc0       ?kAccepted@HttpStatus@OpenHome@@2V12@B 004a6bc0     libohNetCore:Http.obj
 0003:00002bd0       ?kUnauthorized@HttpStatus@OpenHome@@2V12@B 004a6bd0     libohNetCore:Http.obj
 0003:00002be0       ?kHeaderETag@Http@OpenHome@@2VBrn@2@B 004a6be0     libohNetCore:Http.obj
 0003:00002bec       ?kMethodConnect@Http@OpenHome@@2VBrn@2@B 004a6bec     libohNetCore:Http.obj
 0003:00002bf8       ?kHeaderAllow@Http@OpenHome@@2VBrn@2@B 004a6bf8     libohNetCore:Http.obj
 0003:00002c04       ?kHeaderAuthorization@Http@OpenHome@@2VBrn@2@B 004a6c04     libohNetCore:Http.obj
 0003:00002c10       ?kMethodOptions@Http@OpenHome@@2VBrn@2@B 004a6c10     libohNetCore:Http.obj
 0003:00002c1c       ?kRequestTimeout@HttpStatus@OpenHome@@2V12@B 004a6c1c     libohNetCore:Http.obj
 0003:00002c2c       ?kContentLanguageEnglish@Http@OpenHome@@2VBrn@2@B 004a6c2c     libohNetCore:Http.obj
 0003:00002c38       ?kHeaderAge@Http@OpenHome@@2VBrn@2@B 004a6c38     libohNetCore:Http.obj
 0003:00002c44       ?kMethodExtension@Http@OpenHome@@2VBrn@2@B 004a6c44     libohNetCore:Http.obj
 0003:00002c50       ?kHeaderExpect@Http@OpenHome@@2VBrn@2@B 004a6c50     libohNetCore:Http.obj
 0003:00002c5c       ?kConnectionUpgrade@Http@OpenHome@@2VBrn@2@B 004a6c5c     libohNetCore:Http.obj
 0003:00002c68       ?kHeaderAccept@Http@OpenHome@@2VBrn@2@B 004a6c68     libohNetCore:Http.obj
 0003:00002c74       ?kHeaderFrom@Http@OpenHome@@2VBrn@2@B 004a6c74     libohNetCore:Http.obj
 0003:00002c80       ?kContinue@HttpStatus@OpenHome@@2V12@B 004a6c80     libohNetCore:Http.obj
 0003:00002c90       ?kHeaderRange@Http@OpenHome@@2VBrn@2@B 004a6c90     libohNetCore:Http.obj
 0003:00002c9c       ?kHeaderTe@Http@OpenHome@@2VBrn@2@B 004a6c9c     libohNetCore:Http.obj
 0003:00002ca8       ?kUnsupportedMediaType@HttpStatus@OpenHome@@2V12@B 004a6ca8     libohNetCore:Http.obj
 0003:00002cb8       ?kGatewayTimeout@HttpStatus@OpenHome@@2V12@B 004a6cb8     libohNetCore:Http.obj
 0003:00002cc8       ?kHeaderContentMd5@Http@OpenHome@@2VBrn@2@B 004a6cc8     libohNetCore:Http.obj
 0003:00002cd4       ?kMethodPut@Http@OpenHome@@2VBrn@2@B 004a6cd4     libohNetCore:Http.obj
 0003:00002ce0       ?kHeaderContentLength@Http@OpenHome@@2VBrn@2@B 004a6ce0     libohNetCore:Http.obj
 0003:00002cec       ?kHeaderContentEncoding@Http@OpenHome@@2VBrn@2@B 004a6cec     libohNetCore:Http.obj
 0003:00002cf8       ?kExpect100Continue@Http@OpenHome@@2VBrn@2@B 004a6cf8     libohNetCore:Http.obj
 0003:00002d04       ?kHttpVersionNotSupported@HttpStatus@OpenHome@@2V12@B 004a6d04     libohNetCore:Http.obj
 0003:00002d14       ?kBadRequest@HttpStatus@OpenHome@@2V12@B 004a6d14     libohNetCore:Http.obj
 0003:00002d24       ?kHeaderContentRange@Http@OpenHome@@2VBrn@2@B 004a6d24     libohNetCore:Http.obj
 0003:00002d30       ?kRangeSeparator@Http@OpenHome@@2VBrn@2@B 004a6d30     libohNetCore:Http.obj
 0003:00002d3c       ?kTransferEncodingChunked@Http@OpenHome@@2VBrn@2@B 004a6d3c     libohNetCore:Http.obj
 0003:00002d48       ?kRequestedRangeNotSatisfiable@HttpStatus@OpenHome@@2V12@B 004a6d48     libohNetCore:Http.obj
 0003:00002d58       ?kHeaderIfRange@Http@OpenHome@@2VBrn@2@B 004a6d58     libohNetCore:Http.obj
 0003:00002d64       ?kHeaderAcceptRanges@Http@OpenHome@@2VBrn@2@B 004a6d64     libohNetCore:Http.obj
 0003:00002d70       ?kHeaderTerminator@Http@OpenHome@@2VBrn@2@B 004a6d70     libohNetCore:Http.obj
 0003:00002d7c       ?kHeaderIfModifiedSince@Http@OpenHome@@2VBrn@2@B 004a6d7c     libohNetCore:Http.obj
 0003:00002d88       ?kCreated@HttpStatus@OpenHome@@2V12@B 004a6d88     libohNetCore:Http.obj
 0003:00002d98       ?kRequestEntityTooLarge@HttpStatus@OpenHome@@2V12@B 004a6d98     libohNetCore:Http.obj
 0003:00002da8       ?kHeaderContentLocation@Http@OpenHome@@2VBrn@2@B 004a6da8     libohNetCore:Http.obj
 0003:00002db4       ?kMethodPost@Http@OpenHome@@2VBrn@2@B 004a6db4     libohNetCore:Http.obj
 0003:00002dc0       ?kLengthRequired@HttpStatus@OpenHome@@2V12@B 004a6dc0     libohNetCore:Http.obj
 0003:00002dd0       ?kHeaderWwwAuthenticate@Http@OpenHome@@2VBrn@2@B 004a6dd0     libohNetCore:Http.obj
 0003:00002ddc       ?kValueZero@Http@OpenHome@@2VBrn@2@B 004a6ddc     libohNetCore:Http.obj
 0003:00002de8       ?kUseProxy@HttpStatus@OpenHome@@2V12@B 004a6de8     libohNetCore:Http.obj
 0003:00002df8       ?kExpectationFailure@HttpStatus@OpenHome@@2V12@B 004a6df8     libohNetCore:Http.obj
 0003:00002e08       ?kInternalServerError@HttpStatus@OpenHome@@2V12@B 004a6e08     libohNetCore:Http.obj
 0003:00002e18       ?kGone@HttpStatus@OpenHome@@2V12@B 004a6e18     libohNetCore:Http.obj
 0003:00002e28       ?kMethodTrace@Http@OpenHome@@2VBrn@2@B 004a6e28     libohNetCore:Http.obj
 0003:00002e34       ?kNoContent@HttpStatus@OpenHome@@2V12@B 004a6e34     libohNetCore:Http.obj
 0003:00002e44       ?kRangeBytes@Http@OpenHome@@2VBrn@2@B 004a6e44     libohNetCore:Http.obj
 0003:00002e50       ?kMethodHead@Http@OpenHome@@2VBrn@2@B 004a6e50     libohNetCore:Http.obj
 0003:00002e5c       ?kPartialContent@HttpStatus@OpenHome@@2V12@B 004a6e5c     libohNetCore:Http.obj
 0003:00002e6c       ?kHeaderProxyAuthenticate@Http@OpenHome@@2VBrn@2@B 004a6e6c     libohNetCore:Http.obj
 0003:00002e78       ?kMethodNotAllowed@HttpStatus@OpenHome@@2V12@B 004a6e78     libohNetCore:Http.obj
 0003:00002e88       ?kNotImplemented@HttpStatus@OpenHome@@2V12@B 004a6e88     libohNetCore:Http.obj
 0003:00002e98       ?kNotModified@HttpStatus@OpenHome@@2V12@B 004a6e98     libohNetCore:Http.obj
 0003:00002ea8       ?kServiceUnavailable@HttpStatus@OpenHome@@2V12@B 004a6ea8     libohNetCore:Http.obj
 0003:00002eb8       ?kChunkedCountSeparator@Http@OpenHome@@2VBrn@2@B 004a6eb8     libohNetCore:Http.obj
 0003:00002ec4       ?kHeaderIfUnmodifiedSince@Http@OpenHome@@2VBrn@2@B 004a6ec4     libohNetCore:Http.obj
 0003:00002ed0       ?kHeaderExpires@Http@OpenHome@@2VBrn@2@B 004a6ed0     libohNetCore:Http.obj
 0003:00002ee8       ?kHeaderSeparator@Http@OpenHome@@2VBrn@2@B 004a6ee8     libohNetCore:Http.obj
 0003:00002ef4       ?kHeaderRetryAfter@Http@OpenHome@@2VBrn@2@B 004a6ef4     libohNetCore:Http.obj
 0003:00002f00       ?kUriPrefix@Http@OpenHome@@2VBrn@2@B 004a6f00     libohNetCore:Http.obj
 0003:00002f0c       ?kConnectionClose@Http@OpenHome@@2VBrn@2@B 004a6f0c     libohNetCore:Http.obj
 0003:00002f18       ?kHeaderCacheControl@Http@OpenHome@@2VBrn@2@B 004a6f18     libohNetCore:Http.obj
 0003:00002f24       ?kHeaderMaxForwards@Http@OpenHome@@2VBrn@2@B 004a6f24     libohNetCore:Http.obj
 0003:00002f30       ?kNonAuthoritativeInformation@HttpStatus@OpenHome@@2V12@B 004a6f30     libohNetCore:Http.obj
 0003:00002f40       ?kRequestUriTooLarge@HttpStatus@OpenHome@@2V12@B 004a6f40     libohNetCore:Http.obj
 0003:00002f50       ?kHeaderDate@Http@OpenHome@@2VBrn@2@B 004a6f50     libohNetCore:Http.obj
 0003:00002f5c       ?kFound@HttpStatus@OpenHome@@2V12@B 004a6f5c     libohNetCore:Http.obj
 0003:00002f78       ?kHeaderTransferEncoding@Http@OpenHome@@2VBrn@2@B 004a6f78     libohNetCore:Http.obj
 0003:00002f84       ?kMethodDelete@Http@OpenHome@@2VBrn@2@B 004a6f84     libohNetCore:Http.obj
 0003:00002f90       ?kHeaderProxyAuthorization@Http@OpenHome@@2VBrn@2@B 004a6f90     libohNetCore:Http.obj
 0003:00002f9c       ?kResetContent@HttpStatus@OpenHome@@2V12@B 004a6f9c     libohNetCore:Http.obj
 0003:00002fb8       ?kPaymentRequired@HttpStatus@OpenHome@@2V12@B 004a6fb8     libohNetCore:Http.obj
 0003:00002fc8       ?kHeaderUpgrade@Http@OpenHome@@2VBrn@2@B 004a6fc8     libohNetCore:Http.obj
 0003:00002fd4       ?kProxyAuthenticationRequired@HttpStatus@OpenHome@@2V12@B 004a6fd4     libohNetCore:Http.obj
 0003:00002fe4       ?kBadGateway@HttpStatus@OpenHome@@2V12@B 004a6fe4     libohNetCore:Http.obj
 0003:00002ff4       ?kHeaderVary@Http@OpenHome@@2VBrn@2@B 004a6ff4     libohNetCore:Http.obj
 0003:00003000       ?kHeaderReferer@Http@OpenHome@@2VBrn@2@B 004a7000     libohNetCore:Http.obj
 0003:0000300c       ?kMultipleChoices@HttpStatus@OpenHome@@2V12@B 004a700c     libohNetCore:Http.obj
 0003:0000307c       ?kHeaderUsn@Ssdp@Net@OpenHome@@2VBrn@3@B 004a707c     libohNetCore:Ssdp.obj
 0003:00003088       ?kHeaderBootId@Ssdp@Net@OpenHome@@2VBrn@3@B 004a7088     libohNetCore:Ssdp.obj
 0003:00003094       ?kHeaderMan@Ssdp@Net@OpenHome@@2VBrn@3@B 004a7094     libohNetCore:Ssdp.obj
 0003:000030a0       ?kStatusOk@Ssdp@Net@OpenHome@@2VBrn@3@B 004a70a0     libohNetCore:Ssdp.obj
 0003:000030ac       ?kHeaderNts@Ssdp@Net@OpenHome@@2VBrn@3@B 004a70ac     libohNetCore:Ssdp.obj
 0003:000030b8       ?kHeaderCacheControl@Ssdp@Net@OpenHome@@2VBrn@3@B 004a70b8     libohNetCore:Ssdp.obj
 0003:000030c4       ?kDeviceSeparator@Ssdp@Net@OpenHome@@2VBrn@3@B 004a70c4     libohNetCore:Ssdp.obj
 0003:000030d0       ?kHeaderLocation@Ssdp@Net@OpenHome@@2VBrn@3@B 004a70d0     libohNetCore:Ssdp.obj
 0003:000030dc       ?kMulticastAddressAndPort@Ssdp@Net@OpenHome@@2VBrn@3@B 004a70dc     libohNetCore:Ssdp.obj
 0003:000030e8       ?kHeaderNt@Ssdp@Net@OpenHome@@2VBrn@3@B 004a70e8     libohNetCore:Ssdp.obj
 0003:000030f4       ?kMethodMsearch@Ssdp@Net@OpenHome@@2VBrn@3@B 004a70f4     libohNetCore:Ssdp.obj
 0003:00003100       ?kMethodUri@Ssdp@Net@OpenHome@@2VBrn@3@B 004a7100     libohNetCore:Ssdp.obj
 0003:0000310c       ?kHeaderConfigId@Ssdp@Net@OpenHome@@2VBrn@3@B 004a710c     libohNetCore:Ssdp.obj
 0003:00003118       ?kMethodNotify@Ssdp@Net@OpenHome@@2VBrn@3@B 004a7118     libohNetCore:Ssdp.obj
 0003:00003124       ?kHeaderSearchPort@Ssdp@Net@OpenHome@@2VBrn@3@B 004a7124     libohNetCore:Ssdp.obj
 0003:00003130       ?kUrn@Ssdp@Net@OpenHome@@2VBrn@3@B 004a7130     libohNetCore:Ssdp.obj
 0003:0000313c       ?kHeaderServer@Ssdp@Net@OpenHome@@2VBrn@3@B 004a713c     libohNetCore:Ssdp.obj
 0003:00003148       ?kHeaderSt@Ssdp@Net@OpenHome@@2VBrn@3@B 004a7148     libohNetCore:Ssdp.obj
 0003:00003178       ?kHeaderHost@Ssdp@Net@OpenHome@@2VBrn@3@B 004a7178     libohNetCore:Ssdp.obj
 0003:00003184       ?kServiceSeparator@Ssdp@Net@OpenHome@@2VBrn@3@B 004a7184     libohNetCore:Ssdp.obj
 0003:000031cc       ?kMulticastAddress@Ssdp@Net@OpenHome@@2VBrn@3@B 004a71cc     libohNetCore:Ssdp.obj
 0003:000031d8       ?kHeaderExt@Ssdp@Net@OpenHome@@2VBrn@3@B 004a71d8     libohNetCore:Ssdp.obj
 0003:000031e4       ?kHeaderMx@Ssdp@Net@OpenHome@@2VBrn@3@B 004a71e4     libohNetCore:Ssdp.obj
 0003:00003220       ?kHeaderNextBootId@Ssdp@Net@OpenHome@@2VBrn@3@B 004a7220     libohNetCore:Ssdp.obj
 0003:000032a4       __aenvptr                  004a72a4     LIBCMTD:crt0.obj
 0003:000032a8       __wenvptr                  004a72a8     LIBCMTD:crt0.obj
 0003:000032ac       ___error_mode              004a72ac     LIBCMTD:crt0.obj
 0003:000032b0       __cflush                   004a72b0     LIBCMTD:_file.obj
 0003:000032b4       ___pInvalidArgHandler      004a72b4     LIBCMTD:invarg.obj
 0003:000032b8       _gpFlsAlloc                004a72b8     LIBCMTD:tidtable.obj
 0003:000032bc       _gpFlsGetValue             004a72bc     LIBCMTD:tidtable.obj
 0003:000032c0       _gpFlsSetValue             004a72c0     LIBCMTD:tidtable.obj
 0003:000032c4       _gpFlsFree                 004a72c4     LIBCMTD:tidtable.obj
 0003:000032c8       ?__pInconsistency@@3P6AXXZA 004a72c8     LIBCMTD:hooks.obj
 0003:000032cc       ?wsprintffp@@3P6AHPADPBDZZA 004a72cc     LIBCMTD:_error_.obj
 0003:00003784       ?_pfnDumpClient@@3P6AXPAXI@ZA 004a7784     LIBCMTD:dbgheap.obj
 0003:0000378c       ___crtDebugCheckCount      004a778c     LIBCMTD:dbgheap.obj
 0003:00003794       ?_pnhHeap@@3P6AHI@ZA       004a7794     LIBCMTD:handler.obj
 0003:00003798       __umaskval                 004a7798     LIBCMTD:crt0dat.obj
 0003:0000379c       ___argc                    004a779c     LIBCMTD:crt0dat.obj
 0003:000037a0       ___argv                    004a77a0     LIBCMTD:crt0dat.obj
 0003:000037a4       ___wargv                   004a77a4     LIBCMTD:crt0dat.obj
 0003:000037a8       __environ                  004a77a8     LIBCMTD:crt0dat.obj
 0003:000037ac       ___initenv                 004a77ac     LIBCMTD:crt0dat.obj
 0003:000037b0       __wenviron                 004a77b0     LIBCMTD:crt0dat.obj
 0003:000037b4       ___winitenv                004a77b4     LIBCMTD:crt0dat.obj
 0003:000037b8       __pgmptr                   004a77b8     LIBCMTD:crt0dat.obj
 0003:000037bc       __wpgmptr                  004a77bc     LIBCMTD:crt0dat.obj
 0003:000037c0       __exitflag                 004a77c0     LIBCMTD:crt0dat.obj
 0003:000037c4       __C_Termination_Done       004a77c4     LIBCMTD:crt0dat.obj
 0003:000037c8       __C_Exit_Done              004a77c8     LIBCMTD:crt0dat.obj
 0003:000038d8       __crtheap                  004a78d8     LIBCMTD:heapinit.obj
 0003:00003f08       ___pPurecall               004a7f08     LIBCMTD:inithelp.obj
 0003:00003f34       __stdbuf                   004a7f34     LIBCMTD:_sftbuf.obj
 0003:00003f3c       __newmode                  004a7f3c     LIBCMTD:_newmode.obj
 0003:00003f44       ___mbulinfo                004a7f44     LIBCMTD:mbctype.obj
 0003:00003f50       ___mbcodepage              004a7f50     LIBCMTD:mbctype.obj
 0003:00003f54       ___ismbcodepage            004a7f54     LIBCMTD:mbctype.obj
 0003:00003f58       ___mblcid                  004a7f58     LIBCMTD:mbctype.obj
 0003:00003f78       ?pArgList@UnDecorator@@0PAVReplicator@@A 004a7f78     LIBCMTD:undname.obj
 0003:00003f7c       ?pZNameList@UnDecorator@@0PAVReplicator@@A 004a7f7c     LIBCMTD:undname.obj
 0003:00003f80       ?pTemplateArgList@UnDecorator@@0PAVReplicator@@A 004a7f80     LIBCMTD:undname.obj
 0003:00003f84       ?gName@UnDecorator@@0PBDB  004a7f84     LIBCMTD:undname.obj
 0003:00003f88       ?name@UnDecorator@@0PBDB   004a7f88     LIBCMTD:undname.obj
 0003:00003f8c       ?outputString@UnDecorator@@0PADA 004a7f8c     LIBCMTD:undname.obj
 0003:00003f90       ?maxStringLength@UnDecorator@@0HA 004a7f90     LIBCMTD:undname.obj
 0003:00003f94       ?disableFlags@UnDecorator@@0KA 004a7f94     LIBCMTD:undname.obj
 0003:00003f98       ?m_pGetParameter@UnDecorator@@0P6APADJ@ZA 004a7f98     LIBCMTD:undname.obj
 0003:00003f9c       ?fExplicitTemplateParams@UnDecorator@@0_NA 004a7f9c     LIBCMTD:undname.obj
 0003:00003f9d       ?fGetTemplateArgumentList@UnDecorator@@0_NA 004a7f9d     LIBCMTD:undname.obj
 0003:00003ff0       ?nodes@?1??make@DNameStatusNode@@SAPAV2@W4DNameStatus@@@Z@4PAV2@A 004a7ff0     LIBCMTD:undname.obj
 0003:00004020       ??_B?1??make@DNameStatusNode@@SAPAV1@W4DNameStatus@@@Z@51 004a8020     LIBCMTD:undname.obj
 0003:00004028       ___locale_changed          004a8028     LIBCMTD:setlocal.obj
 0003:00004030       ___lconv_static_null       004a8030     LIBCMTD:lconv.obj
 0003:00004034       ___lconv_static_W_null     004a8034     LIBCMTD:lconv.obj
 0003:0000404c       ___setlc_active            004a804c     <common>
 0003:00004050       ___unguarded_readlc_active 004a8050     <common>
 0003:00004054       __pfnReportHook            004a8054     <common>
 0003:00004058       __pReportHookListW         004a8058     <common>
 0003:0000405c       __pReportHookList          004a805c     <common>
 0003:00004060       __debugger_hook_dummy      004a8060     <common>
 0003:00004064       __nhandle                  004a8064     <common>
 0003:00004080       ___pioinfo                 004a8080     <common>
 0003:00004180       ___env_initialized         004a8180     <common>
 0003:00004184       ___onexitend               004a8184     <common>
 0003:00004188       ___onexitbegin             004a8188     <common>
 0003:0000418c       ___mbctype_initialized     004a818c     <common>
 0003:00004190       __FPinit                   004a8190     <common>
 0003:00004194       ___dyn_tls_init_callback   004a8194     <common>
 0003:00004198       ___sse2_available          004a8198     <common>
 0003:0000419c       ___piob                    004a819c     <common>
 0003:000041a0       __bufin                    004a81a0     <common>
 0003:000051a0       __nstream                  004a91a0     <common>
 0003:000051a4       __acmdln                   004a91a4     <common>
 0003:000051a8       __NoHeapEnableTerminationOnCorruption 004a91a8     <common>

 entry point at        0001:0003cf60

 Static symbols

 0001:fffff000       __unwindfunclet$?_Adopt@_Iterator_base12@std@@QAEXPBU_Container_base12@2@@Z$0 00400000 f   libohNetCore:Discovery.obj
 0001:fffff000       __unwindfunclet$??0Brv@OpenHome@@IAE@XZ$0 00400000 f   libohNetCore:Buffer.obj
 0001:fffff000       __unwindfunclet$??1_Iterator_base12@std@@QAE@XZ$0 00400000 f   libohNetCore:Discovery.obj
 0001:fffff000       __unwindfunclet$??$_Construct@PAVNetworkAdapter@OpenHome@@ABQAV12@@std@@YGXPAPAVNetworkAdapter@OpenHome@@ABQAV12@@Z$0 00400000 f   libohNetCore:OsWrapper.obj
 0001:fffff000       __unwindfunclet$?construct@?$allocator@U_Container_proxy@std@@@std@@QAEXPAU_Container_proxy@2@$$QAU32@@Z$0 00400000 f   libohNetCore:Discovery.obj
 0001:fffff000       __unwindfunclet$??1FifoBase@OpenHome@@QAE@XZ$0 00400000 f   libohNetCore:Fifo.obj
 0001:fffff000       __unwindfunclet$??0Brn@OpenHome@@QAE@ABV01@@Z$0 00400000 f   libohNetCore:Http.obj
 0001:fffff000       __unwindfunclet$??$construct@AAPAVNetworkAdapter@OpenHome@@@?$allocator@PAVNetworkAdapter@OpenHome@@@std@@QAEXPAPAVNetworkAdapter@OpenHome@@AAPAV23@@Z$0 00400000 f   libohNetCore:OsWrapper.obj
 0001:fffff000       __unwindfunclet$??1WriterHttpHeader@OpenHome@@UAE@XZ$0 00400000 f   libohNetCore:Http.obj
 0001:fffff000       __unwindfunclet$?construct@?$allocator@U_Container_proxy@std@@@std@@QAEXPAU_Container_proxy@2@$$QAU32@@Z$0 00400000 f   libohNetCore:OsWrapper.obj
 0001:fffff000       __unwindfunclet$??1WriterHttpRequest@OpenHome@@UAE@XZ$0 00400000 f   libohNetCore:Http.obj
 0001:fffff000       __ehhandler$?reserve@?$vector@PAVNetworkAdapter@OpenHome@@V?$allocator@PAVNetworkAdapter@OpenHome@@@std@@@std@@QAEXI@Z 00400000 f   libohNetCore:OsWrapper.obj
 0001:fffff000       __unwindfunclet$??1Swx@OpenHome@@UAE@XZ$0 00400000 f   libohNetCore:Http.obj
 0001:fffff000       __unwindfunclet$??0?$_Vector_val@PAVNetworkAdapter@OpenHome@@V?$allocator@PAVNetworkAdapter@OpenHome@@@std@@@std@@QAE@V?$allocator@PAVNetworkAdapter@OpenHome@@@1@@Z$0 00400000 f   libohNetCore:OsWrapper.obj
 0001:fffff000       __unwindfunclet$??1?$vector@PAVIHttpHeader@OpenHome@@V?$allocator@PAVIHttpHeader@OpenHome@@@std@@@std@@QAE@XZ$0 00400000 f   libohNetCore:Http.obj
 0001:fffff000       __unwindfunclet$?_Orphan_range@?$vector@PAVNetworkAdapter@OpenHome@@V?$allocator@PAVNetworkAdapter@OpenHome@@@std@@@std@@IBEXPAPAVNetworkAdapter@OpenHome@@0@Z$0 00400000 f   libohNetCore:OsWrapper.obj
 0001:fffff000       __unwindfunclet$??1?$vector@PBVBrx@OpenHome@@V?$allocator@PBVBrx@OpenHome@@@std@@@std@@QAE@XZ$0 00400000 f   libohNetCore:Http.obj
 0001:fffff000       __unwindfunclet$??0Brn@OpenHome@@QAE@ABV01@@Z$0 00400000 f   libohNetCore:OsWrapper.obj
 0001:fffff000       __unwindfunclet$??1?$_Vector_val@PAVIHttpHeader@OpenHome@@V?$allocator@PAVIHttpHeader@OpenHome@@@std@@@std@@QAE@XZ$0 00400000 f   libohNetCore:Http.obj
 0001:fffff000       __unwindfunclet$??0Brv@OpenHome@@IAE@XZ$0 00400000 f   libohNetCore:OhNet.obj
 0001:fffff000       __unwindfunclet$??1?$_Vector_val@PBVBrx@OpenHome@@V?$allocator@PBVBrx@OpenHome@@@std@@@std@@QAE@XZ$0 00400000 f   libohNetCore:Http.obj
 0001:fffff000       __unwindfunclet$??1Swx@OpenHome@@UAE@XZ$0 00400000 f   libohNetCore:Stream.obj
 0001:fffff000       __unwindfunclet$?construct@?$allocator@U_Container_proxy@std@@@std@@QAEXPAU_Container_proxy@2@$$QAU32@@Z$0 00400000 f   libohNetCore:Http.obj
 0001:fffff000       __unwindfunclet$??1_Iterator_base12@std@@QAE@XZ$0 00400000 f   libohNetCore:NetworkAdapterList.obj
 0001:fffff000       __unwindfunclet$??0Brn@OpenHome@@QAE@ABV01@@Z$0 00400000 f   libohNetCore:Stream.obj
 0001:fffff000       __unwindfunclet$?_Adopt@_Iterator_base12@std@@QAEXPBU_Container_base12@2@@Z$0 00400000 f   libohNetCore:NetworkAdapterList.obj
 0001:fffff000       __unwindfunclet$??1Srx@OpenHome@@UAE@XZ$0 00400000 f   libohNetCore:Stream.obj
 0001:fffff000       __unwindfunclet$??1?$vector@PAVNetworkAdapter@OpenHome@@V?$allocator@PAVNetworkAdapter@OpenHome@@@std@@@std@@QAE@XZ$0 00400000 f   libohNetCore:NetworkAdapterList.obj
 0001:fffff000       __unwindfunclet$??0Brn@OpenHome@@QAE@ABVBrx@1@@Z$0 00400000 f   libohNetCore:Parser.obj
 0001:fffff000       __unwindfunclet$??1?$_Vector_val@PAVNetworkAdapter@OpenHome@@V?$allocator@PAVNetworkAdapter@OpenHome@@@std@@@std@@QAE@XZ$0 00400000 f   libohNetCore:NetworkAdapterList.obj
 0001:fffff000       __unwindfunclet$??0Brn@OpenHome@@QAE@ABV01@@Z$0 00400000 f   libohNetCore:Parser.obj
 0001:fffff000       __unwindfunclet$?construct@?$allocator@U_Container_proxy@std@@@std@@QAEXPAU_Container_proxy@2@$$QAU32@@Z$0 00400000 f   libohNetCore:NetworkAdapterList.obj
 0001:fffff000       __unwindfunclet$?construct@?$allocator@U_Container_proxy@std@@@std@@QAEXPAU_Container_proxy@2@$$QAU32@@Z$0 00400000 f   libohNetCore:Network.obj
 0001:fffff000       __unwindfunclet$??0Brn@OpenHome@@QAE@ABV01@@Z$0 00400000 f   libohNetCore:Ascii.obj
 0001:fffff008       __ehhandler$??0Brn@OpenHome@@QAE@ABV01@@Z 00400008 f   libohNetCore:Parser.obj
 0001:fffff008       __ehhandler$??1?$vector@PAVNetworkAdapter@OpenHome@@V?$allocator@PAVNetworkAdapter@OpenHome@@@std@@@std@@QAE@XZ 00400008 f   libohNetCore:NetworkAdapterList.obj
 0001:fffff008       __ehhandler$??0Brn@OpenHome@@QAE@ABVBrx@1@@Z 00400008 f   libohNetCore:Parser.obj
 0001:fffff008       __ehhandler$?_Adopt@_Iterator_base12@std@@QAEXPBU_Container_base12@2@@Z 00400008 f   libohNetCore:NetworkAdapterList.obj
 0001:fffff008       __ehhandler$??1Srx@OpenHome@@UAE@XZ 00400008 f   libohNetCore:Stream.obj
 0001:fffff008       __ehhandler$??1_Iterator_base12@std@@QAE@XZ 00400008 f   libohNetCore:NetworkAdapterList.obj
 0001:fffff008       __ehhandler$??0Brn@OpenHome@@QAE@ABV01@@Z 00400008 f   libohNetCore:Stream.obj
 0001:fffff008       __ehhandler$??1?$_Vector_val@PBVBrx@OpenHome@@V?$allocator@PBVBrx@OpenHome@@@std@@@std@@QAE@XZ 00400008 f   libohNetCore:Http.obj
 0001:fffff008       __ehhandler$??1Swx@OpenHome@@UAE@XZ 00400008 f   libohNetCore:Stream.obj
 0001:fffff008       __ehhandler$??1?$_Vector_val@PAVIHttpHeader@OpenHome@@V?$allocator@PAVIHttpHeader@OpenHome@@@std@@@std@@QAE@XZ 00400008 f   libohNetCore:Http.obj
 0001:fffff008       __ehhandler$??0Brv@OpenHome@@IAE@XZ 00400008 f   libohNetCore:OhNet.obj
 0001:fffff008       __ehhandler$??1?$vector@PBVBrx@OpenHome@@V?$allocator@PBVBrx@OpenHome@@@std@@@std@@QAE@XZ 00400008 f   libohNetCore:Http.obj
 0001:fffff008       __ehhandler$??0Brn@OpenHome@@QAE@ABV01@@Z 00400008 f   libohNetCore:OsWrapper.obj
 0001:fffff008       __ehhandler$??1?$vector@PAVIHttpHeader@OpenHome@@V?$allocator@PAVIHttpHeader@OpenHome@@@std@@@std@@QAE@XZ 00400008 f   libohNetCore:Http.obj
 0001:fffff008       __ehhandler$?_Orphan_range@?$vector@PAVNetworkAdapter@OpenHome@@V?$allocator@PAVNetworkAdapter@OpenHome@@@std@@@std@@IBEXPAPAVNetworkAdapter@OpenHome@@0@Z 00400008 f   libohNetCore:OsWrapper.obj
 0001:fffff008       __ehhandler$??1Swx@OpenHome@@UAE@XZ 00400008 f   libohNetCore:Http.obj
 0001:fffff008       __ehhandler$??0?$_Vector_val@PAVNetworkAdapter@OpenHome@@V?$allocator@PAVNetworkAdapter@OpenHome@@@std@@@std@@QAE@V?$allocator@PAVNetworkAdapter@OpenHome@@@1@@Z 00400008 f   libohNetCore:OsWrapper.obj
 0001:fffff008       __ehhandler$??1WriterHttpRequest@OpenHome@@UAE@XZ 00400008 f   libohNetCore:Http.obj
 0001:fffff008       __ehhandler$??1WriterHttpHeader@OpenHome@@UAE@XZ 00400008 f   libohNetCore:Http.obj
 0001:fffff008       __ehhandler$??0Brn@OpenHome@@QAE@ABV01@@Z 00400008 f   libohNetCore:Http.obj
 0001:fffff008       __ehhandler$??1_Iterator_base12@std@@QAE@XZ 00400008 f   libohNetCore:Discovery.obj
 0001:fffff008       __ehhandler$??0Brv@OpenHome@@IAE@XZ 00400008 f   libohNetCore:Buffer.obj
 0001:fffff008       __ehhandler$?_Adopt@_Iterator_base12@std@@QAEXPBU_Container_base12@2@@Z 00400008 f   libohNetCore:Discovery.obj
 0001:fffff008       __ehhandler$??0Brn@OpenHome@@QAE@ABV01@@Z 00400008 f   libohNetCore:Ascii.obj
 0001:fffff008       __ehhandler$??1?$_Vector_val@PAVNetworkAdapter@OpenHome@@V?$allocator@PAVNetworkAdapter@OpenHome@@@std@@@std@@QAE@XZ 00400008 f   libohNetCore:NetworkAdapterList.obj
 0001:fffff00b       __unwindfunclet$??1FifoBase@OpenHome@@QAE@XZ$1 0040000b f   libohNetCore:Fifo.obj
 0001:fffff011       __ehhandler$?construct@?$allocator@U_Container_proxy@std@@@std@@QAEXPAU_Container_proxy@2@$$QAU32@@Z 00400011 f   libohNetCore:Discovery.obj
 0001:fffff011       __ehhandler$?construct@?$allocator@U_Container_proxy@std@@@std@@QAEXPAU_Container_proxy@2@$$QAU32@@Z 00400011 f   libohNetCore:Http.obj
 0001:fffff011       __ehhandler$?construct@?$allocator@U_Container_proxy@std@@@std@@QAEXPAU_Container_proxy@2@$$QAU32@@Z 00400011 f   libohNetCore:NetworkAdapterList.obj
 0001:fffff011       __ehhandler$??$_Construct@PAVNetworkAdapter@OpenHome@@ABQAV12@@std@@YGXPAPAVNetworkAdapter@OpenHome@@ABQAV12@@Z 00400011 f   libohNetCore:OsWrapper.obj
 0001:fffff011       __ehhandler$??$construct@AAPAVNetworkAdapter@OpenHome@@@?$allocator@PAVNetworkAdapter@OpenHome@@@std@@QAEXPAPAVNetworkAdapter@OpenHome@@AAPAV23@@Z 00400011 f   libohNetCore:OsWrapper.obj
 0001:fffff011       __ehhandler$?construct@?$allocator@U_Container_proxy@std@@@std@@QAEXPAU_Container_proxy@2@$$QAU32@@Z 00400011 f   libohNetCore:OsWrapper.obj
 0001:fffff011       __ehhandler$?construct@?$allocator@U_Container_proxy@std@@@std@@QAEXPAU_Container_proxy@2@$$QAU32@@Z 00400011 f   libohNetCore:Network.obj
 0001:fffff016       __ehhandler$??1FifoBase@OpenHome@@QAE@XZ 00400016 f   libohNetCore:Fifo.obj
 0001:fffff0a4       __catch$?reserve@?$vector@PAVNetworkAdapter@OpenHome@@V?$allocator@PAVNetworkAdapter@OpenHome@@@std@@@std@@QAEXI@Z$0 004000a4 f   libohNetCore:OsWrapper.obj
 0001:0000044e       __catch$?Test@SuiteFifoBasic@@UAEXXZ$0 0040144e f   TestFifo.obj
 0001:00000587       __catch$?Test@SuiteFifoBasic@@UAEXXZ$2 00401587 f   TestFifo.obj
 0001:0000085c       __catch$?Test@SuiteFifoBasic@@UAEXXZ$4 0040185c f   TestFifo.obj
 0001:00000a5f       __catch$?Test@SuiteFifoBasic@@UAEXXZ$6 00401a5f f   TestFifo.obj
 0001:00003b32       __catch$?Run@Runner@TestFramework@OpenHome@@QAEXXZ$0 00404b32 f   libTestFramework:TestFramework.obj
 0001:00003b94       __catch$?Run@Runner@TestFramework@OpenHome@@QAEXXZ$1 00404b94 f   libTestFramework:TestFramework.obj
 0001:00005b1e       __catch$?EntryPoint@Thread@OpenHome@@CGXPAX@Z$0 00406b1e f   libohNetCore:Thread.obj
 0001:00005b64       __catch$?EntryPoint@Thread@OpenHome@@CGXPAX@Z$1 00406b64 f   libohNetCore:Thread.obj
 0001:00005b7a       __catch$?EntryPoint@Thread@OpenHome@@CGXPAX@Z$2 00406b7a f   libohNetCore:Thread.obj
 0001:00005b90       __catch$?EntryPoint@Thread@OpenHome@@CGXPAX@Z$3 00406b90 f   libohNetCore:Thread.obj
 0001:00005d45       __catch$?Sleep@Thread@OpenHome@@SGXI@Z$0 00406d45 f   libohNetCore:Thread.obj
 0001:00006dc0       ?CallFatalErrorHandler@@YGXPBD@Z 00407dc0 f   libohNetCore:Exception.obj
 0001:00008360       ?BaseInit@@YGXPAVInitialisationParams@Net@OpenHome@@@Z 00409360 f   libohNetCore:OhNet.obj
 0001:00009b40       _CreateHandle@4            0040ab40 f   libohNetCore:Os.obj
 0001:00009ca0       _sockaddrFromEndpoint@12   0040aca0 f   libohNetCore:Os.obj
 0001:00009f50       _SocketInterrupted@4       0040af50 f   libohNetCore:Os.obj
 0001:00009f90       _SetSocketNonBlocking@4    0040af90 f   libohNetCore:Os.obj
 0001:0000c8b9       __catch$?Run@TimerManager@OpenHome@@AAEXXZ$0 0040d8b9 f   libohNetCore:Timer.obj
 0001:0000d609       __catch$?Replace@Bwx@OpenHome@@QAEXABVBrx@2@@Z$0 0040e609 f   libohNetCore:Buffer.obj
 0001:0000ecd0       _time                      0040fcd0 f   libohNetCore:Stack.obj
 0001:000143b4       __catch$?reserve@?$vector@PAVMListener@Stack@Net@OpenHome@@V?$allocator@PAVMListener@Stack@Net@OpenHome@@@std@@@std@@QAEXI@Z$0 004153b4 f i libohNetCore:Stack.obj
 0001:00017b0f       __catch$??$_Buynode@U?$pair@VBrn@OpenHome@@PAVObjectType@Stack@Net@2@@std@@@?$_Tree_val@V?$_Tmap_traits@VBrn@OpenHome@@PAVObjectType@Stack@Net@2@VBufferCmp@2@V?$allocator@U?$pair@$$CBVBrn@OpenHome@@PAVObjectType@Stack@Net@2@@std@@@std@@$0A@@std@@@std@@QAEPAU_Node@?$_Tree_nod@V?$_Tmap_traits@VBrn@OpenHome@@PAVObjectType@Stack@Net@2@VBufferCmp@2@V?$allocator@U?$pair@$$CBVBrn@OpenHome@@PAVObjectType@Stack@Net@2@@std@@@std@@$0A@@std@@@1@$$QAU?$pair@VBrn@OpenHome@@PAVObjectType@Stack@Net@2@@1@@Z$0 00418b0f f i libohNetCore:Stack.obj
 0001:00017c5f       __catch$??$_Buynode@U?$pair@PAXPAX@std@@@?$_Tree_val@V?$_Tmap_traits@PAXPAXU?$less@PAX@std@@V?$allocator@U?$pair@QAXPAX@std@@@2@$0A@@std@@@std@@QAEPAU_Node@?$_Tree_nod@V?$_Tmap_traits@PAXPAXU?$less@PAX@std@@V?$allocator@U?$pair@QAXPAX@std@@@2@$0A@@std@@@1@$$QAU?$pair@PAXPAX@1@@Z$0 00418c5f f i libohNetCore:Stack.obj
 0001:00018920       ?GetHostByName@@YGIABVBrx@OpenHome@@@Z 00419920 f   libohNetCore:Network.obj
 0001:0001a3b9       __catch$?Write@SocketTcp@OpenHome@@UAEXABVBrx@2@@Z$0 0041b3b9 f   libohNetCore:Network.obj
 0001:0001a4ea       __catch$?Read@SocketTcp@OpenHome@@UAEXAAVBwx@2@@Z$0 0041b4ea f   libohNetCore:Network.obj
 0001:0001a6c0       ?SocketCreate@@YGPAXW4ESocketType@OpenHome@@@Z 0041b6c0 f   libohNetCore:Network.obj
 0001:0001a9bb       __catch$?Add@SocketTcpServer@OpenHome@@QAEXPBDPAVSocketTcpSession@2@H@Z$0 0041b9bb f   libohNetCore:Network.obj
 0001:0001ab4e       __catch$?Accept@SocketTcpServer@OpenHome@@AAEPAXXZ$0 0041bb4e f   libohNetCore:Network.obj
 0001:0001b019       __catch$?Start@SocketTcpSession@OpenHome@@AAEXXZ$0 0041c019 f   libohNetCore:Network.obj
 0001:0001b0c1       __catch$?Start@SocketTcpSession@OpenHome@@AAEXXZ$2 0041c0c1 f   libohNetCore:Network.obj
 0001:0001b118       __catch$?Start@SocketTcpSession@OpenHome@@AAEXXZ$4 0041c118 f   libohNetCore:Network.obj
 0001:0001b3a4       __catch$?Close@SocketTcpSession@OpenHome@@AAEXXZ$0 0041c3a4 f   libohNetCore:Network.obj
 0001:0001bf16       __catch$?Read@UdpReader@OpenHome@@UAEXAAVBwx@2@@Z$0 0041cf16 f   libohNetCore:Network.obj
 0001:0001c185       __catch$?Write@UdpWriter@OpenHome@@UAEXABVBrx@2@@Z$0 0041d185 f   libohNetCore:Network.obj
 0001:0001d1b4       __catch$?reserve@?$vector@PAVSocketTcpSession@OpenHome@@V?$allocator@PAVSocketTcpSession@OpenHome@@@std@@@std@@QAEXI@Z$0 0041e1b4 f i libohNetCore:Network.obj
 0001:000209c4       __catch$?reserve@?$vector@PAVNetworkAdapter@OpenHome@@V?$allocator@PAVNetworkAdapter@OpenHome@@@std@@@std@@QAEXI@Z$0 004219c4 f i libohNetCore:NetworkAdapterList.obj
 0001:0002229f       __catch$??$_Buynode@U?$pair@IVFunctor@OpenHome@@@std@@@?$_Tree_val@V?$_Tmap_traits@IVFunctor@OpenHome@@U?$less@I@std@@V?$allocator@U?$pair@$$CBIVFunctor@OpenHome@@@std@@@4@$0A@@std@@@std@@QAEPAU_Node@?$_Tree_nod@V?$_Tmap_traits@IVFunctor@OpenHome@@U?$less@I@std@@V?$allocator@U?$pair@$$CBIVFunctor@OpenHome@@@std@@@4@$0A@@std@@@1@$$QAU?$pair@IVFunctor@OpenHome@@@1@@Z$0 0042329f f i libohNetCore:NetworkAdapterList.obj
 0001:0002410d       __catch$?Run@SsdpListenerMulticast@Net@OpenHome@@EAEXXZ$0 0042510d f   libohNetCore:Discovery.obj
 0001:00024135       __catch$?Run@SsdpListenerMulticast@Net@OpenHome@@EAEXXZ$1 00425135 f   libohNetCore:Discovery.obj
 0001:0002415d       __catch$?Run@SsdpListenerMulticast@Net@OpenHome@@EAEXXZ$2 0042515d f   libohNetCore:Discovery.obj
 0001:000261b7       __catch$?Run@SsdpListenerUnicast@Net@OpenHome@@EAEXXZ$0 004271b7 f   libohNetCore:Discovery.obj
 0001:000261df       __catch$?Run@SsdpListenerUnicast@Net@OpenHome@@EAEXXZ$1 004271df f   libohNetCore:Discovery.obj
 0001:0002620d       __catch$?Run@SsdpListenerUnicast@Net@OpenHome@@EAEXXZ$2 0042720d f   libohNetCore:Discovery.obj
 0001:00029d14       __catch$?reserve@?$vector@PAVNotifyHandler@SsdpListenerMulticast@Net@OpenHome@@V?$allocator@PAVNotifyHandler@SsdpListenerMulticast@Net@OpenHome@@@std@@@std@@QAEXI@Z$0 0042ad14 f i libohNetCore:Discovery.obj
 0001:00029fe4       __catch$?reserve@?$vector@PAVMsearchHandler@SsdpListenerMulticast@Net@OpenHome@@V?$allocator@PAVMsearchHandler@SsdpListenerMulticast@Net@OpenHome@@@std@@@std@@QAEXI@Z$0 0042afe4 f i libohNetCore:Discovery.obj
 0001:00030e69       __catch$?ProcessStatus@ReaderHttpResponse@OpenHome@@MAEXABVBrx@2@00@Z$0 00431e69 f   libohNetCore:Http.obj
 0001:00031a73       __catch$?Process@HttpHeaderHost@OpenHome@@EAEXABVBrx@2@@Z$0 00432a73 f   libohNetCore:Http.obj
 0001:00031ad9       __catch$?Process@HttpHeaderHost@OpenHome@@EAEXABVBrx@2@@Z$1 00432ad9 f   libohNetCore:Http.obj
 0001:00031c74       __catch$?Process@HttpHeaderLocation@OpenHome@@EAEXABVBrx@2@@Z$0 00432c74 f   libohNetCore:Http.obj
 0001:00031df3       __catch$?Process@HttpHeaderContentType@OpenHome@@EAEXABVBrx@2@@Z$0 00432df3 f   libohNetCore:Http.obj
 0001:000320e0       __catch$?Process@HttpHeaderContentLength@OpenHome@@EAEXABVBrx@2@@Z$0 004330e0 f   libohNetCore:Http.obj
 0001:000325d2       __catch$?Read@ReaderHttpChunked@OpenHome@@QAEXXZ$0 004335d2 f   libohNetCore:Http.obj
 0001:00033d74       __catch$?reserve@?$vector@PAVIHttpHeader@OpenHome@@V?$allocator@PAVIHttpHeader@OpenHome@@@std@@@std@@QAEXI@Z$0 00434d74 f i libohNetCore:Http.obj
 0001:00034014       __catch$?reserve@?$vector@PBVBrx@OpenHome@@V?$allocator@PBVBrx@OpenHome@@@std@@@std@@QAEXI@Z$0 00435014 f i libohNetCore:Http.obj
 0001:00036180       __catch$?ParseUrn@Ssdp@Net@OpenHome@@CG_NABVBrx@3@0AAVBrn@3@1AAI@Z$0 00437180 f   libohNetCore:Ssdp.obj
 0001:000363ba       __catch$?Process@SsdpHeaderCacheControl@Net@OpenHome@@EAEXABVBrx@3@@Z$0 004373ba f   libohNetCore:Ssdp.obj
 0001:000368b2       __catch$?Process@SsdpHeaderSt@Net@OpenHome@@EAEXABVBrx@3@@Z$0 004378b2 f   libohNetCore:Ssdp.obj
 0001:00036f82       __catch$?Process@SsdpHeaderNt@Net@OpenHome@@EAEXABVBrx@3@@Z$0 00437f82 f   libohNetCore:Ssdp.obj
 0001:00037864       __catch$?Process@SsdpHeaderUsn@Net@OpenHome@@EAEXABVBrx@3@@Z$0 00438864 f   libohNetCore:Ssdp.obj
 0001:00037ed0       __catch$?Process@SsdpHeaderMx@Net@OpenHome@@EAEXABVBrx@3@@Z$0 00438ed0 f   libohNetCore:Ssdp.obj
 0001:00038fbb       __catch$?Write@Swx@OpenHome@@UAEXABVBrx@2@@Z$0 00439fbb f   libohNetCore:Stream.obj
 0001:0003910d       __catch$?WriteDrain@Swx@OpenHome@@AAEXXZ$0 0043a10d f   libohNetCore:Stream.obj
 0001:0003c360       ?CatchGuardHandler@@YA?AW4_EXCEPTION_DISPOSITION@@PAUEHExceptionRecord@@PAUCatchGuardRN@@PAX2@Z 0043d360 f   LIBCMTD:_trnsctrl_.obj
 0001:0003c4a0       ?TranslatorGuardHandler@@YA?AW4_EXCEPTION_DISPOSITION@@PAUEHExceptionRecord@@PAUTranslatorGuardRN@@PAX2@Z 0043d4a0 f   LIBCMTD:_trnsctrl_.obj
 0001:0003cf80       ___tmainCRTStartup         0043df80 f   LIBCMTD:crt0.obj
 0001:0003d120       _fast_error_exit           0043e120 f   LIBCMTD:crt0.obj
 0001:0003d150       _check_managed_app         0043e150 f   LIBCMTD:crt0.obj
 0001:0003de80       _swprintf                  0043ee80 f   LIBCMTD:wassert.obj
 0001:0003e310       __getenv_s_helper          0043f310 f   LIBCMTD:getenv.obj
 0001:0003e580       __dupenv_s_helper          0043f580 f   LIBCMTD:getenv.obj
 0001:0003ee20       ?ArrayUnwindFilter@@YAHPAU_EXCEPTION_POINTERS@@@Z 0043fe20 f   LIBCMTD:ehvecdtr.obj
 0001:0003f2c0       _flsall                    004402c0 f   LIBCMTD:fflush.obj
 0001:00040990       _cmpBYTE                   00441990 f   LIBCMTD:memcmp.obj
 0001:000409c0       _cmpResult                 004419c0 f   LIBCMTD:memcmp.obj
 0001:000409e0       _unaligned_memcmp          004419e0 f   LIBCMTD:memcmp.obj
 0001:000410f0       _cmpWORD                   004420f0 f   LIBCMTD:memcmp.obj
 0001:00041170       _cmpDWORD                  00442170 f   LIBCMTD:memcmp.obj
 0001:00041630       __onexit_nolock            00442630 f   LIBCMTD:onexit.obj
 0001:00041cc0       ?FindHandler@@YAXPAUEHExceptionRecord@@PAUEHRegistrationNode@@PAU_CONTEXT@@PAXPBU_s_FuncInfo@@EH1@Z 00442cc0 f   LIBCMTD:frame.obj
 0001:00042210       ?FindHandlerForForeignException@@YAXPAUEHExceptionRecord@@PAUEHRegistrationNode@@PAU_CONTEXT@@PAXPBU_s_FuncInfo@@HH1@Z 00443210 f   LIBCMTD:frame.obj
 0001:00042650       ?CatchIt@@YAXPAUEHExceptionRecord@@PAUEHRegistrationNode@@PAU_CONTEXT@@PAXPBU_s_FuncInfo@@PBU_s_HandlerType@@PBU_s_CatchableType@@PBU_s_TryBlockMapEntry@@H1E@Z 00443650 f   LIBCMTD:frame.obj
 0001:00042710       ?CallCatchBlock@@YAPAXPAUEHExceptionRecord@@PAUEHRegistrationNode@@PAU_CONTEXT@@PBU_s_FuncInfo@@PAXHK@Z 00443710 f   LIBCMTD:frame.obj
 0001:000429a0       ?ExFilterRethrow@@YAHPAU_EXCEPTION_POINTERS@@@Z 004439a0 f   LIBCMTD:frame.obj
 0001:00043610       ?IsInExceptionSpec@@YAEPAUEHExceptionRecord@@PBU_s_ESTypeList@@@Z 00444610 f   LIBCMTD:frame.obj
 0001:000436d0       ?CallUnexpected@@YAXPBU_s_ESTypeList@@@Z 004446d0 f   LIBCMTD:frame.obj
 0001:0004371e       __catch$?CallUnexpected@@YAXPBU_s_ESTypeList@@@Z$0 0044471e f   LIBCMTD:frame.obj
 0001:00043760       ?Is_bad_exception_allowed@@YAEPBU_s_ESTypeList@@@Z 00444760 f   LIBCMTD:frame.obj
 0001:00044290       ?failwithmessage@@YAXPAXHHPBD@Z 00445290 f   LIBCMTD:_error_.obj
 0001:000444b0       ?DebuggerProbe@@YAHK@Z     004454b0 f   LIBCMTD:_error_.obj
 0001:00044540       ?DebuggerRuntime@@YAHKHPAXPB_W@Z 00445540 f   LIBCMTD:_error_.obj
 0001:00044820       ?_getMemBlockDataString@@YAXPAD00I@Z 00445820 f   LIBCMTD:_error_.obj
 0001:00045610       __nh_malloc_dbg_impl       00446610 f   LIBCMTD:dbgheap.obj
 0001:000456b0       __heap_alloc_dbg_impl      004466b0 f   LIBCMTD:dbgheap.obj
 0001:00045c80       _realloc_help              00446c80 f   LIBCMTD:dbgheap.obj
 0001:00046d40       _CheckBytes                00447d40 f   LIBCMTD:dbgheap.obj
 0001:00047c20       ?_CrtMemDumpAllObjectsSince_stat@@YAXPBU_CrtMemState@@PAUlocaleinfo_struct@@@Z 00448c20 f   LIBCMTD:dbgheap.obj
 0001:00047f30       __printMemBlockData        00448f30 f   LIBCMTD:dbgheap.obj
 0001:00048d70       _ValidateLocalCookies      00449d70 f   LIBCMTD:chandler4.obj
 0001:00049400       _doexit                    0044a400 f   LIBCMTD:crt0dat.obj
 0001:000496f0       __initterm                 0044a6f0 f   LIBCMTD:crt0dat.obj
 0001:00049b70       _xcptlookup                0044ab70 f   LIBCMTD:winxfltr.obj
 0001:00049ea0       _parse_cmdline             0044aea0 f   LIBCMTD:stdargv.obj
 0001:0004b360       _ctrlevent_capture@4       0044c360 f   LIBCMTD:winsig.obj
 0001:0004b760       _siglookup                 0044c760 f   LIBCMTD:winsig.obj
 0001:0004ba80       _xtow_s@20                 0044ca80 f   LIBCMTD:xtows.obj
 0001:0004beb0       @x64tow_s@24               0044ceb0 f   LIBCMTD:xtows.obj
 0001:0004e2e0       ?strtoxl@@YAKPAUlocaleinfo_struct@@PBDPAPBDHH@Z 0044f2e0 f   LIBCMTD:strtol.obj
 0001:0004e8c0       ?strtoxq@@YA_KPAUlocaleinfo_struct@@PBDPAPBDHH@Z 0044f8c0 f   LIBCMTD:strtoq.obj
 0001:00050cf0       _write_char                00451cf0 f   LIBCMTD:output.obj
 0001:00050da0       _write_multi_char          00451da0 f   LIBCMTD:output.obj
 0001:00050de0       _write_string              00451de0 f   LIBCMTD:output.obj
 0001:000542e0       __unwind_handler           004552e0 f   LIBCMTD:exsup.obj
 0001:00054e30       ?getSystemCP@@YAHH@Z       00455e30 f   LIBCMTD:mbctype.obj
 0001:00055290       ?CPtoLCID@@YAHH@Z          00456290 f   LIBCMTD:mbctype.obj
 0001:00055310       ?setSBCS@@YAXPAUthreadmbcinfostruct@@@Z 00456310 f   LIBCMTD:mbctype.obj
 0001:000553f0       ?setSBUpLow@@YAXPAUthreadmbcinfostruct@@@Z 004563f0 f   LIBCMTD:mbctype.obj
 0001:00055a90       ?GetPdbDll@@YAPAUHINSTANCE__@@XZ 00456a90 f   LIBCMTD:_pdblkup_.obj
 0001:0005fb60       ?und_strlen@@YAIPBD@Z      00460b60 f   LIBCMTD:undname.obj
 0001:0005fba0       ?und_memcpy@@YAXPADPBDI@Z  00460ba0 f   LIBCMTD:undname.obj
 0001:0005fbe0       ?und_strncmp@@YAIPBD0I@Z   00460be0 f   LIBCMTD:undname.obj
 0001:0005fe10       __unwind_handler4          00460e10 f   LIBCMTD:exsup4.obj
 0001:0005fff0       __is_LFH_enabled           00460ff0 f   LIBCMTD:expand.obj
 0001:00060ef0       ?x_ismbbtype_l@@YAHPAUlocaleinfo_struct@@IHH@Z 00461ef0 f   LIBCMTD:ismbbyte.obj
 0001:00061400       ?__crtGetLocaleInfoA_stat@@YAHPAUlocaleinfo_struct@@KKPADH@Z 00462400 f   LIBCMTD:a_loc.obj
 0001:00062650       _write_char                00463650 f   LIBCMTD:woutput.obj
 0001:000626b0       _write_multi_char          004636b0 f   LIBCMTD:woutput.obj
 0001:000626f0       _write_string              004636f0 f   LIBCMTD:woutput.obj
 0001:00063ca0       _write_char                00464ca0 f   LIBCMTD:woutputs.obj
 0001:00063d00       _write_multi_char          00464d00 f   LIBCMTD:woutputs.obj
 0001:00063d40       _write_string              00464d40 f   LIBCMTD:woutputs.obj
 0001:00067660       _write_char                00468660 f   LIBCMTD:woutputp.obj
 0001:000676c0       _write_multi_char          004686c0 f   LIBCMTD:woutputp.obj
 0001:00067700       _write_string              00468700 f   LIBCMTD:woutputp.obj
 0001:00067ca0       __copytlocinfo_nolock      00468ca0 f   LIBCMTD:setlocal.obj
 0001:000680a0       _sync_legacy_variables_lk  004690a0 f   LIBCMTD:setlocal.obj
 0001:000680e0       __setlocale_nolock         004690e0 f   LIBCMTD:setlocal.obj
 0001:000684d0       __setlocale_set_cat        004694d0 f   LIBCMTD:setlocal.obj
 0001:00068a00       __setlocale_get_all        00469a00 f   LIBCMTD:setlocal.obj
 0001:00069330       ?__crtCompareStringA_stat@@YAHPAUlocaleinfo_struct@@KKPBDH1HH@Z 0046a330 f   LIBCMTD:a_cmp.obj
 0001:000696c0       ?strncnt@@YAHPBDH@Z        0046a6c0 f   LIBCMTD:a_cmp.obj
 0001:00069e80       _findenv                   0046ae80 f   LIBCMTD:setenv.obj
 0001:00069f00       _copy_environ              0046af00 f   LIBCMTD:setenv.obj
 0001:0006d070       _write_char                0046e070 f   LIBCMTD:outputs.obj
 0001:0006d120       _write_multi_char          0046e120 f   LIBCMTD:outputs.obj
 0001:0006d160       _write_string              0046e160 f   LIBCMTD:outputs.obj
 0001:00070ed0       _write_char                00471ed0 f   LIBCMTD:outputp.obj
 0001:00070f80       _write_multi_char          00471f80 f   LIBCMTD:outputp.obj
 0001:00070fc0       _write_string              00471fc0 f   LIBCMTD:outputp.obj
 0001:000727d0       _xtoa_s@20                 004737d0 f   LIBCMTD:xtoas.obj
 0001:00072bf0       @x64toa_s@24               00473bf0 f   LIBCMTD:xtoas.obj
 0001:000734a0       ?wcsncnt@@YAIPB_WI@Z       004744a0 f   LIBCMTD:wcstombs.obj
 0001:00073d20       __get_lc_time              00474d20 f   LIBCMTD:inittime.obj
 0001:00075300       _fix_grouping              00476300 f   LIBCMTD:initnum.obj
 0001:000759a0       _fix_grouping              004769a0 f   LIBCMTD:initmon.obj
 0001:00075ce0       ?__crtLCMapStringA_stat@@YAHPAUlocaleinfo_struct@@KKPBDHPADHHH@Z 00476ce0 f   LIBCMTD:a_map.obj
 0001:00075f70       ?strncnt@@YAHPBDH@Z        00476f70 f   LIBCMTD:a_map.obj
 0001:00076020       ?__crtGetStringTypeA_stat@@YAHPAUlocaleinfo_struct@@KPBDHPAGHHH@Z 00477020 f   LIBCMTD:a_str.obj
 0001:00076ac0       ?wcstoxl@@YAKPB_WPAPB_WHH@Z 00477ac0 f   LIBCMTD:wcstol.obj
 0001:00077ac0       _TranslateName             00478ac0 f   LIBCMTD:getqloc.obj
 0001:00077b50       _GetLcidFromLangCountry    00478b50 f   LIBCMTD:getqloc.obj
 0001:00077c10       _LangCountryEnumProc@4     00478c10 f   LIBCMTD:getqloc.obj
 0001:00078050       _GetLcidFromLanguage       00479050 f   LIBCMTD:getqloc.obj
 0001:000780d0       _LanguageEnumProc@4        004790d0 f   LIBCMTD:getqloc.obj
 0001:00078270       _GetLcidFromCountry        00479270 f   LIBCMTD:getqloc.obj
 0001:000782c0       _CountryEnumProc@4         004792c0 f   LIBCMTD:getqloc.obj
 0001:000783c0       _GetLcidFromDefault        004793c0 f   LIBCMTD:getqloc.obj
 0001:00078400       _ProcessCodePage           00479400 f   LIBCMTD:getqloc.obj
 0001:000784b0       _TestDefaultCountry        004794b0 f   LIBCMTD:getqloc.obj
 0001:00078500       _TestDefaultLanguage       00479500 f   LIBCMTD:getqloc.obj
 0001:00078580       _LcidFromHexString         00479580 f   LIBCMTD:getqloc.obj
 0001:00078600       _GetPrimaryLen             00479600 f   LIBCMTD:getqloc.obj
 0001:0007a370       __unwindfunclet$?Test@SuiteFifoBasic@@UAEXXZ$8 0047b370 f   TestFifo.obj
 0001:0007a378       __ehhandler$?Test@SuiteFifoBasic@@UAEXXZ 0047b378 f   TestFifo.obj
 0001:0007a3a0       __unwindfunclet$?Run@Writer0@@QAEXXZ$0 0047b3a0 f   TestFifo.obj
 0001:0007a3ab       __ehhandler$?Run@Writer0@@QAEXXZ 0047b3ab f   TestFifo.obj
 0001:0007a3c6       __unwindfunclet$?Run@Writer1@@QAEXXZ$0 0047b3c6 f   TestFifo.obj
 0001:0007a3d1       __ehhandler$?Run@Writer1@@QAEXXZ 0047b3d1 f   TestFifo.obj
 0001:0007a3ec       __unwindfunclet$?MultipleWriteTest@@YGXIII@Z$0 0047b3ec f   TestFifo.obj
 0001:0007a3f4       __unwindfunclet$?MultipleWriteTest@@YGXIII@Z$1 0047b3f4 f   TestFifo.obj
 0001:0007a402       __unwindfunclet$?MultipleWriteTest@@YGXIII@Z$2 0047b402 f   TestFifo.obj
 0001:0007a410       __unwindfunclet$?MultipleWriteTest@@YGXIII@Z$3 0047b410 f   TestFifo.obj
 0001:0007a41e       __ehhandler$?MultipleWriteTest@@YGXIII@Z 0047b41e f   TestFifo.obj
 0001:0007a446       __unwindfunclet$?Test@SuiteFifoThreadSafety@@UAEXXZ$0 0047b446 f   TestFifo.obj
 0001:0007a44e       __unwindfunclet$?Test@SuiteFifoThreadSafety@@UAEXXZ$1 0047b44e f   TestFifo.obj
 0001:0007a459       __ehhandler$?Test@SuiteFifoThreadSafety@@UAEXXZ 0047b459 f   TestFifo.obj
 0001:0007a474       __unwindfunclet$?Main@Runner@TestFramework@OpenHome@@SGXHQAPADPAVInitialisationParams@Net@3@@Z$0 0047b474 f   TestFifo.obj
 0001:0007a47c       __unwindfunclet$?Main@Runner@TestFramework@OpenHome@@SGXHQAPADPAVInitialisationParams@Net@3@@Z$1 0047b47c f   TestFifo.obj
 0001:0007a487       __unwindfunclet$?Main@Runner@TestFramework@OpenHome@@SGXHQAPADPAVInitialisationParams@Net@3@@Z$2 0047b487 f   TestFifo.obj
 0001:0007a492       __unwindfunclet$?Main@Runner@TestFramework@OpenHome@@SGXHQAPADPAVInitialisationParams@Net@3@@Z$3 0047b492 f   TestFifo.obj
 0001:0007a49d       __ehhandler$?Main@Runner@TestFramework@OpenHome@@SGXHQAPADPAVInitialisationParams@Net@3@@Z 0047b49d f   TestFifo.obj
 0001:0007a4c0       __unwindfunclet$??0?$Fifo@PAVI@@@OpenHome@@QAE@I@Z$0 0047b4c0 f   TestFifo.obj
 0001:0007a4c8       __ehhandler$??0?$Fifo@PAVI@@@OpenHome@@QAE@I@Z 0047b4c8 f   TestFifo.obj
 0001:0007a4f0       __unwindfunclet$??1FifoBase@OpenHome@@QAE@XZ$0 0047b4f0 f   TestFifo.obj
 0001:0007a4fb       __unwindfunclet$??1FifoBase@OpenHome@@QAE@XZ$1 0047b4fb f   TestFifo.obj
 0001:0007a506       __ehhandler$??1FifoBase@OpenHome@@QAE@XZ 0047b506 f   TestFifo.obj
 0001:0007a530       __unwindfunclet$?AssertHandlerTest@TestFramework@OpenHome@@YGXPBDI@Z$0 0047b530 f   libTestFramework:TestFramework.obj
 0001:0007a538       __ehhandler$?AssertHandlerTest@TestFramework@OpenHome@@YGXPBDI@Z 0047b538 f   libTestFramework:TestFramework.obj
 0001:0007a553       __ehhandler$?Run@Runner@TestFramework@OpenHome@@QAEXXZ 0047b553 f   libTestFramework:TestFramework.obj
 0001:0007a56e       __unwindfunclet$??0Blocker@TestFramework@OpenHome@@QAE@XZ$0 0047b56e f   libTestFramework:TestFramework.obj
 0001:0007a576       __unwindfunclet$??0Blocker@TestFramework@OpenHome@@QAE@XZ$1 0047b576 f   libTestFramework:TestFramework.obj
 0001:0007a581       __ehhandler$??0Blocker@TestFramework@OpenHome@@QAE@XZ 0047b581 f   libTestFramework:TestFramework.obj
 0001:0007a59c       __unwindfunclet$??1Blocker@TestFramework@OpenHome@@QAE@XZ$0 0047b59c f   libTestFramework:TestFramework.obj
 0001:0007a5a4       __ehhandler$??1Blocker@TestFramework@OpenHome@@QAE@XZ 0047b5a4 f   libTestFramework:TestFramework.obj
 0001:0007a5c0       __unwindfunclet$??0FifoBase@OpenHome@@IAE@I@Z$0 0047b5c0 f   libohNetCore:Fifo.obj
 0001:0007a5cb       __unwindfunclet$??0FifoBase@OpenHome@@IAE@I@Z$1 0047b5cb f   libohNetCore:Fifo.obj
 0001:0007a5d6       __unwindfunclet$??0FifoBase@OpenHome@@IAE@I@Z$2 0047b5d6 f   libohNetCore:Fifo.obj
 0001:0007a5e1       __ehhandler$??0FifoBase@OpenHome@@IAE@I@Z 0047b5e1 f   libohNetCore:Fifo.obj
 0001:0007a5fc       __unwindfunclet$?ReadOpen@FifoBase@OpenHome@@IAEII@Z$0 0047b5fc f   libohNetCore:Fifo.obj
 0001:0007a604       __ehhandler$?ReadOpen@FifoBase@OpenHome@@IAEII@Z 0047b604 f   libohNetCore:Fifo.obj
 0001:0007a620       __unwindfunclet$??0?$Fifo@E@OpenHome@@QAE@I@Z$0 0047b620 f   libohNetCore:Fifo.obj
 0001:0007a628       __ehhandler$??0?$Fifo@E@OpenHome@@QAE@I@Z 0047b628 f   libohNetCore:Fifo.obj
 0001:0007a650       __unwindfunclet$?Wait@Semaphore@OpenHome@@QAEXI@Z$0 0047b650 f   libohNetCore:Thread.obj
 0001:0007a658       __ehhandler$?Wait@Semaphore@OpenHome@@QAEXI@Z 0047b658 f   libohNetCore:Thread.obj
 0001:0007a673       __unwindfunclet$?Wait@Mutex@OpenHome@@QAEXXZ$0 0047b673 f   libohNetCore:Thread.obj
 0001:0007a67b       __ehhandler$?Wait@Mutex@OpenHome@@QAEXXZ 0047b67b f   libohNetCore:Thread.obj
 0001:0007a696       __unwindfunclet$??0Thread@OpenHome@@IAE@PBDII@Z$0 0047b696 f   libohNetCore:Thread.obj
 0001:0007a6a1       __unwindfunclet$??0Thread@OpenHome@@IAE@PBDII@Z$1 0047b6a1 f   libohNetCore:Thread.obj
 0001:0007a6ac       __unwindfunclet$??0Thread@OpenHome@@IAE@PBDII@Z$2 0047b6ac f   libohNetCore:Thread.obj
 0001:0007a6b7       __ehhandler$??0Thread@OpenHome@@IAE@PBDII@Z 0047b6b7 f   libohNetCore:Thread.obj
 0001:0007a6d2       __unwindfunclet$??1Thread@OpenHome@@UAE@XZ$0 0047b6d2 f   libohNetCore:Thread.obj
 0001:0007a6dd       __unwindfunclet$??1Thread@OpenHome@@UAE@XZ$1 0047b6dd f   libohNetCore:Thread.obj
 0001:0007a6e8       __unwindfunclet$??1Thread@OpenHome@@UAE@XZ$2 0047b6e8 f   libohNetCore:Thread.obj
 0001:0007a6f3       __ehhandler$??1Thread@OpenHome@@UAE@XZ 0047b6f3 f   libohNetCore:Thread.obj
 0001:0007a70e       __ehhandler$?EntryPoint@Thread@OpenHome@@CGXPAX@Z 0047b70e f   libohNetCore:Thread.obj
 0001:0007a729       __unwindfunclet$?Sleep@Thread@OpenHome@@SGXI@Z$2 0047b729 f   libohNetCore:Thread.obj
 0001:0007a731       __ehhandler$?Sleep@Thread@OpenHome@@SGXI@Z 0047b731 f   libohNetCore:Thread.obj
 0001:0007a74c       __unwindfunclet$?CheckForKill@Thread@OpenHome@@IBEXXZ$0 0047b74c f   libohNetCore:Thread.obj
 0001:0007a754       __ehhandler$?CheckForKill@Thread@OpenHome@@IBEXXZ 0047b754 f   libohNetCore:Thread.obj
 0001:0007a76f       __unwindfunclet$??0ThreadFunctor@OpenHome@@QAE@PBDVFunctor@1@II@Z$0 0047b76f f   libohNetCore:Thread.obj
 0001:0007a777       __ehhandler$??0ThreadFunctor@OpenHome@@QAE@PBDVFunctor@1@II@Z 0047b777 f   libohNetCore:Thread.obj
 0001:0007a792       __unwindfunclet$??1ThreadFunctor@OpenHome@@UAE@XZ$0 0047b792 f   libohNetCore:Thread.obj
 0001:0007a79a       __unwindfunclet$??1ThreadFunctor@OpenHome@@UAE@XZ$1 0047b79a f   libohNetCore:Thread.obj
 0001:0007a7a5       __ehhandler$??1ThreadFunctor@OpenHome@@UAE@XZ 0047b7a5 f   libohNetCore:Thread.obj
 0001:0007a7c0       __unwindfunclet$??0Brv@OpenHome@@IAE@XZ$0 0047b7c0 f   libohNetCore:Thread.obj
 0001:0007a7c8       __ehhandler$??0Brv@OpenHome@@IAE@XZ 0047b7c8 f   libohNetCore:Thread.obj
 0001:0007a7f0       __unwindfunclet$??0NetworkAdapter@OpenHome@@QAE@IIPBD@Z$0 0047b7f0 f   libohNetCore:OhNet.obj
 0001:0007a7fb       __ehhandler$??0NetworkAdapter@OpenHome@@QAE@IIPBD@Z 0047b7fb f   libohNetCore:OhNet.obj
 0001:0007a816       __unwindfunclet$??1NetworkAdapter@OpenHome@@AAE@XZ$0 0047b816 f   libohNetCore:OhNet.obj
 0001:0007a821       __ehhandler$??1NetworkAdapter@OpenHome@@AAE@XZ 0047b821 f   libohNetCore:OhNet.obj
 0001:0007a83c       __unwindfunclet$?FullName@NetworkAdapter@OpenHome@@QBEPADXZ$0 0047b83c f   libohNetCore:OhNet.obj
 0001:0007a844       __unwindfunclet$?FullName@NetworkAdapter@OpenHome@@QBEPADXZ$1 0047b844 f   libohNetCore:OhNet.obj
 0001:0007a84c       __ehhandler$?FullName@NetworkAdapter@OpenHome@@QBEPADXZ 0047b84c f   libohNetCore:OhNet.obj
 0001:0007a867       __unwindfunclet$?Create@InitialisationParams@Net@OpenHome@@SGPAV123@XZ$0 0047b867 f   libohNetCore:OhNet.obj
 0001:0007a872       __ehhandler$?Create@InitialisationParams@Net@OpenHome@@SGPAV123@XZ 0047b872 f   libohNetCore:OhNet.obj
 0001:0007a88d       __unwindfunclet$?Initialise@UpnpLibrary@Net@OpenHome@@SGXPAVInitialisationParams@23@@Z$0 0047b88d f   libohNetCore:OhNet.obj
 0001:0007a898       __ehhandler$?Initialise@UpnpLibrary@Net@OpenHome@@SGXPAVInitialisationParams@23@@Z 0047b898 f   libohNetCore:OhNet.obj
 0001:0007a8b3       __unwindfunclet$?InitialiseMinimal@UpnpLibrary@Net@OpenHome@@SGXPAVInitialisationParams@23@@Z$0 0047b8b3 f   libohNetCore:OhNet.obj
 0001:0007a8be       __ehhandler$?InitialiseMinimal@UpnpLibrary@Net@OpenHome@@SGXPAVInitialisationParams@23@@Z 0047b8be f   libohNetCore:OhNet.obj
 0001:0007a8e0       __unwindfunclet$??1?$vector@PAVNetworkAdapter@OpenHome@@V?$allocator@PAVNetworkAdapter@OpenHome@@@std@@@std@@QAE@XZ$0 0047b8e0 f   libohNetCore:OhNet.obj
 0001:0007a8e8       __ehhandler$??1?$vector@PAVNetworkAdapter@OpenHome@@V?$allocator@PAVNetworkAdapter@OpenHome@@@std@@@std@@QAE@XZ 0047b8e8 f   libohNetCore:OhNet.obj
 0001:0007a910       __unwindfunclet$??1?$_Vector_val@PAVNetworkAdapter@OpenHome@@V?$allocator@PAVNetworkAdapter@OpenHome@@@std@@@std@@QAE@XZ$0 0047b910 f   libohNetCore:OhNet.obj
 0001:0007a918       __ehhandler$??1?$_Vector_val@PAVNetworkAdapter@OpenHome@@V?$allocator@PAVNetworkAdapter@OpenHome@@@std@@@std@@QAE@XZ 0047b918 f   libohNetCore:OhNet.obj
 0001:0007a940       __unwindfunclet$?PrintHex@Log@OpenHome@@SGHAAVFunctorMsg@2@ABVBrx@2@@Z$0 0047b940 f   libohNetCore:Printer.obj
 0001:0007a94b       __ehhandler$?PrintHex@Log@OpenHome@@SGHAAVFunctorMsg@2@ABVBrx@2@@Z 0047b94b f   libohNetCore:Printer.obj
 0001:0007a973       __unwindfunclet$?Print@Log@OpenHome@@SGHAAVFunctorMsg@2@ABVBrx@2@@Z$0 0047b973 f   libohNetCore:Printer.obj
 0001:0007a97e       __ehhandler$?Print@Log@OpenHome@@SGHAAVFunctorMsg@2@ABVBrx@2@@Z 0047b97e f   libohNetCore:Printer.obj
 0001:0007a9a6       __unwindfunclet$?Print@Log@OpenHome@@SGHAAVFunctorMsg@2@PBDPAD@Z$0 0047b9a6 f   libohNetCore:Printer.obj
 0001:0007a9b1       __ehhandler$?Print@Log@OpenHome@@SGHAAVFunctorMsg@2@PBDPAD@Z 0047b9b1 f   libohNetCore:Printer.obj
 0001:0007a9e0       __unwindfunclet$??0TimerManager@OpenHome@@QAE@XZ$0 0047b9e0 f   libohNetCore:Timer.obj
 0001:0007a9e8       __unwindfunclet$??0TimerManager@OpenHome@@QAE@XZ$1 0047b9e8 f   libohNetCore:Timer.obj
 0001:0007a9f3       __unwindfunclet$??0TimerManager@OpenHome@@QAE@XZ$2 0047b9f3 f   libohNetCore:Timer.obj
 0001:0007a9fe       __unwindfunclet$??0TimerManager@OpenHome@@QAE@XZ$3 0047b9fe f   libohNetCore:Timer.obj
 0001:0007aa09       __unwindfunclet$??0TimerManager@OpenHome@@QAE@XZ$4 0047ba09 f   libohNetCore:Timer.obj
 0001:0007aa14       __unwindfunclet$??0TimerManager@OpenHome@@QAE@XZ$5 0047ba14 f   libohNetCore:Timer.obj
 0001:0007aa1f       __unwindfunclet$??0TimerManager@OpenHome@@QAE@XZ$6 0047ba1f f   libohNetCore:Timer.obj
 0001:0007aa2a       __ehhandler$??0TimerManager@OpenHome@@QAE@XZ 0047ba2a f   libohNetCore:Timer.obj
 0001:0007aa45       __unwindfunclet$??1TimerManager@OpenHome@@UAE@XZ$0 0047ba45 f   libohNetCore:Timer.obj
 0001:0007aa4d       __unwindfunclet$??1TimerManager@OpenHome@@UAE@XZ$1 0047ba4d f   libohNetCore:Timer.obj
 0001:0007aa58       __unwindfunclet$??1TimerManager@OpenHome@@UAE@XZ$2 0047ba58 f   libohNetCore:Timer.obj
 0001:0007aa63       __unwindfunclet$??1TimerManager@OpenHome@@UAE@XZ$3 0047ba63 f   libohNetCore:Timer.obj
 0001:0007aa6e       __unwindfunclet$??1TimerManager@OpenHome@@UAE@XZ$4 0047ba6e f   libohNetCore:Timer.obj
 0001:0007aa79       __unwindfunclet$??1TimerManager@OpenHome@@UAE@XZ$5 0047ba79 f   libohNetCore:Timer.obj
 0001:0007aa84       __ehhandler$??1TimerManager@OpenHome@@UAE@XZ 0047ba84 f   libohNetCore:Timer.obj
 0001:0007aa9f       __ehhandler$?Run@TimerManager@OpenHome@@AAEXXZ 0047ba9f f   libohNetCore:Timer.obj
 0001:0007aac0       __unwindfunclet$??0Brh@OpenHome@@QAE@ABVBrx@1@@Z$0 0047bac0 f   libohNetCore:Buffer.obj
 0001:0007aac8       __ehhandler$??0Brh@OpenHome@@QAE@ABVBrx@1@@Z 0047bac8 f   libohNetCore:Buffer.obj
 0001:0007aae3       __unwindfunclet$??0Brh@OpenHome@@QAE@PBD@Z$0 0047bae3 f   libohNetCore:Buffer.obj
 0001:0007aaeb       __ehhandler$??0Brh@OpenHome@@QAE@PBD@Z 0047baeb f   libohNetCore:Buffer.obj
 0001:0007ab06       __unwindfunclet$??0Brhz@OpenHome@@QAE@ABVBrx@1@@Z$0 0047bb06 f   libohNetCore:Buffer.obj
 0001:0007ab0e       __ehhandler$??0Brhz@OpenHome@@QAE@ABVBrx@1@@Z 0047bb0e f   libohNetCore:Buffer.obj
 0001:0007ab29       __unwindfunclet$??0Brhz@OpenHome@@QAE@PBD@Z$0 0047bb29 f   libohNetCore:Buffer.obj
 0001:0007ab31       __ehhandler$??0Brhz@OpenHome@@QAE@PBD@Z 0047bb31 f   libohNetCore:Buffer.obj
 0001:0007ab4c       __unwindfunclet$??0Bwx@OpenHome@@IAE@II@Z$0 0047bb4c f   libohNetCore:Buffer.obj
 0001:0007ab54       __ehhandler$??0Bwx@OpenHome@@IAE@II@Z 0047bb54 f   libohNetCore:Buffer.obj
 0001:0007ab6f       __ehhandler$?Replace@Bwx@OpenHome@@QAEXABVBrx@2@@Z 0047bb6f f   libohNetCore:Buffer.obj
 0001:0007ab8a       __unwindfunclet$?ReplaceThrow@Bwx@OpenHome@@QAEXABVBrx@2@@Z$0 0047bb8a f   libohNetCore:Buffer.obj
 0001:0007ab92       __ehhandler$?ReplaceThrow@Bwx@OpenHome@@QAEXABVBrx@2@@Z 0047bb92 f   libohNetCore:Buffer.obj
 0001:0007abad       __unwindfunclet$?AppendPrintf@Bwx@OpenHome@@QAAXPBDZZ$0 0047bbad f   libohNetCore:Buffer.obj
 0001:0007abb5       __ehhandler$?AppendPrintf@Bwx@OpenHome@@QAAXPBDZZ 0047bbb5 f   libohNetCore:Buffer.obj
 0001:0007abd0       __unwindfunclet$??0Bwn@OpenHome@@QAE@ABVBwx@1@@Z$0 0047bbd0 f   libohNetCore:Buffer.obj
 0001:0007abd8       __ehhandler$??0Bwn@OpenHome@@QAE@ABVBwx@1@@Z 0047bbd8 f   libohNetCore:Buffer.obj
 0001:0007abf3       __unwindfunclet$??0Bwn@OpenHome@@QAE@ABV01@@Z$0 0047bbf3 f   libohNetCore:Buffer.obj
 0001:0007abfb       __ehhandler$??0Bwn@OpenHome@@QAE@ABV01@@Z 0047bbfb f   libohNetCore:Buffer.obj
 0001:0007ac16       __unwindfunclet$??0Bwh@OpenHome@@QAE@PBD@Z$0 0047bc16 f   libohNetCore:Buffer.obj
 0001:0007ac1e       __ehhandler$??0Bwh@OpenHome@@QAE@PBD@Z 0047bc1e f   libohNetCore:Buffer.obj
 0001:0007ac39       __unwindfunclet$??0Bwh@OpenHome@@QAE@PBEI@Z$0 0047bc39 f   libohNetCore:Buffer.obj
 0001:0007ac41       __ehhandler$??0Bwh@OpenHome@@QAE@PBEI@Z 0047bc41 f   libohNetCore:Buffer.obj
 0001:0007ac5c       __unwindfunclet$??0Bwh@OpenHome@@QAE@ABVBrx@1@@Z$0 0047bc5c f   libohNetCore:Buffer.obj
 0001:0007ac64       __ehhandler$??0Bwh@OpenHome@@QAE@ABVBrx@1@@Z 0047bc64 f   libohNetCore:Buffer.obj
 0001:0007ac7f       __unwindfunclet$??0Bwh@OpenHome@@QAE@ABV01@@Z$0 0047bc7f f   libohNetCore:Buffer.obj
 0001:0007ac87       __ehhandler$??0Bwh@OpenHome@@QAE@ABV01@@Z 0047bc87 f   libohNetCore:Buffer.obj
 0001:0007acb0       __unwindfunclet$??0Stack@Net@OpenHome@@QAE@XZ$0 0047bcb0 f   libohNetCore:Stack.obj
 0001:0007acbb       __unwindfunclet$??0Stack@Net@OpenHome@@QAE@XZ$1 0047bcbb f   libohNetCore:Stack.obj
 0001:0007acc6       __unwindfunclet$??0Stack@Net@OpenHome@@QAE@XZ$2 0047bcc6 f   libohNetCore:Stack.obj
 0001:0007acd1       __unwindfunclet$??0Stack@Net@OpenHome@@QAE@XZ$3 0047bcd1 f   libohNetCore:Stack.obj
 0001:0007acdc       __ehhandler$??0Stack@Net@OpenHome@@QAE@XZ 0047bcdc f   libohNetCore:Stack.obj
 0001:0007acf7       __unwindfunclet$??0Stack@Net@OpenHome@@QAE@PAVInitialisationParams@12@@Z$0 0047bcf7 f   libohNetCore:Stack.obj
 0001:0007ad02       __unwindfunclet$??0Stack@Net@OpenHome@@QAE@PAVInitialisationParams@12@@Z$1 0047bd02 f   libohNetCore:Stack.obj
 0001:0007ad0d       __unwindfunclet$??0Stack@Net@OpenHome@@QAE@PAVInitialisationParams@12@@Z$2 0047bd0d f   libohNetCore:Stack.obj
 0001:0007ad18       __unwindfunclet$??0Stack@Net@OpenHome@@QAE@PAVInitialisationParams@12@@Z$3 0047bd18 f   libohNetCore:Stack.obj
 0001:0007ad23       __unwindfunclet$??0Stack@Net@OpenHome@@QAE@PAVInitialisationParams@12@@Z$4 0047bd23 f   libohNetCore:Stack.obj
 0001:0007ad2e       __unwindfunclet$??0Stack@Net@OpenHome@@QAE@PAVInitialisationParams@12@@Z$5 0047bd2e f   libohNetCore:Stack.obj
 0001:0007ad39       __ehhandler$??0Stack@Net@OpenHome@@QAE@PAVInitialisationParams@12@@Z 0047bd39 f   libohNetCore:Stack.obj
 0001:0007ad54       __unwindfunclet$??1Stack@Net@OpenHome@@AAE@XZ$0 0047bd54 f   libohNetCore:Stack.obj
 0001:0007ad5f       __unwindfunclet$??1Stack@Net@OpenHome@@AAE@XZ$1 0047bd5f f   libohNetCore:Stack.obj
 0001:0007ad6a       __unwindfunclet$??1Stack@Net@OpenHome@@AAE@XZ$2 0047bd6a f   libohNetCore:Stack.obj
 0001:0007ad75       __unwindfunclet$??1Stack@Net@OpenHome@@AAE@XZ$3 0047bd75 f   libohNetCore:Stack.obj
 0001:0007ad80       __ehhandler$??1Stack@Net@OpenHome@@AAE@XZ 0047bd80 f   libohNetCore:Stack.obj
 0001:0007ad9b       __unwindfunclet$?MulticastListenerClaim@Stack@Net@OpenHome@@SGAAVSsdpListenerMulticast@23@I@Z$0 0047bd9b f   libohNetCore:Stack.obj
 0001:0007ada3       __unwindfunclet$?MulticastListenerClaim@Stack@Net@OpenHome@@SGAAVSsdpListenerMulticast@23@I@Z$1 0047bda3 f   libohNetCore:Stack.obj
 0001:0007adae       __ehhandler$?MulticastListenerClaim@Stack@Net@OpenHome@@SGAAVSsdpListenerMulticast@23@I@Z 0047bdae f   libohNetCore:Stack.obj
 0001:0007adc9       __unwindfunclet$?MulticastListenerRelease@Stack@Net@OpenHome@@SGXI@Z$0 0047bdc9 f   libohNetCore:Stack.obj
 0001:0007add1       __unwindfunclet$?MulticastListenerRelease@Stack@Net@OpenHome@@SGXI@Z$1 0047bdd1 f   libohNetCore:Stack.obj
 0001:0007add9       __ehhandler$?MulticastListenerRelease@Stack@Net@OpenHome@@SGXI@Z 0047bdd9 f   libohNetCore:Stack.obj
 0001:0007adf4       __unwindfunclet$?DoAddObject@Stack@Net@OpenHome@@AAEXPAXPBD@Z$0 0047bdf4 f   libohNetCore:Stack.obj
 0001:0007adfc       __unwindfunclet$?DoAddObject@Stack@Net@OpenHome@@AAEXPAXPBD@Z$1 0047bdfc f   libohNetCore:Stack.obj
 0001:0007ae04       __unwindfunclet$?DoAddObject@Stack@Net@OpenHome@@AAEXPAXPBD@Z$2 0047be04 f   libohNetCore:Stack.obj
 0001:0007ae0c       __unwindfunclet$?DoAddObject@Stack@Net@OpenHome@@AAEXPAXPBD@Z$3 0047be0c f   libohNetCore:Stack.obj
 0001:0007ae17       __unwindfunclet$?DoAddObject@Stack@Net@OpenHome@@AAEXPAXPBD@Z$4 0047be17 f   libohNetCore:Stack.obj
 0001:0007ae1f       __ehhandler$?DoAddObject@Stack@Net@OpenHome@@AAEXPAXPBD@Z 0047be1f f   libohNetCore:Stack.obj
 0001:0007ae3d       __unwindfunclet$?DoRemoveObject@Stack@Net@OpenHome@@AAEXPAXPBD@Z$0 0047be3d f   libohNetCore:Stack.obj
 0001:0007ae45       __unwindfunclet$?DoRemoveObject@Stack@Net@OpenHome@@AAEXPAXPBD@Z$1 0047be45 f   libohNetCore:Stack.obj
 0001:0007ae4d       __unwindfunclet$?DoRemoveObject@Stack@Net@OpenHome@@AAEXPAXPBD@Z$2 0047be4d f   libohNetCore:Stack.obj
 0001:0007ae55       __unwindfunclet$?DoRemoveObject@Stack@Net@OpenHome@@AAEXPAXPBD@Z$3 0047be55 f   libohNetCore:Stack.obj
 0001:0007ae5d       __unwindfunclet$?DoRemoveObject@Stack@Net@OpenHome@@AAEXPAXPBD@Z$4 0047be5d f   libohNetCore:Stack.obj
 0001:0007ae65       __ehhandler$?DoRemoveObject@Stack@Net@OpenHome@@AAEXPAXPBD@Z 0047be65 f   libohNetCore:Stack.obj
 0001:0007ae83       __unwindfunclet$?DoListObjects@Stack@Net@OpenHome@@AAEXXZ$0 0047be83 f   libohNetCore:Stack.obj
 0001:0007ae8b       __unwindfunclet$?DoListObjects@Stack@Net@OpenHome@@AAEXXZ$1 0047be8b f   libohNetCore:Stack.obj
 0001:0007ae93       __unwindfunclet$?DoListObjects@Stack@Net@OpenHome@@AAEXXZ$2 0047be93 f   libohNetCore:Stack.obj
 0001:0007ae9b       __unwindfunclet$?DoListObjects@Stack@Net@OpenHome@@AAEXXZ$3 0047be9b f   libohNetCore:Stack.obj
 0001:0007aea3       __ehhandler$?DoListObjects@Stack@Net@OpenHome@@AAEXXZ 0047bea3 f   libohNetCore:Stack.obj
 0001:0007aec1       __unwindfunclet$??0ObjectType@Stack@Net@OpenHome@@QAE@PBD@Z$0 0047bec1 f   libohNetCore:Stack.obj
 0001:0007aec9       __ehhandler$??0ObjectType@Stack@Net@OpenHome@@QAE@PBD@Z 0047bec9 f   libohNetCore:Stack.obj
 0001:0007aee4       __unwindfunclet$??1ObjectType@Stack@Net@OpenHome@@QAE@XZ$0 0047bee4 f   libohNetCore:Stack.obj
 0001:0007aeec       __unwindfunclet$??1ObjectType@Stack@Net@OpenHome@@QAE@XZ$1 0047beec f   libohNetCore:Stack.obj
 0001:0007aef7       __ehhandler$??1ObjectType@Stack@Net@OpenHome@@QAE@XZ 0047bef7 f   libohNetCore:Stack.obj
 0001:0007af20       __unwindfunclet$?_Adopt@_Iterator_base12@std@@QAEXPBU_Container_base12@2@@Z$0 0047bf20 f   libohNetCore:Stack.obj
 0001:0007af28       __ehhandler$?_Adopt@_Iterator_base12@std@@QAEXPBU_Container_base12@2@@Z 0047bf28 f   libohNetCore:Stack.obj
 0001:0007af50       __unwindfunclet$??1_Iterator_base12@std@@QAE@XZ$0 0047bf50 f   libohNetCore:Stack.obj
 0001:0007af58       __ehhandler$??1_Iterator_base12@std@@QAE@XZ 0047bf58 f   libohNetCore:Stack.obj
 0001:0007af80       __unwindfunclet$??1?$_Tree@V?$_Tmap_traits@PAXPAXU?$less@PAX@std@@V?$allocator@U?$pair@QAXPAX@std@@@2@$0A@@std@@@std@@QAE@XZ$0 0047bf80 f   libohNetCore:Stack.obj
 0001:0007af88       __ehhandler$??1?$_Tree@V?$_Tmap_traits@PAXPAXU?$less@PAX@std@@V?$allocator@U?$pair@QAXPAX@std@@@2@$0A@@std@@@std@@QAE@XZ 0047bf88 f   libohNetCore:Stack.obj
 0001:0007afb0       __unwindfunclet$?erase@?$_Tree@V?$_Tmap_traits@PAXPAXU?$less@PAX@std@@V?$allocator@U?$pair@QAXPAX@std@@@2@$0A@@std@@@std@@QAE?AV?$_Tree_iterator@V?$_Tree_val@V?$_Tmap_traits@PAXPAXU?$less@PAX@std@@V?$allocator@U?$pair@QAXPAX@std@@@2@$0A@@std@@@std@@@2@V?$_Tree_const_iterator@V?$_Tree_val@V?$_Tmap_traits@PAXPAXU?$less@PAX@std@@V?$allocator@U?$pair@QAXPAX@std@@@2@$0A@@std@@@std@@@2@@Z$0 0047bfb0 f   libohNetCore:Stack.obj
 0001:0007afb8       __unwindfunclet$?erase@?$_Tree@V?$_Tmap_traits@PAXPAXU?$less@PAX@std@@V?$allocator@U?$pair@QAXPAX@std@@@2@$0A@@std@@@std@@QAE?AV?$_Tree_iterator@V?$_Tree_val@V?$_Tmap_traits@PAXPAXU?$less@PAX@std@@V?$allocator@U?$pair@QAXPAX@std@@@2@$0A@@std@@@std@@@2@V?$_Tree_const_iterator@V?$_Tree_val@V?$_Tmap_traits@PAXPAXU?$less@PAX@std@@V?$allocator@U?$pair@QAXPAX@std@@@2@$0A@@std@@@std@@@2@@Z$1 0047bfb8 f   libohNetCore:Stack.obj
 0001:0007afd1       __ehhandler$?erase@?$_Tree@V?$_Tmap_traits@PAXPAXU?$less@PAX@std@@V?$allocator@U?$pair@QAXPAX@std@@@2@$0A@@std@@@std@@QAE?AV?$_Tree_iterator@V?$_Tree_val@V?$_Tmap_traits@PAXPAXU?$less@PAX@std@@V?$allocator@U?$pair@QAXPAX@std@@@2@$0A@@std@@@std@@@2@V?$_Tree_const_iterator@V?$_Tree_val@V?$_Tmap_traits@PAXPAXU?$less@PAX@std@@V?$allocator@U?$pair@QAXPAX@std@@@2@$0A@@std@@@std@@@2@@Z 0047bfd1 f   libohNetCore:Stack.obj
 0001:0007aff0       __unwindfunclet$?find@?$_Tree@V?$_Tmap_traits@PAXPAXU?$less@PAX@std@@V?$allocator@U?$pair@QAXPAX@std@@@2@$0A@@std@@@std@@QAE?AV?$_Tree_iterator@V?$_Tree_val@V?$_Tmap_traits@PAXPAXU?$less@PAX@std@@V?$allocator@U?$pair@QAXPAX@std@@@2@$0A@@std@@@std@@@2@ABQAX@Z$0 0047bff0 f   libohNetCore:Stack.obj
 0001:0007aff8       __unwindfunclet$?find@?$_Tree@V?$_Tmap_traits@PAXPAXU?$less@PAX@std@@V?$allocator@U?$pair@QAXPAX@std@@@2@$0A@@std@@@std@@QAE?AV?$_Tree_iterator@V?$_Tree_val@V?$_Tmap_traits@PAXPAXU?$less@PAX@std@@V?$allocator@U?$pair@QAXPAX@std@@@2@$0A@@std@@@std@@@2@ABQAX@Z$1 0047bff8 f   libohNetCore:Stack.obj
 0001:0007b011       __unwindfunclet$?find@?$_Tree@V?$_Tmap_traits@PAXPAXU?$less@PAX@std@@V?$allocator@U?$pair@QAXPAX@std@@@2@$0A@@std@@@std@@QAE?AV?$_Tree_iterator@V?$_Tree_val@V?$_Tmap_traits@PAXPAXU?$less@PAX@std@@V?$allocator@U?$pair@QAXPAX@std@@@2@$0A@@std@@@std@@@2@ABQAX@Z$2 0047c011 f   libohNetCore:Stack.obj
 0001:0007b02a       __unwindfunclet$?find@?$_Tree@V?$_Tmap_traits@PAXPAXU?$less@PAX@std@@V?$allocator@U?$pair@QAXPAX@std@@@2@$0A@@std@@@std@@QAE?AV?$_Tree_iterator@V?$_Tree_val@V?$_Tmap_traits@PAXPAXU?$less@PAX@std@@V?$allocator@U?$pair@QAXPAX@std@@@2@$0A@@std@@@std@@@2@ABQAX@Z$3 0047c02a f   libohNetCore:Stack.obj
 0001:0007b043       __unwindfunclet$?find@?$_Tree@V?$_Tmap_traits@PAXPAXU?$less@PAX@std@@V?$allocator@U?$pair@QAXPAX@std@@@2@$0A@@std@@@std@@QAE?AV?$_Tree_iterator@V?$_Tree_val@V?$_Tmap_traits@PAXPAXU?$less@PAX@std@@V?$allocator@U?$pair@QAXPAX@std@@@2@$0A@@std@@@std@@@2@ABQAX@Z$4 0047c043 f   libohNetCore:Stack.obj
 0001:0007b05c       __ehhandler$?find@?$_Tree@V?$_Tmap_traits@PAXPAXU?$less@PAX@std@@V?$allocator@U?$pair@QAXPAX@std@@@2@$0A@@std@@@std@@QAE?AV?$_Tree_iterator@V?$_Tree_val@V?$_Tmap_traits@PAXPAXU?$less@PAX@std@@V?$allocator@U?$pair@QAXPAX@std@@@2@$0A@@std@@@std@@@2@ABQAX@Z 0047c05c f   libohNetCore:Stack.obj
 0001:0007b080       __unwindfunclet$??1?$vector@PAVMListener@Stack@Net@OpenHome@@V?$allocator@PAVMListener@Stack@Net@OpenHome@@@std@@@std@@QAE@XZ$0 0047c080 f   libohNetCore:Stack.obj
 0001:0007b088       __ehhandler$??1?$vector@PAVMListener@Stack@Net@OpenHome@@V?$allocator@PAVMListener@Stack@Net@OpenHome@@@std@@@std@@QAE@XZ 0047c088 f   libohNetCore:Stack.obj
 0001:0007b0b0       __unwindfunclet$?erase@?$vector@PAVMListener@Stack@Net@OpenHome@@V?$allocator@PAVMListener@Stack@Net@OpenHome@@@std@@@std@@QAE?AV?$_Vector_iterator@V?$_Vector_val@PAVMListener@Stack@Net@OpenHome@@V?$allocator@PAVMListener@Stack@Net@OpenHome@@@std@@@std@@@2@V?$_Vector_const_iterator@V?$_Vector_val@PAVMListener@Stack@Net@OpenHome@@V?$allocator@PAVMListener@Stack@Net@OpenHome@@@std@@@std@@@2@@Z$0 0047c0b0 f   libohNetCore:Stack.obj
 0001:0007b0b8       __unwindfunclet$?erase@?$vector@PAVMListener@Stack@Net@OpenHome@@V?$allocator@PAVMListener@Stack@Net@OpenHome@@@std@@@std@@QAE?AV?$_Vector_iterator@V?$_Vector_val@PAVMListener@Stack@Net@OpenHome@@V?$allocator@PAVMListener@Stack@Net@OpenHome@@@std@@@std@@@2@V?$_Vector_const_iterator@V?$_Vector_val@PAVMListener@Stack@Net@OpenHome@@V?$allocator@PAVMListener@Stack@Net@OpenHome@@@std@@@std@@@2@@Z$2 0047c0b8 f   libohNetCore:Stack.obj
 0001:0007b0d1       __ehhandler$?erase@?$vector@PAVMListener@Stack@Net@OpenHome@@V?$allocator@PAVMListener@Stack@Net@OpenHome@@@std@@@std@@QAE?AV?$_Vector_iterator@V?$_Vector_val@PAVMListener@Stack@Net@OpenHome@@V?$allocator@PAVMListener@Stack@Net@OpenHome@@@std@@@std@@@2@V?$_Vector_const_iterator@V?$_Vector_val@PAVMListener@Stack@Net@OpenHome@@V?$allocator@PAVMListener@Stack@Net@OpenHome@@@std@@@std@@@2@@Z 0047c0d1 f   libohNetCore:Stack.obj
 0001:0007b0f0       __unwindfunclet$??1?$_Tree@V?$_Tmap_traits@VBrn@OpenHome@@PAVObjectType@Stack@Net@2@VBufferCmp@2@V?$allocator@U?$pair@$$CBVBrn@OpenHome@@PAVObjectType@Stack@Net@2@@std@@@std@@$0A@@std@@@std@@QAE@XZ$0 0047c0f0 f   libohNetCore:Stack.obj
 0001:0007b0f8       __ehhandler$??1?$_Tree@V?$_Tmap_traits@VBrn@OpenHome@@PAVObjectType@Stack@Net@2@VBufferCmp@2@V?$allocator@U?$pair@$$CBVBrn@OpenHome@@PAVObjectType@Stack@Net@2@@std@@@std@@$0A@@std@@@std@@QAE@XZ 0047c0f8 f   libohNetCore:Stack.obj
 0001:0007b120       __unwindfunclet$?erase@?$_Tree@V?$_Tmap_traits@VBrn@OpenHome@@PAVObjectType@Stack@Net@2@VBufferCmp@2@V?$allocator@U?$pair@$$CBVBrn@OpenHome@@PAVObjectType@Stack@Net@2@@std@@@std@@$0A@@std@@@std@@QAE?AV?$_Tree_iterator@V?$_Tree_val@V?$_Tmap_traits@VBrn@OpenHome@@PAVObjectType@Stack@Net@2@VBufferCmp@2@V?$allocator@U?$pair@$$CBVBrn@OpenHome@@PAVObjectType@Stack@Net@2@@std@@@std@@$0A@@std@@@std@@@2@V?$_Tree_const_iterator@V?$_Tree_val@V?$_Tmap_traits@VBrn@OpenHome@@PAVObjectType@Stack@Net@2@VBufferCmp@2@V?$allocator@U?$pair@$$CBVBrn@OpenHome@@PAVObjectType@Stack@Net@2@@std@@@std@@$0A@@std@@@std@@@2@@Z$0 0047c120 f   libohNetCore:Stack.obj
 0001:0007b128       __unwindfunclet$?erase@?$_Tree@V?$_Tmap_traits@VBrn@OpenHome@@PAVObjectType@Stack@Net@2@VBufferCmp@2@V?$allocator@U?$pair@$$CBVBrn@OpenHome@@PAVObjectType@Stack@Net@2@@std@@@std@@$0A@@std@@@std@@QAE?AV?$_Tree_iterator@V?$_Tree_val@V?$_Tmap_traits@VBrn@OpenHome@@PAVObjectType@Stack@Net@2@VBufferCmp@2@V?$allocator@U?$pair@$$CBVBrn@OpenHome@@PAVObjectType@Stack@Net@2@@std@@@std@@$0A@@std@@@std@@@2@V?$_Tree_const_iterator@V?$_Tree_val@V?$_Tmap_traits@VBrn@OpenHome@@PAVObjectType@Stack@Net@2@VBufferCmp@2@V?$allocator@U?$pair@$$CBVBrn@OpenHome@@PAVObjectType@Stack@Net@2@@std@@@std@@$0A@@std@@@std@@@2@@Z$1 0047c128 f   libohNetCore:Stack.obj
 0001:0007b141       __ehhandler$?erase@?$_Tree@V?$_Tmap_traits@VBrn@OpenHome@@PAVObjectType@Stack@Net@2@VBufferCmp@2@V?$allocator@U?$pair@$$CBVBrn@OpenHome@@PAVObjectType@Stack@Net@2@@std@@@std@@$0A@@std@@@std@@QAE?AV?$_Tree_iterator@V?$_Tree_val@V?$_Tmap_traits@VBrn@OpenHome@@PAVObjectType@Stack@Net@2@VBufferCmp@2@V?$allocator@U?$pair@$$CBVBrn@OpenHome@@PAVObjectType@Stack@Net@2@@std@@@std@@$0A@@std@@@std@@@2@V?$_Tree_const_iterator@V?$_Tree_val@V?$_Tmap_traits@VBrn@OpenHome@@PAVObjectType@Stack@Net@2@VBufferCmp@2@V?$allocator@U?$pair@$$CBVBrn@OpenHome@@PAVObjectType@Stack@Net@2@@std@@@std@@$0A@@std@@@std@@@2@@Z 0047c141 f   libohNetCore:Stack.obj
 0001:0007b160       __unwindfunclet$?find@?$_Tree@V?$_Tmap_traits@VBrn@OpenHome@@PAVObjectType@Stack@Net@2@VBufferCmp@2@V?$allocator@U?$pair@$$CBVBrn@OpenHome@@PAVObjectType@Stack@Net@2@@std@@@std@@$0A@@std@@@std@@QAE?AV?$_Tree_iterator@V?$_Tree_val@V?$_Tmap_traits@VBrn@OpenHome@@PAVObjectType@Stack@Net@2@VBufferCmp@2@V?$allocator@U?$pair@$$CBVBrn@OpenHome@@PAVObjectType@Stack@Net@2@@std@@@std@@$0A@@std@@@std@@@2@ABVBrn@OpenHome@@@Z$0 0047c160 f   libohNetCore:Stack.obj
 0001:0007b168       __unwindfunclet$?find@?$_Tree@V?$_Tmap_traits@VBrn@OpenHome@@PAVObjectType@Stack@Net@2@VBufferCmp@2@V?$allocator@U?$pair@$$CBVBrn@OpenHome@@PAVObjectType@Stack@Net@2@@std@@@std@@$0A@@std@@@std@@QAE?AV?$_Tree_iterator@V?$_Tree_val@V?$_Tmap_traits@VBrn@OpenHome@@PAVObjectType@Stack@Net@2@VBufferCmp@2@V?$allocator@U?$pair@$$CBVBrn@OpenHome@@PAVObjectType@Stack@Net@2@@std@@@std@@$0A@@std@@@std@@@2@ABVBrn@OpenHome@@@Z$1 0047c168 f   libohNetCore:Stack.obj
 0001:0007b181       __unwindfunclet$?find@?$_Tree@V?$_Tmap_traits@VBrn@OpenHome@@PAVObjectType@Stack@Net@2@VBufferCmp@2@V?$allocator@U?$pair@$$CBVBrn@OpenHome@@PAVObjectType@Stack@Net@2@@std@@@std@@$0A@@std@@@std@@QAE?AV?$_Tree_iterator@V?$_Tree_val@V?$_Tmap_traits@VBrn@OpenHome@@PAVObjectType@Stack@Net@2@VBufferCmp@2@V?$allocator@U?$pair@$$CBVBrn@OpenHome@@PAVObjectType@Stack@Net@2@@std@@@std@@$0A@@std@@@std@@@2@ABVBrn@OpenHome@@@Z$2 0047c181 f   libohNetCore:Stack.obj
 0001:0007b19a       __unwindfunclet$?find@?$_Tree@V?$_Tmap_traits@VBrn@OpenHome@@PAVObjectType@Stack@Net@2@VBufferCmp@2@V?$allocator@U?$pair@$$CBVBrn@OpenHome@@PAVObjectType@Stack@Net@2@@std@@@std@@$0A@@std@@@std@@QAE?AV?$_Tree_iterator@V?$_Tree_val@V?$_Tmap_traits@VBrn@OpenHome@@PAVObjectType@Stack@Net@2@VBufferCmp@2@V?$allocator@U?$pair@$$CBVBrn@OpenHome@@PAVObjectType@Stack@Net@2@@std@@@std@@$0A@@std@@@std@@@2@ABVBrn@OpenHome@@@Z$3 0047c19a f   libohNetCore:Stack.obj
 0001:0007b1b3       __unwindfunclet$?find@?$_Tree@V?$_Tmap_traits@VBrn@OpenHome@@PAVObjectType@Stack@Net@2@VBufferCmp@2@V?$allocator@U?$pair@$$CBVBrn@OpenHome@@PAVObjectType@Stack@Net@2@@std@@@std@@$0A@@std@@@std@@QAE?AV?$_Tree_iterator@V?$_Tree_val@V?$_Tmap_traits@VBrn@OpenHome@@PAVObjectType@Stack@Net@2@VBufferCmp@2@V?$allocator@U?$pair@$$CBVBrn@OpenHome@@PAVObjectType@Stack@Net@2@@std@@@std@@$0A@@std@@@std@@@2@ABVBrn@OpenHome@@@Z$4 0047c1b3 f   libohNetCore:Stack.obj
 0001:0007b1cc       __ehhandler$?find@?$_Tree@V?$_Tmap_traits@VBrn@OpenHome@@PAVObjectType@Stack@Net@2@VBufferCmp@2@V?$allocator@U?$pair@$$CBVBrn@OpenHome@@PAVObjectType@Stack@Net@2@@std@@@std@@$0A@@std@@@std@@QAE?AV?$_Tree_iterator@V?$_Tree_val@V?$_Tmap_traits@VBrn@OpenHome@@PAVObjectType@Stack@Net@2@VBufferCmp@2@V?$allocator@U?$pair@$$CBVBrn@OpenHome@@PAVObjectType@Stack@Net@2@@std@@@std@@$0A@@std@@@std@@@2@ABVBrn@OpenHome@@@Z 0047c1cc f   libohNetCore:Stack.obj
 0001:0007b1f0       __unwindfunclet$??H?$_Vector_iterator@V?$_Vector_val@PAVMListener@Stack@Net@OpenHome@@V?$allocator@PAVMListener@Stack@Net@OpenHome@@@std@@@std@@@std@@QBE?AV01@H@Z$0 0047c1f0 f   libohNetCore:Stack.obj
 0001:0007b1f8       __unwindfunclet$??H?$_Vector_iterator@V?$_Vector_val@PAVMListener@Stack@Net@OpenHome@@V?$allocator@PAVMListener@Stack@Net@OpenHome@@@std@@@std@@@std@@QBE?AV01@H@Z$1 0047c1f8 f   libohNetCore:Stack.obj
 0001:0007b211       __ehhandler$??H?$_Vector_iterator@V?$_Vector_val@PAVMListener@Stack@Net@OpenHome@@V?$allocator@PAVMListener@Stack@Net@OpenHome@@@std@@@std@@@std@@QBE?AV01@H@Z 0047c211 f   libohNetCore:Stack.obj
 0001:0007b230       __unwindfunclet$??E?$_Tree_iterator@V?$_Tree_val@V?$_Tmap_traits@VBrn@OpenHome@@PAVObjectType@Stack@Net@2@VBufferCmp@2@V?$allocator@U?$pair@$$CBVBrn@OpenHome@@PAVObjectType@Stack@Net@2@@std@@@std@@$0A@@std@@@std@@@std@@QAE?AV01@H@Z$0 0047c230 f   libohNetCore:Stack.obj
 0001:0007b238       __unwindfunclet$??E?$_Tree_iterator@V?$_Tree_val@V?$_Tmap_traits@VBrn@OpenHome@@PAVObjectType@Stack@Net@2@VBufferCmp@2@V?$allocator@U?$pair@$$CBVBrn@OpenHome@@PAVObjectType@Stack@Net@2@@std@@@std@@$0A@@std@@@std@@@std@@QAE?AV01@H@Z$1 0047c238 f   libohNetCore:Stack.obj
 0001:0007b251       __ehhandler$??E?$_Tree_iterator@V?$_Tree_val@V?$_Tmap_traits@VBrn@OpenHome@@PAVObjectType@Stack@Net@2@VBufferCmp@2@V?$allocator@U?$pair@$$CBVBrn@OpenHome@@PAVObjectType@Stack@Net@2@@std@@@std@@$0A@@std@@@std@@@std@@QAE?AV01@H@Z 0047c251 f   libohNetCore:Stack.obj
 0001:0007b270       __unwindfunclet$??E?$_Tree_iterator@V?$_Tree_val@V?$_Tmap_traits@PAXPAXU?$less@PAX@std@@V?$allocator@U?$pair@QAXPAX@std@@@2@$0A@@std@@@std@@@std@@QAE?AV01@H@Z$0 0047c270 f   libohNetCore:Stack.obj
 0001:0007b278       __unwindfunclet$??E?$_Tree_iterator@V?$_Tree_val@V?$_Tmap_traits@PAXPAXU?$less@PAX@std@@V?$allocator@U?$pair@QAXPAX@std@@@2@$0A@@std@@@std@@@std@@QAE?AV01@H@Z$1 0047c278 f   libohNetCore:Stack.obj
 0001:0007b291       __ehhandler$??E?$_Tree_iterator@V?$_Tree_val@V?$_Tmap_traits@PAXPAXU?$less@PAX@std@@V?$allocator@U?$pair@QAXPAX@std@@@2@$0A@@std@@@std@@@std@@QAE?AV01@H@Z 0047c291 f   libohNetCore:Stack.obj
 0001:0007b2b0       __unwindfunclet$?_Orphan_ptr@?$_Tree@V?$_Tmap_traits@PAXPAXU?$less@PAX@std@@V?$allocator@U?$pair@QAXPAX@std@@@2@$0A@@std@@@std@@IBEXAAV12@PAU_Node@?$_Tree_nod@V?$_Tmap_traits@PAXPAXU?$less@PAX@std@@V?$allocator@U?$pair@QAXPAX@std@@@2@$0A@@std@@@2@@Z$0 0047c2b0 f   libohNetCore:Stack.obj
 0001:0007b2b8       __ehhandler$?_Orphan_ptr@?$_Tree@V?$_Tmap_traits@PAXPAXU?$less@PAX@std@@V?$allocator@U?$pair@QAXPAX@std@@@2@$0A@@std@@@std@@IBEXAAV12@PAU_Node@?$_Tree_nod@V?$_Tmap_traits@PAXPAXU?$less@PAX@std@@V?$allocator@U?$pair@QAXPAX@std@@@2@$0A@@std@@@2@@Z 0047c2b8 f   libohNetCore:Stack.obj
 0001:0007b2e0       __unwindfunclet$?_Tidy@?$_Tree@V?$_Tmap_traits@PAXPAXU?$less@PAX@std@@V?$allocator@U?$pair@QAXPAX@std@@@2@$0A@@std@@@std@@IAEXXZ$0 0047c2e0 f   libohNetCore:Stack.obj
 0001:0007b2e8       __unwindfunclet$?_Tidy@?$_Tree@V?$_Tmap_traits@PAXPAXU?$less@PAX@std@@V?$allocator@U?$pair@QAXPAX@std@@@2@$0A@@std@@@std@@IAEXXZ$1 0047c2e8 f   libohNetCore:Stack.obj
 0001:0007b2f0       __unwindfunclet$?_Tidy@?$_Tree@V?$_Tmap_traits@PAXPAXU?$less@PAX@std@@V?$allocator@U?$pair@QAXPAX@std@@@2@$0A@@std@@@std@@IAEXXZ$2 0047c2f0 f   libohNetCore:Stack.obj
 0001:0007b2f8       __ehhandler$?_Tidy@?$_Tree@V?$_Tmap_traits@PAXPAXU?$less@PAX@std@@V?$allocator@U?$pair@QAXPAX@std@@@2@$0A@@std@@@std@@IAEXXZ 0047c2f8 f   libohNetCore:Stack.obj
 0001:0007b320       __unwindfunclet$??1?$_Tree_val@V?$_Tmap_traits@PAXPAXU?$less@PAX@std@@V?$allocator@U?$pair@QAXPAX@std@@@2@$0A@@std@@@std@@QAE@XZ$0 0047c320 f   libohNetCore:Stack.obj
 0001:0007b328       __ehhandler$??1?$_Tree_val@V?$_Tmap_traits@PAXPAXU?$less@PAX@std@@V?$allocator@U?$pair@QAXPAX@std@@@2@$0A@@std@@@std@@QAE@XZ 0047c328 f   libohNetCore:Stack.obj
 0001:0007b350       __unwindfunclet$?_Make_iter@?$vector@PAVMListener@Stack@Net@OpenHome@@V?$allocator@PAVMListener@Stack@Net@OpenHome@@@std@@@std@@QBE?AV?$_Vector_iterator@V?$_Vector_val@PAVMListener@Stack@Net@OpenHome@@V?$allocator@PAVMListener@Stack@Net@OpenHome@@@std@@@std@@@2@V?$_Vector_const_iterator@V?$_Vector_val@PAVMListener@Stack@Net@OpenHome@@V?$allocator@PAVMListener@Stack@Net@OpenHome@@@std@@@std@@@2@@Z$0 0047c350 f   libohNetCore:Stack.obj
 0001:0007b358       __unwindfunclet$?_Make_iter@?$vector@PAVMListener@Stack@Net@OpenHome@@V?$allocator@PAVMListener@Stack@Net@OpenHome@@@std@@@std@@QBE?AV?$_Vector_iterator@V?$_Vector_val@PAVMListener@Stack@Net@OpenHome@@V?$allocator@PAVMListener@Stack@Net@OpenHome@@@std@@@std@@@2@V?$_Vector_const_iterator@V?$_Vector_val@PAVMListener@Stack@Net@OpenHome@@V?$allocator@PAVMListener@Stack@Net@OpenHome@@@std@@@std@@@2@@Z$1 0047c358 f   libohNetCore:Stack.obj
 0001:0007b371       __ehhandler$?_Make_iter@?$vector@PAVMListener@Stack@Net@OpenHome@@V?$allocator@PAVMListener@Stack@Net@OpenHome@@@std@@@std@@QBE?AV?$_Vector_iterator@V?$_Vector_val@PAVMListener@Stack@Net@OpenHome@@V?$allocator@PAVMListener@Stack@Net@OpenHome@@@std@@@std@@@2@V?$_Vector_const_iterator@V?$_Vector_val@PAVMListener@Stack@Net@OpenHome@@V?$allocator@PAVMListener@Stack@Net@OpenHome@@@std@@@std@@@2@@Z 0047c371 f   libohNetCore:Stack.obj
 0001:0007b390       __unwindfunclet$?_Orphan_range@?$vector@PAVMListener@Stack@Net@OpenHome@@V?$allocator@PAVMListener@Stack@Net@OpenHome@@@std@@@std@@IBEXPAPAVMListener@Stack@Net@OpenHome@@0@Z$0 0047c390 f   libohNetCore:Stack.obj
 0001:0007b398       __ehhandler$?_Orphan_range@?$vector@PAVMListener@Stack@Net@OpenHome@@V?$allocator@PAVMListener@Stack@Net@OpenHome@@@std@@@std@@IBEXPAPAVMListener@Stack@Net@OpenHome@@0@Z 0047c398 f   libohNetCore:Stack.obj
 0001:0007b3c0       __unwindfunclet$??0?$_Vector_val@PAVMListener@Stack@Net@OpenHome@@V?$allocator@PAVMListener@Stack@Net@OpenHome@@@std@@@std@@QAE@V?$allocator@PAVMListener@Stack@Net@OpenHome@@@1@@Z$0 0047c3c0 f   libohNetCore:Stack.obj
 0001:0007b3c8       __ehhandler$??0?$_Vector_val@PAVMListener@Stack@Net@OpenHome@@V?$allocator@PAVMListener@Stack@Net@OpenHome@@@std@@@std@@QAE@V?$allocator@PAVMListener@Stack@Net@OpenHome@@@1@@Z 0047c3c8 f   libohNetCore:Stack.obj
 0001:0007b3f0       __unwindfunclet$??1?$_Vector_val@PAVMListener@Stack@Net@OpenHome@@V?$allocator@PAVMListener@Stack@Net@OpenHome@@@std@@@std@@QAE@XZ$0 0047c3f0 f   libohNetCore:Stack.obj
 0001:0007b3f8       __ehhandler$??1?$_Vector_val@PAVMListener@Stack@Net@OpenHome@@V?$allocator@PAVMListener@Stack@Net@OpenHome@@@std@@@std@@QAE@XZ 0047c3f8 f   libohNetCore:Stack.obj
 0001:0007b420       __unwindfunclet$?_Orphan_ptr@?$_Tree@V?$_Tmap_traits@VBrn@OpenHome@@PAVObjectType@Stack@Net@2@VBufferCmp@2@V?$allocator@U?$pair@$$CBVBrn@OpenHome@@PAVObjectType@Stack@Net@2@@std@@@std@@$0A@@std@@@std@@IBEXAAV12@PAU_Node@?$_Tree_nod@V?$_Tmap_traits@VBrn@OpenHome@@PAVObjectType@Stack@Net@2@VBufferCmp@2@V?$allocator@U?$pair@$$CBVBrn@OpenHome@@PAVObjectType@Stack@Net@2@@std@@@std@@$0A@@std@@@2@@Z$0 0047c420 f   libohNetCore:Stack.obj
 0001:0007b428       __ehhandler$?_Orphan_ptr@?$_Tree@V?$_Tmap_traits@VBrn@OpenHome@@PAVObjectType@Stack@Net@2@VBufferCmp@2@V?$allocator@U?$pair@$$CBVBrn@OpenHome@@PAVObjectType@Stack@Net@2@@std@@@std@@$0A@@std@@@std@@IBEXAAV12@PAU_Node@?$_Tree_nod@V?$_Tmap_traits@VBrn@OpenHome@@PAVObjectType@Stack@Net@2@VBufferCmp@2@V?$allocator@U?$pair@$$CBVBrn@OpenHome@@PAVObjectType@Stack@Net@2@@std@@@std@@$0A@@std@@@2@@Z 0047c428 f   libohNetCore:Stack.obj
 0001:0007b450       __unwindfunclet$?_Tidy@?$_Tree@V?$_Tmap_traits@VBrn@OpenHome@@PAVObjectType@Stack@Net@2@VBufferCmp@2@V?$allocator@U?$pair@$$CBVBrn@OpenHome@@PAVObjectType@Stack@Net@2@@std@@@std@@$0A@@std@@@std@@IAEXXZ$0 0047c450 f   libohNetCore:Stack.obj
 0001:0007b458       __unwindfunclet$?_Tidy@?$_Tree@V?$_Tmap_traits@VBrn@OpenHome@@PAVObjectType@Stack@Net@2@VBufferCmp@2@V?$allocator@U?$pair@$$CBVBrn@OpenHome@@PAVObjectType@Stack@Net@2@@std@@@std@@$0A@@std@@@std@@IAEXXZ$1 0047c458 f   libohNetCore:Stack.obj
 0001:0007b460       __unwindfunclet$?_Tidy@?$_Tree@V?$_Tmap_traits@VBrn@OpenHome@@PAVObjectType@Stack@Net@2@VBufferCmp@2@V?$allocator@U?$pair@$$CBVBrn@OpenHome@@PAVObjectType@Stack@Net@2@@std@@@std@@$0A@@std@@@std@@IAEXXZ$2 0047c460 f   libohNetCore:Stack.obj
 0001:0007b468       __ehhandler$?_Tidy@?$_Tree@V?$_Tmap_traits@VBrn@OpenHome@@PAVObjectType@Stack@Net@2@VBufferCmp@2@V?$allocator@U?$pair@$$CBVBrn@OpenHome@@PAVObjectType@Stack@Net@2@@std@@@std@@$0A@@std@@@std@@IAEXXZ 0047c468 f   libohNetCore:Stack.obj
 0001:0007b490       __unwindfunclet$??1?$_Tree_val@V?$_Tmap_traits@VBrn@OpenHome@@PAVObjectType@Stack@Net@2@VBufferCmp@2@V?$allocator@U?$pair@$$CBVBrn@OpenHome@@PAVObjectType@Stack@Net@2@@std@@@std@@$0A@@std@@@std@@QAE@XZ$0 0047c490 f   libohNetCore:Stack.obj
 0001:0007b498       __ehhandler$??1?$_Tree_val@V?$_Tmap_traits@VBrn@OpenHome@@PAVObjectType@Stack@Net@2@VBufferCmp@2@V?$allocator@U?$pair@$$CBVBrn@OpenHome@@PAVObjectType@Stack@Net@2@@std@@@std@@$0A@@std@@@std@@QAE@XZ 0047c498 f   libohNetCore:Stack.obj
 0001:0007b4c0       __unwindfunclet$?erase@?$_Tree@V?$_Tmap_traits@PAXPAXU?$less@PAX@std@@V?$allocator@U?$pair@QAXPAX@std@@@2@$0A@@std@@@std@@QAE?AV?$_Tree_iterator@V?$_Tree_val@V?$_Tmap_traits@PAXPAXU?$less@PAX@std@@V?$allocator@U?$pair@QAXPAX@std@@@2@$0A@@std@@@std@@@2@V?$_Tree_const_iterator@V?$_Tree_val@V?$_Tmap_traits@PAXPAXU?$less@PAX@std@@V?$allocator@U?$pair@QAXPAX@std@@@2@$0A@@std@@@std@@@2@0@Z$0 0047c4c0 f   libohNetCore:Stack.obj
 0001:0007b4c8       __unwindfunclet$?erase@?$_Tree@V?$_Tmap_traits@PAXPAXU?$less@PAX@std@@V?$allocator@U?$pair@QAXPAX@std@@@2@$0A@@std@@@std@@QAE?AV?$_Tree_iterator@V?$_Tree_val@V?$_Tmap_traits@PAXPAXU?$less@PAX@std@@V?$allocator@U?$pair@QAXPAX@std@@@2@$0A@@std@@@std@@@2@V?$_Tree_const_iterator@V?$_Tree_val@V?$_Tmap_traits@PAXPAXU?$less@PAX@std@@V?$allocator@U?$pair@QAXPAX@std@@@2@$0A@@std@@@std@@@2@0@Z$1 0047c4c8 f   libohNetCore:Stack.obj
 0001:0007b4d0       __unwindfunclet$?erase@?$_Tree@V?$_Tmap_traits@PAXPAXU?$less@PAX@std@@V?$allocator@U?$pair@QAXPAX@std@@@2@$0A@@std@@@std@@QAE?AV?$_Tree_iterator@V?$_Tree_val@V?$_Tmap_traits@PAXPAXU?$less@PAX@std@@V?$allocator@U?$pair@QAXPAX@std@@@2@$0A@@std@@@std@@@2@V?$_Tree_const_iterator@V?$_Tree_val@V?$_Tmap_traits@PAXPAXU?$less@PAX@std@@V?$allocator@U?$pair@QAXPAX@std@@@2@$0A@@std@@@std@@@2@0@Z$2 0047c4d0 f   libohNetCore:Stack.obj
 0001:0007b4e9       __unwindfunclet$?erase@?$_Tree@V?$_Tmap_traits@PAXPAXU?$less@PAX@std@@V?$allocator@U?$pair@QAXPAX@std@@@2@$0A@@std@@@std@@QAE?AV?$_Tree_iterator@V?$_Tree_val@V?$_Tmap_traits@PAXPAXU?$less@PAX@std@@V?$allocator@U?$pair@QAXPAX@std@@@2@$0A@@std@@@std@@@2@V?$_Tree_const_iterator@V?$_Tree_val@V?$_Tmap_traits@PAXPAXU?$less@PAX@std@@V?$allocator@U?$pair@QAXPAX@std@@@2@$0A@@std@@@std@@@2@0@Z$3 0047c4e9 f   libohNetCore:Stack.obj
 0001:0007b502       __unwindfunclet$?erase@?$_Tree@V?$_Tmap_traits@PAXPAXU?$less@PAX@std@@V?$allocator@U?$pair@QAXPAX@std@@@2@$0A@@std@@@std@@QAE?AV?$_Tree_iterator@V?$_Tree_val@V?$_Tmap_traits@PAXPAXU?$less@PAX@std@@V?$allocator@U?$pair@QAXPAX@std@@@2@$0A@@std@@@std@@@2@V?$_Tree_const_iterator@V?$_Tree_val@V?$_Tmap_traits@PAXPAXU?$less@PAX@std@@V?$allocator@U?$pair@QAXPAX@std@@@2@$0A@@std@@@std@@@2@0@Z$4 0047c502 f   libohNetCore:Stack.obj
 0001:0007b51b       __ehhandler$?erase@?$_Tree@V?$_Tmap_traits@PAXPAXU?$less@PAX@std@@V?$allocator@U?$pair@QAXPAX@std@@@2@$0A@@std@@@std@@QAE?AV?$_Tree_iterator@V?$_Tree_val@V?$_Tmap_traits@PAXPAXU?$less@PAX@std@@V?$allocator@U?$pair@QAXPAX@std@@@2@$0A@@std@@@std@@@2@V?$_Tree_const_iterator@V?$_Tree_val@V?$_Tmap_traits@PAXPAXU?$less@PAX@std@@V?$allocator@U?$pair@QAXPAX@std@@@2@$0A@@std@@@std@@@2@0@Z 0047c51b f   libohNetCore:Stack.obj
 0001:0007b540       __unwindfunclet$??0?$_Tree_val@V?$_Tmap_traits@PAXPAXU?$less@PAX@std@@V?$allocator@U?$pair@QAXPAX@std@@@2@$0A@@std@@@std@@QAE@ABU?$less@PAX@1@V?$allocator@U?$pair@QAXPAX@std@@@1@@Z$0 0047c540 f   libohNetCore:Stack.obj
 0001:0007b548       __ehhandler$??0?$_Tree_val@V?$_Tmap_traits@PAXPAXU?$less@PAX@std@@V?$allocator@U?$pair@QAXPAX@std@@@2@$0A@@std@@@std@@QAE@ABU?$less@PAX@1@V?$allocator@U?$pair@QAXPAX@std@@@1@@Z 0047c548 f   libohNetCore:Stack.obj
 0001:0007b570       __unwindfunclet$??1?$_Tree_nod@V?$_Tmap_traits@PAXPAXU?$less@PAX@std@@V?$allocator@U?$pair@QAXPAX@std@@@2@$0A@@std@@@std@@QAE@XZ$0 0047c570 f   libohNetCore:Stack.obj
 0001:0007b578       __ehhandler$??1?$_Tree_nod@V?$_Tmap_traits@PAXPAXU?$less@PAX@std@@V?$allocator@U?$pair@QAXPAX@std@@@2@$0A@@std@@@std@@QAE@XZ 0047c578 f   libohNetCore:Stack.obj
 0001:0007b5a0       __ehhandler$?reserve@?$vector@PAVMListener@Stack@Net@OpenHome@@V?$allocator@PAVMListener@Stack@Net@OpenHome@@@std@@@std@@QAEXI@Z 0047c5a0 f   libohNetCore:Stack.obj
 0001:0007b5c0       __unwindfunclet$?erase@?$_Tree@V?$_Tmap_traits@VBrn@OpenHome@@PAVObjectType@Stack@Net@2@VBufferCmp@2@V?$allocator@U?$pair@$$CBVBrn@OpenHome@@PAVObjectType@Stack@Net@2@@std@@@std@@$0A@@std@@@std@@QAE?AV?$_Tree_iterator@V?$_Tree_val@V?$_Tmap_traits@VBrn@OpenHome@@PAVObjectType@Stack@Net@2@VBufferCmp@2@V?$allocator@U?$pair@$$CBVBrn@OpenHome@@PAVObjectType@Stack@Net@2@@std@@@std@@$0A@@std@@@std@@@2@V?$_Tree_const_iterator@V?$_Tree_val@V?$_Tmap_traits@VBrn@OpenHome@@PAVObjectType@Stack@Net@2@VBufferCmp@2@V?$allocator@U?$pair@$$CBVBrn@OpenHome@@PAVObjectType@Stack@Net@2@@std@@@std@@$0A@@std@@@std@@@2@0@Z$0 0047c5c0 f   libohNetCore:Stack.obj
 0001:0007b5c8       __unwindfunclet$?erase@?$_Tree@V?$_Tmap_traits@VBrn@OpenHome@@PAVObjectType@Stack@Net@2@VBufferCmp@2@V?$allocator@U?$pair@$$CBVBrn@OpenHome@@PAVObjectType@Stack@Net@2@@std@@@std@@$0A@@std@@@std@@QAE?AV?$_Tree_iterator@V?$_Tree_val@V?$_Tmap_traits@VBrn@OpenHome@@PAVObjectType@Stack@Net@2@VBufferCmp@2@V?$allocator@U?$pair@$$CBVBrn@OpenHome@@PAVObjectType@Stack@Net@2@@std@@@std@@$0A@@std@@@std@@@2@V?$_Tree_const_iterator@V?$_Tree_val@V?$_Tmap_traits@VBrn@OpenHome@@PAVObjectType@Stack@Net@2@VBufferCmp@2@V?$allocator@U?$pair@$$CBVBrn@OpenHome@@PAVObjectType@Stack@Net@2@@std@@@std@@$0A@@std@@@std@@@2@0@Z$1 0047c5c8 f   libohNetCore:Stack.obj
 0001:0007b5d0       __unwindfunclet$?erase@?$_Tree@V?$_Tmap_traits@VBrn@OpenHome@@PAVObjectType@Stack@Net@2@VBufferCmp@2@V?$allocator@U?$pair@$$CBVBrn@OpenHome@@PAVObjectType@Stack@Net@2@@std@@@std@@$0A@@std@@@std@@QAE?AV?$_Tree_iterator@V?$_Tree_val@V?$_Tmap_traits@VBrn@OpenHome@@PAVObjectType@Stack@Net@2@VBufferCmp@2@V?$allocator@U?$pair@$$CBVBrn@OpenHome@@PAVObjectType@Stack@Net@2@@std@@@std@@$0A@@std@@@std@@@2@V?$_Tree_const_iterator@V?$_Tree_val@V?$_Tmap_traits@VBrn@OpenHome@@PAVObjectType@Stack@Net@2@VBufferCmp@2@V?$allocator@U?$pair@$$CBVBrn@OpenHome@@PAVObjectType@Stack@Net@2@@std@@@std@@$0A@@std@@@std@@@2@0@Z$2 0047c5d0 f   libohNetCore:Stack.obj
 0001:0007b5e9       __unwindfunclet$?erase@?$_Tree@V?$_Tmap_traits@VBrn@OpenHome@@PAVObjectType@Stack@Net@2@VBufferCmp@2@V?$allocator@U?$pair@$$CBVBrn@OpenHome@@PAVObjectType@Stack@Net@2@@std@@@std@@$0A@@std@@@std@@QAE?AV?$_Tree_iterator@V?$_Tree_val@V?$_Tmap_traits@VBrn@OpenHome@@PAVObjectType@Stack@Net@2@VBufferCmp@2@V?$allocator@U?$pair@$$CBVBrn@OpenHome@@PAVObjectType@Stack@Net@2@@std@@@std@@$0A@@std@@@std@@@2@V?$_Tree_const_iterator@V?$_Tree_val@V?$_Tmap_traits@VBrn@OpenHome@@PAVObjectType@Stack@Net@2@VBufferCmp@2@V?$allocator@U?$pair@$$CBVBrn@OpenHome@@PAVObjectType@Stack@Net@2@@std@@@std@@$0A@@std@@@std@@@2@0@Z$3 0047c5e9 f   libohNetCore:Stack.obj
 0001:0007b602       __unwindfunclet$?erase@?$_Tree@V?$_Tmap_traits@VBrn@OpenHome@@PAVObjectType@Stack@Net@2@VBufferCmp@2@V?$allocator@U?$pair@$$CBVBrn@OpenHome@@PAVObjectType@Stack@Net@2@@std@@@std@@$0A@@std@@@std@@QAE?AV?$_Tree_iterator@V?$_Tree_val@V?$_Tmap_traits@VBrn@OpenHome@@PAVObjectType@Stack@Net@2@VBufferCmp@2@V?$allocator@U?$pair@$$CBVBrn@OpenHome@@PAVObjectType@Stack@Net@2@@std@@@std@@$0A@@std@@@std@@@2@V?$_Tree_const_iterator@V?$_Tree_val@V?$_Tmap_traits@VBrn@OpenHome@@PAVObjectType@Stack@Net@2@VBufferCmp@2@V?$allocator@U?$pair@$$CBVBrn@OpenHome@@PAVObjectType@Stack@Net@2@@std@@@std@@$0A@@std@@@std@@@2@0@Z$4 0047c602 f   libohNetCore:Stack.obj
 0001:0007b61b       __ehhandler$?erase@?$_Tree@V?$_Tmap_traits@VBrn@OpenHome@@PAVObjectType@Stack@Net@2@VBufferCmp@2@V?$allocator@U?$pair@$$CBVBrn@OpenHome@@PAVObjectType@Stack@Net@2@@std@@@std@@$0A@@std@@@std@@QAE?AV?$_Tree_iterator@V?$_Tree_val@V?$_Tmap_traits@VBrn@OpenHome@@PAVObjectType@Stack@Net@2@VBufferCmp@2@V?$allocator@U?$pair@$$CBVBrn@OpenHome@@PAVObjectType@Stack@Net@2@@std@@@std@@$0A@@std@@@std@@@2@V?$_Tree_const_iterator@V?$_Tree_val@V?$_Tmap_traits@VBrn@OpenHome@@PAVObjectType@Stack@Net@2@VBufferCmp@2@V?$allocator@U?$pair@$$CBVBrn@OpenHome@@PAVObjectType@Stack@Net@2@@std@@@std@@$0A@@std@@@std@@@2@0@Z 0047c61b f   libohNetCore:Stack.obj
 0001:0007b640       __unwindfunclet$??0?$_Tree_val@V?$_Tmap_traits@VBrn@OpenHome@@PAVObjectType@Stack@Net@2@VBufferCmp@2@V?$allocator@U?$pair@$$CBVBrn@OpenHome@@PAVObjectType@Stack@Net@2@@std@@@std@@$0A@@std@@@std@@QAE@ABVBufferCmp@OpenHome@@V?$allocator@U?$pair@$$CBVBrn@OpenHome@@PAVObjectType@Stack@Net@2@@std@@@1@@Z$0 0047c640 f   libohNetCore:Stack.obj
 0001:0007b648       __ehhandler$??0?$_Tree_val@V?$_Tmap_traits@VBrn@OpenHome@@PAVObjectType@Stack@Net@2@VBufferCmp@2@V?$allocator@U?$pair@$$CBVBrn@OpenHome@@PAVObjectType@Stack@Net@2@@std@@@std@@$0A@@std@@@std@@QAE@ABVBufferCmp@OpenHome@@V?$allocator@U?$pair@$$CBVBrn@OpenHome@@PAVObjectType@Stack@Net@2@@std@@@1@@Z 0047c648 f   libohNetCore:Stack.obj
 0001:0007b670       __unwindfunclet$??1?$_Tree_nod@V?$_Tmap_traits@VBrn@OpenHome@@PAVObjectType@Stack@Net@2@VBufferCmp@2@V?$allocator@U?$pair@$$CBVBrn@OpenHome@@PAVObjectType@Stack@Net@2@@std@@@std@@$0A@@std@@@std@@QAE@XZ$0 0047c670 f   libohNetCore:Stack.obj
 0001:0007b678       __ehhandler$??1?$_Tree_nod@V?$_Tmap_traits@VBrn@OpenHome@@PAVObjectType@Stack@Net@2@VBufferCmp@2@V?$allocator@U?$pair@$$CBVBrn@OpenHome@@PAVObjectType@Stack@Net@2@@std@@@std@@$0A@@std@@@std@@QAE@XZ 0047c678 f   libohNetCore:Stack.obj
 0001:0007b6a0       __unwindfunclet$??0?$_Vector_const_iterator@V?$_Vector_val@PAVMListener@Stack@Net@OpenHome@@V?$allocator@PAVMListener@Stack@Net@OpenHome@@@std@@@std@@@std@@QAE@PAPAVMListener@Stack@Net@OpenHome@@PBU_Container_base12@1@@Z$0 0047c6a0 f   libohNetCore:Stack.obj
 0001:0007b6a8       __ehhandler$??0?$_Vector_const_iterator@V?$_Vector_val@PAVMListener@Stack@Net@OpenHome@@V?$allocator@PAVMListener@Stack@Net@OpenHome@@@std@@@std@@@std@@QAE@PAPAVMListener@Stack@Net@OpenHome@@PBU_Container_base12@1@@Z 0047c6a8 f   libohNetCore:Stack.obj
 0001:0007b6d0       __unwindfunclet$??0?$_Tree_nod@V?$_Tmap_traits@PAXPAXU?$less@PAX@std@@V?$allocator@U?$pair@QAXPAX@std@@@2@$0A@@std@@@std@@QAE@ABU?$less@PAX@1@V?$allocator@U?$pair@QAXPAX@std@@@1@@Z$0 0047c6d0 f   libohNetCore:Stack.obj
 0001:0007b6d8       __ehhandler$??0?$_Tree_nod@V?$_Tmap_traits@PAXPAXU?$less@PAX@std@@V?$allocator@U?$pair@QAXPAX@std@@@2@$0A@@std@@@std@@QAE@ABU?$less@PAX@1@V?$allocator@U?$pair@QAXPAX@std@@@1@@Z 0047c6d8 f   libohNetCore:Stack.obj
 0001:0007b700       __unwindfunclet$??0?$_Tree_nod@V?$_Tmap_traits@VBrn@OpenHome@@PAVObjectType@Stack@Net@2@VBufferCmp@2@V?$allocator@U?$pair@$$CBVBrn@OpenHome@@PAVObjectType@Stack@Net@2@@std@@@std@@$0A@@std@@@std@@QAE@ABVBufferCmp@OpenHome@@V?$allocator@U?$pair@$$CBVBrn@OpenHome@@PAVObjectType@Stack@Net@2@@std@@@1@@Z$0 0047c700 f   libohNetCore:Stack.obj
 0001:0007b708       __ehhandler$??0?$_Tree_nod@V?$_Tmap_traits@VBrn@OpenHome@@PAVObjectType@Stack@Net@2@VBufferCmp@2@V?$allocator@U?$pair@$$CBVBrn@OpenHome@@PAVObjectType@Stack@Net@2@@std@@@std@@$0A@@std@@@std@@QAE@ABVBufferCmp@OpenHome@@V?$allocator@U?$pair@$$CBVBrn@OpenHome@@PAVObjectType@Stack@Net@2@@std@@@1@@Z 0047c708 f   libohNetCore:Stack.obj
 0001:0007b730       __unwindfunclet$??E?$_Tree_const_iterator@V?$_Tree_val@V?$_Tmap_traits@VBrn@OpenHome@@PAVObjectType@Stack@Net@2@VBufferCmp@2@V?$allocator@U?$pair@$$CBVBrn@OpenHome@@PAVObjectType@Stack@Net@2@@std@@@std@@$0A@@std@@@std@@@std@@QAE?AV01@H@Z$0 0047c730 f   libohNetCore:Stack.obj
 0001:0007b738       __unwindfunclet$??E?$_Tree_const_iterator@V?$_Tree_val@V?$_Tmap_traits@VBrn@OpenHome@@PAVObjectType@Stack@Net@2@VBufferCmp@2@V?$allocator@U?$pair@$$CBVBrn@OpenHome@@PAVObjectType@Stack@Net@2@@std@@@std@@$0A@@std@@@std@@@std@@QAE?AV01@H@Z$1 0047c738 f   libohNetCore:Stack.obj
 0001:0007b751       __ehhandler$??E?$_Tree_const_iterator@V?$_Tree_val@V?$_Tmap_traits@VBrn@OpenHome@@PAVObjectType@Stack@Net@2@VBufferCmp@2@V?$allocator@U?$pair@$$CBVBrn@OpenHome@@PAVObjectType@Stack@Net@2@@std@@@std@@$0A@@std@@@std@@@std@@QAE?AV01@H@Z 0047c751 f   libohNetCore:Stack.obj
 0001:0007b770       __unwindfunclet$??0?$_Tree_unchecked_const_iterator@V?$_Tree_val@V?$_Tmap_traits@VBrn@OpenHome@@PAVObjectType@Stack@Net@2@VBufferCmp@2@V?$allocator@U?$pair@$$CBVBrn@OpenHome@@PAVObjectType@Stack@Net@2@@std@@@std@@$0A@@std@@@std@@U_Iterator_base12@2@@std@@QAE@PAU_Node@?$_Tree_nod@V?$_Tmap_traits@VBrn@OpenHome@@PAVObjectType@Stack@Net@2@VBufferCmp@2@V?$allocator@U?$pair@$$CBVBrn@OpenHome@@PAVObjectType@Stack@Net@2@@std@@@std@@$0A@@std@@@1@PBV?$_Tree_val@V?$_Tmap_traits@VBrn@OpenHome@@PAVObjectType@Stack@Net@2@VBufferCmp@2@V?$allocator@U?$pair@$$CBVBrn@OpenHome@@PAVObjectType@Stack@Net@2@@std@@@std@@$0A@@std@@@1@@Z$0 0047c770 f   libohNetCore:Stack.obj
 0001:0007b778       __ehhandler$??0?$_Tree_unchecked_const_iterator@V?$_Tree_val@V?$_Tmap_traits@VBrn@OpenHome@@PAVObjectType@Stack@Net@2@VBufferCmp@2@V?$allocator@U?$pair@$$CBVBrn@OpenHome@@PAVObjectType@Stack@Net@2@@std@@@std@@$0A@@std@@@std@@U_Iterator_base12@2@@std@@QAE@PAU_Node@?$_Tree_nod@V?$_Tmap_traits@VBrn@OpenHome@@PAVObjectType@Stack@Net@2@VBufferCmp@2@V?$allocator@U?$pair@$$CBVBrn@OpenHome@@PAVObjectType@Stack@Net@2@@std@@@std@@$0A@@std@@@1@PBV?$_Tree_val@V?$_Tmap_traits@VBrn@OpenHome@@PAVObjectType@Stack@Net@2@VBufferCmp@2@V?$allocator@U?$pair@$$CBVBrn@OpenHome@@PAVObjectType@Stack@Net@2@@std@@@std@@$0A@@std@@@1@@Z 0047c778 f   libohNetCore:Stack.obj
 0001:0007b7a0       __unwindfunclet$??E?$_Tree_const_iterator@V?$_Tree_val@V?$_Tmap_traits@PAXPAXU?$less@PAX@std@@V?$allocator@U?$pair@QAXPAX@std@@@2@$0A@@std@@@std@@@std@@QAE?AV01@H@Z$0 0047c7a0 f   libohNetCore:Stack.obj
 0001:0007b7a8       __unwindfunclet$??E?$_Tree_const_iterator@V?$_Tree_val@V?$_Tmap_traits@PAXPAXU?$less@PAX@std@@V?$allocator@U?$pair@QAXPAX@std@@@2@$0A@@std@@@std@@@std@@QAE?AV01@H@Z$1 0047c7a8 f   libohNetCore:Stack.obj
 0001:0007b7c1       __ehhandler$??E?$_Tree_const_iterator@V?$_Tree_val@V?$_Tmap_traits@PAXPAXU?$less@PAX@std@@V?$allocator@U?$pair@QAXPAX@std@@@2@$0A@@std@@@std@@@std@@QAE?AV01@H@Z 0047c7c1 f   libohNetCore:Stack.obj
 0001:0007b7e0       __unwindfunclet$??0?$_Tree_unchecked_const_iterator@V?$_Tree_val@V?$_Tmap_traits@PAXPAXU?$less@PAX@std@@V?$allocator@U?$pair@QAXPAX@std@@@2@$0A@@std@@@std@@U_Iterator_base12@2@@std@@QAE@PAU_Node@?$_Tree_nod@V?$_Tmap_traits@PAXPAXU?$less@PAX@std@@V?$allocator@U?$pair@QAXPAX@std@@@2@$0A@@std@@@1@PBV?$_Tree_val@V?$_Tmap_traits@PAXPAXU?$less@PAX@std@@V?$allocator@U?$pair@QAXPAX@std@@@2@$0A@@std@@@1@@Z$0 0047c7e0 f   libohNetCore:Stack.obj
 0001:0007b7e8       __ehhandler$??0?$_Tree_unchecked_const_iterator@V?$_Tree_val@V?$_Tmap_traits@PAXPAXU?$less@PAX@std@@V?$allocator@U?$pair@QAXPAX@std@@@2@$0A@@std@@@std@@U_Iterator_base12@2@@std@@QAE@PAU_Node@?$_Tree_nod@V?$_Tmap_traits@PAXPAXU?$less@PAX@std@@V?$allocator@U?$pair@QAXPAX@std@@@2@$0A@@std@@@1@PBV?$_Tree_val@V?$_Tmap_traits@PAXPAXU?$less@PAX@std@@V?$allocator@U?$pair@QAXPAX@std@@@2@$0A@@std@@@1@@Z 0047c7e8 f   libohNetCore:Stack.obj
 0001:0007b810       __unwindfunclet$?_Linsert@?$_Tree@V?$_Tmap_traits@PAXPAXU?$less@PAX@std@@V?$allocator@U?$pair@QAXPAX@std@@@2@$0A@@std@@@std@@QAE?AU?$pair@V?$_Tree_iterator@V?$_Tree_val@V?$_Tmap_traits@PAXPAXU?$less@PAX@std@@V?$allocator@U?$pair@QAXPAX@std@@@2@$0A@@std@@@std@@@std@@_N@2@PAU_Node@?$_Tree_nod@V?$_Tmap_traits@PAXPAXU?$less@PAX@std@@V?$allocator@U?$pair@QAXPAX@std@@@2@$0A@@std@@@2@_N@Z$0 0047c810 f   libohNetCore:Stack.obj
 0001:0007b818       __unwindfunclet$?_Linsert@?$_Tree@V?$_Tmap_traits@PAXPAXU?$less@PAX@std@@V?$allocator@U?$pair@QAXPAX@std@@@2@$0A@@std@@@std@@QAE?AU?$pair@V?$_Tree_iterator@V?$_Tree_val@V?$_Tmap_traits@PAXPAXU?$less@PAX@std@@V?$allocator@U?$pair@QAXPAX@std@@@2@$0A@@std@@@std@@@std@@_N@2@PAU_Node@?$_Tree_nod@V?$_Tmap_traits@PAXPAXU?$less@PAX@std@@V?$allocator@U?$pair@QAXPAX@std@@@2@$0A@@std@@@2@_N@Z$1 0047c818 f   libohNetCore:Stack.obj
 0001:0007b831       __unwindfunclet$?_Linsert@?$_Tree@V?$_Tmap_traits@PAXPAXU?$less@PAX@std@@V?$allocator@U?$pair@QAXPAX@std@@@2@$0A@@std@@@std@@QAE?AU?$pair@V?$_Tree_iterator@V?$_Tree_val@V?$_Tmap_traits@PAXPAXU?$less@PAX@std@@V?$allocator@U?$pair@QAXPAX@std@@@2@$0A@@std@@@std@@@std@@_N@2@PAU_Node@?$_Tree_nod@V?$_Tmap_traits@PAXPAXU?$less@PAX@std@@V?$allocator@U?$pair@QAXPAX@std@@@2@$0A@@std@@@2@_N@Z$2 0047c831 f   libohNetCore:Stack.obj
 0001:0007b839       __unwindfunclet$?_Linsert@?$_Tree@V?$_Tmap_traits@PAXPAXU?$less@PAX@std@@V?$allocator@U?$pair@QAXPAX@std@@@2@$0A@@std@@@std@@QAE?AU?$pair@V?$_Tree_iterator@V?$_Tree_val@V?$_Tmap_traits@PAXPAXU?$less@PAX@std@@V?$allocator@U?$pair@QAXPAX@std@@@2@$0A@@std@@@std@@@std@@_N@2@PAU_Node@?$_Tree_nod@V?$_Tmap_traits@PAXPAXU?$less@PAX@std@@V?$allocator@U?$pair@QAXPAX@std@@@2@$0A@@std@@@2@_N@Z$3 0047c839 f   libohNetCore:Stack.obj
 0001:0007b841       __unwindfunclet$?_Linsert@?$_Tree@V?$_Tmap_traits@PAXPAXU?$less@PAX@std@@V?$allocator@U?$pair@QAXPAX@std@@@2@$0A@@std@@@std@@QAE?AU?$pair@V?$_Tree_iterator@V?$_Tree_val@V?$_Tmap_traits@PAXPAXU?$less@PAX@std@@V?$allocator@U?$pair@QAXPAX@std@@@2@$0A@@std@@@std@@@std@@_N@2@PAU_Node@?$_Tree_nod@V?$_Tmap_traits@PAXPAXU?$less@PAX@std@@V?$allocator@U?$pair@QAXPAX@std@@@2@$0A@@std@@@2@_N@Z$4 0047c841 f   libohNetCore:Stack.obj
 0001:0007b849       __unwindfunclet$?_Linsert@?$_Tree@V?$_Tmap_traits@PAXPAXU?$less@PAX@std@@V?$allocator@U?$pair@QAXPAX@std@@@2@$0A@@std@@@std@@QAE?AU?$pair@V?$_Tree_iterator@V?$_Tree_val@V?$_Tmap_traits@PAXPAXU?$less@PAX@std@@V?$allocator@U?$pair@QAXPAX@std@@@2@$0A@@std@@@std@@@std@@_N@2@PAU_Node@?$_Tree_nod@V?$_Tmap_traits@PAXPAXU?$less@PAX@std@@V?$allocator@U?$pair@QAXPAX@std@@@2@$0A@@std@@@2@_N@Z$5 0047c849 f   libohNetCore:Stack.obj
 0001:0007b851       __ehhandler$?_Linsert@?$_Tree@V?$_Tmap_traits@PAXPAXU?$less@PAX@std@@V?$allocator@U?$pair@QAXPAX@std@@@2@$0A@@std@@@std@@QAE?AU?$pair@V?$_Tree_iterator@V?$_Tree_val@V?$_Tmap_traits@PAXPAXU?$less@PAX@std@@V?$allocator@U?$pair@QAXPAX@std@@@2@$0A@@std@@@std@@@std@@_N@2@PAU_Node@?$_Tree_nod@V?$_Tmap_traits@PAXPAXU?$less@PAX@std@@V?$allocator@U?$pair@QAXPAX@std@@@2@$0A@@std@@@2@_N@Z 0047c851 f   libohNetCore:Stack.obj
 0001:0007b870       __unwindfunclet$?_Linsert@?$_Tree@V?$_Tmap_traits@VBrn@OpenHome@@PAVObjectType@Stack@Net@2@VBufferCmp@2@V?$allocator@U?$pair@$$CBVBrn@OpenHome@@PAVObjectType@Stack@Net@2@@std@@@std@@$0A@@std@@@std@@QAE?AU?$pair@V?$_Tree_iterator@V?$_Tree_val@V?$_Tmap_traits@VBrn@OpenHome@@PAVObjectType@Stack@Net@2@VBufferCmp@2@V?$allocator@U?$pair@$$CBVBrn@OpenHome@@PAVObjectType@Stack@Net@2@@std@@@std@@$0A@@std@@@std@@@std@@_N@2@PAU_Node@?$_Tree_nod@V?$_Tmap_traits@VBrn@OpenHome@@PAVObjectType@Stack@Net@2@VBufferCmp@2@V?$allocator@U?$pair@$$CBVBrn@OpenHome@@PAVObjectType@Stack@Net@2@@std@@@std@@$0A@@std@@@2@_N@Z$0 0047c870 f   libohNetCore:Stack.obj
 0001:0007b878       __unwindfunclet$?_Linsert@?$_Tree@V?$_Tmap_traits@VBrn@OpenHome@@PAVObjectType@Stack@Net@2@VBufferCmp@2@V?$allocator@U?$pair@$$CBVBrn@OpenHome@@PAVObjectType@Stack@Net@2@@std@@@std@@$0A@@std@@@std@@QAE?AU?$pair@V?$_Tree_iterator@V?$_Tree_val@V?$_Tmap_traits@VBrn@OpenHome@@PAVObjectType@Stack@Net@2@VBufferCmp@2@V?$allocator@U?$pair@$$CBVBrn@OpenHome@@PAVObjectType@Stack@Net@2@@std@@@std@@$0A@@std@@@std@@@std@@_N@2@PAU_Node@?$_Tree_nod@V?$_Tmap_traits@VBrn@OpenHome@@PAVObjectType@Stack@Net@2@VBufferCmp@2@V?$allocator@U?$pair@$$CBVBrn@OpenHome@@PAVObjectType@Stack@Net@2@@std@@@std@@$0A@@std@@@2@_N@Z$1 0047c878 f   libohNetCore:Stack.obj
 0001:0007b891       __unwindfunclet$?_Linsert@?$_Tree@V?$_Tmap_traits@VBrn@OpenHome@@PAVObjectType@Stack@Net@2@VBufferCmp@2@V?$allocator@U?$pair@$$CBVBrn@OpenHome@@PAVObjectType@Stack@Net@2@@std@@@std@@$0A@@std@@@std@@QAE?AU?$pair@V?$_Tree_iterator@V?$_Tree_val@V?$_Tmap_traits@VBrn@OpenHome@@PAVObjectType@Stack@Net@2@VBufferCmp@2@V?$allocator@U?$pair@$$CBVBrn@OpenHome@@PAVObjectType@Stack@Net@2@@std@@@std@@$0A@@std@@@std@@@std@@_N@2@PAU_Node@?$_Tree_nod@V?$_Tmap_traits@VBrn@OpenHome@@PAVObjectType@Stack@Net@2@VBufferCmp@2@V?$allocator@U?$pair@$$CBVBrn@OpenHome@@PAVObjectType@Stack@Net@2@@std@@@std@@$0A@@std@@@2@_N@Z$2 0047c891 f   libohNetCore:Stack.obj
 0001:0007b899       __unwindfunclet$?_Linsert@?$_Tree@V?$_Tmap_traits@VBrn@OpenHome@@PAVObjectType@Stack@Net@2@VBufferCmp@2@V?$allocator@U?$pair@$$CBVBrn@OpenHome@@PAVObjectType@Stack@Net@2@@std@@@std@@$0A@@std@@@std@@QAE?AU?$pair@V?$_Tree_iterator@V?$_Tree_val@V?$_Tmap_traits@VBrn@OpenHome@@PAVObjectType@Stack@Net@2@VBufferCmp@2@V?$allocator@U?$pair@$$CBVBrn@OpenHome@@PAVObjectType@Stack@Net@2@@std@@@std@@$0A@@std@@@std@@@std@@_N@2@PAU_Node@?$_Tree_nod@V?$_Tmap_traits@VBrn@OpenHome@@PAVObjectType@Stack@Net@2@VBufferCmp@2@V?$allocator@U?$pair@$$CBVBrn@OpenHome@@PAVObjectType@Stack@Net@2@@std@@@std@@$0A@@std@@@2@_N@Z$3 0047c899 f   libohNetCore:Stack.obj
 0001:0007b8a1       __unwindfunclet$?_Linsert@?$_Tree@V?$_Tmap_traits@VBrn@OpenHome@@PAVObjectType@Stack@Net@2@VBufferCmp@2@V?$allocator@U?$pair@$$CBVBrn@OpenHome@@PAVObjectType@Stack@Net@2@@std@@@std@@$0A@@std@@@std@@QAE?AU?$pair@V?$_Tree_iterator@V?$_Tree_val@V?$_Tmap_traits@VBrn@OpenHome@@PAVObjectType@Stack@Net@2@VBufferCmp@2@V?$allocator@U?$pair@$$CBVBrn@OpenHome@@PAVObjectType@Stack@Net@2@@std@@@std@@$0A@@std@@@std@@@std@@_N@2@PAU_Node@?$_Tree_nod@V?$_Tmap_traits@VBrn@OpenHome@@PAVObjectType@Stack@Net@2@VBufferCmp@2@V?$allocator@U?$pair@$$CBVBrn@OpenHome@@PAVObjectType@Stack@Net@2@@std@@@std@@$0A@@std@@@2@_N@Z$4 0047c8a1 f   libohNetCore:Stack.obj
 0001:0007b8a9       __unwindfunclet$?_Linsert@?$_Tree@V?$_Tmap_traits@VBrn@OpenHome@@PAVObjectType@Stack@Net@2@VBufferCmp@2@V?$allocator@U?$pair@$$CBVBrn@OpenHome@@PAVObjectType@Stack@Net@2@@std@@@std@@$0A@@std@@@std@@QAE?AU?$pair@V?$_Tree_iterator@V?$_Tree_val@V?$_Tmap_traits@VBrn@OpenHome@@PAVObjectType@Stack@Net@2@VBufferCmp@2@V?$allocator@U?$pair@$$CBVBrn@OpenHome@@PAVObjectType@Stack@Net@2@@std@@@std@@$0A@@std@@@std@@@std@@_N@2@PAU_Node@?$_Tree_nod@V?$_Tmap_traits@VBrn@OpenHome@@PAVObjectType@Stack@Net@2@VBufferCmp@2@V?$allocator@U?$pair@$$CBVBrn@OpenHome@@PAVObjectType@Stack@Net@2@@std@@@std@@$0A@@std@@@2@_N@Z$5 0047c8a9 f   libohNetCore:Stack.obj
 0001:0007b8b1       __ehhandler$?_Linsert@?$_Tree@V?$_Tmap_traits@VBrn@OpenHome@@PAVObjectType@Stack@Net@2@VBufferCmp@2@V?$allocator@U?$pair@$$CBVBrn@OpenHome@@PAVObjectType@Stack@Net@2@@std@@@std@@$0A@@std@@@std@@QAE?AU?$pair@V?$_Tree_iterator@V?$_Tree_val@V?$_Tmap_traits@VBrn@OpenHome@@PAVObjectType@Stack@Net@2@VBufferCmp@2@V?$allocator@U?$pair@$$CBVBrn@OpenHome@@PAVObjectType@Stack@Net@2@@std@@@std@@$0A@@std@@@std@@@std@@_N@2@PAU_Node@?$_Tree_nod@V?$_Tmap_traits@VBrn@OpenHome@@PAVObjectType@Stack@Net@2@VBufferCmp@2@V?$allocator@U?$pair@$$CBVBrn@OpenHome@@PAVObjectType@Stack@Net@2@@std@@@std@@$0A@@std@@@2@_N@Z 0047c8b1 f   libohNetCore:Stack.obj
 0001:0007b8d0       __unwindfunclet$?construct@?$allocator@U_Container_proxy@std@@@std@@QAEXPAU_Container_proxy@2@$$QAU32@@Z$0 0047c8d0 f   libohNetCore:Stack.obj
 0001:0007b8e1       __ehhandler$?construct@?$allocator@U_Container_proxy@std@@@std@@QAEXPAU_Container_proxy@2@$$QAU32@@Z 0047c8e1 f   libohNetCore:Stack.obj
 0001:0007b900       __unwindfunclet$??0?$_Pair_base@V?$_Tree_iterator@V?$_Tree_val@V?$_Tmap_traits@VBrn@OpenHome@@PAVObjectType@Stack@Net@2@VBufferCmp@2@V?$allocator@U?$pair@$$CBVBrn@OpenHome@@PAVObjectType@Stack@Net@2@@std@@@std@@$0A@@std@@@std@@@std@@_N@std@@QAE@$$QAV?$_Tree_iterator@V?$_Tree_val@V?$_Tmap_traits@VBrn@OpenHome@@PAVObjectType@Stack@Net@2@VBufferCmp@2@V?$allocator@U?$pair@$$CBVBrn@OpenHome@@PAVObjectType@Stack@Net@2@@std@@@std@@$0A@@std@@@std@@@1@$$QA_N@Z$0 0047c900 f   libohNetCore:Stack.obj
 0001:0007b908       __ehhandler$??0?$_Pair_base@V?$_Tree_iterator@V?$_Tree_val@V?$_Tmap_traits@VBrn@OpenHome@@PAVObjectType@Stack@Net@2@VBufferCmp@2@V?$allocator@U?$pair@$$CBVBrn@OpenHome@@PAVObjectType@Stack@Net@2@@std@@@std@@$0A@@std@@@std@@@std@@_N@std@@QAE@$$QAV?$_Tree_iterator@V?$_Tree_val@V?$_Tmap_traits@VBrn@OpenHome@@PAVObjectType@Stack@Net@2@VBufferCmp@2@V?$allocator@U?$pair@$$CBVBrn@OpenHome@@PAVObjectType@Stack@Net@2@@std@@@std@@$0A@@std@@@std@@@1@$$QA_N@Z 0047c908 f   libohNetCore:Stack.obj
 0001:0007b930       __unwindfunclet$??0?$_Pair_base@V?$_Tree_iterator@V?$_Tree_val@V?$_Tmap_traits@PAXPAXU?$less@PAX@std@@V?$allocator@U?$pair@QAXPAX@std@@@2@$0A@@std@@@std@@@std@@_N@std@@QAE@$$QAV?$_Tree_iterator@V?$_Tree_val@V?$_Tmap_traits@PAXPAXU?$less@PAX@std@@V?$allocator@U?$pair@QAXPAX@std@@@2@$0A@@std@@@std@@@1@$$QA_N@Z$0 0047c930 f   libohNetCore:Stack.obj
 0001:0007b938       __ehhandler$??0?$_Pair_base@V?$_Tree_iterator@V?$_Tree_val@V?$_Tmap_traits@PAXPAXU?$less@PAX@std@@V?$allocator@U?$pair@QAXPAX@std@@@2@$0A@@std@@@std@@@std@@_N@std@@QAE@$$QAV?$_Tree_iterator@V?$_Tree_val@V?$_Tmap_traits@PAXPAXU?$less@PAX@std@@V?$allocator@U?$pair@QAXPAX@std@@@2@$0A@@std@@@std@@@1@$$QA_N@Z 0047c938 f   libohNetCore:Stack.obj
 0001:0007b960       __unwindfunclet$??$?0AAVBrn@OpenHome@@AAPAVObjectType@Stack@Net@1@@?$_Pair_base@VBrn@OpenHome@@PAVObjectType@Stack@Net@2@@std@@QAE@AAVBrn@OpenHome@@AAPAVObjectType@Stack@Net@3@@Z$0 0047c960 f   libohNetCore:Stack.obj
 0001:0007b968       __ehhandler$??$?0AAVBrn@OpenHome@@AAPAVObjectType@Stack@Net@1@@?$_Pair_base@VBrn@OpenHome@@PAVObjectType@Stack@Net@2@@std@@QAE@AAVBrn@OpenHome@@AAPAVObjectType@Stack@Net@3@@Z 0047c968 f   libohNetCore:Stack.obj
 0001:0007b990       __unwindfunclet$??0Brn@OpenHome@@QAE@ABV01@@Z$0 0047c990 f   libohNetCore:Stack.obj
 0001:0007b998       __ehhandler$??0Brn@OpenHome@@QAE@ABV01@@Z 0047c998 f   libohNetCore:Stack.obj
 0001:0007b9c0       __ehhandler$??$_Buynode@U?$pair@VBrn@OpenHome@@PAVObjectType@Stack@Net@2@@std@@@?$_Tree_val@V?$_Tmap_traits@VBrn@OpenHome@@PAVObjectType@Stack@Net@2@VBufferCmp@2@V?$allocator@U?$pair@$$CBVBrn@OpenHome@@PAVObjectType@Stack@Net@2@@std@@@std@@$0A@@std@@@std@@QAEPAU_Node@?$_Tree_nod@V?$_Tmap_traits@VBrn@OpenHome@@PAVObjectType@Stack@Net@2@VBufferCmp@2@V?$allocator@U?$pair@$$CBVBrn@OpenHome@@PAVObjectType@Stack@Net@2@@std@@@std@@$0A@@std@@@1@$$QAU?$pair@VBrn@OpenHome@@PAVObjectType@Stack@Net@2@@1@@Z 0047c9c0 f   libohNetCore:Stack.obj
 0001:0007b9e0       __ehhandler$??$_Buynode@U?$pair@PAXPAX@std@@@?$_Tree_val@V?$_Tmap_traits@PAXPAXU?$less@PAX@std@@V?$allocator@U?$pair@QAXPAX@std@@@2@$0A@@std@@@std@@QAEPAU_Node@?$_Tree_nod@V?$_Tmap_traits@PAXPAXU?$less@PAX@std@@V?$allocator@U?$pair@QAXPAX@std@@@2@$0A@@std@@@1@$$QAU?$pair@PAXPAX@1@@Z 0047c9e0 f   libohNetCore:Stack.obj
 0001:0007ba00       __unwindfunclet$??$construct@AAPAVMListener@Stack@Net@OpenHome@@@?$allocator@PAVMListener@Stack@Net@OpenHome@@@std@@QAEXPAPAVMListener@Stack@Net@OpenHome@@AAPAV2345@@Z$0 0047ca00 f   libohNetCore:Stack.obj
 0001:0007ba11       __ehhandler$??$construct@AAPAVMListener@Stack@Net@OpenHome@@@?$allocator@PAVMListener@Stack@Net@OpenHome@@@std@@QAEXPAPAVMListener@Stack@Net@OpenHome@@AAPAV2345@@Z 0047ca11 f   libohNetCore:Stack.obj
 0001:0007ba30       __unwindfunclet$??$_Construct@PAVMListener@Stack@Net@OpenHome@@ABQAV1234@@std@@YGXPAPAVMListener@Stack@Net@OpenHome@@ABQAV1234@@Z$0 0047ca30 f   libohNetCore:Stack.obj
 0001:0007ba41       __ehhandler$??$_Construct@PAVMListener@Stack@Net@OpenHome@@ABQAV1234@@std@@YGXPAPAVMListener@Stack@Net@OpenHome@@ABQAV1234@@Z 0047ca41 f   libohNetCore:Stack.obj
 0001:0007ba60       __unwindfunclet$??$?0AAV?$_Tree_iterator@V?$_Tree_val@V?$_Tmap_traits@PAXPAXU?$less@PAX@std@@V?$allocator@U?$pair@QAXPAX@std@@@2@$0A@@std@@@std@@@std@@_N@?$_Pair_base@V?$_Tree_iterator@V?$_Tree_val@V?$_Tmap_traits@PAXPAXU?$less@PAX@std@@V?$allocator@U?$pair@QAXPAX@std@@@2@$0A@@std@@@std@@@std@@_N@std@@QAE@AAV?$_Tree_iterator@V?$_Tree_val@V?$_Tmap_traits@PAXPAXU?$less@PAX@std@@V?$allocator@U?$pair@QAXPAX@std@@@2@$0A@@std@@@std@@@1@$$QA_N@Z$0 0047ca60 f   libohNetCore:Stack.obj
 0001:0007ba68       __ehhandler$??$?0AAV?$_Tree_iterator@V?$_Tree_val@V?$_Tmap_traits@PAXPAXU?$less@PAX@std@@V?$allocator@U?$pair@QAXPAX@std@@@2@$0A@@std@@@std@@@std@@_N@?$_Pair_base@V?$_Tree_iterator@V?$_Tree_val@V?$_Tmap_traits@PAXPAXU?$less@PAX@std@@V?$allocator@U?$pair@QAXPAX@std@@@2@$0A@@std@@@std@@@std@@_N@std@@QAE@AAV?$_Tree_iterator@V?$_Tree_val@V?$_Tmap_traits@PAXPAXU?$less@PAX@std@@V?$allocator@U?$pair@QAXPAX@std@@@2@$0A@@std@@@std@@@1@$$QA_N@Z 0047ca68 f   libohNetCore:Stack.obj
 0001:0007ba90       __unwindfunclet$??$?0AAV?$_Tree_iterator@V?$_Tree_val@V?$_Tmap_traits@VBrn@OpenHome@@PAVObjectType@Stack@Net@2@VBufferCmp@2@V?$allocator@U?$pair@$$CBVBrn@OpenHome@@PAVObjectType@Stack@Net@2@@std@@@std@@$0A@@std@@@std@@@std@@_N@?$_Pair_base@V?$_Tree_iterator@V?$_Tree_val@V?$_Tmap_traits@VBrn@OpenHome@@PAVObjectType@Stack@Net@2@VBufferCmp@2@V?$allocator@U?$pair@$$CBVBrn@OpenHome@@PAVObjectType@Stack@Net@2@@std@@@std@@$0A@@std@@@std@@@std@@_N@std@@QAE@AAV?$_Tree_iterator@V?$_Tree_val@V?$_Tmap_traits@VBrn@OpenHome@@PAVObjectType@Stack@Net@2@VBufferCmp@2@V?$allocator@U?$pair@$$CBVBrn@OpenHome@@PAVObjectType@Stack@Net@2@@std@@@std@@$0A@@std@@@std@@@1@$$QA_N@Z$0 0047ca90 f   libohNetCore:Stack.obj
 0001:0007ba98       __ehhandler$??$?0AAV?$_Tree_iterator@V?$_Tree_val@V?$_Tmap_traits@VBrn@OpenHome@@PAVObjectType@Stack@Net@2@VBufferCmp@2@V?$allocator@U?$pair@$$CBVBrn@OpenHome@@PAVObjectType@Stack@Net@2@@std@@@std@@$0A@@std@@@std@@@std@@_N@?$_Pair_base@V?$_Tree_iterator@V?$_Tree_val@V?$_Tmap_traits@VBrn@OpenHome@@PAVObjectType@Stack@Net@2@VBufferCmp@2@V?$allocator@U?$pair@$$CBVBrn@OpenHome@@PAVObjectType@Stack@Net@2@@std@@@std@@$0A@@std@@@std@@@std@@_N@std@@QAE@AAV?$_Tree_iterator@V?$_Tree_val@V?$_Tmap_traits@VBrn@OpenHome@@PAVObjectType@Stack@Net@2@VBufferCmp@2@V?$allocator@U?$pair@$$CBVBrn@OpenHome@@PAVObjectType@Stack@Net@2@@std@@@std@@$0A@@std@@@std@@@1@$$QA_N@Z 0047ca98 f   libohNetCore:Stack.obj
 0001:0007bac0       __unwindfunclet$??$construct@U?$pair@VBrn@OpenHome@@PAVObjectType@Stack@Net@2@@std@@@?$allocator@U?$pair@$$CBVBrn@OpenHome@@PAVObjectType@Stack@Net@2@@std@@@std@@QAEXPAU?$pair@$$CBVBrn@OpenHome@@PAVObjectType@Stack@Net@2@@1@$$QAU?$pair@VBrn@OpenHome@@PAVObjectType@Stack@Net@2@@1@@Z$0 0047cac0 f   libohNetCore:Stack.obj
 0001:0007bad1       __ehhandler$??$construct@U?$pair@VBrn@OpenHome@@PAVObjectType@Stack@Net@2@@std@@@?$allocator@U?$pair@$$CBVBrn@OpenHome@@PAVObjectType@Stack@Net@2@@std@@@std@@QAEXPAU?$pair@$$CBVBrn@OpenHome@@PAVObjectType@Stack@Net@2@@1@$$QAU?$pair@VBrn@OpenHome@@PAVObjectType@Stack@Net@2@@1@@Z 0047cad1 f   libohNetCore:Stack.obj
 0001:0007baf0       __unwindfunclet$??$construct@U?$pair@PAXPAX@std@@@?$allocator@U?$pair@QAXPAX@std@@@std@@QAEXPAU?$pair@QAXPAX@1@$$QAU?$pair@PAXPAX@1@@Z$0 0047caf0 f   libohNetCore:Stack.obj
 0001:0007bb01       __ehhandler$??$construct@U?$pair@PAXPAX@std@@@?$allocator@U?$pair@QAXPAX@std@@@std@@QAEXPAU?$pair@QAXPAX@1@$$QAU?$pair@PAXPAX@1@@Z 0047cb01 f   libohNetCore:Stack.obj
 0001:0007bb20       __unwindfunclet$??$?0VBrn@OpenHome@@PAVObjectType@Stack@Net@1@@?$_Pair_base@$$CBVBrn@OpenHome@@PAVObjectType@Stack@Net@2@@std@@QAE@$$QAVBrn@OpenHome@@$$QAPAVObjectType@Stack@Net@3@@Z$0 0047cb20 f   libohNetCore:Stack.obj
 0001:0007bb28       __ehhandler$??$?0VBrn@OpenHome@@PAVObjectType@Stack@Net@1@@?$_Pair_base@$$CBVBrn@OpenHome@@PAVObjectType@Stack@Net@2@@std@@QAE@$$QAVBrn@OpenHome@@$$QAPAVObjectType@Stack@Net@3@@Z 0047cb28 f   libohNetCore:Stack.obj
 0001:0007bb50       __unwindfunclet$?Send@Socket@OpenHome@@IAEXABVBrx@2@@Z$0 0047cb50 f   libohNetCore:Network.obj
 0001:0007bb58       __unwindfunclet$?Send@Socket@OpenHome@@IAEXABVBrx@2@@Z$1 0047cb58 f   libohNetCore:Network.obj
 0001:0007bb60       __ehhandler$?Send@Socket@OpenHome@@IAEXABVBrx@2@@Z 0047cb60 f   libohNetCore:Network.obj
 0001:0007bb7b       __unwindfunclet$?SendTo@Socket@OpenHome@@IAEXABVBrx@2@ABVEndpoint@2@@Z$0 0047cb7b f   libohNetCore:Network.obj
 0001:0007bb83       __unwindfunclet$?SendTo@Socket@OpenHome@@IAEXABVBrx@2@ABVEndpoint@2@@Z$1 0047cb83 f   libohNetCore:Network.obj
 0001:0007bb8b       __ehhandler$?SendTo@Socket@OpenHome@@IAEXABVBrx@2@ABVEndpoint@2@@Z 0047cb8b f   libohNetCore:Network.obj
 0001:0007bba6       __unwindfunclet$?Receive@Socket@OpenHome@@IAEXAAVBwx@2@@Z$0 0047cba6 f   libohNetCore:Network.obj
 0001:0007bbae       __ehhandler$?Receive@Socket@OpenHome@@IAEXAAVBwx@2@@Z 0047cbae f   libohNetCore:Network.obj
 0001:0007bbc9       __unwindfunclet$?Receive@Socket@OpenHome@@IAEXAAVBwx@2@I@Z$0 0047cbc9 f   libohNetCore:Network.obj
 0001:0007bbd1       __unwindfunclet$?Receive@Socket@OpenHome@@IAEXAAVBwx@2@I@Z$1 0047cbd1 f   libohNetCore:Network.obj
 0001:0007bbd9       __unwindfunclet$?Receive@Socket@OpenHome@@IAEXAAVBwx@2@I@Z$2 0047cbd9 f   libohNetCore:Network.obj
 0001:0007bbe1       __ehhandler$?Receive@Socket@OpenHome@@IAEXAAVBwx@2@I@Z 0047cbe1 f   libohNetCore:Network.obj
 0001:0007bbfc       __unwindfunclet$?ReceiveFrom@Socket@OpenHome@@IAEXAAVBwx@2@AAVEndpoint@2@@Z$0 0047cbfc f   libohNetCore:Network.obj
 0001:0007bc04       __ehhandler$?ReceiveFrom@Socket@OpenHome@@IAEXAAVBwx@2@AAVEndpoint@2@@Z 0047cc04 f   libohNetCore:Network.obj
 0001:0007bc1f       __unwindfunclet$?Bind@Socket@OpenHome@@IAEXABVEndpoint@2@@Z$0 0047cc1f f   libohNetCore:Network.obj
 0001:0007bc27       __ehhandler$?Bind@Socket@OpenHome@@IAEXABVEndpoint@2@@Z 0047cc27 f   libohNetCore:Network.obj
 0001:0007bc42       __unwindfunclet$?GetPort@Socket@OpenHome@@IAEXAAI@Z$0 0047cc42 f   libohNetCore:Network.obj
 0001:0007bc4a       __ehhandler$?GetPort@Socket@OpenHome@@IAEXAAI@Z 0047cc4a f   libohNetCore:Network.obj
 0001:0007bc65       __unwindfunclet$?Listen@Socket@OpenHome@@IAEXI@Z$0 0047cc65 f   libohNetCore:Network.obj
 0001:0007bc6d       __ehhandler$?Listen@Socket@OpenHome@@IAEXI@Z 0047cc6d f   libohNetCore:Network.obj
 0001:0007bc88       __unwindfunclet$?Accept@Socket@OpenHome@@IAEPAXXZ$0 0047cc88 f   libohNetCore:Network.obj
 0001:0007bc90       __ehhandler$?Accept@Socket@OpenHome@@IAEPAXXZ 0047cc90 f   libohNetCore:Network.obj
 0001:0007bcab       __unwindfunclet$?Log@Socket@OpenHome@@AAEXPBDABVBrx@2@@Z$0 0047ccab f   libohNetCore:Network.obj
 0001:0007bcb3       __unwindfunclet$?Log@Socket@OpenHome@@AAEXPBDABVBrx@2@@Z$1 0047ccb3 f   libohNetCore:Network.obj
 0001:0007bcbe       __ehhandler$?Log@Socket@OpenHome@@AAEXPBDABVBrx@2@@Z 0047ccbe f   libohNetCore:Network.obj
 0001:0007bce6       __unwindfunclet$??0SocketTcp@OpenHome@@IAE@XZ$0 0047cce6 f   libohNetCore:Network.obj
 0001:0007bcee       __unwindfunclet$??0SocketTcp@OpenHome@@IAE@XZ$1 0047ccee f   libohNetCore:Network.obj
 0001:0007bcf9       __unwindfunclet$??0SocketTcp@OpenHome@@IAE@XZ$2 0047ccf9 f   libohNetCore:Network.obj
 0001:0007bd04       __ehhandler$??0SocketTcp@OpenHome@@IAE@XZ 0047cd04 f   libohNetCore:Network.obj
 0001:0007bd1f       __unwindfunclet$?Write@SocketTcp@OpenHome@@UAEXE@Z$0 0047cd1f f   libohNetCore:Network.obj
 0001:0007bd27       __ehhandler$?Write@SocketTcp@OpenHome@@UAEXE@Z 0047cd27 f   libohNetCore:Network.obj
 0001:0007bd42       __unwindfunclet$?Write@SocketTcp@OpenHome@@UAEXABVBrx@2@@Z$2 0047cd42 f   libohNetCore:Network.obj
 0001:0007bd4a       __ehhandler$?Write@SocketTcp@OpenHome@@UAEXABVBrx@2@@Z 0047cd4a f   libohNetCore:Network.obj
 0001:0007bd65       __unwindfunclet$?Read@SocketTcp@OpenHome@@UAEXAAVBwx@2@@Z$2 0047cd65 f   libohNetCore:Network.obj
 0001:0007bd6d       __unwindfunclet$?Read@SocketTcp@OpenHome@@UAEXAAVBwx@2@@Z$3 0047cd6d f   libohNetCore:Network.obj
 0001:0007bd75       __ehhandler$?Read@SocketTcp@OpenHome@@UAEXAAVBwx@2@@Z 0047cd75 f   libohNetCore:Network.obj
 0001:0007bd90       __unwindfunclet$??0SocketTcpServer@OpenHome@@QAE@PBDIIIII@Z$0 0047cd90 f   libohNetCore:Network.obj
 0001:0007bd98       __unwindfunclet$??0SocketTcpServer@OpenHome@@QAE@PBDIIIII@Z$1 0047cd98 f   libohNetCore:Network.obj
 0001:0007bda3       __unwindfunclet$??0SocketTcpServer@OpenHome@@QAE@PBDIIIII@Z$2 0047cda3 f   libohNetCore:Network.obj
 0001:0007bdae       __ehhandler$??0SocketTcpServer@OpenHome@@QAE@PBDIIIII@Z 0047cdae f   libohNetCore:Network.obj
 0001:0007bdc9       __ehhandler$?Add@SocketTcpServer@OpenHome@@QAEXPBDPAVSocketTcpSession@2@H@Z 0047cdc9 f   libohNetCore:Network.obj
 0001:0007bde4       __unwindfunclet$?Accept@SocketTcpServer@OpenHome@@AAEPAXXZ$2 0047cde4 f   libohNetCore:Network.obj
 0001:0007bdec       __unwindfunclet$?Accept@SocketTcpServer@OpenHome@@AAEPAXXZ$3 0047cdec f   libohNetCore:Network.obj
 0001:0007bdf4       __ehhandler$?Accept@SocketTcpServer@OpenHome@@AAEPAXXZ 0047cdf4 f   libohNetCore:Network.obj
 0001:0007be0f       __unwindfunclet$??1SocketTcpServer@OpenHome@@UAE@XZ$0 0047ce0f f   libohNetCore:Network.obj
 0001:0007be17       __unwindfunclet$??1SocketTcpServer@OpenHome@@UAE@XZ$1 0047ce17 f   libohNetCore:Network.obj
 0001:0007be22       __unwindfunclet$??1SocketTcpServer@OpenHome@@UAE@XZ$2 0047ce22 f   libohNetCore:Network.obj
 0001:0007be2d       __ehhandler$??1SocketTcpServer@OpenHome@@UAE@XZ 0047ce2d f   libohNetCore:Network.obj
 0001:0007be48       __unwindfunclet$??0SocketTcpSession@OpenHome@@IAE@XZ$0 0047ce48 f   libohNetCore:Network.obj
 0001:0007be50       __ehhandler$??0SocketTcpSession@OpenHome@@IAE@XZ 0047ce50 f   libohNetCore:Network.obj
 0001:0007be6b       __unwindfunclet$?Add@SocketTcpSession@OpenHome@@AAEXAAVSocketTcpServer@2@PBDII@Z$0 0047ce6b f   libohNetCore:Network.obj
 0001:0007be76       __ehhandler$?Add@SocketTcpSession@OpenHome@@AAEXAAVSocketTcpServer@2@PBDII@Z 0047ce76 f   libohNetCore:Network.obj
 0001:0007be91       __ehhandler$?Start@SocketTcpSession@OpenHome@@AAEXXZ 0047ce91 f   libohNetCore:Network.obj
 0001:0007beac       __unwindfunclet$?Open@SocketTcpSession@OpenHome@@AAEXPAX@Z$0 0047ceac f   libohNetCore:Network.obj
 0001:0007beb4       __ehhandler$?Open@SocketTcpSession@OpenHome@@AAEXPAX@Z 0047ceb4 f   libohNetCore:Network.obj
 0001:0007becf       __ehhandler$?Close@SocketTcpSession@OpenHome@@AAEXXZ 0047cecf f   libohNetCore:Network.obj
 0001:0007beea       __unwindfunclet$??1SocketTcpSession@OpenHome@@MAE@XZ$0 0047ceea f   libohNetCore:Network.obj
 0001:0007bef2       __unwindfunclet$??1SocketTcpSession@OpenHome@@MAE@XZ$1 0047cef2 f   libohNetCore:Network.obj
 0001:0007befd       __ehhandler$??1SocketTcpSession@OpenHome@@MAE@XZ 0047cefd f   libohNetCore:Network.obj
 0001:0007bf18       __unwindfunclet$??0SocketUdp@OpenHome@@QAE@XZ$0 0047cf18 f   libohNetCore:Network.obj
 0001:0007bf20       __ehhandler$??0SocketUdp@OpenHome@@QAE@XZ 0047cf20 f   libohNetCore:Network.obj
 0001:0007bf3b       __unwindfunclet$??0SocketUdp@OpenHome@@QAE@I@Z$0 0047cf3b f   libohNetCore:Network.obj
 0001:0007bf43       __ehhandler$??0SocketUdp@OpenHome@@QAE@I@Z 0047cf43 f   libohNetCore:Network.obj
 0001:0007bf5e       __unwindfunclet$??0SocketUdp@OpenHome@@QAE@II@Z$0 0047cf5e f   libohNetCore:Network.obj
 0001:0007bf66       __ehhandler$??0SocketUdp@OpenHome@@QAE@II@Z 0047cf66 f   libohNetCore:Network.obj
 0001:0007bf81       __unwindfunclet$??1SocketUdp@OpenHome@@UAE@XZ$0 0047cf81 f   libohNetCore:Network.obj
 0001:0007bf89       __ehhandler$??1SocketUdp@OpenHome@@UAE@XZ 0047cf89 f   libohNetCore:Network.obj
 0001:0007bfa4       __unwindfunclet$??0SocketUdpMulticast@OpenHome@@QAE@IABVEndpoint@1@@Z$0 0047cfa4 f   libohNetCore:Network.obj
 0001:0007bfac       __ehhandler$??0SocketUdpMulticast@OpenHome@@QAE@IABVEndpoint@1@@Z 0047cfac f   libohNetCore:Network.obj
 0001:0007bfc7       __unwindfunclet$??1SocketUdpMulticast@OpenHome@@UAE@XZ$0 0047cfc7 f   libohNetCore:Network.obj
 0001:0007bfcf       __ehhandler$??1SocketUdpMulticast@OpenHome@@UAE@XZ 0047cfcf f   libohNetCore:Network.obj
 0001:0007bfea       __unwindfunclet$??0UdpReader@OpenHome@@QAE@AAVSocketUdp@1@@Z$0 0047cfea f   libohNetCore:Network.obj
 0001:0007bff2       __ehhandler$??0UdpReader@OpenHome@@QAE@AAVSocketUdp@1@@Z 0047cff2 f   libohNetCore:Network.obj
 0001:0007c00d       __unwindfunclet$?Read@UdpReader@OpenHome@@UAEXAAVBwx@2@@Z$2 0047d00d f   libohNetCore:Network.obj
 0001:0007c015       __unwindfunclet$?Read@UdpReader@OpenHome@@UAEXAAVBwx@2@@Z$3 0047d015 f   libohNetCore:Network.obj
 0001:0007c01d       __ehhandler$?Read@UdpReader@OpenHome@@UAEXAAVBwx@2@@Z 0047d01d f   libohNetCore:Network.obj
 0001:0007c038       __unwindfunclet$??0UdpWriter@OpenHome@@QAE@AAVSocketUdp@1@ABVEndpoint@1@@Z$0 0047d038 f   libohNetCore:Network.obj
 0001:0007c040       __ehhandler$??0UdpWriter@OpenHome@@QAE@AAVSocketUdp@1@ABVEndpoint@1@@Z 0047d040 f   libohNetCore:Network.obj
 0001:0007c05b       __unwindfunclet$?Write@UdpWriter@OpenHome@@UAEXABVBrx@2@@Z$2 0047d05b f   libohNetCore:Network.obj
 0001:0007c063       __unwindfunclet$?Write@UdpWriter@OpenHome@@UAEXABVBrx@2@@Z$3 0047d063 f   libohNetCore:Network.obj
 0001:0007c06b       __ehhandler$?Write@UdpWriter@OpenHome@@UAEXABVBrx@2@@Z 0047d06b f   libohNetCore:Network.obj
 0001:0007c090       __unwindfunclet$??1SocketTcp@OpenHome@@UAE@XZ$0 0047d090 f   libohNetCore:Network.obj
 0001:0007c098       __unwindfunclet$??1SocketTcp@OpenHome@@UAE@XZ$1 0047d098 f   libohNetCore:Network.obj
 0001:0007c0a3       __ehhandler$??1SocketTcp@OpenHome@@UAE@XZ 0047d0a3 f   libohNetCore:Network.obj
 0001:0007c0c0       __unwindfunclet$??1?$vector@PAVSocketTcpSession@OpenHome@@V?$allocator@PAVSocketTcpSession@OpenHome@@@std@@@std@@QAE@XZ$0 0047d0c0 f   libohNetCore:Network.obj
 0001:0007c0c8       __ehhandler$??1?$vector@PAVSocketTcpSession@OpenHome@@V?$allocator@PAVSocketTcpSession@OpenHome@@@std@@@std@@QAE@XZ 0047d0c8 f   libohNetCore:Network.obj
 0001:0007c0f0       __unwindfunclet$?_Orphan_range@?$vector@PAVSocketTcpSession@OpenHome@@V?$allocator@PAVSocketTcpSession@OpenHome@@@std@@@std@@IBEXPAPAVSocketTcpSession@OpenHome@@0@Z$0 0047d0f0 f   libohNetCore:Network.obj
 0001:0007c0f8       __ehhandler$?_Orphan_range@?$vector@PAVSocketTcpSession@OpenHome@@V?$allocator@PAVSocketTcpSession@OpenHome@@@std@@@std@@IBEXPAPAVSocketTcpSession@OpenHome@@0@Z 0047d0f8 f   libohNetCore:Network.obj
 0001:0007c120       __unwindfunclet$??0?$_Vector_val@PAVSocketTcpSession@OpenHome@@V?$allocator@PAVSocketTcpSession@OpenHome@@@std@@@std@@QAE@V?$allocator@PAVSocketTcpSession@OpenHome@@@1@@Z$0 0047d120 f   libohNetCore:Network.obj
 0001:0007c128       __ehhandler$??0?$_Vector_val@PAVSocketTcpSession@OpenHome@@V?$allocator@PAVSocketTcpSession@OpenHome@@@std@@@std@@QAE@V?$allocator@PAVSocketTcpSession@OpenHome@@@1@@Z 0047d128 f   libohNetCore:Network.obj
 0001:0007c150       __unwindfunclet$??1?$_Vector_val@PAVSocketTcpSession@OpenHome@@V?$allocator@PAVSocketTcpSession@OpenHome@@@std@@@std@@QAE@XZ$0 0047d150 f   libohNetCore:Network.obj
 0001:0007c158       __ehhandler$??1?$_Vector_val@PAVSocketTcpSession@OpenHome@@V?$allocator@PAVSocketTcpSession@OpenHome@@@std@@@std@@QAE@XZ 0047d158 f   libohNetCore:Network.obj
 0001:0007c180       __ehhandler$?reserve@?$vector@PAVSocketTcpSession@OpenHome@@V?$allocator@PAVSocketTcpSession@OpenHome@@@std@@@std@@QAEXI@Z 0047d180 f   libohNetCore:Network.obj
 0001:0007c1a0       __unwindfunclet$??$construct@AAPAVSocketTcpSession@OpenHome@@@?$allocator@PAVSocketTcpSession@OpenHome@@@std@@QAEXPAPAVSocketTcpSession@OpenHome@@AAPAV23@@Z$0 0047d1a0 f   libohNetCore:Network.obj
 0001:0007c1b1       __ehhandler$??$construct@AAPAVSocketTcpSession@OpenHome@@@?$allocator@PAVSocketTcpSession@OpenHome@@@std@@QAEXPAPAVSocketTcpSession@OpenHome@@AAPAV23@@Z 0047d1b1 f   libohNetCore:Network.obj
 0001:0007c1d0       __unwindfunclet$??$_Construct@PAVSocketTcpSession@OpenHome@@ABQAV12@@std@@YGXPAPAVSocketTcpSession@OpenHome@@ABQAV12@@Z$0 0047d1d0 f   libohNetCore:Network.obj
 0001:0007c1e1       __ehhandler$??$_Construct@PAVSocketTcpSession@OpenHome@@ABQAV12@@std@@YGXPAPAVSocketTcpSession@OpenHome@@ABQAV12@@Z 0047d1e1 f   libohNetCore:Network.obj
 0001:0007c200       __unwindfunclet$??0NetworkAdapterList@OpenHome@@QAE@I@Z$0 0047d200 f   libohNetCore:NetworkAdapterList.obj
 0001:0007c208       __unwindfunclet$??0NetworkAdapterList@OpenHome@@QAE@I@Z$1 0047d208 f   libohNetCore:NetworkAdapterList.obj
 0001:0007c213       __unwindfunclet$??0NetworkAdapterList@OpenHome@@QAE@I@Z$2 0047d213 f   libohNetCore:NetworkAdapterList.obj
 0001:0007c21e       __unwindfunclet$??0NetworkAdapterList@OpenHome@@QAE@I@Z$3 0047d21e f   libohNetCore:NetworkAdapterList.obj
 0001:0007c229       __ehhandler$??0NetworkAdapterList@OpenHome@@QAE@I@Z 0047d229 f   libohNetCore:NetworkAdapterList.obj
 0001:0007c244       __unwindfunclet$??1NetworkAdapterList@OpenHome@@QAE@XZ$0 0047d244 f   libohNetCore:NetworkAdapterList.obj
 0001:0007c24c       __unwindfunclet$??1NetworkAdapterList@OpenHome@@QAE@XZ$1 0047d24c f   libohNetCore:NetworkAdapterList.obj
 0001:0007c257       __unwindfunclet$??1NetworkAdapterList@OpenHome@@QAE@XZ$2 0047d257 f   libohNetCore:NetworkAdapterList.obj
 0001:0007c262       __unwindfunclet$??1NetworkAdapterList@OpenHome@@QAE@XZ$3 0047d262 f   libohNetCore:NetworkAdapterList.obj
 0001:0007c26d       __ehhandler$??1NetworkAdapterList@OpenHome@@QAE@XZ 0047d26d f   libohNetCore:NetworkAdapterList.obj
 0001:0007c288       __unwindfunclet$?CurrentAdapter@NetworkAdapterList@OpenHome@@QBEPAVNetworkAdapter@2@XZ$0 0047d288 f   libohNetCore:NetworkAdapterList.obj
 0001:0007c290       __ehhandler$?CurrentAdapter@NetworkAdapterList@OpenHome@@QBEPAVNetworkAdapter@2@XZ 0047d290 f   libohNetCore:NetworkAdapterList.obj
 0001:0007c2ab       __unwindfunclet$?CreateSubnetListLocked@NetworkAdapterList@OpenHome@@ABEPAV?$vector@PAVNetworkAdapter@OpenHome@@V?$allocator@PAVNetworkAdapter@OpenHome@@@std@@@std@@XZ$0 0047d2ab f   libohNetCore:NetworkAdapterList.obj
 0001:0007c2b6       __ehhandler$?CreateSubnetListLocked@NetworkAdapterList@OpenHome@@ABEPAV?$vector@PAVNetworkAdapter@OpenHome@@V?$allocator@PAVNetworkAdapter@OpenHome@@@std@@@std@@XZ 0047d2b6 f   libohNetCore:NetworkAdapterList.obj
 0001:0007c2d1       __unwindfunclet$?RemoveSubnetListChangeListener@NetworkAdapterList@OpenHome@@AAEXIAAV?$map@IVFunctor@OpenHome@@U?$less@I@std@@V?$allocator@U?$pair@$$CBIVFunctor@OpenHome@@@std@@@4@@std@@@Z$0 0047d2d1 f   libohNetCore:NetworkAdapterList.obj
 0001:0007c2d9       __unwindfunclet$?RemoveSubnetListChangeListener@NetworkAdapterList@OpenHome@@AAEXIAAV?$map@IVFunctor@OpenHome@@U?$less@I@std@@V?$allocator@U?$pair@$$CBIVFunctor@OpenHome@@@std@@@4@@std@@@Z$1 0047d2d9 f   libohNetCore:NetworkAdapterList.obj
 0001:0007c2e1       __ehhandler$?RemoveSubnetListChangeListener@NetworkAdapterList@OpenHome@@AAEXIAAV?$map@IVFunctor@OpenHome@@U?$less@I@std@@V?$allocator@U?$pair@$$CBIVFunctor@OpenHome@@@std@@@4@@std@@@Z 0047d2e1 f   libohNetCore:NetworkAdapterList.obj
 0001:0007c2fc       __unwindfunclet$?RunCallbacks@NetworkAdapterList@OpenHome@@AAEXAAV?$map@IVFunctor@OpenHome@@U?$less@I@std@@V?$allocator@U?$pair@$$CBIVFunctor@OpenHome@@@std@@@4@@std@@@Z$0 0047d2fc f   libohNetCore:NetworkAdapterList.obj
 0001:0007c304       __unwindfunclet$?RunCallbacks@NetworkAdapterList@OpenHome@@AAEXAAV?$map@IVFunctor@OpenHome@@U?$less@I@std@@V?$allocator@U?$pair@$$CBIVFunctor@OpenHome@@@std@@@4@@std@@@Z$1 0047d304 f   libohNetCore:NetworkAdapterList.obj
 0001:0007c30c       __ehhandler$?RunCallbacks@NetworkAdapterList@OpenHome@@AAEXAAV?$map@IVFunctor@OpenHome@@U?$less@I@std@@V?$allocator@U?$pair@$$CBIVFunctor@OpenHome@@@std@@@4@@std@@@Z 0047d30c f   libohNetCore:NetworkAdapterList.obj
 0001:0007c330       __unwindfunclet$??1?$_Tree@V?$_Tmap_traits@IVFunctor@OpenHome@@U?$less@I@std@@V?$allocator@U?$pair@$$CBIVFunctor@OpenHome@@@std@@@4@$0A@@std@@@std@@QAE@XZ$0 0047d330 f   libohNetCore:NetworkAdapterList.obj
 0001:0007c338       __ehhandler$??1?$_Tree@V?$_Tmap_traits@IVFunctor@OpenHome@@U?$less@I@std@@V?$allocator@U?$pair@$$CBIVFunctor@OpenHome@@@std@@@4@$0A@@std@@@std@@QAE@XZ 0047d338 f   libohNetCore:NetworkAdapterList.obj
 0001:0007c360       __unwindfunclet$?erase@?$_Tree@V?$_Tmap_traits@IVFunctor@OpenHome@@U?$less@I@std@@V?$allocator@U?$pair@$$CBIVFunctor@OpenHome@@@std@@@4@$0A@@std@@@std@@QAE?AV?$_Tree_iterator@V?$_Tree_val@V?$_Tmap_traits@IVFunctor@OpenHome@@U?$less@I@std@@V?$allocator@U?$pair@$$CBIVFunctor@OpenHome@@@std@@@4@$0A@@std@@@std@@@2@V?$_Tree_const_iterator@V?$_Tree_val@V?$_Tmap_traits@IVFunctor@OpenHome@@U?$less@I@std@@V?$allocator@U?$pair@$$CBIVFunctor@OpenHome@@@std@@@4@$0A@@std@@@std@@@2@@Z$0 0047d360 f   libohNetCore:NetworkAdapterList.obj
 0001:0007c368       __unwindfunclet$?erase@?$_Tree@V?$_Tmap_traits@IVFunctor@OpenHome@@U?$less@I@std@@V?$allocator@U?$pair@$$CBIVFunctor@OpenHome@@@std@@@4@$0A@@std@@@std@@QAE?AV?$_Tree_iterator@V?$_Tree_val@V?$_Tmap_traits@IVFunctor@OpenHome@@U?$less@I@std@@V?$allocator@U?$pair@$$CBIVFunctor@OpenHome@@@std@@@4@$0A@@std@@@std@@@2@V?$_Tree_const_iterator@V?$_Tree_val@V?$_Tmap_traits@IVFunctor@OpenHome@@U?$less@I@std@@V?$allocator@U?$pair@$$CBIVFunctor@OpenHome@@@std@@@4@$0A@@std@@@std@@@2@@Z$1 0047d368 f   libohNetCore:NetworkAdapterList.obj
 0001:0007c381       __ehhandler$?erase@?$_Tree@V?$_Tmap_traits@IVFunctor@OpenHome@@U?$less@I@std@@V?$allocator@U?$pair@$$CBIVFunctor@OpenHome@@@std@@@4@$0A@@std@@@std@@QAE?AV?$_Tree_iterator@V?$_Tree_val@V?$_Tmap_traits@IVFunctor@OpenHome@@U?$less@I@std@@V?$allocator@U?$pair@$$CBIVFunctor@OpenHome@@@std@@@4@$0A@@std@@@std@@@2@V?$_Tree_const_iterator@V?$_Tree_val@V?$_Tmap_traits@IVFunctor@OpenHome@@U?$less@I@std@@V?$allocator@U?$pair@$$CBIVFunctor@OpenHome@@@std@@@4@$0A@@std@@@std@@@2@@Z 0047d381 f   libohNetCore:NetworkAdapterList.obj
 0001:0007c3a0       __unwindfunclet$?find@?$_Tree@V?$_Tmap_traits@IVFunctor@OpenHome@@U?$less@I@std@@V?$allocator@U?$pair@$$CBIVFunctor@OpenHome@@@std@@@4@$0A@@std@@@std@@QAE?AV?$_Tree_iterator@V?$_Tree_val@V?$_Tmap_traits@IVFunctor@OpenHome@@U?$less@I@std@@V?$allocator@U?$pair@$$CBIVFunctor@OpenHome@@@std@@@4@$0A@@std@@@std@@@2@ABI@Z$0 0047d3a0 f   libohNetCore:NetworkAdapterList.obj
 0001:0007c3a8       __unwindfunclet$?find@?$_Tree@V?$_Tmap_traits@IVFunctor@OpenHome@@U?$less@I@std@@V?$allocator@U?$pair@$$CBIVFunctor@OpenHome@@@std@@@4@$0A@@std@@@std@@QAE?AV?$_Tree_iterator@V?$_Tree_val@V?$_Tmap_traits@IVFunctor@OpenHome@@U?$less@I@std@@V?$allocator@U?$pair@$$CBIVFunctor@OpenHome@@@std@@@4@$0A@@std@@@std@@@2@ABI@Z$1 0047d3a8 f   libohNetCore:NetworkAdapterList.obj
 0001:0007c3c1       __unwindfunclet$?find@?$_Tree@V?$_Tmap_traits@IVFunctor@OpenHome@@U?$less@I@std@@V?$allocator@U?$pair@$$CBIVFunctor@OpenHome@@@std@@@4@$0A@@std@@@std@@QAE?AV?$_Tree_iterator@V?$_Tree_val@V?$_Tmap_traits@IVFunctor@OpenHome@@U?$less@I@std@@V?$allocator@U?$pair@$$CBIVFunctor@OpenHome@@@std@@@4@$0A@@std@@@std@@@2@ABI@Z$2 0047d3c1 f   libohNetCore:NetworkAdapterList.obj
 0001:0007c3da       __unwindfunclet$?find@?$_Tree@V?$_Tmap_traits@IVFunctor@OpenHome@@U?$less@I@std@@V?$allocator@U?$pair@$$CBIVFunctor@OpenHome@@@std@@@4@$0A@@std@@@std@@QAE?AV?$_Tree_iterator@V?$_Tree_val@V?$_Tmap_traits@IVFunctor@OpenHome@@U?$less@I@std@@V?$allocator@U?$pair@$$CBIVFunctor@OpenHome@@@std@@@4@$0A@@std@@@std@@@2@ABI@Z$3 0047d3da f   libohNetCore:NetworkAdapterList.obj
 0001:0007c3f3       __unwindfunclet$?find@?$_Tree@V?$_Tmap_traits@IVFunctor@OpenHome@@U?$less@I@std@@V?$allocator@U?$pair@$$CBIVFunctor@OpenHome@@@std@@@4@$0A@@std@@@std@@QAE?AV?$_Tree_iterator@V?$_Tree_val@V?$_Tmap_traits@IVFunctor@OpenHome@@U?$less@I@std@@V?$allocator@U?$pair@$$CBIVFunctor@OpenHome@@@std@@@4@$0A@@std@@@std@@@2@ABI@Z$4 0047d3f3 f   libohNetCore:NetworkAdapterList.obj
 0001:0007c40c       __ehhandler$?find@?$_Tree@V?$_Tmap_traits@IVFunctor@OpenHome@@U?$less@I@std@@V?$allocator@U?$pair@$$CBIVFunctor@OpenHome@@@std@@@4@$0A@@std@@@std@@QAE?AV?$_Tree_iterator@V?$_Tree_val@V?$_Tmap_traits@IVFunctor@OpenHome@@U?$less@I@std@@V?$allocator@U?$pair@$$CBIVFunctor@OpenHome@@@std@@@4@$0A@@std@@@std@@@2@ABI@Z 0047d40c f   libohNetCore:NetworkAdapterList.obj
 0001:0007c430       __unwindfunclet$??E?$_Tree_iterator@V?$_Tree_val@V?$_Tmap_traits@IVFunctor@OpenHome@@U?$less@I@std@@V?$allocator@U?$pair@$$CBIVFunctor@OpenHome@@@std@@@4@$0A@@std@@@std@@@std@@QAE?AV01@H@Z$0 0047d430 f   libohNetCore:NetworkAdapterList.obj
 0001:0007c438       __unwindfunclet$??E?$_Tree_iterator@V?$_Tree_val@V?$_Tmap_traits@IVFunctor@OpenHome@@U?$less@I@std@@V?$allocator@U?$pair@$$CBIVFunctor@OpenHome@@@std@@@4@$0A@@std@@@std@@@std@@QAE?AV01@H@Z$1 0047d438 f   libohNetCore:NetworkAdapterList.obj
 0001:0007c451       __ehhandler$??E?$_Tree_iterator@V?$_Tree_val@V?$_Tmap_traits@IVFunctor@OpenHome@@U?$less@I@std@@V?$allocator@U?$pair@$$CBIVFunctor@OpenHome@@@std@@@4@$0A@@std@@@std@@@std@@QAE?AV01@H@Z 0047d451 f   libohNetCore:NetworkAdapterList.obj
 0001:0007c470       __unwindfunclet$?_Orphan_ptr@?$_Tree@V?$_Tmap_traits@IVFunctor@OpenHome@@U?$less@I@std@@V?$allocator@U?$pair@$$CBIVFunctor@OpenHome@@@std@@@4@$0A@@std@@@std@@IBEXAAV12@PAU_Node@?$_Tree_nod@V?$_Tmap_traits@IVFunctor@OpenHome@@U?$less@I@std@@V?$allocator@U?$pair@$$CBIVFunctor@OpenHome@@@std@@@4@$0A@@std@@@2@@Z$0 0047d470 f   libohNetCore:NetworkAdapterList.obj
 0001:0007c478       __ehhandler$?_Orphan_ptr@?$_Tree@V?$_Tmap_traits@IVFunctor@OpenHome@@U?$less@I@std@@V?$allocator@U?$pair@$$CBIVFunctor@OpenHome@@@std@@@4@$0A@@std@@@std@@IBEXAAV12@PAU_Node@?$_Tree_nod@V?$_Tmap_traits@IVFunctor@OpenHome@@U?$less@I@std@@V?$allocator@U?$pair@$$CBIVFunctor@OpenHome@@@std@@@4@$0A@@std@@@2@@Z 0047d478 f   libohNetCore:NetworkAdapterList.obj
 0001:0007c4a0       __unwindfunclet$?_Tidy@?$_Tree@V?$_Tmap_traits@IVFunctor@OpenHome@@U?$less@I@std@@V?$allocator@U?$pair@$$CBIVFunctor@OpenHome@@@std@@@4@$0A@@std@@@std@@IAEXXZ$0 0047d4a0 f   libohNetCore:NetworkAdapterList.obj
 0001:0007c4a8       __unwindfunclet$?_Tidy@?$_Tree@V?$_Tmap_traits@IVFunctor@OpenHome@@U?$less@I@std@@V?$allocator@U?$pair@$$CBIVFunctor@OpenHome@@@std@@@4@$0A@@std@@@std@@IAEXXZ$1 0047d4a8 f   libohNetCore:NetworkAdapterList.obj
 0001:0007c4b0       __unwindfunclet$?_Tidy@?$_Tree@V?$_Tmap_traits@IVFunctor@OpenHome@@U?$less@I@std@@V?$allocator@U?$pair@$$CBIVFunctor@OpenHome@@@std@@@4@$0A@@std@@@std@@IAEXXZ$2 0047d4b0 f   libohNetCore:NetworkAdapterList.obj
 0001:0007c4b8       __ehhandler$?_Tidy@?$_Tree@V?$_Tmap_traits@IVFunctor@OpenHome@@U?$less@I@std@@V?$allocator@U?$pair@$$CBIVFunctor@OpenHome@@@std@@@4@$0A@@std@@@std@@IAEXXZ 0047d4b8 f   libohNetCore:NetworkAdapterList.obj
 0001:0007c4e0       __unwindfunclet$??1?$_Tree_val@V?$_Tmap_traits@IVFunctor@OpenHome@@U?$less@I@std@@V?$allocator@U?$pair@$$CBIVFunctor@OpenHome@@@std@@@4@$0A@@std@@@std@@QAE@XZ$0 0047d4e0 f   libohNetCore:NetworkAdapterList.obj
 0001:0007c4e8       __ehhandler$??1?$_Tree_val@V?$_Tmap_traits@IVFunctor@OpenHome@@U?$less@I@std@@V?$allocator@U?$pair@$$CBIVFunctor@OpenHome@@@std@@@4@$0A@@std@@@std@@QAE@XZ 0047d4e8 f   libohNetCore:NetworkAdapterList.obj
 0001:0007c510       __unwindfunclet$?_Orphan_range@?$vector@PAVNetworkAdapter@OpenHome@@V?$allocator@PAVNetworkAdapter@OpenHome@@@std@@@std@@IBEXPAPAVNetworkAdapter@OpenHome@@0@Z$0 0047d510 f   libohNetCore:NetworkAdapterList.obj
 0001:0007c518       __ehhandler$?_Orphan_range@?$vector@PAVNetworkAdapter@OpenHome@@V?$allocator@PAVNetworkAdapter@OpenHome@@@std@@@std@@IBEXPAPAVNetworkAdapter@OpenHome@@0@Z 0047d518 f   libohNetCore:NetworkAdapterList.obj
 0001:0007c540       __unwindfunclet$??0?$_Vector_val@PAVNetworkAdapter@OpenHome@@V?$allocator@PAVNetworkAdapter@OpenHome@@@std@@@std@@QAE@V?$allocator@PAVNetworkAdapter@OpenHome@@@1@@Z$0 0047d540 f   libohNetCore:NetworkAdapterList.obj
 0001:0007c548       __ehhandler$??0?$_Vector_val@PAVNetworkAdapter@OpenHome@@V?$allocator@PAVNetworkAdapter@OpenHome@@@std@@@std@@QAE@V?$allocator@PAVNetworkAdapter@OpenHome@@@1@@Z 0047d548 f   libohNetCore:NetworkAdapterList.obj
 0001:0007c570       __unwindfunclet$?erase@?$_Tree@V?$_Tmap_traits@IVFunctor@OpenHome@@U?$less@I@std@@V?$allocator@U?$pair@$$CBIVFunctor@OpenHome@@@std@@@4@$0A@@std@@@std@@QAE?AV?$_Tree_iterator@V?$_Tree_val@V?$_Tmap_traits@IVFunctor@OpenHome@@U?$less@I@std@@V?$allocator@U?$pair@$$CBIVFunctor@OpenHome@@@std@@@4@$0A@@std@@@std@@@2@V?$_Tree_const_iterator@V?$_Tree_val@V?$_Tmap_traits@IVFunctor@OpenHome@@U?$less@I@std@@V?$allocator@U?$pair@$$CBIVFunctor@OpenHome@@@std@@@4@$0A@@std@@@std@@@2@0@Z$0 0047d570 f   libohNetCore:NetworkAdapterList.obj
 0001:0007c578       __unwindfunclet$?erase@?$_Tree@V?$_Tmap_traits@IVFunctor@OpenHome@@U?$less@I@std@@V?$allocator@U?$pair@$$CBIVFunctor@OpenHome@@@std@@@4@$0A@@std@@@std@@QAE?AV?$_Tree_iterator@V?$_Tree_val@V?$_Tmap_traits@IVFunctor@OpenHome@@U?$less@I@std@@V?$allocator@U?$pair@$$CBIVFunctor@OpenHome@@@std@@@4@$0A@@std@@@std@@@2@V?$_Tree_const_iterator@V?$_Tree_val@V?$_Tmap_traits@IVFunctor@OpenHome@@U?$less@I@std@@V?$allocator@U?$pair@$$CBIVFunctor@OpenHome@@@std@@@4@$0A@@std@@@std@@@2@0@Z$1 0047d578 f   libohNetCore:NetworkAdapterList.obj
 0001:0007c580       __unwindfunclet$?erase@?$_Tree@V?$_Tmap_traits@IVFunctor@OpenHome@@U?$less@I@std@@V?$allocator@U?$pair@$$CBIVFunctor@OpenHome@@@std@@@4@$0A@@std@@@std@@QAE?AV?$_Tree_iterator@V?$_Tree_val@V?$_Tmap_traits@IVFunctor@OpenHome@@U?$less@I@std@@V?$allocator@U?$pair@$$CBIVFunctor@OpenHome@@@std@@@4@$0A@@std@@@std@@@2@V?$_Tree_const_iterator@V?$_Tree_val@V?$_Tmap_traits@IVFunctor@OpenHome@@U?$less@I@std@@V?$allocator@U?$pair@$$CBIVFunctor@OpenHome@@@std@@@4@$0A@@std@@@std@@@2@0@Z$2 0047d580 f   libohNetCore:NetworkAdapterList.obj
 0001:0007c599       __unwindfunclet$?erase@?$_Tree@V?$_Tmap_traits@IVFunctor@OpenHome@@U?$less@I@std@@V?$allocator@U?$pair@$$CBIVFunctor@OpenHome@@@std@@@4@$0A@@std@@@std@@QAE?AV?$_Tree_iterator@V?$_Tree_val@V?$_Tmap_traits@IVFunctor@OpenHome@@U?$less@I@std@@V?$allocator@U?$pair@$$CBIVFunctor@OpenHome@@@std@@@4@$0A@@std@@@std@@@2@V?$_Tree_const_iterator@V?$_Tree_val@V?$_Tmap_traits@IVFunctor@OpenHome@@U?$less@I@std@@V?$allocator@U?$pair@$$CBIVFunctor@OpenHome@@@std@@@4@$0A@@std@@@std@@@2@0@Z$3 0047d599 f   libohNetCore:NetworkAdapterList.obj
 0001:0007c5b2       __unwindfunclet$?erase@?$_Tree@V?$_Tmap_traits@IVFunctor@OpenHome@@U?$less@I@std@@V?$allocator@U?$pair@$$CBIVFunctor@OpenHome@@@std@@@4@$0A@@std@@@std@@QAE?AV?$_Tree_iterator@V?$_Tree_val@V?$_Tmap_traits@IVFunctor@OpenHome@@U?$less@I@std@@V?$allocator@U?$pair@$$CBIVFunctor@OpenHome@@@std@@@4@$0A@@std@@@std@@@2@V?$_Tree_const_iterator@V?$_Tree_val@V?$_Tmap_traits@IVFunctor@OpenHome@@U?$less@I@std@@V?$allocator@U?$pair@$$CBIVFunctor@OpenHome@@@std@@@4@$0A@@std@@@std@@@2@0@Z$4 0047d5b2 f   libohNetCore:NetworkAdapterList.obj
 0001:0007c5cb       __ehhandler$?erase@?$_Tree@V?$_Tmap_traits@IVFunctor@OpenHome@@U?$less@I@std@@V?$allocator@U?$pair@$$CBIVFunctor@OpenHome@@@std@@@4@$0A@@std@@@std@@QAE?AV?$_Tree_iterator@V?$_Tree_val@V?$_Tmap_traits@IVFunctor@OpenHome@@U?$less@I@std@@V?$allocator@U?$pair@$$CBIVFunctor@OpenHome@@@std@@@4@$0A@@std@@@std@@@2@V?$_Tree_const_iterator@V?$_Tree_val@V?$_Tmap_traits@IVFunctor@OpenHome@@U?$less@I@std@@V?$allocator@U?$pair@$$CBIVFunctor@OpenHome@@@std@@@4@$0A@@std@@@std@@@2@0@Z 0047d5cb f   libohNetCore:NetworkAdapterList.obj
 0001:0007c5f0       __unwindfunclet$??0?$_Tree_val@V?$_Tmap_traits@IVFunctor@OpenHome@@U?$less@I@std@@V?$allocator@U?$pair@$$CBIVFunctor@OpenHome@@@std@@@4@$0A@@std@@@std@@QAE@ABU?$less@I@1@V?$allocator@U?$pair@$$CBIVFunctor@OpenHome@@@std@@@1@@Z$0 0047d5f0 f   libohNetCore:NetworkAdapterList.obj
 0001:0007c5f8       __ehhandler$??0?$_Tree_val@V?$_Tmap_traits@IVFunctor@OpenHome@@U?$less@I@std@@V?$allocator@U?$pair@$$CBIVFunctor@OpenHome@@@std@@@4@$0A@@std@@@std@@QAE@ABU?$less@I@1@V?$allocator@U?$pair@$$CBIVFunctor@OpenHome@@@std@@@1@@Z 0047d5f8 f   libohNetCore:NetworkAdapterList.obj
 0001:0007c620       __unwindfunclet$??1?$_Tree_nod@V?$_Tmap_traits@IVFunctor@OpenHome@@U?$less@I@std@@V?$allocator@U?$pair@$$CBIVFunctor@OpenHome@@@std@@@4@$0A@@std@@@std@@QAE@XZ$0 0047d620 f   libohNetCore:NetworkAdapterList.obj
 0001:0007c628       __ehhandler$??1?$_Tree_nod@V?$_Tmap_traits@IVFunctor@OpenHome@@U?$less@I@std@@V?$allocator@U?$pair@$$CBIVFunctor@OpenHome@@@std@@@4@$0A@@std@@@std@@QAE@XZ 0047d628 f   libohNetCore:NetworkAdapterList.obj
 0001:0007c650       __ehhandler$?reserve@?$vector@PAVNetworkAdapter@OpenHome@@V?$allocator@PAVNetworkAdapter@OpenHome@@@std@@@std@@QAEXI@Z 0047d650 f   libohNetCore:NetworkAdapterList.obj
 0001:0007c670       __unwindfunclet$??0?$_Tree_nod@V?$_Tmap_traits@IVFunctor@OpenHome@@U?$less@I@std@@V?$allocator@U?$pair@$$CBIVFunctor@OpenHome@@@std@@@4@$0A@@std@@@std@@QAE@ABU?$less@I@1@V?$allocator@U?$pair@$$CBIVFunctor@OpenHome@@@std@@@1@@Z$0 0047d670 f   libohNetCore:NetworkAdapterList.obj
 0001:0007c678       __ehhandler$??0?$_Tree_nod@V?$_Tmap_traits@IVFunctor@OpenHome@@U?$less@I@std@@V?$allocator@U?$pair@$$CBIVFunctor@OpenHome@@@std@@@4@$0A@@std@@@std@@QAE@ABU?$less@I@1@V?$allocator@U?$pair@$$CBIVFunctor@OpenHome@@@std@@@1@@Z 0047d678 f   libohNetCore:NetworkAdapterList.obj
 0001:0007c6a0       __unwindfunclet$??E?$_Tree_const_iterator@V?$_Tree_val@V?$_Tmap_traits@IVFunctor@OpenHome@@U?$less@I@std@@V?$allocator@U?$pair@$$CBIVFunctor@OpenHome@@@std@@@4@$0A@@std@@@std@@@std@@QAE?AV01@H@Z$0 0047d6a0 f   libohNetCore:NetworkAdapterList.obj
 0001:0007c6a8       __unwindfunclet$??E?$_Tree_const_iterator@V?$_Tree_val@V?$_Tmap_traits@IVFunctor@OpenHome@@U?$less@I@std@@V?$allocator@U?$pair@$$CBIVFunctor@OpenHome@@@std@@@4@$0A@@std@@@std@@@std@@QAE?AV01@H@Z$1 0047d6a8 f   libohNetCore:NetworkAdapterList.obj
 0001:0007c6c1       __ehhandler$??E?$_Tree_const_iterator@V?$_Tree_val@V?$_Tmap_traits@IVFunctor@OpenHome@@U?$less@I@std@@V?$allocator@U?$pair@$$CBIVFunctor@OpenHome@@@std@@@4@$0A@@std@@@std@@@std@@QAE?AV01@H@Z 0047d6c1 f   libohNetCore:NetworkAdapterList.obj
 0001:0007c6e0       __unwindfunclet$??0?$_Tree_unchecked_const_iterator@V?$_Tree_val@V?$_Tmap_traits@IVFunctor@OpenHome@@U?$less@I@std@@V?$allocator@U?$pair@$$CBIVFunctor@OpenHome@@@std@@@4@$0A@@std@@@std@@U_Iterator_base12@2@@std@@QAE@PAU_Node@?$_Tree_nod@V?$_Tmap_traits@IVFunctor@OpenHome@@U?$less@I@std@@V?$allocator@U?$pair@$$CBIVFunctor@OpenHome@@@std@@@4@$0A@@std@@@1@PBV?$_Tree_val@V?$_Tmap_traits@IVFunctor@OpenHome@@U?$less@I@std@@V?$allocator@U?$pair@$$CBIVFunctor@OpenHome@@@std@@@4@$0A@@std@@@1@@Z$0 0047d6e0 f   libohNetCore:NetworkAdapterList.obj
 0001:0007c6e8       __ehhandler$??0?$_Tree_unchecked_const_iterator@V?$_Tree_val@V?$_Tmap_traits@IVFunctor@OpenHome@@U?$less@I@std@@V?$allocator@U?$pair@$$CBIVFunctor@OpenHome@@@std@@@4@$0A@@std@@@std@@U_Iterator_base12@2@@std@@QAE@PAU_Node@?$_Tree_nod@V?$_Tmap_traits@IVFunctor@OpenHome@@U?$less@I@std@@V?$allocator@U?$pair@$$CBIVFunctor@OpenHome@@@std@@@4@$0A@@std@@@1@PBV?$_Tree_val@V?$_Tmap_traits@IVFunctor@OpenHome@@U?$less@I@std@@V?$allocator@U?$pair@$$CBIVFunctor@OpenHome@@@std@@@4@$0A@@std@@@1@@Z 0047d6e8 f   libohNetCore:NetworkAdapterList.obj
 0001:0007c710       __unwindfunclet$?_Linsert@?$_Tree@V?$_Tmap_traits@IVFunctor@OpenHome@@U?$less@I@std@@V?$allocator@U?$pair@$$CBIVFunctor@OpenHome@@@std@@@4@$0A@@std@@@std@@QAE?AU?$pair@V?$_Tree_iterator@V?$_Tree_val@V?$_Tmap_traits@IVFunctor@OpenHome@@U?$less@I@std@@V?$allocator@U?$pair@$$CBIVFunctor@OpenHome@@@std@@@4@$0A@@std@@@std@@@std@@_N@2@PAU_Node@?$_Tree_nod@V?$_Tmap_traits@IVFunctor@OpenHome@@U?$less@I@std@@V?$allocator@U?$pair@$$CBIVFunctor@OpenHome@@@std@@@4@$0A@@std@@@2@_N@Z$0 0047d710 f   libohNetCore:NetworkAdapterList.obj
 0001:0007c718       __unwindfunclet$?_Linsert@?$_Tree@V?$_Tmap_traits@IVFunctor@OpenHome@@U?$less@I@std@@V?$allocator@U?$pair@$$CBIVFunctor@OpenHome@@@std@@@4@$0A@@std@@@std@@QAE?AU?$pair@V?$_Tree_iterator@V?$_Tree_val@V?$_Tmap_traits@IVFunctor@OpenHome@@U?$less@I@std@@V?$allocator@U?$pair@$$CBIVFunctor@OpenHome@@@std@@@4@$0A@@std@@@std@@@std@@_N@2@PAU_Node@?$_Tree_nod@V?$_Tmap_traits@IVFunctor@OpenHome@@U?$less@I@std@@V?$allocator@U?$pair@$$CBIVFunctor@OpenHome@@@std@@@4@$0A@@std@@@2@_N@Z$1 0047d718 f   libohNetCore:NetworkAdapterList.obj
 0001:0007c731       __unwindfunclet$?_Linsert@?$_Tree@V?$_Tmap_traits@IVFunctor@OpenHome@@U?$less@I@std@@V?$allocator@U?$pair@$$CBIVFunctor@OpenHome@@@std@@@4@$0A@@std@@@std@@QAE?AU?$pair@V?$_Tree_iterator@V?$_Tree_val@V?$_Tmap_traits@IVFunctor@OpenHome@@U?$less@I@std@@V?$allocator@U?$pair@$$CBIVFunctor@OpenHome@@@std@@@4@$0A@@std@@@std@@@std@@_N@2@PAU_Node@?$_Tree_nod@V?$_Tmap_traits@IVFunctor@OpenHome@@U?$less@I@std@@V?$allocator@U?$pair@$$CBIVFunctor@OpenHome@@@std@@@4@$0A@@std@@@2@_N@Z$2 0047d731 f   libohNetCore:NetworkAdapterList.obj
 0001:0007c739       __unwindfunclet$?_Linsert@?$_Tree@V?$_Tmap_traits@IVFunctor@OpenHome@@U?$less@I@std@@V?$allocator@U?$pair@$$CBIVFunctor@OpenHome@@@std@@@4@$0A@@std@@@std@@QAE?AU?$pair@V?$_Tree_iterator@V?$_Tree_val@V?$_Tmap_traits@IVFunctor@OpenHome@@U?$less@I@std@@V?$allocator@U?$pair@$$CBIVFunctor@OpenHome@@@std@@@4@$0A@@std@@@std@@@std@@_N@2@PAU_Node@?$_Tree_nod@V?$_Tmap_traits@IVFunctor@OpenHome@@U?$less@I@std@@V?$allocator@U?$pair@$$CBIVFunctor@OpenHome@@@std@@@4@$0A@@std@@@2@_N@Z$3 0047d739 f   libohNetCore:NetworkAdapterList.obj
 0001:0007c741       __unwindfunclet$?_Linsert@?$_Tree@V?$_Tmap_traits@IVFunctor@OpenHome@@U?$less@I@std@@V?$allocator@U?$pair@$$CBIVFunctor@OpenHome@@@std@@@4@$0A@@std@@@std@@QAE?AU?$pair@V?$_Tree_iterator@V?$_Tree_val@V?$_Tmap_traits@IVFunctor@OpenHome@@U?$less@I@std@@V?$allocator@U?$pair@$$CBIVFunctor@OpenHome@@@std@@@4@$0A@@std@@@std@@@std@@_N@2@PAU_Node@?$_Tree_nod@V?$_Tmap_traits@IVFunctor@OpenHome@@U?$less@I@std@@V?$allocator@U?$pair@$$CBIVFunctor@OpenHome@@@std@@@4@$0A@@std@@@2@_N@Z$4 0047d741 f   libohNetCore:NetworkAdapterList.obj
 0001:0007c749       __unwindfunclet$?_Linsert@?$_Tree@V?$_Tmap_traits@IVFunctor@OpenHome@@U?$less@I@std@@V?$allocator@U?$pair@$$CBIVFunctor@OpenHome@@@std@@@4@$0A@@std@@@std@@QAE?AU?$pair@V?$_Tree_iterator@V?$_Tree_val@V?$_Tmap_traits@IVFunctor@OpenHome@@U?$less@I@std@@V?$allocator@U?$pair@$$CBIVFunctor@OpenHome@@@std@@@4@$0A@@std@@@std@@@std@@_N@2@PAU_Node@?$_Tree_nod@V?$_Tmap_traits@IVFunctor@OpenHome@@U?$less@I@std@@V?$allocator@U?$pair@$$CBIVFunctor@OpenHome@@@std@@@4@$0A@@std@@@2@_N@Z$5 0047d749 f   libohNetCore:NetworkAdapterList.obj
 0001:0007c751       __ehhandler$?_Linsert@?$_Tree@V?$_Tmap_traits@IVFunctor@OpenHome@@U?$less@I@std@@V?$allocator@U?$pair@$$CBIVFunctor@OpenHome@@@std@@@4@$0A@@std@@@std@@QAE?AU?$pair@V?$_Tree_iterator@V?$_Tree_val@V?$_Tmap_traits@IVFunctor@OpenHome@@U?$less@I@std@@V?$allocator@U?$pair@$$CBIVFunctor@OpenHome@@@std@@@4@$0A@@std@@@std@@@std@@_N@2@PAU_Node@?$_Tree_nod@V?$_Tmap_traits@IVFunctor@OpenHome@@U?$less@I@std@@V?$allocator@U?$pair@$$CBIVFunctor@OpenHome@@@std@@@4@$0A@@std@@@2@_N@Z 0047d751 f   libohNetCore:NetworkAdapterList.obj
 0001:0007c770       __unwindfunclet$??0?$_Pair_base@V?$_Tree_iterator@V?$_Tree_val@V?$_Tmap_traits@IVFunctor@OpenHome@@U?$less@I@std@@V?$allocator@U?$pair@$$CBIVFunctor@OpenHome@@@std@@@4@$0A@@std@@@std@@@std@@_N@std@@QAE@$$QAV?$_Tree_iterator@V?$_Tree_val@V?$_Tmap_traits@IVFunctor@OpenHome@@U?$less@I@std@@V?$allocator@U?$pair@$$CBIVFunctor@OpenHome@@@std@@@4@$0A@@std@@@std@@@1@$$QA_N@Z$0 0047d770 f   libohNetCore:NetworkAdapterList.obj
 0001:0007c778       __ehhandler$??0?$_Pair_base@V?$_Tree_iterator@V?$_Tree_val@V?$_Tmap_traits@IVFunctor@OpenHome@@U?$less@I@std@@V?$allocator@U?$pair@$$CBIVFunctor@OpenHome@@@std@@@4@$0A@@std@@@std@@@std@@_N@std@@QAE@$$QAV?$_Tree_iterator@V?$_Tree_val@V?$_Tmap_traits@IVFunctor@OpenHome@@U?$less@I@std@@V?$allocator@U?$pair@$$CBIVFunctor@OpenHome@@@std@@@4@$0A@@std@@@std@@@1@$$QA_N@Z 0047d778 f   libohNetCore:NetworkAdapterList.obj
 0001:0007c7a0       __ehhandler$??$_Buynode@U?$pair@IVFunctor@OpenHome@@@std@@@?$_Tree_val@V?$_Tmap_traits@IVFunctor@OpenHome@@U?$less@I@std@@V?$allocator@U?$pair@$$CBIVFunctor@OpenHome@@@std@@@4@$0A@@std@@@std@@QAEPAU_Node@?$_Tree_nod@V?$_Tmap_traits@IVFunctor@OpenHome@@U?$less@I@std@@V?$allocator@U?$pair@$$CBIVFunctor@OpenHome@@@std@@@4@$0A@@std@@@1@$$QAU?$pair@IVFunctor@OpenHome@@@1@@Z 0047d7a0 f   libohNetCore:NetworkAdapterList.obj
 0001:0007c7c0       __unwindfunclet$??$construct@AAPAVNetworkAdapter@OpenHome@@@?$allocator@PAVNetworkAdapter@OpenHome@@@std@@QAEXPAPAVNetworkAdapter@OpenHome@@AAPAV23@@Z$0 0047d7c0 f   libohNetCore:NetworkAdapterList.obj
 0001:0007c7d1       __ehhandler$??$construct@AAPAVNetworkAdapter@OpenHome@@@?$allocator@PAVNetworkAdapter@OpenHome@@@std@@QAEXPAPAVNetworkAdapter@OpenHome@@AAPAV23@@Z 0047d7d1 f   libohNetCore:NetworkAdapterList.obj
 0001:0007c7f0       __unwindfunclet$??$_Construct@PAVNetworkAdapter@OpenHome@@ABQAV12@@std@@YGXPAPAVNetworkAdapter@OpenHome@@ABQAV12@@Z$0 0047d7f0 f   libohNetCore:NetworkAdapterList.obj
 0001:0007c801       __ehhandler$??$_Construct@PAVNetworkAdapter@OpenHome@@ABQAV12@@std@@YGXPAPAVNetworkAdapter@OpenHome@@ABQAV12@@Z 0047d801 f   libohNetCore:NetworkAdapterList.obj
 0001:0007c820       __unwindfunclet$??$?0AAV?$_Tree_iterator@V?$_Tree_val@V?$_Tmap_traits@IVFunctor@OpenHome@@U?$less@I@std@@V?$allocator@U?$pair@$$CBIVFunctor@OpenHome@@@std@@@4@$0A@@std@@@std@@@std@@_N@?$_Pair_base@V?$_Tree_iterator@V?$_Tree_val@V?$_Tmap_traits@IVFunctor@OpenHome@@U?$less@I@std@@V?$allocator@U?$pair@$$CBIVFunctor@OpenHome@@@std@@@4@$0A@@std@@@std@@@std@@_N@std@@QAE@AAV?$_Tree_iterator@V?$_Tree_val@V?$_Tmap_traits@IVFunctor@OpenHome@@U?$less@I@std@@V?$allocator@U?$pair@$$CBIVFunctor@OpenHome@@@std@@@4@$0A@@std@@@std@@@1@$$QA_N@Z$0 0047d820 f   libohNetCore:NetworkAdapterList.obj
 0001:0007c828       __ehhandler$??$?0AAV?$_Tree_iterator@V?$_Tree_val@V?$_Tmap_traits@IVFunctor@OpenHome@@U?$less@I@std@@V?$allocator@U?$pair@$$CBIVFunctor@OpenHome@@@std@@@4@$0A@@std@@@std@@@std@@_N@?$_Pair_base@V?$_Tree_iterator@V?$_Tree_val@V?$_Tmap_traits@IVFunctor@OpenHome@@U?$less@I@std@@V?$allocator@U?$pair@$$CBIVFunctor@OpenHome@@@std@@@4@$0A@@std@@@std@@@std@@_N@std@@QAE@AAV?$_Tree_iterator@V?$_Tree_val@V?$_Tmap_traits@IVFunctor@OpenHome@@U?$less@I@std@@V?$allocator@U?$pair@$$CBIVFunctor@OpenHome@@@std@@@4@$0A@@std@@@std@@@1@$$QA_N@Z 0047d828 f   libohNetCore:NetworkAdapterList.obj
 0001:0007c850       __unwindfunclet$??$construct@U?$pair@IVFunctor@OpenHome@@@std@@@?$allocator@U?$pair@$$CBIVFunctor@OpenHome@@@std@@@std@@QAEXPAU?$pair@$$CBIVFunctor@OpenHome@@@1@$$QAU?$pair@IVFunctor@OpenHome@@@1@@Z$0 0047d850 f   libohNetCore:NetworkAdapterList.obj
 0001:0007c861       __ehhandler$??$construct@U?$pair@IVFunctor@OpenHome@@@std@@@?$allocator@U?$pair@$$CBIVFunctor@OpenHome@@@std@@@std@@QAEXPAU?$pair@$$CBIVFunctor@OpenHome@@@1@$$QAU?$pair@IVFunctor@OpenHome@@@1@@Z 0047d861 f   libohNetCore:NetworkAdapterList.obj
 0001:0007c880       __unwindfunclet$?DoMoveHeadTo@QueueBase@OpenHome@@IAEAAVQueueEntryBase@2@AAV12@@Z$0 0047d880 f   libohNetCore:Queue.obj
 0001:0007c888       __ehhandler$?DoMoveHeadTo@QueueBase@OpenHome@@IAEAAVQueueEntryBase@2@AAV12@@Z 0047d888 f   libohNetCore:Queue.obj
 0001:0007c8a3       __unwindfunclet$??0QueueSortedBase@OpenHome@@IAE@XZ$0 0047d8a3 f   libohNetCore:Queue.obj
 0001:0007c8ae       __ehhandler$??0QueueSortedBase@OpenHome@@IAE@XZ 0047d8ae f   libohNetCore:Queue.obj
 0001:0007c8d0       __unwindfunclet$??0SsdpSocketReader@Net@OpenHome@@QAE@IABVEndpoint@2@@Z$0 0047d8d0 f   libohNetCore:Discovery.obj
 0001:0007c8d8       __unwindfunclet$??0SsdpSocketReader@Net@OpenHome@@QAE@IABVEndpoint@2@@Z$1 0047d8d8 f   libohNetCore:Discovery.obj
 0001:0007c8e3       __unwindfunclet$??0SsdpSocketReader@Net@OpenHome@@QAE@IABVEndpoint@2@@Z$2 0047d8e3 f   libohNetCore:Discovery.obj
 0001:0007c8ee       __ehhandler$??0SsdpSocketReader@Net@OpenHome@@QAE@IABVEndpoint@2@@Z 0047d8ee f   libohNetCore:Discovery.obj
 0001:0007c909       __unwindfunclet$??1SsdpSocketReader@Net@OpenHome@@UAE@XZ$0 0047d909 f   libohNetCore:Discovery.obj
 0001:0007c911       __unwindfunclet$??1SsdpSocketReader@Net@OpenHome@@UAE@XZ$1 0047d911 f   libohNetCore:Discovery.obj
 0001:0007c91c       __ehhandler$??1SsdpSocketReader@Net@OpenHome@@UAE@XZ 0047d91c f   libohNetCore:Discovery.obj
 0001:0007c937       __unwindfunclet$??0SsdpListener@Net@OpenHome@@IAE@XZ$0 0047d937 f   libohNetCore:Discovery.obj
 0001:0007c93f       __unwindfunclet$??0SsdpListener@Net@OpenHome@@IAE@XZ$1 0047d93f f   libohNetCore:Discovery.obj
 0001:0007c94a       __unwindfunclet$??0SsdpListener@Net@OpenHome@@IAE@XZ$2 0047d94a f   libohNetCore:Discovery.obj
 0001:0007c955       __unwindfunclet$??0SsdpListener@Net@OpenHome@@IAE@XZ$3 0047d955 f   libohNetCore:Discovery.obj
 0001:0007c963       __unwindfunclet$??0SsdpListener@Net@OpenHome@@IAE@XZ$4 0047d963 f   libohNetCore:Discovery.obj
 0001:0007c971       __ehhandler$??0SsdpListener@Net@OpenHome@@IAE@XZ 0047d971 f   libohNetCore:Discovery.obj
 0001:0007c98c       __unwindfunclet$??0SsdpListenerMulticast@Net@OpenHome@@QAE@I@Z$0 0047d98c f   libohNetCore:Discovery.obj
 0001:0007c994       __unwindfunclet$??0SsdpListenerMulticast@Net@OpenHome@@QAE@I@Z$1 0047d994 f   libohNetCore:Discovery.obj
 0001:0007c9a2       __unwindfunclet$??0SsdpListenerMulticast@Net@OpenHome@@QAE@I@Z$2 0047d9a2 f   libohNetCore:Discovery.obj
 0001:0007c9b0       __unwindfunclet$??0SsdpListenerMulticast@Net@OpenHome@@QAE@I@Z$3 0047d9b0 f   libohNetCore:Discovery.obj
 0001:0007c9be       __unwindfunclet$??0SsdpListenerMulticast@Net@OpenHome@@QAE@I@Z$4 0047d9be f   libohNetCore:Discovery.obj
 0001:0007c9cc       __unwindfunclet$??0SsdpListenerMulticast@Net@OpenHome@@QAE@I@Z$5 0047d9cc f   libohNetCore:Discovery.obj
 0001:0007c9da       __unwindfunclet$??0SsdpListenerMulticast@Net@OpenHome@@QAE@I@Z$6 0047d9da f   libohNetCore:Discovery.obj
 0001:0007c9e8       __unwindfunclet$??0SsdpListenerMulticast@Net@OpenHome@@QAE@I@Z$7 0047d9e8 f   libohNetCore:Discovery.obj
 0001:0007c9f6       __unwindfunclet$??0SsdpListenerMulticast@Net@OpenHome@@QAE@I@Z$8 0047d9f6 f   libohNetCore:Discovery.obj
 0001:0007ca04       __unwindfunclet$??0SsdpListenerMulticast@Net@OpenHome@@QAE@I@Z$9 0047da04 f   libohNetCore:Discovery.obj
 0001:0007ca12       __unwindfunclet$??0SsdpListenerMulticast@Net@OpenHome@@QAE@I@Z$10 0047da12 f   libohNetCore:Discovery.obj
 0001:0007ca20       __unwindfunclet$??0SsdpListenerMulticast@Net@OpenHome@@QAE@I@Z$11 0047da20 f   libohNetCore:Discovery.obj
 0001:0007ca2e       __ehhandler$??0SsdpListenerMulticast@Net@OpenHome@@QAE@I@Z 0047da2e f   libohNetCore:Discovery.obj
 0001:0007ca49       __unwindfunclet$?Run@SsdpListenerMulticast@Net@OpenHome@@EAEXXZ$4 0047da49 f   libohNetCore:Discovery.obj
 0001:0007ca51       __unwindfunclet$?Run@SsdpListenerMulticast@Net@OpenHome@@EAEXXZ$5 0047da51 f   libohNetCore:Discovery.obj
 0001:0007ca59       __ehhandler$?Run@SsdpListenerMulticast@Net@OpenHome@@EAEXXZ 0047da59 f   libohNetCore:Discovery.obj
 0001:0007ca77       __unwindfunclet$?Msearch@SsdpListenerMulticast@Net@OpenHome@@AAEXAAVMsearchHandler@123@@Z$0 0047da77 f   libohNetCore:Discovery.obj
 0001:0007ca7f       __ehhandler$?Msearch@SsdpListenerMulticast@Net@OpenHome@@AAEXAAVMsearchHandler@123@@Z 0047da7f f   libohNetCore:Discovery.obj
 0001:0007ca9a       __unwindfunclet$?Notify@SsdpListenerMulticast@Net@OpenHome@@AAEXAAVNotifyHandler@123@@Z$0 0047da9a f   libohNetCore:Discovery.obj
 0001:0007caa2       __ehhandler$?Notify@SsdpListenerMulticast@Net@OpenHome@@AAEXAAVNotifyHandler@123@@Z 0047daa2 f   libohNetCore:Discovery.obj
 0001:0007cabd       __unwindfunclet$??1SsdpListenerMulticast@Net@OpenHome@@UAE@XZ$0 0047dabd f   libohNetCore:Discovery.obj
 0001:0007cac5       __unwindfunclet$??1SsdpListenerMulticast@Net@OpenHome@@UAE@XZ$1 0047dac5 f   libohNetCore:Discovery.obj
 0001:0007cad3       __unwindfunclet$??1SsdpListenerMulticast@Net@OpenHome@@UAE@XZ$2 0047dad3 f   libohNetCore:Discovery.obj
 0001:0007cae1       __unwindfunclet$??1SsdpListenerMulticast@Net@OpenHome@@UAE@XZ$3 0047dae1 f   libohNetCore:Discovery.obj
 0001:0007caef       __unwindfunclet$??1SsdpListenerMulticast@Net@OpenHome@@UAE@XZ$4 0047daef f   libohNetCore:Discovery.obj
 0001:0007cafd       __unwindfunclet$??1SsdpListenerMulticast@Net@OpenHome@@UAE@XZ$5 0047dafd f   libohNetCore:Discovery.obj
 0001:0007cb0b       __unwindfunclet$??1SsdpListenerMulticast@Net@OpenHome@@UAE@XZ$6 0047db0b f   libohNetCore:Discovery.obj
 0001:0007cb19       __unwindfunclet$??1SsdpListenerMulticast@Net@OpenHome@@UAE@XZ$7 0047db19 f   libohNetCore:Discovery.obj
 0001:0007cb27       __unwindfunclet$??1SsdpListenerMulticast@Net@OpenHome@@UAE@XZ$8 0047db27 f   libohNetCore:Discovery.obj
 0001:0007cb35       __unwindfunclet$??1SsdpListenerMulticast@Net@OpenHome@@UAE@XZ$9 0047db35 f   libohNetCore:Discovery.obj
 0001:0007cb43       __unwindfunclet$??1SsdpListenerMulticast@Net@OpenHome@@UAE@XZ$10 0047db43 f   libohNetCore:Discovery.obj
 0001:0007cb51       __unwindfunclet$??1SsdpListenerMulticast@Net@OpenHome@@UAE@XZ$11 0047db51 f   libohNetCore:Discovery.obj
 0001:0007cb5f       __ehhandler$??1SsdpListenerMulticast@Net@OpenHome@@UAE@XZ 0047db5f f   libohNetCore:Discovery.obj
 0001:0007cb7a       __unwindfunclet$?AddNotifyHandler@SsdpListenerMulticast@Net@OpenHome@@QAEHPAVISsdpNotifyHandler@23@@Z$0 0047db7a f   libohNetCore:Discovery.obj
 0001:0007cb85       __ehhandler$?AddNotifyHandler@SsdpListenerMulticast@Net@OpenHome@@QAEHPAVISsdpNotifyHandler@23@@Z 0047db85 f   libohNetCore:Discovery.obj
 0001:0007cba0       __unwindfunclet$?AddMsearchHandler@SsdpListenerMulticast@Net@OpenHome@@QAEHPAVISsdpMsearchHandler@23@@Z$0 0047dba0 f   libohNetCore:Discovery.obj
 0001:0007cbab       __ehhandler$?AddMsearchHandler@SsdpListenerMulticast@Net@OpenHome@@QAEHPAVISsdpMsearchHandler@23@@Z 0047dbab f   libohNetCore:Discovery.obj
 0001:0007cbc6       __unwindfunclet$?EraseDisabled@SsdpListenerMulticast@Net@OpenHome@@AAEXAAV?$vector@PAVNotifyHandler@SsdpListenerMulticast@Net@OpenHome@@V?$allocator@PAVNotifyHandler@SsdpListenerMulticast@Net@OpenHome@@@std@@@std@@@Z$0 0047dbc6 f   libohNetCore:Discovery.obj
 0001:0007cbce       __unwindfunclet$?EraseDisabled@SsdpListenerMulticast@Net@OpenHome@@AAEXAAV?$vector@PAVNotifyHandler@SsdpListenerMulticast@Net@OpenHome@@V?$allocator@PAVNotifyHandler@SsdpListenerMulticast@Net@OpenHome@@@std@@@std@@@Z$1 0047dbce f   libohNetCore:Discovery.obj
 0001:0007cbd6       __unwindfunclet$?EraseDisabled@SsdpListenerMulticast@Net@OpenHome@@AAEXAAV?$vector@PAVNotifyHandler@SsdpListenerMulticast@Net@OpenHome@@V?$allocator@PAVNotifyHandler@SsdpListenerMulticast@Net@OpenHome@@@std@@@std@@@Z$3 0047dbd6 f   libohNetCore:Discovery.obj
 0001:0007cbde       __ehhandler$?EraseDisabled@SsdpListenerMulticast@Net@OpenHome@@AAEXAAV?$vector@PAVNotifyHandler@SsdpListenerMulticast@Net@OpenHome@@V?$allocator@PAVNotifyHandler@SsdpListenerMulticast@Net@OpenHome@@@std@@@std@@@Z 0047dbde f   libohNetCore:Discovery.obj
 0001:0007cbf9       __unwindfunclet$?EraseDisabled@SsdpListenerMulticast@Net@OpenHome@@AAEXAAV?$vector@PAVMsearchHandler@SsdpListenerMulticast@Net@OpenHome@@V?$allocator@PAVMsearchHandler@SsdpListenerMulticast@Net@OpenHome@@@std@@@std@@@Z$0 0047dbf9 f   libohNetCore:Discovery.obj
 0001:0007cc01       __unwindfunclet$?EraseDisabled@SsdpListenerMulticast@Net@OpenHome@@AAEXAAV?$vector@PAVMsearchHandler@SsdpListenerMulticast@Net@OpenHome@@V?$allocator@PAVMsearchHandler@SsdpListenerMulticast@Net@OpenHome@@@std@@@std@@@Z$1 0047dc01 f   libohNetCore:Discovery.obj
 0001:0007cc09       __unwindfunclet$?EraseDisabled@SsdpListenerMulticast@Net@OpenHome@@AAEXAAV?$vector@PAVMsearchHandler@SsdpListenerMulticast@Net@OpenHome@@V?$allocator@PAVMsearchHandler@SsdpListenerMulticast@Net@OpenHome@@@std@@@std@@@Z$3 0047dc09 f   libohNetCore:Discovery.obj
 0001:0007cc11       __ehhandler$?EraseDisabled@SsdpListenerMulticast@Net@OpenHome@@AAEXAAV?$vector@PAVMsearchHandler@SsdpListenerMulticast@Net@OpenHome@@V?$allocator@PAVMsearchHandler@SsdpListenerMulticast@Net@OpenHome@@@std@@@std@@@Z 0047dc11 f   libohNetCore:Discovery.obj
 0001:0007cc2c       __unwindfunclet$??0SsdpListenerUnicast@Net@OpenHome@@QAE@AAVISsdpNotifyHandler@12@I@Z$0 0047dc2c f   libohNetCore:Discovery.obj
 0001:0007cc34       __unwindfunclet$??0SsdpListenerUnicast@Net@OpenHome@@QAE@AAVISsdpNotifyHandler@12@I@Z$1 0047dc34 f   libohNetCore:Discovery.obj
 0001:0007cc42       __unwindfunclet$??0SsdpListenerUnicast@Net@OpenHome@@QAE@AAVISsdpNotifyHandler@12@I@Z$2 0047dc42 f   libohNetCore:Discovery.obj
 0001:0007cc50       __unwindfunclet$??0SsdpListenerUnicast@Net@OpenHome@@QAE@AAVISsdpNotifyHandler@12@I@Z$3 0047dc50 f   libohNetCore:Discovery.obj
 0001:0007cc5e       __unwindfunclet$??0SsdpListenerUnicast@Net@OpenHome@@QAE@AAVISsdpNotifyHandler@12@I@Z$4 0047dc5e f   libohNetCore:Discovery.obj
 0001:0007cc6c       __unwindfunclet$??0SsdpListenerUnicast@Net@OpenHome@@QAE@AAVISsdpNotifyHandler@12@I@Z$5 0047dc6c f   libohNetCore:Discovery.obj
 0001:0007cc7a       __unwindfunclet$??0SsdpListenerUnicast@Net@OpenHome@@QAE@AAVISsdpNotifyHandler@12@I@Z$6 0047dc7a f   libohNetCore:Discovery.obj
 0001:0007cc88       __unwindfunclet$??0SsdpListenerUnicast@Net@OpenHome@@QAE@AAVISsdpNotifyHandler@12@I@Z$7 0047dc88 f   libohNetCore:Discovery.obj
 0001:0007cc96       __unwindfunclet$??0SsdpListenerUnicast@Net@OpenHome@@QAE@AAVISsdpNotifyHandler@12@I@Z$8 0047dc96 f   libohNetCore:Discovery.obj
 0001:0007cca4       __ehhandler$??0SsdpListenerUnicast@Net@OpenHome@@QAE@AAVISsdpNotifyHandler@12@I@Z 0047dca4 f   libohNetCore:Discovery.obj
 0001:0007ccbf       __unwindfunclet$??1SsdpListenerUnicast@Net@OpenHome@@UAE@XZ$0 0047dcbf f   libohNetCore:Discovery.obj
 0001:0007ccc7       __unwindfunclet$??1SsdpListenerUnicast@Net@OpenHome@@UAE@XZ$1 0047dcc7 f   libohNetCore:Discovery.obj
 0001:0007ccd5       __unwindfunclet$??1SsdpListenerUnicast@Net@OpenHome@@UAE@XZ$2 0047dcd5 f   libohNetCore:Discovery.obj
 0001:0007cce3       __unwindfunclet$??1SsdpListenerUnicast@Net@OpenHome@@UAE@XZ$3 0047dce3 f   libohNetCore:Discovery.obj
 0001:0007ccf1       __unwindfunclet$??1SsdpListenerUnicast@Net@OpenHome@@UAE@XZ$4 0047dcf1 f   libohNetCore:Discovery.obj
 0001:0007ccff       __unwindfunclet$??1SsdpListenerUnicast@Net@OpenHome@@UAE@XZ$5 0047dcff f   libohNetCore:Discovery.obj
 0001:0007cd0d       __unwindfunclet$??1SsdpListenerUnicast@Net@OpenHome@@UAE@XZ$6 0047dd0d f   libohNetCore:Discovery.obj
 0001:0007cd1b       __unwindfunclet$??1SsdpListenerUnicast@Net@OpenHome@@UAE@XZ$7 0047dd1b f   libohNetCore:Discovery.obj
 0001:0007cd29       __unwindfunclet$??1SsdpListenerUnicast@Net@OpenHome@@UAE@XZ$8 0047dd29 f   libohNetCore:Discovery.obj
 0001:0007cd37       __ehhandler$??1SsdpListenerUnicast@Net@OpenHome@@UAE@XZ 0047dd37 f   libohNetCore:Discovery.obj
 0001:0007cd52       __ehhandler$?Run@SsdpListenerUnicast@Net@OpenHome@@EAEXXZ 0047dd52 f   libohNetCore:Discovery.obj
 0001:0007cd70       __unwindfunclet$??0HttpHeaderLocation@OpenHome@@QAE@XZ$0 0047dd70 f   libohNetCore:Discovery.obj
 0001:0007cd78       __ehhandler$??0HttpHeaderLocation@OpenHome@@QAE@XZ 0047dd78 f   libohNetCore:Discovery.obj
 0001:0007cda0       __unwindfunclet$??1HttpHeaderLocation@OpenHome@@UAE@XZ$0 0047dda0 f   libohNetCore:Discovery.obj
 0001:0007cda8       __ehhandler$??1HttpHeaderLocation@OpenHome@@UAE@XZ 0047dda8 f   libohNetCore:Discovery.obj
 0001:0007cdd0       __unwindfunclet$??0SsdpHeaderSt@Net@OpenHome@@QAE@XZ$0 0047ddd0 f   libohNetCore:Discovery.obj
 0001:0007cdd8       __unwindfunclet$??0SsdpHeaderSt@Net@OpenHome@@QAE@XZ$1 0047ddd8 f   libohNetCore:Discovery.obj
 0001:0007cde3       __unwindfunclet$??0SsdpHeaderSt@Net@OpenHome@@QAE@XZ$2 0047dde3 f   libohNetCore:Discovery.obj
 0001:0007cdee       __ehhandler$??0SsdpHeaderSt@Net@OpenHome@@QAE@XZ 0047ddee f   libohNetCore:Discovery.obj
 0001:0007ce10       __unwindfunclet$??1SsdpHeaderSt@Net@OpenHome@@UAE@XZ$0 0047de10 f   libohNetCore:Discovery.obj
 0001:0007ce18       __unwindfunclet$??1SsdpHeaderSt@Net@OpenHome@@UAE@XZ$1 0047de18 f   libohNetCore:Discovery.obj
 0001:0007ce23       __unwindfunclet$??1SsdpHeaderSt@Net@OpenHome@@UAE@XZ$2 0047de23 f   libohNetCore:Discovery.obj
 0001:0007ce2e       __ehhandler$??1SsdpHeaderSt@Net@OpenHome@@UAE@XZ 0047de2e f   libohNetCore:Discovery.obj
 0001:0007ce50       __unwindfunclet$??0SsdpHeaderUsn@Net@OpenHome@@QAE@XZ$0 0047de50 f   libohNetCore:Discovery.obj
 0001:0007ce58       __unwindfunclet$??0SsdpHeaderUsn@Net@OpenHome@@QAE@XZ$1 0047de58 f   libohNetCore:Discovery.obj
 0001:0007ce63       __unwindfunclet$??0SsdpHeaderUsn@Net@OpenHome@@QAE@XZ$2 0047de63 f   libohNetCore:Discovery.obj
 0001:0007ce6e       __ehhandler$??0SsdpHeaderUsn@Net@OpenHome@@QAE@XZ 0047de6e f   libohNetCore:Discovery.obj
 0001:0007ce90       __unwindfunclet$??1SsdpListener@Net@OpenHome@@UAE@XZ$0 0047de90 f   libohNetCore:Discovery.obj
 0001:0007ce98       __unwindfunclet$??1SsdpListener@Net@OpenHome@@UAE@XZ$1 0047de98 f   libohNetCore:Discovery.obj
 0001:0007cea3       __unwindfunclet$??1SsdpListener@Net@OpenHome@@UAE@XZ$2 0047dea3 f   libohNetCore:Discovery.obj
 0001:0007ceae       __unwindfunclet$??1SsdpListener@Net@OpenHome@@UAE@XZ$3 0047deae f   libohNetCore:Discovery.obj
 0001:0007cebc       __unwindfunclet$??1SsdpListener@Net@OpenHome@@UAE@XZ$4 0047debc f   libohNetCore:Discovery.obj
 0001:0007ceca       __ehhandler$??1SsdpListener@Net@OpenHome@@UAE@XZ 0047deca f   libohNetCore:Discovery.obj
 0001:0007cef0       __unwindfunclet$??1SsdpHeaderUsn@Net@OpenHome@@UAE@XZ$0 0047def0 f   libohNetCore:Discovery.obj
 0001:0007cef8       __unwindfunclet$??1SsdpHeaderUsn@Net@OpenHome@@UAE@XZ$1 0047def8 f   libohNetCore:Discovery.obj
 0001:0007cf03       __unwindfunclet$??1SsdpHeaderUsn@Net@OpenHome@@UAE@XZ$2 0047df03 f   libohNetCore:Discovery.obj
 0001:0007cf0e       __ehhandler$??1SsdpHeaderUsn@Net@OpenHome@@UAE@XZ 0047df0e f   libohNetCore:Discovery.obj
 0001:0007cf30       __unwindfunclet$??1ReaderHttpRequest@OpenHome@@QAE@XZ$0 0047df30 f   libohNetCore:Discovery.obj
 0001:0007cf38       __unwindfunclet$??1ReaderHttpRequest@OpenHome@@QAE@XZ$1 0047df38 f   libohNetCore:Discovery.obj
 0001:0007cf43       __ehhandler$??1ReaderHttpRequest@OpenHome@@QAE@XZ 0047df43 f   libohNetCore:Discovery.obj
 0001:0007cf60       __unwindfunclet$??0SsdpHeaderNt@Net@OpenHome@@QAE@XZ$0 0047df60 f   libohNetCore:Discovery.obj
 0001:0007cf68       __unwindfunclet$??0SsdpHeaderNt@Net@OpenHome@@QAE@XZ$1 0047df68 f   libohNetCore:Discovery.obj
 0001:0007cf73       __unwindfunclet$??0SsdpHeaderNt@Net@OpenHome@@QAE@XZ$2 0047df73 f   libohNetCore:Discovery.obj
 0001:0007cf7e       __ehhandler$??0SsdpHeaderNt@Net@OpenHome@@QAE@XZ 0047df7e f   libohNetCore:Discovery.obj
 0001:0007cfa0       __unwindfunclet$??1SsdpHeaderNt@Net@OpenHome@@UAE@XZ$0 0047dfa0 f   libohNetCore:Discovery.obj
 0001:0007cfa8       __unwindfunclet$??1SsdpHeaderNt@Net@OpenHome@@UAE@XZ$1 0047dfa8 f   libohNetCore:Discovery.obj
 0001:0007cfb3       __unwindfunclet$??1SsdpHeaderNt@Net@OpenHome@@UAE@XZ$2 0047dfb3 f   libohNetCore:Discovery.obj
 0001:0007cfbe       __ehhandler$??1SsdpHeaderNt@Net@OpenHome@@UAE@XZ 0047dfbe f   libohNetCore:Discovery.obj
 0001:0007cfe0       __unwindfunclet$??1Srx@OpenHome@@UAE@XZ$0 0047dfe0 f   libohNetCore:Discovery.obj
 0001:0007cfe8       __ehhandler$??1Srx@OpenHome@@UAE@XZ 0047dfe8 f   libohNetCore:Discovery.obj
 0001:0007d010       __unwindfunclet$??1ReaderHttpResponse@OpenHome@@QAE@XZ$0 0047e010 f   libohNetCore:Discovery.obj
 0001:0007d01b       __unwindfunclet$??1ReaderHttpResponse@OpenHome@@QAE@XZ$1 0047e01b f   libohNetCore:Discovery.obj
 0001:0007d026       __ehhandler$??1ReaderHttpResponse@OpenHome@@QAE@XZ 0047e026 f   libohNetCore:Discovery.obj
 0001:0007d050       __unwindfunclet$??1Swx@OpenHome@@UAE@XZ$0 0047e050 f   libohNetCore:Discovery.obj
 0001:0007d058       __ehhandler$??1Swx@OpenHome@@UAE@XZ 0047e058 f   libohNetCore:Discovery.obj
 0001:0007d080       __unwindfunclet$??1WriterHttpRequest@OpenHome@@UAE@XZ$0 0047e080 f   libohNetCore:Discovery.obj
 0001:0007d088       __ehhandler$??1WriterHttpRequest@OpenHome@@UAE@XZ 0047e088 f   libohNetCore:Discovery.obj
 0001:0007d0b0       __unwindfunclet$??1WriterHttpHeader@OpenHome@@UAE@XZ$0 0047e0b0 f   libohNetCore:Discovery.obj
 0001:0007d0b8       __ehhandler$??1WriterHttpHeader@OpenHome@@UAE@XZ 0047e0b8 f   libohNetCore:Discovery.obj
 0001:0007d0e0       __unwindfunclet$??1?$vector@PAVIHttpHeader@OpenHome@@V?$allocator@PAVIHttpHeader@OpenHome@@@std@@@std@@QAE@XZ$0 0047e0e0 f   libohNetCore:Discovery.obj
 0001:0007d0e8       __ehhandler$??1?$vector@PAVIHttpHeader@OpenHome@@V?$allocator@PAVIHttpHeader@OpenHome@@@std@@@std@@QAE@XZ 0047e0e8 f   libohNetCore:Discovery.obj
 0001:0007d110       __unwindfunclet$??1?$vector@PBVBrx@OpenHome@@V?$allocator@PBVBrx@OpenHome@@@std@@@std@@QAE@XZ$0 0047e110 f   libohNetCore:Discovery.obj
 0001:0007d118       __ehhandler$??1?$vector@PBVBrx@OpenHome@@V?$allocator@PBVBrx@OpenHome@@@std@@@std@@QAE@XZ 0047e118 f   libohNetCore:Discovery.obj
 0001:0007d140       __unwindfunclet$??1?$vector@PAVNotifyHandler@SsdpListenerMulticast@Net@OpenHome@@V?$allocator@PAVNotifyHandler@SsdpListenerMulticast@Net@OpenHome@@@std@@@std@@QAE@XZ$0 0047e140 f   libohNetCore:Discovery.obj
 0001:0007d148       __ehhandler$??1?$vector@PAVNotifyHandler@SsdpListenerMulticast@Net@OpenHome@@V?$allocator@PAVNotifyHandler@SsdpListenerMulticast@Net@OpenHome@@@std@@@std@@QAE@XZ 0047e148 f   libohNetCore:Discovery.obj
 0001:0007d170       __unwindfunclet$?erase@?$vector@PAVNotifyHandler@SsdpListenerMulticast@Net@OpenHome@@V?$allocator@PAVNotifyHandler@SsdpListenerMulticast@Net@OpenHome@@@std@@@std@@QAE?AV?$_Vector_iterator@V?$_Vector_val@PAVNotifyHandler@SsdpListenerMulticast@Net@OpenHome@@V?$allocator@PAVNotifyHandler@SsdpListenerMulticast@Net@OpenHome@@@std@@@std@@@2@V?$_Vector_const_iterator@V?$_Vector_val@PAVNotifyHandler@SsdpListenerMulticast@Net@OpenHome@@V?$allocator@PAVNotifyHandler@SsdpListenerMulticast@Net@OpenHome@@@std@@@std@@@2@@Z$0 0047e170 f   libohNetCore:Discovery.obj
 0001:0007d178       __unwindfunclet$?erase@?$vector@PAVNotifyHandler@SsdpListenerMulticast@Net@OpenHome@@V?$allocator@PAVNotifyHandler@SsdpListenerMulticast@Net@OpenHome@@@std@@@std@@QAE?AV?$_Vector_iterator@V?$_Vector_val@PAVNotifyHandler@SsdpListenerMulticast@Net@OpenHome@@V?$allocator@PAVNotifyHandler@SsdpListenerMulticast@Net@OpenHome@@@std@@@std@@@2@V?$_Vector_const_iterator@V?$_Vector_val@PAVNotifyHandler@SsdpListenerMulticast@Net@OpenHome@@V?$allocator@PAVNotifyHandler@SsdpListenerMulticast@Net@OpenHome@@@std@@@std@@@2@@Z$2 0047e178 f   libohNetCore:Discovery.obj
 0001:0007d191       __ehhandler$?erase@?$vector@PAVNotifyHandler@SsdpListenerMulticast@Net@OpenHome@@V?$allocator@PAVNotifyHandler@SsdpListenerMulticast@Net@OpenHome@@@std@@@std@@QAE?AV?$_Vector_iterator@V?$_Vector_val@PAVNotifyHandler@SsdpListenerMulticast@Net@OpenHome@@V?$allocator@PAVNotifyHandler@SsdpListenerMulticast@Net@OpenHome@@@std@@@std@@@2@V?$_Vector_const_iterator@V?$_Vector_val@PAVNotifyHandler@SsdpListenerMulticast@Net@OpenHome@@V?$allocator@PAVNotifyHandler@SsdpListenerMulticast@Net@OpenHome@@@std@@@std@@@2@@Z 0047e191 f   libohNetCore:Discovery.obj
 0001:0007d1b0       __unwindfunclet$??1?$vector@PAVMsearchHandler@SsdpListenerMulticast@Net@OpenHome@@V?$allocator@PAVMsearchHandler@SsdpListenerMulticast@Net@OpenHome@@@std@@@std@@QAE@XZ$0 0047e1b0 f   libohNetCore:Discovery.obj
 0001:0007d1b8       __ehhandler$??1?$vector@PAVMsearchHandler@SsdpListenerMulticast@Net@OpenHome@@V?$allocator@PAVMsearchHandler@SsdpListenerMulticast@Net@OpenHome@@@std@@@std@@QAE@XZ 0047e1b8 f   libohNetCore:Discovery.obj
 0001:0007d1e0       __unwindfunclet$?erase@?$vector@PAVMsearchHandler@SsdpListenerMulticast@Net@OpenHome@@V?$allocator@PAVMsearchHandler@SsdpListenerMulticast@Net@OpenHome@@@std@@@std@@QAE?AV?$_Vector_iterator@V?$_Vector_val@PAVMsearchHandler@SsdpListenerMulticast@Net@OpenHome@@V?$allocator@PAVMsearchHandler@SsdpListenerMulticast@Net@OpenHome@@@std@@@std@@@2@V?$_Vector_const_iterator@V?$_Vector_val@PAVMsearchHandler@SsdpListenerMulticast@Net@OpenHome@@V?$allocator@PAVMsearchHandler@SsdpListenerMulticast@Net@OpenHome@@@std@@@std@@@2@@Z$0 0047e1e0 f   libohNetCore:Discovery.obj
 0001:0007d1e8       __unwindfunclet$?erase@?$vector@PAVMsearchHandler@SsdpListenerMulticast@Net@OpenHome@@V?$allocator@PAVMsearchHandler@SsdpListenerMulticast@Net@OpenHome@@@std@@@std@@QAE?AV?$_Vector_iterator@V?$_Vector_val@PAVMsearchHandler@SsdpListenerMulticast@Net@OpenHome@@V?$allocator@PAVMsearchHandler@SsdpListenerMulticast@Net@OpenHome@@@std@@@std@@@2@V?$_Vector_const_iterator@V?$_Vector_val@PAVMsearchHandler@SsdpListenerMulticast@Net@OpenHome@@V?$allocator@PAVMsearchHandler@SsdpListenerMulticast@Net@OpenHome@@@std@@@std@@@2@@Z$2 0047e1e8 f   libohNetCore:Discovery.obj
 0001:0007d201       __ehhandler$?erase@?$vector@PAVMsearchHandler@SsdpListenerMulticast@Net@OpenHome@@V?$allocator@PAVMsearchHandler@SsdpListenerMulticast@Net@OpenHome@@@std@@@std@@QAE?AV?$_Vector_iterator@V?$_Vector_val@PAVMsearchHandler@SsdpListenerMulticast@Net@OpenHome@@V?$allocator@PAVMsearchHandler@SsdpListenerMulticast@Net@OpenHome@@@std@@@std@@@2@V?$_Vector_const_iterator@V?$_Vector_val@PAVMsearchHandler@SsdpListenerMulticast@Net@OpenHome@@V?$allocator@PAVMsearchHandler@SsdpListenerMulticast@Net@OpenHome@@@std@@@std@@@2@@Z 0047e201 f   libohNetCore:Discovery.obj
 0001:0007d220       __unwindfunclet$??E?$_Vector_iterator@V?$_Vector_val@PAVNotifyHandler@SsdpListenerMulticast@Net@OpenHome@@V?$allocator@PAVNotifyHandler@SsdpListenerMulticast@Net@OpenHome@@@std@@@std@@@std@@QAE?AV01@H@Z$0 0047e220 f   libohNetCore:Discovery.obj
 0001:0007d228       __unwindfunclet$??E?$_Vector_iterator@V?$_Vector_val@PAVNotifyHandler@SsdpListenerMulticast@Net@OpenHome@@V?$allocator@PAVNotifyHandler@SsdpListenerMulticast@Net@OpenHome@@@std@@@std@@@std@@QAE?AV01@H@Z$1 0047e228 f   libohNetCore:Discovery.obj
 0001:0007d241       __ehhandler$??E?$_Vector_iterator@V?$_Vector_val@PAVNotifyHandler@SsdpListenerMulticast@Net@OpenHome@@V?$allocator@PAVNotifyHandler@SsdpListenerMulticast@Net@OpenHome@@@std@@@std@@@std@@QAE?AV01@H@Z 0047e241 f   libohNetCore:Discovery.obj
 0001:0007d260       __unwindfunclet$??E?$_Vector_iterator@V?$_Vector_val@PAVMsearchHandler@SsdpListenerMulticast@Net@OpenHome@@V?$allocator@PAVMsearchHandler@SsdpListenerMulticast@Net@OpenHome@@@std@@@std@@@std@@QAE?AV01@H@Z$0 0047e260 f   libohNetCore:Discovery.obj
 0001:0007d268       __unwindfunclet$??E?$_Vector_iterator@V?$_Vector_val@PAVMsearchHandler@SsdpListenerMulticast@Net@OpenHome@@V?$allocator@PAVMsearchHandler@SsdpListenerMulticast@Net@OpenHome@@@std@@@std@@@std@@QAE?AV01@H@Z$1 0047e268 f   libohNetCore:Discovery.obj
 0001:0007d281       __ehhandler$??E?$_Vector_iterator@V?$_Vector_val@PAVMsearchHandler@SsdpListenerMulticast@Net@OpenHome@@V?$allocator@PAVMsearchHandler@SsdpListenerMulticast@Net@OpenHome@@@std@@@std@@@std@@QAE?AV01@H@Z 0047e281 f   libohNetCore:Discovery.obj
 0001:0007d2a0       __unwindfunclet$??1?$_Vector_val@PAVIHttpHeader@OpenHome@@V?$allocator@PAVIHttpHeader@OpenHome@@@std@@@std@@QAE@XZ$0 0047e2a0 f   libohNetCore:Discovery.obj
 0001:0007d2a8       __ehhandler$??1?$_Vector_val@PAVIHttpHeader@OpenHome@@V?$allocator@PAVIHttpHeader@OpenHome@@@std@@@std@@QAE@XZ 0047e2a8 f   libohNetCore:Discovery.obj
 0001:0007d2d0       __unwindfunclet$??1?$_Vector_val@PBVBrx@OpenHome@@V?$allocator@PBVBrx@OpenHome@@@std@@@std@@QAE@XZ$0 0047e2d0 f   libohNetCore:Discovery.obj
 0001:0007d2d8       __ehhandler$??1?$_Vector_val@PBVBrx@OpenHome@@V?$allocator@PBVBrx@OpenHome@@@std@@@std@@QAE@XZ 0047e2d8 f   libohNetCore:Discovery.obj
 0001:0007d300       __unwindfunclet$?_Make_iter@?$vector@PAVNotifyHandler@SsdpListenerMulticast@Net@OpenHome@@V?$allocator@PAVNotifyHandler@SsdpListenerMulticast@Net@OpenHome@@@std@@@std@@QBE?AV?$_Vector_iterator@V?$_Vector_val@PAVNotifyHandler@SsdpListenerMulticast@Net@OpenHome@@V?$allocator@PAVNotifyHandler@SsdpListenerMulticast@Net@OpenHome@@@std@@@std@@@2@V?$_Vector_const_iterator@V?$_Vector_val@PAVNotifyHandler@SsdpListenerMulticast@Net@OpenHome@@V?$allocator@PAVNotifyHandler@SsdpListenerMulticast@Net@OpenHome@@@std@@@std@@@2@@Z$0 0047e300 f   libohNetCore:Discovery.obj
 0001:0007d308       __unwindfunclet$?_Make_iter@?$vector@PAVNotifyHandler@SsdpListenerMulticast@Net@OpenHome@@V?$allocator@PAVNotifyHandler@SsdpListenerMulticast@Net@OpenHome@@@std@@@std@@QBE?AV?$_Vector_iterator@V?$_Vector_val@PAVNotifyHandler@SsdpListenerMulticast@Net@OpenHome@@V?$allocator@PAVNotifyHandler@SsdpListenerMulticast@Net@OpenHome@@@std@@@std@@@2@V?$_Vector_const_iterator@V?$_Vector_val@PAVNotifyHandler@SsdpListenerMulticast@Net@OpenHome@@V?$allocator@PAVNotifyHandler@SsdpListenerMulticast@Net@OpenHome@@@std@@@std@@@2@@Z$1 0047e308 f   libohNetCore:Discovery.obj
 0001:0007d321       __ehhandler$?_Make_iter@?$vector@PAVNotifyHandler@SsdpListenerMulticast@Net@OpenHome@@V?$allocator@PAVNotifyHandler@SsdpListenerMulticast@Net@OpenHome@@@std@@@std@@QBE?AV?$_Vector_iterator@V?$_Vector_val@PAVNotifyHandler@SsdpListenerMulticast@Net@OpenHome@@V?$allocator@PAVNotifyHandler@SsdpListenerMulticast@Net@OpenHome@@@std@@@std@@@2@V?$_Vector_const_iterator@V?$_Vector_val@PAVNotifyHandler@SsdpListenerMulticast@Net@OpenHome@@V?$allocator@PAVNotifyHandler@SsdpListenerMulticast@Net@OpenHome@@@std@@@std@@@2@@Z 0047e321 f   libohNetCore:Discovery.obj
 0001:0007d340       __unwindfunclet$?_Orphan_range@?$vector@PAVNotifyHandler@SsdpListenerMulticast@Net@OpenHome@@V?$allocator@PAVNotifyHandler@SsdpListenerMulticast@Net@OpenHome@@@std@@@std@@IBEXPAPAVNotifyHandler@SsdpListenerMulticast@Net@OpenHome@@0@Z$0 0047e340 f   libohNetCore:Discovery.obj
 0001:0007d348       __ehhandler$?_Orphan_range@?$vector@PAVNotifyHandler@SsdpListenerMulticast@Net@OpenHome@@V?$allocator@PAVNotifyHandler@SsdpListenerMulticast@Net@OpenHome@@@std@@@std@@IBEXPAPAVNotifyHandler@SsdpListenerMulticast@Net@OpenHome@@0@Z 0047e348 f   libohNetCore:Discovery.obj
 0001:0007d370       __unwindfunclet$??0?$_Vector_val@PAVNotifyHandler@SsdpListenerMulticast@Net@OpenHome@@V?$allocator@PAVNotifyHandler@SsdpListenerMulticast@Net@OpenHome@@@std@@@std@@QAE@V?$allocator@PAVNotifyHandler@SsdpListenerMulticast@Net@OpenHome@@@1@@Z$0 0047e370 f   libohNetCore:Discovery.obj
 0001:0007d378       __ehhandler$??0?$_Vector_val@PAVNotifyHandler@SsdpListenerMulticast@Net@OpenHome@@V?$allocator@PAVNotifyHandler@SsdpListenerMulticast@Net@OpenHome@@@std@@@std@@QAE@V?$allocator@PAVNotifyHandler@SsdpListenerMulticast@Net@OpenHome@@@1@@Z 0047e378 f   libohNetCore:Discovery.obj
 0001:0007d3a0       __unwindfunclet$??1?$_Vector_val@PAVNotifyHandler@SsdpListenerMulticast@Net@OpenHome@@V?$allocator@PAVNotifyHandler@SsdpListenerMulticast@Net@OpenHome@@@std@@@std@@QAE@XZ$0 0047e3a0 f   libohNetCore:Discovery.obj
 0001:0007d3a8       __ehhandler$??1?$_Vector_val@PAVNotifyHandler@SsdpListenerMulticast@Net@OpenHome@@V?$allocator@PAVNotifyHandler@SsdpListenerMulticast@Net@OpenHome@@@std@@@std@@QAE@XZ 0047e3a8 f   libohNetCore:Discovery.obj
 0001:0007d3d0       __unwindfunclet$?_Make_iter@?$vector@PAVMsearchHandler@SsdpListenerMulticast@Net@OpenHome@@V?$allocator@PAVMsearchHandler@SsdpListenerMulticast@Net@OpenHome@@@std@@@std@@QBE?AV?$_Vector_iterator@V?$_Vector_val@PAVMsearchHandler@SsdpListenerMulticast@Net@OpenHome@@V?$allocator@PAVMsearchHandler@SsdpListenerMulticast@Net@OpenHome@@@std@@@std@@@2@V?$_Vector_const_iterator@V?$_Vector_val@PAVMsearchHandler@SsdpListenerMulticast@Net@OpenHome@@V?$allocator@PAVMsearchHandler@SsdpListenerMulticast@Net@OpenHome@@@std@@@std@@@2@@Z$0 0047e3d0 f   libohNetCore:Discovery.obj
 0001:0007d3d8       __unwindfunclet$?_Make_iter@?$vector@PAVMsearchHandler@SsdpListenerMulticast@Net@OpenHome@@V?$allocator@PAVMsearchHandler@SsdpListenerMulticast@Net@OpenHome@@@std@@@std@@QBE?AV?$_Vector_iterator@V?$_Vector_val@PAVMsearchHandler@SsdpListenerMulticast@Net@OpenHome@@V?$allocator@PAVMsearchHandler@SsdpListenerMulticast@Net@OpenHome@@@std@@@std@@@2@V?$_Vector_const_iterator@V?$_Vector_val@PAVMsearchHandler@SsdpListenerMulticast@Net@OpenHome@@V?$allocator@PAVMsearchHandler@SsdpListenerMulticast@Net@OpenHome@@@std@@@std@@@2@@Z$1 0047e3d8 f   libohNetCore:Discovery.obj
 0001:0007d3f1       __ehhandler$?_Make_iter@?$vector@PAVMsearchHandler@SsdpListenerMulticast@Net@OpenHome@@V?$allocator@PAVMsearchHandler@SsdpListenerMulticast@Net@OpenHome@@@std@@@std@@QBE?AV?$_Vector_iterator@V?$_Vector_val@PAVMsearchHandler@SsdpListenerMulticast@Net@OpenHome@@V?$allocator@PAVMsearchHandler@SsdpListenerMulticast@Net@OpenHome@@@std@@@std@@@2@V?$_Vector_const_iterator@V?$_Vector_val@PAVMsearchHandler@SsdpListenerMulticast@Net@OpenHome@@V?$allocator@PAVMsearchHandler@SsdpListenerMulticast@Net@OpenHome@@@std@@@std@@@2@@Z 0047e3f1 f   libohNetCore:Discovery.obj
 0001:0007d410       __unwindfunclet$?_Orphan_range@?$vector@PAVMsearchHandler@SsdpListenerMulticast@Net@OpenHome@@V?$allocator@PAVMsearchHandler@SsdpListenerMulticast@Net@OpenHome@@@std@@@std@@IBEXPAPAVMsearchHandler@SsdpListenerMulticast@Net@OpenHome@@0@Z$0 0047e410 f   libohNetCore:Discovery.obj
 0001:0007d418       __ehhandler$?_Orphan_range@?$vector@PAVMsearchHandler@SsdpListenerMulticast@Net@OpenHome@@V?$allocator@PAVMsearchHandler@SsdpListenerMulticast@Net@OpenHome@@@std@@@std@@IBEXPAPAVMsearchHandler@SsdpListenerMulticast@Net@OpenHome@@0@Z 0047e418 f   libohNetCore:Discovery.obj
 0001:0007d440       __unwindfunclet$??0?$_Vector_val@PAVMsearchHandler@SsdpListenerMulticast@Net@OpenHome@@V?$allocator@PAVMsearchHandler@SsdpListenerMulticast@Net@OpenHome@@@std@@@std@@QAE@V?$allocator@PAVMsearchHandler@SsdpListenerMulticast@Net@OpenHome@@@1@@Z$0 0047e440 f   libohNetCore:Discovery.obj
 0001:0007d448       __ehhandler$??0?$_Vector_val@PAVMsearchHandler@SsdpListenerMulticast@Net@OpenHome@@V?$allocator@PAVMsearchHandler@SsdpListenerMulticast@Net@OpenHome@@@std@@@std@@QAE@V?$allocator@PAVMsearchHandler@SsdpListenerMulticast@Net@OpenHome@@@1@@Z 0047e448 f   libohNetCore:Discovery.obj
 0001:0007d470       __unwindfunclet$??1?$_Vector_val@PAVMsearchHandler@SsdpListenerMulticast@Net@OpenHome@@V?$allocator@PAVMsearchHandler@SsdpListenerMulticast@Net@OpenHome@@@std@@@std@@QAE@XZ$0 0047e470 f   libohNetCore:Discovery.obj
 0001:0007d478       __ehhandler$??1?$_Vector_val@PAVMsearchHandler@SsdpListenerMulticast@Net@OpenHome@@V?$allocator@PAVMsearchHandler@SsdpListenerMulticast@Net@OpenHome@@@std@@@std@@QAE@XZ 0047e478 f   libohNetCore:Discovery.obj
 0001:0007d4a0       __ehhandler$?reserve@?$vector@PAVNotifyHandler@SsdpListenerMulticast@Net@OpenHome@@V?$allocator@PAVNotifyHandler@SsdpListenerMulticast@Net@OpenHome@@@std@@@std@@QAEXI@Z 0047e4a0 f   libohNetCore:Discovery.obj
 0001:0007d4c0       __ehhandler$?reserve@?$vector@PAVMsearchHandler@SsdpListenerMulticast@Net@OpenHome@@V?$allocator@PAVMsearchHandler@SsdpListenerMulticast@Net@OpenHome@@@std@@@std@@QAEXI@Z 0047e4c0 f   libohNetCore:Discovery.obj
 0001:0007d4e0       __unwindfunclet$??0?$_Vector_const_iterator@V?$_Vector_val@PAVNotifyHandler@SsdpListenerMulticast@Net@OpenHome@@V?$allocator@PAVNotifyHandler@SsdpListenerMulticast@Net@OpenHome@@@std@@@std@@@std@@QAE@PAPAVNotifyHandler@SsdpListenerMulticast@Net@OpenHome@@PBU_Container_base12@1@@Z$0 0047e4e0 f   libohNetCore:Discovery.obj
 0001:0007d4e8       __ehhandler$??0?$_Vector_const_iterator@V?$_Vector_val@PAVNotifyHandler@SsdpListenerMulticast@Net@OpenHome@@V?$allocator@PAVNotifyHandler@SsdpListenerMulticast@Net@OpenHome@@@std@@@std@@@std@@QAE@PAPAVNotifyHandler@SsdpListenerMulticast@Net@OpenHome@@PBU_Container_base12@1@@Z 0047e4e8 f   libohNetCore:Discovery.obj
 0001:0007d510       __unwindfunclet$??0?$_Vector_const_iterator@V?$_Vector_val@PAVMsearchHandler@SsdpListenerMulticast@Net@OpenHome@@V?$allocator@PAVMsearchHandler@SsdpListenerMulticast@Net@OpenHome@@@std@@@std@@@std@@QAE@PAPAVMsearchHandler@SsdpListenerMulticast@Net@OpenHome@@PBU_Container_base12@1@@Z$0 0047e510 f   libohNetCore:Discovery.obj
 0001:0007d518       __ehhandler$??0?$_Vector_const_iterator@V?$_Vector_val@PAVMsearchHandler@SsdpListenerMulticast@Net@OpenHome@@V?$allocator@PAVMsearchHandler@SsdpListenerMulticast@Net@OpenHome@@@std@@@std@@@std@@QAE@PAPAVMsearchHandler@SsdpListenerMulticast@Net@OpenHome@@PBU_Container_base12@1@@Z 0047e518 f   libohNetCore:Discovery.obj
 0001:0007d540       __unwindfunclet$??$construct@AAPAVNotifyHandler@SsdpListenerMulticast@Net@OpenHome@@@?$allocator@PAVNotifyHandler@SsdpListenerMulticast@Net@OpenHome@@@std@@QAEXPAPAVNotifyHandler@SsdpListenerMulticast@Net@OpenHome@@AAPAV2345@@Z$0 0047e540 f   libohNetCore:Discovery.obj
 0001:0007d551       __ehhandler$??$construct@AAPAVNotifyHandler@SsdpListenerMulticast@Net@OpenHome@@@?$allocator@PAVNotifyHandler@SsdpListenerMulticast@Net@OpenHome@@@std@@QAEXPAPAVNotifyHandler@SsdpListenerMulticast@Net@OpenHome@@AAPAV2345@@Z 0047e551 f   libohNetCore:Discovery.obj
 0001:0007d570       __unwindfunclet$??$construct@AAPAVMsearchHandler@SsdpListenerMulticast@Net@OpenHome@@@?$allocator@PAVMsearchHandler@SsdpListenerMulticast@Net@OpenHome@@@std@@QAEXPAPAVMsearchHandler@SsdpListenerMulticast@Net@OpenHome@@AAPAV2345@@Z$0 0047e570 f   libohNetCore:Discovery.obj
 0001:0007d581       __ehhandler$??$construct@AAPAVMsearchHandler@SsdpListenerMulticast@Net@OpenHome@@@?$allocator@PAVMsearchHandler@SsdpListenerMulticast@Net@OpenHome@@@std@@QAEXPAPAVMsearchHandler@SsdpListenerMulticast@Net@OpenHome@@AAPAV2345@@Z 0047e581 f   libohNetCore:Discovery.obj
 0001:0007d5a0       __unwindfunclet$??$_Construct@PAVNotifyHandler@SsdpListenerMulticast@Net@OpenHome@@ABQAV1234@@std@@YGXPAPAVNotifyHandler@SsdpListenerMulticast@Net@OpenHome@@ABQAV1234@@Z$0 0047e5a0 f   libohNetCore:Discovery.obj
 0001:0007d5b1       __ehhandler$??$_Construct@PAVNotifyHandler@SsdpListenerMulticast@Net@OpenHome@@ABQAV1234@@std@@YGXPAPAVNotifyHandler@SsdpListenerMulticast@Net@OpenHome@@ABQAV1234@@Z 0047e5b1 f   libohNetCore:Discovery.obj
 0001:0007d5d0       __unwindfunclet$??$_Construct@PAVMsearchHandler@SsdpListenerMulticast@Net@OpenHome@@ABQAV1234@@std@@YGXPAPAVMsearchHandler@SsdpListenerMulticast@Net@OpenHome@@ABQAV1234@@Z$0 0047e5d0 f   libohNetCore:Discovery.obj
 0001:0007d5e1       __ehhandler$??$_Construct@PAVMsearchHandler@SsdpListenerMulticast@Net@OpenHome@@ABQAV1234@@std@@YGXPAPAVMsearchHandler@SsdpListenerMulticast@Net@OpenHome@@ABQAV1234@@Z 0047e5e1 f   libohNetCore:Discovery.obj
 0001:0007d600       __unwindfunclet$?GetPlatformNameAndVersion@Os@OpenHome@@SG?AVBrn@2@AAI0@Z$0 0047e600 f   libohNetCore:OsWrapper.obj
 0001:0007d608       __unwindfunclet$?GetPlatformNameAndVersion@Os@OpenHome@@SG?AVBrn@2@AAI0@Z$1 0047e608 f   libohNetCore:OsWrapper.obj
 0001:0007d621       __ehhandler$?GetPlatformNameAndVersion@Os@OpenHome@@SG?AVBrn@2@AAI0@Z 0047e621 f   libohNetCore:OsWrapper.obj
 0001:0007d63c       __unwindfunclet$?NetworkCreate@Os@OpenHome@@SGPAXW4ESocketType@2@@Z$0 0047e63c f   libohNetCore:OsWrapper.obj
 0001:0007d644       __ehhandler$?NetworkCreate@Os@OpenHome@@SGPAXW4ESocketType@2@@Z 0047e644 f   libohNetCore:OsWrapper.obj
 0001:0007d65f       __unwindfunclet$?NetworkGetHostByName@Os@OpenHome@@SGIABVBrx@2@@Z$0 0047e65f f   libohNetCore:OsWrapper.obj
 0001:0007d667       __ehhandler$?NetworkGetHostByName@Os@OpenHome@@SGIABVBrx@2@@Z 0047e667 f   libohNetCore:OsWrapper.obj
 0001:0007d682       __unwindfunclet$?NetworkConnect@Os@OpenHome@@SGXPAXABVEndpoint@2@I@Z$0 0047e682 f   libohNetCore:OsWrapper.obj
 0001:0007d68a       __ehhandler$?NetworkConnect@Os@OpenHome@@SGXPAXABVEndpoint@2@I@Z 0047e68a f   libohNetCore:OsWrapper.obj
 0001:0007d6a5       __unwindfunclet$?NetworkSocketSetSendBufBytes@Os@OpenHome@@SGXPAXI@Z$0 0047e6a5 f   libohNetCore:OsWrapper.obj
 0001:0007d6ad       __ehhandler$?NetworkSocketSetSendBufBytes@Os@OpenHome@@SGXPAXI@Z 0047e6ad f   libohNetCore:OsWrapper.obj
 0001:0007d6c8       __unwindfunclet$?NetworkSocketSetRecvBufBytes@Os@OpenHome@@SGXPAXI@Z$0 0047e6c8 f   libohNetCore:OsWrapper.obj
 0001:0007d6d0       __ehhandler$?NetworkSocketSetRecvBufBytes@Os@OpenHome@@SGXPAXI@Z 0047e6d0 f   libohNetCore:OsWrapper.obj
 0001:0007d6eb       __unwindfunclet$?NetworkSocketSetReceiveTimeout@Os@OpenHome@@SGXPAXI@Z$0 0047e6eb f   libohNetCore:OsWrapper.obj
 0001:0007d6f3       __ehhandler$?NetworkSocketSetReceiveTimeout@Os@OpenHome@@SGXPAXI@Z 0047e6f3 f   libohNetCore:OsWrapper.obj
 0001:0007d70e       __unwindfunclet$?NetworkTcpSetNoDelay@Os@OpenHome@@SGXPAX@Z$0 0047e70e f   libohNetCore:OsWrapper.obj
 0001:0007d716       __ehhandler$?NetworkTcpSetNoDelay@Os@OpenHome@@SGXPAX@Z 0047e716 f   libohNetCore:OsWrapper.obj
 0001:0007d731       __unwindfunclet$?NetworkSocketSetReuseAddress@Os@OpenHome@@SGXPAX@Z$0 0047e731 f   libohNetCore:OsWrapper.obj
 0001:0007d739       __ehhandler$?NetworkSocketSetReuseAddress@Os@OpenHome@@SGXPAX@Z 0047e739 f   libohNetCore:OsWrapper.obj
 0001:0007d754       __unwindfunclet$?NetworkSocketSetMulticastTtl@Os@OpenHome@@SGXPAXE@Z$0 0047e754 f   libohNetCore:OsWrapper.obj
 0001:0007d75c       __ehhandler$?NetworkSocketSetMulticastTtl@Os@OpenHome@@SGXPAXE@Z 0047e75c f   libohNetCore:OsWrapper.obj
 0001:0007d777       __unwindfunclet$?NetworkSocketMulticastAddMembership@Os@OpenHome@@SGXPAXII@Z$0 0047e777 f   libohNetCore:OsWrapper.obj
 0001:0007d77f       __ehhandler$?NetworkSocketMulticastAddMembership@Os@OpenHome@@SGXPAXII@Z 0047e77f f   libohNetCore:OsWrapper.obj
 0001:0007d79a       __unwindfunclet$?NetworkSocketMulticastDropMembership@Os@OpenHome@@SGXPAXII@Z$0 0047e79a f   libohNetCore:OsWrapper.obj
 0001:0007d7a2       __ehhandler$?NetworkSocketMulticastDropMembership@Os@OpenHome@@SGXPAXII@Z 0047e7a2 f   libohNetCore:OsWrapper.obj
 0001:0007d7bd       __unwindfunclet$?NetworkListAdapters@Os@OpenHome@@SGPAV?$vector@PAVNetworkAdapter@OpenHome@@V?$allocator@PAVNetworkAdapter@OpenHome@@@std@@@std@@_N@Z$0 0047e7bd f   libohNetCore:OsWrapper.obj
 0001:0007d7c5       __unwindfunclet$?NetworkListAdapters@Os@OpenHome@@SGPAV?$vector@PAVNetworkAdapter@OpenHome@@V?$allocator@PAVNetworkAdapter@OpenHome@@@std@@@std@@_N@Z$1 0047e7c5 f   libohNetCore:OsWrapper.obj
 0001:0007d7d0       __unwindfunclet$?NetworkListAdapters@Os@OpenHome@@SGPAV?$vector@PAVNetworkAdapter@OpenHome@@V?$allocator@PAVNetworkAdapter@OpenHome@@@std@@@std@@_N@Z$2 0047e7d0 f   libohNetCore:OsWrapper.obj
 0001:0007d7db       __ehhandler$?NetworkListAdapters@Os@OpenHome@@SGPAV?$vector@PAVNetworkAdapter@OpenHome@@V?$allocator@PAVNetworkAdapter@OpenHome@@@std@@@std@@_N@Z 0047e7db f   libohNetCore:OsWrapper.obj
 0001:0007d800       __unwindfunclet$?RemoveTheFromStart@Ascii@OpenHome@@SG_NABVBrx@2@AAVBwx@2@@Z$0 0047e800 f   libohNetCore:Ascii.obj
 0001:0007d808       __unwindfunclet$?RemoveTheFromStart@Ascii@OpenHome@@SG_NABVBrx@2@AAVBwx@2@@Z$1 0047e808 f   libohNetCore:Ascii.obj
 0001:0007d810       __unwindfunclet$?RemoveTheFromStart@Ascii@OpenHome@@SG_NABVBrx@2@AAVBwx@2@@Z$2 0047e810 f   libohNetCore:Ascii.obj
 0001:0007d818       __ehhandler$?RemoveTheFromStart@Ascii@OpenHome@@SG_NABVBrx@2@AAVBwx@2@@Z 0047e818 f   libohNetCore:Ascii.obj
 0001:0007d833       __unwindfunclet$?HexChar@Ascii@OpenHome@@SGDI@Z$0 0047e833 f   libohNetCore:Ascii.obj
 0001:0007d83b       __ehhandler$?HexChar@Ascii@OpenHome@@SGDI@Z 0047e83b f   libohNetCore:Ascii.obj
 0001:0007d856       __unwindfunclet$?HexValue@Ascii@OpenHome@@SGID@Z$0 0047e856 f   libohNetCore:Ascii.obj
 0001:0007d85e       __ehhandler$?HexValue@Ascii@OpenHome@@SGID@Z 0047e85e f   libohNetCore:Ascii.obj
 0001:0007d879       __unwindfunclet$?DecChar@Ascii@OpenHome@@SGDI@Z$0 0047e879 f   libohNetCore:Ascii.obj
 0001:0007d881       __ehhandler$?DecChar@Ascii@OpenHome@@SGDI@Z 0047e881 f   libohNetCore:Ascii.obj
 0001:0007d89c       __unwindfunclet$?DecValue@Ascii@OpenHome@@SGID@Z$0 0047e89c f   libohNetCore:Ascii.obj
 0001:0007d8a4       __ehhandler$?DecValue@Ascii@OpenHome@@SGID@Z 0047e8a4 f   libohNetCore:Ascii.obj
 0001:0007d8bf       __unwindfunclet$?AppendDec@Ascii@OpenHome@@SGIAAVBwx@2@H@Z$0 0047e8bf f   libohNetCore:Ascii.obj
 0001:0007d8c7       __ehhandler$?AppendDec@Ascii@OpenHome@@SGIAAVBwx@2@H@Z 0047e8c7 f   libohNetCore:Ascii.obj
 0001:0007d8ec       __unwindfunclet$?AppendDec@Ascii@OpenHome@@SGIAAVBwx@2@I@Z$0 0047e8ec f   libohNetCore:Ascii.obj
 0001:0007d8f4       __ehhandler$?AppendDec@Ascii@OpenHome@@SGIAAVBwx@2@I@Z 0047e8f4 f   libohNetCore:Ascii.obj
 0001:0007d919       __unwindfunclet$?AppendDec@Ascii@OpenHome@@SGIAAVBwx@2@_J@Z$0 0047e919 f   libohNetCore:Ascii.obj
 0001:0007d921       __ehhandler$?AppendDec@Ascii@OpenHome@@SGIAAVBwx@2@_J@Z 0047e921 f   libohNetCore:Ascii.obj
 0001:0007d946       __unwindfunclet$?AppendDec@Ascii@OpenHome@@SGIAAVBwx@2@_K@Z$0 0047e946 f   libohNetCore:Ascii.obj
 0001:0007d94e       __ehhandler$?AppendDec@Ascii@OpenHome@@SGIAAVBwx@2@_K@Z 0047e94e f   libohNetCore:Ascii.obj
 0001:0007d973       __unwindfunclet$?Int@Ascii@OpenHome@@SGHABVBrx@2@@Z$0 0047e973 f   libohNetCore:Ascii.obj
 0001:0007d97b       __unwindfunclet$?Int@Ascii@OpenHome@@SGHABVBrx@2@@Z$1 0047e97b f   libohNetCore:Ascii.obj
 0001:0007d983       __unwindfunclet$?Int@Ascii@OpenHome@@SGHABVBrx@2@@Z$2 0047e983 f   libohNetCore:Ascii.obj
 0001:0007d98b       __unwindfunclet$?Int@Ascii@OpenHome@@SGHABVBrx@2@@Z$3 0047e98b f   libohNetCore:Ascii.obj
 0001:0007d993       __ehhandler$?Int@Ascii@OpenHome@@SGHABVBrx@2@@Z 0047e993 f   libohNetCore:Ascii.obj
 0001:0007d9b1       __unwindfunclet$?Uint@Ascii@OpenHome@@SGIABVBrx@2@@Z$0 0047e9b1 f   libohNetCore:Ascii.obj
 0001:0007d9b9       __unwindfunclet$?Uint@Ascii@OpenHome@@SGIABVBrx@2@@Z$1 0047e9b9 f   libohNetCore:Ascii.obj
 0001:0007d9c1       __unwindfunclet$?Uint@Ascii@OpenHome@@SGIABVBrx@2@@Z$2 0047e9c1 f   libohNetCore:Ascii.obj
 0001:0007d9c9       __ehhandler$?Uint@Ascii@OpenHome@@SGIABVBrx@2@@Z 0047e9c9 f   libohNetCore:Ascii.obj
 0001:0007d9e4       __unwindfunclet$?Int64@Ascii@OpenHome@@SG_JABVBrx@2@@Z$0 0047e9e4 f   libohNetCore:Ascii.obj
 0001:0007d9ec       __unwindfunclet$?Int64@Ascii@OpenHome@@SG_JABVBrx@2@@Z$1 0047e9ec f   libohNetCore:Ascii.obj
 0001:0007d9f4       __unwindfunclet$?Int64@Ascii@OpenHome@@SG_JABVBrx@2@@Z$2 0047e9f4 f   libohNetCore:Ascii.obj
 0001:0007d9fc       __unwindfunclet$?Int64@Ascii@OpenHome@@SG_JABVBrx@2@@Z$3 0047e9fc f   libohNetCore:Ascii.obj
 0001:0007da04       __ehhandler$?Int64@Ascii@OpenHome@@SG_JABVBrx@2@@Z 0047ea04 f   libohNetCore:Ascii.obj
 0001:0007da22       __unwindfunclet$?Uint64@Ascii@OpenHome@@SG_KABVBrx@2@@Z$0 0047ea22 f   libohNetCore:Ascii.obj
 0001:0007da2a       __unwindfunclet$?Uint64@Ascii@OpenHome@@SG_KABVBrx@2@@Z$1 0047ea2a f   libohNetCore:Ascii.obj
 0001:0007da32       __unwindfunclet$?Uint64@Ascii@OpenHome@@SG_KABVBrx@2@@Z$2 0047ea32 f   libohNetCore:Ascii.obj
 0001:0007da3a       __ehhandler$?Uint64@Ascii@OpenHome@@SG_KABVBrx@2@@Z 0047ea3a f   libohNetCore:Ascii.obj
 0001:0007da55       __unwindfunclet$?UintHex@Ascii@OpenHome@@SGIABVBrx@2@@Z$0 0047ea55 f   libohNetCore:Ascii.obj
 0001:0007da5d       __unwindfunclet$?UintHex@Ascii@OpenHome@@SGIABVBrx@2@@Z$1 0047ea5d f   libohNetCore:Ascii.obj
 0001:0007da65       __unwindfunclet$?UintHex@Ascii@OpenHome@@SGIABVBrx@2@@Z$2 0047ea65 f   libohNetCore:Ascii.obj
 0001:0007da6d       __ehhandler$?UintHex@Ascii@OpenHome@@SGIABVBrx@2@@Z 0047ea6d f   libohNetCore:Ascii.obj
 0001:0007da88       __unwindfunclet$??0ReaderAscii@OpenHome@@QAE@AAVIReader@1@@Z$0 0047ea88 f   libohNetCore:Ascii.obj
 0001:0007da90       __ehhandler$??0ReaderAscii@OpenHome@@QAE@AAVIReader@1@@Z 0047ea90 f   libohNetCore:Ascii.obj
 0001:0007daab       __unwindfunclet$?ReadInt@ReaderAscii@OpenHome@@QAEHE@Z$0 0047eaab f   libohNetCore:Ascii.obj
 0001:0007dab3       __ehhandler$?ReadInt@ReaderAscii@OpenHome@@QAEHE@Z 0047eab3 f   libohNetCore:Ascii.obj
 0001:0007dace       __unwindfunclet$?ReadUint@ReaderAscii@OpenHome@@QAEIE@Z$0 0047eace f   libohNetCore:Ascii.obj
 0001:0007dad6       __ehhandler$?ReadUint@ReaderAscii@OpenHome@@QAEIE@Z 0047ead6 f   libohNetCore:Ascii.obj
 0001:0007daf1       __unwindfunclet$??0WriterAscii@OpenHome@@QAE@AAVIWriter@1@@Z$0 0047eaf1 f   libohNetCore:Ascii.obj
 0001:0007daf9       __ehhandler$??0WriterAscii@OpenHome@@QAE@AAVIWriter@1@@Z 0047eaf9 f   libohNetCore:Ascii.obj
 0001:0007db14       __unwindfunclet$?WriteInt@WriterAscii@OpenHome@@UAEXH@Z$0 0047eb14 f   libohNetCore:Ascii.obj
 0001:0007db1c       __ehhandler$?WriteInt@WriterAscii@OpenHome@@UAEXH@Z 0047eb1c f   libohNetCore:Ascii.obj
 0001:0007db41       __unwindfunclet$?WriteIntPadded@WriterAscii@OpenHome@@UAEXH@Z$0 0047eb41 f   libohNetCore:Ascii.obj
 0001:0007db49       __ehhandler$?WriteIntPadded@WriterAscii@OpenHome@@UAEXH@Z 0047eb49 f   libohNetCore:Ascii.obj
 0001:0007db6e       __unwindfunclet$?WriteUint@WriterAscii@OpenHome@@UAEXI@Z$0 0047eb6e f   libohNetCore:Ascii.obj
 0001:0007db76       __ehhandler$?WriteUint@WriterAscii@OpenHome@@UAEXI@Z 0047eb76 f   libohNetCore:Ascii.obj
 0001:0007db9b       __unwindfunclet$?WriteUintPadded@WriterAscii@OpenHome@@UAEXI@Z$0 0047eb9b f   libohNetCore:Ascii.obj
 0001:0007dba3       __ehhandler$?WriteUintPadded@WriterAscii@OpenHome@@UAEXI@Z 0047eba3 f   libohNetCore:Ascii.obj
 0001:0007dbc8       __unwindfunclet$?WriteInt64@WriterAscii@OpenHome@@UAEX_J@Z$0 0047ebc8 f   libohNetCore:Ascii.obj
 0001:0007dbd0       __ehhandler$?WriteInt64@WriterAscii@OpenHome@@UAEX_J@Z 0047ebd0 f   libohNetCore:Ascii.obj
 0001:0007dbf5       __unwindfunclet$?WriteUint64@WriterAscii@OpenHome@@UAEX_K@Z$0 0047ebf5 f   libohNetCore:Ascii.obj
 0001:0007dbfd       __ehhandler$?WriteUint64@WriterAscii@OpenHome@@UAEX_K@Z 0047ebfd f   libohNetCore:Ascii.obj
 0001:0007dc22       __unwindfunclet$?WriteHex@WriterAscii@OpenHome@@UAEXI@Z$0 0047ec22 f   libohNetCore:Ascii.obj
 0001:0007dc2a       __ehhandler$?WriteHex@WriterAscii@OpenHome@@UAEXI@Z 0047ec2a f   libohNetCore:Ascii.obj
 0001:0007dc4f       __unwindfunclet$?WriteHex@WriterAscii@OpenHome@@UAEXE@Z$0 0047ec4f f   libohNetCore:Ascii.obj
 0001:0007dc57       __ehhandler$?WriteHex@WriterAscii@OpenHome@@UAEXE@Z 0047ec57 f   libohNetCore:Ascii.obj
 0001:0007dc7c       __unwindfunclet$?StreamWriteUint@Ascii@OpenHome@@SGXAAVIWriter@2@I@Z$0 0047ec7c f   libohNetCore:Ascii.obj
 0001:0007dc84       __ehhandler$?StreamWriteUint@Ascii@OpenHome@@SGXAAVIWriter@2@I@Z 0047ec84 f   libohNetCore:Ascii.obj
 0001:0007dca9       __unwindfunclet$?StreamWriteInt@Ascii@OpenHome@@SGXAAVIWriter@2@H@Z$0 0047eca9 f   libohNetCore:Ascii.obj
 0001:0007dcb1       __ehhandler$?StreamWriteInt@Ascii@OpenHome@@SGXAAVIWriter@2@H@Z 0047ecb1 f   libohNetCore:Ascii.obj
 0001:0007dce0       __unwindfunclet$?Version@Http@OpenHome@@SG?AW4EVersion@12@ABVBrx@2@@Z$0 0047ece0 f   libohNetCore:Http.obj
 0001:0007dce8       __ehhandler$?Version@Http@OpenHome@@SG?AW4EVersion@12@ABVBrx@2@@Z 0047ece8 f   libohNetCore:Http.obj
 0001:0007dd03       __unwindfunclet$?WriteHeaderRangeFirstOnly@Http@OpenHome@@SGXAAVWriterHttpHeader@2@_K@Z$0 0047ed03 f   libohNetCore:Http.obj
 0001:0007dd0b       __ehhandler$?WriteHeaderRangeFirstOnly@Http@OpenHome@@SGXAAVWriterHttpHeader@2@_K@Z 0047ed0b f   libohNetCore:Http.obj
 0001:0007dd30       __unwindfunclet$?WriteHeaderRange@Http@OpenHome@@SGXAAVWriterHttpHeader@2@_K1@Z$0 0047ed30 f   libohNetCore:Http.obj
 0001:0007dd38       __ehhandler$?WriteHeaderRange@Http@OpenHome@@SGXAAVWriterHttpHeader@2@_K1@Z 0047ed38 f   libohNetCore:Http.obj
 0001:0007dd5d       __unwindfunclet$?WriteHeaderContentLength@Http@OpenHome@@SGXAAVWriterHttpHeader@2@I@Z$0 0047ed5d f   libohNetCore:Http.obj
 0001:0007dd65       __ehhandler$?WriteHeaderContentLength@Http@OpenHome@@SGXAAVWriterHttpHeader@2@I@Z 0047ed65 f   libohNetCore:Http.obj
 0001:0007dd8a       __unwindfunclet$??0HttpStatus@OpenHome@@IAE@IVBrn@1@@Z$0 0047ed8a f   libohNetCore:Http.obj
 0001:0007dd92       __ehhandler$??0HttpStatus@OpenHome@@IAE@IVBrn@1@@Z 0047ed92 f   libohNetCore:Http.obj
 0001:0007ddad       __unwindfunclet$??0ReaderHttpRequest@OpenHome@@QAE@AAVIReader@1@@Z$0 0047edad f   libohNetCore:Http.obj
 0001:0007ddb5       __unwindfunclet$??0ReaderHttpRequest@OpenHome@@QAE@AAVIReader@1@@Z$1 0047edb5 f   libohNetCore:Http.obj
 0001:0007ddc0       __ehhandler$??0ReaderHttpRequest@OpenHome@@QAE@AAVIReader@1@@Z 0047edc0 f   libohNetCore:Http.obj
 0001:0007dddb       __unwindfunclet$?Read@ReaderHttpRequest@OpenHome@@QAEXXZ$0 0047eddb f   libohNetCore:Http.obj
 0001:0007dde3       __unwindfunclet$?Read@ReaderHttpRequest@OpenHome@@QAEXXZ$1 0047ede3 f   libohNetCore:Http.obj
 0001:0007ddee       __unwindfunclet$?Read@ReaderHttpRequest@OpenHome@@QAEXXZ$2 0047edee f   libohNetCore:Http.obj
 0001:0007ddf9       __unwindfunclet$?Read@ReaderHttpRequest@OpenHome@@QAEXXZ$3 0047edf9 f   libohNetCore:Http.obj
 0001:0007de04       __unwindfunclet$?Read@ReaderHttpRequest@OpenHome@@QAEXXZ$4 0047ee04 f   libohNetCore:Http.obj
 0001:0007de0c       __unwindfunclet$?Read@ReaderHttpRequest@OpenHome@@QAEXXZ$5 0047ee0c f   libohNetCore:Http.obj
 0001:0007de14       __unwindfunclet$?Read@ReaderHttpRequest@OpenHome@@QAEXXZ$6 0047ee14 f   libohNetCore:Http.obj
 0001:0007de1c       __unwindfunclet$?Read@ReaderHttpRequest@OpenHome@@QAEXXZ$7 0047ee1c f   libohNetCore:Http.obj
 0001:0007de27       __unwindfunclet$?Read@ReaderHttpRequest@OpenHome@@QAEXXZ$8 0047ee27 f   libohNetCore:Http.obj
 0001:0007de2f       __unwindfunclet$?Read@ReaderHttpRequest@OpenHome@@QAEXXZ$9 0047ee2f f   libohNetCore:Http.obj
 0001:0007de3a       __unwindfunclet$?Read@ReaderHttpRequest@OpenHome@@QAEXXZ$10 0047ee3a f   libohNetCore:Http.obj
 0001:0007de45       __unwindfunclet$?Read@ReaderHttpRequest@OpenHome@@QAEXXZ$11 0047ee45 f   libohNetCore:Http.obj
 0001:0007de50       __ehhandler$?Read@ReaderHttpRequest@OpenHome@@QAEXXZ 0047ee50 f   libohNetCore:Http.obj
 0001:0007de6e       __unwindfunclet$?ProcessMethod@ReaderHttpRequest@OpenHome@@IAEXABVBrx@2@00@Z$0 0047ee6e f   libohNetCore:Http.obj
 0001:0007de76       __unwindfunclet$?ProcessMethod@ReaderHttpRequest@OpenHome@@IAEXABVBrx@2@00@Z$1 0047ee76 f   libohNetCore:Http.obj
 0001:0007de7e       __ehhandler$?ProcessMethod@ReaderHttpRequest@OpenHome@@IAEXABVBrx@2@00@Z 0047ee7e f   libohNetCore:Http.obj
 0001:0007de99       __unwindfunclet$??0ReaderHttpResponse@OpenHome@@QAE@AAVIReader@1@@Z$0 0047ee99 f   libohNetCore:Http.obj
 0001:0007dea4       __unwindfunclet$??0ReaderHttpResponse@OpenHome@@QAE@AAVIReader@1@@Z$1 0047eea4 f   libohNetCore:Http.obj
 0001:0007deaf       __ehhandler$??0ReaderHttpResponse@OpenHome@@QAE@AAVIReader@1@@Z 0047eeaf f   libohNetCore:Http.obj
 0001:0007deca       __unwindfunclet$?Read@ReaderHttpResponse@OpenHome@@QAEXXZ$0 0047eeca f   libohNetCore:Http.obj
 0001:0007ded2       __unwindfunclet$?Read@ReaderHttpResponse@OpenHome@@QAEXXZ$1 0047eed2 f   libohNetCore:Http.obj
 0001:0007dedd       __unwindfunclet$?Read@ReaderHttpResponse@OpenHome@@QAEXXZ$2 0047eedd f   libohNetCore:Http.obj
 0001:0007dee8       __unwindfunclet$?Read@ReaderHttpResponse@OpenHome@@QAEXXZ$3 0047eee8 f   libohNetCore:Http.obj
 0001:0007def0       __unwindfunclet$?Read@ReaderHttpResponse@OpenHome@@QAEXXZ$4 0047eef0 f   libohNetCore:Http.obj
 0001:0007def8       __unwindfunclet$?Read@ReaderHttpResponse@OpenHome@@QAEXXZ$5 0047eef8 f   libohNetCore:Http.obj
 0001:0007df00       __unwindfunclet$?Read@ReaderHttpResponse@OpenHome@@QAEXXZ$6 0047ef00 f   libohNetCore:Http.obj
 0001:0007df0b       __unwindfunclet$?Read@ReaderHttpResponse@OpenHome@@QAEXXZ$7 0047ef0b f   libohNetCore:Http.obj
 0001:0007df13       __unwindfunclet$?Read@ReaderHttpResponse@OpenHome@@QAEXXZ$8 0047ef13 f   libohNetCore:Http.obj
 0001:0007df1e       __unwindfunclet$?Read@ReaderHttpResponse@OpenHome@@QAEXXZ$9 0047ef1e f   libohNetCore:Http.obj
 0001:0007df29       __unwindfunclet$?Read@ReaderHttpResponse@OpenHome@@QAEXXZ$10 0047ef29 f   libohNetCore:Http.obj
 0001:0007df34       __ehhandler$?Read@ReaderHttpResponse@OpenHome@@QAEXXZ 0047ef34 f   libohNetCore:Http.obj
 0001:0007df52       __unwindfunclet$?ProcessStatus@ReaderHttpResponse@OpenHome@@MAEXABVBrx@2@00@Z$2 0047ef52 f   libohNetCore:Http.obj
 0001:0007df5a       __unwindfunclet$?ProcessStatus@ReaderHttpResponse@OpenHome@@MAEXABVBrx@2@00@Z$3 0047ef5a f   libohNetCore:Http.obj
 0001:0007df62       __unwindfunclet$?ProcessStatus@ReaderHttpResponse@OpenHome@@MAEXABVBrx@2@00@Z$4 0047ef62 f   libohNetCore:Http.obj
 0001:0007df6a       __ehhandler$?ProcessStatus@ReaderHttpResponse@OpenHome@@MAEXABVBrx@2@00@Z 0047ef6a f   libohNetCore:Http.obj
 0001:0007df85       __unwindfunclet$?Write@WriterHttpField@OpenHome@@UAEXE@Z$0 0047ef85 f   libohNetCore:Http.obj
 0001:0007df8d       __ehhandler$?Write@WriterHttpField@OpenHome@@UAEXE@Z 0047ef8d f   libohNetCore:Http.obj
 0001:0007dfa8       __unwindfunclet$??0WriterHttpHeader@OpenHome@@IAE@AAVIWriter@1@@Z$0 0047efa8 f   libohNetCore:Http.obj
 0001:0007dfb0       __ehhandler$??0WriterHttpHeader@OpenHome@@IAE@AAVIWriter@1@@Z 0047efb0 f   libohNetCore:Http.obj
 0001:0007dfcb       __unwindfunclet$?Process@HttpHeaderHost@OpenHome@@EAEXABVBrx@2@@Z$3 0047efcb f   libohNetCore:Http.obj
 0001:0007dfd3       __unwindfunclet$?Process@HttpHeaderHost@OpenHome@@EAEXABVBrx@2@@Z$4 0047efd3 f   libohNetCore:Http.obj
 0001:0007dfdb       __unwindfunclet$?Process@HttpHeaderHost@OpenHome@@EAEXABVBrx@2@@Z$5 0047efdb f   libohNetCore:Http.obj
 0001:0007dfe3       __unwindfunclet$?Process@HttpHeaderHost@OpenHome@@EAEXABVBrx@2@@Z$6 0047efe3 f   libohNetCore:Http.obj
 0001:0007dfee       __ehhandler$?Process@HttpHeaderHost@OpenHome@@EAEXABVBrx@2@@Z 0047efee f   libohNetCore:Http.obj
 0001:0007e00c       __ehhandler$?Process@HttpHeaderLocation@OpenHome@@EAEXABVBrx@2@@Z 0047f00c f   libohNetCore:Http.obj
 0001:0007e027       __unwindfunclet$?Process@HttpHeaderContentType@OpenHome@@EAEXABVBrx@2@@Z$2 0047f027 f   libohNetCore:Http.obj
 0001:0007e02f       __unwindfunclet$?Process@HttpHeaderContentType@OpenHome@@EAEXABVBrx@2@@Z$3 0047f02f f   libohNetCore:Http.obj
 0001:0007e037       __unwindfunclet$?Process@HttpHeaderContentType@OpenHome@@EAEXABVBrx@2@@Z$4 0047f037 f   libohNetCore:Http.obj
 0001:0007e03f       __unwindfunclet$?Process@HttpHeaderContentType@OpenHome@@EAEXABVBrx@2@@Z$5 0047f03f f   libohNetCore:Http.obj
 0001:0007e04a       __unwindfunclet$?Process@HttpHeaderContentType@OpenHome@@EAEXABVBrx@2@@Z$6 0047f04a f   libohNetCore:Http.obj
 0001:0007e052       __unwindfunclet$?Process@HttpHeaderContentType@OpenHome@@EAEXABVBrx@2@@Z$7 0047f052 f   libohNetCore:Http.obj
 0001:0007e05a       __unwindfunclet$?Process@HttpHeaderContentType@OpenHome@@EAEXABVBrx@2@@Z$8 0047f05a f   libohNetCore:Http.obj
 0001:0007e065       __unwindfunclet$?Process@HttpHeaderContentType@OpenHome@@EAEXABVBrx@2@@Z$9 0047f065 f   libohNetCore:Http.obj
 0001:0007e070       __ehhandler$?Process@HttpHeaderContentType@OpenHome@@EAEXABVBrx@2@@Z 0047f070 f   libohNetCore:Http.obj
 0001:0007e08e       __unwindfunclet$?Process@HttpHeaderContentLength@OpenHome@@EAEXABVBrx@2@@Z$2 0047f08e f   libohNetCore:Http.obj
 0001:0007e096       __ehhandler$?Process@HttpHeaderContentLength@OpenHome@@EAEXABVBrx@2@@Z 0047f096 f   libohNetCore:Http.obj
 0001:0007e0b1       __unwindfunclet$?Read@ReaderHttpChunked@OpenHome@@QAEXXZ$2 0047f0b1 f   libohNetCore:Http.obj
 0001:0007e0b9       __unwindfunclet$?Read@ReaderHttpChunked@OpenHome@@QAEXXZ$3 0047f0b9 f   libohNetCore:Http.obj
 0001:0007e0c1       __unwindfunclet$?Read@ReaderHttpChunked@OpenHome@@QAEXXZ$4 0047f0c1 f   libohNetCore:Http.obj
 0001:0007e0c9       __unwindfunclet$?Read@ReaderHttpChunked@OpenHome@@QAEXXZ$5 0047f0c9 f   libohNetCore:Http.obj
 0001:0007e0d1       __unwindfunclet$?Read@ReaderHttpChunked@OpenHome@@QAEXXZ$6 0047f0d1 f   libohNetCore:Http.obj
 0001:0007e0d9       __ehhandler$?Read@ReaderHttpChunked@OpenHome@@QAEXXZ 0047f0d9 f   libohNetCore:Http.obj
 0001:0007e0f7       __unwindfunclet$??0WriterHttpChunked@OpenHome@@QAE@AAVIWriter@1@@Z$0 0047f0f7 f   libohNetCore:Http.obj
 0001:0007e0ff       __ehhandler$??0WriterHttpChunked@OpenHome@@QAE@AAVIWriter@1@@Z 0047f0ff f   libohNetCore:Http.obj
 0001:0007e11a       __unwindfunclet$?Write@WriterHttpChunked@OpenHome@@UAEXABVBrx@2@@Z$0 0047f11a f   libohNetCore:Http.obj
 0001:0007e122       __ehhandler$?Write@WriterHttpChunked@OpenHome@@UAEXABVBrx@2@@Z 0047f122 f   libohNetCore:Http.obj
 0001:0007e150       __unwindfunclet$??1WriterHttpResponse@OpenHome@@UAE@XZ$0 0047f150 f   libohNetCore:Http.obj
 0001:0007e158       __ehhandler$??1WriterHttpResponse@OpenHome@@UAE@XZ 0047f158 f   libohNetCore:Http.obj
 0001:0007e180       __unwindfunclet$??0Brn@OpenHome@@QAE@ABVBrx@1@@Z$0 0047f180 f   libohNetCore:Http.obj
 0001:0007e188       __ehhandler$??0Brn@OpenHome@@QAE@ABVBrx@1@@Z 0047f188 f   libohNetCore:Http.obj
 0001:0007e1b0       __unwindfunclet$??1WriterHttpChunked@OpenHome@@UAE@XZ$0 0047f1b0 f   libohNetCore:Http.obj
 0001:0007e1b8       __ehhandler$??1WriterHttpChunked@OpenHome@@UAE@XZ 0047f1b8 f   libohNetCore:Http.obj
 0001:0007e1e0       __unwindfunclet$?_Orphan_range@?$vector@PAVIHttpHeader@OpenHome@@V?$allocator@PAVIHttpHeader@OpenHome@@@std@@@std@@IBEXPAPAVIHttpHeader@OpenHome@@0@Z$0 0047f1e0 f   libohNetCore:Http.obj
 0001:0007e1e8       __ehhandler$?_Orphan_range@?$vector@PAVIHttpHeader@OpenHome@@V?$allocator@PAVIHttpHeader@OpenHome@@@std@@@std@@IBEXPAPAVIHttpHeader@OpenHome@@0@Z 0047f1e8 f   libohNetCore:Http.obj
 0001:0007e210       __unwindfunclet$??0?$_Vector_val@PAVIHttpHeader@OpenHome@@V?$allocator@PAVIHttpHeader@OpenHome@@@std@@@std@@QAE@V?$allocator@PAVIHttpHeader@OpenHome@@@1@@Z$0 0047f210 f   libohNetCore:Http.obj
 0001:0007e218       __ehhandler$??0?$_Vector_val@PAVIHttpHeader@OpenHome@@V?$allocator@PAVIHttpHeader@OpenHome@@@std@@@std@@QAE@V?$allocator@PAVIHttpHeader@OpenHome@@@1@@Z 0047f218 f   libohNetCore:Http.obj
 0001:0007e240       __unwindfunclet$?_Orphan_range@?$vector@PBVBrx@OpenHome@@V?$allocator@PBVBrx@OpenHome@@@std@@@std@@IBEXPAPBVBrx@OpenHome@@0@Z$0 0047f240 f   libohNetCore:Http.obj
 0001:0007e248       __ehhandler$?_Orphan_range@?$vector@PBVBrx@OpenHome@@V?$allocator@PBVBrx@OpenHome@@@std@@@std@@IBEXPAPBVBrx@OpenHome@@0@Z 0047f248 f   libohNetCore:Http.obj
 0001:0007e270       __unwindfunclet$??0?$_Vector_val@PBVBrx@OpenHome@@V?$allocator@PBVBrx@OpenHome@@@std@@@std@@QAE@V?$allocator@PBVBrx@OpenHome@@@1@@Z$0 0047f270 f   libohNetCore:Http.obj
 0001:0007e278       __ehhandler$??0?$_Vector_val@PBVBrx@OpenHome@@V?$allocator@PBVBrx@OpenHome@@@std@@@std@@QAE@V?$allocator@PBVBrx@OpenHome@@@1@@Z 0047f278 f   libohNetCore:Http.obj
 0001:0007e2a0       __ehhandler$?reserve@?$vector@PAVIHttpHeader@OpenHome@@V?$allocator@PAVIHttpHeader@OpenHome@@@std@@@std@@QAEXI@Z 0047f2a0 f   libohNetCore:Http.obj
 0001:0007e2c0       __ehhandler$?reserve@?$vector@PBVBrx@OpenHome@@V?$allocator@PBVBrx@OpenHome@@@std@@@std@@QAEXI@Z 0047f2c0 f   libohNetCore:Http.obj
 0001:0007e2e0       __unwindfunclet$?construct@?$allocator@PAVIHttpHeader@OpenHome@@@std@@QAEXPAPAVIHttpHeader@OpenHome@@$$QAPAV34@@Z$0 0047f2e0 f   libohNetCore:Http.obj
 0001:0007e2f1       __ehhandler$?construct@?$allocator@PAVIHttpHeader@OpenHome@@@std@@QAEXPAPAVIHttpHeader@OpenHome@@$$QAPAV34@@Z 0047f2f1 f   libohNetCore:Http.obj
 0001:0007e310       __unwindfunclet$?construct@?$allocator@PBVBrx@OpenHome@@@std@@QAEXPAPBVBrx@OpenHome@@$$QAPBV34@@Z$0 0047f310 f   libohNetCore:Http.obj
 0001:0007e321       __ehhandler$?construct@?$allocator@PBVBrx@OpenHome@@@std@@QAEXPAPBVBrx@OpenHome@@$$QAPBV34@@Z 0047f321 f   libohNetCore:Http.obj
 0001:0007e340       __unwindfunclet$??__E?kContinue@HttpStatus@OpenHome@@2V12@B@@YAXXZ$1 0047f340 f   libohNetCore:Http.obj
 0001:0007e348       __ehhandler$??__E?kContinue@HttpStatus@OpenHome@@2V12@B@@YAXXZ 0047f348 f   libohNetCore:Http.obj
 0001:0007e370       __unwindfunclet$??0HttpStatusMaker@@QAE@IVBrn@OpenHome@@@Z$0 0047f370 f   libohNetCore:Http.obj
 0001:0007e378       __ehhandler$??0HttpStatusMaker@@QAE@IVBrn@OpenHome@@@Z 0047f378 f   libohNetCore:Http.obj
 0001:0007e3a0       __unwindfunclet$??__E?kSwitchingProtocols@HttpStatus@OpenHome@@2V12@B@@YAXXZ$1 0047f3a0 f   libohNetCore:Http.obj
 0001:0007e3a8       __ehhandler$??__E?kSwitchingProtocols@HttpStatus@OpenHome@@2V12@B@@YAXXZ 0047f3a8 f   libohNetCore:Http.obj
 0001:0007e3d0       __unwindfunclet$??__E?kOk@HttpStatus@OpenHome@@2V12@B@@YAXXZ$1 0047f3d0 f   libohNetCore:Http.obj
 0001:0007e3d8       __ehhandler$??__E?kOk@HttpStatus@OpenHome@@2V12@B@@YAXXZ 0047f3d8 f   libohNetCore:Http.obj
 0001:0007e400       __unwindfunclet$??__E?kCreated@HttpStatus@OpenHome@@2V12@B@@YAXXZ$1 0047f400 f   libohNetCore:Http.obj
 0001:0007e408       __ehhandler$??__E?kCreated@HttpStatus@OpenHome@@2V12@B@@YAXXZ 0047f408 f   libohNetCore:Http.obj
 0001:0007e430       __unwindfunclet$??__E?kAccepted@HttpStatus@OpenHome@@2V12@B@@YAXXZ$1 0047f430 f   libohNetCore:Http.obj
 0001:0007e438       __ehhandler$??__E?kAccepted@HttpStatus@OpenHome@@2V12@B@@YAXXZ 0047f438 f   libohNetCore:Http.obj
 0001:0007e460       __unwindfunclet$??__E?kNonAuthoritativeInformation@HttpStatus@OpenHome@@2V12@B@@YAXXZ$1 0047f460 f   libohNetCore:Http.obj
 0001:0007e468       __ehhandler$??__E?kNonAuthoritativeInformation@HttpStatus@OpenHome@@2V12@B@@YAXXZ 0047f468 f   libohNetCore:Http.obj
 0001:0007e490       __unwindfunclet$??__E?kNoContent@HttpStatus@OpenHome@@2V12@B@@YAXXZ$1 0047f490 f   libohNetCore:Http.obj
 0001:0007e498       __ehhandler$??__E?kNoContent@HttpStatus@OpenHome@@2V12@B@@YAXXZ 0047f498 f   libohNetCore:Http.obj
 0001:0007e4c0       __unwindfunclet$??__E?kResetContent@HttpStatus@OpenHome@@2V12@B@@YAXXZ$1 0047f4c0 f   libohNetCore:Http.obj
 0001:0007e4c8       __ehhandler$??__E?kResetContent@HttpStatus@OpenHome@@2V12@B@@YAXXZ 0047f4c8 f   libohNetCore:Http.obj
 0001:0007e4f0       __unwindfunclet$??__E?kPartialContent@HttpStatus@OpenHome@@2V12@B@@YAXXZ$1 0047f4f0 f   libohNetCore:Http.obj
 0001:0007e4f8       __ehhandler$??__E?kPartialContent@HttpStatus@OpenHome@@2V12@B@@YAXXZ 0047f4f8 f   libohNetCore:Http.obj
 0001:0007e520       __unwindfunclet$??__E?kMultipleChoices@HttpStatus@OpenHome@@2V12@B@@YAXXZ$1 0047f520 f   libohNetCore:Http.obj
 0001:0007e528       __ehhandler$??__E?kMultipleChoices@HttpStatus@OpenHome@@2V12@B@@YAXXZ 0047f528 f   libohNetCore:Http.obj
 0001:0007e550       __unwindfunclet$??__E?kMovedPermanently@HttpStatus@OpenHome@@2V12@B@@YAXXZ$1 0047f550 f   libohNetCore:Http.obj
 0001:0007e558       __ehhandler$??__E?kMovedPermanently@HttpStatus@OpenHome@@2V12@B@@YAXXZ 0047f558 f   libohNetCore:Http.obj
 0001:0007e580       __unwindfunclet$??__E?kFound@HttpStatus@OpenHome@@2V12@B@@YAXXZ$1 0047f580 f   libohNetCore:Http.obj
 0001:0007e588       __ehhandler$??__E?kFound@HttpStatus@OpenHome@@2V12@B@@YAXXZ 0047f588 f   libohNetCore:Http.obj
 0001:0007e5b0       __unwindfunclet$??__E?kSeeOther@HttpStatus@OpenHome@@2V12@B@@YAXXZ$1 0047f5b0 f   libohNetCore:Http.obj
 0001:0007e5b8       __ehhandler$??__E?kSeeOther@HttpStatus@OpenHome@@2V12@B@@YAXXZ 0047f5b8 f   libohNetCore:Http.obj
 0001:0007e5e0       __unwindfunclet$??__E?kNotModified@HttpStatus@OpenHome@@2V12@B@@YAXXZ$1 0047f5e0 f   libohNetCore:Http.obj
 0001:0007e5e8       __ehhandler$??__E?kNotModified@HttpStatus@OpenHome@@2V12@B@@YAXXZ 0047f5e8 f   libohNetCore:Http.obj
 0001:0007e610       __unwindfunclet$??__E?kUseProxy@HttpStatus@OpenHome@@2V12@B@@YAXXZ$1 0047f610 f   libohNetCore:Http.obj
 0001:0007e618       __ehhandler$??__E?kUseProxy@HttpStatus@OpenHome@@2V12@B@@YAXXZ 0047f618 f   libohNetCore:Http.obj
 0001:0007e640       __unwindfunclet$??__E?kTemporaryRedirect@HttpStatus@OpenHome@@2V12@B@@YAXXZ$1 0047f640 f   libohNetCore:Http.obj
 0001:0007e648       __ehhandler$??__E?kTemporaryRedirect@HttpStatus@OpenHome@@2V12@B@@YAXXZ 0047f648 f   libohNetCore:Http.obj
 0001:0007e670       __unwindfunclet$??__E?kBadRequest@HttpStatus@OpenHome@@2V12@B@@YAXXZ$1 0047f670 f   libohNetCore:Http.obj
 0001:0007e678       __ehhandler$??__E?kBadRequest@HttpStatus@OpenHome@@2V12@B@@YAXXZ 0047f678 f   libohNetCore:Http.obj
 0001:0007e6a0       __unwindfunclet$??__E?kUnauthorized@HttpStatus@OpenHome@@2V12@B@@YAXXZ$1 0047f6a0 f   libohNetCore:Http.obj
 0001:0007e6a8       __ehhandler$??__E?kUnauthorized@HttpStatus@OpenHome@@2V12@B@@YAXXZ 0047f6a8 f   libohNetCore:Http.obj
 0001:0007e6d0       __unwindfunclet$??__E?kPaymentRequired@HttpStatus@OpenHome@@2V12@B@@YAXXZ$1 0047f6d0 f   libohNetCore:Http.obj
 0001:0007e6d8       __ehhandler$??__E?kPaymentRequired@HttpStatus@OpenHome@@2V12@B@@YAXXZ 0047f6d8 f   libohNetCore:Http.obj
 0001:0007e700       __unwindfunclet$??__E?kForbidden@HttpStatus@OpenHome@@2V12@B@@YAXXZ$1 0047f700 f   libohNetCore:Http.obj
 0001:0007e708       __ehhandler$??__E?kForbidden@HttpStatus@OpenHome@@2V12@B@@YAXXZ 0047f708 f   libohNetCore:Http.obj
 0001:0007e730       __unwindfunclet$??__E?kNotFound@HttpStatus@OpenHome@@2V12@B@@YAXXZ$1 0047f730 f   libohNetCore:Http.obj
 0001:0007e738       __ehhandler$??__E?kNotFound@HttpStatus@OpenHome@@2V12@B@@YAXXZ 0047f738 f   libohNetCore:Http.obj
 0001:0007e760       __unwindfunclet$??__E?kMethodNotAllowed@HttpStatus@OpenHome@@2V12@B@@YAXXZ$1 0047f760 f   libohNetCore:Http.obj
 0001:0007e768       __ehhandler$??__E?kMethodNotAllowed@HttpStatus@OpenHome@@2V12@B@@YAXXZ 0047f768 f   libohNetCore:Http.obj
 0001:0007e790       __unwindfunclet$??__E?kNotAcceptable@HttpStatus@OpenHome@@2V12@B@@YAXXZ$1 0047f790 f   libohNetCore:Http.obj
 0001:0007e798       __ehhandler$??__E?kNotAcceptable@HttpStatus@OpenHome@@2V12@B@@YAXXZ 0047f798 f   libohNetCore:Http.obj
 0001:0007e7c0       __unwindfunclet$??__E?kProxyAuthenticationRequired@HttpStatus@OpenHome@@2V12@B@@YAXXZ$1 0047f7c0 f   libohNetCore:Http.obj
 0001:0007e7c8       __ehhandler$??__E?kProxyAuthenticationRequired@HttpStatus@OpenHome@@2V12@B@@YAXXZ 0047f7c8 f   libohNetCore:Http.obj
 0001:0007e7f0       __unwindfunclet$??__E?kRequestTimeout@HttpStatus@OpenHome@@2V12@B@@YAXXZ$1 0047f7f0 f   libohNetCore:Http.obj
 0001:0007e7f8       __ehhandler$??__E?kRequestTimeout@HttpStatus@OpenHome@@2V12@B@@YAXXZ 0047f7f8 f   libohNetCore:Http.obj
 0001:0007e820       __unwindfunclet$??__E?kConflict@HttpStatus@OpenHome@@2V12@B@@YAXXZ$1 0047f820 f   libohNetCore:Http.obj
 0001:0007e828       __ehhandler$??__E?kConflict@HttpStatus@OpenHome@@2V12@B@@YAXXZ 0047f828 f   libohNetCore:Http.obj
 0001:0007e850       __unwindfunclet$??__E?kGone@HttpStatus@OpenHome@@2V12@B@@YAXXZ$1 0047f850 f   libohNetCore:Http.obj
 0001:0007e858       __ehhandler$??__E?kGone@HttpStatus@OpenHome@@2V12@B@@YAXXZ 0047f858 f   libohNetCore:Http.obj
 0001:0007e880       __unwindfunclet$??__E?kLengthRequired@HttpStatus@OpenHome@@2V12@B@@YAXXZ$1 0047f880 f   libohNetCore:Http.obj
 0001:0007e888       __ehhandler$??__E?kLengthRequired@HttpStatus@OpenHome@@2V12@B@@YAXXZ 0047f888 f   libohNetCore:Http.obj
 0001:0007e8b0       __unwindfunclet$??__E?kPreconditionFailed@HttpStatus@OpenHome@@2V12@B@@YAXXZ$1 0047f8b0 f   libohNetCore:Http.obj
 0001:0007e8b8       __ehhandler$??__E?kPreconditionFailed@HttpStatus@OpenHome@@2V12@B@@YAXXZ 0047f8b8 f   libohNetCore:Http.obj
 0001:0007e8e0       __unwindfunclet$??__E?kRequestEntityTooLarge@HttpStatus@OpenHome@@2V12@B@@YAXXZ$1 0047f8e0 f   libohNetCore:Http.obj
 0001:0007e8e8       __ehhandler$??__E?kRequestEntityTooLarge@HttpStatus@OpenHome@@2V12@B@@YAXXZ 0047f8e8 f   libohNetCore:Http.obj
 0001:0007e910       __unwindfunclet$??__E?kRequestUriTooLarge@HttpStatus@OpenHome@@2V12@B@@YAXXZ$1 0047f910 f   libohNetCore:Http.obj
 0001:0007e918       __ehhandler$??__E?kRequestUriTooLarge@HttpStatus@OpenHome@@2V12@B@@YAXXZ 0047f918 f   libohNetCore:Http.obj
 0001:0007e940       __unwindfunclet$??__E?kUnsupportedMediaType@HttpStatus@OpenHome@@2V12@B@@YAXXZ$1 0047f940 f   libohNetCore:Http.obj
 0001:0007e948       __ehhandler$??__E?kUnsupportedMediaType@HttpStatus@OpenHome@@2V12@B@@YAXXZ 0047f948 f   libohNetCore:Http.obj
 0001:0007e970       __unwindfunclet$??__E?kRequestedRangeNotSatisfiable@HttpStatus@OpenHome@@2V12@B@@YAXXZ$1 0047f970 f   libohNetCore:Http.obj
 0001:0007e978       __ehhandler$??__E?kRequestedRangeNotSatisfiable@HttpStatus@OpenHome@@2V12@B@@YAXXZ 0047f978 f   libohNetCore:Http.obj
 0001:0007e9a0       __unwindfunclet$??__E?kExpectationFailure@HttpStatus@OpenHome@@2V12@B@@YAXXZ$1 0047f9a0 f   libohNetCore:Http.obj
 0001:0007e9a8       __ehhandler$??__E?kExpectationFailure@HttpStatus@OpenHome@@2V12@B@@YAXXZ 0047f9a8 f   libohNetCore:Http.obj
 0001:0007e9d0       __unwindfunclet$??__E?kInternalServerError@HttpStatus@OpenHome@@2V12@B@@YAXXZ$1 0047f9d0 f   libohNetCore:Http.obj
 0001:0007e9d8       __ehhandler$??__E?kInternalServerError@HttpStatus@OpenHome@@2V12@B@@YAXXZ 0047f9d8 f   libohNetCore:Http.obj
 0001:0007ea00       __unwindfunclet$??__E?kNotImplemented@HttpStatus@OpenHome@@2V12@B@@YAXXZ$1 0047fa00 f   libohNetCore:Http.obj
 0001:0007ea08       __ehhandler$??__E?kNotImplemented@HttpStatus@OpenHome@@2V12@B@@YAXXZ 0047fa08 f   libohNetCore:Http.obj
 0001:0007ea30       __unwindfunclet$??__E?kBadGateway@HttpStatus@OpenHome@@2V12@B@@YAXXZ$1 0047fa30 f   libohNetCore:Http.obj
 0001:0007ea38       __ehhandler$??__E?kBadGateway@HttpStatus@OpenHome@@2V12@B@@YAXXZ 0047fa38 f   libohNetCore:Http.obj
 0001:0007ea60       __unwindfunclet$??__E?kServiceUnavailable@HttpStatus@OpenHome@@2V12@B@@YAXXZ$1 0047fa60 f   libohNetCore:Http.obj
 0001:0007ea68       __ehhandler$??__E?kServiceUnavailable@HttpStatus@OpenHome@@2V12@B@@YAXXZ 0047fa68 f   libohNetCore:Http.obj
 0001:0007ea90       __unwindfunclet$??__E?kGatewayTimeout@HttpStatus@OpenHome@@2V12@B@@YAXXZ$1 0047fa90 f   libohNetCore:Http.obj
 0001:0007ea98       __ehhandler$??__E?kGatewayTimeout@HttpStatus@OpenHome@@2V12@B@@YAXXZ 0047fa98 f   libohNetCore:Http.obj
 0001:0007eac0       __unwindfunclet$??__E?kHttpVersionNotSupported@HttpStatus@OpenHome@@2V12@B@@YAXXZ$1 0047fac0 f   libohNetCore:Http.obj
 0001:0007eac8       __ehhandler$??__E?kHttpVersionNotSupported@HttpStatus@OpenHome@@2V12@B@@YAXXZ 0047fac8 f   libohNetCore:Http.obj
 0001:0007eaf0       __unwindfunclet$?WriteDeviceType@Ssdp@Net@OpenHome@@SGXAAVIWriter@3@ABVBrx@3@1I@Z$0 0047faf0 f   libohNetCore:Ssdp.obj
 0001:0007eaf8       __unwindfunclet$?WriteDeviceType@Ssdp@Net@OpenHome@@SGXAAVIWriter@3@ABVBrx@3@1I@Z$1 0047faf8 f   libohNetCore:Ssdp.obj
 0001:0007eb00       __ehhandler$?WriteDeviceType@Ssdp@Net@OpenHome@@SGXAAVIWriter@3@ABVBrx@3@1I@Z 0047fb00 f   libohNetCore:Ssdp.obj
 0001:0007eb28       __unwindfunclet$?WriteServiceType@Ssdp@Net@OpenHome@@SGXAAVIWriter@3@ABVBrx@3@1I@Z$0 0047fb28 f   libohNetCore:Ssdp.obj
 0001:0007eb30       __unwindfunclet$?WriteServiceType@Ssdp@Net@OpenHome@@SGXAAVIWriter@3@ABVBrx@3@1I@Z$1 0047fb30 f   libohNetCore:Ssdp.obj
 0001:0007eb38       __ehhandler$?WriteServiceType@Ssdp@Net@OpenHome@@SGXAAVIWriter@3@ABVBrx@3@1I@Z 0047fb38 f   libohNetCore:Ssdp.obj
 0001:0007eb60       __unwindfunclet$?WriteServer@Ssdp@Net@OpenHome@@SGXAAVIWriterHttpHeader@3@@Z$0 0047fb60 f   libohNetCore:Ssdp.obj
 0001:0007eb68       __unwindfunclet$?WriteServer@Ssdp@Net@OpenHome@@SGXAAVIWriterHttpHeader@3@@Z$1 0047fb68 f   libohNetCore:Ssdp.obj
 0001:0007eb70       __ehhandler$?WriteServer@Ssdp@Net@OpenHome@@SGXAAVIWriterHttpHeader@3@@Z 0047fb70 f   libohNetCore:Ssdp.obj
 0001:0007eb8b       __unwindfunclet$?ParseUrn@Ssdp@Net@OpenHome@@CG_NABVBrx@3@0AAVBrn@3@1AAI@Z$2 0047fb8b f   libohNetCore:Ssdp.obj
 0001:0007eb93       __unwindfunclet$?ParseUrn@Ssdp@Net@OpenHome@@CG_NABVBrx@3@0AAVBrn@3@1AAI@Z$3 0047fb93 f   libohNetCore:Ssdp.obj
 0001:0007eb9b       __unwindfunclet$?ParseUrn@Ssdp@Net@OpenHome@@CG_NABVBrx@3@0AAVBrn@3@1AAI@Z$4 0047fb9b f   libohNetCore:Ssdp.obj
 0001:0007eba3       __unwindfunclet$?ParseUrn@Ssdp@Net@OpenHome@@CG_NABVBrx@3@0AAVBrn@3@1AAI@Z$5 0047fba3 f   libohNetCore:Ssdp.obj
 0001:0007ebab       __unwindfunclet$?ParseUrn@Ssdp@Net@OpenHome@@CG_NABVBrx@3@0AAVBrn@3@1AAI@Z$6 0047fbab f   libohNetCore:Ssdp.obj
 0001:0007ebb3       __ehhandler$?ParseUrn@Ssdp@Net@OpenHome@@CG_NABVBrx@3@0AAVBrn@3@1AAI@Z 0047fbb3 f   libohNetCore:Ssdp.obj
 0001:0007ebd1       __unwindfunclet$?Process@SsdpHeaderCacheControl@Net@OpenHome@@EAEXABVBrx@3@@Z$2 0047fbd1 f   libohNetCore:Ssdp.obj
 0001:0007ebd9       __unwindfunclet$?Process@SsdpHeaderCacheControl@Net@OpenHome@@EAEXABVBrx@3@@Z$3 0047fbd9 f   libohNetCore:Ssdp.obj
 0001:0007ebe1       __unwindfunclet$?Process@SsdpHeaderCacheControl@Net@OpenHome@@EAEXABVBrx@3@@Z$4 0047fbe1 f   libohNetCore:Ssdp.obj
 0001:0007ebe9       __unwindfunclet$?Process@SsdpHeaderCacheControl@Net@OpenHome@@EAEXABVBrx@3@@Z$5 0047fbe9 f   libohNetCore:Ssdp.obj
 0001:0007ebf1       __unwindfunclet$?Process@SsdpHeaderCacheControl@Net@OpenHome@@EAEXABVBrx@3@@Z$6 0047fbf1 f   libohNetCore:Ssdp.obj
 0001:0007ebf9       __ehhandler$?Process@SsdpHeaderCacheControl@Net@OpenHome@@EAEXABVBrx@3@@Z 0047fbf9 f   libohNetCore:Ssdp.obj
 0001:0007ec17       __unwindfunclet$?Process@SsdpHeaderSt@Net@OpenHome@@EAEXABVBrx@3@@Z$2 0047fc17 f   libohNetCore:Ssdp.obj
 0001:0007ec1f       __unwindfunclet$?Process@SsdpHeaderSt@Net@OpenHome@@EAEXABVBrx@3@@Z$3 0047fc1f f   libohNetCore:Ssdp.obj
 0001:0007ec27       __unwindfunclet$?Process@SsdpHeaderSt@Net@OpenHome@@EAEXABVBrx@3@@Z$4 0047fc27 f   libohNetCore:Ssdp.obj
 0001:0007ec2f       __unwindfunclet$?Process@SsdpHeaderSt@Net@OpenHome@@EAEXABVBrx@3@@Z$5 0047fc2f f   libohNetCore:Ssdp.obj
 0001:0007ec3a       __unwindfunclet$?Process@SsdpHeaderSt@Net@OpenHome@@EAEXABVBrx@3@@Z$6 0047fc3a f   libohNetCore:Ssdp.obj
 0001:0007ec42       __unwindfunclet$?Process@SsdpHeaderSt@Net@OpenHome@@EAEXABVBrx@3@@Z$7 0047fc42 f   libohNetCore:Ssdp.obj
 0001:0007ec4a       __unwindfunclet$?Process@SsdpHeaderSt@Net@OpenHome@@EAEXABVBrx@3@@Z$8 0047fc4a f   libohNetCore:Ssdp.obj
 0001:0007ec55       __unwindfunclet$?Process@SsdpHeaderSt@Net@OpenHome@@EAEXABVBrx@3@@Z$9 0047fc55 f   libohNetCore:Ssdp.obj
 0001:0007ec60       __unwindfunclet$?Process@SsdpHeaderSt@Net@OpenHome@@EAEXABVBrx@3@@Z$10 0047fc60 f   libohNetCore:Ssdp.obj
 0001:0007ec6b       __unwindfunclet$?Process@SsdpHeaderSt@Net@OpenHome@@EAEXABVBrx@3@@Z$11 0047fc6b f   libohNetCore:Ssdp.obj
 0001:0007ec76       __unwindfunclet$?Process@SsdpHeaderSt@Net@OpenHome@@EAEXABVBrx@3@@Z$12 0047fc76 f   libohNetCore:Ssdp.obj
 0001:0007ec81       __unwindfunclet$?Process@SsdpHeaderSt@Net@OpenHome@@EAEXABVBrx@3@@Z$13 0047fc81 f   libohNetCore:Ssdp.obj
 0001:0007ec8c       __ehhandler$?Process@SsdpHeaderSt@Net@OpenHome@@EAEXABVBrx@3@@Z 0047fc8c f   libohNetCore:Ssdp.obj
 0001:0007ecaa       __unwindfunclet$?Process@SsdpHeaderNt@Net@OpenHome@@EAEXABVBrx@3@@Z$2 0047fcaa f   libohNetCore:Ssdp.obj
 0001:0007ecb2       __unwindfunclet$?Process@SsdpHeaderNt@Net@OpenHome@@EAEXABVBrx@3@@Z$3 0047fcb2 f   libohNetCore:Ssdp.obj
 0001:0007ecba       __unwindfunclet$?Process@SsdpHeaderNt@Net@OpenHome@@EAEXABVBrx@3@@Z$4 0047fcba f   libohNetCore:Ssdp.obj
 0001:0007ecc2       __unwindfunclet$?Process@SsdpHeaderNt@Net@OpenHome@@EAEXABVBrx@3@@Z$5 0047fcc2 f   libohNetCore:Ssdp.obj
 0001:0007eccd       __unwindfunclet$?Process@SsdpHeaderNt@Net@OpenHome@@EAEXABVBrx@3@@Z$6 0047fccd f   libohNetCore:Ssdp.obj
 0001:0007ecd5       __unwindfunclet$?Process@SsdpHeaderNt@Net@OpenHome@@EAEXABVBrx@3@@Z$7 0047fcd5 f   libohNetCore:Ssdp.obj
 0001:0007ecdd       __unwindfunclet$?Process@SsdpHeaderNt@Net@OpenHome@@EAEXABVBrx@3@@Z$8 0047fcdd f   libohNetCore:Ssdp.obj
 0001:0007ece8       __unwindfunclet$?Process@SsdpHeaderNt@Net@OpenHome@@EAEXABVBrx@3@@Z$9 0047fce8 f   libohNetCore:Ssdp.obj
 0001:0007ecf3       __unwindfunclet$?Process@SsdpHeaderNt@Net@OpenHome@@EAEXABVBrx@3@@Z$10 0047fcf3 f   libohNetCore:Ssdp.obj
 0001:0007ecfe       __unwindfunclet$?Process@SsdpHeaderNt@Net@OpenHome@@EAEXABVBrx@3@@Z$11 0047fcfe f   libohNetCore:Ssdp.obj
 0001:0007ed09       __unwindfunclet$?Process@SsdpHeaderNt@Net@OpenHome@@EAEXABVBrx@3@@Z$12 0047fd09 f   libohNetCore:Ssdp.obj
 0001:0007ed14       __unwindfunclet$?Process@SsdpHeaderNt@Net@OpenHome@@EAEXABVBrx@3@@Z$13 0047fd14 f   libohNetCore:Ssdp.obj
 0001:0007ed1f       __ehhandler$?Process@SsdpHeaderNt@Net@OpenHome@@EAEXABVBrx@3@@Z 0047fd1f f   libohNetCore:Ssdp.obj
 0001:0007ed3d       __unwindfunclet$?Process@SsdpHeaderUsn@Net@OpenHome@@EAEXABVBrx@3@@Z$2 0047fd3d f   libohNetCore:Ssdp.obj
 0001:0007ed45       __unwindfunclet$?Process@SsdpHeaderUsn@Net@OpenHome@@EAEXABVBrx@3@@Z$3 0047fd45 f   libohNetCore:Ssdp.obj
 0001:0007ed4d       __unwindfunclet$?Process@SsdpHeaderUsn@Net@OpenHome@@EAEXABVBrx@3@@Z$4 0047fd4d f   libohNetCore:Ssdp.obj
 0001:0007ed58       __unwindfunclet$?Process@SsdpHeaderUsn@Net@OpenHome@@EAEXABVBrx@3@@Z$5 0047fd58 f   libohNetCore:Ssdp.obj
 0001:0007ed60       __unwindfunclet$?Process@SsdpHeaderUsn@Net@OpenHome@@EAEXABVBrx@3@@Z$6 0047fd60 f   libohNetCore:Ssdp.obj
 0001:0007ed6b       __unwindfunclet$?Process@SsdpHeaderUsn@Net@OpenHome@@EAEXABVBrx@3@@Z$7 0047fd6b f   libohNetCore:Ssdp.obj
 0001:0007ed76       __unwindfunclet$?Process@SsdpHeaderUsn@Net@OpenHome@@EAEXABVBrx@3@@Z$8 0047fd76 f   libohNetCore:Ssdp.obj
 0001:0007ed81       __unwindfunclet$?Process@SsdpHeaderUsn@Net@OpenHome@@EAEXABVBrx@3@@Z$9 0047fd81 f   libohNetCore:Ssdp.obj
 0001:0007ed89       __unwindfunclet$?Process@SsdpHeaderUsn@Net@OpenHome@@EAEXABVBrx@3@@Z$10 0047fd89 f   libohNetCore:Ssdp.obj
 0001:0007ed91       __unwindfunclet$?Process@SsdpHeaderUsn@Net@OpenHome@@EAEXABVBrx@3@@Z$11 0047fd91 f   libohNetCore:Ssdp.obj
 0001:0007ed9c       __unwindfunclet$?Process@SsdpHeaderUsn@Net@OpenHome@@EAEXABVBrx@3@@Z$12 0047fd9c f   libohNetCore:Ssdp.obj
 0001:0007eda7       __unwindfunclet$?Process@SsdpHeaderUsn@Net@OpenHome@@EAEXABVBrx@3@@Z$13 0047fda7 f   libohNetCore:Ssdp.obj
 0001:0007edb2       __unwindfunclet$?Process@SsdpHeaderUsn@Net@OpenHome@@EAEXABVBrx@3@@Z$14 0047fdb2 f   libohNetCore:Ssdp.obj
 0001:0007edbd       __unwindfunclet$?Process@SsdpHeaderUsn@Net@OpenHome@@EAEXABVBrx@3@@Z$15 0047fdbd f   libohNetCore:Ssdp.obj
 0001:0007edc8       __unwindfunclet$?Process@SsdpHeaderUsn@Net@OpenHome@@EAEXABVBrx@3@@Z$16 0047fdc8 f   libohNetCore:Ssdp.obj
 0001:0007edd3       __unwindfunclet$?Process@SsdpHeaderUsn@Net@OpenHome@@EAEXABVBrx@3@@Z$17 0047fdd3 f   libohNetCore:Ssdp.obj
 0001:0007edde       __unwindfunclet$?Process@SsdpHeaderUsn@Net@OpenHome@@EAEXABVBrx@3@@Z$18 0047fdde f   libohNetCore:Ssdp.obj
 0001:0007ede9       __ehhandler$?Process@SsdpHeaderUsn@Net@OpenHome@@EAEXABVBrx@3@@Z 0047fde9 f   libohNetCore:Ssdp.obj
 0001:0007ee07       __unwindfunclet$?Process@SsdpHeaderHost@Net@OpenHome@@EAEXABVBrx@3@@Z$0 0047fe07 f   libohNetCore:Ssdp.obj
 0001:0007ee0f       __ehhandler$?Process@SsdpHeaderHost@Net@OpenHome@@EAEXABVBrx@3@@Z 0047fe0f f   libohNetCore:Ssdp.obj
 0001:0007ee2a       __unwindfunclet$?Process@SsdpHeaderMan@Net@OpenHome@@EAEXABVBrx@3@@Z$0 0047fe2a f   libohNetCore:Ssdp.obj
 0001:0007ee32       __ehhandler$?Process@SsdpHeaderMan@Net@OpenHome@@EAEXABVBrx@3@@Z 0047fe32 f   libohNetCore:Ssdp.obj
 0001:0007ee4d       __unwindfunclet$?Process@SsdpHeaderMx@Net@OpenHome@@EAEXABVBrx@3@@Z$2 0047fe4d f   libohNetCore:Ssdp.obj
 0001:0007ee55       __ehhandler$?Process@SsdpHeaderMx@Net@OpenHome@@EAEXABVBrx@3@@Z 0047fe55 f   libohNetCore:Ssdp.obj
 0001:0007ee70       __unwindfunclet$?Process@SsdpHeaderNts@Net@OpenHome@@EAEXABVBrx@3@@Z$0 0047fe70 f   libohNetCore:Ssdp.obj
 0001:0007ee78       __ehhandler$?Process@SsdpHeaderNts@Net@OpenHome@@EAEXABVBrx@3@@Z 0047fe78 f   libohNetCore:Ssdp.obj
 0001:0007ee93       __unwindfunclet$?Process@SsdpHeaderExt@Net@OpenHome@@EAEXABVBrx@3@@Z$0 0047fe93 f   libohNetCore:Ssdp.obj
 0001:0007ee9b       __ehhandler$?Process@SsdpHeaderExt@Net@OpenHome@@EAEXABVBrx@3@@Z 0047fe9b f   libohNetCore:Ssdp.obj
 0001:0007eec0       __unwindfunclet$?Read@Srx@OpenHome@@UAE?AVBrn@2@I@Z$0 0047fec0 f   libohNetCore:Stream.obj
 0001:0007eec8       __unwindfunclet$?Read@Srx@OpenHome@@UAE?AVBrn@2@I@Z$1 0047fec8 f   libohNetCore:Stream.obj
 0001:0007eed0       __ehhandler$?Read@Srx@OpenHome@@UAE?AVBrn@2@I@Z 0047fed0 f   libohNetCore:Stream.obj
 0001:0007eeeb       __unwindfunclet$?ReadUntil@Srx@OpenHome@@UAE?AVBrn@2@E@Z$1 0047feeb f   libohNetCore:Stream.obj
 0001:0007eef3       __unwindfunclet$?ReadUntil@Srx@OpenHome@@UAE?AVBrn@2@E@Z$2 0047fef3 f   libohNetCore:Stream.obj
 0001:0007eefb       __ehhandler$?ReadUntil@Srx@OpenHome@@UAE?AVBrn@2@E@Z 0047fefb f   libohNetCore:Stream.obj
 0001:0007ef16       __unwindfunclet$?Snaffle@Srx@OpenHome@@QAE?AVBrn@2@XZ$0 0047ff16 f   libohNetCore:Stream.obj
 0001:0007ef1e       __unwindfunclet$?Snaffle@Srx@OpenHome@@QAE?AVBrn@2@XZ$1 0047ff1e f   libohNetCore:Stream.obj
 0001:0007ef37       __ehhandler$?Snaffle@Srx@OpenHome@@QAE?AVBrn@2@XZ 0047ff37 f   libohNetCore:Stream.obj
 0001:0007ef52       __unwindfunclet$??0Srd@OpenHome@@QAE@IAAVIReaderSource@1@@Z$0 0047ff52 f   libohNetCore:Stream.obj
 0001:0007ef5a       __ehhandler$??0Srd@OpenHome@@QAE@IAAVIReaderSource@1@@Z 0047ff5a f   libohNetCore:Stream.obj
 0001:0007ef75       __unwindfunclet$??1Srd@OpenHome@@UAE@XZ$0 0047ff75 f   libohNetCore:Stream.obj
 0001:0007ef7d       __ehhandler$??1Srd@OpenHome@@UAE@XZ 0047ff7d f   libohNetCore:Stream.obj
 0001:0007ef98       __unwindfunclet$?Error@Swx@OpenHome@@AAEXXZ$0 0047ff98 f   libohNetCore:Stream.obj
 0001:0007efa0       __ehhandler$?Error@Swx@OpenHome@@AAEXXZ 0047ffa0 f   libohNetCore:Stream.obj
 0001:0007efbb       __unwindfunclet$?Write@Swx@OpenHome@@UAEXE@Z$0 0047ffbb f   libohNetCore:Stream.obj
 0001:0007efc3       __ehhandler$?Write@Swx@OpenHome@@UAEXE@Z 0047ffc3 f   libohNetCore:Stream.obj
 0001:0007efde       __ehhandler$?Write@Swx@OpenHome@@UAEXABVBrx@2@@Z 0047ffde f   libohNetCore:Stream.obj
 0001:0007eff9       __unwindfunclet$?WriteDrain@Swx@OpenHome@@AAEXXZ$2 0047fff9 f   libohNetCore:Stream.obj
 0001:0007f001       __ehhandler$?WriteDrain@Swx@OpenHome@@AAEXXZ 00480001 f   libohNetCore:Stream.obj
 0001:0007f01c       __unwindfunclet$??0Swd@OpenHome@@QAE@IAAVIWriter@1@@Z$0 0048001c f   libohNetCore:Stream.obj
 0001:0007f024       __ehhandler$??0Swd@OpenHome@@QAE@IAAVIWriter@1@@Z 00480024 f   libohNetCore:Stream.obj
 0001:0007f03f       __unwindfunclet$??1Swd@OpenHome@@UAE@XZ$0 0048003f f   libohNetCore:Stream.obj
 0001:0007f047       __ehhandler$??1Swd@OpenHome@@UAE@XZ 00480047 f   libohNetCore:Stream.obj
 0001:0007f062       __unwindfunclet$??0ReaderBuffer@OpenHome@@QAE@XZ$0 00480062 f   libohNetCore:Stream.obj
 0001:0007f06a       __unwindfunclet$??0ReaderBuffer@OpenHome@@QAE@XZ$1 0048006a f   libohNetCore:Stream.obj
 0001:0007f075       __ehhandler$??0ReaderBuffer@OpenHome@@QAE@XZ 00480075 f   libohNetCore:Stream.obj
 0001:0007f090       __unwindfunclet$?Read@ReaderBuffer@OpenHome@@UAE?AVBrn@2@I@Z$0 00480090 f   libohNetCore:Stream.obj
 0001:0007f098       __unwindfunclet$?Read@ReaderBuffer@OpenHome@@UAE?AVBrn@2@I@Z$1 00480098 f   libohNetCore:Stream.obj
 0001:0007f0a0       __unwindfunclet$?Read@ReaderBuffer@OpenHome@@UAE?AVBrn@2@I@Z$2 004800a0 f   libohNetCore:Stream.obj
 0001:0007f0b9       __ehhandler$?Read@ReaderBuffer@OpenHome@@UAE?AVBrn@2@I@Z 004800b9 f   libohNetCore:Stream.obj
 0001:0007f0d4       __unwindfunclet$?ReadRemaining@ReaderBuffer@OpenHome@@QAE?AVBrn@2@XZ$0 004800d4 f   libohNetCore:Stream.obj
 0001:0007f0dc       __unwindfunclet$?ReadRemaining@ReaderBuffer@OpenHome@@QAE?AVBrn@2@XZ$1 004800dc f   libohNetCore:Stream.obj
 0001:0007f0f5       __ehhandler$?ReadRemaining@ReaderBuffer@OpenHome@@QAE?AVBrn@2@XZ 004800f5 f   libohNetCore:Stream.obj
 0001:0007f110       __unwindfunclet$?ReadPartial@ReaderBuffer@OpenHome@@QAE?AVBrn@2@I@Z$0 00480110 f   libohNetCore:Stream.obj
 0001:0007f118       __unwindfunclet$?ReadPartial@ReaderBuffer@OpenHome@@QAE?AVBrn@2@I@Z$1 00480118 f   libohNetCore:Stream.obj
 0001:0007f120       __unwindfunclet$?ReadPartial@ReaderBuffer@OpenHome@@QAE?AVBrn@2@I@Z$2 00480120 f   libohNetCore:Stream.obj
 0001:0007f139       __ehhandler$?ReadPartial@ReaderBuffer@OpenHome@@QAE?AVBrn@2@I@Z 00480139 f   libohNetCore:Stream.obj
 0001:0007f154       __unwindfunclet$?ReadUntil@ReaderBuffer@OpenHome@@UAE?AVBrn@2@E@Z$1 00480154 f   libohNetCore:Stream.obj
 0001:0007f15c       __ehhandler$?ReadUntil@ReaderBuffer@OpenHome@@UAE?AVBrn@2@E@Z 0048015c f   libohNetCore:Stream.obj
 0001:0007f177       __unwindfunclet$??0WriterBuffer@OpenHome@@QAE@AAVBwx@1@@Z$0 00480177 f   libohNetCore:Stream.obj
 0001:0007f17f       __ehhandler$??0WriterBuffer@OpenHome@@QAE@AAVBwx@1@@Z 0048017f f   libohNetCore:Stream.obj
 0001:0007f19a       __unwindfunclet$??0WriterBwh@OpenHome@@QAE@H@Z$0 0048019a f   libohNetCore:Stream.obj
 0001:0007f1a2       __ehhandler$??0WriterBwh@OpenHome@@QAE@H@Z 004801a2 f   libohNetCore:Stream.obj
 0001:0007f1bd       __unwindfunclet$?Write@WriterBwh@OpenHome@@QAEXPBD@Z$0 004801bd f   libohNetCore:Stream.obj
 0001:0007f1c5       __ehhandler$?Write@WriterBwh@OpenHome@@QAEXPBD@Z 004801c5 f   libohNetCore:Stream.obj
 0001:0007f1e0       __unwindfunclet$?Write@WriterBwh@OpenHome@@UAEXE@Z$0 004801e0 f   libohNetCore:Stream.obj
 0001:0007f1e8       __ehhandler$?Write@WriterBwh@OpenHome@@UAEXE@Z 004801e8 f   libohNetCore:Stream.obj
 0001:0007f203       __unwindfunclet$?ReadUintBe@ReaderBinary@OpenHome@@QAEII@Z$0 00480203 f   libohNetCore:Stream.obj
 0001:0007f20b       __ehhandler$?ReadUintBe@ReaderBinary@OpenHome@@QAEII@Z 0048020b f   libohNetCore:Stream.obj
 0001:0007f226       __unwindfunclet$?ReadIntBe@ReaderBinary@OpenHome@@QAEHI@Z$0 00480226 f   libohNetCore:Stream.obj
 0001:0007f22e       __unwindfunclet$?ReadIntBe@ReaderBinary@OpenHome@@QAEHI@Z$1 0048022e f   libohNetCore:Stream.obj
 0001:0007f236       __ehhandler$?ReadIntBe@ReaderBinary@OpenHome@@QAEHI@Z 00480236 f   libohNetCore:Stream.obj
 0001:0007f251       __unwindfunclet$?ReadUintLe@ReaderBinary@OpenHome@@QAEII@Z$0 00480251 f   libohNetCore:Stream.obj
 0001:0007f259       __ehhandler$?ReadUintLe@ReaderBinary@OpenHome@@QAEII@Z 00480259 f   libohNetCore:Stream.obj
 0001:0007f274       __unwindfunclet$?ReadUint64Be@ReaderBinary@OpenHome@@QAE_KI@Z$0 00480274 f   libohNetCore:Stream.obj
 0001:0007f27c       __ehhandler$?ReadUint64Be@ReaderBinary@OpenHome@@QAE_KI@Z 0048027c f   libohNetCore:Stream.obj
 0001:0007f297       __unwindfunclet$?ReadUint64Le@ReaderBinary@OpenHome@@QAE_KI@Z$0 00480297 f   libohNetCore:Stream.obj
 0001:0007f29f       __ehhandler$?ReadUint64Le@ReaderBinary@OpenHome@@QAE_KI@Z 0048029f f   libohNetCore:Stream.obj
 0001:0007f2c0       __unwindfunclet$??1ReaderBuffer@OpenHome@@UAE@XZ$0 004802c0 f   libohNetCore:Stream.obj
 0001:0007f2c8       __ehhandler$??1ReaderBuffer@OpenHome@@UAE@XZ 004802c8 f   libohNetCore:Stream.obj
 0001:0007f2f0       __unwindfunclet$??1WriterBwh@OpenHome@@UAE@XZ$0 004802f0 f   libohNetCore:Stream.obj
 0001:0007f2f8       __ehhandler$??1WriterBwh@OpenHome@@UAE@XZ 004802f8 f   libohNetCore:Stream.obj
 0001:0007f320       __ehhandler$?CallUnexpected@@YAXPBU_s_ESTypeList@@@Z 00480320 f   LIBCMTD:frame.obj
 0001:0007f340       __unwindfunclet$?strtoxl@@YAKPAUlocaleinfo_struct@@PBDPAPBDHH@Z$0 00480340 f   LIBCMTD:strtol.obj
 0001:0007f348       __ehhandler$?strtoxl@@YAKPAUlocaleinfo_struct@@PBDPAPBDHH@Z 00480348 f   LIBCMTD:strtol.obj
 0001:0007f370       __unwindfunclet$?strtoxq@@YA_KPAUlocaleinfo_struct@@PBDPAPBDHH@Z$0 00480370 f   LIBCMTD:strtoq.obj
 0001:0007f378       __ehhandler$?strtoxq@@YA_KPAUlocaleinfo_struct@@PBDPAPBDHH@Z 00480378 f   LIBCMTD:strtoq.obj
 0001:0007f3a0       __unwindfunclet$?getSystemCP@@YAHH@Z$0 004803a0 f   LIBCMTD:mbctype.obj
 0001:0007f3a8       __ehhandler$?getSystemCP@@YAHH@Z 004803a8 f   LIBCMTD:mbctype.obj
 0001:0007f3d0       __unwindfunclet$?make@DNameStatusNode@@SAPAV1@W4DNameStatus@@@Z$0 004803d0 f   LIBCMTD:undname.obj
 0001:0007f3de       __ehhandler$?make@DNameStatusNode@@SAPAV1@W4DNameStatus@@@Z 004803de f   LIBCMTD:undname.obj
 0001:0007f400       __unwindfunclet$?x_ismbbtype_l@@YAHPAUlocaleinfo_struct@@IHH@Z$0 00480400 f   LIBCMTD:ismbbyte.obj
 0001:0007f408       __ehhandler$?x_ismbbtype_l@@YAHPAUlocaleinfo_struct@@IHH@Z 00480408 f   LIBCMTD:ismbbyte.obj
 0001:0007f430       ??__Ei1@@YAXXZ             00480430 f   TestFifo.obj
 0001:0007f450       ??__Ei2@@YAXXZ             00480450 f   TestFifo.obj
 0001:0007f470       ??__Ei3@@YAXXZ             00480470 f   TestFifo.obj
 0001:0007f490       ??__Ei4@@YAXXZ             00480490 f   TestFifo.obj
 0001:0007f4b0       ??__EgLogger@@YAXXZ        004804b0 f   libohNetCore:Printer.obj
 0001:0007f4d0       ??__EkBrnEmpty@@YAXXZ      004804d0 f   libohNetCore:Buffer.obj
 0001:0007f500       ??__EkAsciiNewline@@YAXXZ  00480500 f   libohNetCore:Ascii.obj
 0001:0007f530       ??__EkAsciiHexPrefix@@YAXXZ 00480530 f   libohNetCore:Ascii.obj
 0001:0007f560       ??__E?kMethodOptions@Http@OpenHome@@2VBrn@2@B@@YAXXZ 00480560 f   libohNetCore:Http.obj
 0001:0007f590       ??__E?kMethodGet@Http@OpenHome@@2VBrn@2@B@@YAXXZ 00480590 f   libohNetCore:Http.obj
 0001:0007f5c0       ??__E?kMethodHead@Http@OpenHome@@2VBrn@2@B@@YAXXZ 004805c0 f   libohNetCore:Http.obj
 0001:0007f5f0       ??__E?kMethodPost@Http@OpenHome@@2VBrn@2@B@@YAXXZ 004805f0 f   libohNetCore:Http.obj
 0001:0007f620       ??__E?kMethodPut@Http@OpenHome@@2VBrn@2@B@@YAXXZ 00480620 f   libohNetCore:Http.obj
 0001:0007f650       ??__E?kMethodDelete@Http@OpenHome@@2VBrn@2@B@@YAXXZ 00480650 f   libohNetCore:Http.obj
 0001:0007f680       ??__E?kMethodTrace@Http@OpenHome@@2VBrn@2@B@@YAXXZ 00480680 f   libohNetCore:Http.obj
 0001:0007f6b0       ??__E?kMethodConnect@Http@OpenHome@@2VBrn@2@B@@YAXXZ 004806b0 f   libohNetCore:Http.obj
 0001:0007f6e0       ??__E?kMethodExtension@Http@OpenHome@@2VBrn@2@B@@YAXXZ 004806e0 f   libohNetCore:Http.obj
 0001:0007f710       ??__E?kHeaderCacheControl@Http@OpenHome@@2VBrn@2@B@@YAXXZ 00480710 f   libohNetCore:Http.obj
 0001:0007f740       ??__E?kHeaderConnection@Http@OpenHome@@2VBrn@2@B@@YAXXZ 00480740 f   libohNetCore:Http.obj
 0001:0007f770       ??__E?kHeaderDate@Http@OpenHome@@2VBrn@2@B@@YAXXZ 00480770 f   libohNetCore:Http.obj
 0001:0007f7a0       ??__E?kHeaderPragma@Http@OpenHome@@2VBrn@2@B@@YAXXZ 004807a0 f   libohNetCore:Http.obj
 0001:0007f7d0       ??__E?kHeaderTrailer@Http@OpenHome@@2VBrn@2@B@@YAXXZ 004807d0 f   libohNetCore:Http.obj
 0001:0007f800       ??__E?kHeaderTransferEncoding@Http@OpenHome@@2VBrn@2@B@@YAXXZ 00480800 f   libohNetCore:Http.obj
 0001:0007f830       ??__E?kHeaderUpgrade@Http@OpenHome@@2VBrn@2@B@@YAXXZ 00480830 f   libohNetCore:Http.obj
 0001:0007f860       ??__E?kHeaderVia@Http@OpenHome@@2VBrn@2@B@@YAXXZ 00480860 f   libohNetCore:Http.obj
 0001:0007f890       ??__E?kHeaderWarning@Http@OpenHome@@2VBrn@2@B@@YAXXZ 00480890 f   libohNetCore:Http.obj
 0001:0007f8c0       ??__E?kHeaderAccept@Http@OpenHome@@2VBrn@2@B@@YAXXZ 004808c0 f   libohNetCore:Http.obj
 0001:0007f8f0       ??__E?kHeaderAcceptCharset@Http@OpenHome@@2VBrn@2@B@@YAXXZ 004808f0 f   libohNetCore:Http.obj
 0001:0007f920       ??__E?kHeaderAcceptEncoding@Http@OpenHome@@2VBrn@2@B@@YAXXZ 00480920 f   libohNetCore:Http.obj
 0001:0007f950       ??__E?kHeaderAcceptLanguage@Http@OpenHome@@2VBrn@2@B@@YAXXZ 00480950 f   libohNetCore:Http.obj
 0001:0007f980       ??__E?kHeaderAuthorization@Http@OpenHome@@2VBrn@2@B@@YAXXZ 00480980 f   libohNetCore:Http.obj
 0001:0007f9b0       ??__E?kHeaderExpect@Http@OpenHome@@2VBrn@2@B@@YAXXZ 004809b0 f   libohNetCore:Http.obj
 0001:0007f9e0       ??__E?kHeaderFrom@Http@OpenHome@@2VBrn@2@B@@YAXXZ 004809e0 f   libohNetCore:Http.obj
 0001:0007fa10       ??__E?kHeaderHost@Http@OpenHome@@2VBrn@2@B@@YAXXZ 00480a10 f   libohNetCore:Http.obj
 0001:0007fa40       ??__E?kHeaderIfMatch@Http@OpenHome@@2VBrn@2@B@@YAXXZ 00480a40 f   libohNetCore:Http.obj
 0001:0007fa70       ??__E?kHeaderIfModifiedSince@Http@OpenHome@@2VBrn@2@B@@YAXXZ 00480a70 f   libohNetCore:Http.obj
 0001:0007faa0       ??__E?kHeaderIfNoneMatch@Http@OpenHome@@2VBrn@2@B@@YAXXZ 00480aa0 f   libohNetCore:Http.obj
 0001:0007fad0       ??__E?kHeaderIfRange@Http@OpenHome@@2VBrn@2@B@@YAXXZ 00480ad0 f   libohNetCore:Http.obj
 0001:0007fb00       ??__E?kHeaderIfUnmodifiedSince@Http@OpenHome@@2VBrn@2@B@@YAXXZ 00480b00 f   libohNetCore:Http.obj
 0001:0007fb30       ??__E?kHeaderMaxForwards@Http@OpenHome@@2VBrn@2@B@@YAXXZ 00480b30 f   libohNetCore:Http.obj
 0001:0007fb60       ??__E?kHeaderProxyAuthorization@Http@OpenHome@@2VBrn@2@B@@YAXXZ 00480b60 f   libohNetCore:Http.obj
 0001:0007fb90       ??__E?kHeaderRange@Http@OpenHome@@2VBrn@2@B@@YAXXZ 00480b90 f   libohNetCore:Http.obj
 0001:0007fbc0       ??__E?kHeaderReferer@Http@OpenHome@@2VBrn@2@B@@YAXXZ 00480bc0 f   libohNetCore:Http.obj
 0001:0007fbf0       ??__E?kHeaderTe@Http@OpenHome@@2VBrn@2@B@@YAXXZ 00480bf0 f   libohNetCore:Http.obj
 0001:0007fc20       ??__E?kHeaderUserAgent@Http@OpenHome@@2VBrn@2@B@@YAXXZ 00480c20 f   libohNetCore:Http.obj
 0001:0007fc50       ??__E?kHeaderAcceptRanges@Http@OpenHome@@2VBrn@2@B@@YAXXZ 00480c50 f   libohNetCore:Http.obj
 0001:0007fc80       ??__E?kHeaderAge@Http@OpenHome@@2VBrn@2@B@@YAXXZ 00480c80 f   libohNetCore:Http.obj
 0001:0007fcb0       ??__E?kHeaderETag@Http@OpenHome@@2VBrn@2@B@@YAXXZ 00480cb0 f   libohNetCore:Http.obj
 0001:0007fce0       ??__E?kHeaderLocation@Http@OpenHome@@2VBrn@2@B@@YAXXZ 00480ce0 f   libohNetCore:Http.obj
 0001:0007fd10       ??__E?kHeaderProxyAuthenticate@Http@OpenHome@@2VBrn@2@B@@YAXXZ 00480d10 f   libohNetCore:Http.obj
 0001:0007fd40       ??__E?kHeaderRetryAfter@Http@OpenHome@@2VBrn@2@B@@YAXXZ 00480d40 f   libohNetCore:Http.obj
 0001:0007fd70       ??__E?kHeaderServer@Http@OpenHome@@2VBrn@2@B@@YAXXZ 00480d70 f   libohNetCore:Http.obj
 0001:0007fda0       ??__E?kHeaderVary@Http@OpenHome@@2VBrn@2@B@@YAXXZ 00480da0 f   libohNetCore:Http.obj
 0001:0007fdd0       ??__E?kHeaderWwwAuthenticate@Http@OpenHome@@2VBrn@2@B@@YAXXZ 00480dd0 f   libohNetCore:Http.obj
 0001:0007fe00       ??__E?kHeaderAllow@Http@OpenHome@@2VBrn@2@B@@YAXXZ 00480e00 f   libohNetCore:Http.obj
 0001:0007fe30       ??__E?kHeaderContentEncoding@Http@OpenHome@@2VBrn@2@B@@YAXXZ 00480e30 f   libohNetCore:Http.obj
 0001:0007fe60       ??__E?kHeaderContentLanguage@Http@OpenHome@@2VBrn@2@B@@YAXXZ 00480e60 f   libohNetCore:Http.obj
 0001:0007fe90       ??__E?kHeaderContentLength@Http@OpenHome@@2VBrn@2@B@@YAXXZ 00480e90 f   libohNetCore:Http.obj
 0001:0007fec0       ??__E?kHeaderContentLocation@Http@OpenHome@@2VBrn@2@B@@YAXXZ 00480ec0 f   libohNetCore:Http.obj
 0001:0007fef0       ??__E?kHeaderContentMd5@Http@OpenHome@@2VBrn@2@B@@YAXXZ 00480ef0 f   libohNetCore:Http.obj
 0001:0007ff20       ??__E?kHeaderContentRange@Http@OpenHome@@2VBrn@2@B@@YAXXZ 00480f20 f   libohNetCore:Http.obj
 0001:0007ff50       ??__E?kHeaderContentType@Http@OpenHome@@2VBrn@2@B@@YAXXZ 00480f50 f   libohNetCore:Http.obj
 0001:0007ff80       ??__E?kHeaderExpires@Http@OpenHome@@2VBrn@2@B@@YAXXZ 00480f80 f   libohNetCore:Http.obj
 0001:0007ffb0       ??__E?kHeaderLastModified@Http@OpenHome@@2VBrn@2@B@@YAXXZ 00480fb0 f   libohNetCore:Http.obj
 0001:0007ffe0       ??__E?kUriPrefix@Http@OpenHome@@2VBrn@2@B@@YAXXZ 00480fe0 f   libohNetCore:Http.obj
 0001:00080010       ??__E?kValueZero@Http@OpenHome@@2VBrn@2@B@@YAXXZ 00481010 f   libohNetCore:Http.obj
 0001:00080040       ??__E?kHeaderSeparator@Http@OpenHome@@2VBrn@2@B@@YAXXZ 00481040 f   libohNetCore:Http.obj
 0001:00080070       ??__E?kHeaderTerminator@Http@OpenHome@@2VBrn@2@B@@YAXXZ 00481070 f   libohNetCore:Http.obj
 0001:000800a0       ??__E?kChunkedCountSeparator@Http@OpenHome@@2VBrn@2@B@@YAXXZ 004810a0 f   libohNetCore:Http.obj
 0001:000800d0       ??__E?kConnectionClose@Http@OpenHome@@2VBrn@2@B@@YAXXZ 004810d0 f   libohNetCore:Http.obj
 0001:00080100       ??__E?kConnectionUpgrade@Http@OpenHome@@2VBrn@2@B@@YAXXZ 00481100 f   libohNetCore:Http.obj
 0001:00080130       ??__E?kContentLanguageEnglish@Http@OpenHome@@2VBrn@2@B@@YAXXZ 00481130 f   libohNetCore:Http.obj
 0001:00080160       ??__E?kRangeBytes@Http@OpenHome@@2VBrn@2@B@@YAXXZ 00481160 f   libohNetCore:Http.obj
 0001:00080190       ??__E?kRangeSeparator@Http@OpenHome@@2VBrn@2@B@@YAXXZ 00481190 f   libohNetCore:Http.obj
 0001:000801c0       ??__E?kExpect100Continue@Http@OpenHome@@2VBrn@2@B@@YAXXZ 004811c0 f   libohNetCore:Http.obj
 0001:000801f0       ??__E?kTransferEncodingChunked@Http@OpenHome@@2VBrn@2@B@@YAXXZ 004811f0 f   libohNetCore:Http.obj
 0001:00080220       ??__E?kTransferEncodingIdentity@Http@OpenHome@@2VBrn@2@B@@YAXXZ 00481220 f   libohNetCore:Http.obj
 0001:00080250       ??__EkHttpVersion09@@YAXXZ 00481250 f   libohNetCore:Http.obj
 0001:00080280       ??__EkHttpVersion10@@YAXXZ 00481280 f   libohNetCore:Http.obj
 0001:000802b0       ??__EkHttpVersion11@@YAXXZ 004812b0 f   libohNetCore:Http.obj
 0001:000802e0       ??__EkRtspVersion10@@YAXXZ 004812e0 f   libohNetCore:Http.obj
 0001:00080310       ??__E?kContinue@HttpStatus@OpenHome@@2V12@B@@YAXXZ 00481310 f   libohNetCore:Http.obj
 0001:000803d0       ??__E?kSwitchingProtocols@HttpStatus@OpenHome@@2V12@B@@YAXXZ 004813d0 f   libohNetCore:Http.obj
 0001:00080490       ??__E?kOk@HttpStatus@OpenHome@@2V12@B@@YAXXZ 00481490 f   libohNetCore:Http.obj
 0001:00080550       ??__E?kCreated@HttpStatus@OpenHome@@2V12@B@@YAXXZ 00481550 f   libohNetCore:Http.obj
 0001:00080610       ??__E?kAccepted@HttpStatus@OpenHome@@2V12@B@@YAXXZ 00481610 f   libohNetCore:Http.obj
 0001:000806d0       ??__E?kNonAuthoritativeInformation@HttpStatus@OpenHome@@2V12@B@@YAXXZ 004816d0 f   libohNetCore:Http.obj
 0001:00080790       ??__E?kNoContent@HttpStatus@OpenHome@@2V12@B@@YAXXZ 00481790 f   libohNetCore:Http.obj
 0001:00080850       ??__E?kResetContent@HttpStatus@OpenHome@@2V12@B@@YAXXZ 00481850 f   libohNetCore:Http.obj
 0001:00080910       ??__E?kPartialContent@HttpStatus@OpenHome@@2V12@B@@YAXXZ 00481910 f   libohNetCore:Http.obj
 0001:000809d0       ??__E?kMultipleChoices@HttpStatus@OpenHome@@2V12@B@@YAXXZ 004819d0 f   libohNetCore:Http.obj
 0001:00080a90       ??__E?kMovedPermanently@HttpStatus@OpenHome@@2V12@B@@YAXXZ 00481a90 f   libohNetCore:Http.obj
 0001:00080b50       ??__E?kFound@HttpStatus@OpenHome@@2V12@B@@YAXXZ 00481b50 f   libohNetCore:Http.obj
 0001:00080c10       ??__E?kSeeOther@HttpStatus@OpenHome@@2V12@B@@YAXXZ 00481c10 f   libohNetCore:Http.obj
 0001:00080cd0       ??__E?kNotModified@HttpStatus@OpenHome@@2V12@B@@YAXXZ 00481cd0 f   libohNetCore:Http.obj
 0001:00080d90       ??__E?kUseProxy@HttpStatus@OpenHome@@2V12@B@@YAXXZ 00481d90 f   libohNetCore:Http.obj
 0001:00080e50       ??__E?kTemporaryRedirect@HttpStatus@OpenHome@@2V12@B@@YAXXZ 00481e50 f   libohNetCore:Http.obj
 0001:00080f10       ??__E?kBadRequest@HttpStatus@OpenHome@@2V12@B@@YAXXZ 00481f10 f   libohNetCore:Http.obj
 0001:00080fd0       ??__E?kUnauthorized@HttpStatus@OpenHome@@2V12@B@@YAXXZ 00481fd0 f   libohNetCore:Http.obj
 0001:00081090       ??__E?kPaymentRequired@HttpStatus@OpenHome@@2V12@B@@YAXXZ 00482090 f   libohNetCore:Http.obj
 0001:00081150       ??__E?kForbidden@HttpStatus@OpenHome@@2V12@B@@YAXXZ 00482150 f   libohNetCore:Http.obj
 0001:00081210       ??__E?kNotFound@HttpStatus@OpenHome@@2V12@B@@YAXXZ 00482210 f   libohNetCore:Http.obj
 0001:000812d0       ??__E?kMethodNotAllowed@HttpStatus@OpenHome@@2V12@B@@YAXXZ 004822d0 f   libohNetCore:Http.obj
 0001:00081390       ??__E?kNotAcceptable@HttpStatus@OpenHome@@2V12@B@@YAXXZ 00482390 f   libohNetCore:Http.obj
 0001:00081450       ??__E?kProxyAuthenticationRequired@HttpStatus@OpenHome@@2V12@B@@YAXXZ 00482450 f   libohNetCore:Http.obj
 0001:00081510       ??__E?kRequestTimeout@HttpStatus@OpenHome@@2V12@B@@YAXXZ 00482510 f   libohNetCore:Http.obj
 0001:000815d0       ??__E?kConflict@HttpStatus@OpenHome@@2V12@B@@YAXXZ 004825d0 f   libohNetCore:Http.obj
 0001:00081690       ??__E?kGone@HttpStatus@OpenHome@@2V12@B@@YAXXZ 00482690 f   libohNetCore:Http.obj
 0001:00081750       ??__E?kLengthRequired@HttpStatus@OpenHome@@2V12@B@@YAXXZ 00482750 f   libohNetCore:Http.obj
 0001:00081810       ??__E?kPreconditionFailed@HttpStatus@OpenHome@@2V12@B@@YAXXZ 00482810 f   libohNetCore:Http.obj
 0001:000818d0       ??__E?kRequestEntityTooLarge@HttpStatus@OpenHome@@2V12@B@@YAXXZ 004828d0 f   libohNetCore:Http.obj
 0001:00081990       ??__E?kRequestUriTooLarge@HttpStatus@OpenHome@@2V12@B@@YAXXZ 00482990 f   libohNetCore:Http.obj
 0001:00081a50       ??__E?kUnsupportedMediaType@HttpStatus@OpenHome@@2V12@B@@YAXXZ 00482a50 f   libohNetCore:Http.obj
 0001:00081b10       ??__E?kRequestedRangeNotSatisfiable@HttpStatus@OpenHome@@2V12@B@@YAXXZ 00482b10 f   libohNetCore:Http.obj
 0001:00081bd0       ??__E?kExpectationFailure@HttpStatus@OpenHome@@2V12@B@@YAXXZ 00482bd0 f   libohNetCore:Http.obj
 0001:00081c90       ??__E?kInternalServerError@HttpStatus@OpenHome@@2V12@B@@YAXXZ 00482c90 f   libohNetCore:Http.obj
 0001:00081d50       ??__E?kNotImplemented@HttpStatus@OpenHome@@2V12@B@@YAXXZ 00482d50 f   libohNetCore:Http.obj
 0001:00081e10       ??__E?kBadGateway@HttpStatus@OpenHome@@2V12@B@@YAXXZ 00482e10 f   libohNetCore:Http.obj
 0001:00081ed0       ??__E?kServiceUnavailable@HttpStatus@OpenHome@@2V12@B@@YAXXZ 00482ed0 f   libohNetCore:Http.obj
 0001:00081f90       ??__E?kGatewayTimeout@HttpStatus@OpenHome@@2V12@B@@YAXXZ 00482f90 f   libohNetCore:Http.obj
 0001:00082050       ??__E?kHttpVersionNotSupported@HttpStatus@OpenHome@@2V12@B@@YAXXZ 00483050 f   libohNetCore:Http.obj
 0001:00082110       ??__EkAlive@@YAXXZ         00483110 f   libohNetCore:Ssdp.obj
 0001:00082140       ??__EkByeBye@@YAXXZ        00483140 f   libohNetCore:Ssdp.obj
 0001:00082170       ??__EkMaxAge@@YAXXZ        00483170 f   libohNetCore:Ssdp.obj
 0001:000821a0       ??__EkUuid@@YAXXZ          004831a0 f   libohNetCore:Ssdp.obj
 0001:000821d0       ??__EkUpnpRoot@@YAXXZ      004831d0 f   libohNetCore:Ssdp.obj
 0001:00082200       ??__EkMsearchDiscover@@YAXXZ 00483200 f   libohNetCore:Ssdp.obj
 0001:00082230       ??__EkMsearchAll@@YAXXZ    00483230 f   libohNetCore:Ssdp.obj
 0001:00082260       ??__EkMsearchUpnpRoot@@YAXXZ 00483260 f   libohNetCore:Ssdp.obj
 0001:00082290       ??__EkMsearchUuid@@YAXXZ   00483290 f   libohNetCore:Ssdp.obj
 0001:000822c0       ??__EkMsearchUrn@@YAXXZ    004832c0 f   libohNetCore:Ssdp.obj
 0001:000822f0       ??__EkMsearchDevice@@YAXXZ 004832f0 f   libohNetCore:Ssdp.obj
 0001:00082320       ??__EkMsearchService@@YAXXZ 00483320 f   libohNetCore:Ssdp.obj
 0001:00082350       ??__EkUsnSeparator@@YAXXZ  00483350 f   libohNetCore:Ssdp.obj
 0001:00082380       ??__EkVersionSeparator@@YAXXZ 00483380 f   libohNetCore:Ssdp.obj
 0001:000823b0       ??__EkSsdpPortSeparator@@YAXXZ 004833b0 f   libohNetCore:Ssdp.obj
 0001:000823e0       ??__EkSsdpUrlSeparator@@YAXXZ 004833e0 f   libohNetCore:Ssdp.obj
 0001:00082410       ??__EkSsdpHttp@@YAXXZ      00483410 f   libohNetCore:Ssdp.obj
 0001:00082440       ??__EkSsdpMaxAge@@YAXXZ    00483440 f   libohNetCore:Ssdp.obj
 0001:00082470       ??__EkSchemasUpnpOrg@@YAXXZ 00483470 f   libohNetCore:Ssdp.obj
 0001:000824a0       ??__EkUpnpOrg@@YAXXZ       004834a0 f   libohNetCore:Ssdp.obj
 0001:000824d0       ??__E?kUrn@Ssdp@Net@OpenHome@@2VBrn@3@B@@YAXXZ 004834d0 f   libohNetCore:Ssdp.obj
 0001:00082500       ??__E?kMulticastAddress@Ssdp@Net@OpenHome@@2VBrn@3@B@@YAXXZ 00483500 f   libohNetCore:Ssdp.obj
 0001:00082530       ??__E?kMulticastAddressAndPort@Ssdp@Net@OpenHome@@2VBrn@3@B@@YAXXZ 00483530 f   libohNetCore:Ssdp.obj
 0001:00082560       ??__E?kMethodNotify@Ssdp@Net@OpenHome@@2VBrn@3@B@@YAXXZ 00483560 f   libohNetCore:Ssdp.obj
 0001:00082590       ??__E?kMethodMsearch@Ssdp@Net@OpenHome@@2VBrn@3@B@@YAXXZ 00483590 f   libohNetCore:Ssdp.obj
 0001:000825c0       ??__E?kMethodUri@Ssdp@Net@OpenHome@@2VBrn@3@B@@YAXXZ 004835c0 f   libohNetCore:Ssdp.obj
 0001:000825f0       ??__E?kStatusOk@Ssdp@Net@OpenHome@@2VBrn@3@B@@YAXXZ 004835f0 f   libohNetCore:Ssdp.obj
 0001:00082620       ??__E?kHeaderHost@Ssdp@Net@OpenHome@@2VBrn@3@B@@YAXXZ 00483620 f   libohNetCore:Ssdp.obj
 0001:00082650       ??__E?kHeaderServer@Ssdp@Net@OpenHome@@2VBrn@3@B@@YAXXZ 00483650 f   libohNetCore:Ssdp.obj
 0001:00082680       ??__E?kHeaderCacheControl@Ssdp@Net@OpenHome@@2VBrn@3@B@@YAXXZ 00483680 f   libohNetCore:Ssdp.obj
 0001:000826b0       ??__E?kHeaderLocation@Ssdp@Net@OpenHome@@2VBrn@3@B@@YAXXZ 004836b0 f   libohNetCore:Ssdp.obj
 0001:000826e0       ??__E?kHeaderNt@Ssdp@Net@OpenHome@@2VBrn@3@B@@YAXXZ 004836e0 f   libohNetCore:Ssdp.obj
 0001:00082710       ??__E?kHeaderSt@Ssdp@Net@OpenHome@@2VBrn@3@B@@YAXXZ 00483710 f   libohNetCore:Ssdp.obj
 0001:00082740       ??__E?kHeaderUsn@Ssdp@Net@OpenHome@@2VBrn@3@B@@YAXXZ 00483740 f   libohNetCore:Ssdp.obj
 0001:00082770       ??__E?kHeaderNts@Ssdp@Net@OpenHome@@2VBrn@3@B@@YAXXZ 00483770 f   libohNetCore:Ssdp.obj
 0001:000827a0       ??__E?kHeaderExt@Ssdp@Net@OpenHome@@2VBrn@3@B@@YAXXZ 004837a0 f   libohNetCore:Ssdp.obj
 0001:000827d0       ??__E?kHeaderMan@Ssdp@Net@OpenHome@@2VBrn@3@B@@YAXXZ 004837d0 f   libohNetCore:Ssdp.obj
 0001:00082800       ??__E?kHeaderMx@Ssdp@Net@OpenHome@@2VBrn@3@B@@YAXXZ 00483800 f   libohNetCore:Ssdp.obj
 0001:00082830       ??__E?kHeaderBootId@Ssdp@Net@OpenHome@@2VBrn@3@B@@YAXXZ 00483830 f   libohNetCore:Ssdp.obj
 0001:00082860       ??__E?kHeaderNextBootId@Ssdp@Net@OpenHome@@2VBrn@3@B@@YAXXZ 00483860 f   libohNetCore:Ssdp.obj
 0001:00082890       ??__E?kHeaderConfigId@Ssdp@Net@OpenHome@@2VBrn@3@B@@YAXXZ 00483890 f   libohNetCore:Ssdp.obj
 0001:000828c0       ??__E?kHeaderSearchPort@Ssdp@Net@OpenHome@@2VBrn@3@B@@YAXXZ 004838c0 f   libohNetCore:Ssdp.obj
 0001:000828f0       ??__E?kDeviceSeparator@Ssdp@Net@OpenHome@@2VBrn@3@B@@YAXXZ 004838f0 f   libohNetCore:Ssdp.obj
 0001:00082920       ??__E?kServiceSeparator@Ssdp@Net@OpenHome@@2VBrn@3@B@@YAXXZ 00483920 f   libohNetCore:Ssdp.obj
 0001:00082950       ??__Einitlocks@std@@YAXXZ  00483950 f   libcpmtd:xlock.obj
 0001:00082970       ??__FkBrnEmpty@@YAXXZ      00483970 f   libohNetCore:Buffer.obj
 0001:00082990       ??__FkAsciiNewline@@YAXXZ  00483990 f   libohNetCore:Ascii.obj
 0001:000829b0       ??__FkAsciiHexPrefix@@YAXXZ 004839b0 f   libohNetCore:Ascii.obj
 0001:000829d0       ??__F?kMethodOptions@Http@OpenHome@@2VBrn@2@B@@YAXXZ 004839d0 f   libohNetCore:Http.obj
 0001:000829f0       ??__F?kMethodGet@Http@OpenHome@@2VBrn@2@B@@YAXXZ 004839f0 f   libohNetCore:Http.obj
 0001:00082a10       ??__F?kMethodHead@Http@OpenHome@@2VBrn@2@B@@YAXXZ 00483a10 f   libohNetCore:Http.obj
 0001:00082a30       ??__F?kMethodPost@Http@OpenHome@@2VBrn@2@B@@YAXXZ 00483a30 f   libohNetCore:Http.obj
 0001:00082a50       ??__F?kMethodPut@Http@OpenHome@@2VBrn@2@B@@YAXXZ 00483a50 f   libohNetCore:Http.obj
 0001:00082a70       ??__F?kMethodDelete@Http@OpenHome@@2VBrn@2@B@@YAXXZ 00483a70 f   libohNetCore:Http.obj
 0001:00082a90       ??__F?kMethodTrace@Http@OpenHome@@2VBrn@2@B@@YAXXZ 00483a90 f   libohNetCore:Http.obj
 0001:00082ab0       ??__F?kMethodConnect@Http@OpenHome@@2VBrn@2@B@@YAXXZ 00483ab0 f   libohNetCore:Http.obj
 0001:00082ad0       ??__F?kMethodExtension@Http@OpenHome@@2VBrn@2@B@@YAXXZ 00483ad0 f   libohNetCore:Http.obj
 0001:00082af0       ??__F?kHeaderCacheControl@Http@OpenHome@@2VBrn@2@B@@YAXXZ 00483af0 f   libohNetCore:Http.obj
 0001:00082b10       ??__F?kHeaderConnection@Http@OpenHome@@2VBrn@2@B@@YAXXZ 00483b10 f   libohNetCore:Http.obj
 0001:00082b30       ??__F?kHeaderDate@Http@OpenHome@@2VBrn@2@B@@YAXXZ 00483b30 f   libohNetCore:Http.obj
 0001:00082b50       ??__F?kHeaderPragma@Http@OpenHome@@2VBrn@2@B@@YAXXZ 00483b50 f   libohNetCore:Http.obj
 0001:00082b70       ??__F?kHeaderTrailer@Http@OpenHome@@2VBrn@2@B@@YAXXZ 00483b70 f   libohNetCore:Http.obj
 0001:00082b90       ??__F?kHeaderTransferEncoding@Http@OpenHome@@2VBrn@2@B@@YAXXZ 00483b90 f   libohNetCore:Http.obj
 0001:00082bb0       ??__F?kHeaderUpgrade@Http@OpenHome@@2VBrn@2@B@@YAXXZ 00483bb0 f   libohNetCore:Http.obj
 0001:00082bd0       ??__F?kHeaderVia@Http@OpenHome@@2VBrn@2@B@@YAXXZ 00483bd0 f   libohNetCore:Http.obj
 0001:00082bf0       ??__F?kHeaderWarning@Http@OpenHome@@2VBrn@2@B@@YAXXZ 00483bf0 f   libohNetCore:Http.obj
 0001:00082c10       ??__F?kHeaderAccept@Http@OpenHome@@2VBrn@2@B@@YAXXZ 00483c10 f   libohNetCore:Http.obj
 0001:00082c30       ??__F?kHeaderAcceptCharset@Http@OpenHome@@2VBrn@2@B@@YAXXZ 00483c30 f   libohNetCore:Http.obj
 0001:00082c50       ??__F?kHeaderAcceptEncoding@Http@OpenHome@@2VBrn@2@B@@YAXXZ 00483c50 f   libohNetCore:Http.obj
 0001:00082c70       ??__F?kHeaderAcceptLanguage@Http@OpenHome@@2VBrn@2@B@@YAXXZ 00483c70 f   libohNetCore:Http.obj
 0001:00082c90       ??__F?kHeaderAuthorization@Http@OpenHome@@2VBrn@2@B@@YAXXZ 00483c90 f   libohNetCore:Http.obj
 0001:00082cb0       ??__F?kHeaderExpect@Http@OpenHome@@2VBrn@2@B@@YAXXZ 00483cb0 f   libohNetCore:Http.obj
 0001:00082cd0       ??__F?kHeaderFrom@Http@OpenHome@@2VBrn@2@B@@YAXXZ 00483cd0 f   libohNetCore:Http.obj
 0001:00082cf0       ??__F?kHeaderHost@Http@OpenHome@@2VBrn@2@B@@YAXXZ 00483cf0 f   libohNetCore:Http.obj
 0001:00082d10       ??__F?kHeaderIfMatch@Http@OpenHome@@2VBrn@2@B@@YAXXZ 00483d10 f   libohNetCore:Http.obj
 0001:00082d30       ??__F?kHeaderIfModifiedSince@Http@OpenHome@@2VBrn@2@B@@YAXXZ 00483d30 f   libohNetCore:Http.obj
 0001:00082d50       ??__F?kHeaderIfNoneMatch@Http@OpenHome@@2VBrn@2@B@@YAXXZ 00483d50 f   libohNetCore:Http.obj
 0001:00082d70       ??__F?kHeaderIfRange@Http@OpenHome@@2VBrn@2@B@@YAXXZ 00483d70 f   libohNetCore:Http.obj
 0001:00082d90       ??__F?kHeaderIfUnmodifiedSince@Http@OpenHome@@2VBrn@2@B@@YAXXZ 00483d90 f   libohNetCore:Http.obj
 0001:00082db0       ??__F?kHeaderMaxForwards@Http@OpenHome@@2VBrn@2@B@@YAXXZ 00483db0 f   libohNetCore:Http.obj
 0001:00082dd0       ??__F?kHeaderProxyAuthorization@Http@OpenHome@@2VBrn@2@B@@YAXXZ 00483dd0 f   libohNetCore:Http.obj
 0001:00082df0       ??__F?kHeaderRange@Http@OpenHome@@2VBrn@2@B@@YAXXZ 00483df0 f   libohNetCore:Http.obj
 0001:00082e10       ??__F?kHeaderReferer@Http@OpenHome@@2VBrn@2@B@@YAXXZ 00483e10 f   libohNetCore:Http.obj
 0001:00082e30       ??__F?kHeaderTe@Http@OpenHome@@2VBrn@2@B@@YAXXZ 00483e30 f   libohNetCore:Http.obj
 0001:00082e50       ??__F?kHeaderUserAgent@Http@OpenHome@@2VBrn@2@B@@YAXXZ 00483e50 f   libohNetCore:Http.obj
 0001:00082e70       ??__F?kHeaderAcceptRanges@Http@OpenHome@@2VBrn@2@B@@YAXXZ 00483e70 f   libohNetCore:Http.obj
 0001:00082e90       ??__F?kHeaderAge@Http@OpenHome@@2VBrn@2@B@@YAXXZ 00483e90 f   libohNetCore:Http.obj
 0001:00082eb0       ??__F?kHeaderETag@Http@OpenHome@@2VBrn@2@B@@YAXXZ 00483eb0 f   libohNetCore:Http.obj
 0001:00082ed0       ??__F?kHeaderLocation@Http@OpenHome@@2VBrn@2@B@@YAXXZ 00483ed0 f   libohNetCore:Http.obj
 0001:00082ef0       ??__F?kHeaderProxyAuthenticate@Http@OpenHome@@2VBrn@2@B@@YAXXZ 00483ef0 f   libohNetCore:Http.obj
 0001:00082f10       ??__F?kHeaderRetryAfter@Http@OpenHome@@2VBrn@2@B@@YAXXZ 00483f10 f   libohNetCore:Http.obj
 0001:00082f30       ??__F?kHeaderServer@Http@OpenHome@@2VBrn@2@B@@YAXXZ 00483f30 f   libohNetCore:Http.obj
 0001:00082f50       ??__F?kHeaderVary@Http@OpenHome@@2VBrn@2@B@@YAXXZ 00483f50 f   libohNetCore:Http.obj
 0001:00082f70       ??__F?kHeaderWwwAuthenticate@Http@OpenHome@@2VBrn@2@B@@YAXXZ 00483f70 f   libohNetCore:Http.obj
 0001:00082f90       ??__F?kHeaderAllow@Http@OpenHome@@2VBrn@2@B@@YAXXZ 00483f90 f   libohNetCore:Http.obj
 0001:00082fb0       ??__F?kHeaderContentEncoding@Http@OpenHome@@2VBrn@2@B@@YAXXZ 00483fb0 f   libohNetCore:Http.obj
 0001:00082fd0       ??__F?kHeaderContentLanguage@Http@OpenHome@@2VBrn@2@B@@YAXXZ 00483fd0 f   libohNetCore:Http.obj
 0001:00082ff0       ??__F?kHeaderContentLength@Http@OpenHome@@2VBrn@2@B@@YAXXZ 00483ff0 f   libohNetCore:Http.obj
 0001:00083010       ??__F?kHeaderContentLocation@Http@OpenHome@@2VBrn@2@B@@YAXXZ 00484010 f   libohNetCore:Http.obj
 0001:00083030       ??__F?kHeaderContentMd5@Http@OpenHome@@2VBrn@2@B@@YAXXZ 00484030 f   libohNetCore:Http.obj
 0001:00083050       ??__F?kHeaderContentRange@Http@OpenHome@@2VBrn@2@B@@YAXXZ 00484050 f   libohNetCore:Http.obj
 0001:00083070       ??__F?kHeaderContentType@Http@OpenHome@@2VBrn@2@B@@YAXXZ 00484070 f   libohNetCore:Http.obj
 0001:00083090       ??__F?kHeaderExpires@Http@OpenHome@@2VBrn@2@B@@YAXXZ 00484090 f   libohNetCore:Http.obj
 0001:000830b0       ??__F?kHeaderLastModified@Http@OpenHome@@2VBrn@2@B@@YAXXZ 004840b0 f   libohNetCore:Http.obj
 0001:000830d0       ??__F?kUriPrefix@Http@OpenHome@@2VBrn@2@B@@YAXXZ 004840d0 f   libohNetCore:Http.obj
 0001:000830f0       ??__F?kValueZero@Http@OpenHome@@2VBrn@2@B@@YAXXZ 004840f0 f   libohNetCore:Http.obj
 0001:00083110       ??__F?kHeaderSeparator@Http@OpenHome@@2VBrn@2@B@@YAXXZ 00484110 f   libohNetCore:Http.obj
 0001:00083130       ??__F?kHeaderTerminator@Http@OpenHome@@2VBrn@2@B@@YAXXZ 00484130 f   libohNetCore:Http.obj
 0001:00083150       ??__F?kChunkedCountSeparator@Http@OpenHome@@2VBrn@2@B@@YAXXZ 00484150 f   libohNetCore:Http.obj
 0001:00083170       ??__F?kConnectionClose@Http@OpenHome@@2VBrn@2@B@@YAXXZ 00484170 f   libohNetCore:Http.obj
 0001:00083190       ??__F?kConnectionUpgrade@Http@OpenHome@@2VBrn@2@B@@YAXXZ 00484190 f   libohNetCore:Http.obj
 0001:000831b0       ??__F?kContentLanguageEnglish@Http@OpenHome@@2VBrn@2@B@@YAXXZ 004841b0 f   libohNetCore:Http.obj
 0001:000831d0       ??__F?kRangeBytes@Http@OpenHome@@2VBrn@2@B@@YAXXZ 004841d0 f   libohNetCore:Http.obj
 0001:000831f0       ??__F?kRangeSeparator@Http@OpenHome@@2VBrn@2@B@@YAXXZ 004841f0 f   libohNetCore:Http.obj
 0001:00083210       ??__F?kExpect100Continue@Http@OpenHome@@2VBrn@2@B@@YAXXZ 00484210 f   libohNetCore:Http.obj
 0001:00083230       ??__F?kTransferEncodingChunked@Http@OpenHome@@2VBrn@2@B@@YAXXZ 00484230 f   libohNetCore:Http.obj
 0001:00083250       ??__F?kTransferEncodingIdentity@Http@OpenHome@@2VBrn@2@B@@YAXXZ 00484250 f   libohNetCore:Http.obj
 0001:00083270       ??__FkHttpVersion09@@YAXXZ 00484270 f   libohNetCore:Http.obj
 0001:00083290       ??__FkHttpVersion10@@YAXXZ 00484290 f   libohNetCore:Http.obj
 0001:000832b0       ??__FkHttpVersion11@@YAXXZ 004842b0 f   libohNetCore:Http.obj
 0001:000832d0       ??__FkRtspVersion10@@YAXXZ 004842d0 f   libohNetCore:Http.obj
 0001:000832f0       ??__F?kContinue@HttpStatus@OpenHome@@2V12@B@@YAXXZ 004842f0 f   libohNetCore:Http.obj
 0001:00083310       ??__F?kSwitchingProtocols@HttpStatus@OpenHome@@2V12@B@@YAXXZ 00484310 f   libohNetCore:Http.obj
 0001:00083330       ??__F?kOk@HttpStatus@OpenHome@@2V12@B@@YAXXZ 00484330 f   libohNetCore:Http.obj
 0001:00083350       ??__F?kCreated@HttpStatus@OpenHome@@2V12@B@@YAXXZ 00484350 f   libohNetCore:Http.obj
 0001:00083370       ??__F?kAccepted@HttpStatus@OpenHome@@2V12@B@@YAXXZ 00484370 f   libohNetCore:Http.obj
 0001:00083390       ??__F?kNonAuthoritativeInformation@HttpStatus@OpenHome@@2V12@B@@YAXXZ 00484390 f   libohNetCore:Http.obj
 0001:000833b0       ??__F?kNoContent@HttpStatus@OpenHome@@2V12@B@@YAXXZ 004843b0 f   libohNetCore:Http.obj
 0001:000833d0       ??__F?kResetContent@HttpStatus@OpenHome@@2V12@B@@YAXXZ 004843d0 f   libohNetCore:Http.obj
 0001:000833f0       ??__F?kPartialContent@HttpStatus@OpenHome@@2V12@B@@YAXXZ 004843f0 f   libohNetCore:Http.obj
 0001:00083410       ??__F?kMultipleChoices@HttpStatus@OpenHome@@2V12@B@@YAXXZ 00484410 f   libohNetCore:Http.obj
 0001:00083430       ??__F?kMovedPermanently@HttpStatus@OpenHome@@2V12@B@@YAXXZ 00484430 f   libohNetCore:Http.obj
 0001:00083450       ??__F?kFound@HttpStatus@OpenHome@@2V12@B@@YAXXZ 00484450 f   libohNetCore:Http.obj
 0001:00083470       ??__F?kSeeOther@HttpStatus@OpenHome@@2V12@B@@YAXXZ 00484470 f   libohNetCore:Http.obj
 0001:00083490       ??__F?kNotModified@HttpStatus@OpenHome@@2V12@B@@YAXXZ 00484490 f   libohNetCore:Http.obj
 0001:000834b0       ??__F?kUseProxy@HttpStatus@OpenHome@@2V12@B@@YAXXZ 004844b0 f   libohNetCore:Http.obj
 0001:000834d0       ??__F?kTemporaryRedirect@HttpStatus@OpenHome@@2V12@B@@YAXXZ 004844d0 f   libohNetCore:Http.obj
 0001:000834f0       ??__F?kBadRequest@HttpStatus@OpenHome@@2V12@B@@YAXXZ 004844f0 f   libohNetCore:Http.obj
 0001:00083510       ??__F?kUnauthorized@HttpStatus@OpenHome@@2V12@B@@YAXXZ 00484510 f   libohNetCore:Http.obj
 0001:00083530       ??__F?kPaymentRequired@HttpStatus@OpenHome@@2V12@B@@YAXXZ 00484530 f   libohNetCore:Http.obj
 0001:00083550       ??__F?kForbidden@HttpStatus@OpenHome@@2V12@B@@YAXXZ 00484550 f   libohNetCore:Http.obj
 0001:00083570       ??__F?kNotFound@HttpStatus@OpenHome@@2V12@B@@YAXXZ 00484570 f   libohNetCore:Http.obj
 0001:00083590       ??__F?kMethodNotAllowed@HttpStatus@OpenHome@@2V12@B@@YAXXZ 00484590 f   libohNetCore:Http.obj
 0001:000835b0       ??__F?kNotAcceptable@HttpStatus@OpenHome@@2V12@B@@YAXXZ 004845b0 f   libohNetCore:Http.obj
 0001:000835d0       ??__F?kProxyAuthenticationRequired@HttpStatus@OpenHome@@2V12@B@@YAXXZ 004845d0 f   libohNetCore:Http.obj
 0001:000835f0       ??__F?kRequestTimeout@HttpStatus@OpenHome@@2V12@B@@YAXXZ 004845f0 f   libohNetCore:Http.obj
 0001:00083610       ??__F?kConflict@HttpStatus@OpenHome@@2V12@B@@YAXXZ 00484610 f   libohNetCore:Http.obj
 0001:00083630       ??__F?kGone@HttpStatus@OpenHome@@2V12@B@@YAXXZ 00484630 f   libohNetCore:Http.obj
 0001:00083650       ??__F?kLengthRequired@HttpStatus@OpenHome@@2V12@B@@YAXXZ 00484650 f   libohNetCore:Http.obj
 0001:00083670       ??__F?kPreconditionFailed@HttpStatus@OpenHome@@2V12@B@@YAXXZ 00484670 f   libohNetCore:Http.obj
 0001:00083690       ??__F?kRequestEntityTooLarge@HttpStatus@OpenHome@@2V12@B@@YAXXZ 00484690 f   libohNetCore:Http.obj
 0001:000836b0       ??__F?kRequestUriTooLarge@HttpStatus@OpenHome@@2V12@B@@YAXXZ 004846b0 f   libohNetCore:Http.obj
 0001:000836d0       ??__F?kUnsupportedMediaType@HttpStatus@OpenHome@@2V12@B@@YAXXZ 004846d0 f   libohNetCore:Http.obj
 0001:000836f0       ??__F?kRequestedRangeNotSatisfiable@HttpStatus@OpenHome@@2V12@B@@YAXXZ 004846f0 f   libohNetCore:Http.obj
 0001:00083710       ??__F?kExpectationFailure@HttpStatus@OpenHome@@2V12@B@@YAXXZ 00484710 f   libohNetCore:Http.obj
 0001:00083730       ??__F?kInternalServerError@HttpStatus@OpenHome@@2V12@B@@YAXXZ 00484730 f   libohNetCore:Http.obj
 0001:00083750       ??__F?kNotImplemented@HttpStatus@OpenHome@@2V12@B@@YAXXZ 00484750 f   libohNetCore:Http.obj
 0001:00083770       ??__F?kBadGateway@HttpStatus@OpenHome@@2V12@B@@YAXXZ 00484770 f   libohNetCore:Http.obj
 0001:00083790       ??__F?kServiceUnavailable@HttpStatus@OpenHome@@2V12@B@@YAXXZ 00484790 f   libohNetCore:Http.obj
 0001:000837b0       ??__F?kGatewayTimeout@HttpStatus@OpenHome@@2V12@B@@YAXXZ 004847b0 f   libohNetCore:Http.obj
 0001:000837d0       ??__F?kHttpVersionNotSupported@HttpStatus@OpenHome@@2V12@B@@YAXXZ 004847d0 f   libohNetCore:Http.obj
 0001:000837f0       ??__FkAlive@@YAXXZ         004847f0 f   libohNetCore:Ssdp.obj
 0001:00083810       ??__FkByeBye@@YAXXZ        00484810 f   libohNetCore:Ssdp.obj
 0001:00083830       ??__FkMaxAge@@YAXXZ        00484830 f   libohNetCore:Ssdp.obj
 0001:00083850       ??__FkUuid@@YAXXZ          00484850 f   libohNetCore:Ssdp.obj
 0001:00083870       ??__FkUpnpRoot@@YAXXZ      00484870 f   libohNetCore:Ssdp.obj
 0001:00083890       ??__FkMsearchDiscover@@YAXXZ 00484890 f   libohNetCore:Ssdp.obj
 0001:000838b0       ??__FkMsearchAll@@YAXXZ    004848b0 f   libohNetCore:Ssdp.obj
 0001:000838d0       ??__FkMsearchUpnpRoot@@YAXXZ 004848d0 f   libohNetCore:Ssdp.obj
 0001:000838f0       ??__FkMsearchUuid@@YAXXZ   004848f0 f   libohNetCore:Ssdp.obj
 0001:00083910       ??__FkMsearchUrn@@YAXXZ    00484910 f   libohNetCore:Ssdp.obj
 0001:00083930       ??__FkMsearchDevice@@YAXXZ 00484930 f   libohNetCore:Ssdp.obj
 0001:00083950       ??__FkMsearchService@@YAXXZ 00484950 f   libohNetCore:Ssdp.obj
 0001:00083970       ??__FkUsnSeparator@@YAXXZ  00484970 f   libohNetCore:Ssdp.obj
 0001:00083990       ??__FkVersionSeparator@@YAXXZ 00484990 f   libohNetCore:Ssdp.obj
 0001:000839b0       ??__FkSsdpPortSeparator@@YAXXZ 004849b0 f   libohNetCore:Ssdp.obj
 0001:000839d0       ??__FkSsdpUrlSeparator@@YAXXZ 004849d0 f   libohNetCore:Ssdp.obj
 0001:000839f0       ??__FkSsdpHttp@@YAXXZ      004849f0 f   libohNetCore:Ssdp.obj
 0001:00083a10       ??__FkSsdpMaxAge@@YAXXZ    00484a10 f   libohNetCore:Ssdp.obj
 0001:00083a30       ??__FkSchemasUpnpOrg@@YAXXZ 00484a30 f   libohNetCore:Ssdp.obj
 0001:00083a50       ??__FkUpnpOrg@@YAXXZ       00484a50 f   libohNetCore:Ssdp.obj
 0001:00083a70       ??__F?kUrn@Ssdp@Net@OpenHome@@2VBrn@3@B@@YAXXZ 00484a70 f   libohNetCore:Ssdp.obj
 0001:00083a90       ??__F?kMulticastAddress@Ssdp@Net@OpenHome@@2VBrn@3@B@@YAXXZ 00484a90 f   libohNetCore:Ssdp.obj
 0001:00083ab0       ??__F?kMulticastAddressAndPort@Ssdp@Net@OpenHome@@2VBrn@3@B@@YAXXZ 00484ab0 f   libohNetCore:Ssdp.obj
 0001:00083ad0       ??__F?kMethodNotify@Ssdp@Net@OpenHome@@2VBrn@3@B@@YAXXZ 00484ad0 f   libohNetCore:Ssdp.obj
 0001:00083af0       ??__F?kMethodMsearch@Ssdp@Net@OpenHome@@2VBrn@3@B@@YAXXZ 00484af0 f   libohNetCore:Ssdp.obj
 0001:00083b10       ??__F?kMethodUri@Ssdp@Net@OpenHome@@2VBrn@3@B@@YAXXZ 00484b10 f   libohNetCore:Ssdp.obj
 0001:00083b30       ??__F?kStatusOk@Ssdp@Net@OpenHome@@2VBrn@3@B@@YAXXZ 00484b30 f   libohNetCore:Ssdp.obj
 0001:00083b50       ??__F?kHeaderHost@Ssdp@Net@OpenHome@@2VBrn@3@B@@YAXXZ 00484b50 f   libohNetCore:Ssdp.obj
 0001:00083b70       ??__F?kHeaderServer@Ssdp@Net@OpenHome@@2VBrn@3@B@@YAXXZ 00484b70 f   libohNetCore:Ssdp.obj
 0001:00083b90       ??__F?kHeaderCacheControl@Ssdp@Net@OpenHome@@2VBrn@3@B@@YAXXZ 00484b90 f   libohNetCore:Ssdp.obj
 0001:00083bb0       ??__F?kHeaderLocation@Ssdp@Net@OpenHome@@2VBrn@3@B@@YAXXZ 00484bb0 f   libohNetCore:Ssdp.obj
 0001:00083bd0       ??__F?kHeaderNt@Ssdp@Net@OpenHome@@2VBrn@3@B@@YAXXZ 00484bd0 f   libohNetCore:Ssdp.obj
 0001:00083bf0       ??__F?kHeaderSt@Ssdp@Net@OpenHome@@2VBrn@3@B@@YAXXZ 00484bf0 f   libohNetCore:Ssdp.obj
 0001:00083c10       ??__F?kHeaderUsn@Ssdp@Net@OpenHome@@2VBrn@3@B@@YAXXZ 00484c10 f   libohNetCore:Ssdp.obj
 0001:00083c30       ??__F?kHeaderNts@Ssdp@Net@OpenHome@@2VBrn@3@B@@YAXXZ 00484c30 f   libohNetCore:Ssdp.obj
 0001:00083c50       ??__F?kHeaderExt@Ssdp@Net@OpenHome@@2VBrn@3@B@@YAXXZ 00484c50 f   libohNetCore:Ssdp.obj
 0001:00083c70       ??__F?kHeaderMan@Ssdp@Net@OpenHome@@2VBrn@3@B@@YAXXZ 00484c70 f   libohNetCore:Ssdp.obj
 0001:00083c90       ??__F?kHeaderMx@Ssdp@Net@OpenHome@@2VBrn@3@B@@YAXXZ 00484c90 f   libohNetCore:Ssdp.obj
 0001:00083cb0       ??__F?kHeaderBootId@Ssdp@Net@OpenHome@@2VBrn@3@B@@YAXXZ 00484cb0 f   libohNetCore:Ssdp.obj
 0001:00083cd0       ??__F?kHeaderNextBootId@Ssdp@Net@OpenHome@@2VBrn@3@B@@YAXXZ 00484cd0 f   libohNetCore:Ssdp.obj
 0001:00083cf0       ??__F?kHeaderConfigId@Ssdp@Net@OpenHome@@2VBrn@3@B@@YAXXZ 00484cf0 f   libohNetCore:Ssdp.obj
 0001:00083d10       ??__F?kHeaderSearchPort@Ssdp@Net@OpenHome@@2VBrn@3@B@@YAXXZ 00484d10 f   libohNetCore:Ssdp.obj
 0001:00083d30       ??__F?kDeviceSeparator@Ssdp@Net@OpenHome@@2VBrn@3@B@@YAXXZ 00484d30 f   libohNetCore:Ssdp.obj
 0001:00083d50       ??__F?kServiceSeparator@Ssdp@Net@OpenHome@@2VBrn@3@B@@YAXXZ 00484d50 f   libohNetCore:Ssdp.obj
 0001:00083d70       ??__Finitlocks@std@@YAXXZ  00484d70 f   libcpmtd:xlock.obj
 0001:00083d90       ??__Fnomem@?5???2@YAPAXI@Z@YAXXZ 00484d90 f   LIBCMTD:new.obj
