 TestTopology

 Timestamp is 4e1c1b91 (Tue Jul 12 11:01:53 2011)

 Preferred load address is 00400000

 Start         Length     Name                   Class
 0001:00000000 000d2a7cH .text                   CODE
 0001:000d2a80 0000e623H .text$x                 CODE
 0001:000e10b0 0000378eH .text$yc                CODE
 0001:000e4840 00001691H .text$yd                CODE
 0002:00000000 000001e4H .idata$5                DATA
 0002:000001e4 00000004H .CRT$XCA                DATA
 0002:000001e8 00000004H .CRT$XCC                DATA
 0002:000001ec 000002c0H .CRT$XCU                DATA
 0002:000004ac 00000004H .CRT$XCZ                DATA
 0002:000004b0 00000004H .CRT$XIA                DATA
 0002:000004b4 00000010H .CRT$XIC                DATA
 0002:000004c4 00000004H .CRT$XIY                DATA
 0002:000004c8 00000004H .CRT$XIZ                DATA
 0002:000004cc 00000004H .CRT$XPA                DATA
 0002:000004d0 00000008H .CRT$XPX                DATA
 0002:000004d8 00000004H .CRT$XPXA               DATA
 0002:000004dc 00000004H .CRT$XPZ                DATA
 0002:000004e0 00000004H .CRT$XTA                DATA
 0002:000004e4 00000004H .CRT$XTZ                DATA
 0002:000004f0 0001de20H .rdata                  DATA
 0002:0001e310 00000053H .rdata$debug            DATA
 0002:0001e364 00004a4cH .rdata$r                DATA
 0002:00022db0 0000100cH .rdata$sxdata           DATA
 0002:00023dbc 00000004H .rtc$IAA                DATA
 0002:00023dc0 000000c4H .rtc$IMZ                DATA
 0002:00023e84 00000004H .rtc$IZZ                DATA
 0002:00023e88 00000004H .rtc$TAA                DATA
 0002:00023e8c 000000c4H .rtc$TMZ                DATA
 0002:00023f50 00000004H .rtc$TZZ                DATA
 0002:00023f58 0001000cH .xdata$x                DATA
 0002:00033f64 0000003cH .idata$2                DATA
 0002:00033fa0 00000014H .idata$3                DATA
 0002:00033fb4 000001e4H .idata$4                DATA
 0002:00034198 00000776H .idata$6                DATA
 0002:00034910 00001d36H .edata                  DATA
 0003:00000000 00003680H .data                   DATA
 0003:00003680 000032acH .bss                    DATA

  Address         Publics by Value              Rva+Base       Lib:Object

 0000:00000000       __except_list              00000000     <absolute>
 0000:00000403       ___safe_se_handler_count   00000403     <absolute>
 0000:00000000       ___ImageBase               00400000     <linker-defined>
 0001:00000010       ?SetSourceIndex@TestDevice@@UAEXI@Z 00401010 f   TestTopology.obj
 0001:00000030       ?SetStandby@TestDevice@@UAEX_N@Z 00401030 f   TestTopology.obj
 0001:00000050       ??0TestEntry@@QAE@ABVBrx@OpenHome@@00@Z 00401050 f   TestTopology.obj
 0001:000000e0       ?Check@TestEntry@@QAE_NABVBrx@OpenHome@@00@Z 004010e0 f   TestTopology.obj
 0001:00000220       ?Print@TestEntry@@QBEXPBD@Z 00401220 f   TestTopology.obj
 0001:000002b0       ??0TestRoom@@QAE@ABVBrx@OpenHome@@@Z 004012b0 f   TestTopology.obj
 0001:00000360       ?AddSource@TestRoom@@QAEXABVBrx@OpenHome@@0_N@Z 00401360 f   TestTopology.obj
 0001:000003e0       ?Name@TestRoom@@QBEABVBrx@OpenHome@@XZ 004013e0 f   TestTopology.obj
 0001:00000400       ?SourceCount@TestRoom@@QBEIXZ 00401400 f   TestTopology.obj
 0001:00000420       ?SourceName@TestRoom@@QBEABVBrx@OpenHome@@I@Z 00401420 f   TestTopology.obj
 0001:00000450       ?SourceType@TestRoom@@QBEABVBrx@OpenHome@@I@Z 00401450 f   TestTopology.obj
 0001:00000480       ??0TestTopology3Handler@@QAE@XZ 00401480 f   TestTopology.obj
 0001:00000500       ?CheckRoomAdded@TestTopology3Handler@@QAE_NABVTestRoom@@@Z 00401500 f   TestTopology.obj
 0001:000006e0       ?CheckRoomChanged@TestTopology3Handler@@QAE_NABVTestRoom@@@Z 004016e0 f   TestTopology.obj
 0001:000008c0       ?CheckRoomRemoved@TestTopology3Handler@@QAE_NABVTestRoom@@@Z 004018c0 f   TestTopology.obj
 0001:00000970       ?CheckRoomSourceChanged@TestTopology3Handler@@QAE_NABVTestRoom@@ABVBrx@OpenHome@@@Z 00401970 f   TestTopology.obj
 0001:00000a20       ?CheckComplete@TestTopology3Handler@@QAE_NXZ 00401a20 f   TestTopology.obj
 0001:00000a60       ?Add@TestTopology3Handler@@AAEXABVBrx@OpenHome@@00@Z 00401a60 f   TestTopology.obj
 0001:00000b30       ?Check@TestTopology3Handler@@AAE_NABVBrx@OpenHome@@00@Z 00401b30 f   TestTopology.obj
 0001:00000bc0       ?RoomAdded@TestTopology3Handler@@EAEXAAVCpTopology3Room@Net@OpenHome@@@Z 00401bc0 f   TestTopology.obj
 0001:00000d30       ?RoomChanged@TestTopology3Handler@@EAEXAAVCpTopology3Room@Net@OpenHome@@@Z 00401d30 f   TestTopology.obj
 0001:00000ea0       ?RoomRemoved@TestTopology3Handler@@EAEXAAVCpTopology3Room@Net@OpenHome@@@Z 00401ea0 f   TestTopology.obj
 0001:00000f50       ?RoomStandbyChanged@TestTopology3Handler@@EAEXAAVCpTopology3Room@Net@OpenHome@@@Z 00401f50 f   TestTopology.obj
 0001:00001110       ?RoomSourceChanged@TestTopology3Handler@@EAEXAAVCpTopology3Room@Net@OpenHome@@@Z 00402110 f   TestTopology.obj
 0001:000011c0       ?RoomVolumeControlChanged@TestTopology3Handler@@EAEXAAVCpTopology3Room@Net@OpenHome@@@Z 004021c0 f   TestTopology.obj
 0001:00001310       ?Main@Runner@TestFramework@OpenHome@@SGXHQAPADPAVInitialisationParams@Net@3@@Z 00402310 f   TestTopology.obj
 0001:00004a40       ??1?$Bws@$0GE@@OpenHome@@UAE@XZ 00405a40 f i TestTopology.obj
 0001:00004a70       ??1Bwx@OpenHome@@UAE@XZ    00405a70 f i TestTopology.obj
 0001:00004aa0       ??1Brx@OpenHome@@UAE@XZ    00405aa0 f i TestTopology.obj
 0001:00004ac0       ??_EBrx@OpenHome@@UAEPAXI@Z 00405ac0 f i TestTopology.obj
 0001:00004ac0       ??_GBrx@OpenHome@@UAEPAXI@Z 00405ac0 f i TestTopology.obj
 0001:00004b00       ??8Brx@OpenHome@@QBE_NABV01@@Z 00405b00 f i TestTopology.obj
 0001:00004b30       ??1TestEntry@@QAE@XZ       00405b30 f i TestTopology.obj
 0001:00004bb0       ??1ICpTopology3Handler@Net@OpenHome@@QAE@XZ 00405bb0 f i TestTopology.obj
 0001:00004bd0       ??0ICpTopology3Handler@Net@OpenHome@@QAE@XZ 00405bd0 f i TestTopology.obj
 0001:00004bf0       ??1Brn@OpenHome@@UAE@XZ    00405bf0 f i TestTopology.obj
 0001:00004c20       ??1?$Bws@$09@OpenHome@@UAE@XZ 00405c20 f i TestTopology.obj
 0001:00004c50       ??_GTestEntry@@QAEPAXI@Z   00405c50 f i TestTopology.obj
 0001:00004c90       ??0TestDevice@@QAE@XZ      00405c90 f i TestTopology.obj
 0001:00004cc0       ??1TestDevice@@QAE@XZ      00405cc0 f i TestTopology.obj
 0001:00004cf0       ??1ICpTopology2GroupHandler@Net@OpenHome@@QAE@XZ 00405cf0 f i TestTopology.obj
 0001:00004d10       ??1TestTopology3Handler@@QAE@XZ 00405d10 f i TestTopology.obj
 0001:00004d80       ??0ICpTopology2GroupHandler@Net@OpenHome@@QAE@XZ 00405d80 f i TestTopology.obj
 0001:00004da0       ??0?$Fifo@PAVTestEntry@@@OpenHome@@QAE@I@Z 00405da0 f i TestTopology.obj
 0001:00004e40       ??1?$Fifo@PAVTestEntry@@@OpenHome@@QAE@XZ 00405e40 f i TestTopology.obj
 0001:00004e90       ??1FifoBase@OpenHome@@QAE@XZ 00405e90 f i TestTopology.obj
 0001:00004f10       ??0?$Bws@$0GE@@OpenHome@@QAE@ABVBrx@1@@Z 00405f10 f i TestTopology.obj
 0001:00004f90       ??0?$Bws@$0GE@@OpenHome@@QAE@XZ 00405f90 f i TestTopology.obj
 0001:00004fd0       ?Ptr@?$Bws@$0GE@@OpenHome@@UBEPBEXZ 00405fd0 f i TestTopology.obj
 0001:00004ff0       ?Write@?$Fifo@PAVTestEntry@@@OpenHome@@QAEXPAVTestEntry@@@Z 00405ff0 f i TestTopology.obj
 0001:00005020       ?Read@?$Fifo@PAVTestEntry@@@OpenHome@@QAEPAVTestEntry@@XZ 00406020 f i TestTopology.obj
 0001:00005050       ??0?$Bws@$09@OpenHome@@QAE@XZ 00406050 f i TestTopology.obj
 0001:00005090       ?Ptr@?$Bws@$09@OpenHome@@UBEPBEXZ 00406090 f i TestTopology.obj
 0001:000050b0       ??_E?$Bws@$0GE@@OpenHome@@UAEPAXI@Z 004060b0 f i TestTopology.obj
 0001:000050b0       ??_G?$Bws@$0GE@@OpenHome@@UAEPAXI@Z 004060b0 f i TestTopology.obj
 0001:000050f0       ??_E?$Bws@$09@OpenHome@@UAEPAXI@Z 004060f0 f i TestTopology.obj
 0001:000050f0       ??_G?$Bws@$09@OpenHome@@UAEPAXI@Z 004060f0 f i TestTopology.obj
 0001:00005130       ?Write@?$Fifo@PAVTestEntry@@@OpenHome@@QAEXPAVTestEntry@@I@Z 00406130 f i TestTopology.obj
 0001:00005170       ?Read@?$Fifo@PAVTestEntry@@@OpenHome@@QAEPAVTestEntry@@I@Z 00406170 f i TestTopology.obj
 0001:000051c0       ??0CpTopologyRoom@@QAE@AAVCpTopology3Room@Net@OpenHome@@@Z 004061c0 f   CpTopology.obj
 0001:00005260       ?AddRef@CpTopologyRoom@@UAEXXZ 00406260 f   CpTopology.obj
 0001:00005290       ?RemoveRef@CpTopologyRoom@@UAEXXZ 00406290 f   CpTopology.obj
 0001:00005310       ??1CpTopologyRoom@@UAE@XZ  00406310 f   CpTopology.obj
 0001:00005380       ?Standby@CpTopologyRoom@@UBE?AW4EStandby@IRoom@Net@OpenHome@@XZ 00406380 f   CpTopology.obj
 0001:000053b0       ?SetStandby@CpTopologyRoom@@UAEX_N@Z 004063b0 f   CpTopology.obj
 0001:000053e0       ?Name@CpTopologyRoom@@UBEABVBrx@OpenHome@@XZ 004063e0 f   CpTopology.obj
 0001:00005410       ?SourceCount@CpTopologyRoom@@UBEIXZ 00406410 f   CpTopology.obj
 0001:00005440       ?SourceName@CpTopologyRoom@@UBEABVBrx@OpenHome@@I@Z 00406440 f   CpTopology.obj
 0001:00005470       ?SourceType@CpTopologyRoom@@UBEABVBrx@OpenHome@@I@Z 00406470 f   CpTopology.obj
 0001:000054a0       ?SourceGroup@CpTopologyRoom@@UBEABVBrx@OpenHome@@I@Z 004064a0 f   CpTopology.obj
 0001:000054d0       ?SourceDevice@CpTopologyRoom@@UBEAAVCpDevice@Net@OpenHome@@I@Z 004064d0 f   CpTopology.obj
 0001:00005500       ?CurrentSourceName@CpTopologyRoom@@UBEABVBrx@OpenHome@@XZ 00406500 f   CpTopology.obj
 0001:00005530       ?CurrentSourceType@CpTopologyRoom@@UBEABVBrx@OpenHome@@XZ 00406530 f   CpTopology.obj
 0001:00005560       ?CurrentSourceGroup@CpTopologyRoom@@UBEABVBrx@OpenHome@@XZ 00406560 f   CpTopology.obj
 0001:00005590       ?CurrentSourceDevice@CpTopologyRoom@@UBEAAVCpDevice@Net@OpenHome@@XZ 00406590 f   CpTopology.obj
 0001:000055c0       ?SetSourceIndex@CpTopologyRoom@@UAEXI@Z 004065c0 f   CpTopology.obj
 0001:000055f0       ?HasVolumeControl@CpTopologyRoom@@UBE_NXZ 004065f0 f   CpTopology.obj
 0001:00005620       ?VolumeDevice@CpTopologyRoom@@UBEAAVCpDevice@Net@OpenHome@@XZ 00406620 f   CpTopology.obj
 0001:00005650       ?SetUserData@CpTopologyRoom@@UAEXPAX@Z 00406650 f   CpTopology.obj
 0001:00005670       ?UserData@CpTopologyRoom@@UBEPAXXZ 00406670 f   CpTopology.obj
 0001:00005690       ??0CpTopology@@QAE@AAVIHouseHandler@Net@OpenHome@@@Z 00406690 f   CpTopology.obj
 0001:00005790       ??1CpTopology@@UAE@XZ      00406790 f   CpTopology.obj
 0001:00005860       ?Refresh@CpTopology@@EAEXXZ 00406860 f   CpTopology.obj
 0001:00005890       ?RoomAdded@CpTopology@@EAEXAAVCpTopology3Room@Net@OpenHome@@@Z 00406890 f   CpTopology.obj
 0001:00005960       ?RoomChanged@CpTopology@@EAEXAAVCpTopology3Room@Net@OpenHome@@@Z 00406960 f   CpTopology.obj
 0001:000059b0       ?RoomRemoved@CpTopology@@EAEXAAVCpTopology3Room@Net@OpenHome@@@Z 004069b0 f   CpTopology.obj
 0001:00005a20       ?RoomStandbyChanged@CpTopology@@EAEXAAVCpTopology3Room@Net@OpenHome@@@Z 00406a20 f   CpTopology.obj
 0001:00005a70       ?RoomSourceChanged@CpTopology@@EAEXAAVCpTopology3Room@Net@OpenHome@@@Z 00406a70 f   CpTopology.obj
 0001:00005ac0       ?RoomVolumeControlChanged@CpTopology@@EAEXAAVCpTopology3Room@Net@OpenHome@@@Z 00406ac0 f   CpTopology.obj
 0001:00005b10       ??0House@Net@OpenHome@@QAE@AAVIHouseHandler@12@@Z 00406b10 f   CpTopology.obj
 0001:00005bc0       ?Refresh@House@Net@OpenHome@@QAEXXZ 00406bc0 f   CpTopology.obj
 0001:00005c00       ??1House@Net@OpenHome@@QAE@XZ 00406c00 f   CpTopology.obj
 0001:00005c70       ??1IRoom@Net@OpenHome@@UAE@XZ 00406c70 f i CpTopology.obj
 0001:00005c90       ??_EIRoom@Net@OpenHome@@UAEPAXI@Z 00406c90 f i CpTopology.obj
 0001:00005c90       ??_GIRoom@Net@OpenHome@@UAEPAXI@Z 00406c90 f i CpTopology.obj
 0001:00005cd0       ??_ECpTopologyRoom@@UAEPAXI@Z 00406cd0 f i CpTopology.obj
 0001:00005cd0       ??_GCpTopologyRoom@@UAEPAXI@Z 00406cd0 f i CpTopology.obj
 0001:00005d10       ??0IRoom@Net@OpenHome@@QAE@XZ 00406d10 f i CpTopology.obj
 0001:00005d50       ??0INonCopyable@OpenHome@@IAE@XZ 00406d50 f i CpTopology.obj
 0001:00005d70       ??1IHouse@Net@OpenHome@@UAE@XZ 00406d70 f i CpTopology.obj
 0001:00005d90       ??_EIHouse@Net@OpenHome@@UAEPAXI@Z 00406d90 f i CpTopology.obj
 0001:00005d90       ??_GIHouse@Net@OpenHome@@UAEPAXI@Z 00406d90 f i CpTopology.obj
 0001:00005dd0       ??_ECpTopology@@UAEPAXI@Z  00406dd0 f i CpTopology.obj
 0001:00005dd0       ??_GCpTopology@@UAEPAXI@Z  00406dd0 f i CpTopology.obj
 0001:00005e10       ??0IHouse@Net@OpenHome@@QAE@XZ 00406e10 f i CpTopology.obj
 0001:00005e60       ??0CpTopology1Job@Net@OpenHome@@QAE@AAVICpTopology1Handler@12@@Z 00406e60 f   CpTopology1.obj
 0001:00005ea0       ?Set@CpTopology1Job@Net@OpenHome@@QAEXAAVCpDevice@23@P8ICpTopology1Handler@23@AEX0@Z@Z 00406ea0 f   CpTopology1.obj
 0001:00005ee0       ?Execute@CpTopology1Job@Net@OpenHome@@UAEXXZ 00406ee0 f   CpTopology1.obj
 0001:00005fe0       ??0CpTopology1@Net@OpenHome@@QAE@AAVICpTopology1Handler@12@@Z 00406fe0 f   CpTopology1.obj
 0001:000063d0       ??1CpTopology1@Net@OpenHome@@QAE@XZ 004073d0 f   CpTopology1.obj
 0001:00006510       ?Refresh@CpTopology1@Net@OpenHome@@QAEXXZ 00407510 f   CpTopology1.obj
 0001:00006540       ?ProductAdded@CpTopology1@Net@OpenHome@@AAEXAAVCpDevice@23@@Z 00407540 f   CpTopology1.obj
 0001:000065f0       ?ProductRemoved@CpTopology1@Net@OpenHome@@AAEXAAVCpDevice@23@@Z 004075f0 f   CpTopology1.obj
 0001:000066a0       ?Run@CpTopology1@Net@OpenHome@@AAEXXZ 004076a0 f   CpTopology1.obj
 0001:00006770       ??0ThreadKill@OpenHome@@QAE@PBDI@Z 00407770 f i CpTopology1.obj
 0001:000067b0       ??1ThreadKill@OpenHome@@QAE@XZ 004077b0 f i CpTopology1.obj
 0001:000067e0       ??_GCpDeviceListUpnpServiceType@Net@OpenHome@@QAEPAXI@Z 004077e0 f i CpTopology1.obj
 0001:00006820       ??1CpDeviceListUpnpServiceType@Net@OpenHome@@QAE@XZ 00407820 f i CpTopology1.obj
 0001:00006850       ??0?$Fifo@PAVCpTopology1Job@Net@OpenHome@@@OpenHome@@QAE@I@Z 00407850 f i CpTopology1.obj
 0001:000068f0       ??1?$Fifo@PAVCpTopology1Job@Net@OpenHome@@@OpenHome@@QAE@XZ 004078f0 f i CpTopology1.obj
 0001:00006940       ?Write@?$Fifo@PAVCpTopology1Job@Net@OpenHome@@@OpenHome@@QAEXPAVCpTopology1Job@Net@2@@Z 00407940 f i CpTopology1.obj
 0001:00006970       ?Read@?$Fifo@PAVCpTopology1Job@Net@OpenHome@@@OpenHome@@QAEPAVCpTopology1Job@Net@2@XZ 00407970 f i CpTopology1.obj
 0001:000069a0       ??$MakeFunctorCpDevice@VCpTopology1@Net@OpenHome@@V123@@Net@OpenHome@@YG?AV?$MemberTranslatorCpDevice@VCpTopology1@Net@OpenHome@@P8123@AEXAAVCpDevice@23@@Z@01@AAVCpTopology1@01@ABQ8301@AEXAAVCpDevice@01@@Z@Z 004079a0 f i CpTopology1.obj
 0001:000069d0       ??$MakeFunctor@VCpTopology1@Net@OpenHome@@XV123@@OpenHome@@YG?AV?$MemberTranslator@VCpTopology1@Net@OpenHome@@P8123@AEXXZ@0@AAVCpTopology1@Net@0@ABQ8230@AEXXZ@Z 004079d0 f i CpTopology1.obj
 0001:00006a00       ??0?$MemberTranslatorCpDevice@VCpTopology1@Net@OpenHome@@P8123@AEXAAVCpDevice@23@@Z@Net@OpenHome@@QAE@AAVCpTopology1@12@ABQ8312@AEXAAVCpDevice@12@@Z@Z 00407a00 f i CpTopology1.obj
 0001:00006a40       ??0FunctorCpDevice@Net@OpenHome@@IAE@P6GXABV012@AAVCpDevice@12@@ZPBX3I@Z 00407a40 f i CpTopology1.obj
 0001:00006a90       ??0?$MemberTranslator@VCpTopology1@Net@OpenHome@@P8123@AEXXZ@OpenHome@@QAE@AAVCpTopology1@Net@1@ABQ8231@AEXXZ@Z 00407a90 f i CpTopology1.obj
 0001:00006ad0       ??0Functor@OpenHome@@IAE@P6GXABV01@@ZPBX2I@Z 00407ad0 f i CpTopology1.obj
 0001:00006b20       ?Thunk@?$MemberTranslatorCpDevice@VCpTopology1@Net@OpenHome@@P8123@AEXAAVCpDevice@23@@Z@Net@OpenHome@@SGXABVFunctorCpDevice@23@AAVCpDevice@23@@Z 00407b20 f i CpTopology1.obj
 0001:00006b70       ?Thunk@?$MemberTranslator@VCpTopology1@Net@OpenHome@@P8123@AEXXZ@OpenHome@@SGXABVFunctor@2@@Z 00407b70 f i CpTopology1.obj
 0001:00006bc0       ?Write@?$Fifo@PAVCpTopology1Job@Net@OpenHome@@@OpenHome@@QAEXPAVCpTopology1Job@Net@2@I@Z 00407bc0 f i CpTopology1.obj
 0001:00006c00       ?Read@?$Fifo@PAVCpTopology1Job@Net@OpenHome@@@OpenHome@@QAEPAVCpTopology1Job@Net@2@I@Z 00407c00 f i CpTopology1.obj
 0001:00006c50       ??_9ICpTopology1Handler@Net@OpenHome@@$BA@AE 00407c50 f i CpTopology1.obj
 0001:00006c60       ??_9ICpTopology1Handler@Net@OpenHome@@$B3AE 00407c60 f i CpTopology1.obj
 0001:00006c70       ??0CpTopology2Source@Net@OpenHome@@AAE@ABVBrx@2@0_N@Z 00407c70 f   CpTopology2.obj
 0001:00006cf0       ?Name@CpTopology2Source@Net@OpenHome@@ABEABVBrx@3@XZ 00407cf0 f   CpTopology2.obj
 0001:00006d10       ?Type@CpTopology2Source@Net@OpenHome@@ABEABVBrx@3@XZ 00407d10 f   CpTopology2.obj
 0001:00006d30       ?Visible@CpTopology2Source@Net@OpenHome@@ABE_NXZ 00407d30 f   CpTopology2.obj
 0001:00006d50       ?Update@CpTopology2Source@Net@OpenHome@@AAEXABVBrx@3@0_N@Z 00407d50 f   CpTopology2.obj
 0001:00006da0       ??0CpTopology2Group@Net@OpenHome@@QAE@AAVCpDevice@12@AAVICpTopology2GroupHandler@12@_NABVBrx@2@3I2@Z 00407da0 f   CpTopology2.obj
 0001:00006e80       ??1CpTopology2Group@Net@OpenHome@@QAE@XZ 00407e80 f   CpTopology2.obj
 0001:00006f10       ?AddSource@CpTopology2Group@Net@OpenHome@@QAEXABVBrx@3@0_N@Z 00407f10 f   CpTopology2.obj
 0001:00006fd0       ?UpdateRoom@CpTopology2Group@Net@OpenHome@@QAEXABVBrx@3@@Z 00407fd0 f   CpTopology2.obj
 0001:00007000       ?UpdateName@CpTopology2Group@Net@OpenHome@@QAEXABVBrx@3@@Z 00408000 f   CpTopology2.obj
 0001:00007030       ?UpdateSourceIndex@CpTopology2Group@Net@OpenHome@@QAEXI@Z 00408030 f   CpTopology2.obj
 0001:00007050       ?UpdateStandby@CpTopology2Group@Net@OpenHome@@QAEX_N@Z 00408050 f   CpTopology2.obj
 0001:00007070       ?UpdateSource@CpTopology2Group@Net@OpenHome@@QAEXIABVBrx@3@0_N@Z 00408070 f   CpTopology2.obj
 0001:000070c0       ?AddRef@CpTopology2Group@Net@OpenHome@@QAEXXZ 004080c0 f   CpTopology2.obj
 0001:000070f0       ?RemoveRef@CpTopology2Group@Net@OpenHome@@QAEXXZ 004080f0 f   CpTopology2.obj
 0001:00007160       ?Device@CpTopology2Group@Net@OpenHome@@QBEAAVCpDevice@23@XZ 00408160 f   CpTopology2.obj
 0001:00007180       ?SourceCount@CpTopology2Group@Net@OpenHome@@QBEIXZ 00408180 f   CpTopology2.obj
 0001:000071b0       ?SourceIndex@CpTopology2Group@Net@OpenHome@@QBEIXZ 004081b0 f   CpTopology2.obj
 0001:000071d0       ?Standby@CpTopology2Group@Net@OpenHome@@QBE_NXZ 004081d0 f   CpTopology2.obj
 0001:000071f0       ?SetSourceIndex@CpTopology2Group@Net@OpenHome@@QAEXI@Z 004081f0 f   CpTopology2.obj
 0001:00007250       ?SetStandby@CpTopology2Group@Net@OpenHome@@QAEX_N@Z 00408250 f   CpTopology2.obj
 0001:000072a0       ?Room@CpTopology2Group@Net@OpenHome@@QBEABVBrx@3@XZ 004082a0 f   CpTopology2.obj
 0001:000072c0       ?Name@CpTopology2Group@Net@OpenHome@@QBEABVBrx@3@XZ 004082c0 f   CpTopology2.obj
 0001:000072e0       ?SourceName@CpTopology2Group@Net@OpenHome@@QBEABVBrx@3@I@Z 004082e0 f   CpTopology2.obj
 0001:00007320       ?SourceType@CpTopology2Group@Net@OpenHome@@QBEABVBrx@3@I@Z 00408320 f   CpTopology2.obj
 0001:00007360       ?SourceVisible@CpTopology2Group@Net@OpenHome@@QBE_NI@Z 00408360 f   CpTopology2.obj
 0001:000073a0       ?HasVolumeControl@CpTopology2Group@Net@OpenHome@@QBE_NXZ 004083a0 f   CpTopology2.obj
 0001:000073c0       ?SetUserData@CpTopology2Group@Net@OpenHome@@QAEXPAX@Z 004083c0 f   CpTopology2.obj
 0001:000073e0       ?UserData@CpTopology2Group@Net@OpenHome@@QBEPAXXZ 004083e0 f   CpTopology2.obj
 0001:00007400       ??0CpTopology2Device@Net@OpenHome@@IAE@AAVCpDevice@12@@Z 00408400 f   CpTopology2.obj
 0001:00007490       ?IsAttachedTo@CpTopology2Device@Net@OpenHome@@QAE_NAAVCpDevice@23@@Z 00408490 f   CpTopology2.obj
 0001:000074d0       ??1CpTopology2Device@Net@OpenHome@@UAE@XZ 004084d0 f   CpTopology2.obj
 0001:00007540       ??0CpTopology2Product@Net@OpenHome@@QAE@AAVCpDevice@12@AAVICpTopology2Handler@12@@Z 00408540 f   CpTopology2.obj
 0001:00007740       ??1CpTopology2Product@Net@OpenHome@@UAE@XZ 00408740 f   CpTopology2.obj
 0001:00007850       ?EventProductInitialEvent@CpTopology2Product@Net@OpenHome@@AAEXXZ 00408850 f   CpTopology2.obj
 0001:00007e20       ?ProcessSourceXml@CpTopology2Product@Net@OpenHome@@AAEXABVBrx@3@_N@Z 00408e20 f   CpTopology2.obj
 0001:000080f0       ?EventProductRoomChanged@CpTopology2Product@Net@OpenHome@@AAEXXZ 004090f0 f   CpTopology2.obj
 0001:000082a0       ?EventProductNameChanged@CpTopology2Product@Net@OpenHome@@AAEXXZ 004092a0 f   CpTopology2.obj
 0001:00008450       ?EventProductStandbyChanged@CpTopology2Product@Net@OpenHome@@AAEXXZ 00409450 f   CpTopology2.obj
 0001:00008590       ?EventProductSourceIndexChanged@CpTopology2Product@Net@OpenHome@@AAEXXZ 00409590 f   CpTopology2.obj
 0001:000086d0       ?EventProductSourceXmlChanged@CpTopology2Product@Net@OpenHome@@AAEXXZ 004096d0 f   CpTopology2.obj
 0001:00008830       ?SetSourceIndex@CpTopology2Product@Net@OpenHome@@EAEXI@Z 00409830 f   CpTopology2.obj
 0001:00008870       ?CallbackSetSourceIndex@CpTopology2Product@Net@OpenHome@@AAEXAAVIAsync@23@@Z 00409870 f   CpTopology2.obj
 0001:000088a0       ?SetStandby@CpTopology2Product@Net@OpenHome@@EAEX_N@Z 004098a0 f   CpTopology2.obj
 0001:000088e0       ?CallbackSetStandby@CpTopology2Product@Net@OpenHome@@AAEXAAVIAsync@23@@Z 004098e0 f   CpTopology2.obj
 0001:00008910       ??0CpTopology2Job@Net@OpenHome@@QAE@AAVICpTopology2Handler@12@@Z 00409910 f   CpTopology2.obj
 0001:00008950       ?Set@CpTopology2Job@Net@OpenHome@@QAEXAAVCpTopology2Group@23@P8ICpTopology2Handler@23@AEX0@Z@Z 00409950 f   CpTopology2.obj
 0001:00008990       ?Execute@CpTopology2Job@Net@OpenHome@@UAEXXZ 00409990 f   CpTopology2.obj
 0001:00008a90       ??0CpTopology2@Net@OpenHome@@QAE@AAVICpTopology2Handler@12@@Z 00409a90 f   CpTopology2.obj
 0001:00008cb0       ??1CpTopology2@Net@OpenHome@@QAE@XZ 00409cb0 f   CpTopology2.obj
 0001:00008fa0       ?Refresh@CpTopology2@Net@OpenHome@@QAEXXZ 00409fa0 f   CpTopology2.obj
 0001:00008fd0       ?ProductAdded@CpTopology2@Net@OpenHome@@EAEXAAVCpDevice@23@@Z 00409fd0 f   CpTopology2.obj
 0001:000090a0       ?ProductRemoved@CpTopology2@Net@OpenHome@@EAEXAAVCpDevice@23@@Z 0040a0a0 f   CpTopology2.obj
 0001:000090d0       ?DeviceRemoved@CpTopology2@Net@OpenHome@@AAEXAAVCpDevice@23@@Z 0040a0d0 f   CpTopology2.obj
 0001:00009290       ?GroupAdded@CpTopology2@Net@OpenHome@@EAEXAAVCpTopology2Group@23@@Z 0040a290 f   CpTopology2.obj
 0001:00009380       ?GroupStandbyChanged@CpTopology2@Net@OpenHome@@EAEXAAVCpTopology2Group@23@@Z 0040a380 f   CpTopology2.obj
 0001:00009470       ?GroupSourceIndexChanged@CpTopology2@Net@OpenHome@@EAEXAAVCpTopology2Group@23@@Z 0040a470 f   CpTopology2.obj
 0001:00009560       ?GroupSourceListChanged@CpTopology2@Net@OpenHome@@EAEXAAVCpTopology2Group@23@@Z 0040a560 f   CpTopology2.obj
 0001:00009650       ?GroupRemoved@CpTopology2@Net@OpenHome@@EAEXAAVCpTopology2Group@23@@Z 0040a650 f   CpTopology2.obj
 0001:00009740       ?Run@CpTopology2@Net@OpenHome@@AAEXXZ 0040a740 f   CpTopology2.obj
 0001:00009880       ??1?$Bws@$0BE@@OpenHome@@UAE@XZ 0040a880 f i CpTopology2.obj
 0001:000098b0       ??_GCpTopology2Group@Net@OpenHome@@QAEPAXI@Z 0040a8b0 f i CpTopology2.obj
 0001:000098f0       ??_ECpTopology2Device@Net@OpenHome@@UAEPAXI@Z 0040a8f0 f i CpTopology2.obj
 0001:000098f0       ??_GCpTopology2Device@Net@OpenHome@@UAEPAXI@Z 0040a8f0 f i CpTopology2.obj
 0001:00009930       ??0FunctorAsync@Net@OpenHome@@QAE@XZ 0040a930 f i CpTopology2.obj
 0001:00009960       ??_GCpTopology2Product@Net@OpenHome@@UAEPAXI@Z 0040a960 f i CpTopology2.obj
 0001:00009960       ??_ECpTopology2Product@Net@OpenHome@@UAEPAXI@Z 0040a960 f i CpTopology2.obj
 0001:000099a0       ?Bytes@Brx@OpenHome@@QBEIXZ 0040a9a0 f i CpTopology2.obj
 0001:000099c0       ??0Brhz@OpenHome@@QAE@XZ   0040a9c0 f i CpTopology2.obj
 0001:000099f0       ??0Brv@OpenHome@@IAE@XZ    0040a9f0 f i CpTopology2.obj
 0001:00009a70       ??_EBrv@OpenHome@@UAEPAXI@Z 0040aa70 f i CpTopology2.obj
 0001:00009af0       ??0Brx@OpenHome@@IAE@I@Z   0040aaf0 f i CpTopology2.obj
 0001:00009b20       ??_GBrhz@OpenHome@@UAEPAXI@Z 0040ab20 f i CpTopology2.obj
 0001:00009b20       ??_EBrhz@OpenHome@@UAEPAXI@Z 0040ab20 f i CpTopology2.obj
 0001:00009b60       ??1Brhz@OpenHome@@UAE@XZ   0040ab60 f i CpTopology2.obj
 0001:00009b90       ??1Parser@OpenHome@@QAE@XZ 0040ab90 f i CpTopology2.obj
 0001:00009bc0       ??1ICpTopology1Handler@Net@OpenHome@@QAE@XZ 0040abc0 f i CpTopology2.obj
 0001:00009be0       ??1ICpTopology2Handler@Net@OpenHome@@QAE@XZ 0040abe0 f i CpTopology2.obj
 0001:00009c00       ??0ICpTopology1Handler@Net@OpenHome@@QAE@XZ 0040ac00 f i CpTopology2.obj
 0001:00009c20       ??0ICpTopology2Handler@Net@OpenHome@@QAE@XZ 0040ac20 f i CpTopology2.obj
 0001:00009c40       ??_GCpTopology1@Net@OpenHome@@QAEPAXI@Z 0040ac40 f i CpTopology2.obj
 0001:00009c80       ??1?$_Vector_iterator@V?$_Vector_val@PAVCpTopology2Device@Net@OpenHome@@V?$allocator@PAVCpTopology2Device@Net@OpenHome@@@std@@@std@@@std@@QAE@XZ 0040ac80 f i CpTopology2.obj
 0001:00009cb0       ??1?$_Vector_const_iterator@V?$_Vector_val@PAVCpTopology2Device@Net@OpenHome@@V?$allocator@PAVCpTopology2Device@Net@OpenHome@@@std@@@std@@@std@@QAE@XZ 0040acb0 f i CpTopology2.obj
 0001:00009ce0       ??1?$_Iterator012@Urandom_access_iterator_tag@std@@PAVCpTopology2Device@Net@OpenHome@@HPBQAV345@ABQAV345@U_Iterator_base12@2@@std@@QAE@XZ 0040ace0 f i CpTopology2.obj
 0001:00009d10       ??1_Iterator_base12@std@@QAE@XZ 0040ad10 f i CpTopology2.obj
 0001:00009dc0       ?_Orphan_me@_Iterator_base12@std@@QAEXXZ 0040adc0 f i CpTopology2.obj
 0001:00009e50       ??0?$_Vector_const_iterator@V?$_Vector_val@PAVCpTopology2Device@Net@OpenHome@@V?$allocator@PAVCpTopology2Device@Net@OpenHome@@@std@@@std@@@std@@QAE@ABV01@@Z 0040ae50 f i CpTopology2.obj
 0001:00009e90       ??0?$_Iterator012@Urandom_access_iterator_tag@std@@PAVCpTopology2Device@Net@OpenHome@@HPBQAV345@ABQAV345@U_Iterator_base12@2@@std@@QAE@ABU01@@Z 0040ae90 f i CpTopology2.obj
 0001:00009ec0       ??0_Iterator_base12@std@@QAE@ABU01@@Z 0040aec0 f i CpTopology2.obj
 0001:00009f00       ??4_Iterator_base12@std@@QAEAAU01@ABU01@@Z 0040af00 f i CpTopology2.obj
 0001:00009f40       ?_Adopt@_Iterator_base12@std@@QAEXPBU_Container_base12@2@@Z 0040af40 f i CpTopology2.obj
 0001:0000a030       ??0?$vector@PAVCpTopology2Source@Net@OpenHome@@V?$allocator@PAVCpTopology2Source@Net@OpenHome@@@std@@@std@@QAE@XZ 0040b030 f i CpTopology2.obj
 0001:0000a070       ?push_back@?$vector@PAVCpTopology2Source@Net@OpenHome@@V?$allocator@PAVCpTopology2Source@Net@OpenHome@@@std@@@std@@QAEX$$QAPAVCpTopology2Source@Net@OpenHome@@@Z 0040b070 f i CpTopology2.obj
 0001:0000a190       ??1?$vector@PAVCpTopology2Source@Net@OpenHome@@V?$allocator@PAVCpTopology2Source@Net@OpenHome@@@std@@@std@@QAE@XZ 0040b190 f i CpTopology2.obj
 0001:0000a200       ?size@?$vector@PAVCpTopology2Source@Net@OpenHome@@V?$allocator@PAVCpTopology2Source@Net@OpenHome@@@std@@@std@@QBEIXZ 0040b200 f i CpTopology2.obj
 0001:0000a230       ??A?$vector@PAVCpTopology2Source@Net@OpenHome@@V?$allocator@PAVCpTopology2Source@Net@OpenHome@@@std@@@std@@QBEABQAVCpTopology2Source@Net@OpenHome@@I@Z 0040b230 f i CpTopology2.obj
 0001:0000a2d0       ??A?$vector@PAVCpTopology2Source@Net@OpenHome@@V?$allocator@PAVCpTopology2Source@Net@OpenHome@@@std@@@std@@QAEAAPAVCpTopology2Source@Net@OpenHome@@I@Z 0040b2d0 f i CpTopology2.obj
 0001:0000a370       ??0?$Fifo@PAVCpTopology2Job@Net@OpenHome@@@OpenHome@@QAE@I@Z 0040b370 f i CpTopology2.obj
 0001:0000a410       ??1?$Fifo@PAVCpTopology2Job@Net@OpenHome@@@OpenHome@@QAE@XZ 0040b410 f i CpTopology2.obj
 0001:0000a460       ??0?$vector@PAVCpTopology2Device@Net@OpenHome@@V?$allocator@PAVCpTopology2Device@Net@OpenHome@@@std@@@std@@QAE@XZ 0040b460 f i CpTopology2.obj
 0001:0000a4a0       ?push_back@?$vector@PAVCpTopology2Device@Net@OpenHome@@V?$allocator@PAVCpTopology2Device@Net@OpenHome@@@std@@@std@@QAEX$$QAPAVCpTopology2Device@Net@OpenHome@@@Z 0040b4a0 f i CpTopology2.obj
 0001:0000a5c0       ??1?$vector@PAVCpTopology2Device@Net@OpenHome@@V?$allocator@PAVCpTopology2Device@Net@OpenHome@@@std@@@std@@QAE@XZ 0040b5c0 f i CpTopology2.obj
 0001:0000a630       ?begin@?$vector@PAVCpTopology2Device@Net@OpenHome@@V?$allocator@PAVCpTopology2Device@Net@OpenHome@@@std@@@std@@QAE?AV?$_Vector_iterator@V?$_Vector_val@PAVCpTopology2Device@Net@OpenHome@@V?$allocator@PAVCpTopology2Device@Net@OpenHome@@@std@@@std@@@2@XZ 0040b630 f i CpTopology2.obj
 0001:0000a680       ?end@?$vector@PAVCpTopology2Device@Net@OpenHome@@V?$allocator@PAVCpTopology2Device@Net@OpenHome@@@std@@@std@@QAE?AV?$_Vector_iterator@V?$_Vector_val@PAVCpTopology2Device@Net@OpenHome@@V?$allocator@PAVCpTopology2Device@Net@OpenHome@@@std@@@std@@@2@XZ 0040b680 f i CpTopology2.obj
 0001:0000a6d0       ?erase@?$vector@PAVCpTopology2Device@Net@OpenHome@@V?$allocator@PAVCpTopology2Device@Net@OpenHome@@@std@@@std@@QAE?AV?$_Vector_iterator@V?$_Vector_val@PAVCpTopology2Device@Net@OpenHome@@V?$allocator@PAVCpTopology2Device@Net@OpenHome@@@std@@@std@@@2@V?$_Vector_const_iterator@V?$_Vector_val@PAVCpTopology2Device@Net@OpenHome@@V?$allocator@PAVCpTopology2Device@Net@OpenHome@@@std@@@std@@@2@@Z 0040b6d0 f i CpTopology2.obj
 0001:0000a800       ?_Getcont@_Iterator_base12@std@@QBEPBU_Container_base12@2@XZ 0040b800 f i CpTopology2.obj
 0001:0000a840       ??D?$_Vector_iterator@V?$_Vector_val@PAVCpTopology2Device@Net@OpenHome@@V?$allocator@PAVCpTopology2Device@Net@OpenHome@@@std@@@std@@@std@@QBEAAPAVCpTopology2Device@Net@OpenHome@@XZ 0040b840 f i CpTopology2.obj
 0001:0000a870       ??E?$_Vector_iterator@V?$_Vector_val@PAVCpTopology2Device@Net@OpenHome@@V?$allocator@PAVCpTopology2Device@Net@OpenHome@@@std@@@std@@@std@@QAE?AV01@H@Z 0040b870 f i CpTopology2.obj
 0001:0000a940       ??9?$_Vector_const_iterator@V?$_Vector_val@PAVCpTopology2Device@Net@OpenHome@@V?$allocator@PAVCpTopology2Device@Net@OpenHome@@@std@@@std@@@std@@QBE_NABV01@@Z 0040b940 f i CpTopology2.obj
 0001:0000a980       ??0?$_Vector_iterator@V?$_Vector_val@PAVCpTopology2Device@Net@OpenHome@@V?$allocator@PAVCpTopology2Device@Net@OpenHome@@@std@@@std@@@std@@QAE@ABV01@@Z 0040b980 f i CpTopology2.obj
 0001:0000a9b0       ?_Inside@?$vector@PAVCpTopology2Source@Net@OpenHome@@V?$allocator@PAVCpTopology2Source@Net@OpenHome@@@std@@@std@@IBE_NPBQAVCpTopology2Source@Net@OpenHome@@@Z 0040b9b0 f i CpTopology2.obj
 0001:0000aa00       ?_Reserve@?$vector@PAVCpTopology2Source@Net@OpenHome@@V?$allocator@PAVCpTopology2Source@Net@OpenHome@@@std@@@std@@IAEXI@Z 0040ba00 f i CpTopology2.obj
 0001:0000aa80       ?_Tidy@?$vector@PAVCpTopology2Source@Net@OpenHome@@V?$allocator@PAVCpTopology2Source@Net@OpenHome@@@std@@@std@@IAEXXZ 0040ba80 f i CpTopology2.obj
 0001:0000ab10       ?_Orphan_all@_Container_base12@std@@QAEXXZ 0040bb10 f i CpTopology2.obj
 0001:0000abc0       ?_Orphan_range@?$vector@PAVCpTopology2Source@Net@OpenHome@@V?$allocator@PAVCpTopology2Source@Net@OpenHome@@@std@@@std@@IBEXPAPAVCpTopology2Source@Net@OpenHome@@0@Z 0040bbc0 f i CpTopology2.obj
 0001:0000acd0       ?_Getpfirst@_Container_base12@std@@QBEPAPAU_Iterator_base12@2@XZ 0040bcd0 f i CpTopology2.obj
 0001:0000ad10       ?_Clrcont@_Iterator_base12@std@@QAEXXZ 0040bd10 f i CpTopology2.obj
 0001:0000ad30       ?_Getpnext@_Iterator_base12@std@@QAEPAPAU12@XZ 0040bd30 f i CpTopology2.obj
 0001:0000ad50       ??0?$_Vector_val@PAVCpTopology2Source@Net@OpenHome@@V?$allocator@PAVCpTopology2Source@Net@OpenHome@@@std@@@std@@QAE@V?$allocator@PAVCpTopology2Source@Net@OpenHome@@@1@@Z 0040bd50 f i CpTopology2.obj
 0001:0000ae70       ??0_Container_proxy@std@@QAE@XZ 0040be70 f i CpTopology2.obj
 0001:0000aea0       ??0_Container_base12@std@@QAE@XZ 0040bea0 f i CpTopology2.obj
 0001:0000aec0       ??1_Container_base12@std@@QAE@XZ 0040bec0 f i CpTopology2.obj
 0001:0000aef0       ??1?$_Vector_val@PAVCpTopology2Source@Net@OpenHome@@V?$allocator@PAVCpTopology2Source@Net@OpenHome@@@std@@@std@@QAE@XZ 0040bef0 f i CpTopology2.obj
 0001:0000afd0       ??0?$allocator@PAVCpTopology2Source@Net@OpenHome@@@std@@QAE@XZ 0040bfd0 f i CpTopology2.obj
 0001:0000aff0       ?_Make_iter@?$vector@PAVCpTopology2Device@Net@OpenHome@@V?$allocator@PAVCpTopology2Device@Net@OpenHome@@@std@@@std@@QBE?AV?$_Vector_iterator@V?$_Vector_val@PAVCpTopology2Device@Net@OpenHome@@V?$allocator@PAVCpTopology2Device@Net@OpenHome@@@std@@@std@@@2@V?$_Vector_const_iterator@V?$_Vector_val@PAVCpTopology2Device@Net@OpenHome@@V?$allocator@PAVCpTopology2Device@Net@OpenHome@@@std@@@std@@@2@@Z 0040bff0 f i CpTopology2.obj
 0001:0000b080       ?_Destroy@?$vector@PAVCpTopology2Device@Net@OpenHome@@V?$allocator@PAVCpTopology2Device@Net@OpenHome@@@std@@@std@@IAEXPAPAVCpTopology2Device@Net@OpenHome@@0@Z 0040c080 f i CpTopology2.obj
 0001:0000b0c0       ?_Inside@?$vector@PAVCpTopology2Device@Net@OpenHome@@V?$allocator@PAVCpTopology2Device@Net@OpenHome@@@std@@@std@@IBE_NPBQAVCpTopology2Device@Net@OpenHome@@@Z 0040c0c0 f i CpTopology2.obj
 0001:0000b110       ?_Reserve@?$vector@PAVCpTopology2Device@Net@OpenHome@@V?$allocator@PAVCpTopology2Device@Net@OpenHome@@@std@@@std@@IAEXI@Z 0040c110 f i CpTopology2.obj
 0001:0000b190       ?_Tidy@?$vector@PAVCpTopology2Device@Net@OpenHome@@V?$allocator@PAVCpTopology2Device@Net@OpenHome@@@std@@@std@@IAEXXZ 0040c190 f i CpTopology2.obj
 0001:0000b220       ?_Orphan_range@?$vector@PAVCpTopology2Device@Net@OpenHome@@V?$allocator@PAVCpTopology2Device@Net@OpenHome@@@std@@@std@@IBEXPAPAVCpTopology2Device@Net@OpenHome@@0@Z 0040c220 f i CpTopology2.obj
 0001:0000b330       ??0?$_Vector_val@PAVCpTopology2Device@Net@OpenHome@@V?$allocator@PAVCpTopology2Device@Net@OpenHome@@@std@@@std@@QAE@V?$allocator@PAVCpTopology2Device@Net@OpenHome@@@1@@Z 0040c330 f i CpTopology2.obj
 0001:0000b450       ??1?$_Vector_val@PAVCpTopology2Device@Net@OpenHome@@V?$allocator@PAVCpTopology2Device@Net@OpenHome@@@std@@@std@@QAE@XZ 0040c450 f i CpTopology2.obj
 0001:0000b530       ??0?$allocator@PAVCpTopology2Device@Net@OpenHome@@@std@@QAE@XZ 0040c530 f i CpTopology2.obj
 0001:0000b550       ??0?$_Vector_iterator@V?$_Vector_val@PAVCpTopology2Device@Net@OpenHome@@V?$allocator@PAVCpTopology2Device@Net@OpenHome@@@std@@@std@@@std@@QAE@PAPAVCpTopology2Device@Net@OpenHome@@PBU_Container_base12@1@@Z 0040c550 f i CpTopology2.obj
 0001:0000b590       ??E?$_Vector_iterator@V?$_Vector_val@PAVCpTopology2Device@Net@OpenHome@@V?$allocator@PAVCpTopology2Device@Net@OpenHome@@@std@@@std@@@std@@QAEAAV01@XZ 0040c590 f i CpTopology2.obj
 0001:0000b5c0       ??D?$_Vector_const_iterator@V?$_Vector_val@PAVCpTopology2Device@Net@OpenHome@@V?$allocator@PAVCpTopology2Device@Net@OpenHome@@@std@@@std@@@std@@QBEABQAVCpTopology2Device@Net@OpenHome@@XZ 0040c5c0 f i CpTopology2.obj
 0001:0000b680       ??8?$_Vector_const_iterator@V?$_Vector_val@PAVCpTopology2Device@Net@OpenHome@@V?$allocator@PAVCpTopology2Device@Net@OpenHome@@@std@@@std@@@std@@QBE_NABV01@@Z 0040c680 f i CpTopology2.obj
 0001:0000b6c0       ?reserve@?$vector@PAVCpTopology2Source@Net@OpenHome@@V?$allocator@PAVCpTopology2Source@Net@OpenHome@@@std@@@std@@QAEXI@Z 0040c6c0 f i CpTopology2.obj
 0001:0000b830       ?capacity@?$vector@PAVCpTopology2Source@Net@OpenHome@@V?$allocator@PAVCpTopology2Source@Net@OpenHome@@@std@@@std@@QBEIXZ 0040c830 f i CpTopology2.obj
 0001:0000b860       ?max_size@?$vector@PAVCpTopology2Source@Net@OpenHome@@V?$allocator@PAVCpTopology2Source@Net@OpenHome@@@std@@@std@@QBEIXZ 0040c860 f i CpTopology2.obj
 0001:0000b890       ?_Destroy@?$vector@PAVCpTopology2Source@Net@OpenHome@@V?$allocator@PAVCpTopology2Source@Net@OpenHome@@@std@@@std@@IAEXPAPAVCpTopology2Source@Net@OpenHome@@0@Z 0040c890 f i CpTopology2.obj
 0001:0000b8d0       ?_Grow_to@?$vector@PAVCpTopology2Source@Net@OpenHome@@V?$allocator@PAVCpTopology2Source@Net@OpenHome@@@std@@@std@@IBEII@Z 0040c8d0 f i CpTopology2.obj
 0001:0000b950       ?_Xlen@?$vector@PAVCpTopology2Source@Net@OpenHome@@V?$allocator@PAVCpTopology2Source@Net@OpenHome@@@std@@@std@@IBEXXZ 0040c950 f i CpTopology2.obj
 0001:0000b980       ??0?$allocator@PAVCpTopology2Source@Net@OpenHome@@@std@@QAE@ABV01@@Z 0040c980 f i CpTopology2.obj
 0001:0000b9a0       ?deallocate@?$allocator@PAVCpTopology2Source@Net@OpenHome@@@std@@QAEXPAPAVCpTopology2Source@Net@OpenHome@@I@Z 0040c9a0 f i CpTopology2.obj
 0001:0000b9d0       ?reserve@?$vector@PAVCpTopology2Device@Net@OpenHome@@V?$allocator@PAVCpTopology2Device@Net@OpenHome@@@std@@@std@@QAEXI@Z 0040c9d0 f i CpTopology2.obj
 0001:0000bb40       ?capacity@?$vector@PAVCpTopology2Device@Net@OpenHome@@V?$allocator@PAVCpTopology2Device@Net@OpenHome@@@std@@@std@@QBEIXZ 0040cb40 f i CpTopology2.obj
 0001:0000bb70       ?size@?$vector@PAVCpTopology2Device@Net@OpenHome@@V?$allocator@PAVCpTopology2Device@Net@OpenHome@@@std@@@std@@QBEIXZ 0040cb70 f i CpTopology2.obj
 0001:0000bba0       ?max_size@?$vector@PAVCpTopology2Device@Net@OpenHome@@V?$allocator@PAVCpTopology2Device@Net@OpenHome@@@std@@@std@@QBEIXZ 0040cba0 f i CpTopology2.obj
 0001:0000bbd0       ?_Grow_to@?$vector@PAVCpTopology2Device@Net@OpenHome@@V?$allocator@PAVCpTopology2Device@Net@OpenHome@@@std@@@std@@IBEII@Z 0040cbd0 f i CpTopology2.obj
 0001:0000bc50       ?_Xlen@?$vector@PAVCpTopology2Device@Net@OpenHome@@V?$allocator@PAVCpTopology2Device@Net@OpenHome@@@std@@@std@@IBEXXZ 0040cc50 f i CpTopology2.obj
 0001:0000bc80       ??0?$allocator@PAVCpTopology2Device@Net@OpenHome@@@std@@QAE@ABV01@@Z 0040cc80 f i CpTopology2.obj
 0001:0000bca0       ?deallocate@?$allocator@PAVCpTopology2Device@Net@OpenHome@@@std@@QAEXPAPAVCpTopology2Device@Net@OpenHome@@I@Z 0040cca0 f i CpTopology2.obj
 0001:0000bcd0       ??0?$_Vector_const_iterator@V?$_Vector_val@PAVCpTopology2Device@Net@OpenHome@@V?$allocator@PAVCpTopology2Device@Net@OpenHome@@@std@@@std@@@std@@QAE@PAPAVCpTopology2Device@Net@OpenHome@@PBU_Container_base12@1@@Z 0040ccd0 f i CpTopology2.obj
 0001:0000bd50       ??E?$_Vector_const_iterator@V?$_Vector_val@PAVCpTopology2Device@Net@OpenHome@@V?$allocator@PAVCpTopology2Device@Net@OpenHome@@@std@@@std@@@std@@QAEAAV01@XZ 0040cd50 f i CpTopology2.obj
 0001:0000be00       ?_Compat@?$_Vector_const_iterator@V?$_Vector_val@PAVCpTopology2Device@Net@OpenHome@@V?$allocator@PAVCpTopology2Device@Net@OpenHome@@@std@@@std@@@std@@QBEXABV12@@Z 0040ce00 f i CpTopology2.obj
 0001:0000beb0       ?deallocate@?$allocator@U_Container_proxy@std@@@std@@QAEXPAU_Container_proxy@2@I@Z 0040ceb0 f i CpTopology2.obj
 0001:0000bee0       ?allocate@?$allocator@U_Container_proxy@std@@@std@@QAEPAU_Container_proxy@2@I@Z 0040cee0 f i CpTopology2.obj
 0001:0000bf10       ??0?$_Iterator012@Urandom_access_iterator_tag@std@@PAVCpTopology2Device@Net@OpenHome@@HPBQAV345@ABQAV345@U_Iterator_base12@2@@std@@QAE@XZ 0040cf10 f i CpTopology2.obj
 0001:0000bf40       ??0_Iterator_base12@std@@QAE@XZ 0040cf40 f i CpTopology2.obj
 0001:0000bf70       ?allocate@?$allocator@PAVCpTopology2Source@Net@OpenHome@@@std@@QAEPAPAVCpTopology2Source@Net@OpenHome@@I@Z 0040cf70 f i CpTopology2.obj
 0001:0000bfa0       ?max_size@?$allocator@PAVCpTopology2Source@Net@OpenHome@@@std@@QBEIXZ 0040cfa0 f i CpTopology2.obj
 0001:0000bff0       ?allocate@?$allocator@PAVCpTopology2Device@Net@OpenHome@@@std@@QAEPAPAVCpTopology2Device@Net@OpenHome@@I@Z 0040cff0 f i CpTopology2.obj
 0001:0000c020       ?max_size@?$allocator@PAVCpTopology2Device@Net@OpenHome@@@std@@QBEIXZ 0040d020 f i CpTopology2.obj
 0001:0000c070       ??0?$Bws@$0BE@@OpenHome@@QAE@ABVBrx@1@@Z 0040d070 f i CpTopology2.obj
 0001:0000c0f0       ?Ptr@?$Bws@$0BE@@OpenHome@@UBEPBEXZ 0040d0f0 f i CpTopology2.obj
 0001:0000c110       ?Write@?$Fifo@PAVCpTopology2Job@Net@OpenHome@@@OpenHome@@QAEXPAVCpTopology2Job@Net@2@@Z 0040d110 f i CpTopology2.obj
 0001:0000c140       ?Read@?$Fifo@PAVCpTopology2Job@Net@OpenHome@@@OpenHome@@QAEPAVCpTopology2Job@Net@2@XZ 0040d140 f i CpTopology2.obj
 0001:0000c170       ??$MakeFunctorAsync@VCpTopology2Product@Net@OpenHome@@V123@@Net@OpenHome@@YG?AV?$MemberTranslatorAsync@VCpTopology2Product@Net@OpenHome@@P8123@AEXAAVIAsync@23@@Z@01@AAVCpTopology2Product@01@ABQ8301@AEXAAVIAsync@01@@Z@Z 0040d170 f i CpTopology2.obj
 0001:0000c1a0       ??$MakeFunctor@VCpTopology2Product@Net@OpenHome@@XV123@@OpenHome@@YG?AV?$MemberTranslator@VCpTopology2Product@Net@OpenHome@@P8123@AEXXZ@0@AAVCpTopology2Product@Net@0@ABQ8230@AEXXZ@Z 0040d1a0 f i CpTopology2.obj
 0001:0000c1d0       ??$MakeFunctor@VCpTopology2@Net@OpenHome@@XV123@@OpenHome@@YG?AV?$MemberTranslator@VCpTopology2@Net@OpenHome@@P8123@AEXXZ@0@AAVCpTopology2@Net@0@ABQ8230@AEXXZ@Z 0040d1d0 f i CpTopology2.obj
 0001:0000c200       ??$addressof@PAVCpTopology2Source@Net@OpenHome@@@std@@YGPAPAVCpTopology2Source@Net@OpenHome@@AAPAV123@@Z 0040d200 f i CpTopology2.obj
 0001:0000c210       ??$forward@PAVCpTopology2Source@Net@OpenHome@@@std@@YG$$QAPAVCpTopology2Source@Net@OpenHome@@AAPAV123@@Z 0040d210 f i CpTopology2.obj
 0001:0000c220       ??$_Cons_val@V?$allocator@PAVCpTopology2Source@Net@OpenHome@@@std@@PAVCpTopology2Source@Net@OpenHome@@PAV345@@std@@YGXAAV?$allocator@PAVCpTopology2Source@Net@OpenHome@@@0@PAPAVCpTopology2Source@Net@OpenHome@@$$QAPAV234@@Z 0040d220 f i CpTopology2.obj
 0001:0000c250       ??$addressof@PAVCpTopology2Device@Net@OpenHome@@@std@@YGPAPAVCpTopology2Device@Net@OpenHome@@AAPAV123@@Z 0040d250 f i CpTopology2.obj
 0001:0000c260       ??$forward@PAVCpTopology2Device@Net@OpenHome@@@std@@YG$$QAPAVCpTopology2Device@Net@OpenHome@@AAPAV123@@Z 0040d260 f i CpTopology2.obj
 0001:0000c270       ??$_Cons_val@V?$allocator@PAVCpTopology2Device@Net@OpenHome@@@std@@PAVCpTopology2Device@Net@OpenHome@@PAV345@@std@@YGXAAV?$allocator@PAVCpTopology2Device@Net@OpenHome@@@0@PAPAVCpTopology2Device@Net@OpenHome@@$$QAPAV234@@Z 0040d270 f i CpTopology2.obj
 0001:0000c2a0       ??$_Move@PAPAVCpTopology2Device@Net@OpenHome@@PAPAV123@@std@@YGPAPAVCpTopology2Device@Net@OpenHome@@PAPAV123@00@Z 0040d2a0 f i CpTopology2.obj
 0001:0000c2f0       ??$?0PAVCpTopology2Source@Net@OpenHome@@@?$allocator@U_Container_proxy@std@@@std@@QAE@ABV?$allocator@PAVCpTopology2Source@Net@OpenHome@@@1@@Z 0040d2f0 f i CpTopology2.obj
 0001:0000c310       ??$_Cons_val@V?$allocator@U_Container_proxy@std@@@std@@U_Container_proxy@2@U32@@std@@YGXAAV?$allocator@U_Container_proxy@std@@@0@PAU_Container_proxy@0@$$QAU20@@Z 0040d310 f i CpTopology2.obj
 0001:0000c340       ??$_Dest_val@V?$allocator@U_Container_proxy@std@@@std@@U_Container_proxy@2@@std@@YGXAAV?$allocator@U_Container_proxy@std@@@0@PAU_Container_proxy@0@@Z 0040d340 f i CpTopology2.obj
 0001:0000c360       ??$_Destroy_range@V?$allocator@PAVCpTopology2Device@Net@OpenHome@@@std@@@std@@YGXPAPAVCpTopology2Device@Net@OpenHome@@0AAV?$allocator@PAVCpTopology2Device@Net@OpenHome@@@0@@Z 0040d360 f i CpTopology2.obj
 0001:0000c3b0       ??$?0PAVCpTopology2Device@Net@OpenHome@@@?$allocator@U_Container_proxy@std@@@std@@QAE@ABV?$allocator@PAVCpTopology2Device@Net@OpenHome@@@1@@Z 0040d3b0 f i CpTopology2.obj
 0001:0000c3d0       ??$_Umove@PAPAVCpTopology2Source@Net@OpenHome@@@?$vector@PAVCpTopology2Source@Net@OpenHome@@V?$allocator@PAVCpTopology2Source@Net@OpenHome@@@std@@@std@@IAEPAPAVCpTopology2Source@Net@OpenHome@@PAPAV234@00@Z 0040d3d0 f i CpTopology2.obj
 0001:0000c410       ??$_Destroy_range@V?$allocator@PAVCpTopology2Source@Net@OpenHome@@@std@@@std@@YGXPAPAVCpTopology2Source@Net@OpenHome@@0AAV?$allocator@PAVCpTopology2Source@Net@OpenHome@@@0@@Z 0040d410 f i CpTopology2.obj
 0001:0000c460       ??$_Umove@PAPAVCpTopology2Device@Net@OpenHome@@@?$vector@PAVCpTopology2Device@Net@OpenHome@@V?$allocator@PAVCpTopology2Device@Net@OpenHome@@@std@@@std@@IAEPAPAVCpTopology2Device@Net@OpenHome@@PAPAV234@00@Z 0040d460 f i CpTopology2.obj
 0001:0000c4a0       ??$_Allocate@U_Container_proxy@std@@@std@@YGPAU_Container_proxy@0@IPAU10@@Z 0040d4a0 f i CpTopology2.obj
 0001:0000c520       ??0bad_alloc@std@@QAE@PBD@Z 0040d520 f i CpTopology2.obj
 0001:0000c560       ??1bad_alloc@std@@UAE@XZ   0040d560 f i CpTopology2.obj
 0001:0000c590       ??_Ebad_alloc@std@@UAEPAXI@Z 0040d590 f i CpTopology2.obj
 0001:0000c590       ??_Gbad_alloc@std@@UAEPAXI@Z 0040d590 f i CpTopology2.obj
 0001:0000c5d0       ??$_Allocate@PAVCpTopology2Source@Net@OpenHome@@@std@@YGPAPAVCpTopology2Source@Net@OpenHome@@IPAPAV123@@Z 0040d5d0 f i CpTopology2.obj
 0001:0000c650       ??$_Allocate@PAVCpTopology2Device@Net@OpenHome@@@std@@YGPAPAVCpTopology2Device@Net@OpenHome@@IPAPAV123@@Z 0040d650 f i CpTopology2.obj
 0001:0000c6d0       ??_E?$Bws@$0BE@@OpenHome@@UAEPAXI@Z 0040d6d0 f i CpTopology2.obj
 0001:0000c6d0       ??_G?$Bws@$0BE@@OpenHome@@UAEPAXI@Z 0040d6d0 f i CpTopology2.obj
 0001:0000c710       ??0bad_alloc@std@@QAE@ABV01@@Z 0040d710 f i CpTopology2.obj
 0001:0000c750       ?construct@?$allocator@PAVCpTopology2Source@Net@OpenHome@@@std@@QAEXPAPAVCpTopology2Source@Net@OpenHome@@$$QAPAV345@@Z 0040d750 f i CpTopology2.obj
 0001:0000c7f0       ??2@YAPAXIPAX@Z            0040d7f0 f i CpTopology2.obj
 0001:0000c800       ??3@YAXPAX0@Z              0040d800 f i CpTopology2.obj
 0001:0000c810       ?construct@?$allocator@PAVCpTopology2Device@Net@OpenHome@@@std@@QAEXPAPAVCpTopology2Device@Net@OpenHome@@$$QAPAV345@@Z 0040d810 f i CpTopology2.obj
 0001:0000c8b0       ??0?$MemberTranslatorAsync@VCpTopology2Product@Net@OpenHome@@P8123@AEXAAVIAsync@23@@Z@Net@OpenHome@@QAE@AAVCpTopology2Product@12@ABQ8312@AEXAAVIAsync@12@@Z@Z 0040d8b0 f i CpTopology2.obj
 0001:0000c8f0       ??0FunctorAsync@Net@OpenHome@@IAE@P6GXABV012@AAVIAsync@12@@ZPBX3I@Z 0040d8f0 f i CpTopology2.obj
 0001:0000c940       ??0?$MemberTranslator@VCpTopology2Product@Net@OpenHome@@P8123@AEXXZ@OpenHome@@QAE@AAVCpTopology2Product@Net@1@ABQ8231@AEXXZ@Z 0040d940 f i CpTopology2.obj
 0001:0000c980       ??0?$MemberTranslator@VCpTopology2@Net@OpenHome@@P8123@AEXXZ@OpenHome@@QAE@AAVCpTopology2@Net@1@ABQ8231@AEXXZ@Z 0040d980 f i CpTopology2.obj
 0001:0000c9c0       ?construct@?$allocator@U_Container_proxy@std@@@std@@QAEXPAU_Container_proxy@2@$$QAU32@@Z 0040d9c0 f i CpTopology2.obj
 0001:0000ca70       ?destroy@?$allocator@U_Container_proxy@std@@@std@@QAEXPAU_Container_proxy@2@@Z 0040da70 f i CpTopology2.obj
 0001:0000caa0       ?Thunk@?$MemberTranslatorAsync@VCpTopology2Product@Net@OpenHome@@P8123@AEXAAVIAsync@23@@Z@Net@OpenHome@@SGXABVFunctorAsync@23@AAVIAsync@23@@Z 0040daa0 f i CpTopology2.obj
 0001:0000cb00       ?Thunk@?$MemberTranslator@VCpTopology2Product@Net@OpenHome@@P8123@AEXXZ@OpenHome@@SGXABVFunctor@2@@Z 0040db00 f i CpTopology2.obj
 0001:0000cb50       ?Thunk@?$MemberTranslator@VCpTopology2@Net@OpenHome@@P8123@AEXXZ@OpenHome@@SGXABVFunctor@2@@Z 0040db50 f i CpTopology2.obj
 0001:0000cba0       ?Write@?$Fifo@PAVCpTopology2Job@Net@OpenHome@@@OpenHome@@QAEXPAVCpTopology2Job@Net@2@I@Z 0040dba0 f i CpTopology2.obj
 0001:0000cbe0       ?Read@?$Fifo@PAVCpTopology2Job@Net@OpenHome@@@OpenHome@@QAEPAVCpTopology2Job@Net@2@I@Z 0040dbe0 f i CpTopology2.obj
 0001:0000cc30       ??$_Ptr_cat@PAVCpTopology2Device@Net@OpenHome@@PAV123@@std@@YG?AU_Scalar_ptr_iterator_tag@0@PAPAVCpTopology2Device@Net@OpenHome@@0@Z 0040dc30 f i CpTopology2.obj
 0001:0000cc90       ??$_Move@PAPAVCpTopology2Device@Net@OpenHome@@PAPAV123@@std@@YGPAPAVCpTopology2Device@Net@OpenHome@@PAPAV123@00U_Scalar_ptr_iterator_tag@0@@Z 0040dc90 f i CpTopology2.obj
 0001:0000cce0       ??$forward@U_Container_proxy@std@@@std@@YG$$QAU_Container_proxy@0@AAU10@@Z 0040dce0 f i CpTopology2.obj
 0001:0000ccf0       ??$_Destroy_range@V?$allocator@PAVCpTopology2Device@Net@OpenHome@@@std@@@std@@YGXPAPAVCpTopology2Device@Net@OpenHome@@0AAV?$allocator@PAVCpTopology2Device@Net@OpenHome@@@0@U_Scalar_ptr_iterator_tag@0@@Z 0040dcf0 f i CpTopology2.obj
 0001:0000cd00       ??$_Uninitialized_move@PAPAVCpTopology2Source@Net@OpenHome@@PAPAV123@V?$allocator@PAVCpTopology2Source@Net@OpenHome@@@std@@@std@@YGPAPAVCpTopology2Source@Net@OpenHome@@PAPAV123@00AAV?$allocator@PAVCpTopology2Source@Net@OpenHome@@@0@@Z 0040dd00 f i CpTopology2.obj
 0001:0000cd50       ??$_Ptr_cat@PAVCpTopology2Source@Net@OpenHome@@PAV123@@std@@YG?AU_Scalar_ptr_iterator_tag@0@PAPAVCpTopology2Source@Net@OpenHome@@0@Z 0040dd50 f i CpTopology2.obj
 0001:0000cdb0       ??$_Destroy_range@V?$allocator@PAVCpTopology2Source@Net@OpenHome@@@std@@@std@@YGXPAPAVCpTopology2Source@Net@OpenHome@@0AAV?$allocator@PAVCpTopology2Source@Net@OpenHome@@@0@U_Scalar_ptr_iterator_tag@0@@Z 0040ddb0 f i CpTopology2.obj
 0001:0000cdc0       ??$_Uninitialized_move@PAPAVCpTopology2Device@Net@OpenHome@@PAPAV123@V?$allocator@PAVCpTopology2Device@Net@OpenHome@@@std@@@std@@YGPAPAVCpTopology2Device@Net@OpenHome@@PAPAV123@00AAV?$allocator@PAVCpTopology2Device@Net@OpenHome@@@0@@Z 0040ddc0 f i CpTopology2.obj
 0001:0000ce10       ??$_Destroy@U_Container_proxy@std@@@std@@YGXPAU_Container_proxy@0@@Z 0040de10 f i CpTopology2.obj
 0001:0000ce20       ??$_Val_type@PAPAVCpTopology2Source@Net@OpenHome@@@std@@YGPAPAVCpTopology2Source@Net@OpenHome@@PAPAV123@@Z 0040de20 f i CpTopology2.obj
 0001:0000ce30       ??$_Uninit_move@PAVCpTopology2Source@Net@OpenHome@@PAV123@PAV123@@std@@YGPAPAVCpTopology2Source@Net@OpenHome@@PAPAV123@00AAV?$allocator@PAVCpTopology2Source@Net@OpenHome@@@0@0U_Scalar_ptr_iterator_tag@0@@Z 0040de30 f i CpTopology2.obj
 0001:0000cea0       ??$_Val_type@PAPAVCpTopology2Device@Net@OpenHome@@@std@@YGPAPAVCpTopology2Device@Net@OpenHome@@PAPAV123@@Z 0040dea0 f i CpTopology2.obj
 0001:0000ceb0       ??$_Uninit_move@PAVCpTopology2Device@Net@OpenHome@@PAV123@PAV123@@std@@YGPAPAVCpTopology2Device@Net@OpenHome@@PAPAV123@00AAV?$allocator@PAVCpTopology2Device@Net@OpenHome@@@0@0U_Scalar_ptr_iterator_tag@0@@Z 0040deb0 f i CpTopology2.obj
 0001:0000cf20       ??$_Debug_range@PAPAVCpTopology2Source@Net@OpenHome@@@std@@YGXPAPAVCpTopology2Source@Net@OpenHome@@0PB_WI@Z 0040df20 f i CpTopology2.obj
 0001:0000cf70       ??$_Debug_pointer@PAVCpTopology2Source@Net@OpenHome@@@std@@YGXPAPAVCpTopology2Source@Net@OpenHome@@PB_WI@Z 0040df70 f i CpTopology2.obj
 0001:0000cfa0       ??$_Debug_range@PAPAVCpTopology2Device@Net@OpenHome@@@std@@YGXPAPAVCpTopology2Device@Net@OpenHome@@0PB_WI@Z 0040dfa0 f i CpTopology2.obj
 0001:0000cff0       ??$_Debug_pointer@PAVCpTopology2Device@Net@OpenHome@@@std@@YGXPAPAVCpTopology2Device@Net@OpenHome@@PB_WI@Z 0040dff0 f i CpTopology2.obj
 0001:0000d020       ??$_Iter_cat@PAPAVCpTopology2Source@Net@OpenHome@@@std@@YG?AUrandom_access_iterator_tag@0@ABQAPAVCpTopology2Source@Net@OpenHome@@@Z 0040e020 f i CpTopology2.obj
 0001:0000d080       ??$_Debug_range2@PAPAVCpTopology2Source@Net@OpenHome@@@std@@YGXPAPAVCpTopology2Source@Net@OpenHome@@0PB_WIUrandom_access_iterator_tag@0@@Z 0040e080 f i CpTopology2.obj
 0001:0000d0e0       ??$_Iter_cat@PAPAVCpTopology2Device@Net@OpenHome@@@std@@YG?AUrandom_access_iterator_tag@0@ABQAPAVCpTopology2Device@Net@OpenHome@@@Z 0040e0e0 f i CpTopology2.obj
 0001:0000d140       ??$_Debug_range2@PAPAVCpTopology2Device@Net@OpenHome@@@std@@YGXPAPAVCpTopology2Device@Net@OpenHome@@0PB_WIUrandom_access_iterator_tag@0@@Z 0040e140 f i CpTopology2.obj
 0001:0000d1a0       ??_9ICpTopology2Handler@Net@OpenHome@@$BA@AE 0040e1a0 f i CpTopology2.obj
 0001:0000d1b0       ??_9ICpTopology2Handler@Net@OpenHome@@$BBA@AE 0040e1b0 f i CpTopology2.obj
 0001:0000d1c0       ??_9ICpTopology2Handler@Net@OpenHome@@$B3AE 0040e1c0 f i CpTopology2.obj
 0001:0000d1d0       ??_9ICpTopology2Handler@Net@OpenHome@@$B7AE 0040e1d0 f i CpTopology2.obj
 0001:0000d1e0       ??_9ICpTopology2Handler@Net@OpenHome@@$BM@AE 0040e1e0 f i CpTopology2.obj
 0001:0000d1f0       ??0CpTopology3Source@Net@OpenHome@@QAE@AAVCpTopology3Group@12@I@Z 0040e1f0 f   CpTopology3.obj
 0001:0000d240       ?Name@CpTopology3Source@Net@OpenHome@@QBEABVBrx@3@XZ 0040e240 f   CpTopology3.obj
 0001:0000d280       ?Type@CpTopology3Source@Net@OpenHome@@QBEABVBrx@3@XZ 0040e280 f   CpTopology3.obj
 0001:0000d2c0       ?Group@CpTopology3Source@Net@OpenHome@@QBEABVBrx@3@XZ 0040e2c0 f   CpTopology3.obj
 0001:0000d2f0       ?Device@CpTopology3Source@Net@OpenHome@@QBEAAVCpDevice@23@XZ 0040e2f0 f   CpTopology3.obj
 0001:0000d320       ?ChildCount@CpTopology3Source@Net@OpenHome@@QBEIXZ 0040e320 f   CpTopology3.obj
 0001:0000d350       ?Child@CpTopology3Source@Net@OpenHome@@QBEAAVCpTopology3Group@23@I@Z 0040e350 f   CpTopology3.obj
 0001:0000d3a0       ?AddChild@CpTopology3Source@Net@OpenHome@@QAEXAAVCpTopology3Group@23@@Z 0040e3a0 f   CpTopology3.obj
 0001:0000d3d0       ?RemoveChild@CpTopology3Source@Net@OpenHome@@QAEXAAVCpTopology3Group@23@@Z 0040e3d0 f   CpTopology3.obj
 0001:0000d530       ?ClearChildren@CpTopology3Source@Net@OpenHome@@QAEXXZ 0040e530 f   CpTopology3.obj
 0001:0000d600       ?EvaluateSources@CpTopology3Source@Net@OpenHome@@QAEIAAV?$vector@PAVCpTopology3Source@Net@OpenHome@@V?$allocator@PAVCpTopology3Source@Net@OpenHome@@@std@@@std@@@Z 0040e600 f   CpTopology3.obj
 0001:0000d780       ?Select@CpTopology3Source@Net@OpenHome@@QAEXXZ 0040e780 f   CpTopology3.obj
 0001:0000d7c0       ?Owner@CpTopology3Source@Net@OpenHome@@QBEAAVCpTopology3Group@23@XZ 0040e7c0 f   CpTopology3.obj
 0001:0000d7e0       ?SourceCount@CpTopology3Source@Net@OpenHome@@QBEIXZ 0040e7e0 f   CpTopology3.obj
 0001:0000d800       ??1CpTopology3Source@Net@OpenHome@@QAE@XZ 0040e800 f   CpTopology3.obj
 0001:0000d880       ??0CpTopology3Group@Net@OpenHome@@QAE@AAVCpTopology2Group@12@AAVCpTopology3Room@12@@Z 0040e880 f   CpTopology3.obj
 0001:0000d9b0       ?Group@CpTopology3Group@Net@OpenHome@@QBEAAVCpTopology2Group@23@XZ 0040e9b0 f   CpTopology3.obj
 0001:0000d9d0       ?Room@CpTopology3Group@Net@OpenHome@@QBEAAVCpTopology3Room@23@XZ 0040e9d0 f   CpTopology3.obj
 0001:0000d9f0       ??1CpTopology3Group@Net@OpenHome@@QAE@XZ 0040e9f0 f   CpTopology3.obj
 0001:0000db40       ?Name@CpTopology3Group@Net@OpenHome@@QBEABVBrx@3@XZ 0040eb40 f   CpTopology3.obj
 0001:0000db70       ?HasParent@CpTopology3Group@Net@OpenHome@@QBE_NXZ 0040eb70 f   CpTopology3.obj
 0001:0000db90       ?Parent@CpTopology3Group@Net@OpenHome@@QBEAAV123@XZ 0040eb90 f   CpTopology3.obj
 0001:0000dbd0       ?ParentSourceIndex@CpTopology3Group@Net@OpenHome@@QBEIXZ 0040ebd0 f   CpTopology3.obj
 0001:0000dc10       ?IsRoot@CpTopology3Group@Net@OpenHome@@QBE_NXZ 0040ec10 f   CpTopology3.obj
 0001:0000dc30       ?SetIsRoot@CpTopology3Group@Net@OpenHome@@QAEX_N@Z 0040ec30 f   CpTopology3.obj
 0001:0000dc50       ?EvaluateSources@CpTopology3Group@Net@OpenHome@@QAEIAAV?$vector@PAVCpTopology3Source@Net@OpenHome@@V?$allocator@PAVCpTopology3Source@Net@OpenHome@@@std@@@std@@@Z 0040ec50 f   CpTopology3.obj
 0001:0000dd80       ?SourceCount@CpTopology3Group@Net@OpenHome@@QBEIXZ 0040ed80 f   CpTopology3.obj
 0001:0000dda0       ?IsCurrentDescendentOf@CpTopology3Group@Net@OpenHome@@QBE_NAAV123@@Z 0040eda0 f   CpTopology3.obj
 0001:0000de30       ?IsDescendentOf@CpTopology3Group@Net@OpenHome@@QBE_NAAV123@@Z 0040ee30 f   CpTopology3.obj
 0001:0000de90       ?CurrentDescendent@CpTopology3Group@Net@OpenHome@@QAEAAV123@XZ 0040ee90 f   CpTopology3.obj
 0001:0000df10       ?Root@CpTopology3Group@Net@OpenHome@@QAEAAV123@XZ 0040ef10 f   CpTopology3.obj
 0001:0000df60       ?Source@CpTopology3Group@Net@OpenHome@@QBEAAVCpTopology3Source@23@I@Z 0040ef60 f   CpTopology3.obj
 0001:0000dfb0       ?ClearChildren@CpTopology3Group@Net@OpenHome@@QAEXXZ 0040efb0 f   CpTopology3.obj
 0001:0000e0c0       ?ClearParent@CpTopology3Group@Net@OpenHome@@QAEXXZ 0040f0c0 f   CpTopology3.obj
 0001:0000e120       ?SetParent@CpTopology3Group@Net@OpenHome@@QAEXAAV123@I@Z 0040f120 f   CpTopology3.obj
 0001:0000e170       ?AddIfIsChild@CpTopology3Group@Net@OpenHome@@QAE_NAAV123@@Z 0040f170 f   CpTopology3.obj
 0001:0000e220       ?AddChild@CpTopology3Group@Net@OpenHome@@QAEXAAV123@I@Z 0040f220 f   CpTopology3.obj
 0001:0000e280       ?RemoveChild@CpTopology3Group@Net@OpenHome@@QAEXAAV123@I@Z 0040f280 f   CpTopology3.obj
 0001:0000e2e0       ?GroupStandbyChanged@CpTopology3Group@Net@OpenHome@@QAEXXZ 0040f2e0 f   CpTopology3.obj
 0001:0000e330       ?GroupSourceIndexChanged@CpTopology3Group@Net@OpenHome@@QAEXXZ 0040f330 f   CpTopology3.obj
 0001:0000e380       ?GroupSourceListChanged@CpTopology3Group@Net@OpenHome@@QAEXXZ 0040f380 f   CpTopology3.obj
 0001:0000e3d0       ?GroupRemoved@CpTopology3Group@Net@OpenHome@@QAEXXZ 0040f3d0 f   CpTopology3.obj
 0001:0000e450       ??0CpTopology3Room@Net@OpenHome@@QAE@ABVBrx@2@AAVICpTopology3Handler@12@@Z 0040f450 f   CpTopology3.obj
 0001:0000e560       ??1CpTopology3Room@Net@OpenHome@@QAE@XZ 0040f560 f   CpTopology3.obj
 0001:0000e620       ?SetUserData@CpTopology3Room@Net@OpenHome@@QAEXPAX@Z 0040f620 f   CpTopology3.obj
 0001:0000e640       ?UserData@CpTopology3Room@Net@OpenHome@@QBEPAXXZ 0040f640 f   CpTopology3.obj
 0001:0000e660       ?ReportGroups@CpTopology3Room@Net@OpenHome@@AAEXXZ 0040f660 f   CpTopology3.obj
 0001:0000e9d0       ?GroupAdded@CpTopology3Room@Net@OpenHome@@QAEXAAVCpTopology3Group@23@@Z 0040f9d0 f   CpTopology3.obj
 0001:0000ef10       ?GroupRemoved@CpTopology3Room@Net@OpenHome@@QAEXAAVCpTopology3Group@23@@Z 0040ff10 f   CpTopology3.obj
 0001:0000f480       ?UpdateCurrentGroup@CpTopology3Room@Net@OpenHome@@AAEXAAVCpTopology3Group@23@@Z 00410480 f   CpTopology3.obj
 0001:0000f580       ?GroupStandbyChanged@CpTopology3Room@Net@OpenHome@@QAEXAAVCpTopology3Group@23@@Z 00410580 f   CpTopology3.obj
 0001:0000f600       ?EvaluateStandby@CpTopology3Room@Net@OpenHome@@AAEXXZ 00410600 f   CpTopology3.obj
 0001:0000f6a0       ?GroupSourceIndexChanged@CpTopology3Room@Net@OpenHome@@QAEXAAVCpTopology3Group@23@@Z 004106a0 f   CpTopology3.obj
 0001:0000f700       ?GroupSourceListChanged@CpTopology3Room@Net@OpenHome@@QAEXAAVCpTopology3Group@23@@Z 00410700 f   CpTopology3.obj
 0001:0000f750       ?AddRef@CpTopology3Room@Net@OpenHome@@QAEXXZ 00410750 f   CpTopology3.obj
 0001:0000f780       ?RemoveRef@CpTopology3Room@Net@OpenHome@@QAEXXZ 00410780 f   CpTopology3.obj
 0001:0000f800       ?SourceCount@CpTopology3Room@Net@OpenHome@@QBEIXZ 00410800 f   CpTopology3.obj
 0001:0000f820       ?SetSourceIndex@CpTopology3Room@Net@OpenHome@@QAEXI@Z 00410820 f   CpTopology3.obj
 0001:0000f8e0       ?SetStandby@CpTopology3Room@Net@OpenHome@@QAEX_N@Z 004108e0 f   CpTopology3.obj
 0001:0000fa00       ?Name@CpTopology3Room@Net@OpenHome@@QBEABVBrx@3@XZ 00410a00 f   CpTopology3.obj
 0001:0000fa20       ?EvaluateSources@CpTopology3Room@Net@OpenHome@@AAEIXZ 00410a20 f   CpTopology3.obj
 0001:0000fb80       ?SourceName@CpTopology3Room@Net@OpenHome@@QBEABVBrx@3@I@Z 00410b80 f   CpTopology3.obj
 0001:0000fbd0       ?SourceType@CpTopology3Room@Net@OpenHome@@QBEABVBrx@3@I@Z 00410bd0 f   CpTopology3.obj
 0001:0000fc20       ?SourceGroup@CpTopology3Room@Net@OpenHome@@QBEABVBrx@3@I@Z 00410c20 f   CpTopology3.obj
 0001:0000fc70       ?SourceDevice@CpTopology3Room@Net@OpenHome@@QBEAAVCpDevice@23@I@Z 00410c70 f   CpTopology3.obj
 0001:0000fcc0       ?CurrentSourceName@CpTopology3Room@Net@OpenHome@@QBEABVBrx@3@XZ 00410cc0 f   CpTopology3.obj
 0001:0000fd20       ?CurrentSourceType@CpTopology3Room@Net@OpenHome@@QBEABVBrx@3@XZ 00410d20 f   CpTopology3.obj
 0001:0000fd80       ?CurrentSourceGroup@CpTopology3Room@Net@OpenHome@@QBEABVBrx@3@XZ 00410d80 f   CpTopology3.obj
 0001:0000fde0       ?CurrentSourceDevice@CpTopology3Room@Net@OpenHome@@QBEAAVCpDevice@23@XZ 00410de0 f   CpTopology3.obj
 0001:0000fe40       ?HasVolumeControl@CpTopology3Room@Net@OpenHome@@QBE_NXZ 00410e40 f   CpTopology3.obj
 0001:0000fe70       ?VolumeDevice@CpTopology3Room@Net@OpenHome@@QBEAAVCpDevice@23@XZ 00410e70 f   CpTopology3.obj
 0001:0000feb0       ?Standby@CpTopology3Room@Net@OpenHome@@QBE?AW4EStandby@123@XZ 00410eb0 f   CpTopology3.obj
 0001:0000fed0       ??0CpTopology3@Net@OpenHome@@QAE@AAVICpTopology3Handler@12@@Z 00410ed0 f   CpTopology3.obj
 0001:0000ffd0       ??0CpTopology3@Net@OpenHome@@QAE@AAVICpTopology3Handler@12@PAPAVICpTopology2Handler@12@@Z 00410fd0 f   CpTopology3.obj
 0001:00010090       ??1CpTopology3@Net@OpenHome@@UAE@XZ 00411090 f   CpTopology3.obj
 0001:00010190       ?Refresh@CpTopology3@Net@OpenHome@@QAEXXZ 00411190 f   CpTopology3.obj
 0001:000101d0       ?GroupAdded@CpTopology3@Net@OpenHome@@EAEXAAVCpTopology2Group@23@@Z 004111d0 f   CpTopology3.obj
 0001:000103f0       ?GroupStandbyChanged@CpTopology3@Net@OpenHome@@EAEXAAVCpTopology2Group@23@@Z 004113f0 f   CpTopology3.obj
 0001:00010440       ?GroupSourceIndexChanged@CpTopology3@Net@OpenHome@@EAEXAAVCpTopology2Group@23@@Z 00411440 f   CpTopology3.obj
 0001:00010490       ?GroupSourceListChanged@CpTopology3@Net@OpenHome@@EAEXAAVCpTopology2Group@23@@Z 00411490 f   CpTopology3.obj
 0001:000104e0       ?GroupRemoved@CpTopology3@Net@OpenHome@@EAEXAAVCpTopology2Group@23@@Z 004114e0 f   CpTopology3.obj
 0001:00010530       ?RoomAdded@CpTopology3@Net@OpenHome@@EAEXAAVCpTopology3Room@23@@Z 00411530 f   CpTopology3.obj
 0001:000105e0       ?RoomChanged@CpTopology3@Net@OpenHome@@EAEXAAVCpTopology3Room@23@@Z 004115e0 f   CpTopology3.obj
 0001:00010680       ?RoomRemoved@CpTopology3@Net@OpenHome@@EAEXAAVCpTopology3Room@23@@Z 00411680 f   CpTopology3.obj
 0001:00010860       ?RoomStandbyChanged@CpTopology3@Net@OpenHome@@EAEXAAVCpTopology3Room@23@@Z 00411860 f   CpTopology3.obj
 0001:00010900       ?RoomSourceChanged@CpTopology3@Net@OpenHome@@EAEXAAVCpTopology3Room@23@@Z 00411900 f   CpTopology3.obj
 0001:000109a0       ?RoomVolumeControlChanged@CpTopology3@Net@OpenHome@@EAEXAAVCpTopology3Room@23@@Z 004119a0 f   CpTopology3.obj
 0001:00010a40       ??1?$_Vector_iterator@V?$_Vector_val@PAVCpTopology3Group@Net@OpenHome@@V?$allocator@PAVCpTopology3Group@Net@OpenHome@@@std@@@std@@@std@@QAE@XZ 00411a40 f i CpTopology3.obj
 0001:00010a70       ??0?$_Vector_const_iterator@V?$_Vector_val@PAVCpTopology3Group@Net@OpenHome@@V?$allocator@PAVCpTopology3Group@Net@OpenHome@@@std@@@std@@@std@@QAE@ABV01@@Z 00411a70 f i CpTopology3.obj
 0001:00010ab0       ??1?$_Vector_const_iterator@V?$_Vector_val@PAVCpTopology3Group@Net@OpenHome@@V?$allocator@PAVCpTopology3Group@Net@OpenHome@@@std@@@std@@@std@@QAE@XZ 00411ab0 f i CpTopology3.obj
 0001:00010ae0       ??0?$_Iterator012@Urandom_access_iterator_tag@std@@PAVCpTopology3Group@Net@OpenHome@@HPBQAV345@ABQAV345@U_Iterator_base12@2@@std@@QAE@ABU01@@Z 00411ae0 f i CpTopology3.obj
 0001:00010b10       ??1?$_Iterator012@Urandom_access_iterator_tag@std@@PAVCpTopology3Group@Net@OpenHome@@HPBQAV345@ABQAV345@U_Iterator_base12@2@@std@@QAE@XZ 00411b10 f i CpTopology3.obj
 0001:00010b40       ??1?$_Vector_iterator@V?$_Vector_val@PAVCpTopology3Source@Net@OpenHome@@V?$allocator@PAVCpTopology3Source@Net@OpenHome@@@std@@@std@@@std@@QAE@XZ 00411b40 f i CpTopology3.obj
 0001:00010b70       ??_GCpTopology3Source@Net@OpenHome@@QAEPAXI@Z 00411b70 f i CpTopology3.obj
 0001:00010bb0       ??1?$_Vector_const_iterator@V?$_Vector_val@PAVCpTopology3Source@Net@OpenHome@@V?$allocator@PAVCpTopology3Source@Net@OpenHome@@@std@@@std@@@std@@QAE@XZ 00411bb0 f i CpTopology3.obj
 0001:00010be0       ??1?$_Iterator012@Urandom_access_iterator_tag@std@@PAVCpTopology3Source@Net@OpenHome@@HPBQAV345@ABQAV345@U_Iterator_base12@2@@std@@QAE@XZ 00411be0 f i CpTopology3.obj
 0001:00010c10       ??_GCpTopology3Group@Net@OpenHome@@QAEPAXI@Z 00411c10 f i CpTopology3.obj
 0001:00010c50       ??4?$_Vector_const_iterator@V?$_Vector_val@PAVCpTopology3Group@Net@OpenHome@@V?$allocator@PAVCpTopology3Group@Net@OpenHome@@@std@@@std@@@std@@QAEAAV01@ABV01@@Z 00411c50 f i CpTopology3.obj
 0001:00010c90       ??4?$_Iterator012@Urandom_access_iterator_tag@std@@PAVCpTopology3Group@Net@OpenHome@@HPBQAV345@ABQAV345@U_Iterator_base12@2@@std@@QAEAAU01@ABU01@@Z 00411c90 f i CpTopology3.obj
 0001:00010cc0       ??4?$_Vector_iterator@V?$_Vector_val@PAVCpTopology3Group@Net@OpenHome@@V?$allocator@PAVCpTopology3Group@Net@OpenHome@@@std@@@std@@@std@@QAEAAV01@ABV01@@Z 00411cc0 f i CpTopology3.obj
 0001:00010cf0       ??_GCpTopology3Room@Net@OpenHome@@QAEPAXI@Z 00411cf0 f i CpTopology3.obj
 0001:00010d30       ??_ECpTopology3@Net@OpenHome@@UAEPAXI@Z 00411d30 f i CpTopology3.obj
 0001:00010d30       ??_GCpTopology3@Net@OpenHome@@UAEPAXI@Z 00411d30 f i CpTopology3.obj
 0001:00010d70       ??_GCpTopology2@Net@OpenHome@@QAEPAXI@Z 00411d70 f i CpTopology3.obj
 0001:00010db0       ??1?$_List_iterator@V?$_List_val@PAVCpTopology3Room@Net@OpenHome@@V?$allocator@PAVCpTopology3Room@Net@OpenHome@@@std@@@std@@@std@@QAE@XZ 00411db0 f i CpTopology3.obj
 0001:00010de0       ??1?$_List_const_iterator@V?$_List_val@PAVCpTopology3Room@Net@OpenHome@@V?$allocator@PAVCpTopology3Room@Net@OpenHome@@@std@@@std@@@std@@QAE@XZ 00411de0 f i CpTopology3.obj
 0001:00010e10       ??1?$_List_unchecked_const_iterator@V?$_List_val@PAVCpTopology3Room@Net@OpenHome@@V?$allocator@PAVCpTopology3Room@Net@OpenHome@@@std@@@std@@U_Iterator_base12@2@@std@@QAE@XZ 00411e10 f i CpTopology3.obj
 0001:00010e40       ??1?$_Iterator012@Ubidirectional_iterator_tag@std@@PAVCpTopology3Room@Net@OpenHome@@HPBQAV345@ABQAV345@U_Iterator_base12@2@@std@@QAE@XZ 00411e40 f i CpTopology3.obj
 0001:00010e70       ??0?$_List_const_iterator@V?$_List_val@PAVCpTopology3Room@Net@OpenHome@@V?$allocator@PAVCpTopology3Room@Net@OpenHome@@@std@@@std@@@std@@QAE@ABV01@@Z 00411e70 f i CpTopology3.obj
 0001:00010ea0       ??0?$_List_unchecked_const_iterator@V?$_List_val@PAVCpTopology3Room@Net@OpenHome@@V?$allocator@PAVCpTopology3Room@Net@OpenHome@@@std@@@std@@U_Iterator_base12@2@@std@@QAE@ABV01@@Z 00411ea0 f i CpTopology3.obj
 0001:00010ee0       ??0?$_Iterator012@Ubidirectional_iterator_tag@std@@PAVCpTopology3Room@Net@OpenHome@@HPBQAV345@ABQAV345@U_Iterator_base12@2@@std@@QAE@ABU01@@Z 00411ee0 f i CpTopology3.obj
 0001:00010f10       ??0?$vector@PAVCpTopology3Source@Net@OpenHome@@V?$allocator@PAVCpTopology3Source@Net@OpenHome@@@std@@@std@@QAE@XZ 00411f10 f i CpTopology3.obj
 0001:00010f50       ?push_back@?$vector@PAVCpTopology3Source@Net@OpenHome@@V?$allocator@PAVCpTopology3Source@Net@OpenHome@@@std@@@std@@QAEX$$QAPAVCpTopology3Source@Net@OpenHome@@@Z 00411f50 f i CpTopology3.obj
 0001:00011070       ??1?$vector@PAVCpTopology3Source@Net@OpenHome@@V?$allocator@PAVCpTopology3Source@Net@OpenHome@@@std@@@std@@QAE@XZ 00412070 f i CpTopology3.obj
 0001:000110e0       ?begin@?$vector@PAVCpTopology3Source@Net@OpenHome@@V?$allocator@PAVCpTopology3Source@Net@OpenHome@@@std@@@std@@QAE?AV?$_Vector_iterator@V?$_Vector_val@PAVCpTopology3Source@Net@OpenHome@@V?$allocator@PAVCpTopology3Source@Net@OpenHome@@@std@@@std@@@2@XZ 004120e0 f i CpTopology3.obj
 0001:00011130       ?end@?$vector@PAVCpTopology3Source@Net@OpenHome@@V?$allocator@PAVCpTopology3Source@Net@OpenHome@@@std@@@std@@QAE?AV?$_Vector_iterator@V?$_Vector_val@PAVCpTopology3Source@Net@OpenHome@@V?$allocator@PAVCpTopology3Source@Net@OpenHome@@@std@@@std@@@2@XZ 00412130 f i CpTopology3.obj
 0001:00011180       ?size@?$vector@PAVCpTopology3Source@Net@OpenHome@@V?$allocator@PAVCpTopology3Source@Net@OpenHome@@@std@@@std@@QBEIXZ 00412180 f i CpTopology3.obj
 0001:000111b0       ??A?$vector@PAVCpTopology3Source@Net@OpenHome@@V?$allocator@PAVCpTopology3Source@Net@OpenHome@@@std@@@std@@QBEABQAVCpTopology3Source@Net@OpenHome@@I@Z 004121b0 f i CpTopology3.obj
 0001:00011250       ??A?$vector@PAVCpTopology3Source@Net@OpenHome@@V?$allocator@PAVCpTopology3Source@Net@OpenHome@@@std@@@std@@QAEAAPAVCpTopology3Source@Net@OpenHome@@I@Z 00412250 f i CpTopology3.obj
 0001:000112f0       ?push_back@?$vector@PAVCpTopology3Source@Net@OpenHome@@V?$allocator@PAVCpTopology3Source@Net@OpenHome@@@std@@@std@@QAEXABQAVCpTopology3Source@Net@OpenHome@@@Z 004122f0 f i CpTopology3.obj
 0001:00011400       ?clear@?$vector@PAVCpTopology3Source@Net@OpenHome@@V?$allocator@PAVCpTopology3Source@Net@OpenHome@@@std@@@std@@QAEXXZ 00412400 f i CpTopology3.obj
 0001:00011500       ??0?$vector@PAVCpTopology3Group@Net@OpenHome@@V?$allocator@PAVCpTopology3Group@Net@OpenHome@@@std@@@std@@QAE@XZ 00412500 f i CpTopology3.obj
 0001:00011540       ?push_back@?$vector@PAVCpTopology3Group@Net@OpenHome@@V?$allocator@PAVCpTopology3Group@Net@OpenHome@@@std@@@std@@QAEX$$QAPAVCpTopology3Group@Net@OpenHome@@@Z 00412540 f i CpTopology3.obj
 0001:00011660       ??1?$vector@PAVCpTopology3Group@Net@OpenHome@@V?$allocator@PAVCpTopology3Group@Net@OpenHome@@@std@@@std@@QAE@XZ 00412660 f i CpTopology3.obj
 0001:000116d0       ?begin@?$vector@PAVCpTopology3Group@Net@OpenHome@@V?$allocator@PAVCpTopology3Group@Net@OpenHome@@@std@@@std@@QAE?AV?$_Vector_iterator@V?$_Vector_val@PAVCpTopology3Group@Net@OpenHome@@V?$allocator@PAVCpTopology3Group@Net@OpenHome@@@std@@@std@@@2@XZ 004126d0 f i CpTopology3.obj
 0001:00011720       ?end@?$vector@PAVCpTopology3Group@Net@OpenHome@@V?$allocator@PAVCpTopology3Group@Net@OpenHome@@@std@@@std@@QAE?AV?$_Vector_iterator@V?$_Vector_val@PAVCpTopology3Group@Net@OpenHome@@V?$allocator@PAVCpTopology3Group@Net@OpenHome@@@std@@@std@@@2@XZ 00412720 f i CpTopology3.obj
 0001:00011770       ?size@?$vector@PAVCpTopology3Group@Net@OpenHome@@V?$allocator@PAVCpTopology3Group@Net@OpenHome@@@std@@@std@@QBEIXZ 00412770 f i CpTopology3.obj
 0001:000117a0       ??A?$vector@PAVCpTopology3Group@Net@OpenHome@@V?$allocator@PAVCpTopology3Group@Net@OpenHome@@@std@@@std@@QBEABQAVCpTopology3Group@Net@OpenHome@@I@Z 004127a0 f i CpTopology3.obj
 0001:00011840       ?push_back@?$vector@PAVCpTopology3Group@Net@OpenHome@@V?$allocator@PAVCpTopology3Group@Net@OpenHome@@@std@@@std@@QAEXABQAVCpTopology3Group@Net@OpenHome@@@Z 00412840 f i CpTopology3.obj
 0001:00011950       ?erase@?$vector@PAVCpTopology3Group@Net@OpenHome@@V?$allocator@PAVCpTopology3Group@Net@OpenHome@@@std@@@std@@QAE?AV?$_Vector_iterator@V?$_Vector_val@PAVCpTopology3Group@Net@OpenHome@@V?$allocator@PAVCpTopology3Group@Net@OpenHome@@@std@@@std@@@2@V?$_Vector_const_iterator@V?$_Vector_val@PAVCpTopology3Group@Net@OpenHome@@V?$allocator@PAVCpTopology3Group@Net@OpenHome@@@std@@@std@@@2@@Z 00412950 f i CpTopology3.obj
 0001:00011a80       ??0?$list@PAVCpTopology3Room@Net@OpenHome@@V?$allocator@PAVCpTopology3Room@Net@OpenHome@@@std@@@std@@QAE@XZ 00412a80 f i CpTopology3.obj
 0001:00011ac0       ?push_back@?$list@PAVCpTopology3Room@Net@OpenHome@@V?$allocator@PAVCpTopology3Room@Net@OpenHome@@@std@@@std@@QAEX$$QAPAVCpTopology3Room@Net@OpenHome@@@Z 00412ac0 f i CpTopology3.obj
 0001:00011b80       ??1?$list@PAVCpTopology3Room@Net@OpenHome@@V?$allocator@PAVCpTopology3Room@Net@OpenHome@@@std@@@std@@QAE@XZ 00412b80 f i CpTopology3.obj
 0001:00011bf0       ?begin@?$list@PAVCpTopology3Room@Net@OpenHome@@V?$allocator@PAVCpTopology3Room@Net@OpenHome@@@std@@@std@@QAE?AV?$_List_iterator@V?$_List_val@PAVCpTopology3Room@Net@OpenHome@@V?$allocator@PAVCpTopology3Room@Net@OpenHome@@@std@@@std@@@2@XZ 00412bf0 f i CpTopology3.obj
 0001:00011c50       ?end@?$list@PAVCpTopology3Room@Net@OpenHome@@V?$allocator@PAVCpTopology3Room@Net@OpenHome@@@std@@@std@@QAE?AV?$_List_iterator@V?$_List_val@PAVCpTopology3Room@Net@OpenHome@@V?$allocator@PAVCpTopology3Room@Net@OpenHome@@@std@@@std@@@2@XZ 00412c50 f i CpTopology3.obj
 0001:00011ca0       ?size@?$list@PAVCpTopology3Room@Net@OpenHome@@V?$allocator@PAVCpTopology3Room@Net@OpenHome@@@std@@@std@@QBEIXZ 00412ca0 f i CpTopology3.obj
 0001:00011cc0       ?erase@?$list@PAVCpTopology3Room@Net@OpenHome@@V?$allocator@PAVCpTopology3Room@Net@OpenHome@@@std@@@std@@QAE?AV?$_List_iterator@V?$_List_val@PAVCpTopology3Room@Net@OpenHome@@V?$allocator@PAVCpTopology3Room@Net@OpenHome@@@std@@@std@@@2@V?$_List_const_iterator@V?$_List_val@PAVCpTopology3Room@Net@OpenHome@@V?$allocator@PAVCpTopology3Room@Net@OpenHome@@@std@@@std@@@2@@Z 00412cc0 f i CpTopology3.obj
 0001:00011e50       ??0?$_Vector_iterator@V?$_Vector_val@PAVCpTopology3Group@Net@OpenHome@@V?$allocator@PAVCpTopology3Group@Net@OpenHome@@@std@@@std@@@std@@QAE@XZ 00412e50 f i CpTopology3.obj
 0001:00011e80       ??D?$_Vector_iterator@V?$_Vector_val@PAVCpTopology3Group@Net@OpenHome@@V?$allocator@PAVCpTopology3Group@Net@OpenHome@@@std@@@std@@@std@@QBEAAPAVCpTopology3Group@Net@OpenHome@@XZ 00412e80 f i CpTopology3.obj
 0001:00011eb0       ??E?$_Vector_iterator@V?$_Vector_val@PAVCpTopology3Group@Net@OpenHome@@V?$allocator@PAVCpTopology3Group@Net@OpenHome@@@std@@@std@@@std@@QAE?AV01@H@Z 00412eb0 f i CpTopology3.obj
 0001:00011f80       ??0?$_Vector_const_iterator@V?$_Vector_val@PAVCpTopology3Group@Net@OpenHome@@V?$allocator@PAVCpTopology3Group@Net@OpenHome@@@std@@@std@@@std@@QAE@XZ 00412f80 f i CpTopology3.obj
 0001:00011fc0       ??D?$_Vector_const_iterator@V?$_Vector_val@PAVCpTopology3Group@Net@OpenHome@@V?$allocator@PAVCpTopology3Group@Net@OpenHome@@@std@@@std@@@std@@QBEABQAVCpTopology3Group@Net@OpenHome@@XZ 00412fc0 f i CpTopology3.obj
 0001:00012080       ??E?$_Vector_const_iterator@V?$_Vector_val@PAVCpTopology3Group@Net@OpenHome@@V?$allocator@PAVCpTopology3Group@Net@OpenHome@@@std@@@std@@@std@@QAE?AV01@H@Z 00413080 f i CpTopology3.obj
 0001:00012150       ??9?$_Vector_const_iterator@V?$_Vector_val@PAVCpTopology3Group@Net@OpenHome@@V?$allocator@PAVCpTopology3Group@Net@OpenHome@@@std@@@std@@@std@@QBE_NABV01@@Z 00413150 f i CpTopology3.obj
 0001:00012190       ??D?$_Vector_iterator@V?$_Vector_val@PAVCpTopology3Source@Net@OpenHome@@V?$allocator@PAVCpTopology3Source@Net@OpenHome@@@std@@@std@@@std@@QBEAAPAVCpTopology3Source@Net@OpenHome@@XZ 00413190 f i CpTopology3.obj
 0001:000121c0       ??E?$_Vector_iterator@V?$_Vector_val@PAVCpTopology3Source@Net@OpenHome@@V?$allocator@PAVCpTopology3Source@Net@OpenHome@@@std@@@std@@@std@@QAE?AV01@H@Z 004131c0 f i CpTopology3.obj
 0001:00012290       ??9?$_Vector_const_iterator@V?$_Vector_val@PAVCpTopology3Source@Net@OpenHome@@V?$allocator@PAVCpTopology3Source@Net@OpenHome@@@std@@@std@@@std@@QBE_NABV01@@Z 00413290 f i CpTopology3.obj
 0001:000122d0       ??D?$_List_iterator@V?$_List_val@PAVCpTopology3Room@Net@OpenHome@@V?$allocator@PAVCpTopology3Room@Net@OpenHome@@@std@@@std@@@std@@QBEAAPAVCpTopology3Room@Net@OpenHome@@XZ 004132d0 f i CpTopology3.obj
 0001:00012300       ??E?$_List_iterator@V?$_List_val@PAVCpTopology3Room@Net@OpenHome@@V?$allocator@PAVCpTopology3Room@Net@OpenHome@@@std@@@std@@@std@@QAE?AV01@H@Z 00413300 f i CpTopology3.obj
 0001:000123d0       ??9?$_List_const_iterator@V?$_List_val@PAVCpTopology3Room@Net@OpenHome@@V?$allocator@PAVCpTopology3Room@Net@OpenHome@@@std@@@std@@@std@@QBE_NABV01@@Z 004133d0 f i CpTopology3.obj
 0001:00012410       ??0?$_Vector_const_iterator@V?$_Vector_val@PAVCpTopology3Source@Net@OpenHome@@V?$allocator@PAVCpTopology3Source@Net@OpenHome@@@std@@@std@@@std@@QAE@ABV01@@Z 00413410 f i CpTopology3.obj
 0001:00012450       ??0?$_Vector_iterator@V?$_Vector_val@PAVCpTopology3Group@Net@OpenHome@@V?$allocator@PAVCpTopology3Group@Net@OpenHome@@@std@@@std@@@std@@QAE@ABV01@@Z 00413450 f i CpTopology3.obj
 0001:00012480       ??0?$_Iterator012@Urandom_access_iterator_tag@std@@PAVCpTopology3Group@Net@OpenHome@@HPBQAV345@ABQAV345@U_Iterator_base12@2@@std@@QAE@XZ 00413480 f i CpTopology3.obj
 0001:000124b0       ??0?$_Vector_iterator@V?$_Vector_val@PAVCpTopology3Source@Net@OpenHome@@V?$allocator@PAVCpTopology3Source@Net@OpenHome@@@std@@@std@@@std@@QAE@ABV01@@Z 004134b0 f i CpTopology3.obj
 0001:000124e0       ??0?$_List_iterator@V?$_List_val@PAVCpTopology3Room@Net@OpenHome@@V?$allocator@PAVCpTopology3Room@Net@OpenHome@@@std@@@std@@@std@@QAE@ABV01@@Z 004134e0 f i CpTopology3.obj
 0001:00012510       ??0?$_Iterator012@Urandom_access_iterator_tag@std@@PAVCpTopology3Source@Net@OpenHome@@HPBQAV345@ABQAV345@U_Iterator_base12@2@@std@@QAE@ABU01@@Z 00413510 f i CpTopology3.obj
 0001:00012540       ?erase@?$vector@PAVCpTopology3Source@Net@OpenHome@@V?$allocator@PAVCpTopology3Source@Net@OpenHome@@@std@@@std@@QAE?AV?$_Vector_iterator@V?$_Vector_val@PAVCpTopology3Source@Net@OpenHome@@V?$allocator@PAVCpTopology3Source@Net@OpenHome@@@std@@@std@@@2@V?$_Vector_const_iterator@V?$_Vector_val@PAVCpTopology3Source@Net@OpenHome@@V?$allocator@PAVCpTopology3Source@Net@OpenHome@@@std@@@std@@@2@0@Z 00413540 f i CpTopology3.obj
 0001:00012730       ?_Inside@?$vector@PAVCpTopology3Source@Net@OpenHome@@V?$allocator@PAVCpTopology3Source@Net@OpenHome@@@std@@@std@@IBE_NPBQAVCpTopology3Source@Net@OpenHome@@@Z 00413730 f i CpTopology3.obj
 0001:00012780       ?_Reserve@?$vector@PAVCpTopology3Source@Net@OpenHome@@V?$allocator@PAVCpTopology3Source@Net@OpenHome@@@std@@@std@@IAEXI@Z 00413780 f i CpTopology3.obj
 0001:00012800       ?_Tidy@?$vector@PAVCpTopology3Source@Net@OpenHome@@V?$allocator@PAVCpTopology3Source@Net@OpenHome@@@std@@@std@@IAEXXZ 00413800 f i CpTopology3.obj
 0001:00012890       ?_Orphan_range@?$vector@PAVCpTopology3Source@Net@OpenHome@@V?$allocator@PAVCpTopology3Source@Net@OpenHome@@@std@@@std@@IBEXPAPAVCpTopology3Source@Net@OpenHome@@0@Z 00413890 f i CpTopology3.obj
 0001:000129a0       ??0?$_Vector_val@PAVCpTopology3Source@Net@OpenHome@@V?$allocator@PAVCpTopology3Source@Net@OpenHome@@@std@@@std@@QAE@V?$allocator@PAVCpTopology3Source@Net@OpenHome@@@1@@Z 004139a0 f i CpTopology3.obj
 0001:00012ac0       ??1?$_Vector_val@PAVCpTopology3Source@Net@OpenHome@@V?$allocator@PAVCpTopology3Source@Net@OpenHome@@@std@@@std@@QAE@XZ 00413ac0 f i CpTopology3.obj
 0001:00012ba0       ??0?$allocator@PAVCpTopology3Source@Net@OpenHome@@@std@@QAE@XZ 00413ba0 f i CpTopology3.obj
 0001:00012bc0       ?_Make_iter@?$vector@PAVCpTopology3Group@Net@OpenHome@@V?$allocator@PAVCpTopology3Group@Net@OpenHome@@@std@@@std@@QBE?AV?$_Vector_iterator@V?$_Vector_val@PAVCpTopology3Group@Net@OpenHome@@V?$allocator@PAVCpTopology3Group@Net@OpenHome@@@std@@@std@@@2@V?$_Vector_const_iterator@V?$_Vector_val@PAVCpTopology3Group@Net@OpenHome@@V?$allocator@PAVCpTopology3Group@Net@OpenHome@@@std@@@std@@@2@@Z 00413bc0 f i CpTopology3.obj
 0001:00012c50       ?_Destroy@?$vector@PAVCpTopology3Group@Net@OpenHome@@V?$allocator@PAVCpTopology3Group@Net@OpenHome@@@std@@@std@@IAEXPAPAVCpTopology3Group@Net@OpenHome@@0@Z 00413c50 f i CpTopology3.obj
 0001:00012c90       ?_Inside@?$vector@PAVCpTopology3Group@Net@OpenHome@@V?$allocator@PAVCpTopology3Group@Net@OpenHome@@@std@@@std@@IBE_NPBQAVCpTopology3Group@Net@OpenHome@@@Z 00413c90 f i CpTopology3.obj
 0001:00012ce0       ?_Reserve@?$vector@PAVCpTopology3Group@Net@OpenHome@@V?$allocator@PAVCpTopology3Group@Net@OpenHome@@@std@@@std@@IAEXI@Z 00413ce0 f i CpTopology3.obj
 0001:00012d60       ?_Tidy@?$vector@PAVCpTopology3Group@Net@OpenHome@@V?$allocator@PAVCpTopology3Group@Net@OpenHome@@@std@@@std@@IAEXXZ 00413d60 f i CpTopology3.obj
 0001:00012df0       ?_Orphan_range@?$vector@PAVCpTopology3Group@Net@OpenHome@@V?$allocator@PAVCpTopology3Group@Net@OpenHome@@@std@@@std@@IBEXPAPAVCpTopology3Group@Net@OpenHome@@0@Z 00413df0 f i CpTopology3.obj
 0001:00012f00       ??0?$_Vector_val@PAVCpTopology3Group@Net@OpenHome@@V?$allocator@PAVCpTopology3Group@Net@OpenHome@@@std@@@std@@QAE@V?$allocator@PAVCpTopology3Group@Net@OpenHome@@@1@@Z 00413f00 f i CpTopology3.obj
 0001:00013020       ??1?$_Vector_val@PAVCpTopology3Group@Net@OpenHome@@V?$allocator@PAVCpTopology3Group@Net@OpenHome@@@std@@@std@@QAE@XZ 00414020 f i CpTopology3.obj
 0001:00013100       ??0?$allocator@PAVCpTopology3Group@Net@OpenHome@@@std@@QAE@XZ 00414100 f i CpTopology3.obj
 0001:00013120       ?_Make_iter@?$list@PAVCpTopology3Room@Net@OpenHome@@V?$allocator@PAVCpTopology3Room@Net@OpenHome@@@std@@@std@@QBE?AV?$_List_iterator@V?$_List_val@PAVCpTopology3Room@Net@OpenHome@@V?$allocator@PAVCpTopology3Room@Net@OpenHome@@@std@@@std@@@2@V?$_List_const_iterator@V?$_List_val@PAVCpTopology3Room@Net@OpenHome@@V?$allocator@PAVCpTopology3Room@Net@OpenHome@@@std@@@std@@@2@@Z 00414120 f i CpTopology3.obj
 0001:000131b0       ?_Tidy@?$list@PAVCpTopology3Room@Net@OpenHome@@V?$allocator@PAVCpTopology3Room@Net@OpenHome@@@std@@@std@@QAEXXZ 004141b0 f i CpTopology3.obj
 0001:000131e0       ?_Orphan_ptr@?$list@PAVCpTopology3Room@Net@OpenHome@@V?$allocator@PAVCpTopology3Room@Net@OpenHome@@@std@@@std@@QBEXAAV12@PAU_Node@?$_List_nod@PAVCpTopology3Room@Net@OpenHome@@V?$allocator@PAVCpTopology3Room@Net@OpenHome@@@std@@@2@@Z 004141e0 f i CpTopology3.obj
 0001:000132f0       ??0?$_List_val@PAVCpTopology3Room@Net@OpenHome@@V?$allocator@PAVCpTopology3Room@Net@OpenHome@@@std@@@std@@QAE@V?$allocator@PAVCpTopology3Room@Net@OpenHome@@@1@@Z 004142f0 f i CpTopology3.obj
 0001:000133b0       ??1?$_List_val@PAVCpTopology3Room@Net@OpenHome@@V?$allocator@PAVCpTopology3Room@Net@OpenHome@@@std@@@std@@QAE@XZ 004143b0 f i CpTopology3.obj
 0001:00013420       ?_Nextnode@?$_List_val@PAVCpTopology3Room@Net@OpenHome@@V?$allocator@PAVCpTopology3Room@Net@OpenHome@@@std@@@std@@SGAAPAU_Node@?$_List_nod@PAVCpTopology3Room@Net@OpenHome@@V?$allocator@PAVCpTopology3Room@Net@OpenHome@@@std@@@2@PAU342@@Z 00414420 f i CpTopology3.obj
 0001:00013430       ?_Prevnode@?$_List_val@PAVCpTopology3Room@Net@OpenHome@@V?$allocator@PAVCpTopology3Room@Net@OpenHome@@@std@@@std@@SGAAPAU_Node@?$_List_nod@PAVCpTopology3Room@Net@OpenHome@@V?$allocator@PAVCpTopology3Room@Net@OpenHome@@@std@@@2@PAU342@@Z 00414430 f i CpTopology3.obj
 0001:00013440       ??0?$allocator@PAVCpTopology3Room@Net@OpenHome@@@std@@QAE@XZ 00414440 f i CpTopology3.obj
 0001:00013460       ?deallocate@?$allocator@U_Node@?$_List_nod@PAVCpTopology3Room@Net@OpenHome@@V?$allocator@PAVCpTopology3Room@Net@OpenHome@@@std@@@std@@@std@@QAEXPAU_Node@?$_List_nod@PAVCpTopology3Room@Net@OpenHome@@V?$allocator@PAVCpTopology3Room@Net@OpenHome@@@std@@@2@I@Z 00414460 f i CpTopology3.obj
 0001:00013490       ??0?$_Vector_iterator@V?$_Vector_val@PAVCpTopology3Group@Net@OpenHome@@V?$allocator@PAVCpTopology3Group@Net@OpenHome@@@std@@@std@@@std@@QAE@PAPAVCpTopology3Group@Net@OpenHome@@PBU_Container_base12@1@@Z 00414490 f i CpTopology3.obj
 0001:000134d0       ??E?$_Vector_iterator@V?$_Vector_val@PAVCpTopology3Group@Net@OpenHome@@V?$allocator@PAVCpTopology3Group@Net@OpenHome@@@std@@@std@@@std@@QAEAAV01@XZ 004144d0 f i CpTopology3.obj
 0001:00013500       ??E?$_Vector_const_iterator@V?$_Vector_val@PAVCpTopology3Group@Net@OpenHome@@V?$allocator@PAVCpTopology3Group@Net@OpenHome@@@std@@@std@@@std@@QAEAAV01@XZ 00414500 f i CpTopology3.obj
 0001:000135b0       ??8?$_Vector_const_iterator@V?$_Vector_val@PAVCpTopology3Group@Net@OpenHome@@V?$allocator@PAVCpTopology3Group@Net@OpenHome@@@std@@@std@@@std@@QBE_NABV01@@Z 004145b0 f i CpTopology3.obj
 0001:000135f0       ??0?$_Vector_iterator@V?$_Vector_val@PAVCpTopology3Source@Net@OpenHome@@V?$allocator@PAVCpTopology3Source@Net@OpenHome@@@std@@@std@@@std@@QAE@PAPAVCpTopology3Source@Net@OpenHome@@PBU_Container_base12@1@@Z 004145f0 f i CpTopology3.obj
 0001:00013630       ??E?$_Vector_iterator@V?$_Vector_val@PAVCpTopology3Source@Net@OpenHome@@V?$allocator@PAVCpTopology3Source@Net@OpenHome@@@std@@@std@@@std@@QAEAAV01@XZ 00414630 f i CpTopology3.obj
 0001:00013660       ??D?$_Vector_const_iterator@V?$_Vector_val@PAVCpTopology3Source@Net@OpenHome@@V?$allocator@PAVCpTopology3Source@Net@OpenHome@@@std@@@std@@@std@@QBEABQAVCpTopology3Source@Net@OpenHome@@XZ 00414660 f i CpTopology3.obj
 0001:00013720       ??8?$_Vector_const_iterator@V?$_Vector_val@PAVCpTopology3Source@Net@OpenHome@@V?$allocator@PAVCpTopology3Source@Net@OpenHome@@@std@@@std@@@std@@QBE_NABV01@@Z 00414720 f i CpTopology3.obj
 0001:00013760       ??0?$_List_iterator@V?$_List_val@PAVCpTopology3Room@Net@OpenHome@@V?$allocator@PAVCpTopology3Room@Net@OpenHome@@@std@@@std@@@std@@QAE@PAU_Node@?$_List_nod@PAVCpTopology3Room@Net@OpenHome@@V?$allocator@PAVCpTopology3Room@Net@OpenHome@@@std@@@1@PBV?$_List_val@PAVCpTopology3Room@Net@OpenHome@@V?$allocator@PAVCpTopology3Room@Net@OpenHome@@@std@@@1@@Z 00414760 f i CpTopology3.obj
 0001:000137a0       ??E?$_List_iterator@V?$_List_val@PAVCpTopology3Room@Net@OpenHome@@V?$allocator@PAVCpTopology3Room@Net@OpenHome@@@std@@@std@@@std@@QAEAAV01@XZ 004147a0 f i CpTopology3.obj
 0001:000137d0       ??D?$_List_const_iterator@V?$_List_val@PAVCpTopology3Room@Net@OpenHome@@V?$allocator@PAVCpTopology3Room@Net@OpenHome@@@std@@@std@@@std@@QBEABQAVCpTopology3Room@Net@OpenHome@@XZ 004147d0 f i CpTopology3.obj
 0001:00013890       ??E?$_List_const_iterator@V?$_List_val@PAVCpTopology3Room@Net@OpenHome@@V?$allocator@PAVCpTopology3Room@Net@OpenHome@@@std@@@std@@@std@@QAE?AV01@H@Z 00414890 f i CpTopology3.obj
 0001:00013960       ??8?$_List_const_iterator@V?$_List_val@PAVCpTopology3Room@Net@OpenHome@@V?$allocator@PAVCpTopology3Room@Net@OpenHome@@@std@@@std@@@std@@QBE_NABV01@@Z 00414960 f i CpTopology3.obj
 0001:00013a20       ?_Mynode@?$_List_unchecked_const_iterator@V?$_List_val@PAVCpTopology3Room@Net@OpenHome@@V?$allocator@PAVCpTopology3Room@Net@OpenHome@@@std@@@std@@U_Iterator_base12@2@@std@@QBEPAU_Node@?$_List_nod@PAVCpTopology3Room@Net@OpenHome@@V?$allocator@PAVCpTopology3Room@Net@OpenHome@@@std@@@2@XZ 00414a20 f i CpTopology3.obj
 0001:00013a40       ?reserve@?$vector@PAVCpTopology3Source@Net@OpenHome@@V?$allocator@PAVCpTopology3Source@Net@OpenHome@@@std@@@std@@QAEXI@Z 00414a40 f i CpTopology3.obj
 0001:00013bb0       ?capacity@?$vector@PAVCpTopology3Source@Net@OpenHome@@V?$allocator@PAVCpTopology3Source@Net@OpenHome@@@std@@@std@@QBEIXZ 00414bb0 f i CpTopology3.obj
 0001:00013be0       ?_Make_iter@?$vector@PAVCpTopology3Source@Net@OpenHome@@V?$allocator@PAVCpTopology3Source@Net@OpenHome@@@std@@@std@@QBE?AV?$_Vector_iterator@V?$_Vector_val@PAVCpTopology3Source@Net@OpenHome@@V?$allocator@PAVCpTopology3Source@Net@OpenHome@@@std@@@std@@@2@V?$_Vector_const_iterator@V?$_Vector_val@PAVCpTopology3Source@Net@OpenHome@@V?$allocator@PAVCpTopology3Source@Net@OpenHome@@@std@@@std@@@2@@Z 00414be0 f i CpTopology3.obj
 0001:00013c70       ?max_size@?$vector@PAVCpTopology3Source@Net@OpenHome@@V?$allocator@PAVCpTopology3Source@Net@OpenHome@@@std@@@std@@QBEIXZ 00414c70 f i CpTopology3.obj
 0001:00013ca0       ?_Destroy@?$vector@PAVCpTopology3Source@Net@OpenHome@@V?$allocator@PAVCpTopology3Source@Net@OpenHome@@@std@@@std@@IAEXPAPAVCpTopology3Source@Net@OpenHome@@0@Z 00414ca0 f i CpTopology3.obj
 0001:00013ce0       ?_Grow_to@?$vector@PAVCpTopology3Source@Net@OpenHome@@V?$allocator@PAVCpTopology3Source@Net@OpenHome@@@std@@@std@@IBEII@Z 00414ce0 f i CpTopology3.obj
 0001:00013d60       ?_Xlen@?$vector@PAVCpTopology3Source@Net@OpenHome@@V?$allocator@PAVCpTopology3Source@Net@OpenHome@@@std@@@std@@IBEXXZ 00414d60 f i CpTopology3.obj
 0001:00013d90       ??0?$allocator@PAVCpTopology3Source@Net@OpenHome@@@std@@QAE@ABV01@@Z 00414d90 f i CpTopology3.obj
 0001:00013db0       ?deallocate@?$allocator@PAVCpTopology3Source@Net@OpenHome@@@std@@QAEXPAPAVCpTopology3Source@Net@OpenHome@@I@Z 00414db0 f i CpTopology3.obj
 0001:00013de0       ?reserve@?$vector@PAVCpTopology3Group@Net@OpenHome@@V?$allocator@PAVCpTopology3Group@Net@OpenHome@@@std@@@std@@QAEXI@Z 00414de0 f i CpTopology3.obj
 0001:00013f50       ?capacity@?$vector@PAVCpTopology3Group@Net@OpenHome@@V?$allocator@PAVCpTopology3Group@Net@OpenHome@@@std@@@std@@QBEIXZ 00414f50 f i CpTopology3.obj
 0001:00013f80       ?max_size@?$vector@PAVCpTopology3Group@Net@OpenHome@@V?$allocator@PAVCpTopology3Group@Net@OpenHome@@@std@@@std@@QBEIXZ 00414f80 f i CpTopology3.obj
 0001:00013fb0       ?_Grow_to@?$vector@PAVCpTopology3Group@Net@OpenHome@@V?$allocator@PAVCpTopology3Group@Net@OpenHome@@@std@@@std@@IBEII@Z 00414fb0 f i CpTopology3.obj
 0001:00014030       ?_Xlen@?$vector@PAVCpTopology3Group@Net@OpenHome@@V?$allocator@PAVCpTopology3Group@Net@OpenHome@@@std@@@std@@IBEXXZ 00415030 f i CpTopology3.obj
 0001:00014060       ??0?$allocator@PAVCpTopology3Group@Net@OpenHome@@@std@@QAE@ABV01@@Z 00415060 f i CpTopology3.obj
 0001:00014080       ?deallocate@?$allocator@PAVCpTopology3Group@Net@OpenHome@@@std@@QAEXPAPAVCpTopology3Group@Net@OpenHome@@I@Z 00415080 f i CpTopology3.obj
 0001:000140b0       ?clear@?$list@PAVCpTopology3Room@Net@OpenHome@@V?$allocator@PAVCpTopology3Room@Net@OpenHome@@@std@@@std@@QAEXXZ 004150b0 f i CpTopology3.obj
 0001:00014180       ?_Myval@?$_List_val@PAVCpTopology3Room@Net@OpenHome@@V?$allocator@PAVCpTopology3Room@Net@OpenHome@@@std@@@std@@SGAAPAVCpTopology3Room@Net@OpenHome@@PAU_Node@?$_List_nod@PAVCpTopology3Room@Net@OpenHome@@V?$allocator@PAVCpTopology3Room@Net@OpenHome@@@std@@@2@@Z 00415180 f i CpTopology3.obj
 0001:00014190       ??0?$_List_nod@PAVCpTopology3Room@Net@OpenHome@@V?$allocator@PAVCpTopology3Room@Net@OpenHome@@@std@@@std@@QAE@V?$allocator@PAVCpTopology3Room@Net@OpenHome@@@1@@Z 00415190 f i CpTopology3.obj
 0001:000142a0       ??1?$_List_nod@PAVCpTopology3Room@Net@OpenHome@@V?$allocator@PAVCpTopology3Room@Net@OpenHome@@@std@@@std@@QAE@XZ 004152a0 f i CpTopology3.obj
 0001:00014380       ??0?$allocator@PAVCpTopology3Room@Net@OpenHome@@@std@@QAE@ABV01@@Z 00415380 f i CpTopology3.obj
 0001:000143a0       ?allocate@?$allocator@U_Node@?$_List_nod@PAVCpTopology3Room@Net@OpenHome@@V?$allocator@PAVCpTopology3Room@Net@OpenHome@@@std@@@std@@@std@@QAEPAU_Node@?$_List_nod@PAVCpTopology3Room@Net@OpenHome@@V?$allocator@PAVCpTopology3Room@Net@OpenHome@@@std@@@2@I@Z 004153a0 f i CpTopology3.obj
 0001:000143d0       ??0?$_Vector_const_iterator@V?$_Vector_val@PAVCpTopology3Group@Net@OpenHome@@V?$allocator@PAVCpTopology3Group@Net@OpenHome@@@std@@@std@@@std@@QAE@PAPAVCpTopology3Group@Net@OpenHome@@PBU_Container_base12@1@@Z 004153d0 f i CpTopology3.obj
 0001:00014450       ?_Compat@?$_Vector_const_iterator@V?$_Vector_val@PAVCpTopology3Group@Net@OpenHome@@V?$allocator@PAVCpTopology3Group@Net@OpenHome@@@std@@@std@@@std@@QBEXABV12@@Z 00415450 f i CpTopology3.obj
 0001:00014500       ??0?$_Vector_const_iterator@V?$_Vector_val@PAVCpTopology3Source@Net@OpenHome@@V?$allocator@PAVCpTopology3Source@Net@OpenHome@@@std@@@std@@@std@@QAE@PAPAVCpTopology3Source@Net@OpenHome@@PBU_Container_base12@1@@Z 00415500 f i CpTopology3.obj
 0001:00014580       ??E?$_Vector_const_iterator@V?$_Vector_val@PAVCpTopology3Source@Net@OpenHome@@V?$allocator@PAVCpTopology3Source@Net@OpenHome@@@std@@@std@@@std@@QAEAAV01@XZ 00415580 f i CpTopology3.obj
 0001:00014630       ??M?$_Vector_const_iterator@V?$_Vector_val@PAVCpTopology3Source@Net@OpenHome@@V?$allocator@PAVCpTopology3Source@Net@OpenHome@@@std@@@std@@@std@@QBE_NABV01@@Z 00415630 f i CpTopology3.obj
 0001:00014670       ?_Compat@?$_Vector_const_iterator@V?$_Vector_val@PAVCpTopology3Source@Net@OpenHome@@V?$allocator@PAVCpTopology3Source@Net@OpenHome@@@std@@@std@@@std@@QBEXABV12@@Z 00415670 f i CpTopology3.obj
 0001:00014720       ??0?$_List_const_iterator@V?$_List_val@PAVCpTopology3Room@Net@OpenHome@@V?$allocator@PAVCpTopology3Room@Net@OpenHome@@@std@@@std@@@std@@QAE@PAU_Node@?$_List_nod@PAVCpTopology3Room@Net@OpenHome@@V?$allocator@PAVCpTopology3Room@Net@OpenHome@@@std@@@1@PBV?$_List_val@PAVCpTopology3Room@Net@OpenHome@@V?$allocator@PAVCpTopology3Room@Net@OpenHome@@@std@@@1@@Z 00415720 f i CpTopology3.obj
 0001:00014760       ??E?$_List_const_iterator@V?$_List_val@PAVCpTopology3Room@Net@OpenHome@@V?$allocator@PAVCpTopology3Room@Net@OpenHome@@@std@@@std@@@std@@QAEAAV01@XZ 00415760 f i CpTopology3.obj
 0001:00014820       ??0?$_Iterator012@Urandom_access_iterator_tag@std@@PAVCpTopology3Source@Net@OpenHome@@HPBQAV345@ABQAV345@U_Iterator_base12@2@@std@@QAE@XZ 00415820 f i CpTopology3.obj
 0001:00014850       ?allocate@?$allocator@PAVCpTopology3Source@Net@OpenHome@@@std@@QAEPAPAVCpTopology3Source@Net@OpenHome@@I@Z 00415850 f i CpTopology3.obj
 0001:00014880       ?max_size@?$allocator@PAVCpTopology3Source@Net@OpenHome@@@std@@QBEIXZ 00415880 f i CpTopology3.obj
 0001:000148d0       ?allocate@?$allocator@PAVCpTopology3Group@Net@OpenHome@@@std@@QAEPAPAVCpTopology3Group@Net@OpenHome@@I@Z 004158d0 f i CpTopology3.obj
 0001:00014900       ?max_size@?$allocator@PAVCpTopology3Group@Net@OpenHome@@@std@@QBEIXZ 00415900 f i CpTopology3.obj
 0001:00014950       ??0?$_List_unchecked_const_iterator@V?$_List_val@PAVCpTopology3Room@Net@OpenHome@@V?$allocator@PAVCpTopology3Room@Net@OpenHome@@@std@@@std@@U_Iterator_base12@2@@std@@QAE@PAU_Node@?$_List_nod@PAVCpTopology3Room@Net@OpenHome@@V?$allocator@PAVCpTopology3Room@Net@OpenHome@@@std@@@1@PBV?$_List_val@PAVCpTopology3Room@Net@OpenHome@@V?$allocator@PAVCpTopology3Room@Net@OpenHome@@@std@@@1@@Z 00415950 f i CpTopology3.obj
 0001:000149d0       ??0?$_Iterator012@Ubidirectional_iterator_tag@std@@PAVCpTopology3Room@Net@OpenHome@@HPBQAV345@ABQAV345@U_Iterator_base12@2@@std@@QAE@XZ 004159d0 f i CpTopology3.obj
 0001:00014a00       ??$addressof@PAVCpTopology3Source@Net@OpenHome@@@std@@YGPAPAVCpTopology3Source@Net@OpenHome@@AAPAV123@@Z 00415a00 f i CpTopology3.obj
 0001:00014a10       ??$forward@PAVCpTopology3Source@Net@OpenHome@@@std@@YG$$QAPAVCpTopology3Source@Net@OpenHome@@AAPAV123@@Z 00415a10 f i CpTopology3.obj
 0001:00014a20       ??$_Cons_val@V?$allocator@PAVCpTopology3Source@Net@OpenHome@@@std@@PAVCpTopology3Source@Net@OpenHome@@PAV345@@std@@YGXAAV?$allocator@PAVCpTopology3Source@Net@OpenHome@@@0@PAPAVCpTopology3Source@Net@OpenHome@@$$QAPAV234@@Z 00415a20 f i CpTopology3.obj
 0001:00014a50       ??$addressof@QAVCpTopology3Source@Net@OpenHome@@@std@@YGPBQAVCpTopology3Source@Net@OpenHome@@ABQAV123@@Z 00415a50 f i CpTopology3.obj
 0001:00014a60       ??$_Cons_val@V?$allocator@PAVCpTopology3Source@Net@OpenHome@@@std@@PAVCpTopology3Source@Net@OpenHome@@AAPAV345@@std@@YGXAAV?$allocator@PAVCpTopology3Source@Net@OpenHome@@@0@PAPAVCpTopology3Source@Net@OpenHome@@AAPAV234@@Z 00415a60 f i CpTopology3.obj
 0001:00014a90       ??$_Cons_val@V?$allocator@PAVCpTopology3Source@Net@OpenHome@@@std@@PAVCpTopology3Source@Net@OpenHome@@ABQAV345@@std@@YGXAAV?$allocator@PAVCpTopology3Source@Net@OpenHome@@@0@PAPAVCpTopology3Source@Net@OpenHome@@ABQAV234@@Z 00415a90 f i CpTopology3.obj
 0001:00014ac0       ??$addressof@PAVCpTopology3Group@Net@OpenHome@@@std@@YGPAPAVCpTopology3Group@Net@OpenHome@@AAPAV123@@Z 00415ac0 f i CpTopology3.obj
 0001:00014ad0       ??$forward@PAVCpTopology3Group@Net@OpenHome@@@std@@YG$$QAPAVCpTopology3Group@Net@OpenHome@@AAPAV123@@Z 00415ad0 f i CpTopology3.obj
 0001:00014ae0       ??$_Cons_val@V?$allocator@PAVCpTopology3Group@Net@OpenHome@@@std@@PAVCpTopology3Group@Net@OpenHome@@PAV345@@std@@YGXAAV?$allocator@PAVCpTopology3Group@Net@OpenHome@@@0@PAPAVCpTopology3Group@Net@OpenHome@@$$QAPAV234@@Z 00415ae0 f i CpTopology3.obj
 0001:00014b10       ??$addressof@QAVCpTopology3Group@Net@OpenHome@@@std@@YGPBQAVCpTopology3Group@Net@OpenHome@@ABQAV123@@Z 00415b10 f i CpTopology3.obj
 0001:00014b20       ??$_Cons_val@V?$allocator@PAVCpTopology3Group@Net@OpenHome@@@std@@PAVCpTopology3Group@Net@OpenHome@@AAPAV345@@std@@YGXAAV?$allocator@PAVCpTopology3Group@Net@OpenHome@@@0@PAPAVCpTopology3Group@Net@OpenHome@@AAPAV234@@Z 00415b20 f i CpTopology3.obj
 0001:00014b50       ??$_Cons_val@V?$allocator@PAVCpTopology3Group@Net@OpenHome@@@std@@PAVCpTopology3Group@Net@OpenHome@@ABQAV345@@std@@YGXAAV?$allocator@PAVCpTopology3Group@Net@OpenHome@@@0@PAPAVCpTopology3Group@Net@OpenHome@@ABQAV234@@Z 00415b50 f i CpTopology3.obj
 0001:00014b80       ??$_Move@PAPAVCpTopology3Group@Net@OpenHome@@PAPAV123@@std@@YGPAPAVCpTopology3Group@Net@OpenHome@@PAPAV123@00@Z 00415b80 f i CpTopology3.obj
 0001:00014bd0       ??$forward@PAVCpTopology3Room@Net@OpenHome@@@std@@YG$$QAPAVCpTopology3Room@Net@OpenHome@@AAPAV123@@Z 00415bd0 f i CpTopology3.obj
 0001:00014be0       ??$_Insert_rv@PAVCpTopology3Room@Net@OpenHome@@@?$list@PAVCpTopology3Room@Net@OpenHome@@V?$allocator@PAVCpTopology3Room@Net@OpenHome@@@std@@@std@@QAEXV?$_List_const_iterator@V?$_List_val@PAVCpTopology3Room@Net@OpenHome@@V?$allocator@PAVCpTopology3Room@Net@OpenHome@@@std@@@std@@@1@$$QAPAVCpTopology3Room@Net@OpenHome@@@Z 00415be0 f i CpTopology3.obj
 0001:00014cd0       ??$_Dest_val@V?$allocator@U_Node@?$_List_nod@PAVCpTopology3Room@Net@OpenHome@@V?$allocator@PAVCpTopology3Room@Net@OpenHome@@@std@@@std@@@std@@U_Node@?$_List_nod@PAVCpTopology3Room@Net@OpenHome@@V?$allocator@PAVCpTopology3Room@Net@OpenHome@@@std@@@2@@std@@YGXAAV?$allocator@U_Node@?$_List_nod@PAVCpTopology3Room@Net@OpenHome@@V?$allocator@PAVCpTopology3Room@Net@OpenHome@@@std@@@std@@@0@PAU_Node@?$_List_nod@PAVCpTopology3Room@Net@OpenHome@@V?$allocator@PAVCpTopology3Room@Net@OpenHome@@@std@@@0@@Z 00415cd0 f i CpTopology3.obj
 0001:00014cf0       ??$_Move@PAPAVCpTopology3Source@Net@OpenHome@@PAPAV123@@std@@YGPAPAVCpTopology3Source@Net@OpenHome@@PAPAV123@00@Z 00415cf0 f i CpTopology3.obj
 0001:00014d40       ??$?0PAVCpTopology3Source@Net@OpenHome@@@?$allocator@U_Container_proxy@std@@@std@@QAE@ABV?$allocator@PAVCpTopology3Source@Net@OpenHome@@@1@@Z 00415d40 f i CpTopology3.obj
 0001:00014d60       ??$_Destroy_range@V?$allocator@PAVCpTopology3Group@Net@OpenHome@@@std@@@std@@YGXPAPAVCpTopology3Group@Net@OpenHome@@0AAV?$allocator@PAVCpTopology3Group@Net@OpenHome@@@0@@Z 00415d60 f i CpTopology3.obj
 0001:00014db0       ??$?0PAVCpTopology3Group@Net@OpenHome@@@?$allocator@U_Container_proxy@std@@@std@@QAE@ABV?$allocator@PAVCpTopology3Group@Net@OpenHome@@@1@@Z 00415db0 f i CpTopology3.obj
 0001:00014dd0       ??$_Umove@PAPAVCpTopology3Source@Net@OpenHome@@@?$vector@PAVCpTopology3Source@Net@OpenHome@@V?$allocator@PAVCpTopology3Source@Net@OpenHome@@@std@@@std@@IAEPAPAVCpTopology3Source@Net@OpenHome@@PAPAV234@00@Z 00415dd0 f i CpTopology3.obj
 0001:00014e10       ??$_Destroy_range@V?$allocator@PAVCpTopology3Source@Net@OpenHome@@@std@@@std@@YGXPAPAVCpTopology3Source@Net@OpenHome@@0AAV?$allocator@PAVCpTopology3Source@Net@OpenHome@@@0@@Z 00415e10 f i CpTopology3.obj
 0001:00014e60       ??$_Umove@PAPAVCpTopology3Group@Net@OpenHome@@@?$vector@PAVCpTopology3Group@Net@OpenHome@@V?$allocator@PAVCpTopology3Group@Net@OpenHome@@@std@@@std@@IAEPAPAVCpTopology3Group@Net@OpenHome@@PAPAV234@00@Z 00415e60 f i CpTopology3.obj
 0001:00014ea0       ??$?0PAVCpTopology3Room@Net@OpenHome@@@?$allocator@U_Node@?$_List_nod@PAVCpTopology3Room@Net@OpenHome@@V?$allocator@PAVCpTopology3Room@Net@OpenHome@@@std@@@std@@@std@@QAE@ABV?$allocator@PAVCpTopology3Room@Net@OpenHome@@@1@@Z 00415ea0 f i CpTopology3.obj
 0001:00014ec0       ??$?0U_Node@?$_List_nod@PAVCpTopology3Room@Net@OpenHome@@V?$allocator@PAVCpTopology3Room@Net@OpenHome@@@std@@@std@@@?$allocator@U_Container_proxy@std@@@std@@QAE@ABV?$allocator@U_Node@?$_List_nod@PAVCpTopology3Room@Net@OpenHome@@V?$allocator@PAVCpTopology3Room@Net@OpenHome@@@std@@@std@@@1@@Z 00415ec0 f i CpTopology3.obj
 0001:00014ee0       ??$_Allocate@U_Node@?$_List_nod@PAVCpTopology3Room@Net@OpenHome@@V?$allocator@PAVCpTopology3Room@Net@OpenHome@@@std@@@std@@@std@@YGPAU_Node@?$_List_nod@PAVCpTopology3Room@Net@OpenHome@@V?$allocator@PAVCpTopology3Room@Net@OpenHome@@@std@@@0@IPAU120@@Z 00415ee0 f i CpTopology3.obj
 0001:00014f60       ??$_Allocate@PAVCpTopology3Source@Net@OpenHome@@@std@@YGPAPAVCpTopology3Source@Net@OpenHome@@IPAPAV123@@Z 00415f60 f i CpTopology3.obj
 0001:00014fe0       ??$_Allocate@PAVCpTopology3Group@Net@OpenHome@@@std@@YGPAPAVCpTopology3Group@Net@OpenHome@@IPAPAV123@@Z 00415fe0 f i CpTopology3.obj
 0001:00015060       ?construct@?$allocator@PAVCpTopology3Source@Net@OpenHome@@@std@@QAEXPAPAVCpTopology3Source@Net@OpenHome@@ABQAV345@@Z 00416060 f i CpTopology3.obj
 0001:00015090       ?construct@?$allocator@PAVCpTopology3Source@Net@OpenHome@@@std@@QAEXPAPAVCpTopology3Source@Net@OpenHome@@$$QAPAV345@@Z 00416090 f i CpTopology3.obj
 0001:00015130       ?construct@?$allocator@PAVCpTopology3Group@Net@OpenHome@@@std@@QAEXPAPAVCpTopology3Group@Net@OpenHome@@ABQAV345@@Z 00416130 f i CpTopology3.obj
 0001:00015160       ?construct@?$allocator@PAVCpTopology3Group@Net@OpenHome@@@std@@QAEXPAPAVCpTopology3Group@Net@OpenHome@@$$QAPAV345@@Z 00416160 f i CpTopology3.obj
 0001:00015200       ?_Incsize@?$list@PAVCpTopology3Room@Net@OpenHome@@V?$allocator@PAVCpTopology3Room@Net@OpenHome@@@std@@@std@@QAEXI@Z 00416200 f i CpTopology3.obj
 0001:00015250       ?destroy@?$allocator@U_Node@?$_List_nod@PAVCpTopology3Room@Net@OpenHome@@V?$allocator@PAVCpTopology3Room@Net@OpenHome@@@std@@@std@@@std@@QAEXPAU_Node@?$_List_nod@PAVCpTopology3Room@Net@OpenHome@@V?$allocator@PAVCpTopology3Room@Net@OpenHome@@@std@@@2@@Z 00416250 f i CpTopology3.obj
 0001:00015280       ?max_size@?$list@PAVCpTopology3Room@Net@OpenHome@@V?$allocator@PAVCpTopology3Room@Net@OpenHome@@@std@@@std@@QBEIXZ 00416280 f i CpTopology3.obj
 0001:000152b0       ?max_size@?$allocator@PAVCpTopology3Room@Net@OpenHome@@@std@@QBEIXZ 004162b0 f i CpTopology3.obj
 0001:00015300       ??$forward@AAPAVCpTopology3Source@Net@OpenHome@@@std@@YGAAPAVCpTopology3Source@Net@OpenHome@@AAPAV123@@Z 00416300 f i CpTopology3.obj
 0001:00015310       ??$construct@AAPAVCpTopology3Source@Net@OpenHome@@@?$allocator@PAVCpTopology3Source@Net@OpenHome@@@std@@QAEXPAPAVCpTopology3Source@Net@OpenHome@@AAPAV234@@Z 00416310 f i CpTopology3.obj
 0001:000153b0       ??$forward@ABQAVCpTopology3Source@Net@OpenHome@@@std@@YGABQAVCpTopology3Source@Net@OpenHome@@ABQAV123@@Z 004163b0 f i CpTopology3.obj
 0001:000153c0       ??$forward@AAPAVCpTopology3Group@Net@OpenHome@@@std@@YGAAPAVCpTopology3Group@Net@OpenHome@@AAPAV123@@Z 004163c0 f i CpTopology3.obj
 0001:000153d0       ??$construct@AAPAVCpTopology3Group@Net@OpenHome@@@?$allocator@PAVCpTopology3Group@Net@OpenHome@@@std@@QAEXPAPAVCpTopology3Group@Net@OpenHome@@AAPAV234@@Z 004163d0 f i CpTopology3.obj
 0001:00015470       ??$forward@ABQAVCpTopology3Group@Net@OpenHome@@@std@@YGABQAVCpTopology3Group@Net@OpenHome@@ABQAV123@@Z 00416470 f i CpTopology3.obj
 0001:00015480       ??$_Ptr_cat@PAVCpTopology3Group@Net@OpenHome@@PAV123@@std@@YG?AU_Scalar_ptr_iterator_tag@0@PAPAVCpTopology3Group@Net@OpenHome@@0@Z 00416480 f i CpTopology3.obj
 0001:000154e0       ??$_Move@PAPAVCpTopology3Group@Net@OpenHome@@PAPAV123@@std@@YGPAPAVCpTopology3Group@Net@OpenHome@@PAPAV123@00U_Scalar_ptr_iterator_tag@0@@Z 004164e0 f i CpTopology3.obj
 0001:00015530       ??$_Buynode@PAVCpTopology3Room@Net@OpenHome@@@?$_List_val@PAVCpTopology3Room@Net@OpenHome@@V?$allocator@PAVCpTopology3Room@Net@OpenHome@@@std@@@std@@QAEPAU_Node@?$_List_nod@PAVCpTopology3Room@Net@OpenHome@@V?$allocator@PAVCpTopology3Room@Net@OpenHome@@@std@@@1@PAU231@0$$QAPAVCpTopology3Room@Net@OpenHome@@@Z 00416530 f i CpTopology3.obj
 0001:00015650       ??$_Ptr_cat@PAVCpTopology3Source@Net@OpenHome@@PAV123@@std@@YG?AU_Scalar_ptr_iterator_tag@0@PAPAVCpTopology3Source@Net@OpenHome@@0@Z 00416650 f i CpTopology3.obj
 0001:000156b0       ??$_Move@PAPAVCpTopology3Source@Net@OpenHome@@PAPAV123@@std@@YGPAPAVCpTopology3Source@Net@OpenHome@@PAPAV123@00U_Scalar_ptr_iterator_tag@0@@Z 004166b0 f i CpTopology3.obj
 0001:00015700       ??$_Destroy_range@V?$allocator@PAVCpTopology3Group@Net@OpenHome@@@std@@@std@@YGXPAPAVCpTopology3Group@Net@OpenHome@@0AAV?$allocator@PAVCpTopology3Group@Net@OpenHome@@@0@U_Scalar_ptr_iterator_tag@0@@Z 00416700 f i CpTopology3.obj
 0001:00015710       ??$_Uninitialized_move@PAPAVCpTopology3Source@Net@OpenHome@@PAPAV123@V?$allocator@PAVCpTopology3Source@Net@OpenHome@@@std@@@std@@YGPAPAVCpTopology3Source@Net@OpenHome@@PAPAV123@00AAV?$allocator@PAVCpTopology3Source@Net@OpenHome@@@0@@Z 00416710 f i CpTopology3.obj
 0001:00015760       ??$_Destroy_range@V?$allocator@PAVCpTopology3Source@Net@OpenHome@@@std@@@std@@YGXPAPAVCpTopology3Source@Net@OpenHome@@0AAV?$allocator@PAVCpTopology3Source@Net@OpenHome@@@0@U_Scalar_ptr_iterator_tag@0@@Z 00416760 f i CpTopology3.obj
 0001:00015770       ??$_Uninitialized_move@PAPAVCpTopology3Group@Net@OpenHome@@PAPAV123@V?$allocator@PAVCpTopology3Group@Net@OpenHome@@@std@@@std@@YGPAPAVCpTopology3Group@Net@OpenHome@@PAPAV123@00AAV?$allocator@PAVCpTopology3Group@Net@OpenHome@@@0@@Z 00416770 f i CpTopology3.obj
 0001:000157c0       ??$_Construct@PAVCpTopology3Source@Net@OpenHome@@ABQAV123@@std@@YGXPAPAVCpTopology3Source@Net@OpenHome@@ABQAV123@@Z 004167c0 f i CpTopology3.obj
 0001:00015870       ??$_Construct@PAVCpTopology3Group@Net@OpenHome@@ABQAV123@@std@@YGXPAPAVCpTopology3Group@Net@OpenHome@@ABQAV123@@Z 00416870 f i CpTopology3.obj
 0001:00015920       ??$_Destroy@U_Node@?$_List_nod@PAVCpTopology3Room@Net@OpenHome@@V?$allocator@PAVCpTopology3Room@Net@OpenHome@@@std@@@std@@@std@@YGXPAU_Node@?$_List_nod@PAVCpTopology3Room@Net@OpenHome@@V?$allocator@PAVCpTopology3Room@Net@OpenHome@@@std@@@0@@Z 00416920 f i CpTopology3.obj
 0001:00015930       ??$addressof@PAVCpTopology3Room@Net@OpenHome@@@std@@YGPAPAVCpTopology3Room@Net@OpenHome@@AAPAV123@@Z 00416930 f i CpTopology3.obj
 0001:00015940       ??$_Cons_val@V?$allocator@PAVCpTopology3Room@Net@OpenHome@@@std@@PAVCpTopology3Room@Net@OpenHome@@PAV345@@std@@YGXAAV?$allocator@PAVCpTopology3Room@Net@OpenHome@@@0@PAPAVCpTopology3Room@Net@OpenHome@@$$QAPAV234@@Z 00416940 f i CpTopology3.obj
 0001:00015970       ??$_Val_type@PAPAVCpTopology3Source@Net@OpenHome@@@std@@YGPAPAVCpTopology3Source@Net@OpenHome@@PAPAV123@@Z 00416970 f i CpTopology3.obj
 0001:00015980       ??$_Uninit_move@PAVCpTopology3Source@Net@OpenHome@@PAV123@PAV123@@std@@YGPAPAVCpTopology3Source@Net@OpenHome@@PAPAV123@00AAV?$allocator@PAVCpTopology3Source@Net@OpenHome@@@0@0U_Scalar_ptr_iterator_tag@0@@Z 00416980 f i CpTopology3.obj
 0001:000159f0       ??$_Val_type@PAPAVCpTopology3Group@Net@OpenHome@@@std@@YGPAPAVCpTopology3Group@Net@OpenHome@@PAPAV123@@Z 004169f0 f i CpTopology3.obj
 0001:00015a00       ??$_Uninit_move@PAVCpTopology3Group@Net@OpenHome@@PAV123@PAV123@@std@@YGPAPAVCpTopology3Group@Net@OpenHome@@PAPAV123@00AAV?$allocator@PAVCpTopology3Group@Net@OpenHome@@@0@0U_Scalar_ptr_iterator_tag@0@@Z 00416a00 f i CpTopology3.obj
 0001:00015a70       ?construct@?$allocator@PAVCpTopology3Room@Net@OpenHome@@@std@@QAEXPAPAVCpTopology3Room@Net@OpenHome@@$$QAPAV345@@Z 00416a70 f i CpTopology3.obj
 0001:00015b10       ??$_Debug_range@PAPAVCpTopology3Source@Net@OpenHome@@@std@@YGXPAPAVCpTopology3Source@Net@OpenHome@@0PB_WI@Z 00416b10 f i CpTopology3.obj
 0001:00015b60       ??$_Debug_pointer@PAVCpTopology3Source@Net@OpenHome@@@std@@YGXPAPAVCpTopology3Source@Net@OpenHome@@PB_WI@Z 00416b60 f i CpTopology3.obj
 0001:00015b90       ??$_Debug_range@PAPAVCpTopology3Group@Net@OpenHome@@@std@@YGXPAPAVCpTopology3Group@Net@OpenHome@@0PB_WI@Z 00416b90 f i CpTopology3.obj
 0001:00015be0       ??$_Debug_pointer@PAVCpTopology3Group@Net@OpenHome@@@std@@YGXPAPAVCpTopology3Group@Net@OpenHome@@PB_WI@Z 00416be0 f i CpTopology3.obj
 0001:00015c10       ??$_Iter_cat@PAPAVCpTopology3Source@Net@OpenHome@@@std@@YG?AUrandom_access_iterator_tag@0@ABQAPAVCpTopology3Source@Net@OpenHome@@@Z 00416c10 f i CpTopology3.obj
 0001:00015c70       ??$_Debug_range2@PAPAVCpTopology3Source@Net@OpenHome@@@std@@YGXPAPAVCpTopology3Source@Net@OpenHome@@0PB_WIUrandom_access_iterator_tag@0@@Z 00416c70 f i CpTopology3.obj
 0001:00015cd0       ??$_Iter_cat@PAPAVCpTopology3Group@Net@OpenHome@@@std@@YG?AUrandom_access_iterator_tag@0@ABQAPAVCpTopology3Group@Net@OpenHome@@@Z 00416cd0 f i CpTopology3.obj
 0001:00015d30       ??$_Debug_range2@PAPAVCpTopology3Group@Net@OpenHome@@@std@@YGXPAPAVCpTopology3Group@Net@OpenHome@@0PB_WIUrandom_access_iterator_tag@0@@Z 00416d30 f i CpTopology3.obj
 0001:00015d90       ??0SyncManufacturerAvOpenhomeOrgProduct1@@QAE@AAVCpProxyAvOpenhomeOrgProduct1@Net@OpenHome@@AAVBrh@3@111@Z 00416d90 f   CpAvOpenhomeOrgProduct1.obj
 0001:00015df0       ?CompleteRequest@SyncManufacturerAvOpenhomeOrgProduct1@@UAEXAAVIAsync@Net@OpenHome@@@Z 00416df0 f   CpAvOpenhomeOrgProduct1.obj
 0001:00015e40       ??0SyncModelAvOpenhomeOrgProduct1@@QAE@AAVCpProxyAvOpenhomeOrgProduct1@Net@OpenHome@@AAVBrh@3@111@Z 00416e40 f   CpAvOpenhomeOrgProduct1.obj
 0001:00015ea0       ?CompleteRequest@SyncModelAvOpenhomeOrgProduct1@@UAEXAAVIAsync@Net@OpenHome@@@Z 00416ea0 f   CpAvOpenhomeOrgProduct1.obj
 0001:00015ef0       ??0SyncProductAvOpenhomeOrgProduct1@@QAE@AAVCpProxyAvOpenhomeOrgProduct1@Net@OpenHome@@AAVBrh@3@1111@Z 00416ef0 f   CpAvOpenhomeOrgProduct1.obj
 0001:00015f60       ?CompleteRequest@SyncProductAvOpenhomeOrgProduct1@@UAEXAAVIAsync@Net@OpenHome@@@Z 00416f60 f   CpAvOpenhomeOrgProduct1.obj
 0001:00015fb0       ??0SyncStandbyAvOpenhomeOrgProduct1@@QAE@AAVCpProxyAvOpenhomeOrgProduct1@Net@OpenHome@@AA_N@Z 00416fb0 f   CpAvOpenhomeOrgProduct1.obj
 0001:00016000       ?CompleteRequest@SyncStandbyAvOpenhomeOrgProduct1@@UAEXAAVIAsync@Net@OpenHome@@@Z 00417000 f   CpAvOpenhomeOrgProduct1.obj
 0001:00016040       ??0SyncSetStandbyAvOpenhomeOrgProduct1@@QAE@AAVCpProxyAvOpenhomeOrgProduct1@Net@OpenHome@@@Z 00417040 f   CpAvOpenhomeOrgProduct1.obj
 0001:00016080       ?CompleteRequest@SyncSetStandbyAvOpenhomeOrgProduct1@@UAEXAAVIAsync@Net@OpenHome@@@Z 00417080 f   CpAvOpenhomeOrgProduct1.obj
 0001:000160b0       ??0SyncSourceCountAvOpenhomeOrgProduct1@@QAE@AAVCpProxyAvOpenhomeOrgProduct1@Net@OpenHome@@AAI@Z 004170b0 f   CpAvOpenhomeOrgProduct1.obj
 0001:00016100       ?CompleteRequest@SyncSourceCountAvOpenhomeOrgProduct1@@UAEXAAVIAsync@Net@OpenHome@@@Z 00417100 f   CpAvOpenhomeOrgProduct1.obj
 0001:00016140       ??0SyncSourceXmlAvOpenhomeOrgProduct1@@QAE@AAVCpProxyAvOpenhomeOrgProduct1@Net@OpenHome@@AAVBrh@3@@Z 00417140 f   CpAvOpenhomeOrgProduct1.obj
 0001:00016190       ?CompleteRequest@SyncSourceXmlAvOpenhomeOrgProduct1@@UAEXAAVIAsync@Net@OpenHome@@@Z 00417190 f   CpAvOpenhomeOrgProduct1.obj
 0001:000161d0       ??0SyncSourceIndexAvOpenhomeOrgProduct1@@QAE@AAVCpProxyAvOpenhomeOrgProduct1@Net@OpenHome@@AAI@Z 004171d0 f   CpAvOpenhomeOrgProduct1.obj
 0001:00016220       ?CompleteRequest@SyncSourceIndexAvOpenhomeOrgProduct1@@UAEXAAVIAsync@Net@OpenHome@@@Z 00417220 f   CpAvOpenhomeOrgProduct1.obj
 0001:00016260       ??0SyncSetSourceIndexAvOpenhomeOrgProduct1@@QAE@AAVCpProxyAvOpenhomeOrgProduct1@Net@OpenHome@@@Z 00417260 f   CpAvOpenhomeOrgProduct1.obj
 0001:000162a0       ?CompleteRequest@SyncSetSourceIndexAvOpenhomeOrgProduct1@@UAEXAAVIAsync@Net@OpenHome@@@Z 004172a0 f   CpAvOpenhomeOrgProduct1.obj
 0001:000162d0       ??0SyncSetSourceIndexByNameAvOpenhomeOrgProduct1@@QAE@AAVCpProxyAvOpenhomeOrgProduct1@Net@OpenHome@@@Z 004172d0 f   CpAvOpenhomeOrgProduct1.obj
 0001:00016310       ?CompleteRequest@SyncSetSourceIndexByNameAvOpenhomeOrgProduct1@@UAEXAAVIAsync@Net@OpenHome@@@Z 00417310 f   CpAvOpenhomeOrgProduct1.obj
 0001:00016340       ??0SyncSourceAvOpenhomeOrgProduct1@@QAE@AAVCpProxyAvOpenhomeOrgProduct1@Net@OpenHome@@AAVBrh@3@11AA_N@Z 00417340 f   CpAvOpenhomeOrgProduct1.obj
 0001:000163a0       ?CompleteRequest@SyncSourceAvOpenhomeOrgProduct1@@UAEXAAVIAsync@Net@OpenHome@@@Z 004173a0 f   CpAvOpenhomeOrgProduct1.obj
 0001:000163f0       ??0SyncAttributesAvOpenhomeOrgProduct1@@QAE@AAVCpProxyAvOpenhomeOrgProduct1@Net@OpenHome@@AAVBrh@3@@Z 004173f0 f   CpAvOpenhomeOrgProduct1.obj
 0001:00016440       ?CompleteRequest@SyncAttributesAvOpenhomeOrgProduct1@@UAEXAAVIAsync@Net@OpenHome@@@Z 00417440 f   CpAvOpenhomeOrgProduct1.obj
 0001:00016480       ??0SyncSourceXmlChangeCountAvOpenhomeOrgProduct1@@QAE@AAVCpProxyAvOpenhomeOrgProduct1@Net@OpenHome@@AAI@Z 00417480 f   CpAvOpenhomeOrgProduct1.obj
 0001:000164d0       ?CompleteRequest@SyncSourceXmlChangeCountAvOpenhomeOrgProduct1@@UAEXAAVIAsync@Net@OpenHome@@@Z 004174d0 f   CpAvOpenhomeOrgProduct1.obj
 0001:00016510       ??0CpProxyAvOpenhomeOrgProduct1@Net@OpenHome@@QAE@AAVCpDevice@12@@Z 00417510 f   CpAvOpenhomeOrgProduct1.obj
 0001:00018210       ??1CpProxyAvOpenhomeOrgProduct1@Net@OpenHome@@UAE@XZ 00419210 f   CpAvOpenhomeOrgProduct1.obj
 0001:00018510       ?SyncManufacturer@CpProxyAvOpenhomeOrgProduct1@Net@OpenHome@@QAEXAAVBrh@3@000@Z 00419510 f   CpAvOpenhomeOrgProduct1.obj
 0001:000185e0       ?BeginManufacturer@CpProxyAvOpenhomeOrgProduct1@Net@OpenHome@@QAEXAAVFunctorAsync@23@@Z 004195e0 f   CpAvOpenhomeOrgProduct1.obj
 0001:00018820       ?EndManufacturer@CpProxyAvOpenhomeOrgProduct1@Net@OpenHome@@QAEXAAVIAsync@23@AAVBrh@3@111@Z 00419820 f   CpAvOpenhomeOrgProduct1.obj
 0001:00018a30       ?SyncModel@CpProxyAvOpenhomeOrgProduct1@Net@OpenHome@@QAEXAAVBrh@3@000@Z 00419a30 f   CpAvOpenhomeOrgProduct1.obj
 0001:00018b00       ?BeginModel@CpProxyAvOpenhomeOrgProduct1@Net@OpenHome@@QAEXAAVFunctorAsync@23@@Z 00419b00 f   CpAvOpenhomeOrgProduct1.obj
 0001:00018d40       ?EndModel@CpProxyAvOpenhomeOrgProduct1@Net@OpenHome@@QAEXAAVIAsync@23@AAVBrh@3@111@Z 00419d40 f   CpAvOpenhomeOrgProduct1.obj
 0001:00018f50       ?SyncProduct@CpProxyAvOpenhomeOrgProduct1@Net@OpenHome@@QAEXAAVBrh@3@0000@Z 00419f50 f   CpAvOpenhomeOrgProduct1.obj
 0001:00019030       ?BeginProduct@CpProxyAvOpenhomeOrgProduct1@Net@OpenHome@@QAEXAAVFunctorAsync@23@@Z 0041a030 f   CpAvOpenhomeOrgProduct1.obj
 0001:000192d0       ?EndProduct@CpProxyAvOpenhomeOrgProduct1@Net@OpenHome@@QAEXAAVIAsync@23@AAVBrh@3@1111@Z 0041a2d0 f   CpAvOpenhomeOrgProduct1.obj
 0001:00019510       ?SyncStandby@CpProxyAvOpenhomeOrgProduct1@Net@OpenHome@@QAEXAA_N@Z 0041a510 f   CpAvOpenhomeOrgProduct1.obj
 0001:000195e0       ?BeginStandby@CpProxyAvOpenhomeOrgProduct1@Net@OpenHome@@QAEXAAVFunctorAsync@23@@Z 0041a5e0 f   CpAvOpenhomeOrgProduct1.obj
 0001:00019700       ?EndStandby@CpProxyAvOpenhomeOrgProduct1@Net@OpenHome@@QAEXAAVIAsync@23@AA_N@Z 0041a700 f   CpAvOpenhomeOrgProduct1.obj
 0001:00019890       ?SyncSetStandby@CpProxyAvOpenhomeOrgProduct1@Net@OpenHome@@QAEX_N@Z 0041a890 f   CpAvOpenhomeOrgProduct1.obj
 0001:00019960       ?BeginSetStandby@CpProxyAvOpenhomeOrgProduct1@Net@OpenHome@@QAEX_NAAVFunctorAsync@23@@Z 0041a960 f   CpAvOpenhomeOrgProduct1.obj
 0001:00019a80       ?EndSetStandby@CpProxyAvOpenhomeOrgProduct1@Net@OpenHome@@QAEXAAVIAsync@23@@Z 0041aa80 f   CpAvOpenhomeOrgProduct1.obj
 0001:00019be0       ?SyncSourceCount@CpProxyAvOpenhomeOrgProduct1@Net@OpenHome@@QAEXAAI@Z 0041abe0 f   CpAvOpenhomeOrgProduct1.obj
 0001:00019cb0       ?BeginSourceCount@CpProxyAvOpenhomeOrgProduct1@Net@OpenHome@@QAEXAAVFunctorAsync@23@@Z 0041acb0 f   CpAvOpenhomeOrgProduct1.obj
 0001:00019dd0       ?EndSourceCount@CpProxyAvOpenhomeOrgProduct1@Net@OpenHome@@QAEXAAVIAsync@23@AAI@Z 0041add0 f   CpAvOpenhomeOrgProduct1.obj
 0001:00019f60       ?SyncSourceXml@CpProxyAvOpenhomeOrgProduct1@Net@OpenHome@@QAEXAAVBrh@3@@Z 0041af60 f   CpAvOpenhomeOrgProduct1.obj
 0001:0001a030       ?BeginSourceXml@CpProxyAvOpenhomeOrgProduct1@Net@OpenHome@@QAEXAAVFunctorAsync@23@@Z 0041b030 f   CpAvOpenhomeOrgProduct1.obj
 0001:0001a150       ?EndSourceXml@CpProxyAvOpenhomeOrgProduct1@Net@OpenHome@@QAEXAAVIAsync@23@AAVBrh@3@@Z 0041b150 f   CpAvOpenhomeOrgProduct1.obj
 0001:0001a2e0       ?SyncSourceIndex@CpProxyAvOpenhomeOrgProduct1@Net@OpenHome@@QAEXAAI@Z 0041b2e0 f   CpAvOpenhomeOrgProduct1.obj
 0001:0001a3b0       ?BeginSourceIndex@CpProxyAvOpenhomeOrgProduct1@Net@OpenHome@@QAEXAAVFunctorAsync@23@@Z 0041b3b0 f   CpAvOpenhomeOrgProduct1.obj
 0001:0001a4d0       ?EndSourceIndex@CpProxyAvOpenhomeOrgProduct1@Net@OpenHome@@QAEXAAVIAsync@23@AAI@Z 0041b4d0 f   CpAvOpenhomeOrgProduct1.obj
 0001:0001a660       ?SyncSetSourceIndex@CpProxyAvOpenhomeOrgProduct1@Net@OpenHome@@QAEXI@Z 0041b660 f   CpAvOpenhomeOrgProduct1.obj
 0001:0001a730       ?BeginSetSourceIndex@CpProxyAvOpenhomeOrgProduct1@Net@OpenHome@@QAEXIAAVFunctorAsync@23@@Z 0041b730 f   CpAvOpenhomeOrgProduct1.obj
 0001:0001a850       ?EndSetSourceIndex@CpProxyAvOpenhomeOrgProduct1@Net@OpenHome@@QAEXAAVIAsync@23@@Z 0041b850 f   CpAvOpenhomeOrgProduct1.obj
 0001:0001a9b0       ?SyncSetSourceIndexByName@CpProxyAvOpenhomeOrgProduct1@Net@OpenHome@@QAEXABVBrx@3@@Z 0041b9b0 f   CpAvOpenhomeOrgProduct1.obj
 0001:0001aa80       ?BeginSetSourceIndexByName@CpProxyAvOpenhomeOrgProduct1@Net@OpenHome@@QAEXABVBrx@3@AAVFunctorAsync@23@@Z 0041ba80 f   CpAvOpenhomeOrgProduct1.obj
 0001:0001aba0       ?EndSetSourceIndexByName@CpProxyAvOpenhomeOrgProduct1@Net@OpenHome@@QAEXAAVIAsync@23@@Z 0041bba0 f   CpAvOpenhomeOrgProduct1.obj
 0001:0001ad00       ?SyncSource@CpProxyAvOpenhomeOrgProduct1@Net@OpenHome@@QAEXIAAVBrh@3@00AA_N@Z 0041bd00 f   CpAvOpenhomeOrgProduct1.obj
 0001:0001ade0       ?BeginSource@CpProxyAvOpenhomeOrgProduct1@Net@OpenHome@@QAEXIAAVFunctorAsync@23@@Z 0041bde0 f   CpAvOpenhomeOrgProduct1.obj
 0001:0001b0a0       ?EndSource@CpProxyAvOpenhomeOrgProduct1@Net@OpenHome@@QAEXAAVIAsync@23@AAVBrh@3@11AA_N@Z 0041c0a0 f   CpAvOpenhomeOrgProduct1.obj
 0001:0001b2b0       ?SyncAttributes@CpProxyAvOpenhomeOrgProduct1@Net@OpenHome@@QAEXAAVBrh@3@@Z 0041c2b0 f   CpAvOpenhomeOrgProduct1.obj
 0001:0001b380       ?BeginAttributes@CpProxyAvOpenhomeOrgProduct1@Net@OpenHome@@QAEXAAVFunctorAsync@23@@Z 0041c380 f   CpAvOpenhomeOrgProduct1.obj
 0001:0001b4a0       ?EndAttributes@CpProxyAvOpenhomeOrgProduct1@Net@OpenHome@@QAEXAAVIAsync@23@AAVBrh@3@@Z 0041c4a0 f   CpAvOpenhomeOrgProduct1.obj
 0001:0001b630       ?SyncSourceXmlChangeCount@CpProxyAvOpenhomeOrgProduct1@Net@OpenHome@@QAEXAAI@Z 0041c630 f   CpAvOpenhomeOrgProduct1.obj
 0001:0001b700       ?BeginSourceXmlChangeCount@CpProxyAvOpenhomeOrgProduct1@Net@OpenHome@@QAEXAAVFunctorAsync@23@@Z 0041c700 f   CpAvOpenhomeOrgProduct1.obj
 0001:0001b820       ?EndSourceXmlChangeCount@CpProxyAvOpenhomeOrgProduct1@Net@OpenHome@@QAEXAAVIAsync@23@AAI@Z 0041c820 f   CpAvOpenhomeOrgProduct1.obj
 0001:0001b9b0       ?SetPropertyManufacturerNameChanged@CpProxyAvOpenhomeOrgProduct1@Net@OpenHome@@QAEXAAVFunctor@3@@Z 0041c9b0 f   CpAvOpenhomeOrgProduct1.obj
 0001:0001ba10       ?SetPropertyManufacturerInfoChanged@CpProxyAvOpenhomeOrgProduct1@Net@OpenHome@@QAEXAAVFunctor@3@@Z 0041ca10 f   CpAvOpenhomeOrgProduct1.obj
 0001:0001ba70       ?SetPropertyManufacturerUrlChanged@CpProxyAvOpenhomeOrgProduct1@Net@OpenHome@@QAEXAAVFunctor@3@@Z 0041ca70 f   CpAvOpenhomeOrgProduct1.obj
 0001:0001bad0       ?SetPropertyManufacturerImageUriChanged@CpProxyAvOpenhomeOrgProduct1@Net@OpenHome@@QAEXAAVFunctor@3@@Z 0041cad0 f   CpAvOpenhomeOrgProduct1.obj
 0001:0001bb30       ?SetPropertyModelNameChanged@CpProxyAvOpenhomeOrgProduct1@Net@OpenHome@@QAEXAAVFunctor@3@@Z 0041cb30 f   CpAvOpenhomeOrgProduct1.obj
 0001:0001bb90       ?SetPropertyModelInfoChanged@CpProxyAvOpenhomeOrgProduct1@Net@OpenHome@@QAEXAAVFunctor@3@@Z 0041cb90 f   CpAvOpenhomeOrgProduct1.obj
 0001:0001bbf0       ?SetPropertyModelUrlChanged@CpProxyAvOpenhomeOrgProduct1@Net@OpenHome@@QAEXAAVFunctor@3@@Z 0041cbf0 f   CpAvOpenhomeOrgProduct1.obj
 0001:0001bc50       ?SetPropertyModelImageUriChanged@CpProxyAvOpenhomeOrgProduct1@Net@OpenHome@@QAEXAAVFunctor@3@@Z 0041cc50 f   CpAvOpenhomeOrgProduct1.obj
 0001:0001bcb0       ?SetPropertyProductRoomChanged@CpProxyAvOpenhomeOrgProduct1@Net@OpenHome@@QAEXAAVFunctor@3@@Z 0041ccb0 f   CpAvOpenhomeOrgProduct1.obj
 0001:0001bd10       ?SetPropertyProductNameChanged@CpProxyAvOpenhomeOrgProduct1@Net@OpenHome@@QAEXAAVFunctor@3@@Z 0041cd10 f   CpAvOpenhomeOrgProduct1.obj
 0001:0001bd70       ?SetPropertyProductInfoChanged@CpProxyAvOpenhomeOrgProduct1@Net@OpenHome@@QAEXAAVFunctor@3@@Z 0041cd70 f   CpAvOpenhomeOrgProduct1.obj
 0001:0001bdd0       ?SetPropertyProductUrlChanged@CpProxyAvOpenhomeOrgProduct1@Net@OpenHome@@QAEXAAVFunctor@3@@Z 0041cdd0 f   CpAvOpenhomeOrgProduct1.obj
 0001:0001be30       ?SetPropertyProductImageUriChanged@CpProxyAvOpenhomeOrgProduct1@Net@OpenHome@@QAEXAAVFunctor@3@@Z 0041ce30 f   CpAvOpenhomeOrgProduct1.obj
 0001:0001be90       ?SetPropertyStandbyChanged@CpProxyAvOpenhomeOrgProduct1@Net@OpenHome@@QAEXAAVFunctor@3@@Z 0041ce90 f   CpAvOpenhomeOrgProduct1.obj
 0001:0001bef0       ?SetPropertySourceIndexChanged@CpProxyAvOpenhomeOrgProduct1@Net@OpenHome@@QAEXAAVFunctor@3@@Z 0041cef0 f   CpAvOpenhomeOrgProduct1.obj
 0001:0001bf50       ?SetPropertySourceCountChanged@CpProxyAvOpenhomeOrgProduct1@Net@OpenHome@@QAEXAAVFunctor@3@@Z 0041cf50 f   CpAvOpenhomeOrgProduct1.obj
 0001:0001bfb0       ?SetPropertySourceXmlChanged@CpProxyAvOpenhomeOrgProduct1@Net@OpenHome@@QAEXAAVFunctor@3@@Z 0041cfb0 f   CpAvOpenhomeOrgProduct1.obj
 0001:0001c010       ?SetPropertyAttributesChanged@CpProxyAvOpenhomeOrgProduct1@Net@OpenHome@@QAEXAAVFunctor@3@@Z 0041d010 f   CpAvOpenhomeOrgProduct1.obj
 0001:0001c070       ?PropertyManufacturerName@CpProxyAvOpenhomeOrgProduct1@Net@OpenHome@@QBEXAAVBrhz@3@@Z 0041d070 f   CpAvOpenhomeOrgProduct1.obj
 0001:0001c0d0       ?PropertyManufacturerInfo@CpProxyAvOpenhomeOrgProduct1@Net@OpenHome@@QBEXAAVBrhz@3@@Z 0041d0d0 f   CpAvOpenhomeOrgProduct1.obj
 0001:0001c130       ?PropertyManufacturerUrl@CpProxyAvOpenhomeOrgProduct1@Net@OpenHome@@QBEXAAVBrhz@3@@Z 0041d130 f   CpAvOpenhomeOrgProduct1.obj
 0001:0001c190       ?PropertyManufacturerImageUri@CpProxyAvOpenhomeOrgProduct1@Net@OpenHome@@QBEXAAVBrhz@3@@Z 0041d190 f   CpAvOpenhomeOrgProduct1.obj
 0001:0001c1f0       ?PropertyModelName@CpProxyAvOpenhomeOrgProduct1@Net@OpenHome@@QBEXAAVBrhz@3@@Z 0041d1f0 f   CpAvOpenhomeOrgProduct1.obj
 0001:0001c250       ?PropertyModelInfo@CpProxyAvOpenhomeOrgProduct1@Net@OpenHome@@QBEXAAVBrhz@3@@Z 0041d250 f   CpAvOpenhomeOrgProduct1.obj
 0001:0001c2b0       ?PropertyModelUrl@CpProxyAvOpenhomeOrgProduct1@Net@OpenHome@@QBEXAAVBrhz@3@@Z 0041d2b0 f   CpAvOpenhomeOrgProduct1.obj
 0001:0001c310       ?PropertyModelImageUri@CpProxyAvOpenhomeOrgProduct1@Net@OpenHome@@QBEXAAVBrhz@3@@Z 0041d310 f   CpAvOpenhomeOrgProduct1.obj
 0001:0001c370       ?PropertyProductRoom@CpProxyAvOpenhomeOrgProduct1@Net@OpenHome@@QBEXAAVBrhz@3@@Z 0041d370 f   CpAvOpenhomeOrgProduct1.obj
 0001:0001c3d0       ?PropertyProductName@CpProxyAvOpenhomeOrgProduct1@Net@OpenHome@@QBEXAAVBrhz@3@@Z 0041d3d0 f   CpAvOpenhomeOrgProduct1.obj
 0001:0001c430       ?PropertyProductInfo@CpProxyAvOpenhomeOrgProduct1@Net@OpenHome@@QBEXAAVBrhz@3@@Z 0041d430 f   CpAvOpenhomeOrgProduct1.obj
 0001:0001c490       ?PropertyProductUrl@CpProxyAvOpenhomeOrgProduct1@Net@OpenHome@@QBEXAAVBrhz@3@@Z 0041d490 f   CpAvOpenhomeOrgProduct1.obj
 0001:0001c4f0       ?PropertyProductImageUri@CpProxyAvOpenhomeOrgProduct1@Net@OpenHome@@QBEXAAVBrhz@3@@Z 0041d4f0 f   CpAvOpenhomeOrgProduct1.obj
 0001:0001c550       ?PropertyStandby@CpProxyAvOpenhomeOrgProduct1@Net@OpenHome@@QBEXAA_N@Z 0041d550 f   CpAvOpenhomeOrgProduct1.obj
 0001:0001c5b0       ?PropertySourceIndex@CpProxyAvOpenhomeOrgProduct1@Net@OpenHome@@QBEXAAI@Z 0041d5b0 f   CpAvOpenhomeOrgProduct1.obj
 0001:0001c610       ?PropertySourceCount@CpProxyAvOpenhomeOrgProduct1@Net@OpenHome@@QBEXAAI@Z 0041d610 f   CpAvOpenhomeOrgProduct1.obj
 0001:0001c670       ?PropertySourceXml@CpProxyAvOpenhomeOrgProduct1@Net@OpenHome@@QBEXAAVBrhz@3@@Z 0041d670 f   CpAvOpenhomeOrgProduct1.obj
 0001:0001c6d0       ?PropertyAttributes@CpProxyAvOpenhomeOrgProduct1@Net@OpenHome@@QBEXAAVBrhz@3@@Z 0041d6d0 f   CpAvOpenhomeOrgProduct1.obj
 0001:0001c730       ?ManufacturerNamePropertyChanged@CpProxyAvOpenhomeOrgProduct1@Net@OpenHome@@AAEXXZ 0041d730 f   CpAvOpenhomeOrgProduct1.obj
 0001:0001c780       ?ManufacturerInfoPropertyChanged@CpProxyAvOpenhomeOrgProduct1@Net@OpenHome@@AAEXXZ 0041d780 f   CpAvOpenhomeOrgProduct1.obj
 0001:0001c7d0       ?ManufacturerUrlPropertyChanged@CpProxyAvOpenhomeOrgProduct1@Net@OpenHome@@AAEXXZ 0041d7d0 f   CpAvOpenhomeOrgProduct1.obj
 0001:0001c820       ?ManufacturerImageUriPropertyChanged@CpProxyAvOpenhomeOrgProduct1@Net@OpenHome@@AAEXXZ 0041d820 f   CpAvOpenhomeOrgProduct1.obj
 0001:0001c870       ?ModelNamePropertyChanged@CpProxyAvOpenhomeOrgProduct1@Net@OpenHome@@AAEXXZ 0041d870 f   CpAvOpenhomeOrgProduct1.obj
 0001:0001c8c0       ?ModelInfoPropertyChanged@CpProxyAvOpenhomeOrgProduct1@Net@OpenHome@@AAEXXZ 0041d8c0 f   CpAvOpenhomeOrgProduct1.obj
 0001:0001c910       ?ModelUrlPropertyChanged@CpProxyAvOpenhomeOrgProduct1@Net@OpenHome@@AAEXXZ 0041d910 f   CpAvOpenhomeOrgProduct1.obj
 0001:0001c960       ?ModelImageUriPropertyChanged@CpProxyAvOpenhomeOrgProduct1@Net@OpenHome@@AAEXXZ 0041d960 f   CpAvOpenhomeOrgProduct1.obj
 0001:0001c9b0       ?ProductRoomPropertyChanged@CpProxyAvOpenhomeOrgProduct1@Net@OpenHome@@AAEXXZ 0041d9b0 f   CpAvOpenhomeOrgProduct1.obj
 0001:0001ca00       ?ProductNamePropertyChanged@CpProxyAvOpenhomeOrgProduct1@Net@OpenHome@@AAEXXZ 0041da00 f   CpAvOpenhomeOrgProduct1.obj
 0001:0001ca50       ?ProductInfoPropertyChanged@CpProxyAvOpenhomeOrgProduct1@Net@OpenHome@@AAEXXZ 0041da50 f   CpAvOpenhomeOrgProduct1.obj
 0001:0001caa0       ?ProductUrlPropertyChanged@CpProxyAvOpenhomeOrgProduct1@Net@OpenHome@@AAEXXZ 0041daa0 f   CpAvOpenhomeOrgProduct1.obj
 0001:0001caf0       ?ProductImageUriPropertyChanged@CpProxyAvOpenhomeOrgProduct1@Net@OpenHome@@AAEXXZ 0041daf0 f   CpAvOpenhomeOrgProduct1.obj
 0001:0001cb40       ?StandbyPropertyChanged@CpProxyAvOpenhomeOrgProduct1@Net@OpenHome@@AAEXXZ 0041db40 f   CpAvOpenhomeOrgProduct1.obj
 0001:0001cb90       ?SourceIndexPropertyChanged@CpProxyAvOpenhomeOrgProduct1@Net@OpenHome@@AAEXXZ 0041db90 f   CpAvOpenhomeOrgProduct1.obj
 0001:0001cbe0       ?SourceCountPropertyChanged@CpProxyAvOpenhomeOrgProduct1@Net@OpenHome@@AAEXXZ 0041dbe0 f   CpAvOpenhomeOrgProduct1.obj
 0001:0001cc30       ?SourceXmlPropertyChanged@CpProxyAvOpenhomeOrgProduct1@Net@OpenHome@@AAEXXZ 0041dc30 f   CpAvOpenhomeOrgProduct1.obj
 0001:0001cc80       ?AttributesPropertyChanged@CpProxyAvOpenhomeOrgProduct1@Net@OpenHome@@AAEXXZ 0041dc80 f   CpAvOpenhomeOrgProduct1.obj
 0001:0001ccd0       ??0Functor@OpenHome@@QAE@XZ 0041dcd0 f i CpAvOpenhomeOrgProduct1.obj
 0001:0001cd00       ??_ECpProxyAvOpenhomeOrgProduct1@Net@OpenHome@@UAEPAXI@Z 0041dd00 f i CpAvOpenhomeOrgProduct1.obj
 0001:0001cd00       ??_GCpProxyAvOpenhomeOrgProduct1@Net@OpenHome@@UAEPAXI@Z 0041dd00 f i CpAvOpenhomeOrgProduct1.obj
 0001:0001cd40       ??_GAction@Net@OpenHome@@QAEPAXI@Z 0041dd40 f i CpAvOpenhomeOrgProduct1.obj
 0001:0001cd80       ??1SyncManufacturerAvOpenhomeOrgProduct1@@QAE@XZ 0041dd80 f i CpAvOpenhomeOrgProduct1.obj
 0001:0001cdb0       ??0ProxyError@OpenHome@@QAE@PBDI@Z 0041ddb0 f i CpAvOpenhomeOrgProduct1.obj
 0001:0001cdf0       ??1ProxyError@OpenHome@@QAE@XZ 0041ddf0 f i CpAvOpenhomeOrgProduct1.obj
 0001:0001ce20       ??1SyncModelAvOpenhomeOrgProduct1@@QAE@XZ 0041de20 f i CpAvOpenhomeOrgProduct1.obj
 0001:0001ce50       ??1SyncProductAvOpenhomeOrgProduct1@@QAE@XZ 0041de50 f i CpAvOpenhomeOrgProduct1.obj
 0001:0001ce80       ??1SyncStandbyAvOpenhomeOrgProduct1@@QAE@XZ 0041de80 f i CpAvOpenhomeOrgProduct1.obj
 0001:0001ceb0       ??1SyncSetStandbyAvOpenhomeOrgProduct1@@QAE@XZ 0041deb0 f i CpAvOpenhomeOrgProduct1.obj
 0001:0001cee0       ??1SyncSourceCountAvOpenhomeOrgProduct1@@QAE@XZ 0041dee0 f i CpAvOpenhomeOrgProduct1.obj
 0001:0001cf10       ??1SyncSourceXmlAvOpenhomeOrgProduct1@@QAE@XZ 0041df10 f i CpAvOpenhomeOrgProduct1.obj
 0001:0001cf40       ??1SyncSourceIndexAvOpenhomeOrgProduct1@@QAE@XZ 0041df40 f i CpAvOpenhomeOrgProduct1.obj
 0001:0001cf70       ??1SyncSetSourceIndexAvOpenhomeOrgProduct1@@QAE@XZ 0041df70 f i CpAvOpenhomeOrgProduct1.obj
 0001:0001cfa0       ??1SyncSetSourceIndexByNameAvOpenhomeOrgProduct1@@QAE@XZ 0041dfa0 f i CpAvOpenhomeOrgProduct1.obj
 0001:0001cfd0       ??1SyncSourceAvOpenhomeOrgProduct1@@QAE@XZ 0041dfd0 f i CpAvOpenhomeOrgProduct1.obj
 0001:0001d000       ??1SyncAttributesAvOpenhomeOrgProduct1@@QAE@XZ 0041e000 f i CpAvOpenhomeOrgProduct1.obj
 0001:0001d030       ??1SyncSourceXmlChangeCountAvOpenhomeOrgProduct1@@QAE@XZ 0041e030 f i CpAvOpenhomeOrgProduct1.obj
 0001:0001d060       ?Set@Brhz@OpenHome@@QAEXABVBrx@2@@Z 0041e060 f i CpAvOpenhomeOrgProduct1.obj
 0001:0001d0b0       ??A?$vector@PAVParameter@Net@OpenHome@@V?$allocator@PAVParameter@Net@OpenHome@@@std@@@std@@QBEABQAVParameter@Net@OpenHome@@I@Z 0041e0b0 f i CpAvOpenhomeOrgProduct1.obj
 0001:0001d150       ??A?$vector@PAVArgument@Net@OpenHome@@V?$allocator@PAVArgument@Net@OpenHome@@@std@@@std@@QAEAAPAVArgument@Net@OpenHome@@I@Z 0041e150 f i CpAvOpenhomeOrgProduct1.obj
 0001:0001d1f0       ?size@?$vector@PAVParameter@Net@OpenHome@@V?$allocator@PAVParameter@Net@OpenHome@@@std@@@std@@QBEIXZ 0041e1f0 f i CpAvOpenhomeOrgProduct1.obj
 0001:0001d220       ?size@?$vector@PAVArgument@Net@OpenHome@@V?$allocator@PAVArgument@Net@OpenHome@@@std@@@std@@QBEIXZ 0041e220 f i CpAvOpenhomeOrgProduct1.obj
 0001:0001d250       ??$MakeFunctor@VCpProxyAvOpenhomeOrgProduct1@Net@OpenHome@@XV123@@OpenHome@@YG?AV?$MemberTranslator@VCpProxyAvOpenhomeOrgProduct1@Net@OpenHome@@P8123@AEXXZ@0@AAVCpProxyAvOpenhomeOrgProduct1@Net@0@ABQ8230@AEXXZ@Z 0041e250 f i CpAvOpenhomeOrgProduct1.obj
 0001:0001d280       ??0?$MemberTranslator@VCpProxyAvOpenhomeOrgProduct1@Net@OpenHome@@P8123@AEXXZ@OpenHome@@QAE@AAVCpProxyAvOpenhomeOrgProduct1@Net@1@ABQ8231@AEXXZ@Z 0041e280 f i CpAvOpenhomeOrgProduct1.obj
 0001:0001d2c0       ?Thunk@?$MemberTranslator@VCpProxyAvOpenhomeOrgProduct1@Net@OpenHome@@P8123@AEXXZ@OpenHome@@SGXABVFunctor@2@@Z 0041e2c0 f i CpAvOpenhomeOrgProduct1.obj
 0001:0001d310       ??0SyncCharacteristicsAvOpenhomeOrgVolume1@@QAE@AAVCpProxyAvOpenhomeOrgVolume1@Net@OpenHome@@AAI11111@Z 0041e310 f   CpAvOpenhomeOrgVolume1.obj
 0001:0001d390       ?CompleteRequest@SyncCharacteristicsAvOpenhomeOrgVolume1@@UAEXAAVIAsync@Net@OpenHome@@@Z 0041e390 f   CpAvOpenhomeOrgVolume1.obj
 0001:0001d3f0       ??0SyncSetVolumeAvOpenhomeOrgVolume1@@QAE@AAVCpProxyAvOpenhomeOrgVolume1@Net@OpenHome@@@Z 0041e3f0 f   CpAvOpenhomeOrgVolume1.obj
 0001:0001d430       ?CompleteRequest@SyncSetVolumeAvOpenhomeOrgVolume1@@UAEXAAVIAsync@Net@OpenHome@@@Z 0041e430 f   CpAvOpenhomeOrgVolume1.obj
 0001:0001d460       ??0SyncVolumeIncAvOpenhomeOrgVolume1@@QAE@AAVCpProxyAvOpenhomeOrgVolume1@Net@OpenHome@@@Z 0041e460 f   CpAvOpenhomeOrgVolume1.obj
 0001:0001d4a0       ?CompleteRequest@SyncVolumeIncAvOpenhomeOrgVolume1@@UAEXAAVIAsync@Net@OpenHome@@@Z 0041e4a0 f   CpAvOpenhomeOrgVolume1.obj
 0001:0001d4d0       ??0SyncVolumeDecAvOpenhomeOrgVolume1@@QAE@AAVCpProxyAvOpenhomeOrgVolume1@Net@OpenHome@@@Z 0041e4d0 f   CpAvOpenhomeOrgVolume1.obj
 0001:0001d510       ?CompleteRequest@SyncVolumeDecAvOpenhomeOrgVolume1@@UAEXAAVIAsync@Net@OpenHome@@@Z 0041e510 f   CpAvOpenhomeOrgVolume1.obj
 0001:0001d540       ??0SyncVolumeAvOpenhomeOrgVolume1@@QAE@AAVCpProxyAvOpenhomeOrgVolume1@Net@OpenHome@@AAI@Z 0041e540 f   CpAvOpenhomeOrgVolume1.obj
 0001:0001d590       ?CompleteRequest@SyncVolumeAvOpenhomeOrgVolume1@@UAEXAAVIAsync@Net@OpenHome@@@Z 0041e590 f   CpAvOpenhomeOrgVolume1.obj
 0001:0001d5d0       ??0SyncSetBalanceAvOpenhomeOrgVolume1@@QAE@AAVCpProxyAvOpenhomeOrgVolume1@Net@OpenHome@@@Z 0041e5d0 f   CpAvOpenhomeOrgVolume1.obj
 0001:0001d610       ?CompleteRequest@SyncSetBalanceAvOpenhomeOrgVolume1@@UAEXAAVIAsync@Net@OpenHome@@@Z 0041e610 f   CpAvOpenhomeOrgVolume1.obj
 0001:0001d640       ??0SyncBalanceIncAvOpenhomeOrgVolume1@@QAE@AAVCpProxyAvOpenhomeOrgVolume1@Net@OpenHome@@@Z 0041e640 f   CpAvOpenhomeOrgVolume1.obj
 0001:0001d680       ?CompleteRequest@SyncBalanceIncAvOpenhomeOrgVolume1@@UAEXAAVIAsync@Net@OpenHome@@@Z 0041e680 f   CpAvOpenhomeOrgVolume1.obj
 0001:0001d6b0       ??0SyncBalanceDecAvOpenhomeOrgVolume1@@QAE@AAVCpProxyAvOpenhomeOrgVolume1@Net@OpenHome@@@Z 0041e6b0 f   CpAvOpenhomeOrgVolume1.obj
 0001:0001d6f0       ?CompleteRequest@SyncBalanceDecAvOpenhomeOrgVolume1@@UAEXAAVIAsync@Net@OpenHome@@@Z 0041e6f0 f   CpAvOpenhomeOrgVolume1.obj
 0001:0001d720       ??0SyncBalanceAvOpenhomeOrgVolume1@@QAE@AAVCpProxyAvOpenhomeOrgVolume1@Net@OpenHome@@AAH@Z 0041e720 f   CpAvOpenhomeOrgVolume1.obj
 0001:0001d770       ?CompleteRequest@SyncBalanceAvOpenhomeOrgVolume1@@UAEXAAVIAsync@Net@OpenHome@@@Z 0041e770 f   CpAvOpenhomeOrgVolume1.obj
 0001:0001d7b0       ??0SyncSetFadeAvOpenhomeOrgVolume1@@QAE@AAVCpProxyAvOpenhomeOrgVolume1@Net@OpenHome@@@Z 0041e7b0 f   CpAvOpenhomeOrgVolume1.obj
 0001:0001d7f0       ?CompleteRequest@SyncSetFadeAvOpenhomeOrgVolume1@@UAEXAAVIAsync@Net@OpenHome@@@Z 0041e7f0 f   CpAvOpenhomeOrgVolume1.obj
 0001:0001d820       ??0SyncFadeIncAvOpenhomeOrgVolume1@@QAE@AAVCpProxyAvOpenhomeOrgVolume1@Net@OpenHome@@@Z 0041e820 f   CpAvOpenhomeOrgVolume1.obj
 0001:0001d860       ?CompleteRequest@SyncFadeIncAvOpenhomeOrgVolume1@@UAEXAAVIAsync@Net@OpenHome@@@Z 0041e860 f   CpAvOpenhomeOrgVolume1.obj
 0001:0001d890       ??0SyncFadeDecAvOpenhomeOrgVolume1@@QAE@AAVCpProxyAvOpenhomeOrgVolume1@Net@OpenHome@@@Z 0041e890 f   CpAvOpenhomeOrgVolume1.obj
 0001:0001d8d0       ?CompleteRequest@SyncFadeDecAvOpenhomeOrgVolume1@@UAEXAAVIAsync@Net@OpenHome@@@Z 0041e8d0 f   CpAvOpenhomeOrgVolume1.obj
 0001:0001d900       ??0SyncFadeAvOpenhomeOrgVolume1@@QAE@AAVCpProxyAvOpenhomeOrgVolume1@Net@OpenHome@@AAH@Z 0041e900 f   CpAvOpenhomeOrgVolume1.obj
 0001:0001d950       ?CompleteRequest@SyncFadeAvOpenhomeOrgVolume1@@UAEXAAVIAsync@Net@OpenHome@@@Z 0041e950 f   CpAvOpenhomeOrgVolume1.obj
 0001:0001d990       ??0SyncSetMuteAvOpenhomeOrgVolume1@@QAE@AAVCpProxyAvOpenhomeOrgVolume1@Net@OpenHome@@@Z 0041e990 f   CpAvOpenhomeOrgVolume1.obj
 0001:0001d9d0       ?CompleteRequest@SyncSetMuteAvOpenhomeOrgVolume1@@UAEXAAVIAsync@Net@OpenHome@@@Z 0041e9d0 f   CpAvOpenhomeOrgVolume1.obj
 0001:0001da00       ??0SyncMuteAvOpenhomeOrgVolume1@@QAE@AAVCpProxyAvOpenhomeOrgVolume1@Net@OpenHome@@AA_N@Z 0041ea00 f   CpAvOpenhomeOrgVolume1.obj
 0001:0001da50       ?CompleteRequest@SyncMuteAvOpenhomeOrgVolume1@@UAEXAAVIAsync@Net@OpenHome@@@Z 0041ea50 f   CpAvOpenhomeOrgVolume1.obj
 0001:0001da90       ??0SyncVolumeLimitAvOpenhomeOrgVolume1@@QAE@AAVCpProxyAvOpenhomeOrgVolume1@Net@OpenHome@@AAI@Z 0041ea90 f   CpAvOpenhomeOrgVolume1.obj
 0001:0001dae0       ?CompleteRequest@SyncVolumeLimitAvOpenhomeOrgVolume1@@UAEXAAVIAsync@Net@OpenHome@@@Z 0041eae0 f   CpAvOpenhomeOrgVolume1.obj
 0001:0001db20       ??0CpProxyAvOpenhomeOrgVolume1@Net@OpenHome@@QAE@AAVCpDevice@12@@Z 0041eb20 f   CpAvOpenhomeOrgVolume1.obj
 0001:0001ef90       ??1CpProxyAvOpenhomeOrgVolume1@Net@OpenHome@@UAE@XZ 0041ff90 f   CpAvOpenhomeOrgVolume1.obj
 0001:0001f360       ?SyncCharacteristics@CpProxyAvOpenhomeOrgVolume1@Net@OpenHome@@QAEXAAI00000@Z 00420360 f   CpAvOpenhomeOrgVolume1.obj
 0001:0001f440       ?BeginCharacteristics@CpProxyAvOpenhomeOrgVolume1@Net@OpenHome@@QAEXAAVFunctorAsync@23@@Z 00420440 f   CpAvOpenhomeOrgVolume1.obj
 0001:0001f750       ?EndCharacteristics@CpProxyAvOpenhomeOrgVolume1@Net@OpenHome@@QAEXAAVIAsync@23@AAI11111@Z 00420750 f   CpAvOpenhomeOrgVolume1.obj
 0001:0001f9c0       ?SyncSetVolume@CpProxyAvOpenhomeOrgVolume1@Net@OpenHome@@QAEXI@Z 004209c0 f   CpAvOpenhomeOrgVolume1.obj
 0001:0001fa90       ?BeginSetVolume@CpProxyAvOpenhomeOrgVolume1@Net@OpenHome@@QAEXIAAVFunctorAsync@23@@Z 00420a90 f   CpAvOpenhomeOrgVolume1.obj
 0001:0001fbb0       ?EndSetVolume@CpProxyAvOpenhomeOrgVolume1@Net@OpenHome@@QAEXAAVIAsync@23@@Z 00420bb0 f   CpAvOpenhomeOrgVolume1.obj
 0001:0001fd10       ?SyncVolumeInc@CpProxyAvOpenhomeOrgVolume1@Net@OpenHome@@QAEXXZ 00420d10 f   CpAvOpenhomeOrgVolume1.obj
 0001:0001fdd0       ?BeginVolumeInc@CpProxyAvOpenhomeOrgVolume1@Net@OpenHome@@QAEXAAVFunctorAsync@23@@Z 00420dd0 f   CpAvOpenhomeOrgVolume1.obj
 0001:0001fe40       ?EndVolumeInc@CpProxyAvOpenhomeOrgVolume1@Net@OpenHome@@QAEXAAVIAsync@23@@Z 00420e40 f   CpAvOpenhomeOrgVolume1.obj
 0001:0001ffa0       ?SyncVolumeDec@CpProxyAvOpenhomeOrgVolume1@Net@OpenHome@@QAEXXZ 00420fa0 f   CpAvOpenhomeOrgVolume1.obj
 0001:00020060       ?BeginVolumeDec@CpProxyAvOpenhomeOrgVolume1@Net@OpenHome@@QAEXAAVFunctorAsync@23@@Z 00421060 f   CpAvOpenhomeOrgVolume1.obj
 0001:000200d0       ?EndVolumeDec@CpProxyAvOpenhomeOrgVolume1@Net@OpenHome@@QAEXAAVIAsync@23@@Z 004210d0 f   CpAvOpenhomeOrgVolume1.obj
 0001:00020230       ?SyncVolume@CpProxyAvOpenhomeOrgVolume1@Net@OpenHome@@QAEXAAI@Z 00421230 f   CpAvOpenhomeOrgVolume1.obj
 0001:00020300       ?BeginVolume@CpProxyAvOpenhomeOrgVolume1@Net@OpenHome@@QAEXAAVFunctorAsync@23@@Z 00421300 f   CpAvOpenhomeOrgVolume1.obj
 0001:00020420       ?EndVolume@CpProxyAvOpenhomeOrgVolume1@Net@OpenHome@@QAEXAAVIAsync@23@AAI@Z 00421420 f   CpAvOpenhomeOrgVolume1.obj
 0001:000205b0       ?SyncSetBalance@CpProxyAvOpenhomeOrgVolume1@Net@OpenHome@@QAEXH@Z 004215b0 f   CpAvOpenhomeOrgVolume1.obj
 0001:00020680       ?BeginSetBalance@CpProxyAvOpenhomeOrgVolume1@Net@OpenHome@@QAEXHAAVFunctorAsync@23@@Z 00421680 f   CpAvOpenhomeOrgVolume1.obj
 0001:000207a0       ?EndSetBalance@CpProxyAvOpenhomeOrgVolume1@Net@OpenHome@@QAEXAAVIAsync@23@@Z 004217a0 f   CpAvOpenhomeOrgVolume1.obj
 0001:00020900       ?SyncBalanceInc@CpProxyAvOpenhomeOrgVolume1@Net@OpenHome@@QAEXXZ 00421900 f   CpAvOpenhomeOrgVolume1.obj
 0001:000209c0       ?BeginBalanceInc@CpProxyAvOpenhomeOrgVolume1@Net@OpenHome@@QAEXAAVFunctorAsync@23@@Z 004219c0 f   CpAvOpenhomeOrgVolume1.obj
 0001:00020a30       ?EndBalanceInc@CpProxyAvOpenhomeOrgVolume1@Net@OpenHome@@QAEXAAVIAsync@23@@Z 00421a30 f   CpAvOpenhomeOrgVolume1.obj
 0001:00020b90       ?SyncBalanceDec@CpProxyAvOpenhomeOrgVolume1@Net@OpenHome@@QAEXXZ 00421b90 f   CpAvOpenhomeOrgVolume1.obj
 0001:00020c50       ?BeginBalanceDec@CpProxyAvOpenhomeOrgVolume1@Net@OpenHome@@QAEXAAVFunctorAsync@23@@Z 00421c50 f   CpAvOpenhomeOrgVolume1.obj
 0001:00020cc0       ?EndBalanceDec@CpProxyAvOpenhomeOrgVolume1@Net@OpenHome@@QAEXAAVIAsync@23@@Z 00421cc0 f   CpAvOpenhomeOrgVolume1.obj
 0001:00020e20       ?SyncBalance@CpProxyAvOpenhomeOrgVolume1@Net@OpenHome@@QAEXAAH@Z 00421e20 f   CpAvOpenhomeOrgVolume1.obj
 0001:00020ef0       ?BeginBalance@CpProxyAvOpenhomeOrgVolume1@Net@OpenHome@@QAEXAAVFunctorAsync@23@@Z 00421ef0 f   CpAvOpenhomeOrgVolume1.obj
 0001:00021010       ?EndBalance@CpProxyAvOpenhomeOrgVolume1@Net@OpenHome@@QAEXAAVIAsync@23@AAH@Z 00422010 f   CpAvOpenhomeOrgVolume1.obj
 0001:000211a0       ?SyncSetFade@CpProxyAvOpenhomeOrgVolume1@Net@OpenHome@@QAEXH@Z 004221a0 f   CpAvOpenhomeOrgVolume1.obj
 0001:00021270       ?BeginSetFade@CpProxyAvOpenhomeOrgVolume1@Net@OpenHome@@QAEXHAAVFunctorAsync@23@@Z 00422270 f   CpAvOpenhomeOrgVolume1.obj
 0001:00021390       ?EndSetFade@CpProxyAvOpenhomeOrgVolume1@Net@OpenHome@@QAEXAAVIAsync@23@@Z 00422390 f   CpAvOpenhomeOrgVolume1.obj
 0001:000214f0       ?SyncFadeInc@CpProxyAvOpenhomeOrgVolume1@Net@OpenHome@@QAEXXZ 004224f0 f   CpAvOpenhomeOrgVolume1.obj
 0001:000215b0       ?BeginFadeInc@CpProxyAvOpenhomeOrgVolume1@Net@OpenHome@@QAEXAAVFunctorAsync@23@@Z 004225b0 f   CpAvOpenhomeOrgVolume1.obj
 0001:00021620       ?EndFadeInc@CpProxyAvOpenhomeOrgVolume1@Net@OpenHome@@QAEXAAVIAsync@23@@Z 00422620 f   CpAvOpenhomeOrgVolume1.obj
 0001:00021780       ?SyncFadeDec@CpProxyAvOpenhomeOrgVolume1@Net@OpenHome@@QAEXXZ 00422780 f   CpAvOpenhomeOrgVolume1.obj
 0001:00021840       ?BeginFadeDec@CpProxyAvOpenhomeOrgVolume1@Net@OpenHome@@QAEXAAVFunctorAsync@23@@Z 00422840 f   CpAvOpenhomeOrgVolume1.obj
 0001:000218b0       ?EndFadeDec@CpProxyAvOpenhomeOrgVolume1@Net@OpenHome@@QAEXAAVIAsync@23@@Z 004228b0 f   CpAvOpenhomeOrgVolume1.obj
 0001:00021a10       ?SyncFade@CpProxyAvOpenhomeOrgVolume1@Net@OpenHome@@QAEXAAH@Z 00422a10 f   CpAvOpenhomeOrgVolume1.obj
 0001:00021ae0       ?BeginFade@CpProxyAvOpenhomeOrgVolume1@Net@OpenHome@@QAEXAAVFunctorAsync@23@@Z 00422ae0 f   CpAvOpenhomeOrgVolume1.obj
 0001:00021c00       ?EndFade@CpProxyAvOpenhomeOrgVolume1@Net@OpenHome@@QAEXAAVIAsync@23@AAH@Z 00422c00 f   CpAvOpenhomeOrgVolume1.obj
 0001:00021d90       ?SyncSetMute@CpProxyAvOpenhomeOrgVolume1@Net@OpenHome@@QAEX_N@Z 00422d90 f   CpAvOpenhomeOrgVolume1.obj
 0001:00021e60       ?BeginSetMute@CpProxyAvOpenhomeOrgVolume1@Net@OpenHome@@QAEX_NAAVFunctorAsync@23@@Z 00422e60 f   CpAvOpenhomeOrgVolume1.obj
 0001:00021f80       ?EndSetMute@CpProxyAvOpenhomeOrgVolume1@Net@OpenHome@@QAEXAAVIAsync@23@@Z 00422f80 f   CpAvOpenhomeOrgVolume1.obj
 0001:000220e0       ?SyncMute@CpProxyAvOpenhomeOrgVolume1@Net@OpenHome@@QAEXAA_N@Z 004230e0 f   CpAvOpenhomeOrgVolume1.obj
 0001:000221b0       ?BeginMute@CpProxyAvOpenhomeOrgVolume1@Net@OpenHome@@QAEXAAVFunctorAsync@23@@Z 004231b0 f   CpAvOpenhomeOrgVolume1.obj
 0001:000222d0       ?EndMute@CpProxyAvOpenhomeOrgVolume1@Net@OpenHome@@QAEXAAVIAsync@23@AA_N@Z 004232d0 f   CpAvOpenhomeOrgVolume1.obj
 0001:00022460       ?SyncVolumeLimit@CpProxyAvOpenhomeOrgVolume1@Net@OpenHome@@QAEXAAI@Z 00423460 f   CpAvOpenhomeOrgVolume1.obj
 0001:00022530       ?BeginVolumeLimit@CpProxyAvOpenhomeOrgVolume1@Net@OpenHome@@QAEXAAVFunctorAsync@23@@Z 00423530 f   CpAvOpenhomeOrgVolume1.obj
 0001:00022650       ?EndVolumeLimit@CpProxyAvOpenhomeOrgVolume1@Net@OpenHome@@QAEXAAVIAsync@23@AAI@Z 00423650 f   CpAvOpenhomeOrgVolume1.obj
 0001:000227e0       ?SetPropertyVolumeChanged@CpProxyAvOpenhomeOrgVolume1@Net@OpenHome@@QAEXAAVFunctor@3@@Z 004237e0 f   CpAvOpenhomeOrgVolume1.obj
 0001:00022840       ?SetPropertyMuteChanged@CpProxyAvOpenhomeOrgVolume1@Net@OpenHome@@QAEXAAVFunctor@3@@Z 00423840 f   CpAvOpenhomeOrgVolume1.obj
 0001:000228a0       ?SetPropertyBalanceChanged@CpProxyAvOpenhomeOrgVolume1@Net@OpenHome@@QAEXAAVFunctor@3@@Z 004238a0 f   CpAvOpenhomeOrgVolume1.obj
 0001:00022900       ?SetPropertyFadeChanged@CpProxyAvOpenhomeOrgVolume1@Net@OpenHome@@QAEXAAVFunctor@3@@Z 00423900 f   CpAvOpenhomeOrgVolume1.obj
 0001:00022960       ?SetPropertyVolumeLimitChanged@CpProxyAvOpenhomeOrgVolume1@Net@OpenHome@@QAEXAAVFunctor@3@@Z 00423960 f   CpAvOpenhomeOrgVolume1.obj
 0001:000229c0       ?SetPropertyVolumeMaxChanged@CpProxyAvOpenhomeOrgVolume1@Net@OpenHome@@QAEXAAVFunctor@3@@Z 004239c0 f   CpAvOpenhomeOrgVolume1.obj
 0001:00022a20       ?SetPropertyVolumeUnityChanged@CpProxyAvOpenhomeOrgVolume1@Net@OpenHome@@QAEXAAVFunctor@3@@Z 00423a20 f   CpAvOpenhomeOrgVolume1.obj
 0001:00022a80       ?SetPropertyVolumeStepsChanged@CpProxyAvOpenhomeOrgVolume1@Net@OpenHome@@QAEXAAVFunctor@3@@Z 00423a80 f   CpAvOpenhomeOrgVolume1.obj
 0001:00022ae0       ?SetPropertyVolumeMilliDbPerStepChanged@CpProxyAvOpenhomeOrgVolume1@Net@OpenHome@@QAEXAAVFunctor@3@@Z 00423ae0 f   CpAvOpenhomeOrgVolume1.obj
 0001:00022b40       ?SetPropertyBalanceMaxChanged@CpProxyAvOpenhomeOrgVolume1@Net@OpenHome@@QAEXAAVFunctor@3@@Z 00423b40 f   CpAvOpenhomeOrgVolume1.obj
 0001:00022ba0       ?SetPropertyFadeMaxChanged@CpProxyAvOpenhomeOrgVolume1@Net@OpenHome@@QAEXAAVFunctor@3@@Z 00423ba0 f   CpAvOpenhomeOrgVolume1.obj
 0001:00022c00       ?PropertyVolume@CpProxyAvOpenhomeOrgVolume1@Net@OpenHome@@QBEXAAI@Z 00423c00 f   CpAvOpenhomeOrgVolume1.obj
 0001:00022c60       ?PropertyMute@CpProxyAvOpenhomeOrgVolume1@Net@OpenHome@@QBEXAA_N@Z 00423c60 f   CpAvOpenhomeOrgVolume1.obj
 0001:00022cc0       ?PropertyBalance@CpProxyAvOpenhomeOrgVolume1@Net@OpenHome@@QBEXAAH@Z 00423cc0 f   CpAvOpenhomeOrgVolume1.obj
 0001:00022d20       ?PropertyFade@CpProxyAvOpenhomeOrgVolume1@Net@OpenHome@@QBEXAAH@Z 00423d20 f   CpAvOpenhomeOrgVolume1.obj
 0001:00022d80       ?PropertyVolumeLimit@CpProxyAvOpenhomeOrgVolume1@Net@OpenHome@@QBEXAAI@Z 00423d80 f   CpAvOpenhomeOrgVolume1.obj
 0001:00022de0       ?PropertyVolumeMax@CpProxyAvOpenhomeOrgVolume1@Net@OpenHome@@QBEXAAI@Z 00423de0 f   CpAvOpenhomeOrgVolume1.obj
 0001:00022e40       ?PropertyVolumeUnity@CpProxyAvOpenhomeOrgVolume1@Net@OpenHome@@QBEXAAI@Z 00423e40 f   CpAvOpenhomeOrgVolume1.obj
 0001:00022ea0       ?PropertyVolumeSteps@CpProxyAvOpenhomeOrgVolume1@Net@OpenHome@@QBEXAAI@Z 00423ea0 f   CpAvOpenhomeOrgVolume1.obj
 0001:00022f00       ?PropertyVolumeMilliDbPerStep@CpProxyAvOpenhomeOrgVolume1@Net@OpenHome@@QBEXAAI@Z 00423f00 f   CpAvOpenhomeOrgVolume1.obj
 0001:00022f60       ?PropertyBalanceMax@CpProxyAvOpenhomeOrgVolume1@Net@OpenHome@@QBEXAAI@Z 00423f60 f   CpAvOpenhomeOrgVolume1.obj
 0001:00022fc0       ?PropertyFadeMax@CpProxyAvOpenhomeOrgVolume1@Net@OpenHome@@QBEXAAI@Z 00423fc0 f   CpAvOpenhomeOrgVolume1.obj
 0001:00023020       ?VolumePropertyChanged@CpProxyAvOpenhomeOrgVolume1@Net@OpenHome@@AAEXXZ 00424020 f   CpAvOpenhomeOrgVolume1.obj
 0001:00023070       ?MutePropertyChanged@CpProxyAvOpenhomeOrgVolume1@Net@OpenHome@@AAEXXZ 00424070 f   CpAvOpenhomeOrgVolume1.obj
 0001:000230c0       ?BalancePropertyChanged@CpProxyAvOpenhomeOrgVolume1@Net@OpenHome@@AAEXXZ 004240c0 f   CpAvOpenhomeOrgVolume1.obj
 0001:00023110       ?FadePropertyChanged@CpProxyAvOpenhomeOrgVolume1@Net@OpenHome@@AAEXXZ 00424110 f   CpAvOpenhomeOrgVolume1.obj
 0001:00023160       ?VolumeLimitPropertyChanged@CpProxyAvOpenhomeOrgVolume1@Net@OpenHome@@AAEXXZ 00424160 f   CpAvOpenhomeOrgVolume1.obj
 0001:000231b0       ?VolumeMaxPropertyChanged@CpProxyAvOpenhomeOrgVolume1@Net@OpenHome@@AAEXXZ 004241b0 f   CpAvOpenhomeOrgVolume1.obj
 0001:00023200       ?VolumeUnityPropertyChanged@CpProxyAvOpenhomeOrgVolume1@Net@OpenHome@@AAEXXZ 00424200 f   CpAvOpenhomeOrgVolume1.obj
 0001:00023250       ?VolumeStepsPropertyChanged@CpProxyAvOpenhomeOrgVolume1@Net@OpenHome@@AAEXXZ 00424250 f   CpAvOpenhomeOrgVolume1.obj
 0001:000232a0       ?VolumeMilliDbPerStepPropertyChanged@CpProxyAvOpenhomeOrgVolume1@Net@OpenHome@@AAEXXZ 004242a0 f   CpAvOpenhomeOrgVolume1.obj
 0001:000232f0       ?BalanceMaxPropertyChanged@CpProxyAvOpenhomeOrgVolume1@Net@OpenHome@@AAEXXZ 004242f0 f   CpAvOpenhomeOrgVolume1.obj
 0001:00023340       ?FadeMaxPropertyChanged@CpProxyAvOpenhomeOrgVolume1@Net@OpenHome@@AAEXXZ 00424340 f   CpAvOpenhomeOrgVolume1.obj
 0001:00023390       ??_ECpProxyAvOpenhomeOrgVolume1@Net@OpenHome@@UAEPAXI@Z 00424390 f i CpAvOpenhomeOrgVolume1.obj
 0001:00023390       ??_GCpProxyAvOpenhomeOrgVolume1@Net@OpenHome@@UAEPAXI@Z 00424390 f i CpAvOpenhomeOrgVolume1.obj
 0001:000233d0       ??1SyncCharacteristicsAvOpenhomeOrgVolume1@@QAE@XZ 004243d0 f i CpAvOpenhomeOrgVolume1.obj
 0001:00023400       ??1SyncSetVolumeAvOpenhomeOrgVolume1@@QAE@XZ 00424400 f i CpAvOpenhomeOrgVolume1.obj
 0001:00023430       ??1SyncVolumeIncAvOpenhomeOrgVolume1@@QAE@XZ 00424430 f i CpAvOpenhomeOrgVolume1.obj
 0001:00023460       ??1SyncVolumeDecAvOpenhomeOrgVolume1@@QAE@XZ 00424460 f i CpAvOpenhomeOrgVolume1.obj
 0001:00023490       ??1SyncVolumeAvOpenhomeOrgVolume1@@QAE@XZ 00424490 f i CpAvOpenhomeOrgVolume1.obj
 0001:000234c0       ??1SyncSetBalanceAvOpenhomeOrgVolume1@@QAE@XZ 004244c0 f i CpAvOpenhomeOrgVolume1.obj
 0001:000234f0       ??1SyncBalanceIncAvOpenhomeOrgVolume1@@QAE@XZ 004244f0 f i CpAvOpenhomeOrgVolume1.obj
 0001:00023520       ??1SyncBalanceDecAvOpenhomeOrgVolume1@@QAE@XZ 00424520 f i CpAvOpenhomeOrgVolume1.obj
 0001:00023550       ??1SyncBalanceAvOpenhomeOrgVolume1@@QAE@XZ 00424550 f i CpAvOpenhomeOrgVolume1.obj
 0001:00023580       ??1SyncSetFadeAvOpenhomeOrgVolume1@@QAE@XZ 00424580 f i CpAvOpenhomeOrgVolume1.obj
 0001:000235b0       ??1SyncFadeIncAvOpenhomeOrgVolume1@@QAE@XZ 004245b0 f i CpAvOpenhomeOrgVolume1.obj
 0001:000235e0       ??1SyncFadeDecAvOpenhomeOrgVolume1@@QAE@XZ 004245e0 f i CpAvOpenhomeOrgVolume1.obj
 0001:00023610       ??1SyncFadeAvOpenhomeOrgVolume1@@QAE@XZ 00424610 f i CpAvOpenhomeOrgVolume1.obj
 0001:00023640       ??1SyncSetMuteAvOpenhomeOrgVolume1@@QAE@XZ 00424640 f i CpAvOpenhomeOrgVolume1.obj
 0001:00023670       ??1SyncMuteAvOpenhomeOrgVolume1@@QAE@XZ 00424670 f i CpAvOpenhomeOrgVolume1.obj
 0001:000236a0       ??1SyncVolumeLimitAvOpenhomeOrgVolume1@@QAE@XZ 004246a0 f i CpAvOpenhomeOrgVolume1.obj
 0001:000236d0       ??$MakeFunctor@VCpProxyAvOpenhomeOrgVolume1@Net@OpenHome@@XV123@@OpenHome@@YG?AV?$MemberTranslator@VCpProxyAvOpenhomeOrgVolume1@Net@OpenHome@@P8123@AEXXZ@0@AAVCpProxyAvOpenhomeOrgVolume1@Net@0@ABQ8230@AEXXZ@Z 004246d0 f i CpAvOpenhomeOrgVolume1.obj
 0001:00023700       ??0?$MemberTranslator@VCpProxyAvOpenhomeOrgVolume1@Net@OpenHome@@P8123@AEXXZ@OpenHome@@QAE@AAVCpProxyAvOpenhomeOrgVolume1@Net@1@ABQ8231@AEXXZ@Z 00424700 f i CpAvOpenhomeOrgVolume1.obj
 0001:00023740       ?Thunk@?$MemberTranslator@VCpProxyAvOpenhomeOrgVolume1@Net@OpenHome@@P8123@AEXXZ@OpenHome@@SGXABVFunctor@2@@Z 00424740 f i CpAvOpenhomeOrgVolume1.obj
 0001:00023790       ?Log@TestConsole@@QAEXPBD@Z 00424790 f   libTestFramework:TestFramework.obj
 0001:000237c0       ?AssertHandlerTest@TestFramework@OpenHome@@YGXPBDI@Z 004247c0 f   libTestFramework:TestFramework.obj
 0001:00023870       ??0Suite@TestFramework@OpenHome@@IAE@PBD@Z 00424870 f   libTestFramework:TestFramework.obj
 0001:000238b0       ??1Suite@TestFramework@OpenHome@@MAE@XZ 004248b0 f   libTestFramework:TestFramework.obj
 0001:000238d0       ?Description@Suite@TestFramework@OpenHome@@QBEPBDXZ 004248d0 f   libTestFramework:TestFramework.obj
 0001:000238f0       ??0Runner@TestFramework@OpenHome@@QAE@PBD@Z 004248f0 f   libTestFramework:TestFramework.obj
 0001:00023930       ??1Runner@TestFramework@OpenHome@@QAE@XZ 00424930 f   libTestFramework:TestFramework.obj
 0001:00023950       ?Add@Runner@TestFramework@OpenHome@@QAEXPAVSuite@23@@Z 00424950 f   libTestFramework:TestFramework.obj
 0001:000239d0       ?Run@Runner@TestFramework@OpenHome@@QAEXXZ 004249d0 f   libTestFramework:TestFramework.obj
 0001:00023c80       ?Fail@TestFramework@OpenHome@@YGXPBDI00@Z 00424c80 f   libTestFramework:TestFramework.obj
 0001:00023ce0       ?Succeed@TestFramework@OpenHome@@YGXPBDI@Z 00424ce0 f   libTestFramework:TestFramework.obj
 0001:00023d10       ?SucceedQuietly@TestFramework@OpenHome@@YGXPBDI@Z 00424d10 f   libTestFramework:TestFramework.obj
 0001:00023d40       ?TimeStart@TestFramework@OpenHome@@YGIXZ 00424d40 f   libTestFramework:TestFramework.obj
 0001:00023d60       ?TimeStop@TestFramework@OpenHome@@YGII@Z 00424d60 f   libTestFramework:TestFramework.obj
 0001:00023d90       ?Print@TestFramework@OpenHome@@YAHPBDZZ 00424d90 f   libTestFramework:TestFramework.obj
 0001:00023e50       ?Print@TestFramework@OpenHome@@YGHPBDPAD@Z 00424e50 f   libTestFramework:TestFramework.obj
 0001:00023f00       ?Print@TestFramework@OpenHome@@YGHABVBrx@2@@Z 00424f00 f   libTestFramework:TestFramework.obj
 0001:00023fb0       ?PrintHex@TestFramework@OpenHome@@YGHABVBrx@2@@Z 00424fb0 f   libTestFramework:TestFramework.obj
 0001:00024060       ??0Blocker@TestFramework@OpenHome@@QAE@XZ 00425060 f   libTestFramework:TestFramework.obj
 0001:00024160       ??1Blocker@TestFramework@OpenHome@@QAE@XZ 00425160 f   libTestFramework:TestFramework.obj
 0001:00024200       ?Wait@Blocker@TestFramework@OpenHome@@QAEXI@Z 00425200 f   libTestFramework:TestFramework.obj
 0001:00024240       ?TimerExpired@Blocker@TestFramework@OpenHome@@AAEXXZ 00425240 f   libTestFramework:TestFramework.obj
 0001:00024270       ?ConsoleWrite@Os@OpenHome@@SGXPBD@Z 00425270 f i libTestFramework:TestFramework.obj
 0001:00024290       ??0AssertionFailed@OpenHome@@QAE@PBDI@Z 00425290 f i libTestFramework:TestFramework.obj
 0001:000242d0       ??1AssertionFailed@OpenHome@@QAE@XZ 004252d0 f i libTestFramework:TestFramework.obj
 0001:00024300       ??_GSuite@TestFramework@OpenHome@@MAEPAXI@Z 00425300 f i libTestFramework:TestFramework.obj
 0001:00024300       ??_ESuite@TestFramework@OpenHome@@MAEPAXI@Z 00425300 f i libTestFramework:TestFramework.obj
 0001:00024340       ?TimeInMs@Os@OpenHome@@SGIXZ 00425340 f i libTestFramework:TestFramework.obj
 0001:00024360       ?TimeInUs@Os@OpenHome@@SG_KXZ 00425360 f i libTestFramework:TestFramework.obj
 0001:00024380       ??_GTimer@OpenHome@@QAEPAXI@Z 00425380 f i libTestFramework:TestFramework.obj
 0001:000243c0       ??$MakeFunctorMsg@VTestConsole@@V1@@OpenHome@@YG?AV?$MemberTranslatorMsg@VTestConsole@@P81@AEXPBD@Z@0@AAVTestConsole@@ABQ82@AEXPBD@Z@Z 004253c0 f i libTestFramework:TestFramework.obj
 0001:000243f0       ??$MakeFunctor@VBlocker@TestFramework@OpenHome@@XV123@@OpenHome@@YG?AV?$MemberTranslator@VBlocker@TestFramework@OpenHome@@P8123@AEXXZ@0@AAVBlocker@TestFramework@0@ABQ8230@AEXXZ@Z 004253f0 f i libTestFramework:TestFramework.obj
 0001:00024420       ??0?$MemberTranslatorMsg@VTestConsole@@P81@AEXPBD@Z@OpenHome@@QAE@AAVTestConsole@@ABQ82@AEXPBD@Z@Z 00425420 f i libTestFramework:TestFramework.obj
 0001:00024460       ??0FunctorMsg@OpenHome@@IAE@P6GXABV01@PBD@ZPBX3I@Z 00425460 f i libTestFramework:TestFramework.obj
 0001:000244b0       ??0?$MemberTranslator@VBlocker@TestFramework@OpenHome@@P8123@AEXXZ@OpenHome@@QAE@AAVBlocker@TestFramework@1@ABQ8231@AEXXZ@Z 004254b0 f i libTestFramework:TestFramework.obj
 0001:000244f0       ?Thunk@?$MemberTranslatorMsg@VTestConsole@@P81@AEXPBD@Z@OpenHome@@SGXABVFunctorMsg@2@PBD@Z 004254f0 f i libTestFramework:TestFramework.obj
 0001:00024540       ?Thunk@?$MemberTranslator@VBlocker@TestFramework@OpenHome@@P8123@AEXXZ@OpenHome@@SGXABVFunctor@2@@Z 00425540 f i libTestFramework:TestFramework.obj
 0001:00024590       ?SetAssertHandler@OpenHome@@YGP6GXPBDI@ZP6GX0I@Z@Z 00425590 f   libohNetCore:Exception.obj
 0001:000245c0       ?CallAssertHandler@OpenHome@@YGXPBDI@Z 004255c0 f   libohNetCore:Exception.obj
 0001:000245f0       ?AssertHandlerDefault@OpenHome@@YGXPBDI@Z 004255f0 f   libohNetCore:Exception.obj
 0001:000246e0       ?UnhandledExceptionHandler@OpenHome@@YGXPBD0I@Z 004256e0 f   libohNetCore:Exception.obj
 0001:00024780       ?UnhandledExceptionHandler@OpenHome@@YGXAAVException@1@@Z 00425780 f   libohNetCore:Exception.obj
 0001:00024830       ?UnhandledExceptionHandler@OpenHome@@YGXAAVexception@std@@@Z 00425830 f   libohNetCore:Exception.obj
 0001:000248e0       ??0Exception@OpenHome@@QAE@PBD0I@Z 004258e0 f   libohNetCore:Exception.obj
 0001:00024920       ??0Exception@OpenHome@@QAE@PBD@Z 00425920 f   libohNetCore:Exception.obj
 0001:00024960       ??1Exception@OpenHome@@QAE@XZ 00425960 f   libohNetCore:Exception.obj
 0001:00024980       ?Message@Exception@OpenHome@@QAEPBDXZ 00425980 f   libohNetCore:Exception.obj
 0001:000249a0       ?File@Exception@OpenHome@@QAEPBDXZ 004259a0 f   libohNetCore:Exception.obj
 0001:000249c0       ?Line@Exception@OpenHome@@QAEIXZ 004259c0 f   libohNetCore:Exception.obj
 0001:000249e0       ?Quit@Os@OpenHome@@SGXXZ   004259e0 f i libohNetCore:Exception.obj
 0001:00024a00       ??RFunctorMsg@OpenHome@@QBEXPBD@Z 00425a00 f i libohNetCore:Exception.obj
 0001:00024a50       ?Empty@Brx@OpenHome@@SGABVBrn@2@XZ 00425a50 f   libohNetCore:Buffer.obj
 0001:00024a60       ?Equals@Brx@OpenHome@@QBE_NABV12@@Z 00425a60 f   libohNetCore:Buffer.obj
 0001:00024ae0       ?At@Brx@OpenHome@@QBEABEI@Z 00425ae0 f   libohNetCore:Buffer.obj
 0001:00024b40       ?Split@Brx@OpenHome@@QBE?AVBrn@2@I@Z 00425b40 f   libohNetCore:Buffer.obj
 0001:00024bd0       ?Split@Brx@OpenHome@@QBE?AVBrn@2@II@Z 00425bd0 f   libohNetCore:Buffer.obj
 0001:00024c50       ?BeginsWith@Brx@OpenHome@@QBE_NABV12@@Z 00425c50 f   libohNetCore:Buffer.obj
 0001:00024cd0       ??0Brn@OpenHome@@QAE@PBD@Z 00425cd0 f   libohNetCore:Buffer.obj
 0001:00024d20       ?Set@Brn@OpenHome@@QAEXPBD@Z 00425d20 f   libohNetCore:Buffer.obj
 0001:00024d60       ?Ptr@Brn@OpenHome@@UBEPBEXZ 00425d60 f   libohNetCore:Buffer.obj
 0001:00024da0       ??1Brv@OpenHome@@UAE@XZ    00425da0 f   libohNetCore:Buffer.obj
 0001:00024de0       ?Ptr@Brv@OpenHome@@UBEPBEXZ 00425de0 f   libohNetCore:Buffer.obj
 0001:00024e00       ??0Brh@OpenHome@@QAE@ABVBrx@1@@Z 00425e00 f   libohNetCore:Buffer.obj
 0001:00024e80       ??0Brh@OpenHome@@QAE@PBD@Z 00425e80 f   libohNetCore:Buffer.obj
 0001:00024f00       ?Set@Brh@OpenHome@@QAEXPBEI@Z 00425f00 f   libohNetCore:Buffer.obj
 0001:00024f60       ?Set@Brh@OpenHome@@QAEXPBD@Z 00425f60 f   libohNetCore:Buffer.obj
 0001:00024fa0       ?TransferTo@Brh@OpenHome@@QAEXAAV12@@Z 00425fa0 f   libohNetCore:Buffer.obj
 0001:00025000       ?Extract@Brh@OpenHome@@QAEPADXZ 00426000 f   libohNetCore:Buffer.obj
 0001:00025040       ??0Brhz@OpenHome@@QAE@ABVBrx@1@@Z 00426040 f   libohNetCore:Buffer.obj
 0001:000250c0       ??0Brhz@OpenHome@@QAE@PBD@Z 004260c0 f   libohNetCore:Buffer.obj
 0001:00025140       ?Set@Brhz@OpenHome@@QAEXPBEI@Z 00426140 f   libohNetCore:Buffer.obj
 0001:00025200       ?Set@Brhz@OpenHome@@QAEXPBD@Z 00426200 f   libohNetCore:Buffer.obj
 0001:00025240       ?Shrink@Brhz@OpenHome@@QAEXI@Z 00426240 f   libohNetCore:Buffer.obj
 0001:000252e0       ?TransferTo@Brhz@OpenHome@@QAEXAAVBrh@2@@Z 004262e0 f   libohNetCore:Buffer.obj
 0001:00025340       ?TransferTo@Brhz@OpenHome@@QAEXAAV12@@Z 00426340 f   libohNetCore:Buffer.obj
 0001:000253a0       ?Transfer@Brhz@OpenHome@@QAEPADXZ 004263a0 f   libohNetCore:Buffer.obj
 0001:000253e0       ??0Bwx@OpenHome@@IAE@II@Z  004263e0 f   libohNetCore:Buffer.obj
 0001:00025480       ?Replace@Bwx@OpenHome@@QAEXABVBrx@2@@Z 00426480 f   libohNetCore:Buffer.obj
 0001:00025510       ?ReplaceThrow@Bwx@OpenHome@@QAEXABVBrx@2@@Z 00426510 f   libohNetCore:Buffer.obj
 0001:00025630       ?Replace@Bwx@OpenHome@@QAEXPBEI@Z 00426630 f   libohNetCore:Buffer.obj
 0001:000256a0       ?Replace@Bwx@OpenHome@@QAEXPBD@Z 004266a0 f   libohNetCore:Buffer.obj
 0001:00025730       ?Append@Bwx@OpenHome@@QAEXPBD@Z 00426730 f   libohNetCore:Buffer.obj
 0001:00025770       ?Append@Bwx@OpenHome@@QAEXABVBrx@2@@Z 00426770 f   libohNetCore:Buffer.obj
 0001:000257c0       ?Append@Bwx@OpenHome@@QAEXPBEI@Z 004267c0 f   libohNetCore:Buffer.obj
 0001:00025850       ?AppendPrintf@Bwx@OpenHome@@QAAXPBDZZ 00426850 f   libohNetCore:Buffer.obj
 0001:00025990       ?PtrZ@Bwx@OpenHome@@QBEPBDXZ 00426990 f   libohNetCore:Buffer.obj
 0001:00025a10       ?Fill@Bwx@OpenHome@@QAEXE@Z 00426a10 f   libohNetCore:Buffer.obj
 0001:00025a60       ?SetBytes@Bwx@OpenHome@@QAEXI@Z 00426a60 f   libohNetCore:Buffer.obj
 0001:00025ab0       ?At@Bwx@OpenHome@@QAEAAEI@Z 00426ab0 f   libohNetCore:Buffer.obj
 0001:00025b10       ??0Bwn@OpenHome@@QAE@XZ    00426b10 f   libohNetCore:Buffer.obj
 0001:00025b50       ??0Bwn@OpenHome@@QAE@ABVBwx@1@@Z 00426b50 f   libohNetCore:Buffer.obj
 0001:00025bf0       ??0Bwn@OpenHome@@QAE@ABV01@@Z 00426bf0 f   libohNetCore:Buffer.obj
 0001:00025c90       ??0Bwn@OpenHome@@QAE@PBEI@Z 00426c90 f   libohNetCore:Buffer.obj
 0001:00025ce0       ??0Bwn@OpenHome@@QAE@PBEII@Z 00426ce0 f   libohNetCore:Buffer.obj
 0001:00025d30       ??0Bwn@OpenHome@@QAE@PBDI@Z 00426d30 f   libohNetCore:Buffer.obj
 0001:00025d80       ??0Bwn@OpenHome@@QAE@PBDII@Z 00426d80 f   libohNetCore:Buffer.obj
 0001:00025dd0       ?Set@Bwn@OpenHome@@QAEXABVBwx@2@@Z 00426dd0 f   libohNetCore:Buffer.obj
 0001:00025e30       ?Set@Bwn@OpenHome@@QAEXPBEI@Z 00426e30 f   libohNetCore:Buffer.obj
 0001:00025e60       ?Set@Bwn@OpenHome@@QAEXPBEII@Z 00426e60 f   libohNetCore:Buffer.obj
 0001:00025eb0       ?Ptr@Bwn@OpenHome@@UBEPBEXZ 00426eb0 f   libohNetCore:Buffer.obj
 0001:00025ed0       ??0Bwh@OpenHome@@QAE@XZ    00426ed0 f   libohNetCore:Buffer.obj
 0001:00025f10       ??0Bwh@OpenHome@@QAE@I@Z   00426f10 f   libohNetCore:Buffer.obj
 0001:00025f60       ??0Bwh@OpenHome@@QAE@II@Z  00426f60 f   libohNetCore:Buffer.obj
 0001:00025fb0       ??1Bwh@OpenHome@@UAE@XZ    00426fb0 f   libohNetCore:Buffer.obj
 0001:00025ff0       ?Ptr@Bwh@OpenHome@@UBEPBEXZ 00426ff0 f   libohNetCore:Buffer.obj
 0001:00026030       ??0Bwh@OpenHome@@QAE@PBD@Z 00427030 f   libohNetCore:Buffer.obj
 0001:000260d0       ??0Bwh@OpenHome@@QAE@PBEI@Z 004270d0 f   libohNetCore:Buffer.obj
 0001:00026170       ??0Bwh@OpenHome@@QAE@ABVBrx@1@@Z 00427170 f   libohNetCore:Buffer.obj
 0001:00026210       ??0Bwh@OpenHome@@QAE@ABV01@@Z 00427210 f   libohNetCore:Buffer.obj
 0001:000262b0       ?Grow@Bwh@OpenHome@@QAEXI@Z 004272b0 f   libohNetCore:Buffer.obj
 0001:00026360       ?TransferTo@Bwh@OpenHome@@QAEXAAVBrh@2@@Z 00427360 f   libohNetCore:Buffer.obj
 0001:000263c0       ?TransferTo@Bwh@OpenHome@@QAEXAAVBrhz@2@@Z 004273c0 f   libohNetCore:Buffer.obj
 0001:00026420       ?TransferTo@Bwh@OpenHome@@QAEXAAV12@@Z 00427420 f   libohNetCore:Buffer.obj
 0001:00026480       ??RBufferCmp@OpenHome@@QBE_NABVBrx@1@0@Z 00427480 f   libohNetCore:Buffer.obj
 0001:00026580       ??0Brn@OpenHome@@QAE@PBEI@Z 00427580 f i libohNetCore:Buffer.obj
 0001:000265c0       ??_GBrn@OpenHome@@UAEPAXI@Z 004275c0 f i libohNetCore:Buffer.obj
 0001:000265c0       ??_EBrn@OpenHome@@UAEPAXI@Z 004275c0 f i libohNetCore:Buffer.obj
 0001:00026600       ??_EBrh@OpenHome@@UAEPAXI@Z 00427600 f i libohNetCore:Buffer.obj
 0001:00026600       ??_GBrh@OpenHome@@UAEPAXI@Z 00427600 f i libohNetCore:Buffer.obj
 0001:00026640       ??1Brh@OpenHome@@UAE@XZ    00427640 f i libohNetCore:Buffer.obj
 0001:00026670       ?Set@Brh@OpenHome@@QAEXABVBrx@2@@Z 00427670 f i libohNetCore:Buffer.obj
 0001:000266c0       ?MaxBytes@Bwx@OpenHome@@QBEIXZ 004276c0 f i libohNetCore:Buffer.obj
 0001:000266e0       ??_EBwx@OpenHome@@UAEPAXI@Z 004276e0 f i libohNetCore:Buffer.obj
 0001:000266e0       ??_GBwx@OpenHome@@UAEPAXI@Z 004276e0 f i libohNetCore:Buffer.obj
 0001:00026720       ??0BufferOverflow@OpenHome@@QAE@PBDI@Z 00427720 f i libohNetCore:Buffer.obj
 0001:00026760       ??1BufferOverflow@OpenHome@@QAE@XZ 00427760 f i libohNetCore:Buffer.obj
 0001:00026790       ??0BufferFull@OpenHome@@QAE@PBDI@Z 00427790 f i libohNetCore:Buffer.obj
 0001:000267d0       ??1BufferFull@OpenHome@@QAE@XZ 004277d0 f i libohNetCore:Buffer.obj
 0001:00026800       ??_GBwn@OpenHome@@UAEPAXI@Z 00427800 f i libohNetCore:Buffer.obj
 0001:00026800       ??_EBwn@OpenHome@@UAEPAXI@Z 00427800 f i libohNetCore:Buffer.obj
 0001:00026840       ??1Bwn@OpenHome@@UAE@XZ    00427840 f i libohNetCore:Buffer.obj
 0001:00026870       ??_EBwh@OpenHome@@UAEPAXI@Z 00427870 f i libohNetCore:Buffer.obj
 0001:00026870       ??_GBwh@OpenHome@@UAEPAXI@Z 00427870 f i libohNetCore:Buffer.obj
 0001:000268b0       ?IsHex@Ascii@OpenHome@@SG_ND@Z 004278b0 f   libohNetCore:Ascii.obj
 0001:00026910       ?IsDigit@Ascii@OpenHome@@SG_ND@Z 00427910 f   libohNetCore:Ascii.obj
 0001:00026950       ?IsWhitespace@Ascii@OpenHome@@SG_ND@Z 00427950 f   libohNetCore:Ascii.obj
 0001:00026970       ?IsLineEnding@Ascii@OpenHome@@SG_ND@Z 00427970 f   libohNetCore:Ascii.obj
 0001:000269b0       ?IsAlphabetic@Ascii@OpenHome@@SG_ND@Z 004279b0 f   libohNetCore:Ascii.obj
 0001:00026a00       ?IsUpperCase@Ascii@OpenHome@@SG_ND@Z 00427a00 f   libohNetCore:Ascii.obj
 0001:00026a40       ?IsLowerCase@Ascii@OpenHome@@SG_ND@Z 00427a40 f   libohNetCore:Ascii.obj
 0001:00026a80       ?ToLowerCase@Ascii@OpenHome@@SGDD@Z 00427a80 f   libohNetCore:Ascii.obj
 0001:00026ad0       ?ToUpperCase@Ascii@OpenHome@@SGDD@Z 00427ad0 f   libohNetCore:Ascii.obj
 0001:00026b20       ?CaseInsensitiveEquals@Ascii@OpenHome@@SG_NDD@Z 00427b20 f   libohNetCore:Ascii.obj
 0001:00026b70       ?CaseInsensitiveEquals@Ascii@OpenHome@@SG_NABVBrx@2@0@Z 00427b70 f   libohNetCore:Ascii.obj
 0001:00026c00       ?RemoveTheFromStart@Ascii@OpenHome@@SG_NABVBrx@2@AAVBwx@2@@Z 00427c00 f   libohNetCore:Ascii.obj
 0001:00026d40       ?HexChar@Ascii@OpenHome@@SGDI@Z 00427d40 f   libohNetCore:Ascii.obj
 0001:00026e10       ?HexValue@Ascii@OpenHome@@SGID@Z 00427e10 f   libohNetCore:Ascii.obj
 0001:00026f10       ?DecChar@Ascii@OpenHome@@SGDI@Z 00427f10 f   libohNetCore:Ascii.obj
 0001:00026fd0       ?DecValue@Ascii@OpenHome@@SGID@Z 00427fd0 f   libohNetCore:Ascii.obj
 0001:000270a0       ?AppendDec@Ascii@OpenHome@@SGIAAVBwx@2@E@Z 004280a0 f   libohNetCore:Ascii.obj
 0001:000270c0       ?AppendDec@Ascii@OpenHome@@SGIAAVBwx@2@C@Z 004280c0 f   libohNetCore:Ascii.obj
 0001:000270e0       ?AppendDec@Ascii@OpenHome@@SGIAAVBwx@2@H@Z 004280e0 f   libohNetCore:Ascii.obj
 0001:00027260       ?AppendDec@Ascii@OpenHome@@SGIAAVBwx@2@I@Z 00428260 f   libohNetCore:Ascii.obj
 0001:000273c0       ?AppendDec@Ascii@OpenHome@@SGIAAVBwx@2@_J@Z 004283c0 f   libohNetCore:Ascii.obj
 0001:00027570       ?AppendDec@Ascii@OpenHome@@SGIAAVBwx@2@_K@Z 00428570 f   libohNetCore:Ascii.obj
 0001:000276e0       ?AppendHex@Ascii@OpenHome@@SGIAAVBwx@2@I@Z 004286e0 f   libohNetCore:Ascii.obj
 0001:00027780       ?AppendHex@Ascii@OpenHome@@SGIAAVBwx@2@E@Z 00428780 f   libohNetCore:Ascii.obj
 0001:000277d0       ?AppendHexPrefix@Ascii@OpenHome@@SGIAAVBwx@2@@Z 004287d0 f   libohNetCore:Ascii.obj
 0001:000277f0       ?Contains@Ascii@OpenHome@@SG_NABVBrx@2@D@Z 004287f0 f   libohNetCore:Ascii.obj
 0001:00027850       ?ContainsWhitespace@Ascii@OpenHome@@SG_NABVBrx@2@@Z 00428850 f   libohNetCore:Ascii.obj
 0001:000278b0       ?IndexOf@Ascii@OpenHome@@SGIABVBrx@2@D@Z 004288b0 f   libohNetCore:Ascii.obj
 0001:00027940       ?Substitute@Ascii@OpenHome@@SGXAAVBwx@2@DD@Z 00428940 f   libohNetCore:Ascii.obj
 0001:000279d0       ?Trim@Ascii@OpenHome@@SG?AVBrn@2@ABVBrx@2@@Z 004289d0 f   libohNetCore:Ascii.obj
 0001:00027ad0       ?Int@Ascii@OpenHome@@SGHABVBrx@2@@Z 00428ad0 f   libohNetCore:Ascii.obj
 0001:00027d50       ?Uint@Ascii@OpenHome@@SGIABVBrx@2@@Z 00428d50 f   libohNetCore:Ascii.obj
 0001:00027f10       ?Int64@Ascii@OpenHome@@SG_JABVBrx@2@@Z 00428f10 f   libohNetCore:Ascii.obj
 0001:000281e0       ?Uint64@Ascii@OpenHome@@SG_KABVBrx@2@@Z 004291e0 f   libohNetCore:Ascii.obj
 0001:000283c0       ?UintHex@Ascii@OpenHome@@SGIABVBrx@2@@Z 004293c0 f   libohNetCore:Ascii.obj
 0001:00028580       ??0ReaderAscii@OpenHome@@QAE@AAVIReader@1@@Z 00429580 f   libohNetCore:Ascii.obj
 0001:00028600       ?ReadInt@ReaderAscii@OpenHome@@QAEHE@Z 00429600 f   libohNetCore:Ascii.obj
 0001:000286c0       ?ReadUint@ReaderAscii@OpenHome@@QAEIE@Z 004296c0 f   libohNetCore:Ascii.obj
 0001:00028780       ?Read@ReaderAscii@OpenHome@@UAE?AVBrn@2@I@Z 00429780 f   libohNetCore:Ascii.obj
 0001:000287e0       ?ReadUntil@ReaderAscii@OpenHome@@UAE?AVBrn@2@E@Z 004297e0 f   libohNetCore:Ascii.obj
 0001:00028850       ??0WriterAscii@OpenHome@@QAE@AAVIWriter@1@@Z 00429850 f   libohNetCore:Ascii.obj
 0001:000288d0       ?WriteSpace@WriterAscii@OpenHome@@UAEXXZ 004298d0 f   libohNetCore:Ascii.obj
 0001:00028910       ?WriteNewline@WriterAscii@OpenHome@@UAEXXZ 00429910 f   libohNetCore:Ascii.obj
 0001:00028950       ?WriteTab@WriterAscii@OpenHome@@UAEXXZ 00429950 f   libohNetCore:Ascii.obj
 0001:00028990       ?WriteInt@WriterAscii@OpenHome@@UAEXH@Z 00429990 f   libohNetCore:Ascii.obj
 0001:00028a70       ?WriteIntPadded@WriterAscii@OpenHome@@UAEXH@Z 00429a70 f   libohNetCore:Ascii.obj
 0001:00028b70       ?WriteUint@WriterAscii@OpenHome@@UAEXI@Z 00429b70 f   libohNetCore:Ascii.obj
 0001:00028c50       ?WriteUintPadded@WriterAscii@OpenHome@@UAEXI@Z 00429c50 f   libohNetCore:Ascii.obj
 0001:00028d50       ?WriteInt64@WriterAscii@OpenHome@@UAEX_J@Z 00429d50 f   libohNetCore:Ascii.obj
 0001:00028e30       ?WriteUint64@WriterAscii@OpenHome@@UAEX_K@Z 00429e30 f   libohNetCore:Ascii.obj
 0001:00028f10       ?WriteHex@WriterAscii@OpenHome@@UAEXI@Z 00429f10 f   libohNetCore:Ascii.obj
 0001:00029000       ?WriteHex@WriterAscii@OpenHome@@UAEXE@Z 0042a000 f   libohNetCore:Ascii.obj
 0001:000290f0       ?WriteHexPrefix@WriterAscii@OpenHome@@UAEXXZ 0042a0f0 f   libohNetCore:Ascii.obj
 0001:00029130       ?Write@WriterAscii@OpenHome@@UAEXE@Z 0042a130 f   libohNetCore:Ascii.obj
 0001:00029180       ?Write@WriterAscii@OpenHome@@UAEXABVBrx@2@@Z 0042a180 f   libohNetCore:Ascii.obj
 0001:000291c0       ?WriteFlush@WriterAscii@OpenHome@@UAEXXZ 0042a1c0 f   libohNetCore:Ascii.obj
 0001:00029200       ?StreamWriteUint@Ascii@OpenHome@@SGXAAVIWriter@2@I@Z 0042a200 f   libohNetCore:Ascii.obj
 0001:000292e0       ?StreamWriteInt@Ascii@OpenHome@@SGXAAVIWriter@2@H@Z 0042a2e0 f   libohNetCore:Ascii.obj
 0001:000293c0       ??ABrx@OpenHome@@QBEABEI@Z 0042a3c0 f i libohNetCore:Ascii.obj
 0001:000293f0       ??0AsciiError@OpenHome@@QAE@PBDI@Z 0042a3f0 f i libohNetCore:Ascii.obj
 0001:00029430       ??1AsciiError@OpenHome@@QAE@XZ 0042a430 f i libohNetCore:Ascii.obj
 0001:00029460       ?Append@Bwx@OpenHome@@QAEXD@Z 0042a460 f i libohNetCore:Ascii.obj
 0001:00029490       ?Append@Bwx@OpenHome@@QAEXE@Z 0042a490 f i libohNetCore:Ascii.obj
 0001:000294c0       ??ABwx@OpenHome@@QAEAAEI@Z 0042a4c0 f i libohNetCore:Ascii.obj
 0001:000294f0       ??0Brn@OpenHome@@QAE@ABV01@@Z 0042a4f0 f i libohNetCore:Ascii.obj
 0001:00029580       ??0Brx@OpenHome@@IAE@ABV01@@Z 0042a580 f i libohNetCore:Ascii.obj
 0001:000295c0       ??0ReaderError@OpenHome@@QAE@PBDI@Z 0042a5c0 f i libohNetCore:Ascii.obj
 0001:00029600       ??1ReaderError@OpenHome@@QAE@XZ 0042a600 f i libohNetCore:Ascii.obj
 0001:00029630       ??1IReader@OpenHome@@UAE@XZ 0042a630 f i libohNetCore:Ascii.obj
 0001:00029650       ??_GIReader@OpenHome@@UAEPAXI@Z 0042a650 f i libohNetCore:Ascii.obj
 0001:00029650       ??_EIReader@OpenHome@@UAEPAXI@Z 0042a650 f i libohNetCore:Ascii.obj
 0001:00029690       ??_EReaderAscii@OpenHome@@UAEPAXI@Z 0042a690 f i libohNetCore:Ascii.obj
 0001:00029690       ??_GReaderAscii@OpenHome@@UAEPAXI@Z 0042a690 f i libohNetCore:Ascii.obj
 0001:000296d0       ??0IReader@OpenHome@@QAE@XZ 0042a6d0 f i libohNetCore:Ascii.obj
 0001:000296f0       ??1ReaderAscii@OpenHome@@UAE@XZ 0042a6f0 f i libohNetCore:Ascii.obj
 0001:00029720       ??1IWriterAscii@OpenHome@@UAE@XZ 0042a720 f i libohNetCore:Ascii.obj
 0001:00029750       ??1IWriter@OpenHome@@UAE@XZ 0042a750 f i libohNetCore:Ascii.obj
 0001:00029770       ??_GIWriter@OpenHome@@UAEPAXI@Z 0042a770 f i libohNetCore:Ascii.obj
 0001:00029770       ??_EIWriter@OpenHome@@UAEPAXI@Z 0042a770 f i libohNetCore:Ascii.obj
 0001:000297b0       ??_EIWriterAscii@OpenHome@@UAEPAXI@Z 0042a7b0 f i libohNetCore:Ascii.obj
 0001:000297b0       ??_GIWriterAscii@OpenHome@@UAEPAXI@Z 0042a7b0 f i libohNetCore:Ascii.obj
 0001:000297f0       ??_GWriterAscii@OpenHome@@UAEPAXI@Z 0042a7f0 f i libohNetCore:Ascii.obj
 0001:000297f0       ??_EWriterAscii@OpenHome@@UAEPAXI@Z 0042a7f0 f i libohNetCore:Ascii.obj
 0001:00029830       ??0IWriterAscii@OpenHome@@QAE@XZ 0042a830 f i libohNetCore:Ascii.obj
 0001:00029860       ??1WriterAscii@OpenHome@@UAE@XZ 0042a860 f i libohNetCore:Ascii.obj
 0001:00029890       ??0IWriter@OpenHome@@QAE@XZ 0042a890 f i libohNetCore:Ascii.obj
 0001:000298b0       ??1?$Bws@$0L@@OpenHome@@UAE@XZ 0042a8b0 f i libohNetCore:Ascii.obj
 0001:000298e0       ??1?$Bws@$07@OpenHome@@UAE@XZ 0042a8e0 f i libohNetCore:Ascii.obj
 0001:00029910       ??1?$Bws@$01@OpenHome@@UAE@XZ 0042a910 f i libohNetCore:Ascii.obj
 0001:00029940       ??0?$Bws@$0BE@@OpenHome@@QAE@XZ 0042a940 f i libohNetCore:Ascii.obj
 0001:00029980       ??0?$Bws@$0L@@OpenHome@@QAE@XZ 0042a980 f i libohNetCore:Ascii.obj
 0001:000299c0       ?Ptr@?$Bws@$0L@@OpenHome@@UBEPBEXZ 0042a9c0 f i libohNetCore:Ascii.obj
 0001:000299e0       ??0?$Bws@$07@OpenHome@@QAE@XZ 0042a9e0 f i libohNetCore:Ascii.obj
 0001:00029a20       ?Ptr@?$Bws@$07@OpenHome@@UBEPBEXZ 0042aa20 f i libohNetCore:Ascii.obj
 0001:00029a40       ??0?$Bws@$01@OpenHome@@QAE@XZ 0042aa40 f i libohNetCore:Ascii.obj
 0001:00029a80       ?Ptr@?$Bws@$01@OpenHome@@UBEPBEXZ 0042aa80 f i libohNetCore:Ascii.obj
 0001:00029aa0       ??_E?$Bws@$0L@@OpenHome@@UAEPAXI@Z 0042aaa0 f i libohNetCore:Ascii.obj
 0001:00029aa0       ??_G?$Bws@$0L@@OpenHome@@UAEPAXI@Z 0042aaa0 f i libohNetCore:Ascii.obj
 0001:00029ae0       ??_G?$Bws@$07@OpenHome@@UAEPAXI@Z 0042aae0 f i libohNetCore:Ascii.obj
 0001:00029ae0       ??_E?$Bws@$07@OpenHome@@UAEPAXI@Z 0042aae0 f i libohNetCore:Ascii.obj
 0001:00029b20       ??_G?$Bws@$01@OpenHome@@UAEPAXI@Z 0042ab20 f i libohNetCore:Ascii.obj
 0001:00029b20       ??_E?$Bws@$01@OpenHome@@UAEPAXI@Z 0042ab20 f i libohNetCore:Ascii.obj
 0001:00029b60       ??0FifoBase@OpenHome@@IAE@I@Z 0042ab60 f   libohNetCore:Fifo.obj
 0001:00029c40       ?Slots@FifoBase@OpenHome@@QBEIXZ 0042ac40 f   libohNetCore:Fifo.obj
 0001:00029c60       ?SlotsFree@FifoBase@OpenHome@@QBEIXZ 0042ac60 f   libohNetCore:Fifo.obj
 0001:00029c80       ?SlotsUsed@FifoBase@OpenHome@@QBEIXZ 0042ac80 f   libohNetCore:Fifo.obj
 0001:00029ca0       ?ReadInterrupt@FifoBase@OpenHome@@QAEX_N@Z 0042aca0 f   libohNetCore:Fifo.obj
 0001:00029ce0       ?WriteOpen@FifoBase@OpenHome@@IAEII@Z 0042ace0 f   libohNetCore:Fifo.obj
 0001:00029d60       ?WriteClose@FifoBase@OpenHome@@IAEXXZ 0042ad60 f   libohNetCore:Fifo.obj
 0001:00029db0       ?ReadOpen@FifoBase@OpenHome@@IAEII@Z 0042adb0 f   libohNetCore:Fifo.obj
 0001:00029eb0       ?ReadClose@FifoBase@OpenHome@@IAEXXZ 0042aeb0 f   libohNetCore:Fifo.obj
 0001:00029ef0       ?DoPeek@FifoBase@OpenHome@@IAEIXZ 0042aef0 f   libohNetCore:Fifo.obj
 0001:00029f10       ??0FifoByte@OpenHome@@QAE@I@Z 0042af10 f   libohNetCore:Fifo.obj
 0001:00029f40       ?Write@FifoByte@OpenHome@@QAEXABVBrx@2@@Z 0042af40 f   libohNetCore:Fifo.obj
 0001:00029fa0       ?Read@FifoByte@OpenHome@@QAEXAAVBwx@2@@Z 0042afa0 f   libohNetCore:Fifo.obj
 0001:00029fe0       ?Read@FifoByte@OpenHome@@QAEXAAVBwx@2@I@Z 0042afe0 f   libohNetCore:Fifo.obj
 0001:0002a050       ??0FifoThresholdBase@OpenHome@@IAE@IAAVFifoThresholdObserver@1@@Z 0042b050 f   libohNetCore:Fifo.obj
 0001:0002a0b0       ?SetThresholdLow@FifoThresholdBase@OpenHome@@QAEXI@Z 0042b0b0 f   libohNetCore:Fifo.obj
 0001:0002a100       ?SetThresholdHigh@FifoThresholdBase@OpenHome@@QAEXI@Z 0042b100 f   libohNetCore:Fifo.obj
 0001:0002a150       ?CheckThresholdHigh@FifoThresholdBase@OpenHome@@IAEXXZ 0042b150 f   libohNetCore:Fifo.obj
 0001:0002a1d0       ?CheckThresholdLow@FifoThresholdBase@OpenHome@@IAEXXZ 0042b1d0 f   libohNetCore:Fifo.obj
 0001:0002a250       ??0FifoLiteBase@OpenHome@@IAE@I@Z 0042b250 f   libohNetCore:Fifo.obj
 0001:0002a2a0       ?Slots@FifoLiteBase@OpenHome@@QBEIXZ 0042b2a0 f   libohNetCore:Fifo.obj
 0001:0002a2c0       ?SlotsFree@FifoLiteBase@OpenHome@@QBEIXZ 0042b2c0 f   libohNetCore:Fifo.obj
 0001:0002a2e0       ?SlotsUsed@FifoLiteBase@OpenHome@@QBEIXZ 0042b2e0 f   libohNetCore:Fifo.obj
 0001:0002a300       ?Write@FifoLiteBase@OpenHome@@IAEIXZ 0042b300 f   libohNetCore:Fifo.obj
 0001:0002a390       ?WriteBack@FifoLiteBase@OpenHome@@IAEIXZ 0042b390 f   libohNetCore:Fifo.obj
 0001:0002a410       ?Read@FifoLiteBase@OpenHome@@IAEIXZ 0042b410 f   libohNetCore:Fifo.obj
 0001:0002a490       ??0FifoReadError@OpenHome@@QAE@PBDI@Z 0042b490 f i libohNetCore:Fifo.obj
 0001:0002a4d0       ??1FifoReadError@OpenHome@@QAE@XZ 0042b4d0 f i libohNetCore:Fifo.obj
 0001:0002a500       ??0?$Fifo@E@OpenHome@@QAE@I@Z 0042b500 f i libohNetCore:Fifo.obj
 0001:0002a590       ?Write@?$Fifo@E@OpenHome@@QAEXE@Z 0042b590 f i libohNetCore:Fifo.obj
 0001:0002a5c0       ?Read@?$Fifo@E@OpenHome@@QAEEXZ 0042b5c0 f i libohNetCore:Fifo.obj
 0001:0002a5f0       ?Write@?$Fifo@E@OpenHome@@QAEXEI@Z 0042b5f0 f i libohNetCore:Fifo.obj
 0001:0002a630       ?Read@?$Fifo@E@OpenHome@@QAEEI@Z 0042b630 f i libohNetCore:Fifo.obj
 0001:0002a680       ??0NetworkAdapter@OpenHome@@QAE@IIPBD@Z 0042b680 f   libohNetCore:OhNet.obj
 0001:0002a720       ??1NetworkAdapter@OpenHome@@AAE@XZ 0042b720 f   libohNetCore:OhNet.obj
 0001:0002a790       ?AddRef@NetworkAdapter@OpenHome@@QAEXXZ 0042b790 f   libohNetCore:OhNet.obj
 0001:0002a7e0       ?RemoveRef@NetworkAdapter@OpenHome@@QAEXXZ 0042b7e0 f   libohNetCore:OhNet.obj
 0001:0002a870       ?Address@NetworkAdapter@OpenHome@@QBEIXZ 0042b870 f   libohNetCore:OhNet.obj
 0001:0002a890       ?Subnet@NetworkAdapter@OpenHome@@QBEIXZ 0042b890 f   libohNetCore:OhNet.obj
 0001:0002a8b0       ?Mask@NetworkAdapter@OpenHome@@QBEIXZ 0042b8b0 f   libohNetCore:OhNet.obj
 0001:0002a8d0       ?ContainsAddress@NetworkAdapter@OpenHome@@QAE_NI@Z 0042b8d0 f   libohNetCore:OhNet.obj
 0001:0002a910       ?Name@NetworkAdapter@OpenHome@@QBEPBDXZ 0042b910 f   libohNetCore:OhNet.obj
 0001:0002a950       ?FullName@NetworkAdapter@OpenHome@@QBEPADXZ 0042b950 f   libohNetCore:OhNet.obj
 0001:0002aab0       ?Log@DefaultLogger@Net@OpenHome@@QAEXPBD@Z 0042bab0 f   libohNetCore:OhNet.obj
 0001:0002ab00       ?LogError@DefaultAsyncHandler@Net@OpenHome@@QAEXAAVIAsync@23@@Z 0042bb00 f   libohNetCore:OhNet.obj
 0001:0002ab60       ?Output@DefaultAsyncHandler@Net@OpenHome@@EAEXPBD0@Z 0042bb60 f   libohNetCore:OhNet.obj
 0001:0002aba0       ?Create@InitialisationParams@Net@OpenHome@@SGPAV123@XZ 0042bba0 f   libohNetCore:OhNet.obj
 0001:0002ac40       ??1InitialisationParams@Net@OpenHome@@QAE@XZ 0042bc40 f   libohNetCore:OhNet.obj
 0001:0002aca0       ?SetLogOutput@InitialisationParams@Net@OpenHome@@QAEXVFunctorMsg@3@@Z 0042bca0 f   libohNetCore:OhNet.obj
 0001:0002acd0       ?SetFatalErrorHandler@InitialisationParams@Net@OpenHome@@QAEXVFunctorMsg@3@@Z 0042bcd0 f   libohNetCore:OhNet.obj
 0001:0002ad30       ?SetAsyncBeginHandler@InitialisationParams@Net@OpenHome@@QAEXVFunctorAsync@23@@Z 0042bd30 f   libohNetCore:OhNet.obj
 0001:0002ad70       ?SetAsyncEndHandler@InitialisationParams@Net@OpenHome@@QAEXVFunctorAsync@23@@Z 0042bd70 f   libohNetCore:OhNet.obj
 0001:0002adb0       ?SetAsyncErrorHandler@InitialisationParams@Net@OpenHome@@QAEXVFunctorAsync@23@@Z 0042bdb0 f   libohNetCore:OhNet.obj
 0001:0002adf0       ?SetSubnetListChangedListener@InitialisationParams@Net@OpenHome@@QAEXVFunctor@3@@Z 0042bdf0 f   libohNetCore:OhNet.obj
 0001:0002ae30       ?SetTcpConnectTimeout@InitialisationParams@Net@OpenHome@@QAEXI@Z 0042be30 f   libohNetCore:OhNet.obj
 0001:0002ae70       ?SetMsearchTime@InitialisationParams@Net@OpenHome@@QAEXI@Z 0042be70 f   libohNetCore:OhNet.obj
 0001:0002aec0       ?SetMsearchTtl@InitialisationParams@Net@OpenHome@@QAEXI@Z 0042bec0 f   libohNetCore:OhNet.obj
 0001:0002af00       ?SetNumEventSessionThreads@InitialisationParams@Net@OpenHome@@QAEXI@Z 0042bf00 f   libohNetCore:OhNet.obj
 0001:0002af50       ?SetNumXmlFetcherThreads@InitialisationParams@Net@OpenHome@@QAEXI@Z 0042bf50 f   libohNetCore:OhNet.obj
 0001:0002afa0       ?SetNumActionInvokerThreads@InitialisationParams@Net@OpenHome@@QAEXI@Z 0042bfa0 f   libohNetCore:OhNet.obj
 0001:0002aff0       ?SetNumInvocations@InitialisationParams@Net@OpenHome@@QAEXI@Z 0042bff0 f   libohNetCore:OhNet.obj
 0001:0002b030       ?SetNumSubscriberThreads@InitialisationParams@Net@OpenHome@@QAEXI@Z 0042c030 f   libohNetCore:OhNet.obj
 0001:0002b080       ?SetPendingSubscriptionTimeout@InitialisationParams@Net@OpenHome@@QAEXI@Z 0042c080 f   libohNetCore:OhNet.obj
 0001:0002b0c0       ?SetFreeExternalCallback@InitialisationParams@Net@OpenHome@@QAEXP6GXPAX@Z@Z 0042c0c0 f   libohNetCore:OhNet.obj
 0001:0002b0e0       ?SetUseLoopbackNetworkAdapter@InitialisationParams@Net@OpenHome@@QAEXXZ 0042c0e0 f   libohNetCore:OhNet.obj
 0001:0002b100       ?SetDvMaxUpdateTime@InitialisationParams@Net@OpenHome@@QAEXI@Z 0042c100 f   libohNetCore:OhNet.obj
 0001:0002b120       ?SetDvNumServerThreads@InitialisationParams@Net@OpenHome@@QAEXI@Z 0042c120 f   libohNetCore:OhNet.obj
 0001:0002b170       ?SetDvNumPublisherThreads@InitialisationParams@Net@OpenHome@@QAEXI@Z 0042c170 f   libohNetCore:OhNet.obj
 0001:0002b1c0       ?SetDvNumWebSocketThreads@InitialisationParams@Net@OpenHome@@QAEXI@Z 0042c1c0 f   libohNetCore:OhNet.obj
 0001:0002b210       ?SetDvWebSocketPort@InitialisationParams@Net@OpenHome@@QAEXI@Z 0042c210 f   libohNetCore:OhNet.obj
 0001:0002b230       ?SetDvEnableBonjour@InitialisationParams@Net@OpenHome@@QAEXXZ 0042c230 f   libohNetCore:OhNet.obj
 0001:0002b250       ?LogOutput@InitialisationParams@Net@OpenHome@@QAEAAVFunctorMsg@3@XZ 0042c250 f   libohNetCore:OhNet.obj
 0001:0002b270       ?FatalErrorHandler@InitialisationParams@Net@OpenHome@@QAEAAVFunctorMsg@3@XZ 0042c270 f   libohNetCore:OhNet.obj
 0001:0002b290       ?AsyncBeginHandler@InitialisationParams@Net@OpenHome@@QAEAAVFunctorAsync@23@XZ 0042c290 f   libohNetCore:OhNet.obj
 0001:0002b2b0       ?AsyncEndHandler@InitialisationParams@Net@OpenHome@@QAEAAVFunctorAsync@23@XZ 0042c2b0 f   libohNetCore:OhNet.obj
 0001:0002b2d0       ?AsyncErrorHandler@InitialisationParams@Net@OpenHome@@QAEAAVFunctorAsync@23@XZ 0042c2d0 f   libohNetCore:OhNet.obj
 0001:0002b2f0       ?SubnetListChangedListener@InitialisationParams@Net@OpenHome@@QAEAAVFunctor@3@XZ 0042c2f0 f   libohNetCore:OhNet.obj
 0001:0002b310       ?TcpConnectTimeoutMs@InitialisationParams@Net@OpenHome@@QBEIXZ 0042c310 f   libohNetCore:OhNet.obj
 0001:0002b330       ?MsearchTimeSecs@InitialisationParams@Net@OpenHome@@QBEIXZ 0042c330 f   libohNetCore:OhNet.obj
 0001:0002b350       ?MsearchTtl@InitialisationParams@Net@OpenHome@@QBEIXZ 0042c350 f   libohNetCore:OhNet.obj
 0001:0002b370       ?NumEventSessionThreads@InitialisationParams@Net@OpenHome@@QBEIXZ 0042c370 f   libohNetCore:OhNet.obj
 0001:0002b390       ?NumXmlFetcherThreads@InitialisationParams@Net@OpenHome@@QBEIXZ 0042c390 f   libohNetCore:OhNet.obj
 0001:0002b3b0       ?NumActionInvokerThreads@InitialisationParams@Net@OpenHome@@QBEIXZ 0042c3b0 f   libohNetCore:OhNet.obj
 0001:0002b3d0       ?NumInvocations@InitialisationParams@Net@OpenHome@@QBEIXZ 0042c3d0 f   libohNetCore:OhNet.obj
 0001:0002b3f0       ?NumSubscriberThreads@InitialisationParams@Net@OpenHome@@QBEIXZ 0042c3f0 f   libohNetCore:OhNet.obj
 0001:0002b410       ?PendingSubscriptionTimeoutMs@InitialisationParams@Net@OpenHome@@QBEIXZ 0042c410 f   libohNetCore:OhNet.obj
 0001:0002b430       ?FreeExternal@InitialisationParams@Net@OpenHome@@QBEP6GXPAX@ZXZ 0042c430 f   libohNetCore:OhNet.obj
 0001:0002b450       ?UseLoopbackNetworkAdapter@InitialisationParams@Net@OpenHome@@QBE_NXZ 0042c450 f   libohNetCore:OhNet.obj
 0001:0002b470       ?DvMaxUpdateTimeSecs@InitialisationParams@Net@OpenHome@@QBEIXZ 0042c470 f   libohNetCore:OhNet.obj
 0001:0002b490       ?DvNumServerThreads@InitialisationParams@Net@OpenHome@@QBEIXZ 0042c490 f   libohNetCore:OhNet.obj
 0001:0002b4b0       ?DvNumPublisherThreads@InitialisationParams@Net@OpenHome@@QBEIXZ 0042c4b0 f   libohNetCore:OhNet.obj
 0001:0002b4d0       ?DvNumWebSocketThreads@InitialisationParams@Net@OpenHome@@QBEIXZ 0042c4d0 f   libohNetCore:OhNet.obj
 0001:0002b4f0       ?DvWebSocketPort@InitialisationParams@Net@OpenHome@@QBEIXZ 0042c4f0 f   libohNetCore:OhNet.obj
 0001:0002b510       ?DvIsBonjourEnabled@InitialisationParams@Net@OpenHome@@QBE_NXZ 0042c510 f   libohNetCore:OhNet.obj
 0001:0002b530       ??0InitialisationParams@Net@OpenHome@@AAE@XZ 0042c530 f   libohNetCore:OhNet.obj
 0001:0002b7a0       ?FatalErrorHandlerDefault@InitialisationParams@Net@OpenHome@@AAEXPBD@Z 0042c7a0 f   libohNetCore:OhNet.obj
 0001:0002b7d0       ?Initialise@UpnpLibrary@Net@OpenHome@@SGXPAVInitialisationParams@23@@Z 0042c7d0 f   libohNetCore:OhNet.obj
 0001:0002b8d0       ?InitialiseMinimal@UpnpLibrary@Net@OpenHome@@SGXPAVInitialisationParams@23@@Z 0042c8d0 f   libohNetCore:OhNet.obj
 0001:0002b970       ?Close@UpnpLibrary@Net@OpenHome@@SGXXZ 0042c970 f   libohNetCore:OhNet.obj
 0001:0002b990       ?CreateSubnetList@UpnpLibrary@Net@OpenHome@@SGPAV?$vector@PAVNetworkAdapter@OpenHome@@V?$allocator@PAVNetworkAdapter@OpenHome@@@std@@@std@@XZ 0042c990 f   libohNetCore:OhNet.obj
 0001:0002b9b0       ?DestroySubnetList@UpnpLibrary@Net@OpenHome@@SGXPAV?$vector@PAVNetworkAdapter@OpenHome@@V?$allocator@PAVNetworkAdapter@OpenHome@@@std@@@std@@@Z 0042c9b0 f   libohNetCore:OhNet.obj
 0001:0002ba40       ?SetCurrentSubnet@UpnpLibrary@Net@OpenHome@@SGXI@Z 0042ca40 f   libohNetCore:OhNet.obj
 0001:0002ba60       ?CurrentSubnetAdapter@UpnpLibrary@Net@OpenHome@@SGPAVNetworkAdapter@3@XZ 0042ca60 f   libohNetCore:OhNet.obj
 0001:0002ba80       ??_GNetworkAdapter@OpenHome@@AAEPAXI@Z 0042ca80 f i libohNetCore:OhNet.obj
 0001:0002bac0       ??BFunctorMsg@OpenHome@@QBE_NXZ 0042cac0 f i libohNetCore:OhNet.obj
 0001:0002bb00       ??0FunctorMsg@OpenHome@@QAE@XZ 0042cb00 f i libohNetCore:OhNet.obj
 0001:0002bb30       ??0DefaultAsyncHandler@Net@OpenHome@@QAE@XZ 0042cb30 f i libohNetCore:OhNet.obj
 0001:0002bb60       ??0IAsyncOutput@Net@OpenHome@@QAE@XZ 0042cb60 f i libohNetCore:OhNet.obj
 0001:0002bb80       ??0bad_alloc@std@@QAE@XZ   0042cb80 f i libohNetCore:OhNet.obj
 0001:0002bbd0       ?Create@Os@OpenHome@@SGHXZ 0042cbd0 f i libohNetCore:OhNet.obj
 0001:0002bbf0       ?Destroy@Os@OpenHome@@SGXXZ 0042cbf0 f i libohNetCore:OhNet.obj
 0001:0002bc10       ??_G?$vector@PAVNetworkAdapter@OpenHome@@V?$allocator@PAVNetworkAdapter@OpenHome@@@std@@@std@@QAEPAXI@Z 0042cc10 f i libohNetCore:OhNet.obj
 0001:0002bc50       ??1?$vector@PAVNetworkAdapter@OpenHome@@V?$allocator@PAVNetworkAdapter@OpenHome@@@std@@@std@@QAE@XZ 0042cc50 f i libohNetCore:OhNet.obj
 0001:0002bcc0       ?size@?$vector@PAVNetworkAdapter@OpenHome@@V?$allocator@PAVNetworkAdapter@OpenHome@@@std@@@std@@QBEIXZ 0042ccc0 f i libohNetCore:OhNet.obj
 0001:0002bcf0       ??A?$vector@PAVNetworkAdapter@OpenHome@@V?$allocator@PAVNetworkAdapter@OpenHome@@@std@@@std@@QAEAAPAVNetworkAdapter@OpenHome@@I@Z 0042ccf0 f i libohNetCore:OhNet.obj
 0001:0002bd90       ?_Tidy@?$vector@PAVNetworkAdapter@OpenHome@@V?$allocator@PAVNetworkAdapter@OpenHome@@@std@@@std@@IAEXXZ 0042cd90 f i libohNetCore:OhNet.obj
 0001:0002be20       ??1?$_Vector_val@PAVNetworkAdapter@OpenHome@@V?$allocator@PAVNetworkAdapter@OpenHome@@@std@@@std@@QAE@XZ 0042ce20 f i libohNetCore:OhNet.obj
 0001:0002bf00       ?_Destroy@?$vector@PAVNetworkAdapter@OpenHome@@V?$allocator@PAVNetworkAdapter@OpenHome@@@std@@@std@@IAEXPAPAVNetworkAdapter@OpenHome@@0@Z 0042cf00 f i libohNetCore:OhNet.obj
 0001:0002bf40       ?deallocate@?$allocator@PAVNetworkAdapter@OpenHome@@@std@@QAEXPAPAVNetworkAdapter@OpenHome@@I@Z 0042cf40 f i libohNetCore:OhNet.obj
 0001:0002bf70       ??$MakeFunctorMsg@VDefaultLogger@Net@OpenHome@@V123@@OpenHome@@YG?AV?$MemberTranslatorMsg@VDefaultLogger@Net@OpenHome@@P8123@AEXPBD@Z@0@AAVDefaultLogger@Net@0@ABQ8230@AEXPBD@Z@Z 0042cf70 f i libohNetCore:OhNet.obj
 0001:0002bfa0       ??$MakeFunctorAsync@VDefaultAsyncHandler@Net@OpenHome@@V123@@Net@OpenHome@@YG?AV?$MemberTranslatorAsync@VDefaultAsyncHandler@Net@OpenHome@@P8123@AEXAAVIAsync@23@@Z@01@AAVDefaultAsyncHandler@01@ABQ8301@AEXAAVIAsync@01@@Z@Z 0042cfa0 f i libohNetCore:OhNet.obj
 0001:0002bfd0       ??$MakeFunctorMsg@VInitialisationParams@Net@OpenHome@@V123@@OpenHome@@YG?AV?$MemberTranslatorMsg@VInitialisationParams@Net@OpenHome@@P8123@AEXPBD@Z@0@AAVInitialisationParams@Net@0@ABQ8230@AEXPBD@Z@Z 0042cfd0 f i libohNetCore:OhNet.obj
 0001:0002c000       ??$?0PAVNetworkAdapter@OpenHome@@@?$allocator@U_Container_proxy@std@@@std@@QAE@ABV?$allocator@PAVNetworkAdapter@OpenHome@@@1@@Z 0042d000 f i libohNetCore:OhNet.obj
 0001:0002c020       ??$_Destroy_range@V?$allocator@PAVNetworkAdapter@OpenHome@@@std@@@std@@YGXPAPAVNetworkAdapter@OpenHome@@0AAV?$allocator@PAVNetworkAdapter@OpenHome@@@0@@Z 0042d020 f i libohNetCore:OhNet.obj
 0001:0002c070       ??0?$MemberTranslatorMsg@VDefaultLogger@Net@OpenHome@@P8123@AEXPBD@Z@OpenHome@@QAE@AAVDefaultLogger@Net@1@ABQ8231@AEXPBD@Z@Z 0042d070 f i libohNetCore:OhNet.obj
 0001:0002c0b0       ??0?$MemberTranslatorAsync@VDefaultAsyncHandler@Net@OpenHome@@P8123@AEXAAVIAsync@23@@Z@Net@OpenHome@@QAE@AAVDefaultAsyncHandler@12@ABQ8312@AEXAAVIAsync@12@@Z@Z 0042d0b0 f i libohNetCore:OhNet.obj
 0001:0002c0f0       ??0?$MemberTranslatorMsg@VInitialisationParams@Net@OpenHome@@P8123@AEXPBD@Z@OpenHome@@QAE@AAVInitialisationParams@Net@1@ABQ8231@AEXPBD@Z@Z 0042d0f0 f i libohNetCore:OhNet.obj
 0001:0002c130       ?Thunk@?$MemberTranslatorMsg@VDefaultLogger@Net@OpenHome@@P8123@AEXPBD@Z@OpenHome@@SGXABVFunctorMsg@2@PBD@Z 0042d130 f i libohNetCore:OhNet.obj
 0001:0002c180       ?Thunk@?$MemberTranslatorAsync@VDefaultAsyncHandler@Net@OpenHome@@P8123@AEXAAVIAsync@23@@Z@Net@OpenHome@@SGXABVFunctorAsync@23@AAVIAsync@23@@Z 0042d180 f i libohNetCore:OhNet.obj
 0001:0002c1d0       ?Thunk@?$MemberTranslatorMsg@VInitialisationParams@Net@OpenHome@@P8123@AEXPBD@Z@OpenHome@@SGXABVFunctorMsg@2@PBD@Z 0042d1d0 f i libohNetCore:OhNet.obj
 0001:0002c220       ??$_Ptr_cat@PAVNetworkAdapter@OpenHome@@PAV12@@std@@YG?AU_Scalar_ptr_iterator_tag@0@PAPAVNetworkAdapter@OpenHome@@0@Z 0042d220 f i libohNetCore:OhNet.obj
 0001:0002c280       ??$_Destroy_range@V?$allocator@PAVNetworkAdapter@OpenHome@@@std@@@std@@YGXPAPAVNetworkAdapter@OpenHome@@0AAV?$allocator@PAVNetworkAdapter@OpenHome@@@0@U_Scalar_ptr_iterator_tag@0@@Z 0042d280 f i libohNetCore:OhNet.obj
 0001:0002c290       ??0Semaphore@OpenHome@@QAE@PBDI@Z 0042d290 f   libohNetCore:Thread.obj
 0001:0002c310       ??1Semaphore@OpenHome@@UAE@XZ 0042d310 f   libohNetCore:Thread.obj
 0001:0002c350       ?Wait@Semaphore@OpenHome@@QAEXXZ 0042d350 f   libohNetCore:Thread.obj
 0001:0002c380       ?Wait@Semaphore@OpenHome@@QAEXI@Z 0042d380 f   libohNetCore:Thread.obj
 0001:0002c470       ?Clear@Semaphore@OpenHome@@QAE_NXZ 0042d470 f   libohNetCore:Thread.obj
 0001:0002c4b0       ?Signal@Semaphore@OpenHome@@QAEXXZ 0042d4b0 f   libohNetCore:Thread.obj
 0001:0002c4e0       ??0Mutex@OpenHome@@QAE@PBD@Z 0042d4e0 f   libohNetCore:Thread.obj
 0001:0002c570       ??1Mutex@OpenHome@@UAE@XZ  0042d570 f   libohNetCore:Thread.obj
 0001:0002c5b0       ?Wait@Mutex@OpenHome@@QAEXXZ 0042d5b0 f   libohNetCore:Thread.obj
 0001:0002c6e0       ?Signal@Mutex@OpenHome@@QAEXXZ 0042d6e0 f   libohNetCore:Thread.obj
 0001:0002c710       ??0SemaphoreActive@OpenHome@@QAE@AAVSemaphore@1@@Z 0042d710 f   libohNetCore:Thread.obj
 0001:0002c760       ??0SemaphoreActive@OpenHome@@QAE@AAVThread@1@@Z 0042d760 f   libohNetCore:Thread.obj
 0001:0002c7b0       ?Signal@SemaphoreActive@OpenHome@@QAEXXZ 0042d7b0 f   libohNetCore:Thread.obj
 0001:0002c800       ?Signalled@SemaphoreActive@OpenHome@@QAE_NXZ 0042d800 f   libohNetCore:Thread.obj
 0001:0002c880       ?ConsumeOne@SemaphoreActive@OpenHome@@QAEXXZ 0042d880 f   libohNetCore:Thread.obj
 0001:0002c8e0       ?ConsumeAll@SemaphoreActive@OpenHome@@QAEXXZ 0042d8e0 f   libohNetCore:Thread.obj
 0001:0002c930       ??0Thread@OpenHome@@IAE@PBDII@Z 0042d930 f   libohNetCore:Thread.obj
 0001:0002ca50       ??1Thread@OpenHome@@UAE@XZ 0042da50 f   libohNetCore:Thread.obj
 0001:0002cb30       ?Start@Thread@OpenHome@@QAEXXZ 0042db30 f   libohNetCore:Thread.obj
 0001:0002cb90       ?EntryPoint@Thread@OpenHome@@CGXPAX@Z 0042db90 f   libohNetCore:Thread.obj
 0001:0002cd30       ?Wait@Thread@OpenHome@@QAEXXZ 0042dd30 f   libohNetCore:Thread.obj
 0001:0002cd60       ?Signal@Thread@OpenHome@@QAEXXZ 0042dd60 f   libohNetCore:Thread.obj
 0001:0002cd90       ?TryWait@Thread@OpenHome@@QAE_NXZ 0042dd90 f   libohNetCore:Thread.obj
 0001:0002cdc0       ?Sleep@Thread@OpenHome@@SGXI@Z 0042ddc0 f   libohNetCore:Thread.obj
 0001:0002ce90       ?Current@Thread@OpenHome@@SGPAV12@XZ 0042de90 f   libohNetCore:Thread.obj
 0001:0002ceb0       ?SupportsPriorities@Thread@OpenHome@@SG_NXZ 0042deb0 f   libohNetCore:Thread.obj
 0001:0002ced0       ?CheckForKill@Thread@OpenHome@@IBEXXZ 0042ded0 f   libohNetCore:Thread.obj
 0001:0002cfa0       ?Kill@Thread@OpenHome@@QAEXXZ 0042dfa0 f   libohNetCore:Thread.obj
 0001:0002d010       ?Name@Thread@OpenHome@@QBEABVBrx@2@XZ 0042e010 f   libohNetCore:Thread.obj
 0001:0002d030       ??8Thread@OpenHome@@QBE_NABV01@@Z 0042e030 f   libohNetCore:Thread.obj
 0001:0002d060       ??9Thread@OpenHome@@QBE_NABV01@@Z 0042e060 f   libohNetCore:Thread.obj
 0001:0002d0a0       ?Join@Thread@OpenHome@@IAEXXZ 0042e0a0 f   libohNetCore:Thread.obj
 0001:0002d100       ??0ThreadFunctor@OpenHome@@QAE@PBDVFunctor@1@II@Z 0042e100 f   libohNetCore:Thread.obj
 0001:0002d1b0       ??1ThreadFunctor@OpenHome@@UAE@XZ 0042e1b0 f   libohNetCore:Thread.obj
 0001:0002d230       ?Run@ThreadFunctor@OpenHome@@EAEXXZ 0042e230 f   libohNetCore:Thread.obj
 0001:0002d270       ??0AutoMutex@OpenHome@@QAE@AAVMutex@1@@Z 0042e270 f   libohNetCore:Thread.obj
 0001:0002d2b0       ??1AutoMutex@OpenHome@@QAE@XZ 0042e2b0 f   libohNetCore:Thread.obj
 0001:0002d2e0       ??0AtomicInt@OpenHome@@QAE@H@Z 0042e2e0 f   libohNetCore:Thread.obj
 0001:0002d320       ??0AtomicInt@OpenHome@@QAE@XZ 0042e320 f   libohNetCore:Thread.obj
 0001:0002d350       ?Inc@AtomicInt@OpenHome@@QAEHXZ 0042e350 f   libohNetCore:Thread.obj
 0001:0002d3b0       ?Dec@AtomicInt@OpenHome@@QAEHXZ 0042e3b0 f   libohNetCore:Thread.obj
 0001:0002d410       ?SemaphoreCreate@Os@OpenHome@@SGPAXPBDI@Z 0042e410 f i libohNetCore:Thread.obj
 0001:0002d430       ??_GSemaphore@OpenHome@@UAEPAXI@Z 0042e430 f i libohNetCore:Thread.obj
 0001:0002d430       ??_ESemaphore@OpenHome@@UAEPAXI@Z 0042e430 f i libohNetCore:Thread.obj
 0001:0002d470       ?SemaphoreDestroy@Os@OpenHome@@SGXPAX@Z 0042e470 f i libohNetCore:Thread.obj
 0001:0002d490       ?SemaphoreWait@Os@OpenHome@@SGXPAX@Z 0042e490 f i libohNetCore:Thread.obj
 0001:0002d4e0       ??0Timeout@OpenHome@@QAE@PBDI@Z 0042e4e0 f i libohNetCore:Thread.obj
 0001:0002d520       ?SemaphoreTimedWait@Os@OpenHome@@SG_NPAXI@Z 0042e520 f i libohNetCore:Thread.obj
 0001:0002d570       ??1Timeout@OpenHome@@QAE@XZ 0042e570 f i libohNetCore:Thread.obj
 0001:0002d5a0       ?SemaphoreClear@Os@OpenHome@@SG_NPAX@Z 0042e5a0 f i libohNetCore:Thread.obj
 0001:0002d5d0       ?SemaphoreSignal@Os@OpenHome@@SGXPAX@Z 0042e5d0 f i libohNetCore:Thread.obj
 0001:0002d620       ??_EMutex@OpenHome@@UAEPAXI@Z 0042e620 f i libohNetCore:Thread.obj
 0001:0002d6a0       ?MutexCreate@Os@OpenHome@@SGPAXPBD@Z 0042e6a0 f i libohNetCore:Thread.obj
 0001:0002d6c0       ?MutexDestroy@Os@OpenHome@@SGXPAX@Z 0042e6c0 f i libohNetCore:Thread.obj
 0001:0002d6e0       ?MutexLock@Os@OpenHome@@SGHPAX@Z 0042e6e0 f i libohNetCore:Thread.obj
 0001:0002d710       ?MutexUnlock@Os@OpenHome@@SGXPAX@Z 0042e710 f i libohNetCore:Thread.obj
 0001:0002d760       ??_EThread@OpenHome@@UAEPAXI@Z 0042e760 f i libohNetCore:Thread.obj
 0001:0002d760       ??_GThread@OpenHome@@UAEPAXI@Z 0042e760 f i libohNetCore:Thread.obj
 0001:0002d7a0       ??1?$Bws@$04@OpenHome@@UAE@XZ 0042e7a0 f i libohNetCore:Thread.obj
 0001:0002d7d0       ?ThreadDestroy@Os@OpenHome@@SGXPAX@Z 0042e7d0 f i libohNetCore:Thread.obj
 0001:0002d7f0       ?ThreadCreate@Os@OpenHome@@SGPAXPBDIIP6GXPAX@Z1@Z 0042e7f0 f i libohNetCore:Thread.obj
 0001:0002d820       ?ThreadTls@Os@OpenHome@@SGPAXXZ 0042e820 f i libohNetCore:Thread.obj
 0001:0002d840       ?ThreadSupportsPriorities@Os@OpenHome@@SG_NXZ 0042e840 f i libohNetCore:Thread.obj
 0001:0002d860       ??_GThreadFunctor@OpenHome@@UAEPAXI@Z 0042e860 f i libohNetCore:Thread.obj
 0001:0002d860       ??_EThreadFunctor@OpenHome@@UAEPAXI@Z 0042e860 f i libohNetCore:Thread.obj
 0001:0002d8a0       ??RFunctor@OpenHome@@QBEXXZ 0042e8a0 f i libohNetCore:Thread.obj
 0001:0002d8e0       ??0?$Bws@$04@OpenHome@@QAE@XZ 0042e8e0 f i libohNetCore:Thread.obj
 0001:0002d920       ?Ptr@?$Bws@$04@OpenHome@@UBEPBEXZ 0042e920 f i libohNetCore:Thread.obj
 0001:0002d940       ??_E?$Bws@$04@OpenHome@@UAEPAXI@Z 0042e940 f i libohNetCore:Thread.obj
 0001:0002d940       ??_G?$Bws@$04@OpenHome@@UAEPAXI@Z 0042e940 f i libohNetCore:Thread.obj
 0001:0002d980       ?Udn@CpDevice@Net@OpenHome@@QBEABVBrx@3@XZ 0042e980 f   libohNetCore:CpDeviceCore.obj
 0001:0002d9b0       ??8CpDevice@Net@OpenHome@@QBE_NABV012@@Z 0042e9b0 f   libohNetCore:CpDeviceCore.obj
 0001:0002d9e0       ??9CpDevice@Net@OpenHome@@QBE_NABV012@@Z 0042e9e0 f   libohNetCore:CpDeviceCore.obj
 0001:0002da10       ?AddRef@CpDevice@Net@OpenHome@@QAEXXZ 0042ea10 f   libohNetCore:CpDeviceCore.obj
 0001:0002da50       ?RemoveRef@CpDevice@Net@OpenHome@@QAEXXZ 0042ea50 f   libohNetCore:CpDeviceCore.obj
 0001:0002dae0       ?GetAttribute@CpDevice@Net@OpenHome@@QBE_NPBDAAVBrh@3@@Z 0042eae0 f   libohNetCore:CpDeviceCore.obj
 0001:0002db30       ?Device@CpDevice@Net@OpenHome@@QAEAAVCpiDevice@23@XZ 0042eb30 f   libohNetCore:CpDeviceCore.obj
 0001:0002db50       ??0CpDevice@Net@OpenHome@@QAE@AAVCpiDevice@12@@Z 0042eb50 f   libohNetCore:CpDeviceCore.obj
 0001:0002dba0       ??1CpDevice@Net@OpenHome@@MAE@XZ 0042eba0 f   libohNetCore:CpDeviceCore.obj
 0001:0002dbc0       ??1CpDeviceList@Net@OpenHome@@QAE@XZ 0042ebc0 f   libohNetCore:CpDeviceCore.obj
 0001:0002dd30       ?Refresh@CpDeviceList@Net@OpenHome@@QAEXXZ 0042ed30 f   libohNetCore:CpDeviceCore.obj
 0001:0002dd70       ??0CpDeviceList@Net@OpenHome@@IAE@VFunctorCpDevice@12@0@Z 0042ed70 f   libohNetCore:CpDeviceCore.obj
 0001:0002de90       ?GetAddedFunctor@CpDeviceList@Net@OpenHome@@IAEXAAVFunctorCpiDevice@23@@Z 0042ee90 f   libohNetCore:CpDeviceCore.obj
 0001:0002df00       ?GetRemovedFunctor@CpDeviceList@Net@OpenHome@@IAEXAAVFunctorCpiDevice@23@@Z 0042ef00 f   libohNetCore:CpDeviceCore.obj
 0001:0002df70       ?Added@CpDeviceList@Net@OpenHome@@AAEXAAVCpiDevice@23@@Z 0042ef70 f   libohNetCore:CpDeviceCore.obj
 0001:0002e0d0       ?Removed@CpDeviceList@Net@OpenHome@@AAEXAAVCpiDevice@23@@Z 0042f0d0 f   libohNetCore:CpDeviceCore.obj
 0001:0002e240       ??_GCpDevice@Net@OpenHome@@MAEPAXI@Z 0042f240 f i libohNetCore:CpDeviceCore.obj
 0001:0002e240       ??_ECpDevice@Net@OpenHome@@MAEPAXI@Z 0042f240 f i libohNetCore:CpDeviceCore.obj
 0001:0002e280       ??1?$map@VBrn@OpenHome@@PAVCpDevice@Net@2@VBufferCmp@2@V?$allocator@U?$pair@$$CBVBrn@OpenHome@@PAVCpDevice@Net@2@@std@@@std@@@std@@QAE@XZ 0042f280 f i libohNetCore:CpDeviceCore.obj
 0001:0002e2b0       ??1?$_Tree_iterator@V?$_Tree_val@V?$_Tmap_traits@VBrn@OpenHome@@PAVCpDevice@Net@2@VBufferCmp@2@V?$allocator@U?$pair@$$CBVBrn@OpenHome@@PAVCpDevice@Net@2@@std@@@std@@$0A@@std@@@std@@@std@@QAE@XZ 0042f2b0 f i libohNetCore:CpDeviceCore.obj
 0001:0002e2e0       ??1?$_Tree_const_iterator@V?$_Tree_val@V?$_Tmap_traits@VBrn@OpenHome@@PAVCpDevice@Net@2@VBufferCmp@2@V?$allocator@U?$pair@$$CBVBrn@OpenHome@@PAVCpDevice@Net@2@@std@@@std@@$0A@@std@@@std@@@std@@QAE@XZ 0042f2e0 f i libohNetCore:CpDeviceCore.obj
 0001:0002e310       ??1?$_Tree_unchecked_const_iterator@V?$_Tree_val@V?$_Tmap_traits@VBrn@OpenHome@@PAVCpDevice@Net@2@VBufferCmp@2@V?$allocator@U?$pair@$$CBVBrn@OpenHome@@PAVCpDevice@Net@2@@std@@@std@@$0A@@std@@@std@@U_Iterator_base12@2@@std@@QAE@XZ 0042f310 f i libohNetCore:CpDeviceCore.obj
 0001:0002e340       ??1?$_Iterator012@Ubidirectional_iterator_tag@std@@U?$pair@$$CBVBrn@OpenHome@@PAVCpDevice@Net@2@@2@HPBU32@ABU32@U_Iterator_base12@2@@std@@QAE@XZ 0042f340 f i libohNetCore:CpDeviceCore.obj
 0001:0002e370       ??BFunctorCpDevice@Net@OpenHome@@QBE_NXZ 0042f370 f i libohNetCore:CpDeviceCore.obj
 0001:0002e390       ??0Brn@OpenHome@@QAE@ABVBrx@1@@Z 0042f390 f i libohNetCore:CpDeviceCore.obj
 0001:0002e420       ??RFunctorCpDevice@Net@OpenHome@@QBEXAAVCpDevice@12@@Z 0042f420 f i libohNetCore:CpDeviceCore.obj
 0001:0002e460       ??1?$pair@VBrn@OpenHome@@PAVCpDevice@Net@2@@std@@QAE@XZ 0042f460 f i libohNetCore:CpDeviceCore.obj
 0001:0002e490       ??1?$pair@V?$_Tree_iterator@V?$_Tree_val@V?$_Tmap_traits@VBrn@OpenHome@@PAVCpDevice@Net@2@VBufferCmp@2@V?$allocator@U?$pair@$$CBVBrn@OpenHome@@PAVCpDevice@Net@2@@std@@@std@@$0A@@std@@@std@@@std@@_N@std@@QAE@XZ 0042f490 f i libohNetCore:CpDeviceCore.obj
 0001:0002e4c0       ??1?$_Pair_base@VBrn@OpenHome@@PAVCpDevice@Net@2@@std@@QAE@XZ 0042f4c0 f i libohNetCore:CpDeviceCore.obj
 0001:0002e4f0       ??1?$_Pair_base@V?$_Tree_iterator@V?$_Tree_val@V?$_Tmap_traits@VBrn@OpenHome@@PAVCpDevice@Net@2@VBufferCmp@2@V?$allocator@U?$pair@$$CBVBrn@OpenHome@@PAVCpDevice@Net@2@@std@@@std@@$0A@@std@@@std@@@std@@_N@std@@QAE@XZ 0042f4f0 f i libohNetCore:CpDeviceCore.obj
 0001:0002e520       ??0?$_Tree_const_iterator@V?$_Tree_val@V?$_Tmap_traits@VBrn@OpenHome@@PAVCpDevice@Net@2@VBufferCmp@2@V?$allocator@U?$pair@$$CBVBrn@OpenHome@@PAVCpDevice@Net@2@@std@@@std@@$0A@@std@@@std@@@std@@QAE@ABV01@@Z 0042f520 f i libohNetCore:CpDeviceCore.obj
 0001:0002e550       ??0?$_Tree_unchecked_const_iterator@V?$_Tree_val@V?$_Tmap_traits@VBrn@OpenHome@@PAVCpDevice@Net@2@VBufferCmp@2@V?$allocator@U?$pair@$$CBVBrn@OpenHome@@PAVCpDevice@Net@2@@std@@@std@@$0A@@std@@@std@@U_Iterator_base12@2@@std@@QAE@ABV01@@Z 0042f550 f i libohNetCore:CpDeviceCore.obj
 0001:0002e590       ??0?$_Iterator012@Ubidirectional_iterator_tag@std@@U?$pair@$$CBVBrn@OpenHome@@PAVCpDevice@Net@2@@2@HPBU32@ABU32@U_Iterator_base12@2@@std@@QAE@ABU01@@Z 0042f590 f i libohNetCore:CpDeviceCore.obj
 0001:0002e5c0       ??0?$map@VBrn@OpenHome@@PAVCpDevice@Net@2@VBufferCmp@2@V?$allocator@U?$pair@$$CBVBrn@OpenHome@@PAVCpDevice@Net@2@@std@@@std@@@std@@QAE@XZ 0042f5c0 f i libohNetCore:CpDeviceCore.obj
 0001:0002e610       ??1?$_Tree@V?$_Tmap_traits@VBrn@OpenHome@@PAVCpDevice@Net@2@VBufferCmp@2@V?$allocator@U?$pair@$$CBVBrn@OpenHome@@PAVCpDevice@Net@2@@std@@@std@@$0A@@std@@@std@@QAE@XZ 0042f610 f i libohNetCore:CpDeviceCore.obj
 0001:0002e680       ?begin@?$_Tree@V?$_Tmap_traits@VBrn@OpenHome@@PAVCpDevice@Net@2@VBufferCmp@2@V?$allocator@U?$pair@$$CBVBrn@OpenHome@@PAVCpDevice@Net@2@@std@@@std@@$0A@@std@@@std@@QAE?AV?$_Tree_iterator@V?$_Tree_val@V?$_Tmap_traits@VBrn@OpenHome@@PAVCpDevice@Net@2@VBufferCmp@2@V?$allocator@U?$pair@$$CBVBrn@OpenHome@@PAVCpDevice@Net@2@@std@@@std@@$0A@@std@@@std@@@2@XZ 0042f680 f i libohNetCore:CpDeviceCore.obj
 0001:0002e6e0       ?end@?$_Tree@V?$_Tmap_traits@VBrn@OpenHome@@PAVCpDevice@Net@2@VBufferCmp@2@V?$allocator@U?$pair@$$CBVBrn@OpenHome@@PAVCpDevice@Net@2@@std@@@std@@$0A@@std@@@std@@QAE?AV?$_Tree_iterator@V?$_Tree_val@V?$_Tmap_traits@VBrn@OpenHome@@PAVCpDevice@Net@2@VBufferCmp@2@V?$allocator@U?$pair@$$CBVBrn@OpenHome@@PAVCpDevice@Net@2@@std@@@std@@$0A@@std@@@std@@@2@XZ 0042f6e0 f i libohNetCore:CpDeviceCore.obj
 0001:0002e730       ?erase@?$_Tree@V?$_Tmap_traits@VBrn@OpenHome@@PAVCpDevice@Net@2@VBufferCmp@2@V?$allocator@U?$pair@$$CBVBrn@OpenHome@@PAVCpDevice@Net@2@@std@@@std@@$0A@@std@@@std@@QAE?AV?$_Tree_iterator@V?$_Tree_val@V?$_Tmap_traits@VBrn@OpenHome@@PAVCpDevice@Net@2@VBufferCmp@2@V?$allocator@U?$pair@$$CBVBrn@OpenHome@@PAVCpDevice@Net@2@@std@@@std@@$0A@@std@@@std@@@2@V?$_Tree_const_iterator@V?$_Tree_val@V?$_Tmap_traits@VBrn@OpenHome@@PAVCpDevice@Net@2@VBufferCmp@2@V?$allocator@U?$pair@$$CBVBrn@OpenHome@@PAVCpDevice@Net@2@@std@@@std@@$0A@@std@@@std@@@2@@Z 0042f730 f i libohNetCore:CpDeviceCore.obj
 0001:0002ee40       ?clear@?$_Tree@V?$_Tmap_traits@VBrn@OpenHome@@PAVCpDevice@Net@2@VBufferCmp@2@V?$allocator@U?$pair@$$CBVBrn@OpenHome@@PAVCpDevice@Net@2@@std@@@std@@$0A@@std@@@std@@QAEXXZ 0042fe40 f i libohNetCore:CpDeviceCore.obj
 0001:0002eec0       ?find@?$_Tree@V?$_Tmap_traits@VBrn@OpenHome@@PAVCpDevice@Net@2@VBufferCmp@2@V?$allocator@U?$pair@$$CBVBrn@OpenHome@@PAVCpDevice@Net@2@@std@@@std@@$0A@@std@@@std@@QAE?AV?$_Tree_iterator@V?$_Tree_val@V?$_Tmap_traits@VBrn@OpenHome@@PAVCpDevice@Net@2@VBufferCmp@2@V?$allocator@U?$pair@$$CBVBrn@OpenHome@@PAVCpDevice@Net@2@@std@@@std@@$0A@@std@@@std@@@2@ABVBrn@OpenHome@@@Z 0042fec0 f i libohNetCore:CpDeviceCore.obj
 0001:0002f0a0       ??C?$_Tree_iterator@V?$_Tree_val@V?$_Tmap_traits@VBrn@OpenHome@@PAVCpDevice@Net@2@VBufferCmp@2@V?$allocator@U?$pair@$$CBVBrn@OpenHome@@PAVCpDevice@Net@2@@std@@@std@@$0A@@std@@@std@@@std@@QBEPAU?$pair@$$CBVBrn@OpenHome@@PAVCpDevice@Net@2@@1@XZ 004300a0 f i libohNetCore:CpDeviceCore.obj
 0001:0002f0d0       ??E?$_Tree_iterator@V?$_Tree_val@V?$_Tmap_traits@VBrn@OpenHome@@PAVCpDevice@Net@2@VBufferCmp@2@V?$allocator@U?$pair@$$CBVBrn@OpenHome@@PAVCpDevice@Net@2@@std@@@std@@$0A@@std@@@std@@@std@@QAE?AV01@H@Z 004300d0 f i libohNetCore:CpDeviceCore.obj
 0001:0002f1a0       ??9?$_Tree_const_iterator@V?$_Tree_val@V?$_Tmap_traits@VBrn@OpenHome@@PAVCpDevice@Net@2@VBufferCmp@2@V?$allocator@U?$pair@$$CBVBrn@OpenHome@@PAVCpDevice@Net@2@@std@@@std@@$0A@@std@@@std@@@std@@QBE_NABV01@@Z 004301a0 f i libohNetCore:CpDeviceCore.obj
 0001:0002f1e0       ??0?$_Tree_iterator@V?$_Tree_val@V?$_Tmap_traits@VBrn@OpenHome@@PAVCpDevice@Net@2@VBufferCmp@2@V?$allocator@U?$pair@$$CBVBrn@OpenHome@@PAVCpDevice@Net@2@@std@@@std@@$0A@@std@@@std@@@std@@QAE@ABV01@@Z 004301e0 f i libohNetCore:CpDeviceCore.obj
 0001:0002f210       ??0?$_Tree@V?$_Tmap_traits@VBrn@OpenHome@@PAVCpDevice@Net@2@VBufferCmp@2@V?$allocator@U?$pair@$$CBVBrn@OpenHome@@PAVCpDevice@Net@2@@std@@@std@@$0A@@std@@@std@@QAE@ABVBufferCmp@OpenHome@@ABV?$allocator@U?$pair@$$CBVBrn@OpenHome@@PAVCpDevice@Net@2@@std@@@1@@Z 00430210 f i libohNetCore:CpDeviceCore.obj
 0001:0002f260       ?lower_bound@?$_Tree@V?$_Tmap_traits@VBrn@OpenHome@@PAVCpDevice@Net@2@VBufferCmp@2@V?$allocator@U?$pair@$$CBVBrn@OpenHome@@PAVCpDevice@Net@2@@std@@@std@@$0A@@std@@@std@@QAE?AV?$_Tree_iterator@V?$_Tree_val@V?$_Tmap_traits@VBrn@OpenHome@@PAVCpDevice@Net@2@VBufferCmp@2@V?$allocator@U?$pair@$$CBVBrn@OpenHome@@PAVCpDevice@Net@2@@std@@@std@@$0A@@std@@@std@@@2@ABVBrn@OpenHome@@@Z 00430260 f i libohNetCore:CpDeviceCore.obj
 0001:0002f2c0       ?_Erase@?$_Tree@V?$_Tmap_traits@VBrn@OpenHome@@PAVCpDevice@Net@2@VBufferCmp@2@V?$allocator@U?$pair@$$CBVBrn@OpenHome@@PAVCpDevice@Net@2@@std@@@std@@$0A@@std@@@std@@IAEXPAU_Node@?$_Tree_nod@V?$_Tmap_traits@VBrn@OpenHome@@PAVCpDevice@Net@2@VBufferCmp@2@V?$allocator@U?$pair@$$CBVBrn@OpenHome@@PAVCpDevice@Net@2@@std@@@std@@$0A@@std@@@2@@Z 004302c0 f i libohNetCore:CpDeviceCore.obj
 0001:0002f360       ?_Lmost@?$_Tree@V?$_Tmap_traits@VBrn@OpenHome@@PAVCpDevice@Net@2@VBufferCmp@2@V?$allocator@U?$pair@$$CBVBrn@OpenHome@@PAVCpDevice@Net@2@@std@@@std@@$0A@@std@@@std@@IBEAAPAU_Node@?$_Tree_nod@V?$_Tmap_traits@VBrn@OpenHome@@PAVCpDevice@Net@2@VBufferCmp@2@V?$allocator@U?$pair@$$CBVBrn@OpenHome@@PAVCpDevice@Net@2@@std@@@std@@$0A@@std@@@2@XZ 00430360 f i libohNetCore:CpDeviceCore.obj
 0001:0002f390       ?_Lrotate@?$_Tree@V?$_Tmap_traits@VBrn@OpenHome@@PAVCpDevice@Net@2@VBufferCmp@2@V?$allocator@U?$pair@$$CBVBrn@OpenHome@@PAVCpDevice@Net@2@@std@@@std@@$0A@@std@@@std@@IAEXPAU_Node@?$_Tree_nod@V?$_Tmap_traits@VBrn@OpenHome@@PAVCpDevice@Net@2@VBufferCmp@2@V?$allocator@U?$pair@$$CBVBrn@OpenHome@@PAVCpDevice@Net@2@@std@@@std@@$0A@@std@@@2@@Z 00430390 f i libohNetCore:CpDeviceCore.obj
 0001:0002f4b0       ?_Rmost@?$_Tree@V?$_Tmap_traits@VBrn@OpenHome@@PAVCpDevice@Net@2@VBufferCmp@2@V?$allocator@U?$pair@$$CBVBrn@OpenHome@@PAVCpDevice@Net@2@@std@@@std@@$0A@@std@@@std@@IBEAAPAU_Node@?$_Tree_nod@V?$_Tmap_traits@VBrn@OpenHome@@PAVCpDevice@Net@2@VBufferCmp@2@V?$allocator@U?$pair@$$CBVBrn@OpenHome@@PAVCpDevice@Net@2@@std@@@std@@$0A@@std@@@2@XZ 004304b0 f i libohNetCore:CpDeviceCore.obj
 0001:0002f4e0       ?_Root@?$_Tree@V?$_Tmap_traits@VBrn@OpenHome@@PAVCpDevice@Net@2@VBufferCmp@2@V?$allocator@U?$pair@$$CBVBrn@OpenHome@@PAVCpDevice@Net@2@@std@@@std@@$0A@@std@@@std@@IBEAAPAU_Node@?$_Tree_nod@V?$_Tmap_traits@VBrn@OpenHome@@PAVCpDevice@Net@2@VBufferCmp@2@V?$allocator@U?$pair@$$CBVBrn@OpenHome@@PAVCpDevice@Net@2@@std@@@std@@$0A@@std@@@2@XZ 004304e0 f i libohNetCore:CpDeviceCore.obj
 0001:0002f510       ?_Rrotate@?$_Tree@V?$_Tmap_traits@VBrn@OpenHome@@PAVCpDevice@Net@2@VBufferCmp@2@V?$allocator@U?$pair@$$CBVBrn@OpenHome@@PAVCpDevice@Net@2@@std@@@std@@$0A@@std@@@std@@IAEXPAU_Node@?$_Tree_nod@V?$_Tmap_traits@VBrn@OpenHome@@PAVCpDevice@Net@2@VBufferCmp@2@V?$allocator@U?$pair@$$CBVBrn@OpenHome@@PAVCpDevice@Net@2@@std@@@std@@$0A@@std@@@2@@Z 00430510 f i libohNetCore:CpDeviceCore.obj
 0001:0002f630       ?_Orphan_ptr@?$_Tree@V?$_Tmap_traits@VBrn@OpenHome@@PAVCpDevice@Net@2@VBufferCmp@2@V?$allocator@U?$pair@$$CBVBrn@OpenHome@@PAVCpDevice@Net@2@@std@@@std@@$0A@@std@@@std@@IBEXAAV12@PAU_Node@?$_Tree_nod@V?$_Tmap_traits@VBrn@OpenHome@@PAVCpDevice@Net@2@VBufferCmp@2@V?$allocator@U?$pair@$$CBVBrn@OpenHome@@PAVCpDevice@Net@2@@std@@@std@@$0A@@std@@@2@@Z 00430630 f i libohNetCore:CpDeviceCore.obj
 0001:0002f740       ?_Tidy@?$_Tree@V?$_Tmap_traits@VBrn@OpenHome@@PAVCpDevice@Net@2@VBufferCmp@2@V?$allocator@U?$pair@$$CBVBrn@OpenHome@@PAVCpDevice@Net@2@@std@@@std@@$0A@@std@@@std@@IAEXXZ 00430740 f i libohNetCore:CpDeviceCore.obj
 0001:0002f840       ??1?$_Tree_val@V?$_Tmap_traits@VBrn@OpenHome@@PAVCpDevice@Net@2@VBufferCmp@2@V?$allocator@U?$pair@$$CBVBrn@OpenHome@@PAVCpDevice@Net@2@@std@@@std@@$0A@@std@@@std@@QAE@XZ 00430840 f i libohNetCore:CpDeviceCore.obj
 0001:0002f8b0       ?_Color@?$_Tree_val@V?$_Tmap_traits@VBrn@OpenHome@@PAVCpDevice@Net@2@VBufferCmp@2@V?$allocator@U?$pair@$$CBVBrn@OpenHome@@PAVCpDevice@Net@2@@std@@@std@@$0A@@std@@@std@@SGAADPAU_Node@?$_Tree_nod@V?$_Tmap_traits@VBrn@OpenHome@@PAVCpDevice@Net@2@VBufferCmp@2@V?$allocator@U?$pair@$$CBVBrn@OpenHome@@PAVCpDevice@Net@2@@std@@@std@@$0A@@std@@@2@@Z 004308b0 f i libohNetCore:CpDeviceCore.obj
 0001:0002f8c0       ?_Isnil@?$_Tree_val@V?$_Tmap_traits@VBrn@OpenHome@@PAVCpDevice@Net@2@VBufferCmp@2@V?$allocator@U?$pair@$$CBVBrn@OpenHome@@PAVCpDevice@Net@2@@std@@@std@@$0A@@std@@@std@@SGAADPAU_Node@?$_Tree_nod@V?$_Tmap_traits@VBrn@OpenHome@@PAVCpDevice@Net@2@VBufferCmp@2@V?$allocator@U?$pair@$$CBVBrn@OpenHome@@PAVCpDevice@Net@2@@std@@@std@@$0A@@std@@@2@@Z 004308c0 f i libohNetCore:CpDeviceCore.obj
 0001:0002f8d0       ?_Key@?$_Tree_val@V?$_Tmap_traits@VBrn@OpenHome@@PAVCpDevice@Net@2@VBufferCmp@2@V?$allocator@U?$pair@$$CBVBrn@OpenHome@@PAVCpDevice@Net@2@@std@@@std@@$0A@@std@@@std@@SGAAVBrn@OpenHome@@PAU_Node@?$_Tree_nod@V?$_Tmap_traits@VBrn@OpenHome@@PAVCpDevice@Net@2@VBufferCmp@2@V?$allocator@U?$pair@$$CBVBrn@OpenHome@@PAVCpDevice@Net@2@@std@@@std@@$0A@@std@@@2@@Z 004308d0 f i libohNetCore:CpDeviceCore.obj
 0001:0002f8f0       ?_Left@?$_Tree_val@V?$_Tmap_traits@VBrn@OpenHome@@PAVCpDevice@Net@2@VBufferCmp@2@V?$allocator@U?$pair@$$CBVBrn@OpenHome@@PAVCpDevice@Net@2@@std@@@std@@$0A@@std@@@std@@SGAAPAU_Node@?$_Tree_nod@V?$_Tmap_traits@VBrn@OpenHome@@PAVCpDevice@Net@2@VBufferCmp@2@V?$allocator@U?$pair@$$CBVBrn@OpenHome@@PAVCpDevice@Net@2@@std@@@std@@$0A@@std@@@2@PAU342@@Z 004308f0 f i libohNetCore:CpDeviceCore.obj
 0001:0002f900       ?_Parent@?$_Tree_val@V?$_Tmap_traits@VBrn@OpenHome@@PAVCpDevice@Net@2@VBufferCmp@2@V?$allocator@U?$pair@$$CBVBrn@OpenHome@@PAVCpDevice@Net@2@@std@@@std@@$0A@@std@@@std@@SGAAPAU_Node@?$_Tree_nod@V?$_Tmap_traits@VBrn@OpenHome@@PAVCpDevice@Net@2@VBufferCmp@2@V?$allocator@U?$pair@$$CBVBrn@OpenHome@@PAVCpDevice@Net@2@@std@@@std@@$0A@@std@@@2@PAU342@@Z 00430900 f i libohNetCore:CpDeviceCore.obj
 0001:0002f910       ?_Right@?$_Tree_val@V?$_Tmap_traits@VBrn@OpenHome@@PAVCpDevice@Net@2@VBufferCmp@2@V?$allocator@U?$pair@$$CBVBrn@OpenHome@@PAVCpDevice@Net@2@@std@@@std@@$0A@@std@@@std@@SGAAPAU_Node@?$_Tree_nod@V?$_Tmap_traits@VBrn@OpenHome@@PAVCpDevice@Net@2@VBufferCmp@2@V?$allocator@U?$pair@$$CBVBrn@OpenHome@@PAVCpDevice@Net@2@@std@@@std@@$0A@@std@@@2@PAU342@@Z 00430910 f i libohNetCore:CpDeviceCore.obj
 0001:0002f920       ?_Myval@?$_Tree_val@V?$_Tmap_traits@VBrn@OpenHome@@PAVCpDevice@Net@2@VBufferCmp@2@V?$allocator@U?$pair@$$CBVBrn@OpenHome@@PAVCpDevice@Net@2@@std@@@std@@$0A@@std@@@std@@SGAAU?$pair@$$CBVBrn@OpenHome@@PAVCpDevice@Net@2@@2@PAU_Node@?$_Tree_nod@V?$_Tmap_traits@VBrn@OpenHome@@PAVCpDevice@Net@2@VBufferCmp@2@V?$allocator@U?$pair@$$CBVBrn@OpenHome@@PAVCpDevice@Net@2@@std@@@std@@$0A@@std@@@2@@Z 00430920 f i libohNetCore:CpDeviceCore.obj
 0001:0002f930       ?_Max@?$_Tree_val@V?$_Tmap_traits@VBrn@OpenHome@@PAVCpDevice@Net@2@VBufferCmp@2@V?$allocator@U?$pair@$$CBVBrn@OpenHome@@PAVCpDevice@Net@2@@std@@@std@@$0A@@std@@@std@@SGPAU_Node@?$_Tree_nod@V?$_Tmap_traits@VBrn@OpenHome@@PAVCpDevice@Net@2@VBufferCmp@2@V?$allocator@U?$pair@$$CBVBrn@OpenHome@@PAVCpDevice@Net@2@@std@@@std@@$0A@@std@@@2@PAU342@@Z 00430930 f i libohNetCore:CpDeviceCore.obj
 0001:0002f970       ?_Min@?$_Tree_val@V?$_Tmap_traits@VBrn@OpenHome@@PAVCpDevice@Net@2@VBufferCmp@2@V?$allocator@U?$pair@$$CBVBrn@OpenHome@@PAVCpDevice@Net@2@@std@@@std@@$0A@@std@@@std@@SGPAU_Node@?$_Tree_nod@V?$_Tmap_traits@VBrn@OpenHome@@PAVCpDevice@Net@2@VBufferCmp@2@V?$allocator@U?$pair@$$CBVBrn@OpenHome@@PAVCpDevice@Net@2@@std@@@std@@$0A@@std@@@2@PAU342@@Z 00430970 f i libohNetCore:CpDeviceCore.obj
 0001:0002f9b0       ??0?$allocator@U?$pair@$$CBVBrn@OpenHome@@PAVCpDevice@Net@2@@std@@@std@@QAE@XZ 004309b0 f i libohNetCore:CpDeviceCore.obj
 0001:0002f9d0       ?deallocate@?$allocator@U_Node@?$_Tree_nod@V?$_Tmap_traits@VBrn@OpenHome@@PAVCpDevice@Net@2@VBufferCmp@2@V?$allocator@U?$pair@$$CBVBrn@OpenHome@@PAVCpDevice@Net@2@@std@@@std@@$0A@@std@@@std@@@std@@QAEXPAU_Node@?$_Tree_nod@V?$_Tmap_traits@VBrn@OpenHome@@PAVCpDevice@Net@2@VBufferCmp@2@V?$allocator@U?$pair@$$CBVBrn@OpenHome@@PAVCpDevice@Net@2@@std@@@std@@$0A@@std@@@2@I@Z 004309d0 f i libohNetCore:CpDeviceCore.obj
 0001:0002fa00       ??0?$_Tree_iterator@V?$_Tree_val@V?$_Tmap_traits@VBrn@OpenHome@@PAVCpDevice@Net@2@VBufferCmp@2@V?$allocator@U?$pair@$$CBVBrn@OpenHome@@PAVCpDevice@Net@2@@std@@@std@@$0A@@std@@@std@@@std@@QAE@PAU_Node@?$_Tree_nod@V?$_Tmap_traits@VBrn@OpenHome@@PAVCpDevice@Net@2@VBufferCmp@2@V?$allocator@U?$pair@$$CBVBrn@OpenHome@@PAVCpDevice@Net@2@@std@@@std@@$0A@@std@@@1@PBV?$_Tree_val@V?$_Tmap_traits@VBrn@OpenHome@@PAVCpDevice@Net@2@VBufferCmp@2@V?$allocator@U?$pair@$$CBVBrn@OpenHome@@PAVCpDevice@Net@2@@std@@@std@@$0A@@std@@@1@@Z 00430a00 f i libohNetCore:CpDeviceCore.obj
 0001:0002fa40       ??D?$_Tree_iterator@V?$_Tree_val@V?$_Tmap_traits@VBrn@OpenHome@@PAVCpDevice@Net@2@VBufferCmp@2@V?$allocator@U?$pair@$$CBVBrn@OpenHome@@PAVCpDevice@Net@2@@std@@@std@@$0A@@std@@@std@@@std@@QBEAAU?$pair@$$CBVBrn@OpenHome@@PAVCpDevice@Net@2@@1@XZ 00430a40 f i libohNetCore:CpDeviceCore.obj
 0001:0002fa70       ??E?$_Tree_iterator@V?$_Tree_val@V?$_Tmap_traits@VBrn@OpenHome@@PAVCpDevice@Net@2@VBufferCmp@2@V?$allocator@U?$pair@$$CBVBrn@OpenHome@@PAVCpDevice@Net@2@@std@@@std@@$0A@@std@@@std@@@std@@QAEAAV01@XZ 00430a70 f i libohNetCore:CpDeviceCore.obj
 0001:0002faa0       ??E?$_Tree_const_iterator@V?$_Tree_val@V?$_Tmap_traits@VBrn@OpenHome@@PAVCpDevice@Net@2@VBufferCmp@2@V?$allocator@U?$pair@$$CBVBrn@OpenHome@@PAVCpDevice@Net@2@@std@@@std@@$0A@@std@@@std@@@std@@QAEAAV01@XZ 00430aa0 f i libohNetCore:CpDeviceCore.obj
 0001:0002fb60       ??8?$_Tree_const_iterator@V?$_Tree_val@V?$_Tmap_traits@VBrn@OpenHome@@PAVCpDevice@Net@2@VBufferCmp@2@V?$allocator@U?$pair@$$CBVBrn@OpenHome@@PAVCpDevice@Net@2@@std@@@std@@$0A@@std@@@std@@@std@@QBE_NABV01@@Z 00430b60 f i libohNetCore:CpDeviceCore.obj
 0001:0002fc20       ?_Mynode@?$_Tree_unchecked_const_iterator@V?$_Tree_val@V?$_Tmap_traits@VBrn@OpenHome@@PAVCpDevice@Net@2@VBufferCmp@2@V?$allocator@U?$pair@$$CBVBrn@OpenHome@@PAVCpDevice@Net@2@@std@@@std@@$0A@@std@@@std@@U_Iterator_base12@2@@std@@QBEPAU_Node@?$_Tree_nod@V?$_Tmap_traits@VBrn@OpenHome@@PAVCpDevice@Net@2@VBufferCmp@2@V?$allocator@U?$pair@$$CBVBrn@OpenHome@@PAVCpDevice@Net@2@@std@@@std@@$0A@@std@@@2@XZ 00430c20 f i libohNetCore:CpDeviceCore.obj
 0001:0002fc40       ?erase@?$_Tree@V?$_Tmap_traits@VBrn@OpenHome@@PAVCpDevice@Net@2@VBufferCmp@2@V?$allocator@U?$pair@$$CBVBrn@OpenHome@@PAVCpDevice@Net@2@@std@@@std@@$0A@@std@@@std@@QAE?AV?$_Tree_iterator@V?$_Tree_val@V?$_Tmap_traits@VBrn@OpenHome@@PAVCpDevice@Net@2@VBufferCmp@2@V?$allocator@U?$pair@$$CBVBrn@OpenHome@@PAVCpDevice@Net@2@@std@@@std@@$0A@@std@@@std@@@2@V?$_Tree_const_iterator@V?$_Tree_val@V?$_Tmap_traits@VBrn@OpenHome@@PAVCpDevice@Net@2@VBufferCmp@2@V?$allocator@U?$pair@$$CBVBrn@OpenHome@@PAVCpDevice@Net@2@@std@@@std@@$0A@@std@@@std@@@2@0@Z 00430c40 f i libohNetCore:CpDeviceCore.obj
 0001:0002fe40       ?_Lbound@?$_Tree@V?$_Tmap_traits@VBrn@OpenHome@@PAVCpDevice@Net@2@VBufferCmp@2@V?$allocator@U?$pair@$$CBVBrn@OpenHome@@PAVCpDevice@Net@2@@std@@@std@@$0A@@std@@@std@@IAEPAU_Node@?$_Tree_nod@V?$_Tmap_traits@VBrn@OpenHome@@PAVCpDevice@Net@2@VBufferCmp@2@V?$allocator@U?$pair@$$CBVBrn@OpenHome@@PAVCpDevice@Net@2@@std@@@std@@$0A@@std@@@2@ABVBrn@OpenHome@@@Z 00430e40 f i libohNetCore:CpDeviceCore.obj
 0001:0002fef0       ??0?$_Tree_val@V?$_Tmap_traits@VBrn@OpenHome@@PAVCpDevice@Net@2@VBufferCmp@2@V?$allocator@U?$pair@$$CBVBrn@OpenHome@@PAVCpDevice@Net@2@@std@@@std@@$0A@@std@@@std@@QAE@ABVBufferCmp@OpenHome@@V?$allocator@U?$pair@$$CBVBrn@OpenHome@@PAVCpDevice@Net@2@@std@@@1@@Z 00430ef0 f i libohNetCore:CpDeviceCore.obj
 0001:0002fff0       ??1?$_Tree_nod@V?$_Tmap_traits@VBrn@OpenHome@@PAVCpDevice@Net@2@VBufferCmp@2@V?$allocator@U?$pair@$$CBVBrn@OpenHome@@PAVCpDevice@Net@2@@std@@@std@@$0A@@std@@@std@@QAE@XZ 00430ff0 f i libohNetCore:CpDeviceCore.obj
 0001:000300d0       ??0?$allocator@U?$pair@$$CBVBrn@OpenHome@@PAVCpDevice@Net@2@@std@@@std@@QAE@ABV01@@Z 004310d0 f i libohNetCore:CpDeviceCore.obj
 0001:000300f0       ??0?$_Tree_const_iterator@V?$_Tree_val@V?$_Tmap_traits@VBrn@OpenHome@@PAVCpDevice@Net@2@VBufferCmp@2@V?$allocator@U?$pair@$$CBVBrn@OpenHome@@PAVCpDevice@Net@2@@std@@@std@@$0A@@std@@@std@@@std@@QAE@PAU_Node@?$_Tree_nod@V?$_Tmap_traits@VBrn@OpenHome@@PAVCpDevice@Net@2@VBufferCmp@2@V?$allocator@U?$pair@$$CBVBrn@OpenHome@@PAVCpDevice@Net@2@@std@@@std@@$0A@@std@@@1@PBV?$_Tree_val@V?$_Tmap_traits@VBrn@OpenHome@@PAVCpDevice@Net@2@VBufferCmp@2@V?$allocator@U?$pair@$$CBVBrn@OpenHome@@PAVCpDevice@Net@2@@std@@@std@@$0A@@std@@@1@@Z 004310f0 f i libohNetCore:CpDeviceCore.obj
 0001:00030130       ??D?$_Tree_const_iterator@V?$_Tree_val@V?$_Tmap_traits@VBrn@OpenHome@@PAVCpDevice@Net@2@VBufferCmp@2@V?$allocator@U?$pair@$$CBVBrn@OpenHome@@PAVCpDevice@Net@2@@std@@@std@@$0A@@std@@@std@@@std@@QBEABU?$pair@$$CBVBrn@OpenHome@@PAVCpDevice@Net@2@@1@XZ 00431130 f i libohNetCore:CpDeviceCore.obj
 0001:000301f0       ??E?$_Tree_unchecked_const_iterator@V?$_Tree_val@V?$_Tmap_traits@VBrn@OpenHome@@PAVCpDevice@Net@2@VBufferCmp@2@V?$allocator@U?$pair@$$CBVBrn@OpenHome@@PAVCpDevice@Net@2@@std@@@std@@$0A@@std@@@std@@U_Iterator_base12@2@@std@@QAEAAV01@XZ 004311f0 f i libohNetCore:CpDeviceCore.obj
 0001:000302b0       ??1?$_Tmap_traits@VBrn@OpenHome@@PAVCpDevice@Net@2@VBufferCmp@2@V?$allocator@U?$pair@$$CBVBrn@OpenHome@@PAVCpDevice@Net@2@@std@@@std@@$0A@@std@@QAE@XZ 004312b0 f i libohNetCore:CpDeviceCore.obj
 0001:000302e0       ??0?$_Tree_nod@V?$_Tmap_traits@VBrn@OpenHome@@PAVCpDevice@Net@2@VBufferCmp@2@V?$allocator@U?$pair@$$CBVBrn@OpenHome@@PAVCpDevice@Net@2@@std@@@std@@$0A@@std@@@std@@QAE@ABVBufferCmp@OpenHome@@V?$allocator@U?$pair@$$CBVBrn@OpenHome@@PAVCpDevice@Net@2@@std@@@1@@Z 004312e0 f i libohNetCore:CpDeviceCore.obj
 0001:000303f0       ?allocate@?$allocator@U_Node@?$_Tree_nod@V?$_Tmap_traits@VBrn@OpenHome@@PAVCpDevice@Net@2@VBufferCmp@2@V?$allocator@U?$pair@$$CBVBrn@OpenHome@@PAVCpDevice@Net@2@@std@@@std@@$0A@@std@@@std@@@std@@QAEPAU_Node@?$_Tree_nod@V?$_Tmap_traits@VBrn@OpenHome@@PAVCpDevice@Net@2@VBufferCmp@2@V?$allocator@U?$pair@$$CBVBrn@OpenHome@@PAVCpDevice@Net@2@@std@@@std@@$0A@@std@@@2@I@Z 004313f0 f i libohNetCore:CpDeviceCore.obj
 0001:00030420       ??E?$_Tree_const_iterator@V?$_Tree_val@V?$_Tmap_traits@VBrn@OpenHome@@PAVCpDevice@Net@2@VBufferCmp@2@V?$allocator@U?$pair@$$CBVBrn@OpenHome@@PAVCpDevice@Net@2@@std@@@std@@$0A@@std@@@std@@@std@@QAE?AV01@H@Z 00431420 f i libohNetCore:CpDeviceCore.obj
 0001:000304f0       ??0?$_Tree_unchecked_const_iterator@V?$_Tree_val@V?$_Tmap_traits@VBrn@OpenHome@@PAVCpDevice@Net@2@VBufferCmp@2@V?$allocator@U?$pair@$$CBVBrn@OpenHome@@PAVCpDevice@Net@2@@std@@@std@@$0A@@std@@@std@@U_Iterator_base12@2@@std@@QAE@PAU_Node@?$_Tree_nod@V?$_Tmap_traits@VBrn@OpenHome@@PAVCpDevice@Net@2@VBufferCmp@2@V?$allocator@U?$pair@$$CBVBrn@OpenHome@@PAVCpDevice@Net@2@@std@@@std@@$0A@@std@@@1@PBV?$_Tree_val@V?$_Tmap_traits@VBrn@OpenHome@@PAVCpDevice@Net@2@VBufferCmp@2@V?$allocator@U?$pair@$$CBVBrn@OpenHome@@PAVCpDevice@Net@2@@std@@@std@@$0A@@std@@@1@@Z 004314f0 f i libohNetCore:CpDeviceCore.obj
 0001:00030570       ??0?$_Iterator012@Ubidirectional_iterator_tag@std@@U?$pair@$$CBVBrn@OpenHome@@PAVCpDevice@Net@2@@2@HPBU32@ABU32@U_Iterator_base12@2@@std@@QAE@XZ 00431570 f i libohNetCore:CpDeviceCore.obj
 0001:000305a0       ??0?$_Tmap_traits@VBrn@OpenHome@@PAVCpDevice@Net@2@VBufferCmp@2@V?$allocator@U?$pair@$$CBVBrn@OpenHome@@PAVCpDevice@Net@2@@std@@@std@@$0A@@std@@QAE@VBufferCmp@OpenHome@@@Z 004315a0 f i libohNetCore:CpDeviceCore.obj
 0001:000305d0       ??$MakeFunctorCpiDevice@VCpDeviceList@Net@OpenHome@@V123@@Net@OpenHome@@YG?AV?$MemberTranslatorCpiDevice@VCpDeviceList@Net@OpenHome@@P8123@AEXAAVCpiDevice@23@@Z@01@AAVCpDeviceList@01@ABQ8301@AEXAAVCpiDevice@01@@Z@Z 004315d0 f i libohNetCore:CpDeviceCore.obj
 0001:00030600       ??$?0AAVBrn@OpenHome@@AAPAVCpDevice@Net@1@@?$pair@VBrn@OpenHome@@PAVCpDevice@Net@2@@std@@QAE@AAVBrn@OpenHome@@AAPAVCpDevice@Net@3@@Z 00431600 f i libohNetCore:CpDeviceCore.obj
 0001:00030640       ??$insert@U?$pair@VBrn@OpenHome@@PAVCpDevice@Net@2@@std@@@?$_Tree@V?$_Tmap_traits@VBrn@OpenHome@@PAVCpDevice@Net@2@VBufferCmp@2@V?$allocator@U?$pair@$$CBVBrn@OpenHome@@PAVCpDevice@Net@2@@std@@@std@@$0A@@std@@@std@@QAE?AU?$pair@V?$_Tree_iterator@V?$_Tree_val@V?$_Tmap_traits@VBrn@OpenHome@@PAVCpDevice@Net@2@VBufferCmp@2@V?$allocator@U?$pair@$$CBVBrn@OpenHome@@PAVCpDevice@Net@2@@std@@@std@@$0A@@std@@@std@@@std@@_N@1@$$QAU?$pair@VBrn@OpenHome@@PAVCpDevice@Net@2@@1@@Z 00431640 f i libohNetCore:CpDeviceCore.obj
 0001:000306a0       ??$swap@D@std@@YGXAAD0@Z   004316a0 f i libohNetCore:CpDeviceCore.obj
 0001:00030730       ??$addressof@U?$pair@$$CBVBrn@OpenHome@@PAVCpDevice@Net@2@@std@@@std@@YGPAU?$pair@$$CBVBrn@OpenHome@@PAVCpDevice@Net@2@@0@AAU10@@Z 00431730 f i libohNetCore:CpDeviceCore.obj
 0001:00030740       ??$_Dest_val@V?$allocator@U?$pair@$$CBVBrn@OpenHome@@PAVCpDevice@Net@2@@std@@@std@@U?$pair@$$CBVBrn@OpenHome@@PAVCpDevice@Net@2@@2@@std@@YGXAAV?$allocator@U?$pair@$$CBVBrn@OpenHome@@PAVCpDevice@Net@2@@std@@@0@PAU?$pair@$$CBVBrn@OpenHome@@PAVCpDevice@Net@2@@0@@Z 00431740 f i libohNetCore:CpDeviceCore.obj
 0001:00030760       ??$_Debug_lt_pred@VBufferCmp@OpenHome@@VBrn@2@V32@@std@@YG_NVBufferCmp@OpenHome@@ABVBrn@2@AAV32@PB_WI@Z 00431760 f i libohNetCore:CpDeviceCore.obj
 0001:000307c0       ??$_Kfn@$$CBVBrn@OpenHome@@PAVCpDevice@Net@2@@?$_Tmap_traits@VBrn@OpenHome@@PAVCpDevice@Net@2@VBufferCmp@2@V?$allocator@U?$pair@$$CBVBrn@OpenHome@@PAVCpDevice@Net@2@@std@@@std@@$0A@@std@@SGABVBrn@OpenHome@@ABU?$pair@$$CBVBrn@OpenHome@@PAVCpDevice@Net@2@@1@@Z 004317c0 f i libohNetCore:CpDeviceCore.obj
 0001:000307d0       ??$_Debug_lt_pred@VBufferCmp@OpenHome@@VBrn@2@V32@@std@@YG_NVBufferCmp@OpenHome@@AAVBrn@2@ABV32@PB_WI@Z 004317d0 f i libohNetCore:CpDeviceCore.obj
 0001:00030830       ??$?0U_Node@?$_Tree_nod@V?$_Tmap_traits@VBrn@OpenHome@@PAVCpDevice@Net@2@VBufferCmp@2@V?$allocator@U?$pair@$$CBVBrn@OpenHome@@PAVCpDevice@Net@2@@std@@@std@@$0A@@std@@@std@@@?$allocator@U_Container_proxy@std@@@std@@QAE@ABV?$allocator@U_Node@?$_Tree_nod@V?$_Tmap_traits@VBrn@OpenHome@@PAVCpDevice@Net@2@VBufferCmp@2@V?$allocator@U?$pair@$$CBVBrn@OpenHome@@PAVCpDevice@Net@2@@std@@@std@@$0A@@std@@@std@@@1@@Z 00431830 f i libohNetCore:CpDeviceCore.obj
 0001:00030850       ??$?0U?$pair@$$CBVBrn@OpenHome@@PAVCpDevice@Net@2@@std@@@?$allocator@U_Node@?$_Tree_nod@V?$_Tmap_traits@VBrn@OpenHome@@PAVCpDevice@Net@2@VBufferCmp@2@V?$allocator@U?$pair@$$CBVBrn@OpenHome@@PAVCpDevice@Net@2@@std@@@std@@$0A@@std@@@std@@@std@@QAE@ABV?$allocator@U?$pair@$$CBVBrn@OpenHome@@PAVCpDevice@Net@2@@std@@@1@@Z 00431850 f i libohNetCore:CpDeviceCore.obj
 0001:00030870       ??$_Allocate@U_Node@?$_Tree_nod@V?$_Tmap_traits@VBrn@OpenHome@@PAVCpDevice@Net@2@VBufferCmp@2@V?$allocator@U?$pair@$$CBVBrn@OpenHome@@PAVCpDevice@Net@2@@std@@@std@@$0A@@std@@@std@@@std@@YGPAU_Node@?$_Tree_nod@V?$_Tmap_traits@VBrn@OpenHome@@PAVCpDevice@Net@2@VBufferCmp@2@V?$allocator@U?$pair@$$CBVBrn@OpenHome@@PAVCpDevice@Net@2@@std@@@std@@$0A@@std@@@0@IPAU120@@Z 00431870 f i libohNetCore:CpDeviceCore.obj
 0001:000308f0       ?_Linsert@?$_Tree@V?$_Tmap_traits@VBrn@OpenHome@@PAVCpDevice@Net@2@VBufferCmp@2@V?$allocator@U?$pair@$$CBVBrn@OpenHome@@PAVCpDevice@Net@2@@std@@@std@@$0A@@std@@@std@@QAE?AU?$pair@V?$_Tree_iterator@V?$_Tree_val@V?$_Tmap_traits@VBrn@OpenHome@@PAVCpDevice@Net@2@VBufferCmp@2@V?$allocator@U?$pair@$$CBVBrn@OpenHome@@PAVCpDevice@Net@2@@std@@@std@@$0A@@std@@@std@@@std@@_N@2@PAU_Node@?$_Tree_nod@V?$_Tmap_traits@VBrn@OpenHome@@PAVCpDevice@Net@2@VBufferCmp@2@V?$allocator@U?$pair@$$CBVBrn@OpenHome@@PAVCpDevice@Net@2@@std@@@std@@$0A@@std@@@2@_N@Z 004318f0 f i libohNetCore:CpDeviceCore.obj
 0001:00030cd0       ?destroy@?$allocator@U?$pair@$$CBVBrn@OpenHome@@PAVCpDevice@Net@2@@std@@@std@@QAEXPAU?$pair@$$CBVBrn@OpenHome@@PAVCpDevice@Net@2@@2@@Z 00431cd0 f i libohNetCore:CpDeviceCore.obj
 0001:00030d00       ??0?$MemberTranslatorCpiDevice@VCpDeviceList@Net@OpenHome@@P8123@AEXAAVCpiDevice@23@@Z@Net@OpenHome@@QAE@AAVCpDeviceList@12@ABQ8312@AEXAAVCpiDevice@12@@Z@Z 00431d00 f i libohNetCore:CpDeviceCore.obj
 0001:00030d40       ??0FunctorCpiDevice@Net@OpenHome@@IAE@P6GXABV012@AAVCpiDevice@12@@ZPBX3I@Z 00431d40 f i libohNetCore:CpDeviceCore.obj
 0001:00030d90       ?_Insert@?$_Tree@V?$_Tmap_traits@VBrn@OpenHome@@PAVCpDevice@Net@2@VBufferCmp@2@V?$allocator@U?$pair@$$CBVBrn@OpenHome@@PAVCpDevice@Net@2@@std@@@std@@$0A@@std@@@std@@IAE?AV?$_Tree_iterator@V?$_Tree_val@V?$_Tmap_traits@VBrn@OpenHome@@PAVCpDevice@Net@2@VBufferCmp@2@V?$allocator@U?$pair@$$CBVBrn@OpenHome@@PAVCpDevice@Net@2@@std@@@std@@$0A@@std@@@std@@@2@_NPAU_Node@?$_Tree_nod@V?$_Tmap_traits@VBrn@OpenHome@@PAVCpDevice@Net@2@VBufferCmp@2@V?$allocator@U?$pair@$$CBVBrn@OpenHome@@PAVCpDevice@Net@2@@std@@@std@@$0A@@std@@@2@1@Z 00431d90 f i libohNetCore:CpDeviceCore.obj
 0001:00031150       ??F?$_Tree_iterator@V?$_Tree_val@V?$_Tmap_traits@VBrn@OpenHome@@PAVCpDevice@Net@2@VBufferCmp@2@V?$allocator@U?$pair@$$CBVBrn@OpenHome@@PAVCpDevice@Net@2@@std@@@std@@$0A@@std@@@std@@@std@@QAEAAV01@XZ 00432150 f i libohNetCore:CpDeviceCore.obj
 0001:00031180       ?Thunk@?$MemberTranslatorCpiDevice@VCpDeviceList@Net@OpenHome@@P8123@AEXAAVCpiDevice@23@@Z@Net@OpenHome@@SGXABVFunctorCpiDevice@23@AAVCpiDevice@23@@Z 00432180 f i libohNetCore:CpDeviceCore.obj
 0001:000311d0       ??0?$pair@V?$_Tree_iterator@V?$_Tree_val@V?$_Tmap_traits@VBrn@OpenHome@@PAVCpDevice@Net@2@VBufferCmp@2@V?$allocator@U?$pair@$$CBVBrn@OpenHome@@PAVCpDevice@Net@2@@std@@@std@@$0A@@std@@@std@@@std@@_N@std@@QAE@$$QAV?$_Tree_iterator@V?$_Tree_val@V?$_Tmap_traits@VBrn@OpenHome@@PAVCpDevice@Net@2@VBufferCmp@2@V?$allocator@U?$pair@$$CBVBrn@OpenHome@@PAVCpDevice@Net@2@@std@@@std@@$0A@@std@@@std@@@1@$$QA_N@Z 004321d0 f i libohNetCore:CpDeviceCore.obj
 0001:00031210       ?max_size@?$_Tree@V?$_Tmap_traits@VBrn@OpenHome@@PAVCpDevice@Net@2@VBufferCmp@2@V?$allocator@U?$pair@$$CBVBrn@OpenHome@@PAVCpDevice@Net@2@@std@@@std@@$0A@@std@@@std@@QBEIXZ 00432210 f i libohNetCore:CpDeviceCore.obj
 0001:00031240       ??F?$_Tree_const_iterator@V?$_Tree_val@V?$_Tmap_traits@VBrn@OpenHome@@PAVCpDevice@Net@2@VBufferCmp@2@V?$allocator@U?$pair@$$CBVBrn@OpenHome@@PAVCpDevice@Net@2@@std@@@std@@$0A@@std@@@std@@@std@@QAEAAV01@XZ 00432240 f i libohNetCore:CpDeviceCore.obj
 0001:00031360       ??0?$_Pair_base@V?$_Tree_iterator@V?$_Tree_val@V?$_Tmap_traits@VBrn@OpenHome@@PAVCpDevice@Net@2@VBufferCmp@2@V?$allocator@U?$pair@$$CBVBrn@OpenHome@@PAVCpDevice@Net@2@@std@@@std@@$0A@@std@@@std@@@std@@_N@std@@QAE@$$QAV?$_Tree_iterator@V?$_Tree_val@V?$_Tmap_traits@VBrn@OpenHome@@PAVCpDevice@Net@2@VBufferCmp@2@V?$allocator@U?$pair@$$CBVBrn@OpenHome@@PAVCpDevice@Net@2@@std@@@std@@$0A@@std@@@std@@@1@$$QA_N@Z 00432360 f i libohNetCore:CpDeviceCore.obj
 0001:000313e0       ?max_size@?$allocator@U?$pair@$$CBVBrn@OpenHome@@PAVCpDevice@Net@2@@std@@@std@@QBEIXZ 004323e0 f i libohNetCore:CpDeviceCore.obj
 0001:00031430       ??F?$_Tree_unchecked_const_iterator@V?$_Tree_val@V?$_Tmap_traits@VBrn@OpenHome@@PAVCpDevice@Net@2@VBufferCmp@2@V?$allocator@U?$pair@$$CBVBrn@OpenHome@@PAVCpDevice@Net@2@@std@@@std@@$0A@@std@@@std@@U_Iterator_base12@2@@std@@QAEAAV01@XZ 00432430 f i libohNetCore:CpDeviceCore.obj
 0001:00031520       ??$forward@AAVBrn@OpenHome@@@std@@YGAAVBrn@OpenHome@@AAV12@@Z 00432520 f i libohNetCore:CpDeviceCore.obj
 0001:00031530       ??$forward@AAPAVCpDevice@Net@OpenHome@@@std@@YGAAPAVCpDevice@Net@OpenHome@@AAPAV123@@Z 00432530 f i libohNetCore:CpDeviceCore.obj
 0001:00031540       ??$?0AAVBrn@OpenHome@@AAPAVCpDevice@Net@1@@?$_Pair_base@VBrn@OpenHome@@PAVCpDevice@Net@2@@std@@QAE@AAVBrn@OpenHome@@AAPAVCpDevice@Net@3@@Z 00432540 f i libohNetCore:CpDeviceCore.obj
 0001:000315c0       ??$forward@U?$pair@VBrn@OpenHome@@PAVCpDevice@Net@2@@std@@@std@@YG$$QAU?$pair@VBrn@OpenHome@@PAVCpDevice@Net@2@@0@AAU10@@Z 004325c0 f i libohNetCore:CpDeviceCore.obj
 0001:000315d0       ??$_Buynode@U?$pair@VBrn@OpenHome@@PAVCpDevice@Net@2@@std@@@?$_Tree_val@V?$_Tmap_traits@VBrn@OpenHome@@PAVCpDevice@Net@2@VBufferCmp@2@V?$allocator@U?$pair@$$CBVBrn@OpenHome@@PAVCpDevice@Net@2@@std@@@std@@$0A@@std@@@std@@QAEPAU_Node@?$_Tree_nod@V?$_Tmap_traits@VBrn@OpenHome@@PAVCpDevice@Net@2@VBufferCmp@2@V?$allocator@U?$pair@$$CBVBrn@OpenHome@@PAVCpDevice@Net@2@@std@@@std@@$0A@@std@@@1@$$QAU?$pair@VBrn@OpenHome@@PAVCpDevice@Net@2@@1@@Z 004325d0 f i libohNetCore:CpDeviceCore.obj
 0001:000316b0       ??$_Move@AAD@std@@YG$$QADAAD@Z 004326b0 f i libohNetCore:CpDeviceCore.obj
 0001:000316c0       ??$?0AAV?$_Tree_iterator@V?$_Tree_val@V?$_Tmap_traits@VBrn@OpenHome@@PAVCpDevice@Net@2@VBufferCmp@2@V?$allocator@U?$pair@$$CBVBrn@OpenHome@@PAVCpDevice@Net@2@@std@@@std@@$0A@@std@@@std@@@std@@_N@?$pair@V?$_Tree_iterator@V?$_Tree_val@V?$_Tmap_traits@VBrn@OpenHome@@PAVCpDevice@Net@2@VBufferCmp@2@V?$allocator@U?$pair@$$CBVBrn@OpenHome@@PAVCpDevice@Net@2@@std@@@std@@$0A@@std@@@std@@@std@@_N@std@@QAE@AAV?$_Tree_iterator@V?$_Tree_val@V?$_Tmap_traits@VBrn@OpenHome@@PAVCpDevice@Net@2@VBufferCmp@2@V?$allocator@U?$pair@$$CBVBrn@OpenHome@@PAVCpDevice@Net@2@@std@@@std@@$0A@@std@@@std@@@1@$$QA_N@Z 004326c0 f i libohNetCore:CpDeviceCore.obj
 0001:00031700       ??$_Destroy@U?$pair@$$CBVBrn@OpenHome@@PAVCpDevice@Net@2@@std@@@std@@YGXPAU?$pair@$$CBVBrn@OpenHome@@PAVCpDevice@Net@2@@0@@Z 00432700 f i libohNetCore:CpDeviceCore.obj
 0001:00031720       ??$move@AAV?$_Tree_iterator@V?$_Tree_val@V?$_Tmap_traits@VBrn@OpenHome@@PAVCpDevice@Net@2@VBufferCmp@2@V?$allocator@U?$pair@$$CBVBrn@OpenHome@@PAVCpDevice@Net@2@@std@@@std@@$0A@@std@@@std@@@std@@@std@@YG$$QAV?$_Tree_iterator@V?$_Tree_val@V?$_Tmap_traits@VBrn@OpenHome@@PAVCpDevice@Net@2@VBufferCmp@2@V?$allocator@U?$pair@$$CBVBrn@OpenHome@@PAVCpDevice@Net@2@@std@@@std@@$0A@@std@@@std@@@0@AAV10@@Z 00432720 f i libohNetCore:CpDeviceCore.obj
 0001:00031730       ??$move@AA_N@std@@YG$$QA_NAA_N@Z 00432730 f i libohNetCore:CpDeviceCore.obj
 0001:00031740       ??_G?$pair@$$CBVBrn@OpenHome@@PAVCpDevice@Net@2@@std@@QAEPAXI@Z 00432740 f i libohNetCore:CpDeviceCore.obj
 0001:00031780       ??1?$pair@$$CBVBrn@OpenHome@@PAVCpDevice@Net@2@@std@@QAE@XZ 00432780 f i libohNetCore:CpDeviceCore.obj
 0001:000317b0       ??1?$_Pair_base@$$CBVBrn@OpenHome@@PAVCpDevice@Net@2@@std@@QAE@XZ 004327b0 f i libohNetCore:CpDeviceCore.obj
 0001:000317e0       ?_Buynode@?$_Tree_val@V?$_Tmap_traits@VBrn@OpenHome@@PAVCpDevice@Net@2@VBufferCmp@2@V?$allocator@U?$pair@$$CBVBrn@OpenHome@@PAVCpDevice@Net@2@@std@@@std@@$0A@@std@@@std@@QAEPAU_Node@?$_Tree_nod@V?$_Tmap_traits@VBrn@OpenHome@@PAVCpDevice@Net@2@VBufferCmp@2@V?$allocator@U?$pair@$$CBVBrn@OpenHome@@PAVCpDevice@Net@2@@std@@@std@@$0A@@std@@@2@XZ 004327e0 f i libohNetCore:CpDeviceCore.obj
 0001:00031870       ??$_Cons_val@V?$allocator@U?$pair@$$CBVBrn@OpenHome@@PAVCpDevice@Net@2@@std@@@std@@U?$pair@$$CBVBrn@OpenHome@@PAVCpDevice@Net@2@@2@U?$pair@VBrn@OpenHome@@PAVCpDevice@Net@2@@2@@std@@YGXAAV?$allocator@U?$pair@$$CBVBrn@OpenHome@@PAVCpDevice@Net@2@@std@@@0@PAU?$pair@$$CBVBrn@OpenHome@@PAVCpDevice@Net@2@@0@$$QAU?$pair@VBrn@OpenHome@@PAVCpDevice@Net@2@@0@@Z 00432870 f i libohNetCore:CpDeviceCore.obj
 0001:000318a0       ??$forward@AAV?$_Tree_iterator@V?$_Tree_val@V?$_Tmap_traits@VBrn@OpenHome@@PAVCpDevice@Net@2@VBufferCmp@2@V?$allocator@U?$pair@$$CBVBrn@OpenHome@@PAVCpDevice@Net@2@@std@@@std@@$0A@@std@@@std@@@std@@@std@@YGAAV?$_Tree_iterator@V?$_Tree_val@V?$_Tmap_traits@VBrn@OpenHome@@PAVCpDevice@Net@2@VBufferCmp@2@V?$allocator@U?$pair@$$CBVBrn@OpenHome@@PAVCpDevice@Net@2@@std@@@std@@$0A@@std@@@std@@@0@AAV10@@Z 004328a0 f i libohNetCore:CpDeviceCore.obj
 0001:000318b0       ??$forward@_N@std@@YG$$QA_NAA_N@Z 004328b0 f i libohNetCore:CpDeviceCore.obj
 0001:000318c0       ??$?0AAV?$_Tree_iterator@V?$_Tree_val@V?$_Tmap_traits@VBrn@OpenHome@@PAVCpDevice@Net@2@VBufferCmp@2@V?$allocator@U?$pair@$$CBVBrn@OpenHome@@PAVCpDevice@Net@2@@std@@@std@@$0A@@std@@@std@@@std@@_N@?$_Pair_base@V?$_Tree_iterator@V?$_Tree_val@V?$_Tmap_traits@VBrn@OpenHome@@PAVCpDevice@Net@2@VBufferCmp@2@V?$allocator@U?$pair@$$CBVBrn@OpenHome@@PAVCpDevice@Net@2@@std@@@std@@$0A@@std@@@std@@@std@@_N@std@@QAE@AAV?$_Tree_iterator@V?$_Tree_val@V?$_Tmap_traits@VBrn@OpenHome@@PAVCpDevice@Net@2@VBufferCmp@2@V?$allocator@U?$pair@$$CBVBrn@OpenHome@@PAVCpDevice@Net@2@@std@@@std@@$0A@@std@@@std@@@1@$$QA_N@Z 004328c0 f i libohNetCore:CpDeviceCore.obj
 0001:00031940       ??$construct@U?$pair@VBrn@OpenHome@@PAVCpDevice@Net@2@@std@@@?$allocator@U?$pair@$$CBVBrn@OpenHome@@PAVCpDevice@Net@2@@std@@@std@@QAEXPAU?$pair@$$CBVBrn@OpenHome@@PAVCpDevice@Net@2@@1@$$QAU?$pair@VBrn@OpenHome@@PAVCpDevice@Net@2@@1@@Z 00432940 f i libohNetCore:CpDeviceCore.obj
 0001:000319e0       ??$?0VBrn@OpenHome@@PAVCpDevice@Net@1@@?$pair@$$CBVBrn@OpenHome@@PAVCpDevice@Net@2@@std@@QAE@$$QAU?$pair@VBrn@OpenHome@@PAVCpDevice@Net@2@@1@@Z 004329e0 f i libohNetCore:CpDeviceCore.obj
 0001:00031a20       ??$forward@VBrn@OpenHome@@@std@@YG$$QAVBrn@OpenHome@@AAV12@@Z 00432a20 f i libohNetCore:CpDeviceCore.obj
 0001:00031a30       ??$forward@PAVCpDevice@Net@OpenHome@@@std@@YG$$QAPAVCpDevice@Net@OpenHome@@AAPAV123@@Z 00432a30 f i libohNetCore:CpDeviceCore.obj
 0001:00031a40       ??$?0VBrn@OpenHome@@PAVCpDevice@Net@1@@?$_Pair_base@$$CBVBrn@OpenHome@@PAVCpDevice@Net@2@@std@@QAE@$$QAVBrn@OpenHome@@$$QAPAVCpDevice@Net@3@@Z 00432a40 f i libohNetCore:CpDeviceCore.obj
 0001:00031ac0       ??0CpDeviceListUpnpAll@Net@OpenHome@@QAE@VFunctorCpDevice@12@0@Z 00432ac0 f   libohNetCore:CpDeviceUpnpCore.obj
 0001:00031c80       ??0CpDeviceListUpnpRoot@Net@OpenHome@@QAE@VFunctorCpDevice@12@0@Z 00432c80 f   libohNetCore:CpDeviceUpnpCore.obj
 0001:00031e40       ??0CpDeviceListUpnpUuid@Net@OpenHome@@QAE@ABVBrx@2@VFunctorCpDevice@12@1@Z 00432e40 f   libohNetCore:CpDeviceUpnpCore.obj
 0001:00032010       ??0CpDeviceListUpnpDeviceType@Net@OpenHome@@QAE@ABVBrx@2@0IVFunctorCpDevice@12@1@Z 00433010 f   libohNetCore:CpDeviceUpnpCore.obj
 0001:000321e0       ??0CpDeviceListUpnpServiceType@Net@OpenHome@@QAE@ABVBrx@2@0IVFunctorCpDevice@12@1@Z 004331e0 f   libohNetCore:CpDeviceUpnpCore.obj
 0001:000323b0       ??0FunctorCpiDevice@Net@OpenHome@@QAE@XZ 004333b0 f i libohNetCore:CpDeviceUpnpCore.obj
 0001:000323e0       ?hexChar@@YGDE@Z           004333e0 f   libohNetCore:Printer.obj
 0001:00032420       ?RegisterOutput@Log@OpenHome@@SGXAAVFunctorMsg@2@@Z 00433420 f   libohNetCore:Printer.obj
 0001:00032450       ?Print@Log@OpenHome@@SGHABVBrx@2@@Z 00433450 f   libohNetCore:Printer.obj
 0001:00032470       ?PrintHex@Log@OpenHome@@SGHABVBrx@2@@Z 00433470 f   libohNetCore:Printer.obj
 0001:00032490       ?Print@Log@OpenHome@@SAHPBDZZ 00433490 f   libohNetCore:Printer.obj
 0001:000324e0       ?Print@Log@OpenHome@@SGHPBDPAD@Z 004334e0 f   libohNetCore:Printer.obj
 0001:00032500       ?PrintHex@Log@OpenHome@@SGHAAVFunctorMsg@2@ABVBrx@2@@Z 00433500 f   libohNetCore:Printer.obj
 0001:00032860       ?Print@Log@OpenHome@@SGHAAVFunctorMsg@2@ABVBrx@2@@Z 00433860 f   libohNetCore:Printer.obj
 0001:000329f0       ?Print@Log@OpenHome@@SGHAAVFunctorMsg@2@PBDPAD@Z 004339f0 f   libohNetCore:Printer.obj
 0001:00032b40       ?DoPrint@Log@OpenHome@@CGHAAVFunctorMsg@2@PBE@Z 00433b40 f   libohNetCore:Printer.obj
 0001:00032b80       ??1?$Bws@$0EAB@@OpenHome@@UAE@XZ 00433b80 f i libohNetCore:Printer.obj
 0001:00032bb0       ??0?$Bws@$0EAB@@OpenHome@@QAE@I@Z 00433bb0 f i libohNetCore:Printer.obj
 0001:00032bf0       ?Ptr@?$Bws@$0EAB@@OpenHome@@UBEPBEXZ 00433bf0 f i libohNetCore:Printer.obj
 0001:00032c10       ??_E?$Bws@$0EAB@@OpenHome@@UAEPAXI@Z 00433c10 f i libohNetCore:Printer.obj
 0001:00032c10       ??_G?$Bws@$0EAB@@OpenHome@@UAEPAXI@Z 00433c10 f i libohNetCore:Printer.obj
 0001:00032c50       ?Level@Debug@OpenHome@@SGIXZ 00433c50 f   libohNetCore:Debug.obj
 0001:00032c60       ?SetLevel@Debug@OpenHome@@SGXI@Z 00433c60 f   libohNetCore:Debug.obj
 0001:00032c70       ?TestLevel@Debug@OpenHome@@SG_NI@Z 00433c70 f   libohNetCore:Debug.obj
 0001:00032c90       ?BreakBeforeThrow@Debug@OpenHome@@SG_NXZ 00433c90 f   libohNetCore:Debug.obj
 0001:00032ca0       ?SetBreakBeforeThrow@Debug@OpenHome@@SGX_N@Z 00433ca0 f   libohNetCore:Debug.obj
 0001:00032cb0       ??0AutoLog@@QAE@IPBD@Z     00433cb0 f   libohNetCore:Debug.obj
 0001:00032d10       ??1AutoLog@@QAE@XZ         00433d10 f   libohNetCore:Debug.obj
 0001:00032d60       ?Subscribe@CpProxy@Net@OpenHome@@QAEXXZ 00433d60 f   libohNetCore:CpProxy.obj
 0001:00032e40       ?Unsubscribe@CpProxy@Net@OpenHome@@QAEXXZ 00433e40 f   libohNetCore:CpProxy.obj
 0001:00032eb0       ??0CpProxy@Net@OpenHome@@IAE@PBD0IAAVCpiDevice@12@@Z 00433eb0 f   libohNetCore:CpProxy.obj
 0001:00033090       ??1CpProxy@Net@OpenHome@@MAE@XZ 00434090 f   libohNetCore:CpProxy.obj
 0001:00033320       ?AddProperty@CpProxy@Net@OpenHome@@IAEXPAVProperty@23@@Z 00434320 f   libohNetCore:CpProxy.obj
 0001:00033430       ?DestroyService@CpProxy@Net@OpenHome@@IAEXXZ 00434430 f   libohNetCore:CpProxy.obj
 0001:00033490       ?SetPropertyChanged@CpProxy@Net@OpenHome@@QAEXAAVFunctor@3@@Z 00434490 f   libohNetCore:CpProxy.obj
 0001:000334f0       ?SetPropertyInitialEvent@CpProxy@Net@OpenHome@@QAEXAAVFunctor@3@@Z 004344f0 f   libohNetCore:CpProxy.obj
 0001:00033570       ?PropertyReadLock@CpProxy@Net@OpenHome@@IBEXXZ 00434570 f   libohNetCore:CpProxy.obj
 0001:000335a0       ?PropertyReadUnlock@CpProxy@Net@OpenHome@@IBEXXZ 004345a0 f   libohNetCore:CpProxy.obj
 0001:000335d0       ?ReportEvent@CpProxy@Net@OpenHome@@IAEXVFunctor@3@@Z 004345d0 f   libohNetCore:CpProxy.obj
 0001:00033640       ?EventUpdateStart@CpProxy@Net@OpenHome@@EAEXXZ 00434640 f   libohNetCore:CpProxy.obj
 0001:00033670       ?EventUpdate@CpProxy@Net@OpenHome@@EAEXABVBrx@3@0AAVIOutputProcessor@23@@Z 00434670 f   libohNetCore:CpProxy.obj
 0001:000337c0       ?EventUpdateEnd@CpProxy@Net@OpenHome@@EAEXXZ 004347c0 f   libohNetCore:CpProxy.obj
 0001:000339d0       ??_ECpProxy@Net@OpenHome@@MAEPAXI@Z 004349d0 f i libohNetCore:CpProxy.obj
 0001:00033a50       ??0IEventProcessor@Net@OpenHome@@QAE@XZ 00434a50 f i libohNetCore:CpProxy.obj
 0001:00033a70       ??1?$map@VBrn@OpenHome@@PAVProperty@Net@2@VBufferCmp@2@V?$allocator@U?$pair@$$CBVBrn@OpenHome@@PAVProperty@Net@2@@std@@@std@@@std@@QAE@XZ 00434a70 f i libohNetCore:CpProxy.obj
 0001:00033aa0       ??_GCpiService@Net@OpenHome@@QAEPAXI@Z 00434aa0 f i libohNetCore:CpProxy.obj
 0001:00033ae0       ??1?$_Tree_iterator@V?$_Tree_val@V?$_Tmap_traits@VBrn@OpenHome@@PAVProperty@Net@2@VBufferCmp@2@V?$allocator@U?$pair@$$CBVBrn@OpenHome@@PAVProperty@Net@2@@std@@@std@@$0A@@std@@@std@@@std@@QAE@XZ 00434ae0 f i libohNetCore:CpProxy.obj
 0001:00033b10       ??1?$_Tree_const_iterator@V?$_Tree_val@V?$_Tmap_traits@VBrn@OpenHome@@PAVProperty@Net@2@VBufferCmp@2@V?$allocator@U?$pair@$$CBVBrn@OpenHome@@PAVProperty@Net@2@@std@@@std@@$0A@@std@@@std@@@std@@QAE@XZ 00434b10 f i libohNetCore:CpProxy.obj
 0001:00033b40       ??1?$_Tree_unchecked_const_iterator@V?$_Tree_val@V?$_Tmap_traits@VBrn@OpenHome@@PAVProperty@Net@2@VBufferCmp@2@V?$allocator@U?$pair@$$CBVBrn@OpenHome@@PAVProperty@Net@2@@std@@@std@@$0A@@std@@@std@@U_Iterator_base12@2@@std@@QAE@XZ 00434b40 f i libohNetCore:CpProxy.obj
 0001:00033b70       ??1?$_Iterator012@Ubidirectional_iterator_tag@std@@U?$pair@$$CBVBrn@OpenHome@@PAVProperty@Net@2@@2@HPBU32@ABU32@U_Iterator_base12@2@@std@@QAE@XZ 00434b70 f i libohNetCore:CpProxy.obj
 0001:00033ba0       ??1?$pair@VBrn@OpenHome@@PAVProperty@Net@2@@std@@QAE@XZ 00434ba0 f i libohNetCore:CpProxy.obj
 0001:00033bd0       ??1?$pair@V?$_Tree_iterator@V?$_Tree_val@V?$_Tmap_traits@VBrn@OpenHome@@PAVProperty@Net@2@VBufferCmp@2@V?$allocator@U?$pair@$$CBVBrn@OpenHome@@PAVProperty@Net@2@@std@@@std@@$0A@@std@@@std@@@std@@_N@std@@QAE@XZ 00434bd0 f i libohNetCore:CpProxy.obj
 0001:00033c00       ??1?$_Pair_base@VBrn@OpenHome@@PAVProperty@Net@2@@std@@QAE@XZ 00434c00 f i libohNetCore:CpProxy.obj
 0001:00033c30       ??1?$_Pair_base@V?$_Tree_iterator@V?$_Tree_val@V?$_Tmap_traits@VBrn@OpenHome@@PAVProperty@Net@2@VBufferCmp@2@V?$allocator@U?$pair@$$CBVBrn@OpenHome@@PAVProperty@Net@2@@std@@@std@@$0A@@std@@@std@@@std@@_N@std@@QAE@XZ 00434c30 f i libohNetCore:CpProxy.obj
 0001:00033c60       ??BFunctor@OpenHome@@QBE_NXZ 00434c60 f i libohNetCore:CpProxy.obj
 0001:00033ca0       ??0?$map@VBrn@OpenHome@@PAVProperty@Net@2@VBufferCmp@2@V?$allocator@U?$pair@$$CBVBrn@OpenHome@@PAVProperty@Net@2@@std@@@std@@@std@@QAE@XZ 00434ca0 f i libohNetCore:CpProxy.obj
 0001:00033cf0       ??1?$_Tree@V?$_Tmap_traits@VBrn@OpenHome@@PAVProperty@Net@2@VBufferCmp@2@V?$allocator@U?$pair@$$CBVBrn@OpenHome@@PAVProperty@Net@2@@std@@@std@@$0A@@std@@@std@@QAE@XZ 00434cf0 f i libohNetCore:CpProxy.obj
 0001:00033d60       ?begin@?$_Tree@V?$_Tmap_traits@VBrn@OpenHome@@PAVProperty@Net@2@VBufferCmp@2@V?$allocator@U?$pair@$$CBVBrn@OpenHome@@PAVProperty@Net@2@@std@@@std@@$0A@@std@@@std@@QAE?AV?$_Tree_iterator@V?$_Tree_val@V?$_Tmap_traits@VBrn@OpenHome@@PAVProperty@Net@2@VBufferCmp@2@V?$allocator@U?$pair@$$CBVBrn@OpenHome@@PAVProperty@Net@2@@std@@@std@@$0A@@std@@@std@@@2@XZ 00434d60 f i libohNetCore:CpProxy.obj
 0001:00033dc0       ?end@?$_Tree@V?$_Tmap_traits@VBrn@OpenHome@@PAVProperty@Net@2@VBufferCmp@2@V?$allocator@U?$pair@$$CBVBrn@OpenHome@@PAVProperty@Net@2@@std@@@std@@$0A@@std@@@std@@QAE?AV?$_Tree_iterator@V?$_Tree_val@V?$_Tmap_traits@VBrn@OpenHome@@PAVProperty@Net@2@VBufferCmp@2@V?$allocator@U?$pair@$$CBVBrn@OpenHome@@PAVProperty@Net@2@@std@@@std@@$0A@@std@@@std@@@2@XZ 00434dc0 f i libohNetCore:CpProxy.obj
 0001:00033e10       ?find@?$_Tree@V?$_Tmap_traits@VBrn@OpenHome@@PAVProperty@Net@2@VBufferCmp@2@V?$allocator@U?$pair@$$CBVBrn@OpenHome@@PAVProperty@Net@2@@std@@@std@@$0A@@std@@@std@@QAE?AV?$_Tree_iterator@V?$_Tree_val@V?$_Tmap_traits@VBrn@OpenHome@@PAVProperty@Net@2@VBufferCmp@2@V?$allocator@U?$pair@$$CBVBrn@OpenHome@@PAVProperty@Net@2@@std@@@std@@$0A@@std@@@std@@@2@ABVBrn@OpenHome@@@Z 00434e10 f i libohNetCore:CpProxy.obj
 0001:00033ff0       ??C?$_Tree_iterator@V?$_Tree_val@V?$_Tmap_traits@VBrn@OpenHome@@PAVProperty@Net@2@VBufferCmp@2@V?$allocator@U?$pair@$$CBVBrn@OpenHome@@PAVProperty@Net@2@@std@@@std@@$0A@@std@@@std@@@std@@QBEPAU?$pair@$$CBVBrn@OpenHome@@PAVProperty@Net@2@@1@XZ 00434ff0 f i libohNetCore:CpProxy.obj
 0001:00034020       ??E?$_Tree_iterator@V?$_Tree_val@V?$_Tmap_traits@VBrn@OpenHome@@PAVProperty@Net@2@VBufferCmp@2@V?$allocator@U?$pair@$$CBVBrn@OpenHome@@PAVProperty@Net@2@@std@@@std@@$0A@@std@@@std@@@std@@QAE?AV01@H@Z 00435020 f i libohNetCore:CpProxy.obj
 0001:000340f0       ??9?$_Tree_const_iterator@V?$_Tree_val@V?$_Tmap_traits@VBrn@OpenHome@@PAVProperty@Net@2@VBufferCmp@2@V?$allocator@U?$pair@$$CBVBrn@OpenHome@@PAVProperty@Net@2@@std@@@std@@$0A@@std@@@std@@@std@@QBE_NABV01@@Z 004350f0 f i libohNetCore:CpProxy.obj
 0001:00034130       ??0?$_Tree_iterator@V?$_Tree_val@V?$_Tmap_traits@VBrn@OpenHome@@PAVProperty@Net@2@VBufferCmp@2@V?$allocator@U?$pair@$$CBVBrn@OpenHome@@PAVProperty@Net@2@@std@@@std@@$0A@@std@@@std@@@std@@QAE@ABV01@@Z 00435130 f i libohNetCore:CpProxy.obj
 0001:00034160       ??0?$_Tree_const_iterator@V?$_Tree_val@V?$_Tmap_traits@VBrn@OpenHome@@PAVProperty@Net@2@VBufferCmp@2@V?$allocator@U?$pair@$$CBVBrn@OpenHome@@PAVProperty@Net@2@@std@@@std@@$0A@@std@@@std@@@std@@QAE@ABV01@@Z 00435160 f i libohNetCore:CpProxy.obj
 0001:00034190       ??0?$_Tree_unchecked_const_iterator@V?$_Tree_val@V?$_Tmap_traits@VBrn@OpenHome@@PAVProperty@Net@2@VBufferCmp@2@V?$allocator@U?$pair@$$CBVBrn@OpenHome@@PAVProperty@Net@2@@std@@@std@@$0A@@std@@@std@@U_Iterator_base12@2@@std@@QAE@ABV01@@Z 00435190 f i libohNetCore:CpProxy.obj
 0001:000341d0       ??0?$_Iterator012@Ubidirectional_iterator_tag@std@@U?$pair@$$CBVBrn@OpenHome@@PAVProperty@Net@2@@2@HPBU32@ABU32@U_Iterator_base12@2@@std@@QAE@ABU01@@Z 004351d0 f i libohNetCore:CpProxy.obj
 0001:00034200       ??0?$_Tree@V?$_Tmap_traits@VBrn@OpenHome@@PAVProperty@Net@2@VBufferCmp@2@V?$allocator@U?$pair@$$CBVBrn@OpenHome@@PAVProperty@Net@2@@std@@@std@@$0A@@std@@@std@@QAE@ABVBufferCmp@OpenHome@@ABV?$allocator@U?$pair@$$CBVBrn@OpenHome@@PAVProperty@Net@2@@std@@@1@@Z 00435200 f i libohNetCore:CpProxy.obj
 0001:00034250       ?lower_bound@?$_Tree@V?$_Tmap_traits@VBrn@OpenHome@@PAVProperty@Net@2@VBufferCmp@2@V?$allocator@U?$pair@$$CBVBrn@OpenHome@@PAVProperty@Net@2@@std@@@std@@$0A@@std@@@std@@QAE?AV?$_Tree_iterator@V?$_Tree_val@V?$_Tmap_traits@VBrn@OpenHome@@PAVProperty@Net@2@VBufferCmp@2@V?$allocator@U?$pair@$$CBVBrn@OpenHome@@PAVProperty@Net@2@@std@@@std@@$0A@@std@@@std@@@2@ABVBrn@OpenHome@@@Z 00435250 f i libohNetCore:CpProxy.obj
 0001:000342b0       ?_Lmost@?$_Tree@V?$_Tmap_traits@VBrn@OpenHome@@PAVProperty@Net@2@VBufferCmp@2@V?$allocator@U?$pair@$$CBVBrn@OpenHome@@PAVProperty@Net@2@@std@@@std@@$0A@@std@@@std@@IBEAAPAU_Node@?$_Tree_nod@V?$_Tmap_traits@VBrn@OpenHome@@PAVProperty@Net@2@VBufferCmp@2@V?$allocator@U?$pair@$$CBVBrn@OpenHome@@PAVProperty@Net@2@@std@@@std@@$0A@@std@@@2@XZ 004352b0 f i libohNetCore:CpProxy.obj
 0001:000342e0       ?_Tidy@?$_Tree@V?$_Tmap_traits@VBrn@OpenHome@@PAVProperty@Net@2@VBufferCmp@2@V?$allocator@U?$pair@$$CBVBrn@OpenHome@@PAVProperty@Net@2@@std@@@std@@$0A@@std@@@std@@IAEXXZ 004352e0 f i libohNetCore:CpProxy.obj
 0001:000343e0       ??1?$_Tree_val@V?$_Tmap_traits@VBrn@OpenHome@@PAVProperty@Net@2@VBufferCmp@2@V?$allocator@U?$pair@$$CBVBrn@OpenHome@@PAVProperty@Net@2@@std@@@std@@$0A@@std@@@std@@QAE@XZ 004353e0 f i libohNetCore:CpProxy.obj
 0001:00034450       ?_Key@?$_Tree_val@V?$_Tmap_traits@VBrn@OpenHome@@PAVProperty@Net@2@VBufferCmp@2@V?$allocator@U?$pair@$$CBVBrn@OpenHome@@PAVProperty@Net@2@@std@@@std@@$0A@@std@@@std@@SGAAVBrn@OpenHome@@PAU_Node@?$_Tree_nod@V?$_Tmap_traits@VBrn@OpenHome@@PAVProperty@Net@2@VBufferCmp@2@V?$allocator@U?$pair@$$CBVBrn@OpenHome@@PAVProperty@Net@2@@std@@@std@@$0A@@std@@@2@@Z 00435450 f i libohNetCore:CpProxy.obj
 0001:00034470       ??0?$allocator@U?$pair@$$CBVBrn@OpenHome@@PAVProperty@Net@2@@std@@@std@@QAE@XZ 00435470 f i libohNetCore:CpProxy.obj
 0001:00034490       ??0?$_Tree_iterator@V?$_Tree_val@V?$_Tmap_traits@VBrn@OpenHome@@PAVProperty@Net@2@VBufferCmp@2@V?$allocator@U?$pair@$$CBVBrn@OpenHome@@PAVProperty@Net@2@@std@@@std@@$0A@@std@@@std@@@std@@QAE@PAU_Node@?$_Tree_nod@V?$_Tmap_traits@VBrn@OpenHome@@PAVProperty@Net@2@VBufferCmp@2@V?$allocator@U?$pair@$$CBVBrn@OpenHome@@PAVProperty@Net@2@@std@@@std@@$0A@@std@@@1@PBV?$_Tree_val@V?$_Tmap_traits@VBrn@OpenHome@@PAVProperty@Net@2@VBufferCmp@2@V?$allocator@U?$pair@$$CBVBrn@OpenHome@@PAVProperty@Net@2@@std@@@std@@$0A@@std@@@1@@Z 00435490 f i libohNetCore:CpProxy.obj
 0001:000344d0       ??D?$_Tree_iterator@V?$_Tree_val@V?$_Tmap_traits@VBrn@OpenHome@@PAVProperty@Net@2@VBufferCmp@2@V?$allocator@U?$pair@$$CBVBrn@OpenHome@@PAVProperty@Net@2@@std@@@std@@$0A@@std@@@std@@@std@@QBEAAU?$pair@$$CBVBrn@OpenHome@@PAVProperty@Net@2@@1@XZ 004354d0 f i libohNetCore:CpProxy.obj
 0001:00034500       ??E?$_Tree_iterator@V?$_Tree_val@V?$_Tmap_traits@VBrn@OpenHome@@PAVProperty@Net@2@VBufferCmp@2@V?$allocator@U?$pair@$$CBVBrn@OpenHome@@PAVProperty@Net@2@@std@@@std@@$0A@@std@@@std@@@std@@QAEAAV01@XZ 00435500 f i libohNetCore:CpProxy.obj
 0001:00034530       ??8?$_Tree_const_iterator@V?$_Tree_val@V?$_Tmap_traits@VBrn@OpenHome@@PAVProperty@Net@2@VBufferCmp@2@V?$allocator@U?$pair@$$CBVBrn@OpenHome@@PAVProperty@Net@2@@std@@@std@@$0A@@std@@@std@@@std@@QBE_NABV01@@Z 00435530 f i libohNetCore:CpProxy.obj
 0001:000345f0       ?_Mynode@?$_Tree_unchecked_const_iterator@V?$_Tree_val@V?$_Tmap_traits@VBrn@OpenHome@@PAVProperty@Net@2@VBufferCmp@2@V?$allocator@U?$pair@$$CBVBrn@OpenHome@@PAVProperty@Net@2@@std@@@std@@$0A@@std@@@std@@U_Iterator_base12@2@@std@@QBEPAU_Node@?$_Tree_nod@V?$_Tmap_traits@VBrn@OpenHome@@PAVProperty@Net@2@VBufferCmp@2@V?$allocator@U?$pair@$$CBVBrn@OpenHome@@PAVProperty@Net@2@@std@@@std@@$0A@@std@@@2@XZ 004355f0 f i libohNetCore:CpProxy.obj
 0001:00034610       ?erase@?$_Tree@V?$_Tmap_traits@VBrn@OpenHome@@PAVProperty@Net@2@VBufferCmp@2@V?$allocator@U?$pair@$$CBVBrn@OpenHome@@PAVProperty@Net@2@@std@@@std@@$0A@@std@@@std@@QAE?AV?$_Tree_iterator@V?$_Tree_val@V?$_Tmap_traits@VBrn@OpenHome@@PAVProperty@Net@2@VBufferCmp@2@V?$allocator@U?$pair@$$CBVBrn@OpenHome@@PAVProperty@Net@2@@std@@@std@@$0A@@std@@@std@@@2@V?$_Tree_const_iterator@V?$_Tree_val@V?$_Tmap_traits@VBrn@OpenHome@@PAVProperty@Net@2@VBufferCmp@2@V?$allocator@U?$pair@$$CBVBrn@OpenHome@@PAVProperty@Net@2@@std@@@std@@$0A@@std@@@std@@@2@0@Z 00435610 f i libohNetCore:CpProxy.obj
 0001:00034810       ?_Lbound@?$_Tree@V?$_Tmap_traits@VBrn@OpenHome@@PAVProperty@Net@2@VBufferCmp@2@V?$allocator@U?$pair@$$CBVBrn@OpenHome@@PAVProperty@Net@2@@std@@@std@@$0A@@std@@@std@@IAEPAU_Node@?$_Tree_nod@V?$_Tmap_traits@VBrn@OpenHome@@PAVProperty@Net@2@VBufferCmp@2@V?$allocator@U?$pair@$$CBVBrn@OpenHome@@PAVProperty@Net@2@@std@@@std@@$0A@@std@@@2@ABVBrn@OpenHome@@@Z 00435810 f i libohNetCore:CpProxy.obj
 0001:000348c0       ??0?$_Tree_val@V?$_Tmap_traits@VBrn@OpenHome@@PAVProperty@Net@2@VBufferCmp@2@V?$allocator@U?$pair@$$CBVBrn@OpenHome@@PAVProperty@Net@2@@std@@@std@@$0A@@std@@@std@@QAE@ABVBufferCmp@OpenHome@@V?$allocator@U?$pair@$$CBVBrn@OpenHome@@PAVProperty@Net@2@@std@@@1@@Z 004358c0 f i libohNetCore:CpProxy.obj
 0001:000349c0       ?_Left@?$_Tree_val@V?$_Tmap_traits@VBrn@OpenHome@@PAVProperty@Net@2@VBufferCmp@2@V?$allocator@U?$pair@$$CBVBrn@OpenHome@@PAVProperty@Net@2@@std@@@std@@$0A@@std@@@std@@SGAAPAU_Node@?$_Tree_nod@V?$_Tmap_traits@VBrn@OpenHome@@PAVProperty@Net@2@VBufferCmp@2@V?$allocator@U?$pair@$$CBVBrn@OpenHome@@PAVProperty@Net@2@@std@@@std@@$0A@@std@@@2@PAU342@@Z 004359c0 f i libohNetCore:CpProxy.obj
 0001:000349d0       ?_Myval@?$_Tree_val@V?$_Tmap_traits@VBrn@OpenHome@@PAVProperty@Net@2@VBufferCmp@2@V?$allocator@U?$pair@$$CBVBrn@OpenHome@@PAVProperty@Net@2@@std@@@std@@$0A@@std@@@std@@SGAAU?$pair@$$CBVBrn@OpenHome@@PAVProperty@Net@2@@2@PAU_Node@?$_Tree_nod@V?$_Tmap_traits@VBrn@OpenHome@@PAVProperty@Net@2@VBufferCmp@2@V?$allocator@U?$pair@$$CBVBrn@OpenHome@@PAVProperty@Net@2@@std@@@std@@$0A@@std@@@2@@Z 004359d0 f i libohNetCore:CpProxy.obj
 0001:000349e0       ??1?$_Tree_nod@V?$_Tmap_traits@VBrn@OpenHome@@PAVProperty@Net@2@VBufferCmp@2@V?$allocator@U?$pair@$$CBVBrn@OpenHome@@PAVProperty@Net@2@@std@@@std@@$0A@@std@@@std@@QAE@XZ 004359e0 f i libohNetCore:CpProxy.obj
 0001:00034ac0       ??0?$allocator@U?$pair@$$CBVBrn@OpenHome@@PAVProperty@Net@2@@std@@@std@@QAE@ABV01@@Z 00435ac0 f i libohNetCore:CpProxy.obj
 0001:00034ae0       ?deallocate@?$allocator@U_Node@?$_Tree_nod@V?$_Tmap_traits@VBrn@OpenHome@@PAVProperty@Net@2@VBufferCmp@2@V?$allocator@U?$pair@$$CBVBrn@OpenHome@@PAVProperty@Net@2@@std@@@std@@$0A@@std@@@std@@@std@@QAEXPAU_Node@?$_Tree_nod@V?$_Tmap_traits@VBrn@OpenHome@@PAVProperty@Net@2@VBufferCmp@2@V?$allocator@U?$pair@$$CBVBrn@OpenHome@@PAVProperty@Net@2@@std@@@std@@$0A@@std@@@2@I@Z 00435ae0 f i libohNetCore:CpProxy.obj
 0001:00034b10       ??0?$_Tree_const_iterator@V?$_Tree_val@V?$_Tmap_traits@VBrn@OpenHome@@PAVProperty@Net@2@VBufferCmp@2@V?$allocator@U?$pair@$$CBVBrn@OpenHome@@PAVProperty@Net@2@@std@@@std@@$0A@@std@@@std@@@std@@QAE@PAU_Node@?$_Tree_nod@V?$_Tmap_traits@VBrn@OpenHome@@PAVProperty@Net@2@VBufferCmp@2@V?$allocator@U?$pair@$$CBVBrn@OpenHome@@PAVProperty@Net@2@@std@@@std@@$0A@@std@@@1@PBV?$_Tree_val@V?$_Tmap_traits@VBrn@OpenHome@@PAVProperty@Net@2@VBufferCmp@2@V?$allocator@U?$pair@$$CBVBrn@OpenHome@@PAVProperty@Net@2@@std@@@std@@$0A@@std@@@1@@Z 00435b10 f i libohNetCore:CpProxy.obj
 0001:00034b50       ??D?$_Tree_const_iterator@V?$_Tree_val@V?$_Tmap_traits@VBrn@OpenHome@@PAVProperty@Net@2@VBufferCmp@2@V?$allocator@U?$pair@$$CBVBrn@OpenHome@@PAVProperty@Net@2@@std@@@std@@$0A@@std@@@std@@@std@@QBEABU?$pair@$$CBVBrn@OpenHome@@PAVProperty@Net@2@@1@XZ 00435b50 f i libohNetCore:CpProxy.obj
 0001:00034c10       ??E?$_Tree_const_iterator@V?$_Tree_val@V?$_Tmap_traits@VBrn@OpenHome@@PAVProperty@Net@2@VBufferCmp@2@V?$allocator@U?$pair@$$CBVBrn@OpenHome@@PAVProperty@Net@2@@std@@@std@@$0A@@std@@@std@@@std@@QAEAAV01@XZ 00435c10 f i libohNetCore:CpProxy.obj
 0001:00034cd0       ??1?$_Tmap_traits@VBrn@OpenHome@@PAVProperty@Net@2@VBufferCmp@2@V?$allocator@U?$pair@$$CBVBrn@OpenHome@@PAVProperty@Net@2@@std@@@std@@$0A@@std@@QAE@XZ 00435cd0 f i libohNetCore:CpProxy.obj
 0001:00034d00       ?erase@?$_Tree@V?$_Tmap_traits@VBrn@OpenHome@@PAVProperty@Net@2@VBufferCmp@2@V?$allocator@U?$pair@$$CBVBrn@OpenHome@@PAVProperty@Net@2@@std@@@std@@$0A@@std@@@std@@QAE?AV?$_Tree_iterator@V?$_Tree_val@V?$_Tmap_traits@VBrn@OpenHome@@PAVProperty@Net@2@VBufferCmp@2@V?$allocator@U?$pair@$$CBVBrn@OpenHome@@PAVProperty@Net@2@@std@@@std@@$0A@@std@@@std@@@2@V?$_Tree_const_iterator@V?$_Tree_val@V?$_Tmap_traits@VBrn@OpenHome@@PAVProperty@Net@2@VBufferCmp@2@V?$allocator@U?$pair@$$CBVBrn@OpenHome@@PAVProperty@Net@2@@std@@@std@@$0A@@std@@@std@@@2@@Z 00435d00 f i libohNetCore:CpProxy.obj
 0001:00035410       ?clear@?$_Tree@V?$_Tmap_traits@VBrn@OpenHome@@PAVProperty@Net@2@VBufferCmp@2@V?$allocator@U?$pair@$$CBVBrn@OpenHome@@PAVProperty@Net@2@@std@@@std@@$0A@@std@@@std@@QAEXXZ 00436410 f i libohNetCore:CpProxy.obj
 0001:00035490       ?_Root@?$_Tree@V?$_Tmap_traits@VBrn@OpenHome@@PAVProperty@Net@2@VBufferCmp@2@V?$allocator@U?$pair@$$CBVBrn@OpenHome@@PAVProperty@Net@2@@std@@@std@@$0A@@std@@@std@@IBEAAPAU_Node@?$_Tree_nod@V?$_Tmap_traits@VBrn@OpenHome@@PAVProperty@Net@2@VBufferCmp@2@V?$allocator@U?$pair@$$CBVBrn@OpenHome@@PAVProperty@Net@2@@std@@@std@@$0A@@std@@@2@XZ 00436490 f i libohNetCore:CpProxy.obj
 0001:000354c0       ?_Color@?$_Tree_val@V?$_Tmap_traits@VBrn@OpenHome@@PAVProperty@Net@2@VBufferCmp@2@V?$allocator@U?$pair@$$CBVBrn@OpenHome@@PAVProperty@Net@2@@std@@@std@@$0A@@std@@@std@@SGAADPAU_Node@?$_Tree_nod@V?$_Tmap_traits@VBrn@OpenHome@@PAVProperty@Net@2@VBufferCmp@2@V?$allocator@U?$pair@$$CBVBrn@OpenHome@@PAVProperty@Net@2@@std@@@std@@$0A@@std@@@2@@Z 004364c0 f i libohNetCore:CpProxy.obj
 0001:000354d0       ?_Isnil@?$_Tree_val@V?$_Tmap_traits@VBrn@OpenHome@@PAVProperty@Net@2@VBufferCmp@2@V?$allocator@U?$pair@$$CBVBrn@OpenHome@@PAVProperty@Net@2@@std@@@std@@$0A@@std@@@std@@SGAADPAU_Node@?$_Tree_nod@V?$_Tmap_traits@VBrn@OpenHome@@PAVProperty@Net@2@VBufferCmp@2@V?$allocator@U?$pair@$$CBVBrn@OpenHome@@PAVProperty@Net@2@@std@@@std@@$0A@@std@@@2@@Z 004364d0 f i libohNetCore:CpProxy.obj
 0001:000354e0       ?_Parent@?$_Tree_val@V?$_Tmap_traits@VBrn@OpenHome@@PAVProperty@Net@2@VBufferCmp@2@V?$allocator@U?$pair@$$CBVBrn@OpenHome@@PAVProperty@Net@2@@std@@@std@@$0A@@std@@@std@@SGAAPAU_Node@?$_Tree_nod@V?$_Tmap_traits@VBrn@OpenHome@@PAVProperty@Net@2@VBufferCmp@2@V?$allocator@U?$pair@$$CBVBrn@OpenHome@@PAVProperty@Net@2@@std@@@std@@$0A@@std@@@2@PAU342@@Z 004364e0 f i libohNetCore:CpProxy.obj
 0001:000354f0       ?_Right@?$_Tree_val@V?$_Tmap_traits@VBrn@OpenHome@@PAVProperty@Net@2@VBufferCmp@2@V?$allocator@U?$pair@$$CBVBrn@OpenHome@@PAVProperty@Net@2@@std@@@std@@$0A@@std@@@std@@SGAAPAU_Node@?$_Tree_nod@V?$_Tmap_traits@VBrn@OpenHome@@PAVProperty@Net@2@VBufferCmp@2@V?$allocator@U?$pair@$$CBVBrn@OpenHome@@PAVProperty@Net@2@@std@@@std@@$0A@@std@@@2@PAU342@@Z 004364f0 f i libohNetCore:CpProxy.obj
 0001:00035500       ??0?$_Tree_nod@V?$_Tmap_traits@VBrn@OpenHome@@PAVProperty@Net@2@VBufferCmp@2@V?$allocator@U?$pair@$$CBVBrn@OpenHome@@PAVProperty@Net@2@@std@@@std@@$0A@@std@@@std@@QAE@ABVBufferCmp@OpenHome@@V?$allocator@U?$pair@$$CBVBrn@OpenHome@@PAVProperty@Net@2@@std@@@1@@Z 00436500 f i libohNetCore:CpProxy.obj
 0001:00035610       ?allocate@?$allocator@U_Node@?$_Tree_nod@V?$_Tmap_traits@VBrn@OpenHome@@PAVProperty@Net@2@VBufferCmp@2@V?$allocator@U?$pair@$$CBVBrn@OpenHome@@PAVProperty@Net@2@@std@@@std@@$0A@@std@@@std@@@std@@QAEPAU_Node@?$_Tree_nod@V?$_Tmap_traits@VBrn@OpenHome@@PAVProperty@Net@2@VBufferCmp@2@V?$allocator@U?$pair@$$CBVBrn@OpenHome@@PAVProperty@Net@2@@std@@@std@@$0A@@std@@@2@I@Z 00436610 f i libohNetCore:CpProxy.obj
 0001:00035640       ??E?$_Tree_const_iterator@V?$_Tree_val@V?$_Tmap_traits@VBrn@OpenHome@@PAVProperty@Net@2@VBufferCmp@2@V?$allocator@U?$pair@$$CBVBrn@OpenHome@@PAVProperty@Net@2@@std@@@std@@$0A@@std@@@std@@@std@@QAE?AV01@H@Z 00436640 f i libohNetCore:CpProxy.obj
 0001:00035710       ??0?$_Tree_unchecked_const_iterator@V?$_Tree_val@V?$_Tmap_traits@VBrn@OpenHome@@PAVProperty@Net@2@VBufferCmp@2@V?$allocator@U?$pair@$$CBVBrn@OpenHome@@PAVProperty@Net@2@@std@@@std@@$0A@@std@@@std@@U_Iterator_base12@2@@std@@QAE@PAU_Node@?$_Tree_nod@V?$_Tmap_traits@VBrn@OpenHome@@PAVProperty@Net@2@VBufferCmp@2@V?$allocator@U?$pair@$$CBVBrn@OpenHome@@PAVProperty@Net@2@@std@@@std@@$0A@@std@@@1@PBV?$_Tree_val@V?$_Tmap_traits@VBrn@OpenHome@@PAVProperty@Net@2@VBufferCmp@2@V?$allocator@U?$pair@$$CBVBrn@OpenHome@@PAVProperty@Net@2@@std@@@std@@$0A@@std@@@1@@Z 00436710 f i libohNetCore:CpProxy.obj
 0001:00035790       ??E?$_Tree_unchecked_const_iterator@V?$_Tree_val@V?$_Tmap_traits@VBrn@OpenHome@@PAVProperty@Net@2@VBufferCmp@2@V?$allocator@U?$pair@$$CBVBrn@OpenHome@@PAVProperty@Net@2@@std@@@std@@$0A@@std@@@std@@U_Iterator_base12@2@@std@@QAEAAV01@XZ 00436790 f i libohNetCore:CpProxy.obj
 0001:00035850       ??0?$_Iterator012@Ubidirectional_iterator_tag@std@@U?$pair@$$CBVBrn@OpenHome@@PAVProperty@Net@2@@2@HPBU32@ABU32@U_Iterator_base12@2@@std@@QAE@XZ 00436850 f i libohNetCore:CpProxy.obj
 0001:00035880       ?_Erase@?$_Tree@V?$_Tmap_traits@VBrn@OpenHome@@PAVProperty@Net@2@VBufferCmp@2@V?$allocator@U?$pair@$$CBVBrn@OpenHome@@PAVProperty@Net@2@@std@@@std@@$0A@@std@@@std@@IAEXPAU_Node@?$_Tree_nod@V?$_Tmap_traits@VBrn@OpenHome@@PAVProperty@Net@2@VBufferCmp@2@V?$allocator@U?$pair@$$CBVBrn@OpenHome@@PAVProperty@Net@2@@std@@@std@@$0A@@std@@@2@@Z 00436880 f i libohNetCore:CpProxy.obj
 0001:00035920       ?_Lrotate@?$_Tree@V?$_Tmap_traits@VBrn@OpenHome@@PAVProperty@Net@2@VBufferCmp@2@V?$allocator@U?$pair@$$CBVBrn@OpenHome@@PAVProperty@Net@2@@std@@@std@@$0A@@std@@@std@@IAEXPAU_Node@?$_Tree_nod@V?$_Tmap_traits@VBrn@OpenHome@@PAVProperty@Net@2@VBufferCmp@2@V?$allocator@U?$pair@$$CBVBrn@OpenHome@@PAVProperty@Net@2@@std@@@std@@$0A@@std@@@2@@Z 00436920 f i libohNetCore:CpProxy.obj
 0001:00035a40       ?_Rmost@?$_Tree@V?$_Tmap_traits@VBrn@OpenHome@@PAVProperty@Net@2@VBufferCmp@2@V?$allocator@U?$pair@$$CBVBrn@OpenHome@@PAVProperty@Net@2@@std@@@std@@$0A@@std@@@std@@IBEAAPAU_Node@?$_Tree_nod@V?$_Tmap_traits@VBrn@OpenHome@@PAVProperty@Net@2@VBufferCmp@2@V?$allocator@U?$pair@$$CBVBrn@OpenHome@@PAVProperty@Net@2@@std@@@std@@$0A@@std@@@2@XZ 00436a40 f i libohNetCore:CpProxy.obj
 0001:00035a70       ?_Rrotate@?$_Tree@V?$_Tmap_traits@VBrn@OpenHome@@PAVProperty@Net@2@VBufferCmp@2@V?$allocator@U?$pair@$$CBVBrn@OpenHome@@PAVProperty@Net@2@@std@@@std@@$0A@@std@@@std@@IAEXPAU_Node@?$_Tree_nod@V?$_Tmap_traits@VBrn@OpenHome@@PAVProperty@Net@2@VBufferCmp@2@V?$allocator@U?$pair@$$CBVBrn@OpenHome@@PAVProperty@Net@2@@std@@@std@@$0A@@std@@@2@@Z 00436a70 f i libohNetCore:CpProxy.obj
 0001:00035b90       ?_Orphan_ptr@?$_Tree@V?$_Tmap_traits@VBrn@OpenHome@@PAVProperty@Net@2@VBufferCmp@2@V?$allocator@U?$pair@$$CBVBrn@OpenHome@@PAVProperty@Net@2@@std@@@std@@$0A@@std@@@std@@IBEXAAV12@PAU_Node@?$_Tree_nod@V?$_Tmap_traits@VBrn@OpenHome@@PAVProperty@Net@2@VBufferCmp@2@V?$allocator@U?$pair@$$CBVBrn@OpenHome@@PAVProperty@Net@2@@std@@@std@@$0A@@std@@@2@@Z 00436b90 f i libohNetCore:CpProxy.obj
 0001:00035ca0       ?_Max@?$_Tree_val@V?$_Tmap_traits@VBrn@OpenHome@@PAVProperty@Net@2@VBufferCmp@2@V?$allocator@U?$pair@$$CBVBrn@OpenHome@@PAVProperty@Net@2@@std@@@std@@$0A@@std@@@std@@SGPAU_Node@?$_Tree_nod@V?$_Tmap_traits@VBrn@OpenHome@@PAVProperty@Net@2@VBufferCmp@2@V?$allocator@U?$pair@$$CBVBrn@OpenHome@@PAVProperty@Net@2@@std@@@std@@$0A@@std@@@2@PAU342@@Z 00436ca0 f i libohNetCore:CpProxy.obj
 0001:00035ce0       ?_Min@?$_Tree_val@V?$_Tmap_traits@VBrn@OpenHome@@PAVProperty@Net@2@VBufferCmp@2@V?$allocator@U?$pair@$$CBVBrn@OpenHome@@PAVProperty@Net@2@@std@@@std@@$0A@@std@@@std@@SGPAU_Node@?$_Tree_nod@V?$_Tmap_traits@VBrn@OpenHome@@PAVProperty@Net@2@VBufferCmp@2@V?$allocator@U?$pair@$$CBVBrn@OpenHome@@PAVProperty@Net@2@@std@@@std@@$0A@@std@@@2@PAU342@@Z 00436ce0 f i libohNetCore:CpProxy.obj
 0001:00035d20       ??0?$_Tmap_traits@VBrn@OpenHome@@PAVProperty@Net@2@VBufferCmp@2@V?$allocator@U?$pair@$$CBVBrn@OpenHome@@PAVProperty@Net@2@@std@@@std@@$0A@@std@@QAE@VBufferCmp@OpenHome@@@Z 00436d20 f i libohNetCore:CpProxy.obj
 0001:00035d50       ??$?0AAVBrn@OpenHome@@AAPAVProperty@Net@1@@?$pair@VBrn@OpenHome@@PAVProperty@Net@2@@std@@QAE@AAVBrn@OpenHome@@AAPAVProperty@Net@3@@Z 00436d50 f i libohNetCore:CpProxy.obj
 0001:00035d90       ??$insert@U?$pair@VBrn@OpenHome@@PAVProperty@Net@2@@std@@@?$_Tree@V?$_Tmap_traits@VBrn@OpenHome@@PAVProperty@Net@2@VBufferCmp@2@V?$allocator@U?$pair@$$CBVBrn@OpenHome@@PAVProperty@Net@2@@std@@@std@@$0A@@std@@@std@@QAE?AU?$pair@V?$_Tree_iterator@V?$_Tree_val@V?$_Tmap_traits@VBrn@OpenHome@@PAVProperty@Net@2@VBufferCmp@2@V?$allocator@U?$pair@$$CBVBrn@OpenHome@@PAVProperty@Net@2@@std@@@std@@$0A@@std@@@std@@@std@@_N@1@$$QAU?$pair@VBrn@OpenHome@@PAVProperty@Net@2@@1@@Z 00436d90 f i libohNetCore:CpProxy.obj
 0001:00035df0       ??$_Kfn@$$CBVBrn@OpenHome@@PAVProperty@Net@2@@?$_Tmap_traits@VBrn@OpenHome@@PAVProperty@Net@2@VBufferCmp@2@V?$allocator@U?$pair@$$CBVBrn@OpenHome@@PAVProperty@Net@2@@std@@@std@@$0A@@std@@SGABVBrn@OpenHome@@ABU?$pair@$$CBVBrn@OpenHome@@PAVProperty@Net@2@@1@@Z 00436df0 f i libohNetCore:CpProxy.obj
 0001:00035e00       ??$?0U_Node@?$_Tree_nod@V?$_Tmap_traits@VBrn@OpenHome@@PAVProperty@Net@2@VBufferCmp@2@V?$allocator@U?$pair@$$CBVBrn@OpenHome@@PAVProperty@Net@2@@std@@@std@@$0A@@std@@@std@@@?$allocator@U_Container_proxy@std@@@std@@QAE@ABV?$allocator@U_Node@?$_Tree_nod@V?$_Tmap_traits@VBrn@OpenHome@@PAVProperty@Net@2@VBufferCmp@2@V?$allocator@U?$pair@$$CBVBrn@OpenHome@@PAVProperty@Net@2@@std@@@std@@$0A@@std@@@std@@@1@@Z 00436e00 f i libohNetCore:CpProxy.obj
 0001:00035e20       ??$addressof@U?$pair@$$CBVBrn@OpenHome@@PAVProperty@Net@2@@std@@@std@@YGPAU?$pair@$$CBVBrn@OpenHome@@PAVProperty@Net@2@@0@AAU10@@Z 00436e20 f i libohNetCore:CpProxy.obj
 0001:00035e30       ??$_Dest_val@V?$allocator@U?$pair@$$CBVBrn@OpenHome@@PAVProperty@Net@2@@std@@@std@@U?$pair@$$CBVBrn@OpenHome@@PAVProperty@Net@2@@2@@std@@YGXAAV?$allocator@U?$pair@$$CBVBrn@OpenHome@@PAVProperty@Net@2@@std@@@0@PAU?$pair@$$CBVBrn@OpenHome@@PAVProperty@Net@2@@0@@Z 00436e30 f i libohNetCore:CpProxy.obj
 0001:00035e50       ??$?0U?$pair@$$CBVBrn@OpenHome@@PAVProperty@Net@2@@std@@@?$allocator@U_Node@?$_Tree_nod@V?$_Tmap_traits@VBrn@OpenHome@@PAVProperty@Net@2@VBufferCmp@2@V?$allocator@U?$pair@$$CBVBrn@OpenHome@@PAVProperty@Net@2@@std@@@std@@$0A@@std@@@std@@@std@@QAE@ABV?$allocator@U?$pair@$$CBVBrn@OpenHome@@PAVProperty@Net@2@@std@@@1@@Z 00436e50 f i libohNetCore:CpProxy.obj
 0001:00035e70       ??$_Allocate@U_Node@?$_Tree_nod@V?$_Tmap_traits@VBrn@OpenHome@@PAVProperty@Net@2@VBufferCmp@2@V?$allocator@U?$pair@$$CBVBrn@OpenHome@@PAVProperty@Net@2@@std@@@std@@$0A@@std@@@std@@@std@@YGPAU_Node@?$_Tree_nod@V?$_Tmap_traits@VBrn@OpenHome@@PAVProperty@Net@2@VBufferCmp@2@V?$allocator@U?$pair@$$CBVBrn@OpenHome@@PAVProperty@Net@2@@std@@@std@@$0A@@std@@@0@IPAU120@@Z 00436e70 f i libohNetCore:CpProxy.obj
 0001:00035ef0       ?_Linsert@?$_Tree@V?$_Tmap_traits@VBrn@OpenHome@@PAVProperty@Net@2@VBufferCmp@2@V?$allocator@U?$pair@$$CBVBrn@OpenHome@@PAVProperty@Net@2@@std@@@std@@$0A@@std@@@std@@QAE?AU?$pair@V?$_Tree_iterator@V?$_Tree_val@V?$_Tmap_traits@VBrn@OpenHome@@PAVProperty@Net@2@VBufferCmp@2@V?$allocator@U?$pair@$$CBVBrn@OpenHome@@PAVProperty@Net@2@@std@@@std@@$0A@@std@@@std@@@std@@_N@2@PAU_Node@?$_Tree_nod@V?$_Tmap_traits@VBrn@OpenHome@@PAVProperty@Net@2@VBufferCmp@2@V?$allocator@U?$pair@$$CBVBrn@OpenHome@@PAVProperty@Net@2@@std@@@std@@$0A@@std@@@2@_N@Z 00436ef0 f i libohNetCore:CpProxy.obj
 0001:000362d0       ?destroy@?$allocator@U?$pair@$$CBVBrn@OpenHome@@PAVProperty@Net@2@@std@@@std@@QAEXPAU?$pair@$$CBVBrn@OpenHome@@PAVProperty@Net@2@@2@@Z 004372d0 f i libohNetCore:CpProxy.obj
 0001:00036300       ?_Insert@?$_Tree@V?$_Tmap_traits@VBrn@OpenHome@@PAVProperty@Net@2@VBufferCmp@2@V?$allocator@U?$pair@$$CBVBrn@OpenHome@@PAVProperty@Net@2@@std@@@std@@$0A@@std@@@std@@IAE?AV?$_Tree_iterator@V?$_Tree_val@V?$_Tmap_traits@VBrn@OpenHome@@PAVProperty@Net@2@VBufferCmp@2@V?$allocator@U?$pair@$$CBVBrn@OpenHome@@PAVProperty@Net@2@@std@@@std@@$0A@@std@@@std@@@2@_NPAU_Node@?$_Tree_nod@V?$_Tmap_traits@VBrn@OpenHome@@PAVProperty@Net@2@VBufferCmp@2@V?$allocator@U?$pair@$$CBVBrn@OpenHome@@PAVProperty@Net@2@@std@@@std@@$0A@@std@@@2@1@Z 00437300 f i libohNetCore:CpProxy.obj
 0001:000366c0       ??F?$_Tree_iterator@V?$_Tree_val@V?$_Tmap_traits@VBrn@OpenHome@@PAVProperty@Net@2@VBufferCmp@2@V?$allocator@U?$pair@$$CBVBrn@OpenHome@@PAVProperty@Net@2@@std@@@std@@$0A@@std@@@std@@@std@@QAEAAV01@XZ 004376c0 f i libohNetCore:CpProxy.obj
 0001:000366f0       ??0?$pair@V?$_Tree_iterator@V?$_Tree_val@V?$_Tmap_traits@VBrn@OpenHome@@PAVProperty@Net@2@VBufferCmp@2@V?$allocator@U?$pair@$$CBVBrn@OpenHome@@PAVProperty@Net@2@@std@@@std@@$0A@@std@@@std@@@std@@_N@std@@QAE@$$QAV?$_Tree_iterator@V?$_Tree_val@V?$_Tmap_traits@VBrn@OpenHome@@PAVProperty@Net@2@VBufferCmp@2@V?$allocator@U?$pair@$$CBVBrn@OpenHome@@PAVProperty@Net@2@@std@@@std@@$0A@@std@@@std@@@1@$$QA_N@Z 004376f0 f i libohNetCore:CpProxy.obj
 0001:00036730       ?max_size@?$_Tree@V?$_Tmap_traits@VBrn@OpenHome@@PAVProperty@Net@2@VBufferCmp@2@V?$allocator@U?$pair@$$CBVBrn@OpenHome@@PAVProperty@Net@2@@std@@@std@@$0A@@std@@@std@@QBEIXZ 00437730 f i libohNetCore:CpProxy.obj
 0001:00036760       ??F?$_Tree_const_iterator@V?$_Tree_val@V?$_Tmap_traits@VBrn@OpenHome@@PAVProperty@Net@2@VBufferCmp@2@V?$allocator@U?$pair@$$CBVBrn@OpenHome@@PAVProperty@Net@2@@std@@@std@@$0A@@std@@@std@@@std@@QAEAAV01@XZ 00437760 f i libohNetCore:CpProxy.obj
 0001:00036880       ??0?$_Pair_base@V?$_Tree_iterator@V?$_Tree_val@V?$_Tmap_traits@VBrn@OpenHome@@PAVProperty@Net@2@VBufferCmp@2@V?$allocator@U?$pair@$$CBVBrn@OpenHome@@PAVProperty@Net@2@@std@@@std@@$0A@@std@@@std@@@std@@_N@std@@QAE@$$QAV?$_Tree_iterator@V?$_Tree_val@V?$_Tmap_traits@VBrn@OpenHome@@PAVProperty@Net@2@VBufferCmp@2@V?$allocator@U?$pair@$$CBVBrn@OpenHome@@PAVProperty@Net@2@@std@@@std@@$0A@@std@@@std@@@1@$$QA_N@Z 00437880 f i libohNetCore:CpProxy.obj
 0001:00036900       ?max_size@?$allocator@U?$pair@$$CBVBrn@OpenHome@@PAVProperty@Net@2@@std@@@std@@QBEIXZ 00437900 f i libohNetCore:CpProxy.obj
 0001:00036950       ??F?$_Tree_unchecked_const_iterator@V?$_Tree_val@V?$_Tmap_traits@VBrn@OpenHome@@PAVProperty@Net@2@VBufferCmp@2@V?$allocator@U?$pair@$$CBVBrn@OpenHome@@PAVProperty@Net@2@@std@@@std@@$0A@@std@@@std@@U_Iterator_base12@2@@std@@QAEAAV01@XZ 00437950 f i libohNetCore:CpProxy.obj
 0001:00036a40       ??$forward@AAPAVProperty@Net@OpenHome@@@std@@YGAAPAVProperty@Net@OpenHome@@AAPAV123@@Z 00437a40 f i libohNetCore:CpProxy.obj
 0001:00036a50       ??$?0AAVBrn@OpenHome@@AAPAVProperty@Net@1@@?$_Pair_base@VBrn@OpenHome@@PAVProperty@Net@2@@std@@QAE@AAVBrn@OpenHome@@AAPAVProperty@Net@3@@Z 00437a50 f i libohNetCore:CpProxy.obj
 0001:00036ad0       ??$forward@U?$pair@VBrn@OpenHome@@PAVProperty@Net@2@@std@@@std@@YG$$QAU?$pair@VBrn@OpenHome@@PAVProperty@Net@2@@0@AAU10@@Z 00437ad0 f i libohNetCore:CpProxy.obj
 0001:00036ae0       ??$_Buynode@U?$pair@VBrn@OpenHome@@PAVProperty@Net@2@@std@@@?$_Tree_val@V?$_Tmap_traits@VBrn@OpenHome@@PAVProperty@Net@2@VBufferCmp@2@V?$allocator@U?$pair@$$CBVBrn@OpenHome@@PAVProperty@Net@2@@std@@@std@@$0A@@std@@@std@@QAEPAU_Node@?$_Tree_nod@V?$_Tmap_traits@VBrn@OpenHome@@PAVProperty@Net@2@VBufferCmp@2@V?$allocator@U?$pair@$$CBVBrn@OpenHome@@PAVProperty@Net@2@@std@@@std@@$0A@@std@@@1@$$QAU?$pair@VBrn@OpenHome@@PAVProperty@Net@2@@1@@Z 00437ae0 f i libohNetCore:CpProxy.obj
 0001:00036bc0       ??$?0AAV?$_Tree_iterator@V?$_Tree_val@V?$_Tmap_traits@VBrn@OpenHome@@PAVProperty@Net@2@VBufferCmp@2@V?$allocator@U?$pair@$$CBVBrn@OpenHome@@PAVProperty@Net@2@@std@@@std@@$0A@@std@@@std@@@std@@_N@?$pair@V?$_Tree_iterator@V?$_Tree_val@V?$_Tmap_traits@VBrn@OpenHome@@PAVProperty@Net@2@VBufferCmp@2@V?$allocator@U?$pair@$$CBVBrn@OpenHome@@PAVProperty@Net@2@@std@@@std@@$0A@@std@@@std@@@std@@_N@std@@QAE@AAV?$_Tree_iterator@V?$_Tree_val@V?$_Tmap_traits@VBrn@OpenHome@@PAVProperty@Net@2@VBufferCmp@2@V?$allocator@U?$pair@$$CBVBrn@OpenHome@@PAVProperty@Net@2@@std@@@std@@$0A@@std@@@std@@@1@$$QA_N@Z 00437bc0 f i libohNetCore:CpProxy.obj
 0001:00036c00       ??$_Destroy@U?$pair@$$CBVBrn@OpenHome@@PAVProperty@Net@2@@std@@@std@@YGXPAU?$pair@$$CBVBrn@OpenHome@@PAVProperty@Net@2@@0@@Z 00437c00 f i libohNetCore:CpProxy.obj
 0001:00036c20       ??$move@AAV?$_Tree_iterator@V?$_Tree_val@V?$_Tmap_traits@VBrn@OpenHome@@PAVProperty@Net@2@VBufferCmp@2@V?$allocator@U?$pair@$$CBVBrn@OpenHome@@PAVProperty@Net@2@@std@@@std@@$0A@@std@@@std@@@std@@@std@@YG$$QAV?$_Tree_iterator@V?$_Tree_val@V?$_Tmap_traits@VBrn@OpenHome@@PAVProperty@Net@2@VBufferCmp@2@V?$allocator@U?$pair@$$CBVBrn@OpenHome@@PAVProperty@Net@2@@std@@@std@@$0A@@std@@@std@@@0@AAV10@@Z 00437c20 f i libohNetCore:CpProxy.obj
 0001:00036c30       ??_G?$pair@$$CBVBrn@OpenHome@@PAVProperty@Net@2@@std@@QAEPAXI@Z 00437c30 f i libohNetCore:CpProxy.obj
 0001:00036c70       ??1?$pair@$$CBVBrn@OpenHome@@PAVProperty@Net@2@@std@@QAE@XZ 00437c70 f i libohNetCore:CpProxy.obj
 0001:00036ca0       ??1?$_Pair_base@$$CBVBrn@OpenHome@@PAVProperty@Net@2@@std@@QAE@XZ 00437ca0 f i libohNetCore:CpProxy.obj
 0001:00036cd0       ?_Buynode@?$_Tree_val@V?$_Tmap_traits@VBrn@OpenHome@@PAVProperty@Net@2@VBufferCmp@2@V?$allocator@U?$pair@$$CBVBrn@OpenHome@@PAVProperty@Net@2@@std@@@std@@$0A@@std@@@std@@QAEPAU_Node@?$_Tree_nod@V?$_Tmap_traits@VBrn@OpenHome@@PAVProperty@Net@2@VBufferCmp@2@V?$allocator@U?$pair@$$CBVBrn@OpenHome@@PAVProperty@Net@2@@std@@@std@@$0A@@std@@@2@XZ 00437cd0 f i libohNetCore:CpProxy.obj
 0001:00036d60       ??$_Cons_val@V?$allocator@U?$pair@$$CBVBrn@OpenHome@@PAVProperty@Net@2@@std@@@std@@U?$pair@$$CBVBrn@OpenHome@@PAVProperty@Net@2@@2@U?$pair@VBrn@OpenHome@@PAVProperty@Net@2@@2@@std@@YGXAAV?$allocator@U?$pair@$$CBVBrn@OpenHome@@PAVProperty@Net@2@@std@@@0@PAU?$pair@$$CBVBrn@OpenHome@@PAVProperty@Net@2@@0@$$QAU?$pair@VBrn@OpenHome@@PAVProperty@Net@2@@0@@Z 00437d60 f i libohNetCore:CpProxy.obj
 0001:00036d90       ??$forward@AAV?$_Tree_iterator@V?$_Tree_val@V?$_Tmap_traits@VBrn@OpenHome@@PAVProperty@Net@2@VBufferCmp@2@V?$allocator@U?$pair@$$CBVBrn@OpenHome@@PAVProperty@Net@2@@std@@@std@@$0A@@std@@@std@@@std@@@std@@YGAAV?$_Tree_iterator@V?$_Tree_val@V?$_Tmap_traits@VBrn@OpenHome@@PAVProperty@Net@2@VBufferCmp@2@V?$allocator@U?$pair@$$CBVBrn@OpenHome@@PAVProperty@Net@2@@std@@@std@@$0A@@std@@@std@@@0@AAV10@@Z 00437d90 f i libohNetCore:CpProxy.obj
 0001:00036da0       ??$?0AAV?$_Tree_iterator@V?$_Tree_val@V?$_Tmap_traits@VBrn@OpenHome@@PAVProperty@Net@2@VBufferCmp@2@V?$allocator@U?$pair@$$CBVBrn@OpenHome@@PAVProperty@Net@2@@std@@@std@@$0A@@std@@@std@@@std@@_N@?$_Pair_base@V?$_Tree_iterator@V?$_Tree_val@V?$_Tmap_traits@VBrn@OpenHome@@PAVProperty@Net@2@VBufferCmp@2@V?$allocator@U?$pair@$$CBVBrn@OpenHome@@PAVProperty@Net@2@@std@@@std@@$0A@@std@@@std@@@std@@_N@std@@QAE@AAV?$_Tree_iterator@V?$_Tree_val@V?$_Tmap_traits@VBrn@OpenHome@@PAVProperty@Net@2@VBufferCmp@2@V?$allocator@U?$pair@$$CBVBrn@OpenHome@@PAVProperty@Net@2@@std@@@std@@$0A@@std@@@std@@@1@$$QA_N@Z 00437da0 f i libohNetCore:CpProxy.obj
 0001:00036e20       ??$construct@U?$pair@VBrn@OpenHome@@PAVProperty@Net@2@@std@@@?$allocator@U?$pair@$$CBVBrn@OpenHome@@PAVProperty@Net@2@@std@@@std@@QAEXPAU?$pair@$$CBVBrn@OpenHome@@PAVProperty@Net@2@@1@$$QAU?$pair@VBrn@OpenHome@@PAVProperty@Net@2@@1@@Z 00437e20 f i libohNetCore:CpProxy.obj
 0001:00036ec0       ??$?0VBrn@OpenHome@@PAVProperty@Net@1@@?$pair@$$CBVBrn@OpenHome@@PAVProperty@Net@2@@std@@QAE@$$QAU?$pair@VBrn@OpenHome@@PAVProperty@Net@2@@1@@Z 00437ec0 f i libohNetCore:CpProxy.obj
 0001:00036f00       ??$forward@PAVProperty@Net@OpenHome@@@std@@YG$$QAPAVProperty@Net@OpenHome@@AAPAV123@@Z 00437f00 f i libohNetCore:CpProxy.obj
 0001:00036f10       ??$?0VBrn@OpenHome@@PAVProperty@Net@1@@?$_Pair_base@$$CBVBrn@OpenHome@@PAVProperty@Net@2@@std@@QAE@$$QAVBrn@OpenHome@@$$QAPAVProperty@Net@3@@Z 00437f10 f i libohNetCore:CpProxy.obj
 0001:00036f90       ??0Parser@OpenHome@@QAE@XZ 00437f90 f   libohNetCore:Parser.obj
 0001:00036fd0       ??0Parser@OpenHome@@QAE@ABVBrx@1@@Z 00437fd0 f   libohNetCore:Parser.obj
 0001:00037010       ?Set@Parser@OpenHome@@QAEXABVBrx@2@@Z 00438010 f   libohNetCore:Parser.obj
 0001:00037050       ?Finished@Parser@OpenHome@@QBE_NXZ 00438050 f   libohNetCore:Parser.obj
 0001:00037090       ?Restart@Parser@OpenHome@@QAEXXZ 00438090 f   libohNetCore:Parser.obj
 0001:000370b0       ?At@Parser@OpenHome@@QAEDH@Z 004380b0 f   libohNetCore:Parser.obj
 0001:000370f0       ?Back@Parser@OpenHome@@QAEXI@Z 004380f0 f   libohNetCore:Parser.obj
 0001:00037140       ?Forward@Parser@OpenHome@@QAEXI@Z 00438140 f   libohNetCore:Parser.obj
 0001:00037190       ?Remaining@Parser@OpenHome@@QAE?AVBrn@2@XZ 00438190 f   libohNetCore:Parser.obj
 0001:000371e0       ?Next@Parser@OpenHome@@QAE?AVBrn@2@E@Z 004381e0 f   libohNetCore:Parser.obj
 0001:00037360       ?Next@Parser@OpenHome@@QAE?AVBrn@2@XZ 00438360 f   libohNetCore:Parser.obj
 0001:000373b0       ?NextNth@Parser@OpenHome@@QAE?AVBrn@2@IE@Z 004383b0 f   libohNetCore:Parser.obj
 0001:00037430       ?NextNoTrim@Parser@OpenHome@@QAE?AVBrn@2@E@Z 00438430 f   libohNetCore:Parser.obj
 0001:00037530       ?NextLine@Parser@OpenHome@@QAE?AVBrn@2@XZ 00438530 f   libohNetCore:Parser.obj
 0001:000376d0       ?NextToEnd@Parser@OpenHome@@QAE?AVBrn@2@XZ 004386d0 f   libohNetCore:Parser.obj
 0001:00037810       ?Set@Brn@OpenHome@@QAEXABVBrx@2@@Z 00438810 f i libohNetCore:Parser.obj
 0001:00037860       ?Find@XmlParserBasic@Net@OpenHome@@SG?AVBrn@3@PBDABVBrx@3@@Z 00438860 f   libohNetCore:XmlParser.obj
 0001:00037930       ?Find@XmlParserBasic@Net@OpenHome@@SG?AVBrn@3@ABVBrx@3@0@Z 00438930 f   libohNetCore:XmlParser.obj
 0001:00037a00       ?Find@XmlParserBasic@Net@OpenHome@@SG?AVBrn@3@PBDABVBrx@3@AAV43@@Z 00438a00 f   libohNetCore:XmlParser.obj
 0001:00037ad0       ?Find@XmlParserBasic@Net@OpenHome@@SG?AVBrn@3@ABVBrx@3@0AAV43@@Z 00438ad0 f   libohNetCore:XmlParser.obj
 0001:00038010       ?NextTag@XmlParserBasic@Net@OpenHome@@CGXABVBrx@3@AAVBrn@3@11AAI1AAW4ETagType@123@@Z 00439010 f   libohNetCore:XmlParser.obj
 0001:00038760       ?FindAttribute@XmlParserBasic@Net@OpenHome@@SG?AVBrn@3@PBD0ABVBrx@3@@Z 00439760 f   libohNetCore:XmlParser.obj
 0001:00038860       ?FindAttribute@XmlParserBasic@Net@OpenHome@@SG?AVBrn@3@ABVBrx@3@00@Z 00439860 f   libohNetCore:XmlParser.obj
 0001:00038cf0       ??0Brn@OpenHome@@QAE@XZ    00439cf0 f i libohNetCore:XmlParser.obj
 0001:00038d30       ??0XmlError@OpenHome@@QAE@PBDI@Z 00439d30 f i libohNetCore:XmlParser.obj
 0001:00038d70       ??1XmlError@OpenHome@@QAE@XZ 00439d70 f i libohNetCore:XmlParser.obj
 0001:00038da0       ?Functor@SyncProxyAction@Net@OpenHome@@QAEAAVFunctorAsync@23@XZ 00439da0 f   libohNetCore:AsyncPrivate.obj
 0001:00038dc0       ?Wait@SyncProxyAction@Net@OpenHome@@QAEXXZ 00439dc0 f   libohNetCore:AsyncPrivate.obj
 0001:00038e90       ??0SyncProxyAction@Net@OpenHome@@IAE@XZ 00439e90 f   libohNetCore:AsyncPrivate.obj
 0001:00038f60       ??1SyncProxyAction@Net@OpenHome@@IAE@XZ 00439f60 f   libohNetCore:AsyncPrivate.obj
 0001:00038f90       ?Completed@SyncProxyAction@Net@OpenHome@@AAEXAAVIAsync@23@@Z 00439f90 f   libohNetCore:AsyncPrivate.obj
 0001:000390a0       ??$MakeFunctorAsync@VSyncProxyAction@Net@OpenHome@@V123@@Net@OpenHome@@YG?AV?$MemberTranslatorAsync@VSyncProxyAction@Net@OpenHome@@P8123@AEXAAVIAsync@23@@Z@01@AAVSyncProxyAction@01@ABQ8301@AEXAAVIAsync@01@@Z@Z 0043a0a0 f i libohNetCore:AsyncPrivate.obj
 0001:000390d0       ??0?$MemberTranslatorAsync@VSyncProxyAction@Net@OpenHome@@P8123@AEXAAVIAsync@23@@Z@Net@OpenHome@@QAE@AAVSyncProxyAction@12@ABQ8312@AEXAAVIAsync@12@@Z@Z 0043a0d0 f i libohNetCore:AsyncPrivate.obj
 0001:00039110       ?Thunk@?$MemberTranslatorAsync@VSyncProxyAction@Net@OpenHome@@P8123@AEXAAVIAsync@23@@Z@Net@OpenHome@@SGXABVFunctorAsync@23@AAVIAsync@23@@Z 0043a110 f i libohNetCore:AsyncPrivate.obj
 0001:00039160       ??0Parameter@Net@OpenHome@@IAE@PBDW4EType@012@@Z 0043a160 f   libohNetCore:Service.obj
 0001:000391b0       ??1Parameter@Net@OpenHome@@UAE@XZ 0043a1b0 f   libohNetCore:Service.obj
 0001:000391e0       ?Name@Parameter@Net@OpenHome@@QBEABVBrx@3@XZ 0043a1e0 f   libohNetCore:Service.obj
 0001:00039200       ?Type@Parameter@Net@OpenHome@@QBE?AW4EType@123@XZ 0043a200 f   libohNetCore:Service.obj
 0001:00039220       ?ValidateBool@Parameter@Net@OpenHome@@UBEX_N@Z 0043a220 f   libohNetCore:Service.obj
 0001:00039250       ?ValidateInt@Parameter@Net@OpenHome@@UBEXH@Z 0043a250 f   libohNetCore:Service.obj
 0001:00039280       ?ValidateUint@Parameter@Net@OpenHome@@UBEXI@Z 0043a280 f   libohNetCore:Service.obj
 0001:000392b0       ?ValidateString@Parameter@Net@OpenHome@@UBEXABVBrx@3@@Z 0043a2b0 f   libohNetCore:Service.obj
 0001:000392e0       ?ValidateBinary@Parameter@Net@OpenHome@@UBEXABVBrx@3@@Z 0043a2e0 f   libohNetCore:Service.obj
 0001:00039310       ??0ParameterBool@Net@OpenHome@@QAE@PBD@Z 0043a310 f   libohNetCore:Service.obj
 0001:00039350       ??1ParameterBool@Net@OpenHome@@UAE@XZ 0043a350 f   libohNetCore:Service.obj
 0001:00039380       ?ValidateBool@ParameterBool@Net@OpenHome@@UBEX_N@Z 0043a380 f   libohNetCore:Service.obj
 0001:000393a0       ??0ParameterInt@Net@OpenHome@@QAE@PBDHHH@Z 0043a3a0 f   libohNetCore:Service.obj
 0001:00039470       ??1ParameterInt@Net@OpenHome@@UAE@XZ 0043a470 f   libohNetCore:Service.obj
 0001:000394a0       ?ValidateInt@ParameterInt@Net@OpenHome@@UBEXH@Z 0043a4a0 f   libohNetCore:Service.obj
 0001:00039580       ?MinValue@ParameterInt@Net@OpenHome@@QBEHXZ 0043a580 f   libohNetCore:Service.obj
 0001:000395a0       ?MaxValue@ParameterInt@Net@OpenHome@@QBEHXZ 0043a5a0 f   libohNetCore:Service.obj
 0001:000395c0       ?Step@ParameterInt@Net@OpenHome@@QBEHXZ 0043a5c0 f   libohNetCore:Service.obj
 0001:000395e0       ??0ParameterUint@Net@OpenHome@@QAE@PBDIII@Z 0043a5e0 f   libohNetCore:Service.obj
 0001:000396b0       ??1ParameterUint@Net@OpenHome@@UAE@XZ 0043a6b0 f   libohNetCore:Service.obj
 0001:000396e0       ?ValidateUint@ParameterUint@Net@OpenHome@@UBEXI@Z 0043a6e0 f   libohNetCore:Service.obj
 0001:000397d0       ?MinValue@ParameterUint@Net@OpenHome@@QBEIXZ 0043a7d0 f   libohNetCore:Service.obj
 0001:000397f0       ?MaxValue@ParameterUint@Net@OpenHome@@QBEIXZ 0043a7f0 f   libohNetCore:Service.obj
 0001:00039810       ?Step@ParameterUint@Net@OpenHome@@QBEIXZ 0043a810 f   libohNetCore:Service.obj
 0001:00039830       ??0ParameterString@Net@OpenHome@@QAE@PBD@Z 0043a830 f   libohNetCore:Service.obj
 0001:000398b0       ??0ParameterString@Net@OpenHome@@QAE@PBDPAPADI@Z 0043a8b0 f   libohNetCore:Service.obj
 0001:00039a40       ??1ParameterString@Net@OpenHome@@UAE@XZ 0043aa40 f   libohNetCore:Service.obj
 0001:00039bc0       ?ValidateString@ParameterString@Net@OpenHome@@UBEXABVBrx@3@@Z 0043abc0 f   libohNetCore:Service.obj
 0001:00039d40       ?AllowedValues@ParameterString@Net@OpenHome@@QBEABV?$map@VBrn@OpenHome@@PAVBrh@2@VBufferCmp@2@V?$allocator@U?$pair@$$CBVBrn@OpenHome@@PAVBrh@2@@std@@@std@@@std@@XZ 0043ad40 f   libohNetCore:Service.obj
 0001:00039d60       ??0ParameterBinary@Net@OpenHome@@QAE@PBD@Z 0043ad60 f   libohNetCore:Service.obj
 0001:00039da0       ??1ParameterBinary@Net@OpenHome@@UAE@XZ 0043ada0 f   libohNetCore:Service.obj
 0001:00039dd0       ?ValidateBinary@ParameterBinary@Net@OpenHome@@UBEXABVBrx@3@@Z 0043add0 f   libohNetCore:Service.obj
 0001:00039df0       ??0ParameterRelated@Net@OpenHome@@QAE@PBDABVProperty@12@@Z 0043adf0 f   libohNetCore:Service.obj
 0001:00039e40       ??1ParameterRelated@Net@OpenHome@@UAE@XZ 0043ae40 f   libohNetCore:Service.obj
 0001:00039e70       ?Related@ParameterRelated@Net@OpenHome@@QBEABVProperty@23@XZ 0043ae70 f   libohNetCore:Service.obj
 0001:00039e90       ?Parameter@Property@Net@OpenHome@@QBEABV023@XZ 0043ae90 f   libohNetCore:Service.obj
 0001:00039eb0       ?SequenceNumber@Property@Net@OpenHome@@QBEIXZ 0043aeb0 f   libohNetCore:Service.obj
 0001:00039ed0       ?ReportChanged@Property@Net@OpenHome@@QAE_NXZ 0043aed0 f   libohNetCore:Service.obj
 0001:00039f10       ??0Property@Net@OpenHome@@IAE@PAVParameter@12@AAVFunctor@2@@Z 0043af10 f   libohNetCore:Service.obj
 0001:00039fb0       ??0Property@Net@OpenHome@@IAE@PAVParameter@12@@Z 0043afb0 f   libohNetCore:Service.obj
 0001:0003a040       ?Construct@Property@Net@OpenHome@@AAEXPAVParameter@23@@Z 0043b040 f   libohNetCore:Service.obj
 0001:0003a0b0       ??1Property@Net@OpenHome@@UAE@XZ 0043b0b0 f   libohNetCore:Service.obj
 0001:0003a120       ??0PropertyString@Net@OpenHome@@QAE@PBDAAVFunctor@2@@Z 0043b120 f   libohNetCore:Service.obj
 0001:0003a1f0       ??0PropertyString@Net@OpenHome@@QAE@PAVParameter@12@@Z 0043b1f0 f   libohNetCore:Service.obj
 0001:0003a270       ??1PropertyString@Net@OpenHome@@UAE@XZ 0043b270 f   libohNetCore:Service.obj
 0001:0003a2e0       ?Value@PropertyString@Net@OpenHome@@QBEABVBrx@3@XZ 0043b2e0 f   libohNetCore:Service.obj
 0001:0003a3b0       ?Process@PropertyString@Net@OpenHome@@UAEXAAVIOutputProcessor@23@ABVBrx@3@@Z 0043b3b0 f   libohNetCore:Service.obj
 0001:0003a4f0       ?SetValue@PropertyString@Net@OpenHome@@QAE_NABVBrx@3@@Z 0043b4f0 f   libohNetCore:Service.obj
 0001:0003a5f0       ?Write@PropertyString@Net@OpenHome@@UAEXAAVIPropertyWriter@23@@Z 0043b5f0 f   libohNetCore:Service.obj
 0001:0003a640       ??0PropertyInt@Net@OpenHome@@QAE@PBDAAVFunctor@2@@Z 0043b640 f   libohNetCore:Service.obj
 0001:0003a700       ??0PropertyInt@Net@OpenHome@@QAE@PAVParameter@12@@Z 0043b700 f   libohNetCore:Service.obj
 0001:0003a740       ??1PropertyInt@Net@OpenHome@@UAE@XZ 0043b740 f   libohNetCore:Service.obj
 0001:0003a770       ?Value@PropertyInt@Net@OpenHome@@QBEHXZ 0043b770 f   libohNetCore:Service.obj
 0001:0003a7e0       ?Process@PropertyInt@Net@OpenHome@@UAEXAAVIOutputProcessor@23@ABVBrx@3@@Z 0043b7e0 f   libohNetCore:Service.obj
 0001:0003a8e0       ?SetValue@PropertyInt@Net@OpenHome@@QAE_NH@Z 0043b8e0 f   libohNetCore:Service.obj
 0001:0003a9d0       ?Write@PropertyInt@Net@OpenHome@@UAEXAAVIPropertyWriter@23@@Z 0043b9d0 f   libohNetCore:Service.obj
 0001:0003aa20       ??0PropertyUint@Net@OpenHome@@QAE@PBDAAVFunctor@2@@Z 0043ba20 f   libohNetCore:Service.obj
 0001:0003aae0       ??0PropertyUint@Net@OpenHome@@QAE@PAVParameter@12@@Z 0043bae0 f   libohNetCore:Service.obj
 0001:0003ab20       ??1PropertyUint@Net@OpenHome@@UAE@XZ 0043bb20 f   libohNetCore:Service.obj
 0001:0003ab50       ?Value@PropertyUint@Net@OpenHome@@QBEIXZ 0043bb50 f   libohNetCore:Service.obj
 0001:0003abc0       ?Process@PropertyUint@Net@OpenHome@@UAEXAAVIOutputProcessor@23@ABVBrx@3@@Z 0043bbc0 f   libohNetCore:Service.obj
 0001:0003acc0       ?SetValue@PropertyUint@Net@OpenHome@@QAE_NI@Z 0043bcc0 f   libohNetCore:Service.obj
 0001:0003adb0       ?Write@PropertyUint@Net@OpenHome@@UAEXAAVIPropertyWriter@23@@Z 0043bdb0 f   libohNetCore:Service.obj
 0001:0003ae00       ??0PropertyBool@Net@OpenHome@@QAE@PBDAAVFunctor@2@@Z 0043be00 f   libohNetCore:Service.obj
 0001:0003aeb0       ??0PropertyBool@Net@OpenHome@@QAE@PAVParameter@12@@Z 0043beb0 f   libohNetCore:Service.obj
 0001:0003aef0       ??1PropertyBool@Net@OpenHome@@UAE@XZ 0043bef0 f   libohNetCore:Service.obj
 0001:0003af20       ?Value@PropertyBool@Net@OpenHome@@QBE_NXZ 0043bf20 f   libohNetCore:Service.obj
 0001:0003af90       ?Process@PropertyBool@Net@OpenHome@@UAEXAAVIOutputProcessor@23@ABVBrx@3@@Z 0043bf90 f   libohNetCore:Service.obj
 0001:0003b090       ?SetValue@PropertyBool@Net@OpenHome@@QAE_N_N@Z 0043c090 f   libohNetCore:Service.obj
 0001:0003b190       ?Write@PropertyBool@Net@OpenHome@@UAEXAAVIPropertyWriter@23@@Z 0043c190 f   libohNetCore:Service.obj
 0001:0003b1e0       ??0PropertyBinary@Net@OpenHome@@QAE@PBDAAVFunctor@2@@Z 0043c1e0 f   libohNetCore:Service.obj
 0001:0003b2b0       ??0PropertyBinary@Net@OpenHome@@QAE@PAVParameter@12@@Z 0043c2b0 f   libohNetCore:Service.obj
 0001:0003b330       ??1PropertyBinary@Net@OpenHome@@UAE@XZ 0043c330 f   libohNetCore:Service.obj
 0001:0003b3a0       ?Value@PropertyBinary@Net@OpenHome@@QBEABVBrx@3@XZ 0043c3a0 f   libohNetCore:Service.obj
 0001:0003b470       ?Process@PropertyBinary@Net@OpenHome@@UAEXAAVIOutputProcessor@23@ABVBrx@3@@Z 0043c470 f   libohNetCore:Service.obj
 0001:0003b5c0       ?SetValue@PropertyBinary@Net@OpenHome@@QAE_NABVBrx@3@@Z 0043c5c0 f   libohNetCore:Service.obj
 0001:0003b6c0       ?Write@PropertyBinary@Net@OpenHome@@UAEXAAVIPropertyWriter@23@@Z 0043c6c0 f   libohNetCore:Service.obj
 0001:0003b710       ??0Action@Net@OpenHome@@QAE@PBD@Z 0043c710 f   libohNetCore:Service.obj
 0001:0003b790       ??1Action@Net@OpenHome@@QAE@XZ 0043c790 f   libohNetCore:Service.obj
 0001:0003b900       ?AddInputParameter@Action@Net@OpenHome@@QAEXPAVParameter@23@@Z 0043c900 f   libohNetCore:Service.obj
 0001:0003b930       ?AddOutputParameter@Action@Net@OpenHome@@QAEXPAVParameter@23@@Z 0043c930 f   libohNetCore:Service.obj
 0001:0003b960       ?Name@Action@Net@OpenHome@@QBEABVBrx@3@XZ 0043c960 f   libohNetCore:Service.obj
 0001:0003b980       ?InputParameters@Action@Net@OpenHome@@QBEABV?$vector@PAVParameter@Net@OpenHome@@V?$allocator@PAVParameter@Net@OpenHome@@@std@@@std@@XZ 0043c980 f   libohNetCore:Service.obj
 0001:0003b9a0       ?OutputParameters@Action@Net@OpenHome@@QBEABV?$vector@PAVParameter@Net@OpenHome@@V?$allocator@PAVParameter@Net@OpenHome@@@std@@@std@@XZ 0043c9a0 f   libohNetCore:Service.obj
 0001:0003b9c0       ??0ServiceType@Net@OpenHome@@QAE@PBD0I@Z 0043c9c0 f   libohNetCore:Service.obj
 0001:0003ba80       ??0ServiceType@Net@OpenHome@@QAE@ABV012@@Z 0043ca80 f   libohNetCore:Service.obj
 0001:0003bb60       ??1ServiceType@Net@OpenHome@@QAE@XZ 0043cb60 f   libohNetCore:Service.obj
 0001:0003bc10       ?Domain@ServiceType@Net@OpenHome@@QBEABVBrx@3@XZ 0043cc10 f   libohNetCore:Service.obj
 0001:0003bc30       ?Name@ServiceType@Net@OpenHome@@QBEABVBrx@3@XZ 0043cc30 f   libohNetCore:Service.obj
 0001:0003bc50       ?Version@ServiceType@Net@OpenHome@@QBEIXZ 0043cc50 f   libohNetCore:Service.obj
 0001:0003bc70       ?FullName@ServiceType@Net@OpenHome@@QBEABVBrx@3@XZ 0043cc70 f   libohNetCore:Service.obj
 0001:0003bd80       ?FullNameUpnp@ServiceType@Net@OpenHome@@QBEABVBrx@3@XZ 0043cd80 f   libohNetCore:Service.obj
 0001:0003bf30       ?PathUpnp@ServiceType@Net@OpenHome@@QBEABVBrx@3@XZ 0043cf30 f   libohNetCore:Service.obj
 0001:0003c010       ?ServiceId@ServiceType@Net@OpenHome@@QBEABVBrx@3@XZ 0043d010 f   libohNetCore:Service.obj
 0001:0003c1d0       ??0Service@Net@OpenHome@@IAE@PBD0I@Z 0043d1d0 f   libohNetCore:Service.obj
 0001:0003c210       ?ServiceType@Service@Net@OpenHome@@QBEABV023@XZ 0043d210 f   libohNetCore:Service.obj
 0001:0003c230       ??_EParameter@Net@OpenHome@@UAEPAXI@Z 0043d230 f i libohNetCore:Service.obj
 0001:0003c230       ??_GParameter@Net@OpenHome@@UAEPAXI@Z 0043d230 f i libohNetCore:Service.obj
 0001:0003c270       ??_EParameterBool@Net@OpenHome@@UAEPAXI@Z 0043d270 f i libohNetCore:Service.obj
 0001:0003c2f0       ??_EParameterInt@Net@OpenHome@@UAEPAXI@Z 0043d2f0 f i libohNetCore:Service.obj
 0001:0003c370       ??0ParameterValidationError@OpenHome@@QAE@PBDI@Z 0043d370 f i libohNetCore:Service.obj
 0001:0003c3b0       ??1ParameterValidationError@OpenHome@@QAE@XZ 0043d3b0 f i libohNetCore:Service.obj
 0001:0003c3e0       ??_EParameterUint@Net@OpenHome@@UAEPAXI@Z 0043d3e0 f i libohNetCore:Service.obj
 0001:0003c460       ??_EParameterString@Net@OpenHome@@UAEPAXI@Z 0043d460 f i libohNetCore:Service.obj
 0001:0003c4e0       ??1?$map@VBrn@OpenHome@@PAVBrh@2@VBufferCmp@2@V?$allocator@U?$pair@$$CBVBrn@OpenHome@@PAVBrh@2@@std@@@std@@@std@@QAE@XZ 0043d4e0 f i libohNetCore:Service.obj
 0001:0003c510       ??1?$pair@VBrn@OpenHome@@PAVBrh@2@@std@@QAE@XZ 0043d510 f i libohNetCore:Service.obj
 0001:0003c540       ??1?$pair@V?$_Tree_iterator@V?$_Tree_val@V?$_Tmap_traits@VBrn@OpenHome@@PAVBrh@2@VBufferCmp@2@V?$allocator@U?$pair@$$CBVBrn@OpenHome@@PAVBrh@2@@std@@@std@@$0A@@std@@@std@@@std@@_N@std@@QAE@XZ 0043d540 f i libohNetCore:Service.obj
 0001:0003c570       ??1?$_Pair_base@VBrn@OpenHome@@PAVBrh@2@@std@@QAE@XZ 0043d570 f i libohNetCore:Service.obj
 0001:0003c5a0       ??1?$_Pair_base@V?$_Tree_iterator@V?$_Tree_val@V?$_Tmap_traits@VBrn@OpenHome@@PAVBrh@2@VBufferCmp@2@V?$allocator@U?$pair@$$CBVBrn@OpenHome@@PAVBrh@2@@std@@@std@@$0A@@std@@@std@@@std@@_N@std@@QAE@XZ 0043d5a0 f i libohNetCore:Service.obj
 0001:0003c5d0       ??1?$_Tree_iterator@V?$_Tree_val@V?$_Tmap_traits@VBrn@OpenHome@@PAVBrh@2@VBufferCmp@2@V?$allocator@U?$pair@$$CBVBrn@OpenHome@@PAVBrh@2@@std@@@std@@$0A@@std@@@std@@@std@@QAE@XZ 0043d5d0 f i libohNetCore:Service.obj
 0001:0003c600       ??1?$_Tree_const_iterator@V?$_Tree_val@V?$_Tmap_traits@VBrn@OpenHome@@PAVBrh@2@VBufferCmp@2@V?$allocator@U?$pair@$$CBVBrn@OpenHome@@PAVBrh@2@@std@@@std@@$0A@@std@@@std@@@std@@QAE@XZ 0043d600 f i libohNetCore:Service.obj
 0001:0003c630       ??1?$_Tree_unchecked_const_iterator@V?$_Tree_val@V?$_Tmap_traits@VBrn@OpenHome@@PAVBrh@2@VBufferCmp@2@V?$allocator@U?$pair@$$CBVBrn@OpenHome@@PAVBrh@2@@std@@@std@@$0A@@std@@@std@@U_Iterator_base12@2@@std@@QAE@XZ 0043d630 f i libohNetCore:Service.obj
 0001:0003c660       ??1?$_Iterator012@Ubidirectional_iterator_tag@std@@U?$pair@$$CBVBrn@OpenHome@@PAVBrh@2@@2@HPBU32@ABU32@U_Iterator_base12@2@@std@@QAE@XZ 0043d660 f i libohNetCore:Service.obj
 0001:0003c690       ??_EParameterBinary@Net@OpenHome@@UAEPAXI@Z 0043d690 f i libohNetCore:Service.obj
 0001:0003c710       ??_EParameterRelated@Net@OpenHome@@UAEPAXI@Z 0043d710 f i libohNetCore:Service.obj
 0001:0003c790       ??_EProperty@Net@OpenHome@@UAEPAXI@Z 0043d790 f i libohNetCore:Service.obj
 0001:0003c790       ??_GProperty@Net@OpenHome@@UAEPAXI@Z 0043d790 f i libohNetCore:Service.obj
 0001:0003c7d0       ??_EPropertyString@Net@OpenHome@@UAEPAXI@Z 0043d7d0 f i libohNetCore:Service.obj
 0001:0003c850       ??9Brx@OpenHome@@QBE_NABV01@@Z 0043d850 f i libohNetCore:Service.obj
 0001:0003c890       ??_EPropertyInt@Net@OpenHome@@UAEPAXI@Z 0043d890 f i libohNetCore:Service.obj
 0001:0003c910       ??_EPropertyUint@Net@OpenHome@@UAEPAXI@Z 0043d910 f i libohNetCore:Service.obj
 0001:0003c990       ??_EPropertyBool@Net@OpenHome@@UAEPAXI@Z 0043d990 f i libohNetCore:Service.obj
 0001:0003ca10       ??0Brh@OpenHome@@QAE@XZ    0043da10 f i libohNetCore:Service.obj
 0001:0003ca40       ??_EPropertyBinary@Net@OpenHome@@UAEPAXI@Z 0043da40 f i libohNetCore:Service.obj
 0001:0003cac0       ??0?$map@VBrn@OpenHome@@PAVBrh@2@VBufferCmp@2@V?$allocator@U?$pair@$$CBVBrn@OpenHome@@PAVBrh@2@@std@@@std@@@std@@QAE@XZ 0043dac0 f i libohNetCore:Service.obj
 0001:0003cb10       ??1?$_Tree@V?$_Tmap_traits@VBrn@OpenHome@@PAVBrh@2@VBufferCmp@2@V?$allocator@U?$pair@$$CBVBrn@OpenHome@@PAVBrh@2@@std@@@std@@$0A@@std@@@std@@QAE@XZ 0043db10 f i libohNetCore:Service.obj
 0001:0003cb80       ?begin@?$_Tree@V?$_Tmap_traits@VBrn@OpenHome@@PAVBrh@2@VBufferCmp@2@V?$allocator@U?$pair@$$CBVBrn@OpenHome@@PAVBrh@2@@std@@@std@@$0A@@std@@@std@@QAE?AV?$_Tree_iterator@V?$_Tree_val@V?$_Tmap_traits@VBrn@OpenHome@@PAVBrh@2@VBufferCmp@2@V?$allocator@U?$pair@$$CBVBrn@OpenHome@@PAVBrh@2@@std@@@std@@$0A@@std@@@std@@@2@XZ 0043db80 f i libohNetCore:Service.obj
 0001:0003cbe0       ?end@?$_Tree@V?$_Tmap_traits@VBrn@OpenHome@@PAVBrh@2@VBufferCmp@2@V?$allocator@U?$pair@$$CBVBrn@OpenHome@@PAVBrh@2@@std@@@std@@$0A@@std@@@std@@QAE?AV?$_Tree_iterator@V?$_Tree_val@V?$_Tmap_traits@VBrn@OpenHome@@PAVBrh@2@VBufferCmp@2@V?$allocator@U?$pair@$$CBVBrn@OpenHome@@PAVBrh@2@@std@@@std@@$0A@@std@@@std@@@2@XZ 0043dbe0 f i libohNetCore:Service.obj
 0001:0003cc30       ?end@?$_Tree@V?$_Tmap_traits@VBrn@OpenHome@@PAVBrh@2@VBufferCmp@2@V?$allocator@U?$pair@$$CBVBrn@OpenHome@@PAVBrh@2@@std@@@std@@$0A@@std@@@std@@QBE?AV?$_Tree_const_iterator@V?$_Tree_val@V?$_Tmap_traits@VBrn@OpenHome@@PAVBrh@2@VBufferCmp@2@V?$allocator@U?$pair@$$CBVBrn@OpenHome@@PAVBrh@2@@std@@@std@@$0A@@std@@@std@@@2@XZ 0043dc30 f i libohNetCore:Service.obj
 0001:0003cc80       ?size@?$_Tree@V?$_Tmap_traits@VBrn@OpenHome@@PAVBrh@2@VBufferCmp@2@V?$allocator@U?$pair@$$CBVBrn@OpenHome@@PAVBrh@2@@std@@@std@@$0A@@std@@@std@@QBEIXZ 0043dc80 f i libohNetCore:Service.obj
 0001:0003cca0       ?find@?$_Tree@V?$_Tmap_traits@VBrn@OpenHome@@PAVBrh@2@VBufferCmp@2@V?$allocator@U?$pair@$$CBVBrn@OpenHome@@PAVBrh@2@@std@@@std@@$0A@@std@@@std@@QBE?AV?$_Tree_const_iterator@V?$_Tree_val@V?$_Tmap_traits@VBrn@OpenHome@@PAVBrh@2@VBufferCmp@2@V?$allocator@U?$pair@$$CBVBrn@OpenHome@@PAVBrh@2@@std@@@std@@$0A@@std@@@std@@@2@ABVBrn@OpenHome@@@Z 0043dca0 f i libohNetCore:Service.obj
 0001:0003ce80       ??0?$vector@PAVParameter@Net@OpenHome@@V?$allocator@PAVParameter@Net@OpenHome@@@std@@@std@@QAE@XZ 0043de80 f i libohNetCore:Service.obj
 0001:0003cec0       ??1?$vector@PAVParameter@Net@OpenHome@@V?$allocator@PAVParameter@Net@OpenHome@@@std@@@std@@QAE@XZ 0043dec0 f i libohNetCore:Service.obj
 0001:0003cf30       ??A?$vector@PAVParameter@Net@OpenHome@@V?$allocator@PAVParameter@Net@OpenHome@@@std@@@std@@QAEAAPAVParameter@Net@OpenHome@@I@Z 0043df30 f i libohNetCore:Service.obj
 0001:0003cfd0       ?push_back@?$vector@PAVParameter@Net@OpenHome@@V?$allocator@PAVParameter@Net@OpenHome@@@std@@@std@@QAEXABQAVParameter@Net@OpenHome@@@Z 0043dfd0 f i libohNetCore:Service.obj
 0001:0003d0e0       ??C?$_Tree_iterator@V?$_Tree_val@V?$_Tmap_traits@VBrn@OpenHome@@PAVBrh@2@VBufferCmp@2@V?$allocator@U?$pair@$$CBVBrn@OpenHome@@PAVBrh@2@@std@@@std@@$0A@@std@@@std@@@std@@QBEPAU?$pair@$$CBVBrn@OpenHome@@PAVBrh@2@@1@XZ 0043e0e0 f i libohNetCore:Service.obj
 0001:0003d110       ??E?$_Tree_iterator@V?$_Tree_val@V?$_Tmap_traits@VBrn@OpenHome@@PAVBrh@2@VBufferCmp@2@V?$allocator@U?$pair@$$CBVBrn@OpenHome@@PAVBrh@2@@std@@@std@@$0A@@std@@@std@@@std@@QAE?AV01@H@Z 0043e110 f i libohNetCore:Service.obj
 0001:0003d1e0       ??8?$_Tree_const_iterator@V?$_Tree_val@V?$_Tmap_traits@VBrn@OpenHome@@PAVBrh@2@VBufferCmp@2@V?$allocator@U?$pair@$$CBVBrn@OpenHome@@PAVBrh@2@@std@@@std@@$0A@@std@@@std@@@std@@QBE_NABV01@@Z 0043e1e0 f i libohNetCore:Service.obj
 0001:0003d2a0       ??9?$_Tree_const_iterator@V?$_Tree_val@V?$_Tmap_traits@VBrn@OpenHome@@PAVBrh@2@VBufferCmp@2@V?$allocator@U?$pair@$$CBVBrn@OpenHome@@PAVBrh@2@@std@@@std@@$0A@@std@@@std@@@std@@QBE_NABV01@@Z 0043e2a0 f i libohNetCore:Service.obj
 0001:0003d2e0       ??0?$_Tree_const_iterator@V?$_Tree_val@V?$_Tmap_traits@VBrn@OpenHome@@PAVBrh@2@VBufferCmp@2@V?$allocator@U?$pair@$$CBVBrn@OpenHome@@PAVBrh@2@@std@@@std@@$0A@@std@@@std@@@std@@QAE@ABV01@@Z 0043e2e0 f i libohNetCore:Service.obj
 0001:0003d310       ??0?$_Tree_iterator@V?$_Tree_val@V?$_Tmap_traits@VBrn@OpenHome@@PAVBrh@2@VBufferCmp@2@V?$allocator@U?$pair@$$CBVBrn@OpenHome@@PAVBrh@2@@std@@@std@@$0A@@std@@@std@@@std@@QAE@ABV01@@Z 0043e310 f i libohNetCore:Service.obj
 0001:0003d340       ??0?$_Tree_unchecked_const_iterator@V?$_Tree_val@V?$_Tmap_traits@VBrn@OpenHome@@PAVBrh@2@VBufferCmp@2@V?$allocator@U?$pair@$$CBVBrn@OpenHome@@PAVBrh@2@@std@@@std@@$0A@@std@@@std@@U_Iterator_base12@2@@std@@QAE@ABV01@@Z 0043e340 f i libohNetCore:Service.obj
 0001:0003d380       ??0?$_Iterator012@Ubidirectional_iterator_tag@std@@U?$pair@$$CBVBrn@OpenHome@@PAVBrh@2@@2@HPBU32@ABU32@U_Iterator_base12@2@@std@@QAE@ABU01@@Z 0043e380 f i libohNetCore:Service.obj
 0001:0003d3b0       ??0?$_Tree@V?$_Tmap_traits@VBrn@OpenHome@@PAVBrh@2@VBufferCmp@2@V?$allocator@U?$pair@$$CBVBrn@OpenHome@@PAVBrh@2@@std@@@std@@$0A@@std@@@std@@QAE@ABVBufferCmp@OpenHome@@ABV?$allocator@U?$pair@$$CBVBrn@OpenHome@@PAVBrh@2@@std@@@1@@Z 0043e3b0 f i libohNetCore:Service.obj
 0001:0003d400       ?lower_bound@?$_Tree@V?$_Tmap_traits@VBrn@OpenHome@@PAVBrh@2@VBufferCmp@2@V?$allocator@U?$pair@$$CBVBrn@OpenHome@@PAVBrh@2@@std@@@std@@$0A@@std@@@std@@QBE?AV?$_Tree_const_iterator@V?$_Tree_val@V?$_Tmap_traits@VBrn@OpenHome@@PAVBrh@2@VBufferCmp@2@V?$allocator@U?$pair@$$CBVBrn@OpenHome@@PAVBrh@2@@std@@@std@@$0A@@std@@@std@@@2@ABVBrn@OpenHome@@@Z 0043e400 f i libohNetCore:Service.obj
 0001:0003d460       ?_Lmost@?$_Tree@V?$_Tmap_traits@VBrn@OpenHome@@PAVBrh@2@VBufferCmp@2@V?$allocator@U?$pair@$$CBVBrn@OpenHome@@PAVBrh@2@@std@@@std@@$0A@@std@@@std@@IBEAAPAU_Node@?$_Tree_nod@V?$_Tmap_traits@VBrn@OpenHome@@PAVBrh@2@VBufferCmp@2@V?$allocator@U?$pair@$$CBVBrn@OpenHome@@PAVBrh@2@@std@@@std@@$0A@@std@@@2@XZ 0043e460 f i libohNetCore:Service.obj
 0001:0003d490       ?_Tidy@?$_Tree@V?$_Tmap_traits@VBrn@OpenHome@@PAVBrh@2@VBufferCmp@2@V?$allocator@U?$pair@$$CBVBrn@OpenHome@@PAVBrh@2@@std@@@std@@$0A@@std@@@std@@IAEXXZ 0043e490 f i libohNetCore:Service.obj
 0001:0003d590       ??1?$_Tree_val@V?$_Tmap_traits@VBrn@OpenHome@@PAVBrh@2@VBufferCmp@2@V?$allocator@U?$pair@$$CBVBrn@OpenHome@@PAVBrh@2@@std@@@std@@$0A@@std@@@std@@QAE@XZ 0043e590 f i libohNetCore:Service.obj
 0001:0003d600       ?_Key@?$_Tree_val@V?$_Tmap_traits@VBrn@OpenHome@@PAVBrh@2@VBufferCmp@2@V?$allocator@U?$pair@$$CBVBrn@OpenHome@@PAVBrh@2@@std@@@std@@$0A@@std@@@std@@SGAAVBrn@OpenHome@@PAU_Node@?$_Tree_nod@V?$_Tmap_traits@VBrn@OpenHome@@PAVBrh@2@VBufferCmp@2@V?$allocator@U?$pair@$$CBVBrn@OpenHome@@PAVBrh@2@@std@@@std@@$0A@@std@@@2@@Z 0043e600 f i libohNetCore:Service.obj
 0001:0003d620       ??0?$allocator@U?$pair@$$CBVBrn@OpenHome@@PAVBrh@2@@std@@@std@@QAE@XZ 0043e620 f i libohNetCore:Service.obj
 0001:0003d640       ?_Inside@?$vector@PAVParameter@Net@OpenHome@@V?$allocator@PAVParameter@Net@OpenHome@@@std@@@std@@IBE_NPBQAVParameter@Net@OpenHome@@@Z 0043e640 f i libohNetCore:Service.obj
 0001:0003d690       ?_Reserve@?$vector@PAVParameter@Net@OpenHome@@V?$allocator@PAVParameter@Net@OpenHome@@@std@@@std@@IAEXI@Z 0043e690 f i libohNetCore:Service.obj
 0001:0003d710       ?_Tidy@?$vector@PAVParameter@Net@OpenHome@@V?$allocator@PAVParameter@Net@OpenHome@@@std@@@std@@IAEXXZ 0043e710 f i libohNetCore:Service.obj
 0001:0003d7a0       ?_Orphan_range@?$vector@PAVParameter@Net@OpenHome@@V?$allocator@PAVParameter@Net@OpenHome@@@std@@@std@@IBEXPAPAVParameter@Net@OpenHome@@0@Z 0043e7a0 f i libohNetCore:Service.obj
 0001:0003d8b0       ??0?$_Vector_val@PAVParameter@Net@OpenHome@@V?$allocator@PAVParameter@Net@OpenHome@@@std@@@std@@QAE@V?$allocator@PAVParameter@Net@OpenHome@@@1@@Z 0043e8b0 f i libohNetCore:Service.obj
 0001:0003d9d0       ??1?$_Vector_val@PAVParameter@Net@OpenHome@@V?$allocator@PAVParameter@Net@OpenHome@@@std@@@std@@QAE@XZ 0043e9d0 f i libohNetCore:Service.obj
 0001:0003dab0       ??0?$allocator@PAVParameter@Net@OpenHome@@@std@@QAE@XZ 0043eab0 f i libohNetCore:Service.obj
 0001:0003dad0       ??0?$_Tree_iterator@V?$_Tree_val@V?$_Tmap_traits@VBrn@OpenHome@@PAVBrh@2@VBufferCmp@2@V?$allocator@U?$pair@$$CBVBrn@OpenHome@@PAVBrh@2@@std@@@std@@$0A@@std@@@std@@@std@@QAE@PAU_Node@?$_Tree_nod@V?$_Tmap_traits@VBrn@OpenHome@@PAVBrh@2@VBufferCmp@2@V?$allocator@U?$pair@$$CBVBrn@OpenHome@@PAVBrh@2@@std@@@std@@$0A@@std@@@1@PBV?$_Tree_val@V?$_Tmap_traits@VBrn@OpenHome@@PAVBrh@2@VBufferCmp@2@V?$allocator@U?$pair@$$CBVBrn@OpenHome@@PAVBrh@2@@std@@@std@@$0A@@std@@@1@@Z 0043ead0 f i libohNetCore:Service.obj
 0001:0003db10       ??D?$_Tree_iterator@V?$_Tree_val@V?$_Tmap_traits@VBrn@OpenHome@@PAVBrh@2@VBufferCmp@2@V?$allocator@U?$pair@$$CBVBrn@OpenHome@@PAVBrh@2@@std@@@std@@$0A@@std@@@std@@@std@@QBEAAU?$pair@$$CBVBrn@OpenHome@@PAVBrh@2@@1@XZ 0043eb10 f i libohNetCore:Service.obj
 0001:0003db40       ??E?$_Tree_iterator@V?$_Tree_val@V?$_Tmap_traits@VBrn@OpenHome@@PAVBrh@2@VBufferCmp@2@V?$allocator@U?$pair@$$CBVBrn@OpenHome@@PAVBrh@2@@std@@@std@@$0A@@std@@@std@@@std@@QAEAAV01@XZ 0043eb40 f i libohNetCore:Service.obj
 0001:0003db70       ??0?$_Tree_const_iterator@V?$_Tree_val@V?$_Tmap_traits@VBrn@OpenHome@@PAVBrh@2@VBufferCmp@2@V?$allocator@U?$pair@$$CBVBrn@OpenHome@@PAVBrh@2@@std@@@std@@$0A@@std@@@std@@@std@@QAE@PAU_Node@?$_Tree_nod@V?$_Tmap_traits@VBrn@OpenHome@@PAVBrh@2@VBufferCmp@2@V?$allocator@U?$pair@$$CBVBrn@OpenHome@@PAVBrh@2@@std@@@std@@$0A@@std@@@1@PBV?$_Tree_val@V?$_Tmap_traits@VBrn@OpenHome@@PAVBrh@2@VBufferCmp@2@V?$allocator@U?$pair@$$CBVBrn@OpenHome@@PAVBrh@2@@std@@@std@@$0A@@std@@@1@@Z 0043eb70 f i libohNetCore:Service.obj
 0001:0003dbb0       ?_Mynode@?$_Tree_unchecked_const_iterator@V?$_Tree_val@V?$_Tmap_traits@VBrn@OpenHome@@PAVBrh@2@VBufferCmp@2@V?$allocator@U?$pair@$$CBVBrn@OpenHome@@PAVBrh@2@@std@@@std@@$0A@@std@@@std@@U_Iterator_base12@2@@std@@QBEPAU_Node@?$_Tree_nod@V?$_Tmap_traits@VBrn@OpenHome@@PAVBrh@2@VBufferCmp@2@V?$allocator@U?$pair@$$CBVBrn@OpenHome@@PAVBrh@2@@std@@@std@@$0A@@std@@@2@XZ 0043ebb0 f i libohNetCore:Service.obj
 0001:0003dbd0       ?erase@?$_Tree@V?$_Tmap_traits@VBrn@OpenHome@@PAVBrh@2@VBufferCmp@2@V?$allocator@U?$pair@$$CBVBrn@OpenHome@@PAVBrh@2@@std@@@std@@$0A@@std@@@std@@QAE?AV?$_Tree_iterator@V?$_Tree_val@V?$_Tmap_traits@VBrn@OpenHome@@PAVBrh@2@VBufferCmp@2@V?$allocator@U?$pair@$$CBVBrn@OpenHome@@PAVBrh@2@@std@@@std@@$0A@@std@@@std@@@2@V?$_Tree_const_iterator@V?$_Tree_val@V?$_Tmap_traits@VBrn@OpenHome@@PAVBrh@2@VBufferCmp@2@V?$allocator@U?$pair@$$CBVBrn@OpenHome@@PAVBrh@2@@std@@@std@@$0A@@std@@@std@@@2@0@Z 0043ebd0 f i libohNetCore:Service.obj
 0001:0003ddd0       ?_Lbound@?$_Tree@V?$_Tmap_traits@VBrn@OpenHome@@PAVBrh@2@VBufferCmp@2@V?$allocator@U?$pair@$$CBVBrn@OpenHome@@PAVBrh@2@@std@@@std@@$0A@@std@@@std@@IBEPAU_Node@?$_Tree_nod@V?$_Tmap_traits@VBrn@OpenHome@@PAVBrh@2@VBufferCmp@2@V?$allocator@U?$pair@$$CBVBrn@OpenHome@@PAVBrh@2@@std@@@std@@$0A@@std@@@2@ABVBrn@OpenHome@@@Z 0043edd0 f i libohNetCore:Service.obj
 0001:0003de80       ??0?$_Tree_val@V?$_Tmap_traits@VBrn@OpenHome@@PAVBrh@2@VBufferCmp@2@V?$allocator@U?$pair@$$CBVBrn@OpenHome@@PAVBrh@2@@std@@@std@@$0A@@std@@@std@@QAE@ABVBufferCmp@OpenHome@@V?$allocator@U?$pair@$$CBVBrn@OpenHome@@PAVBrh@2@@std@@@1@@Z 0043ee80 f i libohNetCore:Service.obj
 0001:0003df80       ?_Left@?$_Tree_val@V?$_Tmap_traits@VBrn@OpenHome@@PAVBrh@2@VBufferCmp@2@V?$allocator@U?$pair@$$CBVBrn@OpenHome@@PAVBrh@2@@std@@@std@@$0A@@std@@@std@@SGAAPAU_Node@?$_Tree_nod@V?$_Tmap_traits@VBrn@OpenHome@@PAVBrh@2@VBufferCmp@2@V?$allocator@U?$pair@$$CBVBrn@OpenHome@@PAVBrh@2@@std@@@std@@$0A@@std@@@2@PAU342@@Z 0043ef80 f i libohNetCore:Service.obj
 0001:0003df90       ?_Myval@?$_Tree_val@V?$_Tmap_traits@VBrn@OpenHome@@PAVBrh@2@VBufferCmp@2@V?$allocator@U?$pair@$$CBVBrn@OpenHome@@PAVBrh@2@@std@@@std@@$0A@@std@@@std@@SGAAU?$pair@$$CBVBrn@OpenHome@@PAVBrh@2@@2@PAU_Node@?$_Tree_nod@V?$_Tmap_traits@VBrn@OpenHome@@PAVBrh@2@VBufferCmp@2@V?$allocator@U?$pair@$$CBVBrn@OpenHome@@PAVBrh@2@@std@@@std@@$0A@@std@@@2@@Z 0043ef90 f i libohNetCore:Service.obj
 0001:0003dfa0       ??1?$_Tree_nod@V?$_Tmap_traits@VBrn@OpenHome@@PAVBrh@2@VBufferCmp@2@V?$allocator@U?$pair@$$CBVBrn@OpenHome@@PAVBrh@2@@std@@@std@@$0A@@std@@@std@@QAE@XZ 0043efa0 f i libohNetCore:Service.obj
 0001:0003e080       ??0?$allocator@U?$pair@$$CBVBrn@OpenHome@@PAVBrh@2@@std@@@std@@QAE@ABV01@@Z 0043f080 f i libohNetCore:Service.obj
 0001:0003e0a0       ?deallocate@?$allocator@U_Node@?$_Tree_nod@V?$_Tmap_traits@VBrn@OpenHome@@PAVBrh@2@VBufferCmp@2@V?$allocator@U?$pair@$$CBVBrn@OpenHome@@PAVBrh@2@@std@@@std@@$0A@@std@@@std@@@std@@QAEXPAU_Node@?$_Tree_nod@V?$_Tmap_traits@VBrn@OpenHome@@PAVBrh@2@VBufferCmp@2@V?$allocator@U?$pair@$$CBVBrn@OpenHome@@PAVBrh@2@@std@@@std@@$0A@@std@@@2@I@Z 0043f0a0 f i libohNetCore:Service.obj
 0001:0003e0d0       ?reserve@?$vector@PAVParameter@Net@OpenHome@@V?$allocator@PAVParameter@Net@OpenHome@@@std@@@std@@QAEXI@Z 0043f0d0 f i libohNetCore:Service.obj
 0001:0003e240       ?capacity@?$vector@PAVParameter@Net@OpenHome@@V?$allocator@PAVParameter@Net@OpenHome@@@std@@@std@@QBEIXZ 0043f240 f i libohNetCore:Service.obj
 0001:0003e270       ?max_size@?$vector@PAVParameter@Net@OpenHome@@V?$allocator@PAVParameter@Net@OpenHome@@@std@@@std@@QBEIXZ 0043f270 f i libohNetCore:Service.obj
 0001:0003e2a0       ?_Destroy@?$vector@PAVParameter@Net@OpenHome@@V?$allocator@PAVParameter@Net@OpenHome@@@std@@@std@@IAEXPAPAVParameter@Net@OpenHome@@0@Z 0043f2a0 f i libohNetCore:Service.obj
 0001:0003e2e0       ?_Grow_to@?$vector@PAVParameter@Net@OpenHome@@V?$allocator@PAVParameter@Net@OpenHome@@@std@@@std@@IBEII@Z 0043f2e0 f i libohNetCore:Service.obj
 0001:0003e360       ?_Xlen@?$vector@PAVParameter@Net@OpenHome@@V?$allocator@PAVParameter@Net@OpenHome@@@std@@@std@@IBEXXZ 0043f360 f i libohNetCore:Service.obj
 0001:0003e390       ??0?$allocator@PAVParameter@Net@OpenHome@@@std@@QAE@ABV01@@Z 0043f390 f i libohNetCore:Service.obj
 0001:0003e3b0       ?deallocate@?$allocator@PAVParameter@Net@OpenHome@@@std@@QAEXPAPAVParameter@Net@OpenHome@@I@Z 0043f3b0 f i libohNetCore:Service.obj
 0001:0003e3e0       ??D?$_Tree_const_iterator@V?$_Tree_val@V?$_Tmap_traits@VBrn@OpenHome@@PAVBrh@2@VBufferCmp@2@V?$allocator@U?$pair@$$CBVBrn@OpenHome@@PAVBrh@2@@std@@@std@@$0A@@std@@@std@@@std@@QBEABU?$pair@$$CBVBrn@OpenHome@@PAVBrh@2@@1@XZ 0043f3e0 f i libohNetCore:Service.obj
 0001:0003e4a0       ??E?$_Tree_const_iterator@V?$_Tree_val@V?$_Tmap_traits@VBrn@OpenHome@@PAVBrh@2@VBufferCmp@2@V?$allocator@U?$pair@$$CBVBrn@OpenHome@@PAVBrh@2@@std@@@std@@$0A@@std@@@std@@@std@@QAEAAV01@XZ 0043f4a0 f i libohNetCore:Service.obj
 0001:0003e560       ??0?$_Tree_unchecked_const_iterator@V?$_Tree_val@V?$_Tmap_traits@VBrn@OpenHome@@PAVBrh@2@VBufferCmp@2@V?$allocator@U?$pair@$$CBVBrn@OpenHome@@PAVBrh@2@@std@@@std@@$0A@@std@@@std@@U_Iterator_base12@2@@std@@QAE@PAU_Node@?$_Tree_nod@V?$_Tmap_traits@VBrn@OpenHome@@PAVBrh@2@VBufferCmp@2@V?$allocator@U?$pair@$$CBVBrn@OpenHome@@PAVBrh@2@@std@@@std@@$0A@@std@@@1@PBV?$_Tree_val@V?$_Tmap_traits@VBrn@OpenHome@@PAVBrh@2@VBufferCmp@2@V?$allocator@U?$pair@$$CBVBrn@OpenHome@@PAVBrh@2@@std@@@std@@$0A@@std@@@1@@Z 0043f560 f i libohNetCore:Service.obj
 0001:0003e5e0       ??1?$_Tmap_traits@VBrn@OpenHome@@PAVBrh@2@VBufferCmp@2@V?$allocator@U?$pair@$$CBVBrn@OpenHome@@PAVBrh@2@@std@@@std@@$0A@@std@@QAE@XZ 0043f5e0 f i libohNetCore:Service.obj
 0001:0003e610       ??0?$_Iterator012@Ubidirectional_iterator_tag@std@@U?$pair@$$CBVBrn@OpenHome@@PAVBrh@2@@2@HPBU32@ABU32@U_Iterator_base12@2@@std@@QAE@XZ 0043f610 f i libohNetCore:Service.obj
 0001:0003e640       ?erase@?$_Tree@V?$_Tmap_traits@VBrn@OpenHome@@PAVBrh@2@VBufferCmp@2@V?$allocator@U?$pair@$$CBVBrn@OpenHome@@PAVBrh@2@@std@@@std@@$0A@@std@@@std@@QAE?AV?$_Tree_iterator@V?$_Tree_val@V?$_Tmap_traits@VBrn@OpenHome@@PAVBrh@2@VBufferCmp@2@V?$allocator@U?$pair@$$CBVBrn@OpenHome@@PAVBrh@2@@std@@@std@@$0A@@std@@@std@@@2@V?$_Tree_const_iterator@V?$_Tree_val@V?$_Tmap_traits@VBrn@OpenHome@@PAVBrh@2@VBufferCmp@2@V?$allocator@U?$pair@$$CBVBrn@OpenHome@@PAVBrh@2@@std@@@std@@$0A@@std@@@std@@@2@@Z 0043f640 f i libohNetCore:Service.obj
 0001:0003ed50       ?clear@?$_Tree@V?$_Tmap_traits@VBrn@OpenHome@@PAVBrh@2@VBufferCmp@2@V?$allocator@U?$pair@$$CBVBrn@OpenHome@@PAVBrh@2@@std@@@std@@$0A@@std@@@std@@QAEXXZ 0043fd50 f i libohNetCore:Service.obj
 0001:0003edd0       ?_Root@?$_Tree@V?$_Tmap_traits@VBrn@OpenHome@@PAVBrh@2@VBufferCmp@2@V?$allocator@U?$pair@$$CBVBrn@OpenHome@@PAVBrh@2@@std@@@std@@$0A@@std@@@std@@IBEAAPAU_Node@?$_Tree_nod@V?$_Tmap_traits@VBrn@OpenHome@@PAVBrh@2@VBufferCmp@2@V?$allocator@U?$pair@$$CBVBrn@OpenHome@@PAVBrh@2@@std@@@std@@$0A@@std@@@2@XZ 0043fdd0 f i libohNetCore:Service.obj
 0001:0003ee00       ?_Color@?$_Tree_val@V?$_Tmap_traits@VBrn@OpenHome@@PAVBrh@2@VBufferCmp@2@V?$allocator@U?$pair@$$CBVBrn@OpenHome@@PAVBrh@2@@std@@@std@@$0A@@std@@@std@@SGAADPAU_Node@?$_Tree_nod@V?$_Tmap_traits@VBrn@OpenHome@@PAVBrh@2@VBufferCmp@2@V?$allocator@U?$pair@$$CBVBrn@OpenHome@@PAVBrh@2@@std@@@std@@$0A@@std@@@2@@Z 0043fe00 f i libohNetCore:Service.obj
 0001:0003ee10       ?_Isnil@?$_Tree_val@V?$_Tmap_traits@VBrn@OpenHome@@PAVBrh@2@VBufferCmp@2@V?$allocator@U?$pair@$$CBVBrn@OpenHome@@PAVBrh@2@@std@@@std@@$0A@@std@@@std@@SGAADPAU_Node@?$_Tree_nod@V?$_Tmap_traits@VBrn@OpenHome@@PAVBrh@2@VBufferCmp@2@V?$allocator@U?$pair@$$CBVBrn@OpenHome@@PAVBrh@2@@std@@@std@@$0A@@std@@@2@@Z 0043fe10 f i libohNetCore:Service.obj
 0001:0003ee20       ?_Parent@?$_Tree_val@V?$_Tmap_traits@VBrn@OpenHome@@PAVBrh@2@VBufferCmp@2@V?$allocator@U?$pair@$$CBVBrn@OpenHome@@PAVBrh@2@@std@@@std@@$0A@@std@@@std@@SGAAPAU_Node@?$_Tree_nod@V?$_Tmap_traits@VBrn@OpenHome@@PAVBrh@2@VBufferCmp@2@V?$allocator@U?$pair@$$CBVBrn@OpenHome@@PAVBrh@2@@std@@@std@@$0A@@std@@@2@PAU342@@Z 0043fe20 f i libohNetCore:Service.obj
 0001:0003ee30       ?_Right@?$_Tree_val@V?$_Tmap_traits@VBrn@OpenHome@@PAVBrh@2@VBufferCmp@2@V?$allocator@U?$pair@$$CBVBrn@OpenHome@@PAVBrh@2@@std@@@std@@$0A@@std@@@std@@SGAAPAU_Node@?$_Tree_nod@V?$_Tmap_traits@VBrn@OpenHome@@PAVBrh@2@VBufferCmp@2@V?$allocator@U?$pair@$$CBVBrn@OpenHome@@PAVBrh@2@@std@@@std@@$0A@@std@@@2@PAU342@@Z 0043fe30 f i libohNetCore:Service.obj
 0001:0003ee40       ??0?$_Tree_nod@V?$_Tmap_traits@VBrn@OpenHome@@PAVBrh@2@VBufferCmp@2@V?$allocator@U?$pair@$$CBVBrn@OpenHome@@PAVBrh@2@@std@@@std@@$0A@@std@@@std@@QAE@ABVBufferCmp@OpenHome@@V?$allocator@U?$pair@$$CBVBrn@OpenHome@@PAVBrh@2@@std@@@1@@Z 0043fe40 f i libohNetCore:Service.obj
 0001:0003ef50       ?allocate@?$allocator@U_Node@?$_Tree_nod@V?$_Tmap_traits@VBrn@OpenHome@@PAVBrh@2@VBufferCmp@2@V?$allocator@U?$pair@$$CBVBrn@OpenHome@@PAVBrh@2@@std@@@std@@$0A@@std@@@std@@@std@@QAEPAU_Node@?$_Tree_nod@V?$_Tmap_traits@VBrn@OpenHome@@PAVBrh@2@VBufferCmp@2@V?$allocator@U?$pair@$$CBVBrn@OpenHome@@PAVBrh@2@@std@@@std@@$0A@@std@@@2@I@Z 0043ff50 f i libohNetCore:Service.obj
 0001:0003ef80       ?allocate@?$allocator@PAVParameter@Net@OpenHome@@@std@@QAEPAPAVParameter@Net@OpenHome@@I@Z 0043ff80 f i libohNetCore:Service.obj
 0001:0003efb0       ?max_size@?$allocator@PAVParameter@Net@OpenHome@@@std@@QBEIXZ 0043ffb0 f i libohNetCore:Service.obj
 0001:0003f000       ??E?$_Tree_const_iterator@V?$_Tree_val@V?$_Tmap_traits@VBrn@OpenHome@@PAVBrh@2@VBufferCmp@2@V?$allocator@U?$pair@$$CBVBrn@OpenHome@@PAVBrh@2@@std@@@std@@$0A@@std@@@std@@@std@@QAE?AV01@H@Z 00440000 f i libohNetCore:Service.obj
 0001:0003f0d0       ??E?$_Tree_unchecked_const_iterator@V?$_Tree_val@V?$_Tmap_traits@VBrn@OpenHome@@PAVBrh@2@VBufferCmp@2@V?$allocator@U?$pair@$$CBVBrn@OpenHome@@PAVBrh@2@@std@@@std@@$0A@@std@@@std@@U_Iterator_base12@2@@std@@QAEAAV01@XZ 004400d0 f i libohNetCore:Service.obj
 0001:0003f190       ?_Erase@?$_Tree@V?$_Tmap_traits@VBrn@OpenHome@@PAVBrh@2@VBufferCmp@2@V?$allocator@U?$pair@$$CBVBrn@OpenHome@@PAVBrh@2@@std@@@std@@$0A@@std@@@std@@IAEXPAU_Node@?$_Tree_nod@V?$_Tmap_traits@VBrn@OpenHome@@PAVBrh@2@VBufferCmp@2@V?$allocator@U?$pair@$$CBVBrn@OpenHome@@PAVBrh@2@@std@@@std@@$0A@@std@@@2@@Z 00440190 f i libohNetCore:Service.obj
 0001:0003f230       ?_Lrotate@?$_Tree@V?$_Tmap_traits@VBrn@OpenHome@@PAVBrh@2@VBufferCmp@2@V?$allocator@U?$pair@$$CBVBrn@OpenHome@@PAVBrh@2@@std@@@std@@$0A@@std@@@std@@IAEXPAU_Node@?$_Tree_nod@V?$_Tmap_traits@VBrn@OpenHome@@PAVBrh@2@VBufferCmp@2@V?$allocator@U?$pair@$$CBVBrn@OpenHome@@PAVBrh@2@@std@@@std@@$0A@@std@@@2@@Z 00440230 f i libohNetCore:Service.obj
 0001:0003f350       ?_Rmost@?$_Tree@V?$_Tmap_traits@VBrn@OpenHome@@PAVBrh@2@VBufferCmp@2@V?$allocator@U?$pair@$$CBVBrn@OpenHome@@PAVBrh@2@@std@@@std@@$0A@@std@@@std@@IBEAAPAU_Node@?$_Tree_nod@V?$_Tmap_traits@VBrn@OpenHome@@PAVBrh@2@VBufferCmp@2@V?$allocator@U?$pair@$$CBVBrn@OpenHome@@PAVBrh@2@@std@@@std@@$0A@@std@@@2@XZ 00440350 f i libohNetCore:Service.obj
 0001:0003f380       ?_Rrotate@?$_Tree@V?$_Tmap_traits@VBrn@OpenHome@@PAVBrh@2@VBufferCmp@2@V?$allocator@U?$pair@$$CBVBrn@OpenHome@@PAVBrh@2@@std@@@std@@$0A@@std@@@std@@IAEXPAU_Node@?$_Tree_nod@V?$_Tmap_traits@VBrn@OpenHome@@PAVBrh@2@VBufferCmp@2@V?$allocator@U?$pair@$$CBVBrn@OpenHome@@PAVBrh@2@@std@@@std@@$0A@@std@@@2@@Z 00440380 f i libohNetCore:Service.obj
 0001:0003f4a0       ?_Orphan_ptr@?$_Tree@V?$_Tmap_traits@VBrn@OpenHome@@PAVBrh@2@VBufferCmp@2@V?$allocator@U?$pair@$$CBVBrn@OpenHome@@PAVBrh@2@@std@@@std@@$0A@@std@@@std@@IBEXAAV12@PAU_Node@?$_Tree_nod@V?$_Tmap_traits@VBrn@OpenHome@@PAVBrh@2@VBufferCmp@2@V?$allocator@U?$pair@$$CBVBrn@OpenHome@@PAVBrh@2@@std@@@std@@$0A@@std@@@2@@Z 004404a0 f i libohNetCore:Service.obj
 0001:0003f5b0       ?_Max@?$_Tree_val@V?$_Tmap_traits@VBrn@OpenHome@@PAVBrh@2@VBufferCmp@2@V?$allocator@U?$pair@$$CBVBrn@OpenHome@@PAVBrh@2@@std@@@std@@$0A@@std@@@std@@SGPAU_Node@?$_Tree_nod@V?$_Tmap_traits@VBrn@OpenHome@@PAVBrh@2@VBufferCmp@2@V?$allocator@U?$pair@$$CBVBrn@OpenHome@@PAVBrh@2@@std@@@std@@$0A@@std@@@2@PAU342@@Z 004405b0 f i libohNetCore:Service.obj
 0001:0003f5f0       ?_Min@?$_Tree_val@V?$_Tmap_traits@VBrn@OpenHome@@PAVBrh@2@VBufferCmp@2@V?$allocator@U?$pair@$$CBVBrn@OpenHome@@PAVBrh@2@@std@@@std@@$0A@@std@@@std@@SGPAU_Node@?$_Tree_nod@V?$_Tmap_traits@VBrn@OpenHome@@PAVBrh@2@VBufferCmp@2@V?$allocator@U?$pair@$$CBVBrn@OpenHome@@PAVBrh@2@@std@@@std@@$0A@@std@@@2@PAU342@@Z 004405f0 f i libohNetCore:Service.obj
 0001:0003f630       ??0?$_Tmap_traits@VBrn@OpenHome@@PAVBrh@2@VBufferCmp@2@V?$allocator@U?$pair@$$CBVBrn@OpenHome@@PAVBrh@2@@std@@@std@@$0A@@std@@QAE@VBufferCmp@OpenHome@@@Z 00440630 f i libohNetCore:Service.obj
 0001:0003f660       ??$?0AAVBrn@OpenHome@@AAPAVBrh@1@@?$pair@VBrn@OpenHome@@PAVBrh@2@@std@@QAE@AAVBrn@OpenHome@@AAPAVBrh@3@@Z 00440660 f i libohNetCore:Service.obj
 0001:0003f6a0       ??$insert@U?$pair@VBrn@OpenHome@@PAVBrh@2@@std@@@?$_Tree@V?$_Tmap_traits@VBrn@OpenHome@@PAVBrh@2@VBufferCmp@2@V?$allocator@U?$pair@$$CBVBrn@OpenHome@@PAVBrh@2@@std@@@std@@$0A@@std@@@std@@QAE?AU?$pair@V?$_Tree_iterator@V?$_Tree_val@V?$_Tmap_traits@VBrn@OpenHome@@PAVBrh@2@VBufferCmp@2@V?$allocator@U?$pair@$$CBVBrn@OpenHome@@PAVBrh@2@@std@@@std@@$0A@@std@@@std@@@std@@_N@1@$$QAU?$pair@VBrn@OpenHome@@PAVBrh@2@@1@@Z 004406a0 f i libohNetCore:Service.obj
 0001:0003f700       ??$addressof@QAVParameter@Net@OpenHome@@@std@@YGPBQAVParameter@Net@OpenHome@@ABQAV123@@Z 00440700 f i libohNetCore:Service.obj
 0001:0003f710       ??$_Cons_val@V?$allocator@PAVParameter@Net@OpenHome@@@std@@PAVParameter@Net@OpenHome@@AAPAV345@@std@@YGXAAV?$allocator@PAVParameter@Net@OpenHome@@@0@PAPAVParameter@Net@OpenHome@@AAPAV234@@Z 00440710 f i libohNetCore:Service.obj
 0001:0003f740       ??$_Cons_val@V?$allocator@PAVParameter@Net@OpenHome@@@std@@PAVParameter@Net@OpenHome@@ABQAV345@@std@@YGXAAV?$allocator@PAVParameter@Net@OpenHome@@@0@PAPAVParameter@Net@OpenHome@@ABQAV234@@Z 00440740 f i libohNetCore:Service.obj
 0001:0003f770       ??$_Kfn@$$CBVBrn@OpenHome@@PAVBrh@2@@?$_Tmap_traits@VBrn@OpenHome@@PAVBrh@2@VBufferCmp@2@V?$allocator@U?$pair@$$CBVBrn@OpenHome@@PAVBrh@2@@std@@@std@@$0A@@std@@SGABVBrn@OpenHome@@ABU?$pair@$$CBVBrn@OpenHome@@PAVBrh@2@@1@@Z 00440770 f i libohNetCore:Service.obj
 0001:0003f780       ??$?0PAVParameter@Net@OpenHome@@@?$allocator@U_Container_proxy@std@@@std@@QAE@ABV?$allocator@PAVParameter@Net@OpenHome@@@1@@Z 00440780 f i libohNetCore:Service.obj
 0001:0003f7a0       ??$?0U_Node@?$_Tree_nod@V?$_Tmap_traits@VBrn@OpenHome@@PAVBrh@2@VBufferCmp@2@V?$allocator@U?$pair@$$CBVBrn@OpenHome@@PAVBrh@2@@std@@@std@@$0A@@std@@@std@@@?$allocator@U_Container_proxy@std@@@std@@QAE@ABV?$allocator@U_Node@?$_Tree_nod@V?$_Tmap_traits@VBrn@OpenHome@@PAVBrh@2@VBufferCmp@2@V?$allocator@U?$pair@$$CBVBrn@OpenHome@@PAVBrh@2@@std@@@std@@$0A@@std@@@std@@@1@@Z 004407a0 f i libohNetCore:Service.obj
 0001:0003f7c0       ??$_Umove@PAPAVParameter@Net@OpenHome@@@?$vector@PAVParameter@Net@OpenHome@@V?$allocator@PAVParameter@Net@OpenHome@@@std@@@std@@IAEPAPAVParameter@Net@OpenHome@@PAPAV234@00@Z 004407c0 f i libohNetCore:Service.obj
 0001:0003f800       ??$_Destroy_range@V?$allocator@PAVParameter@Net@OpenHome@@@std@@@std@@YGXPAPAVParameter@Net@OpenHome@@0AAV?$allocator@PAVParameter@Net@OpenHome@@@0@@Z 00440800 f i libohNetCore:Service.obj
 0001:0003f850       ??$addressof@U?$pair@$$CBVBrn@OpenHome@@PAVBrh@2@@std@@@std@@YGPAU?$pair@$$CBVBrn@OpenHome@@PAVBrh@2@@0@AAU10@@Z 00440850 f i libohNetCore:Service.obj
 0001:0003f860       ??$_Dest_val@V?$allocator@U?$pair@$$CBVBrn@OpenHome@@PAVBrh@2@@std@@@std@@U?$pair@$$CBVBrn@OpenHome@@PAVBrh@2@@2@@std@@YGXAAV?$allocator@U?$pair@$$CBVBrn@OpenHome@@PAVBrh@2@@std@@@0@PAU?$pair@$$CBVBrn@OpenHome@@PAVBrh@2@@0@@Z 00440860 f i libohNetCore:Service.obj
 0001:0003f880       ??$?0U?$pair@$$CBVBrn@OpenHome@@PAVBrh@2@@std@@@?$allocator@U_Node@?$_Tree_nod@V?$_Tmap_traits@VBrn@OpenHome@@PAVBrh@2@VBufferCmp@2@V?$allocator@U?$pair@$$CBVBrn@OpenHome@@PAVBrh@2@@std@@@std@@$0A@@std@@@std@@@std@@QAE@ABV?$allocator@U?$pair@$$CBVBrn@OpenHome@@PAVBrh@2@@std@@@1@@Z 00440880 f i libohNetCore:Service.obj
 0001:0003f8a0       ??$_Allocate@U_Node@?$_Tree_nod@V?$_Tmap_traits@VBrn@OpenHome@@PAVBrh@2@VBufferCmp@2@V?$allocator@U?$pair@$$CBVBrn@OpenHome@@PAVBrh@2@@std@@@std@@$0A@@std@@@std@@@std@@YGPAU_Node@?$_Tree_nod@V?$_Tmap_traits@VBrn@OpenHome@@PAVBrh@2@VBufferCmp@2@V?$allocator@U?$pair@$$CBVBrn@OpenHome@@PAVBrh@2@@std@@@std@@$0A@@std@@@0@IPAU120@@Z 004408a0 f i libohNetCore:Service.obj
 0001:0003f920       ??$_Allocate@PAVParameter@Net@OpenHome@@@std@@YGPAPAVParameter@Net@OpenHome@@IPAPAV123@@Z 00440920 f i libohNetCore:Service.obj
 0001:0003f9a0       ?_Linsert@?$_Tree@V?$_Tmap_traits@VBrn@OpenHome@@PAVBrh@2@VBufferCmp@2@V?$allocator@U?$pair@$$CBVBrn@OpenHome@@PAVBrh@2@@std@@@std@@$0A@@std@@@std@@QAE?AU?$pair@V?$_Tree_iterator@V?$_Tree_val@V?$_Tmap_traits@VBrn@OpenHome@@PAVBrh@2@VBufferCmp@2@V?$allocator@U?$pair@$$CBVBrn@OpenHome@@PAVBrh@2@@std@@@std@@$0A@@std@@@std@@@std@@_N@2@PAU_Node@?$_Tree_nod@V?$_Tmap_traits@VBrn@OpenHome@@PAVBrh@2@VBufferCmp@2@V?$allocator@U?$pair@$$CBVBrn@OpenHome@@PAVBrh@2@@std@@@std@@$0A@@std@@@2@_N@Z 004409a0 f i libohNetCore:Service.obj
 0001:0003fd80       ?destroy@?$allocator@U?$pair@$$CBVBrn@OpenHome@@PAVBrh@2@@std@@@std@@QAEXPAU?$pair@$$CBVBrn@OpenHome@@PAVBrh@2@@2@@Z 00440d80 f i libohNetCore:Service.obj
 0001:0003fdb0       ?construct@?$allocator@PAVParameter@Net@OpenHome@@@std@@QAEXPAPAVParameter@Net@OpenHome@@ABQAV345@@Z 00440db0 f i libohNetCore:Service.obj
 0001:0003fde0       ?_Insert@?$_Tree@V?$_Tmap_traits@VBrn@OpenHome@@PAVBrh@2@VBufferCmp@2@V?$allocator@U?$pair@$$CBVBrn@OpenHome@@PAVBrh@2@@std@@@std@@$0A@@std@@@std@@IAE?AV?$_Tree_iterator@V?$_Tree_val@V?$_Tmap_traits@VBrn@OpenHome@@PAVBrh@2@VBufferCmp@2@V?$allocator@U?$pair@$$CBVBrn@OpenHome@@PAVBrh@2@@std@@@std@@$0A@@std@@@std@@@2@_NPAU_Node@?$_Tree_nod@V?$_Tmap_traits@VBrn@OpenHome@@PAVBrh@2@VBufferCmp@2@V?$allocator@U?$pair@$$CBVBrn@OpenHome@@PAVBrh@2@@std@@@std@@$0A@@std@@@2@1@Z 00440de0 f i libohNetCore:Service.obj
 0001:000401a0       ??0?$pair@V?$_Tree_iterator@V?$_Tree_val@V?$_Tmap_traits@VBrn@OpenHome@@PAVBrh@2@VBufferCmp@2@V?$allocator@U?$pair@$$CBVBrn@OpenHome@@PAVBrh@2@@std@@@std@@$0A@@std@@@std@@@std@@_N@std@@QAE@$$QAV?$_Tree_iterator@V?$_Tree_val@V?$_Tmap_traits@VBrn@OpenHome@@PAVBrh@2@VBufferCmp@2@V?$allocator@U?$pair@$$CBVBrn@OpenHome@@PAVBrh@2@@std@@@std@@$0A@@std@@@std@@@1@$$QA_N@Z 004411a0 f i libohNetCore:Service.obj
 0001:000401e0       ??F?$_Tree_iterator@V?$_Tree_val@V?$_Tmap_traits@VBrn@OpenHome@@PAVBrh@2@VBufferCmp@2@V?$allocator@U?$pair@$$CBVBrn@OpenHome@@PAVBrh@2@@std@@@std@@$0A@@std@@@std@@@std@@QAEAAV01@XZ 004411e0 f i libohNetCore:Service.obj
 0001:00040210       ?max_size@?$_Tree@V?$_Tmap_traits@VBrn@OpenHome@@PAVBrh@2@VBufferCmp@2@V?$allocator@U?$pair@$$CBVBrn@OpenHome@@PAVBrh@2@@std@@@std@@$0A@@std@@@std@@QBEIXZ 00441210 f i libohNetCore:Service.obj
 0001:00040240       ??0?$_Pair_base@V?$_Tree_iterator@V?$_Tree_val@V?$_Tmap_traits@VBrn@OpenHome@@PAVBrh@2@VBufferCmp@2@V?$allocator@U?$pair@$$CBVBrn@OpenHome@@PAVBrh@2@@std@@@std@@$0A@@std@@@std@@@std@@_N@std@@QAE@$$QAV?$_Tree_iterator@V?$_Tree_val@V?$_Tmap_traits@VBrn@OpenHome@@PAVBrh@2@VBufferCmp@2@V?$allocator@U?$pair@$$CBVBrn@OpenHome@@PAVBrh@2@@std@@@std@@$0A@@std@@@std@@@1@$$QA_N@Z 00441240 f i libohNetCore:Service.obj
 0001:000402c0       ??F?$_Tree_const_iterator@V?$_Tree_val@V?$_Tmap_traits@VBrn@OpenHome@@PAVBrh@2@VBufferCmp@2@V?$allocator@U?$pair@$$CBVBrn@OpenHome@@PAVBrh@2@@std@@@std@@$0A@@std@@@std@@@std@@QAEAAV01@XZ 004412c0 f i libohNetCore:Service.obj
 0001:000403e0       ?max_size@?$allocator@U?$pair@$$CBVBrn@OpenHome@@PAVBrh@2@@std@@@std@@QBEIXZ 004413e0 f i libohNetCore:Service.obj
 0001:00040430       ??F?$_Tree_unchecked_const_iterator@V?$_Tree_val@V?$_Tmap_traits@VBrn@OpenHome@@PAVBrh@2@VBufferCmp@2@V?$allocator@U?$pair@$$CBVBrn@OpenHome@@PAVBrh@2@@std@@@std@@$0A@@std@@@std@@U_Iterator_base12@2@@std@@QAEAAV01@XZ 00441430 f i libohNetCore:Service.obj
 0001:00040520       ??$forward@AAPAVBrh@OpenHome@@@std@@YGAAPAVBrh@OpenHome@@AAPAV12@@Z 00441520 f i libohNetCore:Service.obj
 0001:00040530       ??$?0AAVBrn@OpenHome@@AAPAVBrh@1@@?$_Pair_base@VBrn@OpenHome@@PAVBrh@2@@std@@QAE@AAVBrn@OpenHome@@AAPAVBrh@3@@Z 00441530 f i libohNetCore:Service.obj
 0001:000405b0       ??$forward@U?$pair@VBrn@OpenHome@@PAVBrh@2@@std@@@std@@YG$$QAU?$pair@VBrn@OpenHome@@PAVBrh@2@@0@AAU10@@Z 004415b0 f i libohNetCore:Service.obj
 0001:000405c0       ??$_Buynode@U?$pair@VBrn@OpenHome@@PAVBrh@2@@std@@@?$_Tree_val@V?$_Tmap_traits@VBrn@OpenHome@@PAVBrh@2@VBufferCmp@2@V?$allocator@U?$pair@$$CBVBrn@OpenHome@@PAVBrh@2@@std@@@std@@$0A@@std@@@std@@QAEPAU_Node@?$_Tree_nod@V?$_Tmap_traits@VBrn@OpenHome@@PAVBrh@2@VBufferCmp@2@V?$allocator@U?$pair@$$CBVBrn@OpenHome@@PAVBrh@2@@std@@@std@@$0A@@std@@@1@$$QAU?$pair@VBrn@OpenHome@@PAVBrh@2@@1@@Z 004415c0 f i libohNetCore:Service.obj
 0001:000406a0       ??$forward@AAPAVParameter@Net@OpenHome@@@std@@YGAAPAVParameter@Net@OpenHome@@AAPAV123@@Z 004416a0 f i libohNetCore:Service.obj
 0001:000406b0       ??$construct@AAPAVParameter@Net@OpenHome@@@?$allocator@PAVParameter@Net@OpenHome@@@std@@QAEXPAPAVParameter@Net@OpenHome@@AAPAV234@@Z 004416b0 f i libohNetCore:Service.obj
 0001:00040750       ??$forward@ABQAVParameter@Net@OpenHome@@@std@@YGABQAVParameter@Net@OpenHome@@ABQAV123@@Z 00441750 f i libohNetCore:Service.obj
 0001:00040760       ??$_Uninitialized_move@PAPAVParameter@Net@OpenHome@@PAPAV123@V?$allocator@PAVParameter@Net@OpenHome@@@std@@@std@@YGPAPAVParameter@Net@OpenHome@@PAPAV123@00AAV?$allocator@PAVParameter@Net@OpenHome@@@0@@Z 00441760 f i libohNetCore:Service.obj
 0001:000407b0       ??$_Ptr_cat@PAVParameter@Net@OpenHome@@PAV123@@std@@YG?AU_Scalar_ptr_iterator_tag@0@PAPAVParameter@Net@OpenHome@@0@Z 004417b0 f i libohNetCore:Service.obj
 0001:00040810       ??$_Destroy_range@V?$allocator@PAVParameter@Net@OpenHome@@@std@@@std@@YGXPAPAVParameter@Net@OpenHome@@0AAV?$allocator@PAVParameter@Net@OpenHome@@@0@U_Scalar_ptr_iterator_tag@0@@Z 00441810 f i libohNetCore:Service.obj
 0001:00040820       ??$?0AAV?$_Tree_iterator@V?$_Tree_val@V?$_Tmap_traits@VBrn@OpenHome@@PAVBrh@2@VBufferCmp@2@V?$allocator@U?$pair@$$CBVBrn@OpenHome@@PAVBrh@2@@std@@@std@@$0A@@std@@@std@@@std@@_N@?$pair@V?$_Tree_iterator@V?$_Tree_val@V?$_Tmap_traits@VBrn@OpenHome@@PAVBrh@2@VBufferCmp@2@V?$allocator@U?$pair@$$CBVBrn@OpenHome@@PAVBrh@2@@std@@@std@@$0A@@std@@@std@@@std@@_N@std@@QAE@AAV?$_Tree_iterator@V?$_Tree_val@V?$_Tmap_traits@VBrn@OpenHome@@PAVBrh@2@VBufferCmp@2@V?$allocator@U?$pair@$$CBVBrn@OpenHome@@PAVBrh@2@@std@@@std@@$0A@@std@@@std@@@1@$$QA_N@Z 00441820 f i libohNetCore:Service.obj
 0001:00040860       ??$_Destroy@U?$pair@$$CBVBrn@OpenHome@@PAVBrh@2@@std@@@std@@YGXPAU?$pair@$$CBVBrn@OpenHome@@PAVBrh@2@@0@@Z 00441860 f i libohNetCore:Service.obj
 0001:00040880       ??$_Construct@PAVParameter@Net@OpenHome@@ABQAV123@@std@@YGXPAPAVParameter@Net@OpenHome@@ABQAV123@@Z 00441880 f i libohNetCore:Service.obj
 0001:00040930       ??$move@AAV?$_Tree_iterator@V?$_Tree_val@V?$_Tmap_traits@VBrn@OpenHome@@PAVBrh@2@VBufferCmp@2@V?$allocator@U?$pair@$$CBVBrn@OpenHome@@PAVBrh@2@@std@@@std@@$0A@@std@@@std@@@std@@@std@@YG$$QAV?$_Tree_iterator@V?$_Tree_val@V?$_Tmap_traits@VBrn@OpenHome@@PAVBrh@2@VBufferCmp@2@V?$allocator@U?$pair@$$CBVBrn@OpenHome@@PAVBrh@2@@std@@@std@@$0A@@std@@@std@@@0@AAV10@@Z 00441930 f i libohNetCore:Service.obj
 0001:00040940       ??_G?$pair@$$CBVBrn@OpenHome@@PAVBrh@2@@std@@QAEPAXI@Z 00441940 f i libohNetCore:Service.obj
 0001:00040980       ??1?$pair@$$CBVBrn@OpenHome@@PAVBrh@2@@std@@QAE@XZ 00441980 f i libohNetCore:Service.obj
 0001:000409b0       ??1?$_Pair_base@$$CBVBrn@OpenHome@@PAVBrh@2@@std@@QAE@XZ 004419b0 f i libohNetCore:Service.obj
 0001:000409e0       ?_Buynode@?$_Tree_val@V?$_Tmap_traits@VBrn@OpenHome@@PAVBrh@2@VBufferCmp@2@V?$allocator@U?$pair@$$CBVBrn@OpenHome@@PAVBrh@2@@std@@@std@@$0A@@std@@@std@@QAEPAU_Node@?$_Tree_nod@V?$_Tmap_traits@VBrn@OpenHome@@PAVBrh@2@VBufferCmp@2@V?$allocator@U?$pair@$$CBVBrn@OpenHome@@PAVBrh@2@@std@@@std@@$0A@@std@@@2@XZ 004419e0 f i libohNetCore:Service.obj
 0001:00040a70       ??$_Cons_val@V?$allocator@U?$pair@$$CBVBrn@OpenHome@@PAVBrh@2@@std@@@std@@U?$pair@$$CBVBrn@OpenHome@@PAVBrh@2@@2@U?$pair@VBrn@OpenHome@@PAVBrh@2@@2@@std@@YGXAAV?$allocator@U?$pair@$$CBVBrn@OpenHome@@PAVBrh@2@@std@@@0@PAU?$pair@$$CBVBrn@OpenHome@@PAVBrh@2@@0@$$QAU?$pair@VBrn@OpenHome@@PAVBrh@2@@0@@Z 00441a70 f i libohNetCore:Service.obj
 0001:00040aa0       ??$_Val_type@PAPAVParameter@Net@OpenHome@@@std@@YGPAPAVParameter@Net@OpenHome@@PAPAV123@@Z 00441aa0 f i libohNetCore:Service.obj
 0001:00040ab0       ??$_Uninit_move@PAVParameter@Net@OpenHome@@PAV123@PAV123@@std@@YGPAPAVParameter@Net@OpenHome@@PAPAV123@00AAV?$allocator@PAVParameter@Net@OpenHome@@@0@0U_Scalar_ptr_iterator_tag@0@@Z 00441ab0 f i libohNetCore:Service.obj
 0001:00040b20       ??$forward@AAV?$_Tree_iterator@V?$_Tree_val@V?$_Tmap_traits@VBrn@OpenHome@@PAVBrh@2@VBufferCmp@2@V?$allocator@U?$pair@$$CBVBrn@OpenHome@@PAVBrh@2@@std@@@std@@$0A@@std@@@std@@@std@@@std@@YGAAV?$_Tree_iterator@V?$_Tree_val@V?$_Tmap_traits@VBrn@OpenHome@@PAVBrh@2@VBufferCmp@2@V?$allocator@U?$pair@$$CBVBrn@OpenHome@@PAVBrh@2@@std@@@std@@$0A@@std@@@std@@@0@AAV10@@Z 00441b20 f i libohNetCore:Service.obj
 0001:00040b30       ??$?0AAV?$_Tree_iterator@V?$_Tree_val@V?$_Tmap_traits@VBrn@OpenHome@@PAVBrh@2@VBufferCmp@2@V?$allocator@U?$pair@$$CBVBrn@OpenHome@@PAVBrh@2@@std@@@std@@$0A@@std@@@std@@@std@@_N@?$_Pair_base@V?$_Tree_iterator@V?$_Tree_val@V?$_Tmap_traits@VBrn@OpenHome@@PAVBrh@2@VBufferCmp@2@V?$allocator@U?$pair@$$CBVBrn@OpenHome@@PAVBrh@2@@std@@@std@@$0A@@std@@@std@@@std@@_N@std@@QAE@AAV?$_Tree_iterator@V?$_Tree_val@V?$_Tmap_traits@VBrn@OpenHome@@PAVBrh@2@VBufferCmp@2@V?$allocator@U?$pair@$$CBVBrn@OpenHome@@PAVBrh@2@@std@@@std@@$0A@@std@@@std@@@1@$$QA_N@Z 00441b30 f i libohNetCore:Service.obj
 0001:00040bb0       ??$construct@U?$pair@VBrn@OpenHome@@PAVBrh@2@@std@@@?$allocator@U?$pair@$$CBVBrn@OpenHome@@PAVBrh@2@@std@@@std@@QAEXPAU?$pair@$$CBVBrn@OpenHome@@PAVBrh@2@@1@$$QAU?$pair@VBrn@OpenHome@@PAVBrh@2@@1@@Z 00441bb0 f i libohNetCore:Service.obj
 0001:00040c50       ??$_Debug_range@PAPAVParameter@Net@OpenHome@@@std@@YGXPAPAVParameter@Net@OpenHome@@0PB_WI@Z 00441c50 f i libohNetCore:Service.obj
 0001:00040ca0       ??$_Debug_pointer@PAVParameter@Net@OpenHome@@@std@@YGXPAPAVParameter@Net@OpenHome@@PB_WI@Z 00441ca0 f i libohNetCore:Service.obj
 0001:00040cd0       ??$?0VBrn@OpenHome@@PAVBrh@1@@?$pair@$$CBVBrn@OpenHome@@PAVBrh@2@@std@@QAE@$$QAU?$pair@VBrn@OpenHome@@PAVBrh@2@@1@@Z 00441cd0 f i libohNetCore:Service.obj
 0001:00040d10       ??$_Iter_cat@PAPAVParameter@Net@OpenHome@@@std@@YG?AUrandom_access_iterator_tag@0@ABQAPAVParameter@Net@OpenHome@@@Z 00441d10 f i libohNetCore:Service.obj
 0001:00040d70       ??$_Debug_range2@PAPAVParameter@Net@OpenHome@@@std@@YGXPAPAVParameter@Net@OpenHome@@0PB_WIUrandom_access_iterator_tag@0@@Z 00441d70 f i libohNetCore:Service.obj
 0001:00040dd0       ??$forward@PAVBrh@OpenHome@@@std@@YG$$QAPAVBrh@OpenHome@@AAPAV12@@Z 00441dd0 f i libohNetCore:Service.obj
 0001:00040de0       ??$?0VBrn@OpenHome@@PAVBrh@1@@?$_Pair_base@$$CBVBrn@OpenHome@@PAVBrh@2@@std@@QAE@$$QAVBrn@OpenHome@@$$QAPAVBrh@3@@Z 00441de0 f i libohNetCore:Service.obj
 0001:00040e60       ??0CpiService@Net@OpenHome@@QAE@PBD0IAAVCpiDevice@12@@Z 00441e60 f   libohNetCore:CpiService.obj
 0001:00040f40       ??1CpiService@Net@OpenHome@@QAE@XZ 00441f40 f   libohNetCore:CpiService.obj
 0001:00041060       ?Invocation@CpiService@Net@OpenHome@@QAEPAV023@ABVAction@23@AAVFunctorAsync@23@@Z 00442060 f   libohNetCore:CpiService.obj
 0001:000410e0       ?Subscribe@CpiService@Net@OpenHome@@QAEXAAVIEventProcessor@23@@Z 004420e0 f   libohNetCore:CpiService.obj
 0001:00041140       ?Unsubscribe@CpiService@Net@OpenHome@@QAEXXZ 00442140 f   libohNetCore:CpiService.obj
 0001:000411a0       ?InvocationCompleted@CpiService@Net@OpenHome@@QAEXXZ 004421a0 f   libohNetCore:CpiService.obj
 0001:00041220       ?Interrupt@CpiService@Net@OpenHome@@QBE_NXZ 00442220 f   libohNetCore:CpiService.obj
 0001:00041240       ?Device@CpiService@Net@OpenHome@@QAEAAVCpiDevice@23@XZ 00442240 f   libohNetCore:CpiService.obj
 0001:00041260       ?Parameter@Argument@Net@OpenHome@@QBEABV023@XZ 00442260 f   libohNetCore:CpiService.obj
 0001:00041280       ??0Argument@Net@OpenHome@@IAE@ABVParameter@12@@Z 00442280 f   libohNetCore:CpiService.obj
 0001:000412c0       ??1Argument@Net@OpenHome@@UAE@XZ 004422c0 f   libohNetCore:CpiService.obj
 0001:000412e0       ?ValidationFailed@Argument@Net@OpenHome@@IAEXABVParameter@23@@Z 004422e0 f   libohNetCore:CpiService.obj
 0001:00041340       ??0ArgumentString@Net@OpenHome@@QAE@ABVParameter@12@@Z 00442340 f   libohNetCore:CpiService.obj
 0001:000413c0       ??0ArgumentString@Net@OpenHome@@QAE@ABVParameter@12@ABVBrx@2@@Z 004423c0 f   libohNetCore:CpiService.obj
 0001:000414b0       ??1ArgumentString@Net@OpenHome@@UAE@XZ 004424b0 f   libohNetCore:CpiService.obj
 0001:00041520       ?Value@ArgumentString@Net@OpenHome@@QBEABVBrx@3@XZ 00442520 f   libohNetCore:CpiService.obj
 0001:00041540       ?TransferTo@ArgumentString@Net@OpenHome@@QAEXAAVBrh@3@@Z 00442540 f   libohNetCore:CpiService.obj
 0001:00041570       ?ProcessInput@ArgumentString@Net@OpenHome@@UAEXAAVIInputArgumentProcessor@23@@Z 00442570 f   libohNetCore:CpiService.obj
 0001:000415b0       ?ProcessOutput@ArgumentString@Net@OpenHome@@UAEXAAVIOutputProcessor@23@ABVBrx@3@@Z 004425b0 f   libohNetCore:CpiService.obj
 0001:00041620       ??0ArgumentInt@Net@OpenHome@@QAE@ABVParameter@12@@Z 00442620 f   libohNetCore:CpiService.obj
 0001:00041660       ??0ArgumentInt@Net@OpenHome@@QAE@ABVParameter@12@H@Z 00442660 f   libohNetCore:CpiService.obj
 0001:00041730       ??1ArgumentInt@Net@OpenHome@@UAE@XZ 00442730 f   libohNetCore:CpiService.obj
 0001:00041760       ?Value@ArgumentInt@Net@OpenHome@@QBEHXZ 00442760 f   libohNetCore:CpiService.obj
 0001:00041780       ?ProcessInput@ArgumentInt@Net@OpenHome@@UAEXAAVIInputArgumentProcessor@23@@Z 00442780 f   libohNetCore:CpiService.obj
 0001:000417c0       ?ProcessOutput@ArgumentInt@Net@OpenHome@@UAEXAAVIOutputProcessor@23@ABVBrx@3@@Z 004427c0 f   libohNetCore:CpiService.obj
 0001:00041830       ??0ArgumentUint@Net@OpenHome@@QAE@ABVParameter@12@@Z 00442830 f   libohNetCore:CpiService.obj
 0001:00041870       ??0ArgumentUint@Net@OpenHome@@QAE@ABVParameter@12@I@Z 00442870 f   libohNetCore:CpiService.obj
 0001:00041940       ??1ArgumentUint@Net@OpenHome@@UAE@XZ 00442940 f   libohNetCore:CpiService.obj
 0001:00041970       ?Value@ArgumentUint@Net@OpenHome@@QBEIXZ 00442970 f   libohNetCore:CpiService.obj
 0001:00041990       ?ProcessInput@ArgumentUint@Net@OpenHome@@UAEXAAVIInputArgumentProcessor@23@@Z 00442990 f   libohNetCore:CpiService.obj
 0001:000419d0       ?ProcessOutput@ArgumentUint@Net@OpenHome@@UAEXAAVIOutputProcessor@23@ABVBrx@3@@Z 004429d0 f   libohNetCore:CpiService.obj
 0001:00041a40       ??0ArgumentBool@Net@OpenHome@@QAE@ABVParameter@12@@Z 00442a40 f   libohNetCore:CpiService.obj
 0001:00041a80       ??0ArgumentBool@Net@OpenHome@@QAE@ABVParameter@12@_N@Z 00442a80 f   libohNetCore:CpiService.obj
 0001:00041b50       ??1ArgumentBool@Net@OpenHome@@UAE@XZ 00442b50 f   libohNetCore:CpiService.obj
 0001:00041b80       ?Value@ArgumentBool@Net@OpenHome@@QBE_NXZ 00442b80 f   libohNetCore:CpiService.obj
 0001:00041ba0       ?ProcessInput@ArgumentBool@Net@OpenHome@@UAEXAAVIInputArgumentProcessor@23@@Z 00442ba0 f   libohNetCore:CpiService.obj
 0001:00041be0       ?ProcessOutput@ArgumentBool@Net@OpenHome@@UAEXAAVIOutputProcessor@23@ABVBrx@3@@Z 00442be0 f   libohNetCore:CpiService.obj
 0001:00041c50       ??0ArgumentBinary@Net@OpenHome@@QAE@ABVParameter@12@@Z 00442c50 f   libohNetCore:CpiService.obj
 0001:00041cd0       ??0ArgumentBinary@Net@OpenHome@@QAE@ABVParameter@12@ABVBrx@2@@Z 00442cd0 f   libohNetCore:CpiService.obj
 0001:00041dc0       ??1ArgumentBinary@Net@OpenHome@@UAE@XZ 00442dc0 f   libohNetCore:CpiService.obj
 0001:00041e30       ?Value@ArgumentBinary@Net@OpenHome@@QBEABVBrx@3@XZ 00442e30 f   libohNetCore:CpiService.obj
 0001:00041e50       ?TransferTo@ArgumentBinary@Net@OpenHome@@QAEXAAVBrh@3@@Z 00442e50 f   libohNetCore:CpiService.obj
 0001:00041e80       ?ProcessInput@ArgumentBinary@Net@OpenHome@@UAEXAAVIInputArgumentProcessor@23@@Z 00442e80 f   libohNetCore:CpiService.obj
 0001:00041ec0       ?ProcessOutput@ArgumentBinary@Net@OpenHome@@UAEXAAVIOutputProcessor@23@ABVBrx@3@@Z 00442ec0 f   libohNetCore:CpiService.obj
 0001:00041f30       ?SignalCompleted@Invocation@Net@OpenHome@@QAEXXZ 00442f30 f   libohNetCore:CpiService.obj
 0001:00042070       ?Error@Invocation@Net@OpenHome@@QBE_NXZ 00443070 f   libohNetCore:CpiService.obj
 0001:000420a0       ?Interrupt@Invocation@Net@OpenHome@@QBE_NXZ 004430a0 f   libohNetCore:CpiService.obj
 0001:000420d0       ?Set@Invocation@Net@OpenHome@@QAEXAAVCpiService@23@ABVAction@23@AAVCpiDevice@23@AAVFunctorAsync@23@@Z 004430d0 f   libohNetCore:CpiService.obj
 0001:00042140       ?AddInput@Invocation@Net@OpenHome@@QAEXPAVArgument@23@@Z 00443140 f   libohNetCore:CpiService.obj
 0001:00042170       ?AddOutput@Invocation@Net@OpenHome@@QAEXPAVArgument@23@@Z 00443170 f   libohNetCore:CpiService.obj
 0001:000421a0       ?SetError@Invocation@Net@OpenHome@@QAEXW4ELevel@Error@23@IABVBrx@3@@Z 004431a0 f   libohNetCore:CpiService.obj
 0001:000421f0       ?SetInterruptHandler@Invocation@Net@OpenHome@@QAEXPAVIInterruptHandler@23@@Z 004431f0 f   libohNetCore:CpiService.obj
 0001:000422e0       ?Interrupt@Invocation@Net@OpenHome@@QAEXABVService@23@@Z 004432e0 f   libohNetCore:CpiService.obj
 0001:000423d0       ?ServiceType@Invocation@Net@OpenHome@@QBEABV023@XZ 004433d0 f   libohNetCore:CpiService.obj
 0001:00042410       ?Action@Invocation@Net@OpenHome@@QBEABV023@XZ 00443410 f   libohNetCore:CpiService.obj
 0001:00042450       ?Device@Invocation@Net@OpenHome@@QAEAAVCpiDevice@23@XZ 00443450 f   libohNetCore:CpiService.obj
 0001:00042470       ?Output@Invocation@Net@OpenHome@@UAEXAAVIAsyncOutput@23@@Z 00443470 f   libohNetCore:CpiService.obj
 0001:000426d0       ?OutputArgument@Invocation@Net@OpenHome@@CGXAAVIAsyncOutput@23@PBDABVArgument@23@@Z 004436d0 f   libohNetCore:CpiService.obj
 0001:00042ad0       ?InputArguments@Invocation@Net@OpenHome@@QBEABV?$vector@PAVArgument@Net@OpenHome@@V?$allocator@PAVArgument@Net@OpenHome@@@std@@@std@@XZ 00443ad0 f   libohNetCore:CpiService.obj
 0001:00042af0       ?OutputArguments@Invocation@Net@OpenHome@@QAEAAV?$vector@PAVArgument@Net@OpenHome@@V?$allocator@PAVArgument@Net@OpenHome@@@std@@@std@@XZ 00443af0 f   libohNetCore:CpiService.obj
 0001:00042b10       ?SetInvoker@Invocation@Net@OpenHome@@QAEXAAVIInvocable@23@@Z 00443b10 f   libohNetCore:CpiService.obj
 0001:00042b30       ?Invoker@Invocation@Net@OpenHome@@QAEAAVIInvocable@23@XZ 00443b30 f   libohNetCore:CpiService.obj
 0001:00042b70       ?Type@Invocation@Net@OpenHome@@EBEIXZ 00443b70 f   libohNetCore:CpiService.obj
 0001:00042b90       ??0Invocation@Net@OpenHome@@AAE@AAV?$Fifo@PAVInvocation@Net@OpenHome@@@2@@Z 00443b90 f   libohNetCore:CpiService.obj
 0001:00042c80       ??1Invocation@Net@OpenHome@@AAE@XZ 00443c80 f   libohNetCore:CpiService.obj
 0001:00042d20       ?Clear@Invocation@Net@OpenHome@@AAEXXZ 00443d20 f   libohNetCore:CpiService.obj
 0001:00042ed0       ??0Invoker@Net@OpenHome@@QAE@PBDAAV?$Fifo@PAVInvoker@Net@OpenHome@@@2@@Z 00443ed0 f   libohNetCore:CpiService.obj
 0001:00042f70       ??1Invoker@Net@OpenHome@@UAE@XZ 00443f70 f   libohNetCore:CpiService.obj
 0001:00043000       ?Invoke@Invoker@Net@OpenHome@@QAEXPAVInvocation@23@@Z 00444000 f   libohNetCore:CpiService.obj
 0001:00043050       ?Interrupt@Invoker@Net@OpenHome@@QAEXABVService@23@@Z 00444050 f   libohNetCore:CpiService.obj
 0001:00043110       ?LogError@Invoker@Net@OpenHome@@AAEXPBD@Z 00444110 f   libohNetCore:CpiService.obj
 0001:000431a0       ?Run@Invoker@Net@OpenHome@@EAEXXZ 004441a0 f   libohNetCore:CpiService.obj
 0001:00043450       ??0InvocationManager@Net@OpenHome@@QAE@XZ 00444450 f   libohNetCore:CpiService.obj
 0001:000436f0       ??1InvocationManager@Net@OpenHome@@UAE@XZ 004446f0 f   libohNetCore:CpiService.obj
 0001:000438d0       ?Invocation@InvocationManager@Net@OpenHome@@CGPAV023@XZ 004448d0 f   libohNetCore:CpiService.obj
 0001:000439c0       ?Invoke@InvocationManager@Net@OpenHome@@SGXPAVInvocation@23@@Z 004449c0 f   libohNetCore:CpiService.obj
 0001:00043a30       ?Interrupt@InvocationManager@Net@OpenHome@@SGXABVService@23@@Z 00444a30 f   libohNetCore:CpiService.obj
 0001:00043aa0       ?Self@InvocationManager@Net@OpenHome@@CGAAV123@XZ 00444aa0 f   libohNetCore:CpiService.obj
 0001:00043ac0       ?Run@InvocationManager@Net@OpenHome@@EAEXXZ 00444ac0 f   libohNetCore:CpiService.obj
 0001:00043bf0       ??1Service@Net@OpenHome@@IAE@XZ 00444bf0 f i libohNetCore:CpiService.obj
 0001:00043c20       ??_GArgument@Net@OpenHome@@UAEPAXI@Z 00444c20 f i libohNetCore:CpiService.obj
 0001:00043c20       ??_EArgument@Net@OpenHome@@UAEPAXI@Z 00444c20 f i libohNetCore:CpiService.obj
 0001:00043c60       ??_EArgumentString@Net@OpenHome@@UAEPAXI@Z 00444c60 f i libohNetCore:CpiService.obj
 0001:00043ce0       ??_EArgumentInt@Net@OpenHome@@UAEPAXI@Z 00444ce0 f i libohNetCore:CpiService.obj
 0001:00043d60       ??_EArgumentUint@Net@OpenHome@@UAEPAXI@Z 00444d60 f i libohNetCore:CpiService.obj
 0001:00043de0       ??_EArgumentBool@Net@OpenHome@@UAEPAXI@Z 00444de0 f i libohNetCore:CpiService.obj
 0001:00043e60       ??_EArgumentBinary@Net@OpenHome@@UAEPAXI@Z 00444e60 f i libohNetCore:CpiService.obj
 0001:00043ee0       ??RFunctorAsync@Net@OpenHome@@QBEXAAVIAsync@12@@Z 00444ee0 f i libohNetCore:CpiService.obj
 0001:00043f20       ??BFunctorAsync@Net@OpenHome@@QBE_NXZ 00444f20 f i libohNetCore:CpiService.obj
 0001:00043f60       ?Level@Error@Net@OpenHome@@QBE?AW4ELevel@123@XZ 00444f60 f i libohNetCore:CpiService.obj
 0001:00043f80       ??0Async@Net@OpenHome@@QAE@XZ 00444f80 f i libohNetCore:CpiService.obj
 0001:00043fb0       ??1Error@Net@OpenHome@@QAE@XZ 00444fb0 f i libohNetCore:CpiService.obj
 0001:00043fe0       ??0IAsync@Net@OpenHome@@QAE@XZ 00444fe0 f i libohNetCore:CpiService.obj
 0001:00044000       ??_EInvoker@Net@OpenHome@@UAEPAXI@Z 00445000 f i libohNetCore:CpiService.obj
 0001:00044000       ??_GInvoker@Net@OpenHome@@UAEPAXI@Z 00445000 f i libohNetCore:CpiService.obj
 0001:00044040       ??_EInvocationManager@Net@OpenHome@@UAEPAXI@Z 00445040 f i libohNetCore:CpiService.obj
 0001:00044040       ??_GInvocationManager@Net@OpenHome@@UAEPAXI@Z 00445040 f i libohNetCore:CpiService.obj
 0001:00044080       ??_GInvocation@Net@OpenHome@@AAEPAXI@Z 00445080 f i libohNetCore:CpiService.obj
 0001:000440c0       ??0?$vector@PAVArgument@Net@OpenHome@@V?$allocator@PAVArgument@Net@OpenHome@@@std@@@std@@QAE@XZ 004450c0 f i libohNetCore:CpiService.obj
 0001:00044100       ??1?$vector@PAVArgument@Net@OpenHome@@V?$allocator@PAVArgument@Net@OpenHome@@@std@@@std@@QAE@XZ 00445100 f i libohNetCore:CpiService.obj
 0001:00044170       ?push_back@?$vector@PAVArgument@Net@OpenHome@@V?$allocator@PAVArgument@Net@OpenHome@@@std@@@std@@QAEXABQAVArgument@Net@OpenHome@@@Z 00445170 f i libohNetCore:CpiService.obj
 0001:00044280       ?clear@?$vector@PAVArgument@Net@OpenHome@@V?$allocator@PAVArgument@Net@OpenHome@@@std@@@std@@QAEXXZ 00445280 f i libohNetCore:CpiService.obj
 0001:00044380       ??0?$Fifo@PAVInvocation@Net@OpenHome@@@OpenHome@@QAE@I@Z 00445380 f i libohNetCore:CpiService.obj
 0001:00044420       ??1?$Fifo@PAVInvocation@Net@OpenHome@@@OpenHome@@QAE@XZ 00445420 f i libohNetCore:CpiService.obj
 0001:00044470       ??0?$Fifo@PAVInvoker@Net@OpenHome@@@OpenHome@@QAE@I@Z 00445470 f i libohNetCore:CpiService.obj
 0001:00044510       ??1?$Fifo@PAVInvoker@Net@OpenHome@@@OpenHome@@QAE@XZ 00445510 f i libohNetCore:CpiService.obj
 0001:00044560       ??1?$_Vector_iterator@V?$_Vector_val@PAVArgument@Net@OpenHome@@V?$allocator@PAVArgument@Net@OpenHome@@@std@@@std@@@std@@QAE@XZ 00445560 f i libohNetCore:CpiService.obj
 0001:00044590       ??0?$_Vector_const_iterator@V?$_Vector_val@PAVArgument@Net@OpenHome@@V?$allocator@PAVArgument@Net@OpenHome@@@std@@@std@@@std@@QAE@ABV01@@Z 00445590 f i libohNetCore:CpiService.obj
 0001:000445d0       ??1?$_Vector_const_iterator@V?$_Vector_val@PAVArgument@Net@OpenHome@@V?$allocator@PAVArgument@Net@OpenHome@@@std@@@std@@@std@@QAE@XZ 004455d0 f i libohNetCore:CpiService.obj
 0001:00044600       ??0?$_Iterator012@Urandom_access_iterator_tag@std@@PAVArgument@Net@OpenHome@@HPBQAV345@ABQAV345@U_Iterator_base12@2@@std@@QAE@ABU01@@Z 00445600 f i libohNetCore:CpiService.obj
 0001:00044630       ??1?$_Iterator012@Urandom_access_iterator_tag@std@@PAVArgument@Net@OpenHome@@HPBQAV345@ABQAV345@U_Iterator_base12@2@@std@@QAE@XZ 00445630 f i libohNetCore:CpiService.obj
 0001:00044660       ?begin@?$vector@PAVArgument@Net@OpenHome@@V?$allocator@PAVArgument@Net@OpenHome@@@std@@@std@@QAE?AV?$_Vector_iterator@V?$_Vector_val@PAVArgument@Net@OpenHome@@V?$allocator@PAVArgument@Net@OpenHome@@@std@@@std@@@2@XZ 00445660 f i libohNetCore:CpiService.obj
 0001:000446b0       ?end@?$vector@PAVArgument@Net@OpenHome@@V?$allocator@PAVArgument@Net@OpenHome@@@std@@@std@@QAE?AV?$_Vector_iterator@V?$_Vector_val@PAVArgument@Net@OpenHome@@V?$allocator@PAVArgument@Net@OpenHome@@@std@@@std@@@2@XZ 004456b0 f i libohNetCore:CpiService.obj
 0001:00044700       ?erase@?$vector@PAVArgument@Net@OpenHome@@V?$allocator@PAVArgument@Net@OpenHome@@@std@@@std@@QAE?AV?$_Vector_iterator@V?$_Vector_val@PAVArgument@Net@OpenHome@@V?$allocator@PAVArgument@Net@OpenHome@@@std@@@std@@@2@V?$_Vector_const_iterator@V?$_Vector_val@PAVArgument@Net@OpenHome@@V?$allocator@PAVArgument@Net@OpenHome@@@std@@@std@@@2@0@Z 00445700 f i libohNetCore:CpiService.obj
 0001:000448f0       ?_Inside@?$vector@PAVArgument@Net@OpenHome@@V?$allocator@PAVArgument@Net@OpenHome@@@std@@@std@@IBE_NPBQAVArgument@Net@OpenHome@@@Z 004458f0 f i libohNetCore:CpiService.obj
 0001:00044940       ?_Reserve@?$vector@PAVArgument@Net@OpenHome@@V?$allocator@PAVArgument@Net@OpenHome@@@std@@@std@@IAEXI@Z 00445940 f i libohNetCore:CpiService.obj
 0001:000449c0       ?_Tidy@?$vector@PAVArgument@Net@OpenHome@@V?$allocator@PAVArgument@Net@OpenHome@@@std@@@std@@IAEXXZ 004459c0 f i libohNetCore:CpiService.obj
 0001:00044a50       ?_Orphan_range@?$vector@PAVArgument@Net@OpenHome@@V?$allocator@PAVArgument@Net@OpenHome@@@std@@@std@@IBEXPAPAVArgument@Net@OpenHome@@0@Z 00445a50 f i libohNetCore:CpiService.obj
 0001:00044b60       ??0?$_Vector_val@PAVArgument@Net@OpenHome@@V?$allocator@PAVArgument@Net@OpenHome@@@std@@@std@@QAE@V?$allocator@PAVArgument@Net@OpenHome@@@1@@Z 00445b60 f i libohNetCore:CpiService.obj
 0001:00044c80       ??1?$_Vector_val@PAVArgument@Net@OpenHome@@V?$allocator@PAVArgument@Net@OpenHome@@@std@@@std@@QAE@XZ 00445c80 f i libohNetCore:CpiService.obj
 0001:00044d60       ??0?$allocator@PAVArgument@Net@OpenHome@@@std@@QAE@XZ 00445d60 f i libohNetCore:CpiService.obj
 0001:00044d80       ??0?$_Vector_iterator@V?$_Vector_val@PAVArgument@Net@OpenHome@@V?$allocator@PAVArgument@Net@OpenHome@@@std@@@std@@@std@@QAE@ABV01@@Z 00445d80 f i libohNetCore:CpiService.obj
 0001:00044db0       ?reserve@?$vector@PAVArgument@Net@OpenHome@@V?$allocator@PAVArgument@Net@OpenHome@@@std@@@std@@QAEXI@Z 00445db0 f i libohNetCore:CpiService.obj
 0001:00044f20       ?capacity@?$vector@PAVArgument@Net@OpenHome@@V?$allocator@PAVArgument@Net@OpenHome@@@std@@@std@@QBEIXZ 00445f20 f i libohNetCore:CpiService.obj
 0001:00044f50       ?_Make_iter@?$vector@PAVArgument@Net@OpenHome@@V?$allocator@PAVArgument@Net@OpenHome@@@std@@@std@@QBE?AV?$_Vector_iterator@V?$_Vector_val@PAVArgument@Net@OpenHome@@V?$allocator@PAVArgument@Net@OpenHome@@@std@@@std@@@2@V?$_Vector_const_iterator@V?$_Vector_val@PAVArgument@Net@OpenHome@@V?$allocator@PAVArgument@Net@OpenHome@@@std@@@std@@@2@@Z 00445f50 f i libohNetCore:CpiService.obj
 0001:00044fe0       ?max_size@?$vector@PAVArgument@Net@OpenHome@@V?$allocator@PAVArgument@Net@OpenHome@@@std@@@std@@QBEIXZ 00445fe0 f i libohNetCore:CpiService.obj
 0001:00045010       ?_Destroy@?$vector@PAVArgument@Net@OpenHome@@V?$allocator@PAVArgument@Net@OpenHome@@@std@@@std@@IAEXPAPAVArgument@Net@OpenHome@@0@Z 00446010 f i libohNetCore:CpiService.obj
 0001:00045050       ?_Grow_to@?$vector@PAVArgument@Net@OpenHome@@V?$allocator@PAVArgument@Net@OpenHome@@@std@@@std@@IBEII@Z 00446050 f i libohNetCore:CpiService.obj
 0001:000450d0       ?_Xlen@?$vector@PAVArgument@Net@OpenHome@@V?$allocator@PAVArgument@Net@OpenHome@@@std@@@std@@IBEXXZ 004460d0 f i libohNetCore:CpiService.obj
 0001:00045100       ??0?$allocator@PAVArgument@Net@OpenHome@@@std@@QAE@ABV01@@Z 00446100 f i libohNetCore:CpiService.obj
 0001:00045120       ?deallocate@?$allocator@PAVArgument@Net@OpenHome@@@std@@QAEXPAPAVArgument@Net@OpenHome@@I@Z 00446120 f i libohNetCore:CpiService.obj
 0001:00045150       ??0?$_Vector_iterator@V?$_Vector_val@PAVArgument@Net@OpenHome@@V?$allocator@PAVArgument@Net@OpenHome@@@std@@@std@@@std@@QAE@PAPAVArgument@Net@OpenHome@@PBU_Container_base12@1@@Z 00446150 f i libohNetCore:CpiService.obj
 0001:00045190       ??9?$_Vector_const_iterator@V?$_Vector_val@PAVArgument@Net@OpenHome@@V?$allocator@PAVArgument@Net@OpenHome@@@std@@@std@@@std@@QBE_NABV01@@Z 00446190 f i libohNetCore:CpiService.obj
 0001:000451d0       ??M?$_Vector_const_iterator@V?$_Vector_val@PAVArgument@Net@OpenHome@@V?$allocator@PAVArgument@Net@OpenHome@@@std@@@std@@@std@@QBE_NABV01@@Z 004461d0 f i libohNetCore:CpiService.obj
 0001:00045210       ?allocate@?$allocator@PAVArgument@Net@OpenHome@@@std@@QAEPAPAVArgument@Net@OpenHome@@I@Z 00446210 f i libohNetCore:CpiService.obj
 0001:00045240       ?max_size@?$allocator@PAVArgument@Net@OpenHome@@@std@@QBEIXZ 00446240 f i libohNetCore:CpiService.obj
 0001:00045290       ??0?$_Vector_const_iterator@V?$_Vector_val@PAVArgument@Net@OpenHome@@V?$allocator@PAVArgument@Net@OpenHome@@@std@@@std@@@std@@QAE@PAPAVArgument@Net@OpenHome@@PBU_Container_base12@1@@Z 00446290 f i libohNetCore:CpiService.obj
 0001:00045310       ??8?$_Vector_const_iterator@V?$_Vector_val@PAVArgument@Net@OpenHome@@V?$allocator@PAVArgument@Net@OpenHome@@@std@@@std@@@std@@QBE_NABV01@@Z 00446310 f i libohNetCore:CpiService.obj
 0001:00045350       ?_Compat@?$_Vector_const_iterator@V?$_Vector_val@PAVArgument@Net@OpenHome@@V?$allocator@PAVArgument@Net@OpenHome@@@std@@@std@@@std@@QBEXABV12@@Z 00446350 f i libohNetCore:CpiService.obj
 0001:00045400       ??0?$_Iterator012@Urandom_access_iterator_tag@std@@PAVArgument@Net@OpenHome@@HPBQAV345@ABQAV345@U_Iterator_base12@2@@std@@QAE@XZ 00446400 f i libohNetCore:CpiService.obj
 0001:00045430       ?Write@?$Fifo@PAVInvocation@Net@OpenHome@@@OpenHome@@QAEXPAVInvocation@Net@2@@Z 00446430 f i libohNetCore:CpiService.obj
 0001:00045460       ?Read@?$Fifo@PAVInvocation@Net@OpenHome@@@OpenHome@@QAEPAVInvocation@Net@2@XZ 00446460 f i libohNetCore:CpiService.obj
 0001:00045490       ?Write@?$Fifo@PAVInvoker@Net@OpenHome@@@OpenHome@@QAEXPAVInvoker@Net@2@@Z 00446490 f i libohNetCore:CpiService.obj
 0001:000454c0       ?Read@?$Fifo@PAVInvoker@Net@OpenHome@@@OpenHome@@QAEPAVInvoker@Net@2@XZ 004464c0 f i libohNetCore:CpiService.obj
 0001:000454f0       ??$addressof@QAVArgument@Net@OpenHome@@@std@@YGPBQAVArgument@Net@OpenHome@@ABQAV123@@Z 004464f0 f i libohNetCore:CpiService.obj
 0001:00045500       ??$_Cons_val@V?$allocator@PAVArgument@Net@OpenHome@@@std@@PAVArgument@Net@OpenHome@@AAPAV345@@std@@YGXAAV?$allocator@PAVArgument@Net@OpenHome@@@0@PAPAVArgument@Net@OpenHome@@AAPAV234@@Z 00446500 f i libohNetCore:CpiService.obj
 0001:00045530       ??$_Cons_val@V?$allocator@PAVArgument@Net@OpenHome@@@std@@PAVArgument@Net@OpenHome@@ABQAV345@@std@@YGXAAV?$allocator@PAVArgument@Net@OpenHome@@@0@PAPAVArgument@Net@OpenHome@@ABQAV234@@Z 00446530 f i libohNetCore:CpiService.obj
 0001:00045560       ??$_Move@PAPAVArgument@Net@OpenHome@@PAPAV123@@std@@YGPAPAVArgument@Net@OpenHome@@PAPAV123@00@Z 00446560 f i libohNetCore:CpiService.obj
 0001:000455b0       ??$?0PAVArgument@Net@OpenHome@@@?$allocator@U_Container_proxy@std@@@std@@QAE@ABV?$allocator@PAVArgument@Net@OpenHome@@@1@@Z 004465b0 f i libohNetCore:CpiService.obj
 0001:000455d0       ??$_Umove@PAPAVArgument@Net@OpenHome@@@?$vector@PAVArgument@Net@OpenHome@@V?$allocator@PAVArgument@Net@OpenHome@@@std@@@std@@IAEPAPAVArgument@Net@OpenHome@@PAPAV234@00@Z 004465d0 f i libohNetCore:CpiService.obj
 0001:00045610       ??$_Destroy_range@V?$allocator@PAVArgument@Net@OpenHome@@@std@@@std@@YGXPAPAVArgument@Net@OpenHome@@0AAV?$allocator@PAVArgument@Net@OpenHome@@@0@@Z 00446610 f i libohNetCore:CpiService.obj
 0001:00045660       ??$_Allocate@PAVArgument@Net@OpenHome@@@std@@YGPAPAVArgument@Net@OpenHome@@IPAPAV123@@Z 00446660 f i libohNetCore:CpiService.obj
 0001:000456e0       ?construct@?$allocator@PAVArgument@Net@OpenHome@@@std@@QAEXPAPAVArgument@Net@OpenHome@@ABQAV345@@Z 004466e0 f i libohNetCore:CpiService.obj
 0001:00045710       ?Write@?$Fifo@PAVInvocation@Net@OpenHome@@@OpenHome@@QAEXPAVInvocation@Net@2@I@Z 00446710 f i libohNetCore:CpiService.obj
 0001:00045750       ?Read@?$Fifo@PAVInvocation@Net@OpenHome@@@OpenHome@@QAEPAVInvocation@Net@2@I@Z 00446750 f i libohNetCore:CpiService.obj
 0001:000457a0       ?Write@?$Fifo@PAVInvoker@Net@OpenHome@@@OpenHome@@QAEXPAVInvoker@Net@2@I@Z 004467a0 f i libohNetCore:CpiService.obj
 0001:000457e0       ?Read@?$Fifo@PAVInvoker@Net@OpenHome@@@OpenHome@@QAEPAVInvoker@Net@2@I@Z 004467e0 f i libohNetCore:CpiService.obj
 0001:00045830       ??$forward@AAPAVArgument@Net@OpenHome@@@std@@YGAAPAVArgument@Net@OpenHome@@AAPAV123@@Z 00446830 f i libohNetCore:CpiService.obj
 0001:00045840       ??$construct@AAPAVArgument@Net@OpenHome@@@?$allocator@PAVArgument@Net@OpenHome@@@std@@QAEXPAPAVArgument@Net@OpenHome@@AAPAV234@@Z 00446840 f i libohNetCore:CpiService.obj
 0001:000458e0       ??$forward@ABQAVArgument@Net@OpenHome@@@std@@YGABQAVArgument@Net@OpenHome@@ABQAV123@@Z 004468e0 f i libohNetCore:CpiService.obj
 0001:000458f0       ??$_Ptr_cat@PAVArgument@Net@OpenHome@@PAV123@@std@@YG?AU_Scalar_ptr_iterator_tag@0@PAPAVArgument@Net@OpenHome@@0@Z 004468f0 f i libohNetCore:CpiService.obj
 0001:00045950       ??$_Move@PAPAVArgument@Net@OpenHome@@PAPAV123@@std@@YGPAPAVArgument@Net@OpenHome@@PAPAV123@00U_Scalar_ptr_iterator_tag@0@@Z 00446950 f i libohNetCore:CpiService.obj
 0001:000459a0       ??$_Uninitialized_move@PAPAVArgument@Net@OpenHome@@PAPAV123@V?$allocator@PAVArgument@Net@OpenHome@@@std@@@std@@YGPAPAVArgument@Net@OpenHome@@PAPAV123@00AAV?$allocator@PAVArgument@Net@OpenHome@@@0@@Z 004469a0 f i libohNetCore:CpiService.obj
 0001:000459f0       ??$_Destroy_range@V?$allocator@PAVArgument@Net@OpenHome@@@std@@@std@@YGXPAPAVArgument@Net@OpenHome@@0AAV?$allocator@PAVArgument@Net@OpenHome@@@0@U_Scalar_ptr_iterator_tag@0@@Z 004469f0 f i libohNetCore:CpiService.obj
 0001:00045a00       ??$_Construct@PAVArgument@Net@OpenHome@@ABQAV123@@std@@YGXPAPAVArgument@Net@OpenHome@@ABQAV123@@Z 00446a00 f i libohNetCore:CpiService.obj
 0001:00045ab0       ??$_Val_type@PAPAVArgument@Net@OpenHome@@@std@@YGPAPAVArgument@Net@OpenHome@@PAPAV123@@Z 00446ab0 f i libohNetCore:CpiService.obj
 0001:00045ac0       ??$_Uninit_move@PAVArgument@Net@OpenHome@@PAV123@PAV123@@std@@YGPAPAVArgument@Net@OpenHome@@PAPAV123@00AAV?$allocator@PAVArgument@Net@OpenHome@@@0@0U_Scalar_ptr_iterator_tag@0@@Z 00446ac0 f i libohNetCore:CpiService.obj
 0001:00045b30       ??$_Debug_range@PAPAVArgument@Net@OpenHome@@@std@@YGXPAPAVArgument@Net@OpenHome@@0PB_WI@Z 00446b30 f i libohNetCore:CpiService.obj
 0001:00045b80       ??$_Debug_pointer@PAVArgument@Net@OpenHome@@@std@@YGXPAPAVArgument@Net@OpenHome@@PB_WI@Z 00446b80 f i libohNetCore:CpiService.obj
 0001:00045bb0       ??$_Iter_cat@PAPAVArgument@Net@OpenHome@@@std@@YG?AUrandom_access_iterator_tag@0@ABQAPAVArgument@Net@OpenHome@@@Z 00446bb0 f i libohNetCore:CpiService.obj
 0001:00045c10       ??$_Debug_range2@PAPAVArgument@Net@OpenHome@@@std@@YGXPAPAVArgument@Net@OpenHome@@0PB_WIUrandom_access_iterator_tag@0@@Z 00446c10 f i libohNetCore:CpiService.obj
 0001:00045c70       _OsCreate@0                00446c70 f   libohNetCore:Os.obj
 0001:00045e40       _OsDestroy@0               00446e40 f   libohNetCore:Os.obj
 0001:00045f50       _OsQuit@0                  00446f50 f   libohNetCore:Os.obj
 0001:00045f70       _OsTimeInUs@0              00446f70 f   libohNetCore:Os.obj
 0001:00046050       _OsConsoleWrite@4          00447050 f   libohNetCore:Os.obj
 0001:00046090       _OsGetPlatformNameAndVersion@12 00447090 f   libohNetCore:Os.obj
 0001:00046160       _OsSemaphoreCreate@8       00447160 f   libohNetCore:Os.obj
 0001:000461a0       _OsSemaphoreDestroy@4      004471a0 f   libohNetCore:Os.obj
 0001:000461d0       _OsSemaphoreWait@4         004471d0 f   libohNetCore:Os.obj
 0001:00046210       _OsSemaphoreTimedWait@8    00447210 f   libohNetCore:Os.obj
 0001:00046270       _OsSemaphoreClear@4        00447270 f   libohNetCore:Os.obj
 0001:000462c0       _OsSemaphoreSignal@4       004472c0 f   libohNetCore:Os.obj
 0001:00046310       _OsMutexCreate@4           00447310 f   libohNetCore:Os.obj
 0001:00046370       _OsMutexDestroy@4          00447370 f   libohNetCore:Os.obj
 0001:000463c0       _OsMutexLock@4             004473c0 f   libohNetCore:Os.obj
 0001:00046430       _OsMutexUnlock@4           00447430 f   libohNetCore:Os.obj
 0001:00046490       _threadEntrypoint@4        00447490 f   libohNetCore:Os.obj
 0001:00046590       _OsThreadCreate@20         00447590 f   libohNetCore:Os.obj
 0001:00046670       _OsThreadTls@0             00447670 f   libohNetCore:Os.obj
 0001:000466a0       _OsThreadDestroy@4         004476a0 f   libohNetCore:Os.obj
 0001:000466c0       _OsThreadSupportsPriorities@0 004476c0 f   libohNetCore:Os.obj
 0001:000466d0       _OsNetworkCreate@4         004476d0 f   libohNetCore:Os.obj
 0001:000467d0       _OsNetworkBind@12          004477d0 f   libohNetCore:Os.obj
 0001:000468d0       _OsNetworkPort@8           004478d0 f   libohNetCore:Os.obj
 0001:000469a0       _OsNetworkConnect@16       004479a0 f   libohNetCore:Os.obj
 0001:00046c30       _OsNetworkSend@12          00447c30 f   libohNetCore:Os.obj
 0001:00046cd0       _OsNetworkSendTo@20        00447cd0 f   libohNetCore:Os.obj
 0001:00046dc0       _OsNetworkReceive@12       00447dc0 f   libohNetCore:Os.obj
 0001:00046f50       _OsNetworkReceiveFrom@20   00447f50 f   libohNetCore:Os.obj
 0001:00047150       _OsNetworkInterrupt@8      00448150 f   libohNetCore:Os.obj
 0001:000471e0       _OsNetworkClose@4          004481e0 f   libohNetCore:Os.obj
 0001:00047250       _OsNetworkListen@8         00448250 f   libohNetCore:Os.obj
 0001:000472b0       _OsNetworkAccept@4         004482b0 f   libohNetCore:Os.obj
 0001:00047450       _OsNetworkGetHostByName@8  00448450 f   libohNetCore:Os.obj
 0001:000474c0       _OsNetworkSocketSetSendBufBytes@8 004484c0 f   libohNetCore:Os.obj
 0001:00047520       _OsNetworkSocketSetRecvBufBytes@8 00448520 f   libohNetCore:Os.obj
 0001:00047580       _OsNetworkSocketSetReceiveTimeout@8 00448580 f   libohNetCore:Os.obj
 0001:00047630       _OsNetworkTcpSetNoDelay@4  00448630 f   libohNetCore:Os.obj
 0001:000476c0       _OsNetworkSocketSetReuseAddress@4 004486c0 f   libohNetCore:Os.obj
 0001:00047760       _OsNetworkSocketSetMulticastTtl@8 00448760 f   libohNetCore:Os.obj
 0001:000477c0       _OsNetworkSocketMulticastAddMembership@12 004487c0 f   libohNetCore:Os.obj
 0001:000478a0       _OsNetworkSocketMulticastDropMembership@12 004488a0 f   libohNetCore:Os.obj
 0001:00047940       _OsNetworkListAdapters@8   00448940 f   libohNetCore:Os.obj
 0001:00047d60       _OsNetworkFreeInterfaces@4 00448d60 f   libohNetCore:Os.obj
 0001:00047db0       _interfaceChangeThread@4   00448db0 f   libohNetCore:Os.obj
 0001:00047f10       _OsNetworkSetInterfaceChangedObserver@8 00448f10 f   libohNetCore:Os.obj
 0001:00048030       _OsNetworkSetTestInterfaceIndex@4 00449030 f   libohNetCore:Os.obj
 0001:00048070       ?Now@Time@OpenHome@@SGIXZ  00449070 f   libohNetCore:Timer.obj
 0001:00048090       ?IsBeforeOrAt@Time@OpenHome@@SG_NII@Z 00449090 f   libohNetCore:Timer.obj
 0001:000480c0       ?IsAfter@Time@OpenHome@@SG_NII@Z 004490c0 f   libohNetCore:Timer.obj
 0001:000480f0       ?IsInPastOrNow@Time@OpenHome@@SG_NI@Z 004490f0 f   libohNetCore:Timer.obj
 0001:00048110       ?IsInFuture@Time@OpenHome@@SG_NI@Z 00449110 f   libohNetCore:Timer.obj
 0001:00048130       ?TimeToWaitFor@Time@OpenHome@@SGHI@Z 00449130 f   libohNetCore:Timer.obj
 0001:00048150       ??0Timer@OpenHome@@QAE@VFunctor@1@@Z 00449150 f   libohNetCore:Timer.obj
 0001:000481a0       ?FireIn@Timer@OpenHome@@QAEXI@Z 004491a0 f   libohNetCore:Timer.obj
 0001:00048210       ?FireAt@Timer@OpenHome@@QAEXI@Z 00449210 f   libohNetCore:Timer.obj
 0001:000482a0       ?Cancel@Timer@OpenHome@@QAEXXZ 004492a0 f   libohNetCore:Timer.obj
 0001:000482f0       ?DoCancel@Timer@OpenHome@@AAEXXZ 004492f0 f   libohNetCore:Timer.obj
 0001:00048360       ??1Timer@OpenHome@@QAE@XZ  00449360 f   libohNetCore:Timer.obj
 0001:000483e0       ??0TimerManager@OpenHome@@QAE@XZ 004493e0 f   libohNetCore:Timer.obj
 0001:000485d0       ??1TimerManager@OpenHome@@UAE@XZ 004495d0 f   libohNetCore:Timer.obj
 0001:00048710       ?Stop@TimerManager@OpenHome@@QAEXXZ 00449710 f   libohNetCore:Timer.obj
 0001:000487f0       ?CallbackLock@TimerManager@OpenHome@@QAEXXZ 004497f0 f   libohNetCore:Timer.obj
 0001:00048820       ?CallbackUnlock@TimerManager@OpenHome@@QAEXXZ 00449820 f   libohNetCore:Timer.obj
 0001:00048850       ?HeadChanged@TimerManager@OpenHome@@EAEXAAVQueueSortedEntry@2@@Z 00449850 f   libohNetCore:Timer.obj
 0001:00048970       ?Fire@TimerManager@OpenHome@@AAEXXZ 00449970 f   libohNetCore:Timer.obj
 0001:00048a70       ?Thread@TimerManager@OpenHome@@ABEPAV02@XZ 00449a70 f   libohNetCore:Timer.obj
 0001:00048a90       ?Compare@TimerManager@OpenHome@@EAEHAAVQueueSortedEntry@2@0@Z 00449a90 f   libohNetCore:Timer.obj
 0001:00048ae0       ?Run@TimerManager@OpenHome@@AAEXXZ 00449ae0 f   libohNetCore:Timer.obj
 0001:00048bf0       ??0QueueSortedEntryTimer@OpenHome@@QAE@XZ 00449bf0 f i libohNetCore:Timer.obj
 0001:00048c20       ??_ETimerManager@OpenHome@@UAEPAXI@Z 00449c20 f i libohNetCore:Timer.obj
 0001:00048c20       ??_GTimerManager@OpenHome@@UAEPAXI@Z 00449c20 f i libohNetCore:Timer.obj
 0001:00048c60       ??0?$QueueSorted@VTimer@OpenHome@@@OpenHome@@QAE@XZ 00449c60 f i libohNetCore:Timer.obj
 0001:00048c90       ??1?$QueueSorted@VTimer@OpenHome@@@OpenHome@@UAE@XZ 00449c90 f i libohNetCore:Timer.obj
 0001:00048cc0       ??_G?$QueueSorted@VTimer@OpenHome@@@OpenHome@@UAEPAXI@Z 00449cc0 f i libohNetCore:Timer.obj
 0001:00048cc0       ??_E?$QueueSorted@VTimer@OpenHome@@@OpenHome@@UAEPAXI@Z 00449cc0 f i libohNetCore:Timer.obj
 0001:00048d00       ?Add@?$QueueSorted@VTimer@OpenHome@@@OpenHome@@QAEXAAVTimer@2@@Z 00449d00 f i libohNetCore:Timer.obj
 0001:00048d30       ?Remove@?$QueueSorted@VTimer@OpenHome@@@OpenHome@@QAEXAAVTimer@2@@Z 00449d30 f i libohNetCore:Timer.obj
 0001:00048d60       ?RemoveHead@?$QueueSorted@VTimer@OpenHome@@@OpenHome@@QAEAAVTimer@2@XZ 00449d60 f i libohNetCore:Timer.obj
 0001:00048d90       ?Entry@?$QueueSorted@VTimer@OpenHome@@@OpenHome@@IAEAAVTimer@2@AAVQueueSortedEntry@2@@Z 00449d90 f i libohNetCore:Timer.obj
 0001:00048db0       ??$MakeFunctor@VTimerManager@OpenHome@@XV12@@OpenHome@@YG?AV?$MemberTranslator@VTimerManager@OpenHome@@P812@AEXXZ@0@AAVTimerManager@0@ABQ820@AEXXZ@Z 00449db0 f i libohNetCore:Timer.obj
 0001:00048de0       ??0?$MemberTranslator@VTimerManager@OpenHome@@P812@AEXXZ@OpenHome@@QAE@AAVTimerManager@1@ABQ821@AEXXZ@Z 00449de0 f i libohNetCore:Timer.obj
 0001:00048e20       ?Thunk@?$MemberTranslator@VTimerManager@OpenHome@@P812@AEXXZ@OpenHome@@SGXABVFunctor@2@@Z 00449e20 f i libohNetCore:Timer.obj
 0001:00048e70       ??0Stack@Net@OpenHome@@QAE@XZ 00449e70 f   libohNetCore:Stack.obj
 0001:00048f70       ??0Stack@Net@OpenHome@@QAE@PAVInitialisationParams@12@@Z 00449f70 f   libohNetCore:Stack.obj
 0001:00049190       ?Destroy@Stack@Net@OpenHome@@SGXXZ 0044a190 f   libohNetCore:Stack.obj
 0001:000491f0       ??1Stack@Net@OpenHome@@AAE@XZ 0044a1f0 f   libohNetCore:Stack.obj
 0001:00049400       ?IsInitialised@Stack@Net@OpenHome@@SG_NXZ 0044a400 f   libohNetCore:Stack.obj
 0001:00049420       ?GetVersion@Stack@Net@OpenHome@@SGXAAI0@Z 0044a420 f   libohNetCore:Stack.obj
 0001:00049440       ?TimerManager@Stack@Net@OpenHome@@SGAAV03@XZ 0044a440 f   libohNetCore:Stack.obj
 0001:00049450       ?Mutex@Stack@Net@OpenHome@@SGAAV03@XZ 0044a450 f   libohNetCore:Stack.obj
 0001:00049460       ?NetworkAdapterList@Stack@Net@OpenHome@@SGAAV03@XZ 0044a460 f   libohNetCore:Stack.obj
 0001:00049470       ?MulticastListenerClaim@Stack@Net@OpenHome@@SGAAVSsdpListenerMulticast@23@I@Z 0044a470 f   libohNetCore:Stack.obj
 0001:00049620       ?MulticastListenerRelease@Stack@Net@OpenHome@@SGXI@Z 0044a620 f   libohNetCore:Stack.obj
 0001:000497c0       ?SequenceNumber@Stack@Net@OpenHome@@SGIXZ 0044a7c0 f   libohNetCore:Stack.obj
 0001:00049820       ?InitParams@Stack@Net@OpenHome@@SGAAVInitialisationParams@23@XZ 0044a820 f   libohNetCore:Stack.obj
 0001:00049830       ?AddObject@Stack@Net@OpenHome@@SGXPAXPBD@Z 0044a830 f   libohNetCore:Stack.obj
 0001:00049860       ?RemoveObject@Stack@Net@OpenHome@@SGXPAXPBD@Z 0044a860 f   libohNetCore:Stack.obj
 0001:00049890       ?ListObjects@Stack@Net@OpenHome@@SGXXZ 0044a890 f   libohNetCore:Stack.obj
 0001:000498b0       ?DoAddObject@Stack@Net@OpenHome@@AAEXPAXPBD@Z 0044a8b0 f   libohNetCore:Stack.obj
 0001:00049b10       ?DoRemoveObject@Stack@Net@OpenHome@@AAEXPAXPBD@Z 0044ab10 f   libohNetCore:Stack.obj
 0001:00049db0       ?DoListObjects@Stack@Net@OpenHome@@AAEXXZ 0044adb0 f   libohNetCore:Stack.obj
 0001:00049fc0       ?SetCpiStack@Stack@Net@OpenHome@@CGXPAVIStack@23@@Z 0044afc0 f   libohNetCore:Stack.obj
 0001:00049fe0       ?SetDviStack@Stack@Net@OpenHome@@CGXPAVIStack@23@@Z 0044afe0 f   libohNetCore:Stack.obj
 0001:0004a000       ?CpiStack@Stack@Net@OpenHome@@CGPAVIStack@23@XZ 0044b000 f   libohNetCore:Stack.obj
 0001:0004a010       ?DviStack@Stack@Net@OpenHome@@CGPAVIStack@23@XZ 0044b010 f   libohNetCore:Stack.obj
 0001:0004a020       ??0MListener@Stack@Net@OpenHome@@QAE@I@Z 0044b020 f   libohNetCore:Stack.obj
 0001:0004a060       ?Listener@MListener@Stack@Net@OpenHome@@QAEAAVSsdpListenerMulticast@34@XZ 0044b060 f   libohNetCore:Stack.obj
 0001:0004a080       ?Interface@MListener@Stack@Net@OpenHome@@QBEIXZ 0044b080 f   libohNetCore:Stack.obj
 0001:0004a0b0       ?AddRef@MListener@Stack@Net@OpenHome@@QAEXXZ 0044b0b0 f   libohNetCore:Stack.obj
 0001:0004a0e0       ?RemoveRef@MListener@Stack@Net@OpenHome@@QAE_NXZ 0044b0e0 f   libohNetCore:Stack.obj
 0001:0004a120       ??0ObjectType@Stack@Net@OpenHome@@QAE@PBD@Z 0044b120 f   libohNetCore:Stack.obj
 0001:0004a190       ??1ObjectType@Stack@Net@OpenHome@@QAE@XZ 0044b190 f   libohNetCore:Stack.obj
 0001:0004a220       ??1?$map@VBrn@OpenHome@@PAVObjectType@Stack@Net@2@VBufferCmp@2@V?$allocator@U?$pair@$$CBVBrn@OpenHome@@PAVObjectType@Stack@Net@2@@std@@@std@@@std@@QAE@XZ 0044b220 f i libohNetCore:Stack.obj
 0001:0004a250       ??_GStack@Net@OpenHome@@AAEPAXI@Z 0044b250 f i libohNetCore:Stack.obj
 0001:0004a290       ??_GNetworkAdapterList@OpenHome@@QAEPAXI@Z 0044b290 f i libohNetCore:Stack.obj
 0001:0004a2d0       ??_GInitialisationParams@Net@OpenHome@@QAEPAXI@Z 0044b2d0 f i libohNetCore:Stack.obj
 0001:0004a310       ??_GMListener@Stack@Net@OpenHome@@QAEPAXI@Z 0044b310 f i libohNetCore:Stack.obj
 0001:0004a350       ??1?$_Vector_iterator@V?$_Vector_val@PAVMListener@Stack@Net@OpenHome@@V?$allocator@PAVMListener@Stack@Net@OpenHome@@@std@@@std@@@std@@QAE@XZ 0044b350 f i libohNetCore:Stack.obj
 0001:0004a380       ??0?$_Vector_const_iterator@V?$_Vector_val@PAVMListener@Stack@Net@OpenHome@@V?$allocator@PAVMListener@Stack@Net@OpenHome@@@std@@@std@@@std@@QAE@ABV01@@Z 0044b380 f i libohNetCore:Stack.obj
 0001:0004a3c0       ??1?$_Vector_const_iterator@V?$_Vector_val@PAVMListener@Stack@Net@OpenHome@@V?$allocator@PAVMListener@Stack@Net@OpenHome@@@std@@@std@@@std@@QAE@XZ 0044b3c0 f i libohNetCore:Stack.obj
 0001:0004a3f0       ??1MListener@Stack@Net@OpenHome@@QAE@XZ 0044b3f0 f i libohNetCore:Stack.obj
 0001:0004a420       ??0?$_Iterator012@Urandom_access_iterator_tag@std@@PAVMListener@Stack@Net@OpenHome@@HPBQAV3456@ABQAV3456@U_Iterator_base12@2@@std@@QAE@ABU01@@Z 0044b420 f i libohNetCore:Stack.obj
 0001:0004a450       ??1?$_Iterator012@Urandom_access_iterator_tag@std@@PAVMListener@Stack@Net@OpenHome@@HPBQAV3456@ABQAV3456@U_Iterator_base12@2@@std@@QAE@XZ 0044b450 f i libohNetCore:Stack.obj
 0001:0004a480       ?Name@ObjectType@Stack@Net@OpenHome@@QAEABVBrx@4@XZ 0044b480 f i libohNetCore:Stack.obj
 0001:0004a4a0       ?Map@ObjectType@Stack@Net@OpenHome@@QAEAAV?$map@PAXPAXU?$less@PAX@std@@V?$allocator@U?$pair@QAXPAX@std@@@2@@std@@XZ 0044b4a0 f i libohNetCore:Stack.obj
 0001:0004a4c0       ??1?$_Tree_iterator@V?$_Tree_val@V?$_Tmap_traits@VBrn@OpenHome@@PAVObjectType@Stack@Net@2@VBufferCmp@2@V?$allocator@U?$pair@$$CBVBrn@OpenHome@@PAVObjectType@Stack@Net@2@@std@@@std@@$0A@@std@@@std@@@std@@QAE@XZ 0044b4c0 f i libohNetCore:Stack.obj
 0001:0004a4f0       ??1?$pair@VBrn@OpenHome@@PAVObjectType@Stack@Net@2@@std@@QAE@XZ 0044b4f0 f i libohNetCore:Stack.obj
 0001:0004a520       ??1?$pair@V?$_Tree_iterator@V?$_Tree_val@V?$_Tmap_traits@VBrn@OpenHome@@PAVObjectType@Stack@Net@2@VBufferCmp@2@V?$allocator@U?$pair@$$CBVBrn@OpenHome@@PAVObjectType@Stack@Net@2@@std@@@std@@$0A@@std@@@std@@@std@@_N@std@@QAE@XZ 0044b520 f i libohNetCore:Stack.obj
 0001:0004a550       ??1?$pair@V?$_Tree_iterator@V?$_Tree_val@V?$_Tmap_traits@PAXPAXU?$less@PAX@std@@V?$allocator@U?$pair@QAXPAX@std@@@2@$0A@@std@@@std@@@std@@_N@std@@QAE@XZ 0044b550 f i libohNetCore:Stack.obj
 0001:0004a580       ??1?$_Tree_const_iterator@V?$_Tree_val@V?$_Tmap_traits@VBrn@OpenHome@@PAVObjectType@Stack@Net@2@VBufferCmp@2@V?$allocator@U?$pair@$$CBVBrn@OpenHome@@PAVObjectType@Stack@Net@2@@std@@@std@@$0A@@std@@@std@@@std@@QAE@XZ 0044b580 f i libohNetCore:Stack.obj
 0001:0004a5b0       ??1?$_Pair_base@VBrn@OpenHome@@PAVObjectType@Stack@Net@2@@std@@QAE@XZ 0044b5b0 f i libohNetCore:Stack.obj
 0001:0004a5e0       ??1?$_Pair_base@V?$_Tree_iterator@V?$_Tree_val@V?$_Tmap_traits@VBrn@OpenHome@@PAVObjectType@Stack@Net@2@VBufferCmp@2@V?$allocator@U?$pair@$$CBVBrn@OpenHome@@PAVObjectType@Stack@Net@2@@std@@@std@@$0A@@std@@@std@@@std@@_N@std@@QAE@XZ 0044b5e0 f i libohNetCore:Stack.obj
 0001:0004a610       ??1?$_Pair_base@V?$_Tree_iterator@V?$_Tree_val@V?$_Tmap_traits@PAXPAXU?$less@PAX@std@@V?$allocator@U?$pair@QAXPAX@std@@@2@$0A@@std@@@std@@@std@@_N@std@@QAE@XZ 0044b610 f i libohNetCore:Stack.obj
 0001:0004a640       ??1?$_Tree_unchecked_const_iterator@V?$_Tree_val@V?$_Tmap_traits@VBrn@OpenHome@@PAVObjectType@Stack@Net@2@VBufferCmp@2@V?$allocator@U?$pair@$$CBVBrn@OpenHome@@PAVObjectType@Stack@Net@2@@std@@@std@@$0A@@std@@@std@@U_Iterator_base12@2@@std@@QAE@XZ 0044b640 f i libohNetCore:Stack.obj
 0001:0004a670       ??1?$_Tree_iterator@V?$_Tree_val@V?$_Tmap_traits@PAXPAXU?$less@PAX@std@@V?$allocator@U?$pair@QAXPAX@std@@@2@$0A@@std@@@std@@@std@@QAE@XZ 0044b670 f i libohNetCore:Stack.obj
 0001:0004a6a0       ??1?$_Iterator012@Ubidirectional_iterator_tag@std@@U?$pair@$$CBVBrn@OpenHome@@PAVObjectType@Stack@Net@2@@2@HPBU32@ABU32@U_Iterator_base12@2@@std@@QAE@XZ 0044b6a0 f i libohNetCore:Stack.obj
 0001:0004a6d0       ??1?$_Tree_const_iterator@V?$_Tree_val@V?$_Tmap_traits@PAXPAXU?$less@PAX@std@@V?$allocator@U?$pair@QAXPAX@std@@@2@$0A@@std@@@std@@@std@@QAE@XZ 0044b6d0 f i libohNetCore:Stack.obj
 0001:0004a700       ??1?$_Tree_unchecked_const_iterator@V?$_Tree_val@V?$_Tmap_traits@PAXPAXU?$less@PAX@std@@V?$allocator@U?$pair@QAXPAX@std@@@2@$0A@@std@@@std@@U_Iterator_base12@2@@std@@QAE@XZ 0044b700 f i libohNetCore:Stack.obj
 0001:0004a730       ??1?$_Iterator012@Ubidirectional_iterator_tag@std@@U?$pair@QAXPAX@2@HPBU32@ABU32@U_Iterator_base12@2@@std@@QAE@XZ 0044b730 f i libohNetCore:Stack.obj
 0001:0004a760       ??0?$_Tree_const_iterator@V?$_Tree_val@V?$_Tmap_traits@PAXPAXU?$less@PAX@std@@V?$allocator@U?$pair@QAXPAX@std@@@2@$0A@@std@@@std@@@std@@QAE@ABV01@@Z 0044b760 f i libohNetCore:Stack.obj
 0001:0004a790       ??_GObjectType@Stack@Net@OpenHome@@QAEPAXI@Z 0044b790 f i libohNetCore:Stack.obj
 0001:0004a7d0       ??0?$_Tree_const_iterator@V?$_Tree_val@V?$_Tmap_traits@VBrn@OpenHome@@PAVObjectType@Stack@Net@2@VBufferCmp@2@V?$allocator@U?$pair@$$CBVBrn@OpenHome@@PAVObjectType@Stack@Net@2@@std@@@std@@$0A@@std@@@std@@@std@@QAE@ABV01@@Z 0044b7d0 f i libohNetCore:Stack.obj
 0001:0004a800       ??0?$_Tree_unchecked_const_iterator@V?$_Tree_val@V?$_Tmap_traits@PAXPAXU?$less@PAX@std@@V?$allocator@U?$pair@QAXPAX@std@@@2@$0A@@std@@@std@@U_Iterator_base12@2@@std@@QAE@ABV01@@Z 0044b800 f i libohNetCore:Stack.obj
 0001:0004a840       ??0?$_Tree_unchecked_const_iterator@V?$_Tree_val@V?$_Tmap_traits@VBrn@OpenHome@@PAVObjectType@Stack@Net@2@VBufferCmp@2@V?$allocator@U?$pair@$$CBVBrn@OpenHome@@PAVObjectType@Stack@Net@2@@std@@@std@@$0A@@std@@@std@@U_Iterator_base12@2@@std@@QAE@ABV01@@Z 0044b840 f i libohNetCore:Stack.obj
 0001:0004a880       ??0?$_Iterator012@Ubidirectional_iterator_tag@std@@U?$pair@QAXPAX@2@HPBU32@ABU32@U_Iterator_base12@2@@std@@QAE@ABU01@@Z 0044b880 f i libohNetCore:Stack.obj
 0001:0004a8b0       ??0?$_Iterator012@Ubidirectional_iterator_tag@std@@U?$pair@$$CBVBrn@OpenHome@@PAVObjectType@Stack@Net@2@@2@HPBU32@ABU32@U_Iterator_base12@2@@std@@QAE@ABU01@@Z 0044b8b0 f i libohNetCore:Stack.obj
 0001:0004a8e0       ??1?$map@PAXPAXU?$less@PAX@std@@V?$allocator@U?$pair@QAXPAX@std@@@2@@std@@QAE@XZ 0044b8e0 f i libohNetCore:Stack.obj
 0001:0004a910       ??0?$map@PAXPAXU?$less@PAX@std@@V?$allocator@U?$pair@QAXPAX@std@@@2@@std@@QAE@XZ 0044b910 f i libohNetCore:Stack.obj
 0001:0004a950       ??1?$_Tree@V?$_Tmap_traits@PAXPAXU?$less@PAX@std@@V?$allocator@U?$pair@QAXPAX@std@@@2@$0A@@std@@@std@@QAE@XZ 0044b950 f i libohNetCore:Stack.obj
 0001:0004a9c0       ?begin@?$_Tree@V?$_Tmap_traits@PAXPAXU?$less@PAX@std@@V?$allocator@U?$pair@QAXPAX@std@@@2@$0A@@std@@@std@@QAE?AV?$_Tree_iterator@V?$_Tree_val@V?$_Tmap_traits@PAXPAXU?$less@PAX@std@@V?$allocator@U?$pair@QAXPAX@std@@@2@$0A@@std@@@std@@@2@XZ 0044b9c0 f i libohNetCore:Stack.obj
 0001:0004aa20       ?end@?$_Tree@V?$_Tmap_traits@PAXPAXU?$less@PAX@std@@V?$allocator@U?$pair@QAXPAX@std@@@2@$0A@@std@@@std@@QAE?AV?$_Tree_iterator@V?$_Tree_val@V?$_Tmap_traits@PAXPAXU?$less@PAX@std@@V?$allocator@U?$pair@QAXPAX@std@@@2@$0A@@std@@@std@@@2@XZ 0044ba20 f i libohNetCore:Stack.obj
 0001:0004aa70       ?size@?$_Tree@V?$_Tmap_traits@PAXPAXU?$less@PAX@std@@V?$allocator@U?$pair@QAXPAX@std@@@2@$0A@@std@@@std@@QBEIXZ 0044ba70 f i libohNetCore:Stack.obj
 0001:0004aa90       ?erase@?$_Tree@V?$_Tmap_traits@PAXPAXU?$less@PAX@std@@V?$allocator@U?$pair@QAXPAX@std@@@2@$0A@@std@@@std@@QAE?AV?$_Tree_iterator@V?$_Tree_val@V?$_Tmap_traits@PAXPAXU?$less@PAX@std@@V?$allocator@U?$pair@QAXPAX@std@@@2@$0A@@std@@@std@@@2@V?$_Tree_const_iterator@V?$_Tree_val@V?$_Tmap_traits@PAXPAXU?$less@PAX@std@@V?$allocator@U?$pair@QAXPAX@std@@@2@$0A@@std@@@std@@@2@@Z 0044ba90 f i libohNetCore:Stack.obj
 0001:0004b1a0       ?find@?$_Tree@V?$_Tmap_traits@PAXPAXU?$less@PAX@std@@V?$allocator@U?$pair@QAXPAX@std@@@2@$0A@@std@@@std@@QAE?AV?$_Tree_iterator@V?$_Tree_val@V?$_Tmap_traits@PAXPAXU?$less@PAX@std@@V?$allocator@U?$pair@QAXPAX@std@@@2@$0A@@std@@@std@@@2@ABQAX@Z 0044c1a0 f i libohNetCore:Stack.obj
 0001:0004b380       ??0?$vector@PAVMListener@Stack@Net@OpenHome@@V?$allocator@PAVMListener@Stack@Net@OpenHome@@@std@@@std@@QAE@XZ 0044c380 f i libohNetCore:Stack.obj
 0001:0004b3c0       ??1?$vector@PAVMListener@Stack@Net@OpenHome@@V?$allocator@PAVMListener@Stack@Net@OpenHome@@@std@@@std@@QAE@XZ 0044c3c0 f i libohNetCore:Stack.obj
 0001:0004b430       ?begin@?$vector@PAVMListener@Stack@Net@OpenHome@@V?$allocator@PAVMListener@Stack@Net@OpenHome@@@std@@@std@@QAE?AV?$_Vector_iterator@V?$_Vector_val@PAVMListener@Stack@Net@OpenHome@@V?$allocator@PAVMListener@Stack@Net@OpenHome@@@std@@@std@@@2@XZ 0044c430 f i libohNetCore:Stack.obj
 0001:0004b480       ?size@?$vector@PAVMListener@Stack@Net@OpenHome@@V?$allocator@PAVMListener@Stack@Net@OpenHome@@@std@@@std@@QBEIXZ 0044c480 f i libohNetCore:Stack.obj
 0001:0004b4b0       ??A?$vector@PAVMListener@Stack@Net@OpenHome@@V?$allocator@PAVMListener@Stack@Net@OpenHome@@@std@@@std@@QAEAAPAVMListener@Stack@Net@OpenHome@@I@Z 0044c4b0 f i libohNetCore:Stack.obj
 0001:0004b550       ?push_back@?$vector@PAVMListener@Stack@Net@OpenHome@@V?$allocator@PAVMListener@Stack@Net@OpenHome@@@std@@@std@@QAEXABQAVMListener@Stack@Net@OpenHome@@@Z 0044c550 f i libohNetCore:Stack.obj
 0001:0004b660       ?erase@?$vector@PAVMListener@Stack@Net@OpenHome@@V?$allocator@PAVMListener@Stack@Net@OpenHome@@@std@@@std@@QAE?AV?$_Vector_iterator@V?$_Vector_val@PAVMListener@Stack@Net@OpenHome@@V?$allocator@PAVMListener@Stack@Net@OpenHome@@@std@@@std@@@2@V?$_Vector_const_iterator@V?$_Vector_val@PAVMListener@Stack@Net@OpenHome@@V?$allocator@PAVMListener@Stack@Net@OpenHome@@@std@@@std@@@2@@Z 0044c660 f i libohNetCore:Stack.obj
 0001:0004b790       ??0?$map@VBrn@OpenHome@@PAVObjectType@Stack@Net@2@VBufferCmp@2@V?$allocator@U?$pair@$$CBVBrn@OpenHome@@PAVObjectType@Stack@Net@2@@std@@@std@@@std@@QAE@XZ 0044c790 f i libohNetCore:Stack.obj
 0001:0004b7e0       ??1?$_Tree@V?$_Tmap_traits@VBrn@OpenHome@@PAVObjectType@Stack@Net@2@VBufferCmp@2@V?$allocator@U?$pair@$$CBVBrn@OpenHome@@PAVObjectType@Stack@Net@2@@std@@@std@@$0A@@std@@@std@@QAE@XZ 0044c7e0 f i libohNetCore:Stack.obj
 0001:0004b850       ?begin@?$_Tree@V?$_Tmap_traits@VBrn@OpenHome@@PAVObjectType@Stack@Net@2@VBufferCmp@2@V?$allocator@U?$pair@$$CBVBrn@OpenHome@@PAVObjectType@Stack@Net@2@@std@@@std@@$0A@@std@@@std@@QAE?AV?$_Tree_iterator@V?$_Tree_val@V?$_Tmap_traits@VBrn@OpenHome@@PAVObjectType@Stack@Net@2@VBufferCmp@2@V?$allocator@U?$pair@$$CBVBrn@OpenHome@@PAVObjectType@Stack@Net@2@@std@@@std@@$0A@@std@@@std@@@2@XZ 0044c850 f i libohNetCore:Stack.obj
 0001:0004b8b0       ?end@?$_Tree@V?$_Tmap_traits@VBrn@OpenHome@@PAVObjectType@Stack@Net@2@VBufferCmp@2@V?$allocator@U?$pair@$$CBVBrn@OpenHome@@PAVObjectType@Stack@Net@2@@std@@@std@@$0A@@std@@@std@@QAE?AV?$_Tree_iterator@V?$_Tree_val@V?$_Tmap_traits@VBrn@OpenHome@@PAVObjectType@Stack@Net@2@VBufferCmp@2@V?$allocator@U?$pair@$$CBVBrn@OpenHome@@PAVObjectType@Stack@Net@2@@std@@@std@@$0A@@std@@@std@@@2@XZ 0044c8b0 f i libohNetCore:Stack.obj
 0001:0004b900       ?size@?$_Tree@V?$_Tmap_traits@VBrn@OpenHome@@PAVObjectType@Stack@Net@2@VBufferCmp@2@V?$allocator@U?$pair@$$CBVBrn@OpenHome@@PAVObjectType@Stack@Net@2@@std@@@std@@$0A@@std@@@std@@QBEIXZ 0044c900 f i libohNetCore:Stack.obj
 0001:0004b920       ?erase@?$_Tree@V?$_Tmap_traits@VBrn@OpenHome@@PAVObjectType@Stack@Net@2@VBufferCmp@2@V?$allocator@U?$pair@$$CBVBrn@OpenHome@@PAVObjectType@Stack@Net@2@@std@@@std@@$0A@@std@@@std@@QAE?AV?$_Tree_iterator@V?$_Tree_val@V?$_Tmap_traits@VBrn@OpenHome@@PAVObjectType@Stack@Net@2@VBufferCmp@2@V?$allocator@U?$pair@$$CBVBrn@OpenHome@@PAVObjectType@Stack@Net@2@@std@@@std@@$0A@@std@@@std@@@2@V?$_Tree_const_iterator@V?$_Tree_val@V?$_Tmap_traits@VBrn@OpenHome@@PAVObjectType@Stack@Net@2@VBufferCmp@2@V?$allocator@U?$pair@$$CBVBrn@OpenHome@@PAVObjectType@Stack@Net@2@@std@@@std@@$0A@@std@@@std@@@2@@Z 0044c920 f i libohNetCore:Stack.obj
 0001:0004c030       ?find@?$_Tree@V?$_Tmap_traits@VBrn@OpenHome@@PAVObjectType@Stack@Net@2@VBufferCmp@2@V?$allocator@U?$pair@$$CBVBrn@OpenHome@@PAVObjectType@Stack@Net@2@@std@@@std@@$0A@@std@@@std@@QAE?AV?$_Tree_iterator@V?$_Tree_val@V?$_Tmap_traits@VBrn@OpenHome@@PAVObjectType@Stack@Net@2@VBufferCmp@2@V?$allocator@U?$pair@$$CBVBrn@OpenHome@@PAVObjectType@Stack@Net@2@@std@@@std@@$0A@@std@@@std@@@2@ABVBrn@OpenHome@@@Z 0044d030 f i libohNetCore:Stack.obj
 0001:0004c210       ??H?$_Vector_iterator@V?$_Vector_val@PAVMListener@Stack@Net@OpenHome@@V?$allocator@PAVMListener@Stack@Net@OpenHome@@@std@@@std@@@std@@QBE?AV01@H@Z 0044d210 f i libohNetCore:Stack.obj
 0001:0004c2f0       ??C?$_Tree_iterator@V?$_Tree_val@V?$_Tmap_traits@VBrn@OpenHome@@PAVObjectType@Stack@Net@2@VBufferCmp@2@V?$allocator@U?$pair@$$CBVBrn@OpenHome@@PAVObjectType@Stack@Net@2@@std@@@std@@$0A@@std@@@std@@@std@@QBEPAU?$pair@$$CBVBrn@OpenHome@@PAVObjectType@Stack@Net@2@@1@XZ 0044d2f0 f i libohNetCore:Stack.obj
 0001:0004c320       ??E?$_Tree_iterator@V?$_Tree_val@V?$_Tmap_traits@VBrn@OpenHome@@PAVObjectType@Stack@Net@2@VBufferCmp@2@V?$allocator@U?$pair@$$CBVBrn@OpenHome@@PAVObjectType@Stack@Net@2@@std@@@std@@$0A@@std@@@std@@@std@@QAE?AV01@H@Z 0044d320 f i libohNetCore:Stack.obj
 0001:0004c3f0       ??9?$_Tree_const_iterator@V?$_Tree_val@V?$_Tmap_traits@VBrn@OpenHome@@PAVObjectType@Stack@Net@2@VBufferCmp@2@V?$allocator@U?$pair@$$CBVBrn@OpenHome@@PAVObjectType@Stack@Net@2@@std@@@std@@$0A@@std@@@std@@@std@@QBE_NABV01@@Z 0044d3f0 f i libohNetCore:Stack.obj
 0001:0004c430       ??C?$_Tree_iterator@V?$_Tree_val@V?$_Tmap_traits@PAXPAXU?$less@PAX@std@@V?$allocator@U?$pair@QAXPAX@std@@@2@$0A@@std@@@std@@@std@@QBEPAU?$pair@QAXPAX@1@XZ 0044d430 f i libohNetCore:Stack.obj
 0001:0004c460       ??E?$_Tree_iterator@V?$_Tree_val@V?$_Tmap_traits@PAXPAXU?$less@PAX@std@@V?$allocator@U?$pair@QAXPAX@std@@@2@$0A@@std@@@std@@@std@@QAE?AV01@H@Z 0044d460 f i libohNetCore:Stack.obj
 0001:0004c530       ??9?$_Tree_const_iterator@V?$_Tree_val@V?$_Tmap_traits@PAXPAXU?$less@PAX@std@@V?$allocator@U?$pair@QAXPAX@std@@@2@$0A@@std@@@std@@@std@@QBE_NABV01@@Z 0044d530 f i libohNetCore:Stack.obj
 0001:0004c570       ??0?$_Tree_iterator@V?$_Tree_val@V?$_Tmap_traits@PAXPAXU?$less@PAX@std@@V?$allocator@U?$pair@QAXPAX@std@@@2@$0A@@std@@@std@@@std@@QAE@ABV01@@Z 0044d570 f i libohNetCore:Stack.obj
 0001:0004c5a0       ??0?$_Tree_iterator@V?$_Tree_val@V?$_Tmap_traits@VBrn@OpenHome@@PAVObjectType@Stack@Net@2@VBufferCmp@2@V?$allocator@U?$pair@$$CBVBrn@OpenHome@@PAVObjectType@Stack@Net@2@@std@@@std@@$0A@@std@@@std@@@std@@QAE@ABV01@@Z 0044d5a0 f i libohNetCore:Stack.obj
 0001:0004c5d0       ??0?$_Vector_iterator@V?$_Vector_val@PAVMListener@Stack@Net@OpenHome@@V?$allocator@PAVMListener@Stack@Net@OpenHome@@@std@@@std@@@std@@QAE@ABV01@@Z 0044d5d0 f i libohNetCore:Stack.obj
 0001:0004c600       ??0?$_Tree@V?$_Tmap_traits@PAXPAXU?$less@PAX@std@@V?$allocator@U?$pair@QAXPAX@std@@@2@$0A@@std@@@std@@QAE@ABU?$less@PAX@1@ABV?$allocator@U?$pair@QAXPAX@std@@@1@@Z 0044d600 f i libohNetCore:Stack.obj
 0001:0004c650       ?lower_bound@?$_Tree@V?$_Tmap_traits@PAXPAXU?$less@PAX@std@@V?$allocator@U?$pair@QAXPAX@std@@@2@$0A@@std@@@std@@QAE?AV?$_Tree_iterator@V?$_Tree_val@V?$_Tmap_traits@PAXPAXU?$less@PAX@std@@V?$allocator@U?$pair@QAXPAX@std@@@2@$0A@@std@@@std@@@2@ABQAX@Z 0044d650 f i libohNetCore:Stack.obj
 0001:0004c6b0       ?_Lmost@?$_Tree@V?$_Tmap_traits@PAXPAXU?$less@PAX@std@@V?$allocator@U?$pair@QAXPAX@std@@@2@$0A@@std@@@std@@IBEAAPAU_Node@?$_Tree_nod@V?$_Tmap_traits@PAXPAXU?$less@PAX@std@@V?$allocator@U?$pair@QAXPAX@std@@@2@$0A@@std@@@2@XZ 0044d6b0 f i libohNetCore:Stack.obj
 0001:0004c6e0       ?_Lrotate@?$_Tree@V?$_Tmap_traits@PAXPAXU?$less@PAX@std@@V?$allocator@U?$pair@QAXPAX@std@@@2@$0A@@std@@@std@@IAEXPAU_Node@?$_Tree_nod@V?$_Tmap_traits@PAXPAXU?$less@PAX@std@@V?$allocator@U?$pair@QAXPAX@std@@@2@$0A@@std@@@2@@Z 0044d6e0 f i libohNetCore:Stack.obj
 0001:0004c800       ?_Rmost@?$_Tree@V?$_Tmap_traits@PAXPAXU?$less@PAX@std@@V?$allocator@U?$pair@QAXPAX@std@@@2@$0A@@std@@@std@@IBEAAPAU_Node@?$_Tree_nod@V?$_Tmap_traits@PAXPAXU?$less@PAX@std@@V?$allocator@U?$pair@QAXPAX@std@@@2@$0A@@std@@@2@XZ 0044d800 f i libohNetCore:Stack.obj
 0001:0004c830       ?_Root@?$_Tree@V?$_Tmap_traits@PAXPAXU?$less@PAX@std@@V?$allocator@U?$pair@QAXPAX@std@@@2@$0A@@std@@@std@@IBEAAPAU_Node@?$_Tree_nod@V?$_Tmap_traits@PAXPAXU?$less@PAX@std@@V?$allocator@U?$pair@QAXPAX@std@@@2@$0A@@std@@@2@XZ 0044d830 f i libohNetCore:Stack.obj
 0001:0004c860       ?_Rrotate@?$_Tree@V?$_Tmap_traits@PAXPAXU?$less@PAX@std@@V?$allocator@U?$pair@QAXPAX@std@@@2@$0A@@std@@@std@@IAEXPAU_Node@?$_Tree_nod@V?$_Tmap_traits@PAXPAXU?$less@PAX@std@@V?$allocator@U?$pair@QAXPAX@std@@@2@$0A@@std@@@2@@Z 0044d860 f i libohNetCore:Stack.obj
 0001:0004c980       ?_Orphan_ptr@?$_Tree@V?$_Tmap_traits@PAXPAXU?$less@PAX@std@@V?$allocator@U?$pair@QAXPAX@std@@@2@$0A@@std@@@std@@IBEXAAV12@PAU_Node@?$_Tree_nod@V?$_Tmap_traits@PAXPAXU?$less@PAX@std@@V?$allocator@U?$pair@QAXPAX@std@@@2@$0A@@std@@@2@@Z 0044d980 f i libohNetCore:Stack.obj
 0001:0004ca90       ?_Tidy@?$_Tree@V?$_Tmap_traits@PAXPAXU?$less@PAX@std@@V?$allocator@U?$pair@QAXPAX@std@@@2@$0A@@std@@@std@@IAEXXZ 0044da90 f i libohNetCore:Stack.obj
 0001:0004cb90       ??1?$_Tree_val@V?$_Tmap_traits@PAXPAXU?$less@PAX@std@@V?$allocator@U?$pair@QAXPAX@std@@@2@$0A@@std@@@std@@QAE@XZ 0044db90 f i libohNetCore:Stack.obj
 0001:0004cc00       ?_Color@?$_Tree_val@V?$_Tmap_traits@PAXPAXU?$less@PAX@std@@V?$allocator@U?$pair@QAXPAX@std@@@2@$0A@@std@@@std@@SGAADPAU_Node@?$_Tree_nod@V?$_Tmap_traits@PAXPAXU?$less@PAX@std@@V?$allocator@U?$pair@QAXPAX@std@@@2@$0A@@std@@@2@@Z 0044dc00 f i libohNetCore:Stack.obj
 0001:0004cc10       ?_Isnil@?$_Tree_val@V?$_Tmap_traits@PAXPAXU?$less@PAX@std@@V?$allocator@U?$pair@QAXPAX@std@@@2@$0A@@std@@@std@@SGAADPAU_Node@?$_Tree_nod@V?$_Tmap_traits@PAXPAXU?$less@PAX@std@@V?$allocator@U?$pair@QAXPAX@std@@@2@$0A@@std@@@2@@Z 0044dc10 f i libohNetCore:Stack.obj
 0001:0004cc20       ?_Key@?$_Tree_val@V?$_Tmap_traits@PAXPAXU?$less@PAX@std@@V?$allocator@U?$pair@QAXPAX@std@@@2@$0A@@std@@@std@@SGAAPAXPAU_Node@?$_Tree_nod@V?$_Tmap_traits@PAXPAXU?$less@PAX@std@@V?$allocator@U?$pair@QAXPAX@std@@@2@$0A@@std@@@2@@Z 0044dc20 f i libohNetCore:Stack.obj
 0001:0004cc40       ?_Left@?$_Tree_val@V?$_Tmap_traits@PAXPAXU?$less@PAX@std@@V?$allocator@U?$pair@QAXPAX@std@@@2@$0A@@std@@@std@@SGAAPAU_Node@?$_Tree_nod@V?$_Tmap_traits@PAXPAXU?$less@PAX@std@@V?$allocator@U?$pair@QAXPAX@std@@@2@$0A@@std@@@2@PAU342@@Z 0044dc40 f i libohNetCore:Stack.obj
 0001:0004cc50       ?_Parent@?$_Tree_val@V?$_Tmap_traits@PAXPAXU?$less@PAX@std@@V?$allocator@U?$pair@QAXPAX@std@@@2@$0A@@std@@@std@@SGAAPAU_Node@?$_Tree_nod@V?$_Tmap_traits@PAXPAXU?$less@PAX@std@@V?$allocator@U?$pair@QAXPAX@std@@@2@$0A@@std@@@2@PAU342@@Z 0044dc50 f i libohNetCore:Stack.obj
 0001:0004cc60       ?_Right@?$_Tree_val@V?$_Tmap_traits@PAXPAXU?$less@PAX@std@@V?$allocator@U?$pair@QAXPAX@std@@@2@$0A@@std@@@std@@SGAAPAU_Node@?$_Tree_nod@V?$_Tmap_traits@PAXPAXU?$less@PAX@std@@V?$allocator@U?$pair@QAXPAX@std@@@2@$0A@@std@@@2@PAU342@@Z 0044dc60 f i libohNetCore:Stack.obj
 0001:0004cc70       ?_Myval@?$_Tree_val@V?$_Tmap_traits@PAXPAXU?$less@PAX@std@@V?$allocator@U?$pair@QAXPAX@std@@@2@$0A@@std@@@std@@SGAAU?$pair@QAXPAX@2@PAU_Node@?$_Tree_nod@V?$_Tmap_traits@PAXPAXU?$less@PAX@std@@V?$allocator@U?$pair@QAXPAX@std@@@2@$0A@@std@@@2@@Z 0044dc70 f i libohNetCore:Stack.obj
 0001:0004cc80       ?_Max@?$_Tree_val@V?$_Tmap_traits@PAXPAXU?$less@PAX@std@@V?$allocator@U?$pair@QAXPAX@std@@@2@$0A@@std@@@std@@SGPAU_Node@?$_Tree_nod@V?$_Tmap_traits@PAXPAXU?$less@PAX@std@@V?$allocator@U?$pair@QAXPAX@std@@@2@$0A@@std@@@2@PAU342@@Z 0044dc80 f i libohNetCore:Stack.obj
 0001:0004ccc0       ?_Min@?$_Tree_val@V?$_Tmap_traits@PAXPAXU?$less@PAX@std@@V?$allocator@U?$pair@QAXPAX@std@@@2@$0A@@std@@@std@@SGPAU_Node@?$_Tree_nod@V?$_Tmap_traits@PAXPAXU?$less@PAX@std@@V?$allocator@U?$pair@QAXPAX@std@@@2@$0A@@std@@@2@PAU342@@Z 0044dcc0 f i libohNetCore:Stack.obj
 0001:0004cd00       ??0?$allocator@U?$pair@QAXPAX@std@@@std@@QAE@XZ 0044dd00 f i libohNetCore:Stack.obj
 0001:0004cd20       ?deallocate@?$allocator@U_Node@?$_Tree_nod@V?$_Tmap_traits@PAXPAXU?$less@PAX@std@@V?$allocator@U?$pair@QAXPAX@std@@@2@$0A@@std@@@std@@@std@@QAEXPAU_Node@?$_Tree_nod@V?$_Tmap_traits@PAXPAXU?$less@PAX@std@@V?$allocator@U?$pair@QAXPAX@std@@@2@$0A@@std@@@2@I@Z 0044dd20 f i libohNetCore:Stack.obj
 0001:0004cd50       ?_Make_iter@?$vector@PAVMListener@Stack@Net@OpenHome@@V?$allocator@PAVMListener@Stack@Net@OpenHome@@@std@@@std@@QBE?AV?$_Vector_iterator@V?$_Vector_val@PAVMListener@Stack@Net@OpenHome@@V?$allocator@PAVMListener@Stack@Net@OpenHome@@@std@@@std@@@2@V?$_Vector_const_iterator@V?$_Vector_val@PAVMListener@Stack@Net@OpenHome@@V?$allocator@PAVMListener@Stack@Net@OpenHome@@@std@@@std@@@2@@Z 0044dd50 f i libohNetCore:Stack.obj
 0001:0004cde0       ?_Destroy@?$vector@PAVMListener@Stack@Net@OpenHome@@V?$allocator@PAVMListener@Stack@Net@OpenHome@@@std@@@std@@IAEXPAPAVMListener@Stack@Net@OpenHome@@0@Z 0044dde0 f i libohNetCore:Stack.obj
 0001:0004ce20       ?_Inside@?$vector@PAVMListener@Stack@Net@OpenHome@@V?$allocator@PAVMListener@Stack@Net@OpenHome@@@std@@@std@@IBE_NPBQAVMListener@Stack@Net@OpenHome@@@Z 0044de20 f i libohNetCore:Stack.obj
 0001:0004ce70       ?_Reserve@?$vector@PAVMListener@Stack@Net@OpenHome@@V?$allocator@PAVMListener@Stack@Net@OpenHome@@@std@@@std@@IAEXI@Z 0044de70 f i libohNetCore:Stack.obj
 0001:0004cef0       ?_Tidy@?$vector@PAVMListener@Stack@Net@OpenHome@@V?$allocator@PAVMListener@Stack@Net@OpenHome@@@std@@@std@@IAEXXZ 0044def0 f i libohNetCore:Stack.obj
 0001:0004cf80       ?_Orphan_range@?$vector@PAVMListener@Stack@Net@OpenHome@@V?$allocator@PAVMListener@Stack@Net@OpenHome@@@std@@@std@@IBEXPAPAVMListener@Stack@Net@OpenHome@@0@Z 0044df80 f i libohNetCore:Stack.obj
 0001:0004d090       ??0?$_Vector_val@PAVMListener@Stack@Net@OpenHome@@V?$allocator@PAVMListener@Stack@Net@OpenHome@@@std@@@std@@QAE@V?$allocator@PAVMListener@Stack@Net@OpenHome@@@1@@Z 0044e090 f i libohNetCore:Stack.obj
 0001:0004d1b0       ??1?$_Vector_val@PAVMListener@Stack@Net@OpenHome@@V?$allocator@PAVMListener@Stack@Net@OpenHome@@@std@@@std@@QAE@XZ 0044e1b0 f i libohNetCore:Stack.obj
 0001:0004d290       ??0?$allocator@PAVMListener@Stack@Net@OpenHome@@@std@@QAE@XZ 0044e290 f i libohNetCore:Stack.obj
 0001:0004d2b0       ??0?$_Tree@V?$_Tmap_traits@VBrn@OpenHome@@PAVObjectType@Stack@Net@2@VBufferCmp@2@V?$allocator@U?$pair@$$CBVBrn@OpenHome@@PAVObjectType@Stack@Net@2@@std@@@std@@$0A@@std@@@std@@QAE@ABVBufferCmp@OpenHome@@ABV?$allocator@U?$pair@$$CBVBrn@OpenHome@@PAVObjectType@Stack@Net@2@@std@@@1@@Z 0044e2b0 f i libohNetCore:Stack.obj
 0001:0004d300       ?lower_bound@?$_Tree@V?$_Tmap_traits@VBrn@OpenHome@@PAVObjectType@Stack@Net@2@VBufferCmp@2@V?$allocator@U?$pair@$$CBVBrn@OpenHome@@PAVObjectType@Stack@Net@2@@std@@@std@@$0A@@std@@@std@@QAE?AV?$_Tree_iterator@V?$_Tree_val@V?$_Tmap_traits@VBrn@OpenHome@@PAVObjectType@Stack@Net@2@VBufferCmp@2@V?$allocator@U?$pair@$$CBVBrn@OpenHome@@PAVObjectType@Stack@Net@2@@std@@@std@@$0A@@std@@@std@@@2@ABVBrn@OpenHome@@@Z 0044e300 f i libohNetCore:Stack.obj
 0001:0004d360       ?_Lmost@?$_Tree@V?$_Tmap_traits@VBrn@OpenHome@@PAVObjectType@Stack@Net@2@VBufferCmp@2@V?$allocator@U?$pair@$$CBVBrn@OpenHome@@PAVObjectType@Stack@Net@2@@std@@@std@@$0A@@std@@@std@@IBEAAPAU_Node@?$_Tree_nod@V?$_Tmap_traits@VBrn@OpenHome@@PAVObjectType@Stack@Net@2@VBufferCmp@2@V?$allocator@U?$pair@$$CBVBrn@OpenHome@@PAVObjectType@Stack@Net@2@@std@@@std@@$0A@@std@@@2@XZ 0044e360 f i libohNetCore:Stack.obj
 0001:0004d390       ?_Lrotate@?$_Tree@V?$_Tmap_traits@VBrn@OpenHome@@PAVObjectType@Stack@Net@2@VBufferCmp@2@V?$allocator@U?$pair@$$CBVBrn@OpenHome@@PAVObjectType@Stack@Net@2@@std@@@std@@$0A@@std@@@std@@IAEXPAU_Node@?$_Tree_nod@V?$_Tmap_traits@VBrn@OpenHome@@PAVObjectType@Stack@Net@2@VBufferCmp@2@V?$allocator@U?$pair@$$CBVBrn@OpenHome@@PAVObjectType@Stack@Net@2@@std@@@std@@$0A@@std@@@2@@Z 0044e390 f i libohNetCore:Stack.obj
 0001:0004d4b0       ?_Rmost@?$_Tree@V?$_Tmap_traits@VBrn@OpenHome@@PAVObjectType@Stack@Net@2@VBufferCmp@2@V?$allocator@U?$pair@$$CBVBrn@OpenHome@@PAVObjectType@Stack@Net@2@@std@@@std@@$0A@@std@@@std@@IBEAAPAU_Node@?$_Tree_nod@V?$_Tmap_traits@VBrn@OpenHome@@PAVObjectType@Stack@Net@2@VBufferCmp@2@V?$allocator@U?$pair@$$CBVBrn@OpenHome@@PAVObjectType@Stack@Net@2@@std@@@std@@$0A@@std@@@2@XZ 0044e4b0 f i libohNetCore:Stack.obj
 0001:0004d4e0       ?_Root@?$_Tree@V?$_Tmap_traits@VBrn@OpenHome@@PAVObjectType@Stack@Net@2@VBufferCmp@2@V?$allocator@U?$pair@$$CBVBrn@OpenHome@@PAVObjectType@Stack@Net@2@@std@@@std@@$0A@@std@@@std@@IBEAAPAU_Node@?$_Tree_nod@V?$_Tmap_traits@VBrn@OpenHome@@PAVObjectType@Stack@Net@2@VBufferCmp@2@V?$allocator@U?$pair@$$CBVBrn@OpenHome@@PAVObjectType@Stack@Net@2@@std@@@std@@$0A@@std@@@2@XZ 0044e4e0 f i libohNetCore:Stack.obj
 0001:0004d510       ?_Rrotate@?$_Tree@V?$_Tmap_traits@VBrn@OpenHome@@PAVObjectType@Stack@Net@2@VBufferCmp@2@V?$allocator@U?$pair@$$CBVBrn@OpenHome@@PAVObjectType@Stack@Net@2@@std@@@std@@$0A@@std@@@std@@IAEXPAU_Node@?$_Tree_nod@V?$_Tmap_traits@VBrn@OpenHome@@PAVObjectType@Stack@Net@2@VBufferCmp@2@V?$allocator@U?$pair@$$CBVBrn@OpenHome@@PAVObjectType@Stack@Net@2@@std@@@std@@$0A@@std@@@2@@Z 0044e510 f i libohNetCore:Stack.obj
 0001:0004d630       ?_Orphan_ptr@?$_Tree@V?$_Tmap_traits@VBrn@OpenHome@@PAVObjectType@Stack@Net@2@VBufferCmp@2@V?$allocator@U?$pair@$$CBVBrn@OpenHome@@PAVObjectType@Stack@Net@2@@std@@@std@@$0A@@std@@@std@@IBEXAAV12@PAU_Node@?$_Tree_nod@V?$_Tmap_traits@VBrn@OpenHome@@PAVObjectType@Stack@Net@2@VBufferCmp@2@V?$allocator@U?$pair@$$CBVBrn@OpenHome@@PAVObjectType@Stack@Net@2@@std@@@std@@$0A@@std@@@2@@Z 0044e630 f i libohNetCore:Stack.obj
 0001:0004d740       ?_Tidy@?$_Tree@V?$_Tmap_traits@VBrn@OpenHome@@PAVObjectType@Stack@Net@2@VBufferCmp@2@V?$allocator@U?$pair@$$CBVBrn@OpenHome@@PAVObjectType@Stack@Net@2@@std@@@std@@$0A@@std@@@std@@IAEXXZ 0044e740 f i libohNetCore:Stack.obj
 0001:0004d840       ??1?$_Tree_val@V?$_Tmap_traits@VBrn@OpenHome@@PAVObjectType@Stack@Net@2@VBufferCmp@2@V?$allocator@U?$pair@$$CBVBrn@OpenHome@@PAVObjectType@Stack@Net@2@@std@@@std@@$0A@@std@@@std@@QAE@XZ 0044e840 f i libohNetCore:Stack.obj
 0001:0004d8b0       ?_Color@?$_Tree_val@V?$_Tmap_traits@VBrn@OpenHome@@PAVObjectType@Stack@Net@2@VBufferCmp@2@V?$allocator@U?$pair@$$CBVBrn@OpenHome@@PAVObjectType@Stack@Net@2@@std@@@std@@$0A@@std@@@std@@SGAADPAU_Node@?$_Tree_nod@V?$_Tmap_traits@VBrn@OpenHome@@PAVObjectType@Stack@Net@2@VBufferCmp@2@V?$allocator@U?$pair@$$CBVBrn@OpenHome@@PAVObjectType@Stack@Net@2@@std@@@std@@$0A@@std@@@2@@Z 0044e8b0 f i libohNetCore:Stack.obj
 0001:0004d8c0       ?_Isnil@?$_Tree_val@V?$_Tmap_traits@VBrn@OpenHome@@PAVObjectType@Stack@Net@2@VBufferCmp@2@V?$allocator@U?$pair@$$CBVBrn@OpenHome@@PAVObjectType@Stack@Net@2@@std@@@std@@$0A@@std@@@std@@SGAADPAU_Node@?$_Tree_nod@V?$_Tmap_traits@VBrn@OpenHome@@PAVObjectType@Stack@Net@2@VBufferCmp@2@V?$allocator@U?$pair@$$CBVBrn@OpenHome@@PAVObjectType@Stack@Net@2@@std@@@std@@$0A@@std@@@2@@Z 0044e8c0 f i libohNetCore:Stack.obj
 0001:0004d8d0       ?_Key@?$_Tree_val@V?$_Tmap_traits@VBrn@OpenHome@@PAVObjectType@Stack@Net@2@VBufferCmp@2@V?$allocator@U?$pair@$$CBVBrn@OpenHome@@PAVObjectType@Stack@Net@2@@std@@@std@@$0A@@std@@@std@@SGAAVBrn@OpenHome@@PAU_Node@?$_Tree_nod@V?$_Tmap_traits@VBrn@OpenHome@@PAVObjectType@Stack@Net@2@VBufferCmp@2@V?$allocator@U?$pair@$$CBVBrn@OpenHome@@PAVObjectType@Stack@Net@2@@std@@@std@@$0A@@std@@@2@@Z 0044e8d0 f i libohNetCore:Stack.obj
 0001:0004d8f0       ?_Left@?$_Tree_val@V?$_Tmap_traits@VBrn@OpenHome@@PAVObjectType@Stack@Net@2@VBufferCmp@2@V?$allocator@U?$pair@$$CBVBrn@OpenHome@@PAVObjectType@Stack@Net@2@@std@@@std@@$0A@@std@@@std@@SGAAPAU_Node@?$_Tree_nod@V?$_Tmap_traits@VBrn@OpenHome@@PAVObjectType@Stack@Net@2@VBufferCmp@2@V?$allocator@U?$pair@$$CBVBrn@OpenHome@@PAVObjectType@Stack@Net@2@@std@@@std@@$0A@@std@@@2@PAU342@@Z 0044e8f0 f i libohNetCore:Stack.obj
 0001:0004d900       ?_Parent@?$_Tree_val@V?$_Tmap_traits@VBrn@OpenHome@@PAVObjectType@Stack@Net@2@VBufferCmp@2@V?$allocator@U?$pair@$$CBVBrn@OpenHome@@PAVObjectType@Stack@Net@2@@std@@@std@@$0A@@std@@@std@@SGAAPAU_Node@?$_Tree_nod@V?$_Tmap_traits@VBrn@OpenHome@@PAVObjectType@Stack@Net@2@VBufferCmp@2@V?$allocator@U?$pair@$$CBVBrn@OpenHome@@PAVObjectType@Stack@Net@2@@std@@@std@@$0A@@std@@@2@PAU342@@Z 0044e900 f i libohNetCore:Stack.obj
 0001:0004d910       ?_Right@?$_Tree_val@V?$_Tmap_traits@VBrn@OpenHome@@PAVObjectType@Stack@Net@2@VBufferCmp@2@V?$allocator@U?$pair@$$CBVBrn@OpenHome@@PAVObjectType@Stack@Net@2@@std@@@std@@$0A@@std@@@std@@SGAAPAU_Node@?$_Tree_nod@V?$_Tmap_traits@VBrn@OpenHome@@PAVObjectType@Stack@Net@2@VBufferCmp@2@V?$allocator@U?$pair@$$CBVBrn@OpenHome@@PAVObjectType@Stack@Net@2@@std@@@std@@$0A@@std@@@2@PAU342@@Z 0044e910 f i libohNetCore:Stack.obj
 0001:0004d920       ?_Myval@?$_Tree_val@V?$_Tmap_traits@VBrn@OpenHome@@PAVObjectType@Stack@Net@2@VBufferCmp@2@V?$allocator@U?$pair@$$CBVBrn@OpenHome@@PAVObjectType@Stack@Net@2@@std@@@std@@$0A@@std@@@std@@SGAAU?$pair@$$CBVBrn@OpenHome@@PAVObjectType@Stack@Net@2@@2@PAU_Node@?$_Tree_nod@V?$_Tmap_traits@VBrn@OpenHome@@PAVObjectType@Stack@Net@2@VBufferCmp@2@V?$allocator@U?$pair@$$CBVBrn@OpenHome@@PAVObjectType@Stack@Net@2@@std@@@std@@$0A@@std@@@2@@Z 0044e920 f i libohNetCore:Stack.obj
 0001:0004d930       ?_Max@?$_Tree_val@V?$_Tmap_traits@VBrn@OpenHome@@PAVObjectType@Stack@Net@2@VBufferCmp@2@V?$allocator@U?$pair@$$CBVBrn@OpenHome@@PAVObjectType@Stack@Net@2@@std@@@std@@$0A@@std@@@std@@SGPAU_Node@?$_Tree_nod@V?$_Tmap_traits@VBrn@OpenHome@@PAVObjectType@Stack@Net@2@VBufferCmp@2@V?$allocator@U?$pair@$$CBVBrn@OpenHome@@PAVObjectType@Stack@Net@2@@std@@@std@@$0A@@std@@@2@PAU342@@Z 0044e930 f i libohNetCore:Stack.obj
 0001:0004d970       ?_Min@?$_Tree_val@V?$_Tmap_traits@VBrn@OpenHome@@PAVObjectType@Stack@Net@2@VBufferCmp@2@V?$allocator@U?$pair@$$CBVBrn@OpenHome@@PAVObjectType@Stack@Net@2@@std@@@std@@$0A@@std@@@std@@SGPAU_Node@?$_Tree_nod@V?$_Tmap_traits@VBrn@OpenHome@@PAVObjectType@Stack@Net@2@VBufferCmp@2@V?$allocator@U?$pair@$$CBVBrn@OpenHome@@PAVObjectType@Stack@Net@2@@std@@@std@@$0A@@std@@@2@PAU342@@Z 0044e970 f i libohNetCore:Stack.obj
 0001:0004d9b0       ??0?$allocator@U?$pair@$$CBVBrn@OpenHome@@PAVObjectType@Stack@Net@2@@std@@@std@@QAE@XZ 0044e9b0 f i libohNetCore:Stack.obj
 0001:0004d9d0       ?deallocate@?$allocator@U_Node@?$_Tree_nod@V?$_Tmap_traits@VBrn@OpenHome@@PAVObjectType@Stack@Net@2@VBufferCmp@2@V?$allocator@U?$pair@$$CBVBrn@OpenHome@@PAVObjectType@Stack@Net@2@@std@@@std@@$0A@@std@@@std@@@std@@QAEXPAU_Node@?$_Tree_nod@V?$_Tmap_traits@VBrn@OpenHome@@PAVObjectType@Stack@Net@2@VBufferCmp@2@V?$allocator@U?$pair@$$CBVBrn@OpenHome@@PAVObjectType@Stack@Net@2@@std@@@std@@$0A@@std@@@2@I@Z 0044e9d0 f i libohNetCore:Stack.obj
 0001:0004da00       ??0?$_Vector_iterator@V?$_Vector_val@PAVMListener@Stack@Net@OpenHome@@V?$allocator@PAVMListener@Stack@Net@OpenHome@@@std@@@std@@@std@@QAE@PAPAVMListener@Stack@Net@OpenHome@@PBU_Container_base12@1@@Z 0044ea00 f i libohNetCore:Stack.obj
 0001:0004da40       ??Y?$_Vector_iterator@V?$_Vector_val@PAVMListener@Stack@Net@OpenHome@@V?$allocator@PAVMListener@Stack@Net@OpenHome@@@std@@@std@@@std@@QAEAAV01@H@Z 0044ea40 f i libohNetCore:Stack.obj
 0001:0004da70       ??0?$_Tree_iterator@V?$_Tree_val@V?$_Tmap_traits@VBrn@OpenHome@@PAVObjectType@Stack@Net@2@VBufferCmp@2@V?$allocator@U?$pair@$$CBVBrn@OpenHome@@PAVObjectType@Stack@Net@2@@std@@@std@@$0A@@std@@@std@@@std@@QAE@PAU_Node@?$_Tree_nod@V?$_Tmap_traits@VBrn@OpenHome@@PAVObjectType@Stack@Net@2@VBufferCmp@2@V?$allocator@U?$pair@$$CBVBrn@OpenHome@@PAVObjectType@Stack@Net@2@@std@@@std@@$0A@@std@@@1@PBV?$_Tree_val@V?$_Tmap_traits@VBrn@OpenHome@@PAVObjectType@Stack@Net@2@VBufferCmp@2@V?$allocator@U?$pair@$$CBVBrn@OpenHome@@PAVObjectType@Stack@Net@2@@std@@@std@@$0A@@std@@@1@@Z 0044ea70 f i libohNetCore:Stack.obj
 0001:0004dab0       ??D?$_Tree_iterator@V?$_Tree_val@V?$_Tmap_traits@VBrn@OpenHome@@PAVObjectType@Stack@Net@2@VBufferCmp@2@V?$allocator@U?$pair@$$CBVBrn@OpenHome@@PAVObjectType@Stack@Net@2@@std@@@std@@$0A@@std@@@std@@@std@@QBEAAU?$pair@$$CBVBrn@OpenHome@@PAVObjectType@Stack@Net@2@@1@XZ 0044eab0 f i libohNetCore:Stack.obj
 0001:0004dae0       ??E?$_Tree_iterator@V?$_Tree_val@V?$_Tmap_traits@VBrn@OpenHome@@PAVObjectType@Stack@Net@2@VBufferCmp@2@V?$allocator@U?$pair@$$CBVBrn@OpenHome@@PAVObjectType@Stack@Net@2@@std@@@std@@$0A@@std@@@std@@@std@@QAEAAV01@XZ 0044eae0 f i libohNetCore:Stack.obj
 0001:0004db10       ??E?$_Tree_const_iterator@V?$_Tree_val@V?$_Tmap_traits@VBrn@OpenHome@@PAVObjectType@Stack@Net@2@VBufferCmp@2@V?$allocator@U?$pair@$$CBVBrn@OpenHome@@PAVObjectType@Stack@Net@2@@std@@@std@@$0A@@std@@@std@@@std@@QAEAAV01@XZ 0044eb10 f i libohNetCore:Stack.obj
 0001:0004dbd0       ??8?$_Tree_const_iterator@V?$_Tree_val@V?$_Tmap_traits@VBrn@OpenHome@@PAVObjectType@Stack@Net@2@VBufferCmp@2@V?$allocator@U?$pair@$$CBVBrn@OpenHome@@PAVObjectType@Stack@Net@2@@std@@@std@@$0A@@std@@@std@@@std@@QBE_NABV01@@Z 0044ebd0 f i libohNetCore:Stack.obj
 0001:0004dc90       ?_Mynode@?$_Tree_unchecked_const_iterator@V?$_Tree_val@V?$_Tmap_traits@VBrn@OpenHome@@PAVObjectType@Stack@Net@2@VBufferCmp@2@V?$allocator@U?$pair@$$CBVBrn@OpenHome@@PAVObjectType@Stack@Net@2@@std@@@std@@$0A@@std@@@std@@U_Iterator_base12@2@@std@@QBEPAU_Node@?$_Tree_nod@V?$_Tmap_traits@VBrn@OpenHome@@PAVObjectType@Stack@Net@2@VBufferCmp@2@V?$allocator@U?$pair@$$CBVBrn@OpenHome@@PAVObjectType@Stack@Net@2@@std@@@std@@$0A@@std@@@2@XZ 0044ec90 f i libohNetCore:Stack.obj
 0001:0004dcb0       ??0?$_Tree_iterator@V?$_Tree_val@V?$_Tmap_traits@PAXPAXU?$less@PAX@std@@V?$allocator@U?$pair@QAXPAX@std@@@2@$0A@@std@@@std@@@std@@QAE@PAU_Node@?$_Tree_nod@V?$_Tmap_traits@PAXPAXU?$less@PAX@std@@V?$allocator@U?$pair@QAXPAX@std@@@2@$0A@@std@@@1@PBV?$_Tree_val@V?$_Tmap_traits@PAXPAXU?$less@PAX@std@@V?$allocator@U?$pair@QAXPAX@std@@@2@$0A@@std@@@1@@Z 0044ecb0 f i libohNetCore:Stack.obj
 0001:0004dcf0       ??D?$_Tree_iterator@V?$_Tree_val@V?$_Tmap_traits@PAXPAXU?$less@PAX@std@@V?$allocator@U?$pair@QAXPAX@std@@@2@$0A@@std@@@std@@@std@@QBEAAU?$pair@QAXPAX@1@XZ 0044ecf0 f i libohNetCore:Stack.obj
 0001:0004dd20       ??E?$_Tree_iterator@V?$_Tree_val@V?$_Tmap_traits@PAXPAXU?$less@PAX@std@@V?$allocator@U?$pair@QAXPAX@std@@@2@$0A@@std@@@std@@@std@@QAEAAV01@XZ 0044ed20 f i libohNetCore:Stack.obj
 0001:0004dd50       ??E?$_Tree_const_iterator@V?$_Tree_val@V?$_Tmap_traits@PAXPAXU?$less@PAX@std@@V?$allocator@U?$pair@QAXPAX@std@@@2@$0A@@std@@@std@@@std@@QAEAAV01@XZ 0044ed50 f i libohNetCore:Stack.obj
 0001:0004de10       ??8?$_Tree_const_iterator@V?$_Tree_val@V?$_Tmap_traits@PAXPAXU?$less@PAX@std@@V?$allocator@U?$pair@QAXPAX@std@@@2@$0A@@std@@@std@@@std@@QBE_NABV01@@Z 0044ee10 f i libohNetCore:Stack.obj
 0001:0004ded0       ?_Mynode@?$_Tree_unchecked_const_iterator@V?$_Tree_val@V?$_Tmap_traits@PAXPAXU?$less@PAX@std@@V?$allocator@U?$pair@QAXPAX@std@@@2@$0A@@std@@@std@@U_Iterator_base12@2@@std@@QBEPAU_Node@?$_Tree_nod@V?$_Tmap_traits@PAXPAXU?$less@PAX@std@@V?$allocator@U?$pair@QAXPAX@std@@@2@$0A@@std@@@2@XZ 0044eed0 f i libohNetCore:Stack.obj
 0001:0004def0       ?erase@?$_Tree@V?$_Tmap_traits@PAXPAXU?$less@PAX@std@@V?$allocator@U?$pair@QAXPAX@std@@@2@$0A@@std@@@std@@QAE?AV?$_Tree_iterator@V?$_Tree_val@V?$_Tmap_traits@PAXPAXU?$less@PAX@std@@V?$allocator@U?$pair@QAXPAX@std@@@2@$0A@@std@@@std@@@2@V?$_Tree_const_iterator@V?$_Tree_val@V?$_Tmap_traits@PAXPAXU?$less@PAX@std@@V?$allocator@U?$pair@QAXPAX@std@@@2@$0A@@std@@@std@@@2@0@Z 0044eef0 f i libohNetCore:Stack.obj
 0001:0004e0f0       ?_Lbound@?$_Tree@V?$_Tmap_traits@PAXPAXU?$less@PAX@std@@V?$allocator@U?$pair@QAXPAX@std@@@2@$0A@@std@@@std@@IAEPAU_Node@?$_Tree_nod@V?$_Tmap_traits@PAXPAXU?$less@PAX@std@@V?$allocator@U?$pair@QAXPAX@std@@@2@$0A@@std@@@2@ABQAX@Z 0044f0f0 f i libohNetCore:Stack.obj
 0001:0004e1a0       ??0?$_Tree_val@V?$_Tmap_traits@PAXPAXU?$less@PAX@std@@V?$allocator@U?$pair@QAXPAX@std@@@2@$0A@@std@@@std@@QAE@ABU?$less@PAX@1@V?$allocator@U?$pair@QAXPAX@std@@@1@@Z 0044f1a0 f i libohNetCore:Stack.obj
 0001:0004e2a0       ??1?$_Tree_nod@V?$_Tmap_traits@PAXPAXU?$less@PAX@std@@V?$allocator@U?$pair@QAXPAX@std@@@2@$0A@@std@@@std@@QAE@XZ 0044f2a0 f i libohNetCore:Stack.obj
 0001:0004e380       ??0?$allocator@U?$pair@QAXPAX@std@@@std@@QAE@ABV01@@Z 0044f380 f i libohNetCore:Stack.obj
 0001:0004e3a0       ?reserve@?$vector@PAVMListener@Stack@Net@OpenHome@@V?$allocator@PAVMListener@Stack@Net@OpenHome@@@std@@@std@@QAEXI@Z 0044f3a0 f i libohNetCore:Stack.obj
 0001:0004e510       ?capacity@?$vector@PAVMListener@Stack@Net@OpenHome@@V?$allocator@PAVMListener@Stack@Net@OpenHome@@@std@@@std@@QBEIXZ 0044f510 f i libohNetCore:Stack.obj
 0001:0004e540       ?max_size@?$vector@PAVMListener@Stack@Net@OpenHome@@V?$allocator@PAVMListener@Stack@Net@OpenHome@@@std@@@std@@QBEIXZ 0044f540 f i libohNetCore:Stack.obj
 0001:0004e570       ?_Grow_to@?$vector@PAVMListener@Stack@Net@OpenHome@@V?$allocator@PAVMListener@Stack@Net@OpenHome@@@std@@@std@@IBEII@Z 0044f570 f i libohNetCore:Stack.obj
 0001:0004e5f0       ?_Xlen@?$vector@PAVMListener@Stack@Net@OpenHome@@V?$allocator@PAVMListener@Stack@Net@OpenHome@@@std@@@std@@IBEXXZ 0044f5f0 f i libohNetCore:Stack.obj
 0001:0004e620       ??0?$allocator@PAVMListener@Stack@Net@OpenHome@@@std@@QAE@ABV01@@Z 0044f620 f i libohNetCore:Stack.obj
 0001:0004e640       ?deallocate@?$allocator@PAVMListener@Stack@Net@OpenHome@@@std@@QAEXPAPAVMListener@Stack@Net@OpenHome@@I@Z 0044f640 f i libohNetCore:Stack.obj
 0001:0004e670       ?erase@?$_Tree@V?$_Tmap_traits@VBrn@OpenHome@@PAVObjectType@Stack@Net@2@VBufferCmp@2@V?$allocator@U?$pair@$$CBVBrn@OpenHome@@PAVObjectType@Stack@Net@2@@std@@@std@@$0A@@std@@@std@@QAE?AV?$_Tree_iterator@V?$_Tree_val@V?$_Tmap_traits@VBrn@OpenHome@@PAVObjectType@Stack@Net@2@VBufferCmp@2@V?$allocator@U?$pair@$$CBVBrn@OpenHome@@PAVObjectType@Stack@Net@2@@std@@@std@@$0A@@std@@@std@@@2@V?$_Tree_const_iterator@V?$_Tree_val@V?$_Tmap_traits@VBrn@OpenHome@@PAVObjectType@Stack@Net@2@VBufferCmp@2@V?$allocator@U?$pair@$$CBVBrn@OpenHome@@PAVObjectType@Stack@Net@2@@std@@@std@@$0A@@std@@@std@@@2@0@Z 0044f670 f i libohNetCore:Stack.obj
 0001:0004e870       ?_Lbound@?$_Tree@V?$_Tmap_traits@VBrn@OpenHome@@PAVObjectType@Stack@Net@2@VBufferCmp@2@V?$allocator@U?$pair@$$CBVBrn@OpenHome@@PAVObjectType@Stack@Net@2@@std@@@std@@$0A@@std@@@std@@IAEPAU_Node@?$_Tree_nod@V?$_Tmap_traits@VBrn@OpenHome@@PAVObjectType@Stack@Net@2@VBufferCmp@2@V?$allocator@U?$pair@$$CBVBrn@OpenHome@@PAVObjectType@Stack@Net@2@@std@@@std@@$0A@@std@@@2@ABVBrn@OpenHome@@@Z 0044f870 f i libohNetCore:Stack.obj
 0001:0004e920       ??0?$_Tree_val@V?$_Tmap_traits@VBrn@OpenHome@@PAVObjectType@Stack@Net@2@VBufferCmp@2@V?$allocator@U?$pair@$$CBVBrn@OpenHome@@PAVObjectType@Stack@Net@2@@std@@@std@@$0A@@std@@@std@@QAE@ABVBufferCmp@OpenHome@@V?$allocator@U?$pair@$$CBVBrn@OpenHome@@PAVObjectType@Stack@Net@2@@std@@@1@@Z 0044f920 f i libohNetCore:Stack.obj
 0001:0004ea20       ??1?$_Tree_nod@V?$_Tmap_traits@VBrn@OpenHome@@PAVObjectType@Stack@Net@2@VBufferCmp@2@V?$allocator@U?$pair@$$CBVBrn@OpenHome@@PAVObjectType@Stack@Net@2@@std@@@std@@$0A@@std@@@std@@QAE@XZ 0044fa20 f i libohNetCore:Stack.obj
 0001:0004eb00       ??0?$allocator@U?$pair@$$CBVBrn@OpenHome@@PAVObjectType@Stack@Net@2@@std@@@std@@QAE@ABV01@@Z 0044fb00 f i libohNetCore:Stack.obj
 0001:0004eb20       ??0?$_Vector_const_iterator@V?$_Vector_val@PAVMListener@Stack@Net@OpenHome@@V?$allocator@PAVMListener@Stack@Net@OpenHome@@@std@@@std@@@std@@QAE@PAPAVMListener@Stack@Net@OpenHome@@PBU_Container_base12@1@@Z 0044fb20 f i libohNetCore:Stack.obj
 0001:0004eba0       ??Y?$_Vector_const_iterator@V?$_Vector_val@PAVMListener@Stack@Net@OpenHome@@V?$allocator@PAVMListener@Stack@Net@OpenHome@@@std@@@std@@@std@@QAEAAV01@H@Z 0044fba0 f i libohNetCore:Stack.obj
 0001:0004ec80       ??0?$_Tree_const_iterator@V?$_Tree_val@V?$_Tmap_traits@VBrn@OpenHome@@PAVObjectType@Stack@Net@2@VBufferCmp@2@V?$allocator@U?$pair@$$CBVBrn@OpenHome@@PAVObjectType@Stack@Net@2@@std@@@std@@$0A@@std@@@std@@@std@@QAE@PAU_Node@?$_Tree_nod@V?$_Tmap_traits@VBrn@OpenHome@@PAVObjectType@Stack@Net@2@VBufferCmp@2@V?$allocator@U?$pair@$$CBVBrn@OpenHome@@PAVObjectType@Stack@Net@2@@std@@@std@@$0A@@std@@@1@PBV?$_Tree_val@V?$_Tmap_traits@VBrn@OpenHome@@PAVObjectType@Stack@Net@2@VBufferCmp@2@V?$allocator@U?$pair@$$CBVBrn@OpenHome@@PAVObjectType@Stack@Net@2@@std@@@std@@$0A@@std@@@1@@Z 0044fc80 f i libohNetCore:Stack.obj
 0001:0004ecc0       ??D?$_Tree_const_iterator@V?$_Tree_val@V?$_Tmap_traits@VBrn@OpenHome@@PAVObjectType@Stack@Net@2@VBufferCmp@2@V?$allocator@U?$pair@$$CBVBrn@OpenHome@@PAVObjectType@Stack@Net@2@@std@@@std@@$0A@@std@@@std@@@std@@QBEABU?$pair@$$CBVBrn@OpenHome@@PAVObjectType@Stack@Net@2@@1@XZ 0044fcc0 f i libohNetCore:Stack.obj
 0001:0004ed80       ??E?$_Tree_unchecked_const_iterator@V?$_Tree_val@V?$_Tmap_traits@VBrn@OpenHome@@PAVObjectType@Stack@Net@2@VBufferCmp@2@V?$allocator@U?$pair@$$CBVBrn@OpenHome@@PAVObjectType@Stack@Net@2@@std@@@std@@$0A@@std@@@std@@U_Iterator_base12@2@@std@@QAEAAV01@XZ 0044fd80 f i libohNetCore:Stack.obj
 0001:0004ee40       ??0?$_Tree_const_iterator@V?$_Tree_val@V?$_Tmap_traits@PAXPAXU?$less@PAX@std@@V?$allocator@U?$pair@QAXPAX@std@@@2@$0A@@std@@@std@@@std@@QAE@PAU_Node@?$_Tree_nod@V?$_Tmap_traits@PAXPAXU?$less@PAX@std@@V?$allocator@U?$pair@QAXPAX@std@@@2@$0A@@std@@@1@PBV?$_Tree_val@V?$_Tmap_traits@PAXPAXU?$less@PAX@std@@V?$allocator@U?$pair@QAXPAX@std@@@2@$0A@@std@@@1@@Z 0044fe40 f i libohNetCore:Stack.obj
 0001:0004ee80       ??D?$_Tree_const_iterator@V?$_Tree_val@V?$_Tmap_traits@PAXPAXU?$less@PAX@std@@V?$allocator@U?$pair@QAXPAX@std@@@2@$0A@@std@@@std@@@std@@QBEABU?$pair@QAXPAX@1@XZ 0044fe80 f i libohNetCore:Stack.obj
 0001:0004ef40       ??E?$_Tree_unchecked_const_iterator@V?$_Tree_val@V?$_Tmap_traits@PAXPAXU?$less@PAX@std@@V?$allocator@U?$pair@QAXPAX@std@@@2@$0A@@std@@@std@@U_Iterator_base12@2@@std@@QAEAAV01@XZ 0044ff40 f i libohNetCore:Stack.obj
 0001:0004f000       ??1?$_Tmap_traits@PAXPAXU?$less@PAX@std@@V?$allocator@U?$pair@QAXPAX@std@@@2@$0A@@std@@QAE@XZ 00450000 f i libohNetCore:Stack.obj
 0001:0004f030       ??1?$_Tmap_traits@VBrn@OpenHome@@PAVObjectType@Stack@Net@2@VBufferCmp@2@V?$allocator@U?$pair@$$CBVBrn@OpenHome@@PAVObjectType@Stack@Net@2@@std@@@std@@$0A@@std@@QAE@XZ 00450030 f i libohNetCore:Stack.obj
 0001:0004f060       ??0?$_Iterator012@Urandom_access_iterator_tag@std@@PAVMListener@Stack@Net@OpenHome@@HPBQAV3456@ABQAV3456@U_Iterator_base12@2@@std@@QAE@XZ 00450060 f i libohNetCore:Stack.obj
 0001:0004f090       ?clear@?$_Tree@V?$_Tmap_traits@PAXPAXU?$less@PAX@std@@V?$allocator@U?$pair@QAXPAX@std@@@2@$0A@@std@@@std@@QAEXXZ 00450090 f i libohNetCore:Stack.obj
 0001:0004f110       ??0?$_Tree_nod@V?$_Tmap_traits@PAXPAXU?$less@PAX@std@@V?$allocator@U?$pair@QAXPAX@std@@@2@$0A@@std@@@std@@QAE@ABU?$less@PAX@1@V?$allocator@U?$pair@QAXPAX@std@@@1@@Z 00450110 f i libohNetCore:Stack.obj
 0001:0004f220       ?allocate@?$allocator@U_Node@?$_Tree_nod@V?$_Tmap_traits@PAXPAXU?$less@PAX@std@@V?$allocator@U?$pair@QAXPAX@std@@@2@$0A@@std@@@std@@@std@@QAEPAU_Node@?$_Tree_nod@V?$_Tmap_traits@PAXPAXU?$less@PAX@std@@V?$allocator@U?$pair@QAXPAX@std@@@2@$0A@@std@@@2@I@Z 00450220 f i libohNetCore:Stack.obj
 0001:0004f250       ?allocate@?$allocator@PAVMListener@Stack@Net@OpenHome@@@std@@QAEPAPAVMListener@Stack@Net@OpenHome@@I@Z 00450250 f i libohNetCore:Stack.obj
 0001:0004f280       ?max_size@?$allocator@PAVMListener@Stack@Net@OpenHome@@@std@@QBEIXZ 00450280 f i libohNetCore:Stack.obj
 0001:0004f2d0       ?clear@?$_Tree@V?$_Tmap_traits@VBrn@OpenHome@@PAVObjectType@Stack@Net@2@VBufferCmp@2@V?$allocator@U?$pair@$$CBVBrn@OpenHome@@PAVObjectType@Stack@Net@2@@std@@@std@@$0A@@std@@@std@@QAEXXZ 004502d0 f i libohNetCore:Stack.obj
 0001:0004f350       ??0?$_Tree_nod@V?$_Tmap_traits@VBrn@OpenHome@@PAVObjectType@Stack@Net@2@VBufferCmp@2@V?$allocator@U?$pair@$$CBVBrn@OpenHome@@PAVObjectType@Stack@Net@2@@std@@@std@@$0A@@std@@@std@@QAE@ABVBufferCmp@OpenHome@@V?$allocator@U?$pair@$$CBVBrn@OpenHome@@PAVObjectType@Stack@Net@2@@std@@@1@@Z 00450350 f i libohNetCore:Stack.obj
 0001:0004f460       ?allocate@?$allocator@U_Node@?$_Tree_nod@V?$_Tmap_traits@VBrn@OpenHome@@PAVObjectType@Stack@Net@2@VBufferCmp@2@V?$allocator@U?$pair@$$CBVBrn@OpenHome@@PAVObjectType@Stack@Net@2@@std@@@std@@$0A@@std@@@std@@@std@@QAEPAU_Node@?$_Tree_nod@V?$_Tmap_traits@VBrn@OpenHome@@PAVObjectType@Stack@Net@2@VBufferCmp@2@V?$allocator@U?$pair@$$CBVBrn@OpenHome@@PAVObjectType@Stack@Net@2@@std@@@std@@$0A@@std@@@2@I@Z 00450460 f i libohNetCore:Stack.obj
 0001:0004f490       ??E?$_Tree_const_iterator@V?$_Tree_val@V?$_Tmap_traits@VBrn@OpenHome@@PAVObjectType@Stack@Net@2@VBufferCmp@2@V?$allocator@U?$pair@$$CBVBrn@OpenHome@@PAVObjectType@Stack@Net@2@@std@@@std@@$0A@@std@@@std@@@std@@QAE?AV01@H@Z 00450490 f i libohNetCore:Stack.obj
 0001:0004f560       ??0?$_Tree_unchecked_const_iterator@V?$_Tree_val@V?$_Tmap_traits@VBrn@OpenHome@@PAVObjectType@Stack@Net@2@VBufferCmp@2@V?$allocator@U?$pair@$$CBVBrn@OpenHome@@PAVObjectType@Stack@Net@2@@std@@@std@@$0A@@std@@@std@@U_Iterator_base12@2@@std@@QAE@PAU_Node@?$_Tree_nod@V?$_Tmap_traits@VBrn@OpenHome@@PAVObjectType@Stack@Net@2@VBufferCmp@2@V?$allocator@U?$pair@$$CBVBrn@OpenHome@@PAVObjectType@Stack@Net@2@@std@@@std@@$0A@@std@@@1@PBV?$_Tree_val@V?$_Tmap_traits@VBrn@OpenHome@@PAVObjectType@Stack@Net@2@VBufferCmp@2@V?$allocator@U?$pair@$$CBVBrn@OpenHome@@PAVObjectType@Stack@Net@2@@std@@@std@@$0A@@std@@@1@@Z 00450560 f i libohNetCore:Stack.obj
 0001:0004f5e0       ??E?$_Tree_const_iterator@V?$_Tree_val@V?$_Tmap_traits@PAXPAXU?$less@PAX@std@@V?$allocator@U?$pair@QAXPAX@std@@@2@$0A@@std@@@std@@@std@@QAE?AV01@H@Z 004505e0 f i libohNetCore:Stack.obj
 0001:0004f6b0       ??0?$_Tree_unchecked_const_iterator@V?$_Tree_val@V?$_Tmap_traits@PAXPAXU?$less@PAX@std@@V?$allocator@U?$pair@QAXPAX@std@@@2@$0A@@std@@@std@@U_Iterator_base12@2@@std@@QAE@PAU_Node@?$_Tree_nod@V?$_Tmap_traits@PAXPAXU?$less@PAX@std@@V?$allocator@U?$pair@QAXPAX@std@@@2@$0A@@std@@@1@PBV?$_Tree_val@V?$_Tmap_traits@PAXPAXU?$less@PAX@std@@V?$allocator@U?$pair@QAXPAX@std@@@2@$0A@@std@@@1@@Z 004506b0 f i libohNetCore:Stack.obj
 0001:0004f730       ??0?$_Iterator012@Ubidirectional_iterator_tag@std@@U?$pair@$$CBVBrn@OpenHome@@PAVObjectType@Stack@Net@2@@2@HPBU32@ABU32@U_Iterator_base12@2@@std@@QAE@XZ 00450730 f i libohNetCore:Stack.obj
 0001:0004f760       ??0?$_Iterator012@Ubidirectional_iterator_tag@std@@U?$pair@QAXPAX@2@HPBU32@ABU32@U_Iterator_base12@2@@std@@QAE@XZ 00450760 f i libohNetCore:Stack.obj
 0001:0004f790       ?_Erase@?$_Tree@V?$_Tmap_traits@PAXPAXU?$less@PAX@std@@V?$allocator@U?$pair@QAXPAX@std@@@2@$0A@@std@@@std@@IAEXPAU_Node@?$_Tree_nod@V?$_Tmap_traits@PAXPAXU?$less@PAX@std@@V?$allocator@U?$pair@QAXPAX@std@@@2@$0A@@std@@@2@@Z 00450790 f i libohNetCore:Stack.obj
 0001:0004f830       ??0?$_Tmap_traits@PAXPAXU?$less@PAX@std@@V?$allocator@U?$pair@QAXPAX@std@@@2@$0A@@std@@QAE@U?$less@PAX@1@@Z 00450830 f i libohNetCore:Stack.obj
 0001:0004f860       ?_Erase@?$_Tree@V?$_Tmap_traits@VBrn@OpenHome@@PAVObjectType@Stack@Net@2@VBufferCmp@2@V?$allocator@U?$pair@$$CBVBrn@OpenHome@@PAVObjectType@Stack@Net@2@@std@@@std@@$0A@@std@@@std@@IAEXPAU_Node@?$_Tree_nod@V?$_Tmap_traits@VBrn@OpenHome@@PAVObjectType@Stack@Net@2@VBufferCmp@2@V?$allocator@U?$pair@$$CBVBrn@OpenHome@@PAVObjectType@Stack@Net@2@@std@@@std@@$0A@@std@@@2@@Z 00450860 f i libohNetCore:Stack.obj
 0001:0004f900       ??0?$_Tmap_traits@VBrn@OpenHome@@PAVObjectType@Stack@Net@2@VBufferCmp@2@V?$allocator@U?$pair@$$CBVBrn@OpenHome@@PAVObjectType@Stack@Net@2@@std@@@std@@$0A@@std@@QAE@VBufferCmp@OpenHome@@@Z 00450900 f i libohNetCore:Stack.obj
 0001:0004f930       ??$?0AAVBrn@OpenHome@@AAPAVObjectType@Stack@Net@1@@?$pair@VBrn@OpenHome@@PAVObjectType@Stack@Net@2@@std@@QAE@AAVBrn@OpenHome@@AAPAVObjectType@Stack@Net@3@@Z 00450930 f i libohNetCore:Stack.obj
 0001:0004f970       ??$insert@U?$pair@VBrn@OpenHome@@PAVObjectType@Stack@Net@2@@std@@@?$_Tree@V?$_Tmap_traits@VBrn@OpenHome@@PAVObjectType@Stack@Net@2@VBufferCmp@2@V?$allocator@U?$pair@$$CBVBrn@OpenHome@@PAVObjectType@Stack@Net@2@@std@@@std@@$0A@@std@@@std@@QAE?AU?$pair@V?$_Tree_iterator@V?$_Tree_val@V?$_Tmap_traits@VBrn@OpenHome@@PAVObjectType@Stack@Net@2@VBufferCmp@2@V?$allocator@U?$pair@$$CBVBrn@OpenHome@@PAVObjectType@Stack@Net@2@@std@@@std@@$0A@@std@@@std@@@std@@_N@1@$$QAU?$pair@VBrn@OpenHome@@PAVObjectType@Stack@Net@2@@1@@Z 00450970 f i libohNetCore:Stack.obj
 0001:0004f9d0       ??$?0AAPAXAAPAX@?$pair@PAXPAX@std@@QAE@AAPAX0@Z 004509d0 f i libohNetCore:Stack.obj
 0001:0004fa10       ??$insert@U?$pair@PAXPAX@std@@@?$_Tree@V?$_Tmap_traits@PAXPAXU?$less@PAX@std@@V?$allocator@U?$pair@QAXPAX@std@@@2@$0A@@std@@@std@@QAE?AU?$pair@V?$_Tree_iterator@V?$_Tree_val@V?$_Tmap_traits@PAXPAXU?$less@PAX@std@@V?$allocator@U?$pair@QAXPAX@std@@@2@$0A@@std@@@std@@@std@@_N@1@$$QAU?$pair@PAXPAX@1@@Z 00450a10 f i libohNetCore:Stack.obj
 0001:0004fa70       ??$addressof@U?$pair@QAXPAX@std@@@std@@YGPAU?$pair@QAXPAX@0@AAU10@@Z 00450a70 f i libohNetCore:Stack.obj
 0001:0004fa80       ??$_Dest_val@V?$allocator@U?$pair@QAXPAX@std@@@std@@U?$pair@QAXPAX@2@@std@@YGXAAV?$allocator@U?$pair@QAXPAX@std@@@0@PAU?$pair@QAXPAX@0@@Z 00450a80 f i libohNetCore:Stack.obj
 0001:0004faa0       ??$_Debug_lt_pred@U?$less@PAX@std@@PAXPAX@std@@YG_NU?$less@PAX@0@ABQAXAAPAXPB_WI@Z 00450aa0 f i libohNetCore:Stack.obj
 0001:0004fb00       ??$addressof@QAVMListener@Stack@Net@OpenHome@@@std@@YGPBQAVMListener@Stack@Net@OpenHome@@ABQAV1234@@Z 00450b00 f i libohNetCore:Stack.obj
 0001:0004fb10       ??$_Cons_val@V?$allocator@PAVMListener@Stack@Net@OpenHome@@@std@@PAVMListener@Stack@Net@OpenHome@@AAPAV3456@@std@@YGXAAV?$allocator@PAVMListener@Stack@Net@OpenHome@@@0@PAPAVMListener@Stack@Net@OpenHome@@AAPAV2345@@Z 00450b10 f i libohNetCore:Stack.obj
 0001:0004fb40       ??$_Cons_val@V?$allocator@PAVMListener@Stack@Net@OpenHome@@@std@@PAVMListener@Stack@Net@OpenHome@@ABQAV3456@@std@@YGXAAV?$allocator@PAVMListener@Stack@Net@OpenHome@@@0@PAPAVMListener@Stack@Net@OpenHome@@ABQAV2345@@Z 00450b40 f i libohNetCore:Stack.obj
 0001:0004fb70       ??$_Move@PAPAVMListener@Stack@Net@OpenHome@@PAPAV1234@@std@@YGPAPAVMListener@Stack@Net@OpenHome@@PAPAV1234@00@Z 00450b70 f i libohNetCore:Stack.obj
 0001:0004fbc0       ??$addressof@U?$pair@$$CBVBrn@OpenHome@@PAVObjectType@Stack@Net@2@@std@@@std@@YGPAU?$pair@$$CBVBrn@OpenHome@@PAVObjectType@Stack@Net@2@@0@AAU10@@Z 00450bc0 f i libohNetCore:Stack.obj
 0001:0004fbd0       ??$_Dest_val@V?$allocator@U?$pair@$$CBVBrn@OpenHome@@PAVObjectType@Stack@Net@2@@std@@@std@@U?$pair@$$CBVBrn@OpenHome@@PAVObjectType@Stack@Net@2@@2@@std@@YGXAAV?$allocator@U?$pair@$$CBVBrn@OpenHome@@PAVObjectType@Stack@Net@2@@std@@@0@PAU?$pair@$$CBVBrn@OpenHome@@PAVObjectType@Stack@Net@2@@0@@Z 00450bd0 f i libohNetCore:Stack.obj
 0001:0004fbf0       ??$_Kfn@QAXPAX@?$_Tmap_traits@PAXPAXU?$less@PAX@std@@V?$allocator@U?$pair@QAXPAX@std@@@2@$0A@@std@@SGABQAXABU?$pair@QAXPAX@1@@Z 00450bf0 f i libohNetCore:Stack.obj
 0001:0004fc00       ??$_Destroy_range@V?$allocator@PAVMListener@Stack@Net@OpenHome@@@std@@@std@@YGXPAPAVMListener@Stack@Net@OpenHome@@0AAV?$allocator@PAVMListener@Stack@Net@OpenHome@@@0@@Z 00450c00 f i libohNetCore:Stack.obj
 0001:0004fc50       ??$?0PAVMListener@Stack@Net@OpenHome@@@?$allocator@U_Container_proxy@std@@@std@@QAE@ABV?$allocator@PAVMListener@Stack@Net@OpenHome@@@1@@Z 00450c50 f i libohNetCore:Stack.obj
 0001:0004fc70       ??$_Kfn@$$CBVBrn@OpenHome@@PAVObjectType@Stack@Net@2@@?$_Tmap_traits@VBrn@OpenHome@@PAVObjectType@Stack@Net@2@VBufferCmp@2@V?$allocator@U?$pair@$$CBVBrn@OpenHome@@PAVObjectType@Stack@Net@2@@std@@@std@@$0A@@std@@SGABVBrn@OpenHome@@ABU?$pair@$$CBVBrn@OpenHome@@PAVObjectType@Stack@Net@2@@1@@Z 00450c70 f i libohNetCore:Stack.obj
 0001:0004fc80       ??$_Debug_lt_pred@U?$less@PAX@std@@PAXPAX@std@@YG_NU?$less@PAX@0@AAPAXABQAXPB_WI@Z 00450c80 f i libohNetCore:Stack.obj
 0001:0004fce0       ??$?0U_Node@?$_Tree_nod@V?$_Tmap_traits@PAXPAXU?$less@PAX@std@@V?$allocator@U?$pair@QAXPAX@std@@@2@$0A@@std@@@std@@@?$allocator@U_Container_proxy@std@@@std@@QAE@ABV?$allocator@U_Node@?$_Tree_nod@V?$_Tmap_traits@PAXPAXU?$less@PAX@std@@V?$allocator@U?$pair@QAXPAX@std@@@2@$0A@@std@@@std@@@1@@Z 00450ce0 f i libohNetCore:Stack.obj
 0001:0004fd00       ??$_Umove@PAPAVMListener@Stack@Net@OpenHome@@@?$vector@PAVMListener@Stack@Net@OpenHome@@V?$allocator@PAVMListener@Stack@Net@OpenHome@@@std@@@std@@IAEPAPAVMListener@Stack@Net@OpenHome@@PAPAV2345@00@Z 00450d00 f i libohNetCore:Stack.obj
 0001:0004fd40       ??$?0U_Node@?$_Tree_nod@V?$_Tmap_traits@VBrn@OpenHome@@PAVObjectType@Stack@Net@2@VBufferCmp@2@V?$allocator@U?$pair@$$CBVBrn@OpenHome@@PAVObjectType@Stack@Net@2@@std@@@std@@$0A@@std@@@std@@@?$allocator@U_Container_proxy@std@@@std@@QAE@ABV?$allocator@U_Node@?$_Tree_nod@V?$_Tmap_traits@VBrn@OpenHome@@PAVObjectType@Stack@Net@2@VBufferCmp@2@V?$allocator@U?$pair@$$CBVBrn@OpenHome@@PAVObjectType@Stack@Net@2@@std@@@std@@$0A@@std@@@std@@@1@@Z 00450d40 f i libohNetCore:Stack.obj
 0001:0004fd60       ??$?0U?$pair@QAXPAX@std@@@?$allocator@U_Node@?$_Tree_nod@V?$_Tmap_traits@PAXPAXU?$less@PAX@std@@V?$allocator@U?$pair@QAXPAX@std@@@2@$0A@@std@@@std@@@std@@QAE@ABV?$allocator@U?$pair@QAXPAX@std@@@1@@Z 00450d60 f i libohNetCore:Stack.obj
 0001:0004fd80       ??$_Allocate@U_Node@?$_Tree_nod@V?$_Tmap_traits@PAXPAXU?$less@PAX@std@@V?$allocator@U?$pair@QAXPAX@std@@@2@$0A@@std@@@std@@@std@@YGPAU_Node@?$_Tree_nod@V?$_Tmap_traits@PAXPAXU?$less@PAX@std@@V?$allocator@U?$pair@QAXPAX@std@@@2@$0A@@std@@@0@IPAU120@@Z 00450d80 f i libohNetCore:Stack.obj
 0001:0004fe00       ??$_Allocate@PAVMListener@Stack@Net@OpenHome@@@std@@YGPAPAVMListener@Stack@Net@OpenHome@@IPAPAV1234@@Z 00450e00 f i libohNetCore:Stack.obj
 0001:0004fe80       ??$?0U?$pair@$$CBVBrn@OpenHome@@PAVObjectType@Stack@Net@2@@std@@@?$allocator@U_Node@?$_Tree_nod@V?$_Tmap_traits@VBrn@OpenHome@@PAVObjectType@Stack@Net@2@VBufferCmp@2@V?$allocator@U?$pair@$$CBVBrn@OpenHome@@PAVObjectType@Stack@Net@2@@std@@@std@@$0A@@std@@@std@@@std@@QAE@ABV?$allocator@U?$pair@$$CBVBrn@OpenHome@@PAVObjectType@Stack@Net@2@@std@@@1@@Z 00450e80 f i libohNetCore:Stack.obj
 0001:0004fea0       ??$_Allocate@U_Node@?$_Tree_nod@V?$_Tmap_traits@VBrn@OpenHome@@PAVObjectType@Stack@Net@2@VBufferCmp@2@V?$allocator@U?$pair@$$CBVBrn@OpenHome@@PAVObjectType@Stack@Net@2@@std@@@std@@$0A@@std@@@std@@@std@@YGPAU_Node@?$_Tree_nod@V?$_Tmap_traits@VBrn@OpenHome@@PAVObjectType@Stack@Net@2@VBufferCmp@2@V?$allocator@U?$pair@$$CBVBrn@OpenHome@@PAVObjectType@Stack@Net@2@@std@@@std@@$0A@@std@@@0@IPAU120@@Z 00450ea0 f i libohNetCore:Stack.obj
 0001:0004ff20       ?_Linsert@?$_Tree@V?$_Tmap_traits@PAXPAXU?$less@PAX@std@@V?$allocator@U?$pair@QAXPAX@std@@@2@$0A@@std@@@std@@QAE?AU?$pair@V?$_Tree_iterator@V?$_Tree_val@V?$_Tmap_traits@PAXPAXU?$less@PAX@std@@V?$allocator@U?$pair@QAXPAX@std@@@2@$0A@@std@@@std@@@std@@_N@2@PAU_Node@?$_Tree_nod@V?$_Tmap_traits@PAXPAXU?$less@PAX@std@@V?$allocator@U?$pair@QAXPAX@std@@@2@$0A@@std@@@2@_N@Z 00450f20 f i libohNetCore:Stack.obj
 0001:00050300       ?destroy@?$allocator@U?$pair@QAXPAX@std@@@std@@QAEXPAU?$pair@QAXPAX@2@@Z 00451300 f i libohNetCore:Stack.obj
 0001:00050330       ??R?$less@PAX@std@@QBE_NABQAX0@Z 00451330 f i libohNetCore:Stack.obj
 0001:00050360       ?construct@?$allocator@PAVMListener@Stack@Net@OpenHome@@@std@@QAEXPAPAVMListener@Stack@Net@OpenHome@@ABQAV3456@@Z 00451360 f i libohNetCore:Stack.obj
 0001:00050390       ?_Linsert@?$_Tree@V?$_Tmap_traits@VBrn@OpenHome@@PAVObjectType@Stack@Net@2@VBufferCmp@2@V?$allocator@U?$pair@$$CBVBrn@OpenHome@@PAVObjectType@Stack@Net@2@@std@@@std@@$0A@@std@@@std@@QAE?AU?$pair@V?$_Tree_iterator@V?$_Tree_val@V?$_Tmap_traits@VBrn@OpenHome@@PAVObjectType@Stack@Net@2@VBufferCmp@2@V?$allocator@U?$pair@$$CBVBrn@OpenHome@@PAVObjectType@Stack@Net@2@@std@@@std@@$0A@@std@@@std@@@std@@_N@2@PAU_Node@?$_Tree_nod@V?$_Tmap_traits@VBrn@OpenHome@@PAVObjectType@Stack@Net@2@VBufferCmp@2@V?$allocator@U?$pair@$$CBVBrn@OpenHome@@PAVObjectType@Stack@Net@2@@std@@@std@@$0A@@std@@@2@_N@Z 00451390 f i libohNetCore:Stack.obj
 0001:00050770       ?destroy@?$allocator@U?$pair@$$CBVBrn@OpenHome@@PAVObjectType@Stack@Net@2@@std@@@std@@QAEXPAU?$pair@$$CBVBrn@OpenHome@@PAVObjectType@Stack@Net@2@@2@@Z 00451770 f i libohNetCore:Stack.obj
 0001:000507a0       ?_Insert@?$_Tree@V?$_Tmap_traits@PAXPAXU?$less@PAX@std@@V?$allocator@U?$pair@QAXPAX@std@@@2@$0A@@std@@@std@@IAE?AV?$_Tree_iterator@V?$_Tree_val@V?$_Tmap_traits@PAXPAXU?$less@PAX@std@@V?$allocator@U?$pair@QAXPAX@std@@@2@$0A@@std@@@std@@@2@_NPAU_Node@?$_Tree_nod@V?$_Tmap_traits@PAXPAXU?$less@PAX@std@@V?$allocator@U?$pair@QAXPAX@std@@@2@$0A@@std@@@2@1@Z 004517a0 f i libohNetCore:Stack.obj
 0001:00050b60       ?_Insert@?$_Tree@V?$_Tmap_traits@VBrn@OpenHome@@PAVObjectType@Stack@Net@2@VBufferCmp@2@V?$allocator@U?$pair@$$CBVBrn@OpenHome@@PAVObjectType@Stack@Net@2@@std@@@std@@$0A@@std@@@std@@IAE?AV?$_Tree_iterator@V?$_Tree_val@V?$_Tmap_traits@VBrn@OpenHome@@PAVObjectType@Stack@Net@2@VBufferCmp@2@V?$allocator@U?$pair@$$CBVBrn@OpenHome@@PAVObjectType@Stack@Net@2@@std@@@std@@$0A@@std@@@std@@@2@_NPAU_Node@?$_Tree_nod@V?$_Tmap_traits@VBrn@OpenHome@@PAVObjectType@Stack@Net@2@VBufferCmp@2@V?$allocator@U?$pair@$$CBVBrn@OpenHome@@PAVObjectType@Stack@Net@2@@std@@@std@@$0A@@std@@@2@1@Z 00451b60 f i libohNetCore:Stack.obj
 0001:00050f20       ??F?$_Tree_iterator@V?$_Tree_val@V?$_Tmap_traits@VBrn@OpenHome@@PAVObjectType@Stack@Net@2@VBufferCmp@2@V?$allocator@U?$pair@$$CBVBrn@OpenHome@@PAVObjectType@Stack@Net@2@@std@@@std@@$0A@@std@@@std@@@std@@QAEAAV01@XZ 00451f20 f i libohNetCore:Stack.obj
 0001:00050f50       ??0?$pair@V?$_Tree_iterator@V?$_Tree_val@V?$_Tmap_traits@VBrn@OpenHome@@PAVObjectType@Stack@Net@2@VBufferCmp@2@V?$allocator@U?$pair@$$CBVBrn@OpenHome@@PAVObjectType@Stack@Net@2@@std@@@std@@$0A@@std@@@std@@@std@@_N@std@@QAE@$$QAV?$_Tree_iterator@V?$_Tree_val@V?$_Tmap_traits@VBrn@OpenHome@@PAVObjectType@Stack@Net@2@VBufferCmp@2@V?$allocator@U?$pair@$$CBVBrn@OpenHome@@PAVObjectType@Stack@Net@2@@std@@@std@@$0A@@std@@@std@@@1@$$QA_N@Z 00451f50 f i libohNetCore:Stack.obj
 0001:00050f90       ??0?$pair@V?$_Tree_iterator@V?$_Tree_val@V?$_Tmap_traits@PAXPAXU?$less@PAX@std@@V?$allocator@U?$pair@QAXPAX@std@@@2@$0A@@std@@@std@@@std@@_N@std@@QAE@$$QAV?$_Tree_iterator@V?$_Tree_val@V?$_Tmap_traits@PAXPAXU?$less@PAX@std@@V?$allocator@U?$pair@QAXPAX@std@@@2@$0A@@std@@@std@@@1@$$QA_N@Z 00451f90 f i libohNetCore:Stack.obj
 0001:00050fd0       ??F?$_Tree_iterator@V?$_Tree_val@V?$_Tmap_traits@PAXPAXU?$less@PAX@std@@V?$allocator@U?$pair@QAXPAX@std@@@2@$0A@@std@@@std@@@std@@QAEAAV01@XZ 00451fd0 f i libohNetCore:Stack.obj
 0001:00051000       ?max_size@?$_Tree@V?$_Tmap_traits@PAXPAXU?$less@PAX@std@@V?$allocator@U?$pair@QAXPAX@std@@@2@$0A@@std@@@std@@QBEIXZ 00452000 f i libohNetCore:Stack.obj
 0001:00051030       ?max_size@?$_Tree@V?$_Tmap_traits@VBrn@OpenHome@@PAVObjectType@Stack@Net@2@VBufferCmp@2@V?$allocator@U?$pair@$$CBVBrn@OpenHome@@PAVObjectType@Stack@Net@2@@std@@@std@@$0A@@std@@@std@@QBEIXZ 00452030 f i libohNetCore:Stack.obj
 0001:00051060       ??F?$_Tree_const_iterator@V?$_Tree_val@V?$_Tmap_traits@VBrn@OpenHome@@PAVObjectType@Stack@Net@2@VBufferCmp@2@V?$allocator@U?$pair@$$CBVBrn@OpenHome@@PAVObjectType@Stack@Net@2@@std@@@std@@$0A@@std@@@std@@@std@@QAEAAV01@XZ 00452060 f i libohNetCore:Stack.obj
 0001:00051180       ??0?$_Pair_base@V?$_Tree_iterator@V?$_Tree_val@V?$_Tmap_traits@VBrn@OpenHome@@PAVObjectType@Stack@Net@2@VBufferCmp@2@V?$allocator@U?$pair@$$CBVBrn@OpenHome@@PAVObjectType@Stack@Net@2@@std@@@std@@$0A@@std@@@std@@@std@@_N@std@@QAE@$$QAV?$_Tree_iterator@V?$_Tree_val@V?$_Tmap_traits@VBrn@OpenHome@@PAVObjectType@Stack@Net@2@VBufferCmp@2@V?$allocator@U?$pair@$$CBVBrn@OpenHome@@PAVObjectType@Stack@Net@2@@std@@@std@@$0A@@std@@@std@@@1@$$QA_N@Z 00452180 f i libohNetCore:Stack.obj
 0001:00051200       ??0?$_Pair_base@V?$_Tree_iterator@V?$_Tree_val@V?$_Tmap_traits@PAXPAXU?$less@PAX@std@@V?$allocator@U?$pair@QAXPAX@std@@@2@$0A@@std@@@std@@@std@@_N@std@@QAE@$$QAV?$_Tree_iterator@V?$_Tree_val@V?$_Tmap_traits@PAXPAXU?$less@PAX@std@@V?$allocator@U?$pair@QAXPAX@std@@@2@$0A@@std@@@std@@@1@$$QA_N@Z 00452200 f i libohNetCore:Stack.obj
 0001:00051280       ??F?$_Tree_const_iterator@V?$_Tree_val@V?$_Tmap_traits@PAXPAXU?$less@PAX@std@@V?$allocator@U?$pair@QAXPAX@std@@@2@$0A@@std@@@std@@@std@@QAEAAV01@XZ 00452280 f i libohNetCore:Stack.obj
 0001:000513a0       ?max_size@?$allocator@U?$pair@QAXPAX@std@@@std@@QBEIXZ 004523a0 f i libohNetCore:Stack.obj
 0001:000513f0       ?max_size@?$allocator@U?$pair@$$CBVBrn@OpenHome@@PAVObjectType@Stack@Net@2@@std@@@std@@QBEIXZ 004523f0 f i libohNetCore:Stack.obj
 0001:00051440       ??F?$_Tree_unchecked_const_iterator@V?$_Tree_val@V?$_Tmap_traits@VBrn@OpenHome@@PAVObjectType@Stack@Net@2@VBufferCmp@2@V?$allocator@U?$pair@$$CBVBrn@OpenHome@@PAVObjectType@Stack@Net@2@@std@@@std@@$0A@@std@@@std@@U_Iterator_base12@2@@std@@QAEAAV01@XZ 00452440 f i libohNetCore:Stack.obj
 0001:00051530       ??F?$_Tree_unchecked_const_iterator@V?$_Tree_val@V?$_Tmap_traits@PAXPAXU?$less@PAX@std@@V?$allocator@U?$pair@QAXPAX@std@@@2@$0A@@std@@@std@@U_Iterator_base12@2@@std@@QAEAAV01@XZ 00452530 f i libohNetCore:Stack.obj
 0001:00051620       ??$forward@AAPAVObjectType@Stack@Net@OpenHome@@@std@@YGAAPAVObjectType@Stack@Net@OpenHome@@AAPAV1234@@Z 00452620 f i libohNetCore:Stack.obj
 0001:00051630       ??$?0AAVBrn@OpenHome@@AAPAVObjectType@Stack@Net@1@@?$_Pair_base@VBrn@OpenHome@@PAVObjectType@Stack@Net@2@@std@@QAE@AAVBrn@OpenHome@@AAPAVObjectType@Stack@Net@3@@Z 00452630 f i libohNetCore:Stack.obj
 0001:000516b0       ??$forward@U?$pair@VBrn@OpenHome@@PAVObjectType@Stack@Net@2@@std@@@std@@YG$$QAU?$pair@VBrn@OpenHome@@PAVObjectType@Stack@Net@2@@0@AAU10@@Z 004526b0 f i libohNetCore:Stack.obj
 0001:000516c0       ??$_Buynode@U?$pair@VBrn@OpenHome@@PAVObjectType@Stack@Net@2@@std@@@?$_Tree_val@V?$_Tmap_traits@VBrn@OpenHome@@PAVObjectType@Stack@Net@2@VBufferCmp@2@V?$allocator@U?$pair@$$CBVBrn@OpenHome@@PAVObjectType@Stack@Net@2@@std@@@std@@$0A@@std@@@std@@QAEPAU_Node@?$_Tree_nod@V?$_Tmap_traits@VBrn@OpenHome@@PAVObjectType@Stack@Net@2@VBufferCmp@2@V?$allocator@U?$pair@$$CBVBrn@OpenHome@@PAVObjectType@Stack@Net@2@@std@@@std@@$0A@@std@@@1@$$QAU?$pair@VBrn@OpenHome@@PAVObjectType@Stack@Net@2@@1@@Z 004526c0 f i libohNetCore:Stack.obj
 0001:000517a0       ??$forward@AAPAX@std@@YGAAPAXAAPAX@Z 004527a0 f i libohNetCore:Stack.obj
 0001:000517b0       ??$?0AAPAXAAPAX@?$_Pair_base@PAXPAX@std@@QAE@AAPAX0@Z 004527b0 f i libohNetCore:Stack.obj
 0001:00051800       ??$forward@U?$pair@PAXPAX@std@@@std@@YG$$QAU?$pair@PAXPAX@0@AAU10@@Z 00452800 f i libohNetCore:Stack.obj
 0001:00051810       ??$_Buynode@U?$pair@PAXPAX@std@@@?$_Tree_val@V?$_Tmap_traits@PAXPAXU?$less@PAX@std@@V?$allocator@U?$pair@QAXPAX@std@@@2@$0A@@std@@@std@@QAEPAU_Node@?$_Tree_nod@V?$_Tmap_traits@PAXPAXU?$less@PAX@std@@V?$allocator@U?$pair@QAXPAX@std@@@2@$0A@@std@@@1@$$QAU?$pair@PAXPAX@1@@Z 00452810 f i libohNetCore:Stack.obj
 0001:000518f0       ??$forward@AAPAVMListener@Stack@Net@OpenHome@@@std@@YGAAPAVMListener@Stack@Net@OpenHome@@AAPAV1234@@Z 004528f0 f i libohNetCore:Stack.obj
 0001:00051900       ??$construct@AAPAVMListener@Stack@Net@OpenHome@@@?$allocator@PAVMListener@Stack@Net@OpenHome@@@std@@QAEXPAPAVMListener@Stack@Net@OpenHome@@AAPAV2345@@Z 00452900 f i libohNetCore:Stack.obj
 0001:000519a0       ??$forward@ABQAVMListener@Stack@Net@OpenHome@@@std@@YGABQAVMListener@Stack@Net@OpenHome@@ABQAV1234@@Z 004529a0 f i libohNetCore:Stack.obj
 0001:000519b0       ??$_Ptr_cat@PAVMListener@Stack@Net@OpenHome@@PAV1234@@std@@YG?AU_Scalar_ptr_iterator_tag@0@PAPAVMListener@Stack@Net@OpenHome@@0@Z 004529b0 f i libohNetCore:Stack.obj
 0001:00051a10       ??$_Move@PAPAVMListener@Stack@Net@OpenHome@@PAPAV1234@@std@@YGPAPAVMListener@Stack@Net@OpenHome@@PAPAV1234@00U_Scalar_ptr_iterator_tag@0@@Z 00452a10 f i libohNetCore:Stack.obj
 0001:00051a60       ??$_Destroy_range@V?$allocator@PAVMListener@Stack@Net@OpenHome@@@std@@@std@@YGXPAPAVMListener@Stack@Net@OpenHome@@0AAV?$allocator@PAVMListener@Stack@Net@OpenHome@@@0@U_Scalar_ptr_iterator_tag@0@@Z 00452a60 f i libohNetCore:Stack.obj
 0001:00051a70       ??$_Uninitialized_move@PAPAVMListener@Stack@Net@OpenHome@@PAPAV1234@V?$allocator@PAVMListener@Stack@Net@OpenHome@@@std@@@std@@YGPAPAVMListener@Stack@Net@OpenHome@@PAPAV1234@00AAV?$allocator@PAVMListener@Stack@Net@OpenHome@@@0@@Z 00452a70 f i libohNetCore:Stack.obj
 0001:00051ac0       ??$?0AAV?$_Tree_iterator@V?$_Tree_val@V?$_Tmap_traits@PAXPAXU?$less@PAX@std@@V?$allocator@U?$pair@QAXPAX@std@@@2@$0A@@std@@@std@@@std@@_N@?$pair@V?$_Tree_iterator@V?$_Tree_val@V?$_Tmap_traits@PAXPAXU?$less@PAX@std@@V?$allocator@U?$pair@QAXPAX@std@@@2@$0A@@std@@@std@@@std@@_N@std@@QAE@AAV?$_Tree_iterator@V?$_Tree_val@V?$_Tmap_traits@PAXPAXU?$less@PAX@std@@V?$allocator@U?$pair@QAXPAX@std@@@2@$0A@@std@@@std@@@1@$$QA_N@Z 00452ac0 f i libohNetCore:Stack.obj
 0001:00051b00       ??$_Destroy@U?$pair@QAXPAX@std@@@std@@YGXPAU?$pair@QAXPAX@0@@Z 00452b00 f i libohNetCore:Stack.obj
 0001:00051b10       ??$_Construct@PAVMListener@Stack@Net@OpenHome@@ABQAV1234@@std@@YGXPAPAVMListener@Stack@Net@OpenHome@@ABQAV1234@@Z 00452b10 f i libohNetCore:Stack.obj
 0001:00051bc0       ??$?0AAV?$_Tree_iterator@V?$_Tree_val@V?$_Tmap_traits@VBrn@OpenHome@@PAVObjectType@Stack@Net@2@VBufferCmp@2@V?$allocator@U?$pair@$$CBVBrn@OpenHome@@PAVObjectType@Stack@Net@2@@std@@@std@@$0A@@std@@@std@@@std@@_N@?$pair@V?$_Tree_iterator@V?$_Tree_val@V?$_Tmap_traits@VBrn@OpenHome@@PAVObjectType@Stack@Net@2@VBufferCmp@2@V?$allocator@U?$pair@$$CBVBrn@OpenHome@@PAVObjectType@Stack@Net@2@@std@@@std@@$0A@@std@@@std@@@std@@_N@std@@QAE@AAV?$_Tree_iterator@V?$_Tree_val@V?$_Tmap_traits@VBrn@OpenHome@@PAVObjectType@Stack@Net@2@VBufferCmp@2@V?$allocator@U?$pair@$$CBVBrn@OpenHome@@PAVObjectType@Stack@Net@2@@std@@@std@@$0A@@std@@@std@@@1@$$QA_N@Z 00452bc0 f i libohNetCore:Stack.obj
 0001:00051c00       ??$_Destroy@U?$pair@$$CBVBrn@OpenHome@@PAVObjectType@Stack@Net@2@@std@@@std@@YGXPAU?$pair@$$CBVBrn@OpenHome@@PAVObjectType@Stack@Net@2@@0@@Z 00452c00 f i libohNetCore:Stack.obj
 0001:00051c20       ??$move@AAV?$_Tree_iterator@V?$_Tree_val@V?$_Tmap_traits@VBrn@OpenHome@@PAVObjectType@Stack@Net@2@VBufferCmp@2@V?$allocator@U?$pair@$$CBVBrn@OpenHome@@PAVObjectType@Stack@Net@2@@std@@@std@@$0A@@std@@@std@@@std@@@std@@YG$$QAV?$_Tree_iterator@V?$_Tree_val@V?$_Tmap_traits@VBrn@OpenHome@@PAVObjectType@Stack@Net@2@VBufferCmp@2@V?$allocator@U?$pair@$$CBVBrn@OpenHome@@PAVObjectType@Stack@Net@2@@std@@@std@@$0A@@std@@@std@@@0@AAV10@@Z 00452c20 f i libohNetCore:Stack.obj
 0001:00051c30       ??$move@AAV?$_Tree_iterator@V?$_Tree_val@V?$_Tmap_traits@PAXPAXU?$less@PAX@std@@V?$allocator@U?$pair@QAXPAX@std@@@2@$0A@@std@@@std@@@std@@@std@@YG$$QAV?$_Tree_iterator@V?$_Tree_val@V?$_Tmap_traits@PAXPAXU?$less@PAX@std@@V?$allocator@U?$pair@QAXPAX@std@@@2@$0A@@std@@@std@@@0@AAV10@@Z 00452c30 f i libohNetCore:Stack.obj
 0001:00051c40       ??_G?$pair@$$CBVBrn@OpenHome@@PAVObjectType@Stack@Net@2@@std@@QAEPAXI@Z 00452c40 f i libohNetCore:Stack.obj
 0001:00051c80       ??1?$pair@$$CBVBrn@OpenHome@@PAVObjectType@Stack@Net@2@@std@@QAE@XZ 00452c80 f i libohNetCore:Stack.obj
 0001:00051cb0       ??1?$_Pair_base@$$CBVBrn@OpenHome@@PAVObjectType@Stack@Net@2@@std@@QAE@XZ 00452cb0 f i libohNetCore:Stack.obj
 0001:00051ce0       ?_Buynode@?$_Tree_val@V?$_Tmap_traits@PAXPAXU?$less@PAX@std@@V?$allocator@U?$pair@QAXPAX@std@@@2@$0A@@std@@@std@@QAEPAU_Node@?$_Tree_nod@V?$_Tmap_traits@PAXPAXU?$less@PAX@std@@V?$allocator@U?$pair@QAXPAX@std@@@2@$0A@@std@@@2@XZ 00452ce0 f i libohNetCore:Stack.obj
 0001:00051d70       ?_Buynode@?$_Tree_val@V?$_Tmap_traits@VBrn@OpenHome@@PAVObjectType@Stack@Net@2@VBufferCmp@2@V?$allocator@U?$pair@$$CBVBrn@OpenHome@@PAVObjectType@Stack@Net@2@@std@@@std@@$0A@@std@@@std@@QAEPAU_Node@?$_Tree_nod@V?$_Tmap_traits@VBrn@OpenHome@@PAVObjectType@Stack@Net@2@VBufferCmp@2@V?$allocator@U?$pair@$$CBVBrn@OpenHome@@PAVObjectType@Stack@Net@2@@std@@@std@@$0A@@std@@@2@XZ 00452d70 f i libohNetCore:Stack.obj
 0001:00051e00       ??$_Cons_val@V?$allocator@U?$pair@$$CBVBrn@OpenHome@@PAVObjectType@Stack@Net@2@@std@@@std@@U?$pair@$$CBVBrn@OpenHome@@PAVObjectType@Stack@Net@2@@2@U?$pair@VBrn@OpenHome@@PAVObjectType@Stack@Net@2@@2@@std@@YGXAAV?$allocator@U?$pair@$$CBVBrn@OpenHome@@PAVObjectType@Stack@Net@2@@std@@@0@PAU?$pair@$$CBVBrn@OpenHome@@PAVObjectType@Stack@Net@2@@0@$$QAU?$pair@VBrn@OpenHome@@PAVObjectType@Stack@Net@2@@0@@Z 00452e00 f i libohNetCore:Stack.obj
 0001:00051e30       ??$_Cons_val@V?$allocator@U?$pair@QAXPAX@std@@@std@@U?$pair@QAXPAX@2@U?$pair@PAXPAX@2@@std@@YGXAAV?$allocator@U?$pair@QAXPAX@std@@@0@PAU?$pair@QAXPAX@0@$$QAU?$pair@PAXPAX@0@@Z 00452e30 f i libohNetCore:Stack.obj
 0001:00051e60       ??$_Val_type@PAPAVMListener@Stack@Net@OpenHome@@@std@@YGPAPAVMListener@Stack@Net@OpenHome@@PAPAV1234@@Z 00452e60 f i libohNetCore:Stack.obj
 0001:00051e70       ??$_Uninit_move@PAVMListener@Stack@Net@OpenHome@@PAV1234@PAV1234@@std@@YGPAPAVMListener@Stack@Net@OpenHome@@PAPAV1234@00AAV?$allocator@PAVMListener@Stack@Net@OpenHome@@@0@0U_Scalar_ptr_iterator_tag@0@@Z 00452e70 f i libohNetCore:Stack.obj
 0001:00051ee0       ??$forward@AAV?$_Tree_iterator@V?$_Tree_val@V?$_Tmap_traits@PAXPAXU?$less@PAX@std@@V?$allocator@U?$pair@QAXPAX@std@@@2@$0A@@std@@@std@@@std@@@std@@YGAAV?$_Tree_iterator@V?$_Tree_val@V?$_Tmap_traits@PAXPAXU?$less@PAX@std@@V?$allocator@U?$pair@QAXPAX@std@@@2@$0A@@std@@@std@@@0@AAV10@@Z 00452ee0 f i libohNetCore:Stack.obj
 0001:00051ef0       ??$?0AAV?$_Tree_iterator@V?$_Tree_val@V?$_Tmap_traits@PAXPAXU?$less@PAX@std@@V?$allocator@U?$pair@QAXPAX@std@@@2@$0A@@std@@@std@@@std@@_N@?$_Pair_base@V?$_Tree_iterator@V?$_Tree_val@V?$_Tmap_traits@PAXPAXU?$less@PAX@std@@V?$allocator@U?$pair@QAXPAX@std@@@2@$0A@@std@@@std@@@std@@_N@std@@QAE@AAV?$_Tree_iterator@V?$_Tree_val@V?$_Tmap_traits@PAXPAXU?$less@PAX@std@@V?$allocator@U?$pair@QAXPAX@std@@@2@$0A@@std@@@std@@@1@$$QA_N@Z 00452ef0 f i libohNetCore:Stack.obj
 0001:00051f70       ??$forward@AAV?$_Tree_iterator@V?$_Tree_val@V?$_Tmap_traits@VBrn@OpenHome@@PAVObjectType@Stack@Net@2@VBufferCmp@2@V?$allocator@U?$pair@$$CBVBrn@OpenHome@@PAVObjectType@Stack@Net@2@@std@@@std@@$0A@@std@@@std@@@std@@@std@@YGAAV?$_Tree_iterator@V?$_Tree_val@V?$_Tmap_traits@VBrn@OpenHome@@PAVObjectType@Stack@Net@2@VBufferCmp@2@V?$allocator@U?$pair@$$CBVBrn@OpenHome@@PAVObjectType@Stack@Net@2@@std@@@std@@$0A@@std@@@std@@@0@AAV10@@Z 00452f70 f i libohNetCore:Stack.obj
 0001:00051f80       ??$?0AAV?$_Tree_iterator@V?$_Tree_val@V?$_Tmap_traits@VBrn@OpenHome@@PAVObjectType@Stack@Net@2@VBufferCmp@2@V?$allocator@U?$pair@$$CBVBrn@OpenHome@@PAVObjectType@Stack@Net@2@@std@@@std@@$0A@@std@@@std@@@std@@_N@?$_Pair_base@V?$_Tree_iterator@V?$_Tree_val@V?$_Tmap_traits@VBrn@OpenHome@@PAVObjectType@Stack@Net@2@VBufferCmp@2@V?$allocator@U?$pair@$$CBVBrn@OpenHome@@PAVObjectType@Stack@Net@2@@std@@@std@@$0A@@std@@@std@@@std@@_N@std@@QAE@AAV?$_Tree_iterator@V?$_Tree_val@V?$_Tmap_traits@VBrn@OpenHome@@PAVObjectType@Stack@Net@2@VBufferCmp@2@V?$allocator@U?$pair@$$CBVBrn@OpenHome@@PAVObjectType@Stack@Net@2@@std@@@std@@$0A@@std@@@std@@@1@$$QA_N@Z 00452f80 f i libohNetCore:Stack.obj
 0001:00052000       ??$construct@U?$pair@VBrn@OpenHome@@PAVObjectType@Stack@Net@2@@std@@@?$allocator@U?$pair@$$CBVBrn@OpenHome@@PAVObjectType@Stack@Net@2@@std@@@std@@QAEXPAU?$pair@$$CBVBrn@OpenHome@@PAVObjectType@Stack@Net@2@@1@$$QAU?$pair@VBrn@OpenHome@@PAVObjectType@Stack@Net@2@@1@@Z 00453000 f i libohNetCore:Stack.obj
 0001:000520a0       ??$construct@U?$pair@PAXPAX@std@@@?$allocator@U?$pair@QAXPAX@std@@@std@@QAEXPAU?$pair@QAXPAX@1@$$QAU?$pair@PAXPAX@1@@Z 004530a0 f i libohNetCore:Stack.obj
 0001:00052140       ??$_Debug_range@PAPAVMListener@Stack@Net@OpenHome@@@std@@YGXPAPAVMListener@Stack@Net@OpenHome@@0PB_WI@Z 00453140 f i libohNetCore:Stack.obj
 0001:00052190       ??$_Debug_pointer@PAVMListener@Stack@Net@OpenHome@@@std@@YGXPAPAVMListener@Stack@Net@OpenHome@@PB_WI@Z 00453190 f i libohNetCore:Stack.obj
 0001:000521c0       ??$?0VBrn@OpenHome@@PAVObjectType@Stack@Net@1@@?$pair@$$CBVBrn@OpenHome@@PAVObjectType@Stack@Net@2@@std@@QAE@$$QAU?$pair@VBrn@OpenHome@@PAVObjectType@Stack@Net@2@@1@@Z 004531c0 f i libohNetCore:Stack.obj
 0001:00052200       ??$?0PAXPAX@?$pair@QAXPAX@std@@QAE@$$QAU?$pair@PAXPAX@1@@Z 00453200 f i libohNetCore:Stack.obj
 0001:00052240       ??$_Iter_cat@PAPAVMListener@Stack@Net@OpenHome@@@std@@YG?AUrandom_access_iterator_tag@0@ABQAPAVMListener@Stack@Net@OpenHome@@@Z 00453240 f i libohNetCore:Stack.obj
 0001:000522a0       ??$_Debug_range2@PAPAVMListener@Stack@Net@OpenHome@@@std@@YGXPAPAVMListener@Stack@Net@OpenHome@@0PB_WIUrandom_access_iterator_tag@0@@Z 004532a0 f i libohNetCore:Stack.obj
 0001:00052300       ??$forward@PAVObjectType@Stack@Net@OpenHome@@@std@@YG$$QAPAVObjectType@Stack@Net@OpenHome@@AAPAV1234@@Z 00453300 f i libohNetCore:Stack.obj
 0001:00052310       ??$?0VBrn@OpenHome@@PAVObjectType@Stack@Net@1@@?$_Pair_base@$$CBVBrn@OpenHome@@PAVObjectType@Stack@Net@2@@std@@QAE@$$QAVBrn@OpenHome@@$$QAPAVObjectType@Stack@Net@3@@Z 00453310 f i libohNetCore:Stack.obj
 0001:00052390       ??$forward@PAX@std@@YG$$QAPAXAAPAX@Z 00453390 f i libohNetCore:Stack.obj
 0001:000523a0       ??$?0PAXPAX@?$_Pair_base@QAXPAX@std@@QAE@$$QAPAX0@Z 004533a0 f i libohNetCore:Stack.obj
 0001:00052400       ??0Endpoint@OpenHome@@QAE@XZ 00453400 f   libohNetCore:Network.obj
 0001:00052430       ??0Endpoint@OpenHome@@QAE@IABVBrx@1@@Z 00453430 f   libohNetCore:Network.obj
 0001:00052470       ??0Endpoint@OpenHome@@QAE@II@Z 00453470 f   libohNetCore:Network.obj
 0001:000524a0       ?SetPort@Endpoint@OpenHome@@QAEXI@Z 004534a0 f   libohNetCore:Network.obj
 0001:000524c0       ?SetPort@Endpoint@OpenHome@@QAEXABV12@@Z 004534c0 f   libohNetCore:Network.obj
 0001:000524f0       ?SetAddress@Endpoint@OpenHome@@QAEXABVBrx@2@@Z 004534f0 f   libohNetCore:Network.obj
 0001:00052540       ?SetAddress@Endpoint@OpenHome@@QAEXI@Z 00453540 f   libohNetCore:Network.obj
 0001:00052560       ?SetAddress@Endpoint@OpenHome@@QAEXABV12@@Z 00453560 f   libohNetCore:Network.obj
 0001:00052580       ?Address@Endpoint@OpenHome@@QBEIXZ 00453580 f   libohNetCore:Network.obj
 0001:000525a0       ?Port@Endpoint@OpenHome@@QBEGXZ 004535a0 f   libohNetCore:Network.obj
 0001:000525c0       ?AppendAddress@Endpoint@OpenHome@@QBEXAAVBwx@2@@Z 004535c0 f   libohNetCore:Network.obj
 0001:00052690       ?AppendEndpoint@Endpoint@OpenHome@@QBEXAAVBwx@2@@Z 00453690 f   libohNetCore:Network.obj
 0001:00052710       ?GetAddressOctets@Endpoint@OpenHome@@QBEXAAY03E@Z 00453710 f   libohNetCore:Network.obj
 0001:00052770       ?Replace@Endpoint@OpenHome@@QAEXABV12@@Z 00453770 f   libohNetCore:Network.obj
 0001:000527b0       ?Equals@Endpoint@OpenHome@@QBE_NABV12@@Z 004537b0 f   libohNetCore:Network.obj
 0001:00052800       ??0Socket@OpenHome@@IAE@XZ 00453800 f   libohNetCore:Network.obj
 0001:00052840       ?Interrupt@Socket@OpenHome@@QAEX_N@Z 00453840 f   libohNetCore:Network.obj
 0001:00052910       ?Close@Socket@OpenHome@@QAEXXZ 00453910 f   libohNetCore:Network.obj
 0001:000529d0       ?SetSendBufBytes@Socket@OpenHome@@QAEXI@Z 004539d0 f   libohNetCore:Network.obj
 0001:00052a00       ?SetRecvBufBytes@Socket@OpenHome@@QAEXI@Z 00453a00 f   libohNetCore:Network.obj
 0001:00052a30       ?SetRecvTimeout@Socket@OpenHome@@QAEXI@Z 00453a30 f   libohNetCore:Network.obj
 0001:00052a60       ?LogVerbose@Socket@OpenHome@@QAEX_N0@Z 00453a60 f   libohNetCore:Network.obj
 0001:00052ad0       ?Send@Socket@OpenHome@@IAEXABVBrx@2@@Z 00453ad0 f   libohNetCore:Network.obj
 0001:00052cd0       ?SendTo@Socket@OpenHome@@IAEXABVBrx@2@ABVEndpoint@2@@Z 00453cd0 f   libohNetCore:Network.obj
 0001:00052ee0       ?Receive@Socket@OpenHome@@IAEXAAVBwx@2@@Z 00453ee0 f   libohNetCore:Network.obj
 0001:00053090       ?Receive@Socket@OpenHome@@IAEXAAVBwx@2@I@Z 00454090 f   libohNetCore:Network.obj
 0001:00053330       ?ReceiveFrom@Socket@OpenHome@@IAEXAAVBwx@2@AAVEndpoint@2@@Z 00454330 f   libohNetCore:Network.obj
 0001:000534d0       ?Bind@Socket@OpenHome@@IAEXABVEndpoint@2@@Z 004544d0 f   libohNetCore:Network.obj
 0001:00053610       ?GetPort@Socket@OpenHome@@IAEXAAI@Z 00454610 f   libohNetCore:Network.obj
 0001:00053750       ?Listen@Socket@OpenHome@@IAEXI@Z 00454750 f   libohNetCore:Network.obj
 0001:00053890       ?Accept@Socket@OpenHome@@IAEPAXXZ 00454890 f   libohNetCore:Network.obj
 0001:00053a00       ?Log@Socket@OpenHome@@AAEXPBDABVBrx@2@@Z 00454a00 f   libohNetCore:Network.obj
 0001:00053ca0       ??0AutoSocket@OpenHome@@QAE@AAVSocket@1@@Z 00454ca0 f   libohNetCore:Network.obj
 0001:00053ce0       ??1AutoSocket@OpenHome@@QAE@XZ 00454ce0 f   libohNetCore:Network.obj
 0001:00053d10       ??0SocketTcp@OpenHome@@IAE@XZ 00454d10 f   libohNetCore:Network.obj
 0001:00053de0       ?Receive@SocketTcp@OpenHome@@QAEXAAVBwx@2@I@Z 00454de0 f   libohNetCore:Network.obj
 0001:00053e50       ?Write@SocketTcp@OpenHome@@UAEXE@Z 00454e50 f   libohNetCore:Network.obj
 0001:00053f20       ?Write@SocketTcp@OpenHome@@UAEXABVBrx@2@@Z 00454f20 f   libohNetCore:Network.obj
 0001:00054040       ?WriteFlush@SocketTcp@OpenHome@@UAEXXZ 00455040 f   libohNetCore:Network.obj
 0001:00054060       ?Read@SocketTcp@OpenHome@@UAEXAAVBwx@2@@Z 00455060 f   libohNetCore:Network.obj
 0001:00054200       ?ReadFlush@SocketTcp@OpenHome@@UAEXXZ 00455200 f   libohNetCore:Network.obj
 0001:00054220       ?ReadInterrupt@SocketTcp@OpenHome@@UAEXXZ 00455220 f   libohNetCore:Network.obj
 0001:00054250       ?Open@SocketTcpClient@OpenHome@@QAEXXZ 00455250 f   libohNetCore:Network.obj
 0001:00054350       ?Connect@SocketTcpClient@OpenHome@@QAEXABVEndpoint@2@I@Z 00455350 f   libohNetCore:Network.obj
 0001:000543c0       ??0SocketTcpServer@OpenHome@@QAE@PBDIIIII@Z 004553c0 f   libohNetCore:Network.obj
 0001:00054510       ?Add@SocketTcpServer@OpenHome@@QAEXPBDPAVSocketTcpSession@2@H@Z 00455510 f   libohNetCore:Network.obj
 0001:00054640       ?Accept@SocketTcpServer@OpenHome@@AAEPAXXZ 00455640 f   libohNetCore:Network.obj
 0001:000547e0       ?Terminating@SocketTcpServer@OpenHome@@AAE_NXZ 004557e0 f   libohNetCore:Network.obj
 0001:00054840       ??1SocketTcpServer@OpenHome@@UAE@XZ 00455840 f   libohNetCore:Network.obj
 0001:000549d0       ??0SocketTcpSession@OpenHome@@IAE@XZ 004559d0 f   libohNetCore:Network.obj
 0001:00054a70       ?Add@SocketTcpSession@OpenHome@@AAEXAAVSocketTcpServer@2@PBDII@Z 00455a70 f   libohNetCore:Network.obj
 0001:00054b80       ?Start@SocketTcpSession@OpenHome@@AAEXXZ 00455b80 f   libohNetCore:Network.obj
 0001:00054dc0       ?Open@SocketTcpSession@OpenHome@@AAEXPAX@Z 00455dc0 f   libohNetCore:Network.obj
 0001:00054f10       ?Close@SocketTcpSession@OpenHome@@AAEXXZ 00455f10 f   libohNetCore:Network.obj
 0001:00055020       ??1SocketTcpSession@OpenHome@@MAE@XZ 00456020 f   libohNetCore:Network.obj
 0001:00055180       ??0SocketUdp@OpenHome@@QAE@XZ 00456180 f   libohNetCore:Network.obj
 0001:000552b0       ??0SocketUdp@OpenHome@@QAE@I@Z 004562b0 f   libohNetCore:Network.obj
 0001:000553e0       ??0SocketUdp@OpenHome@@QAE@II@Z 004563e0 f   libohNetCore:Network.obj
 0001:00055520       ?SetTtl@SocketUdp@OpenHome@@QAEXI@Z 00456520 f   libohNetCore:Network.obj
 0001:000555c0       ??1SocketUdp@OpenHome@@UAE@XZ 004565c0 f   libohNetCore:Network.obj
 0001:00055630       ?Port@SocketUdp@OpenHome@@QBEIXZ 00456630 f   libohNetCore:Network.obj
 0001:00055650       ?Send@SocketUdp@OpenHome@@QAEXABVBrx@2@ABVEndpoint@2@@Z 00456650 f   libohNetCore:Network.obj
 0001:000556b0       ?Receive@SocketUdp@OpenHome@@QAE?AVEndpoint@2@AAVBwx@2@@Z 004566b0 f   libohNetCore:Network.obj
 0001:000557a0       ??0SocketUdpMulticast@OpenHome@@QAE@IABVEndpoint@1@@Z 004567a0 f   libohNetCore:Network.obj
 0001:000558e0       ??1SocketUdpMulticast@OpenHome@@UAE@XZ 004568e0 f   libohNetCore:Network.obj
 0001:000559d0       ??0UdpReader@OpenHome@@QAE@AAVSocketUdp@1@@Z 004569d0 f   libohNetCore:Network.obj
 0001:00055a60       ?Sender@UdpReader@OpenHome@@QBE?AVEndpoint@2@XZ 00456a60 f   libohNetCore:Network.obj
 0001:00055a90       ?Read@UdpReader@OpenHome@@UAEXAAVBwx@2@@Z 00456a90 f   libohNetCore:Network.obj
 0001:00055bf0       ?ReadFlush@UdpReader@OpenHome@@UAEXXZ 00456bf0 f   libohNetCore:Network.obj
 0001:00055c10       ?ReadInterrupt@UdpReader@OpenHome@@UAEXXZ 00456c10 f   libohNetCore:Network.obj
 0001:00055c40       ??0UdpWriter@OpenHome@@QAE@AAVSocketUdp@1@ABVEndpoint@1@@Z 00456c40 f   libohNetCore:Network.obj
 0001:00055ce0       ?Write@UdpWriter@OpenHome@@UAEXE@Z 00456ce0 f   libohNetCore:Network.obj
 0001:00055d10       ?Write@UdpWriter@OpenHome@@UAEXABVBrx@2@@Z 00456d10 f   libohNetCore:Network.obj
 0001:00055e60       ?WriteFlush@UdpWriter@OpenHome@@UAEXXZ 00456e60 f   libohNetCore:Network.obj
 0001:00055e80       ??_ESocket@OpenHome@@MAEPAXI@Z 00456e80 f i libohNetCore:Network.obj
 0001:00055e80       ??_GSocket@OpenHome@@MAEPAXI@Z 00456e80 f i libohNetCore:Network.obj
 0001:00055ec0       ??1Socket@OpenHome@@MAE@XZ 00456ec0 f i libohNetCore:Network.obj
 0001:00055ee0       ?NetworkInterrupt@Os@OpenHome@@SGHPAX_N@Z 00456ee0 f i libohNetCore:Network.obj
 0001:00055f10       ?NetworkClose@Os@OpenHome@@SGHPAX@Z 00456f10 f i libohNetCore:Network.obj
 0001:00055f30       ??0NetworkError@OpenHome@@QAE@PBDI@Z 00456f30 f i libohNetCore:Network.obj
 0001:00055f70       ?NetworkSend@Os@OpenHome@@SGHPAXABVBrx@2@@Z 00456f70 f i libohNetCore:Network.obj
 0001:00055fb0       ??1NetworkError@OpenHome@@QAE@XZ 00456fb0 f i libohNetCore:Network.obj
 0001:00055fe0       ?NetworkSendTo@Os@OpenHome@@SGHPAXABVBrx@2@ABVEndpoint@2@@Z 00456fe0 f i libohNetCore:Network.obj
 0001:00056030       ?NetworkReceive@Os@OpenHome@@SGHPAXAAVBwx@2@@Z 00457030 f i libohNetCore:Network.obj
 0001:00056070       ?NetworkListen@Os@OpenHome@@SGHPAXI@Z 00457070 f i libohNetCore:Network.obj
 0001:00056090       ?NetworkAccept@Os@OpenHome@@SGPAXPAX@Z 00457090 f i libohNetCore:Network.obj
 0001:000560b0       ??1IReaderSource@OpenHome@@UAE@XZ 004570b0 f i libohNetCore:Network.obj
 0001:000560d0       ??_GIReaderSource@OpenHome@@UAEPAXI@Z 004570d0 f i libohNetCore:Network.obj
 0001:000560d0       ??_EIReaderSource@OpenHome@@UAEPAXI@Z 004570d0 f i libohNetCore:Network.obj
 0001:00056110       ??_GSocketTcp@OpenHome@@UAEPAXI@Z 00457110 f i libohNetCore:Network.obj
 0001:00056110       ??_ESocketTcp@OpenHome@@UAEPAXI@Z 00457110 f i libohNetCore:Network.obj
 0001:00056150       ??0IReaderSource@OpenHome@@QAE@XZ 00457150 f i libohNetCore:Network.obj
 0001:00056170       ??1SocketTcp@OpenHome@@UAE@XZ 00457170 f i libohNetCore:Network.obj
 0001:000561f0       ??0WriterError@OpenHome@@QAE@PBDI@Z 004571f0 f i libohNetCore:Network.obj
 0001:00056230       ??1WriterError@OpenHome@@QAE@XZ 00457230 f i libohNetCore:Network.obj
 0001:00056260       ??_GSocketTcpServer@OpenHome@@UAEPAXI@Z 00457260 f i libohNetCore:Network.obj
 0001:00056260       ??_ESocketTcpServer@OpenHome@@UAEPAXI@Z 00457260 f i libohNetCore:Network.obj
 0001:000562a0       ??_ESocketTcpSession@OpenHome@@MAEPAXI@Z 004572a0 f i libohNetCore:Network.obj
 0001:000562a0       ??_GSocketTcpSession@OpenHome@@MAEPAXI@Z 004572a0 f i libohNetCore:Network.obj
 0001:000562e0       ??_GSocketUdp@OpenHome@@UAEPAXI@Z 004572e0 f i libohNetCore:Network.obj
 0001:000562e0       ??_ESocketUdp@OpenHome@@UAEPAXI@Z 004572e0 f i libohNetCore:Network.obj
 0001:00056320       ??_ESocketUdpMulticast@OpenHome@@UAEPAXI@Z 00457320 f i libohNetCore:Network.obj
 0001:00056320       ??_GSocketUdpMulticast@OpenHome@@UAEPAXI@Z 00457320 f i libohNetCore:Network.obj
 0001:00056360       ??_GUdpReader@OpenHome@@UAEPAXI@Z 00457360 f i libohNetCore:Network.obj
 0001:00056360       ??_EUdpReader@OpenHome@@UAEPAXI@Z 00457360 f i libohNetCore:Network.obj
 0001:000563a0       ??1UdpReader@OpenHome@@UAE@XZ 004573a0 f i libohNetCore:Network.obj
 0001:000563d0       ??_EUdpWriter@OpenHome@@UAEPAXI@Z 004573d0 f i libohNetCore:Network.obj
 0001:000563d0       ??_GUdpWriter@OpenHome@@UAEPAXI@Z 004573d0 f i libohNetCore:Network.obj
 0001:00056410       ??1UdpWriter@OpenHome@@UAE@XZ 00457410 f i libohNetCore:Network.obj
 0001:00056440       ??0?$vector@PAVSocketTcpSession@OpenHome@@V?$allocator@PAVSocketTcpSession@OpenHome@@@std@@@std@@QAE@XZ 00457440 f i libohNetCore:Network.obj
 0001:00056480       ??1?$vector@PAVSocketTcpSession@OpenHome@@V?$allocator@PAVSocketTcpSession@OpenHome@@@std@@@std@@QAE@XZ 00457480 f i libohNetCore:Network.obj
 0001:000564f0       ?size@?$vector@PAVSocketTcpSession@OpenHome@@V?$allocator@PAVSocketTcpSession@OpenHome@@@std@@@std@@QBEIXZ 004574f0 f i libohNetCore:Network.obj
 0001:00056520       ??A?$vector@PAVSocketTcpSession@OpenHome@@V?$allocator@PAVSocketTcpSession@OpenHome@@@std@@@std@@QAEAAPAVSocketTcpSession@OpenHome@@I@Z 00457520 f i libohNetCore:Network.obj
 0001:000565c0       ?push_back@?$vector@PAVSocketTcpSession@OpenHome@@V?$allocator@PAVSocketTcpSession@OpenHome@@@std@@@std@@QAEXABQAVSocketTcpSession@OpenHome@@@Z 004575c0 f i libohNetCore:Network.obj
 0001:000566d0       ?pop_back@?$vector@PAVSocketTcpSession@OpenHome@@V?$allocator@PAVSocketTcpSession@OpenHome@@@std@@@std@@QAEXXZ 004576d0 f i libohNetCore:Network.obj
 0001:00056760       ?empty@?$vector@PAVSocketTcpSession@OpenHome@@V?$allocator@PAVSocketTcpSession@OpenHome@@@std@@@std@@QBE_NXZ 00457760 f i libohNetCore:Network.obj
 0001:00056790       ?_Inside@?$vector@PAVSocketTcpSession@OpenHome@@V?$allocator@PAVSocketTcpSession@OpenHome@@@std@@@std@@IBE_NPBQAVSocketTcpSession@OpenHome@@@Z 00457790 f i libohNetCore:Network.obj
 0001:000567e0       ?_Reserve@?$vector@PAVSocketTcpSession@OpenHome@@V?$allocator@PAVSocketTcpSession@OpenHome@@@std@@@std@@IAEXI@Z 004577e0 f i libohNetCore:Network.obj
 0001:00056860       ?_Tidy@?$vector@PAVSocketTcpSession@OpenHome@@V?$allocator@PAVSocketTcpSession@OpenHome@@@std@@@std@@IAEXXZ 00457860 f i libohNetCore:Network.obj
 0001:000568f0       ?_Orphan_range@?$vector@PAVSocketTcpSession@OpenHome@@V?$allocator@PAVSocketTcpSession@OpenHome@@@std@@@std@@IBEXPAPAVSocketTcpSession@OpenHome@@0@Z 004578f0 f i libohNetCore:Network.obj
 0001:00056a00       ??0?$_Vector_val@PAVSocketTcpSession@OpenHome@@V?$allocator@PAVSocketTcpSession@OpenHome@@@std@@@std@@QAE@V?$allocator@PAVSocketTcpSession@OpenHome@@@1@@Z 00457a00 f i libohNetCore:Network.obj
 0001:00056b20       ??1?$_Vector_val@PAVSocketTcpSession@OpenHome@@V?$allocator@PAVSocketTcpSession@OpenHome@@@std@@@std@@QAE@XZ 00457b20 f i libohNetCore:Network.obj
 0001:00056c00       ??0?$allocator@PAVSocketTcpSession@OpenHome@@@std@@QAE@XZ 00457c00 f i libohNetCore:Network.obj
 0001:00056c20       ?reserve@?$vector@PAVSocketTcpSession@OpenHome@@V?$allocator@PAVSocketTcpSession@OpenHome@@@std@@@std@@QAEXI@Z 00457c20 f i libohNetCore:Network.obj
 0001:00056d90       ?capacity@?$vector@PAVSocketTcpSession@OpenHome@@V?$allocator@PAVSocketTcpSession@OpenHome@@@std@@@std@@QBEIXZ 00457d90 f i libohNetCore:Network.obj
 0001:00056dc0       ?max_size@?$vector@PAVSocketTcpSession@OpenHome@@V?$allocator@PAVSocketTcpSession@OpenHome@@@std@@@std@@QBEIXZ 00457dc0 f i libohNetCore:Network.obj
 0001:00056df0       ?_Destroy@?$vector@PAVSocketTcpSession@OpenHome@@V?$allocator@PAVSocketTcpSession@OpenHome@@@std@@@std@@IAEXPAPAVSocketTcpSession@OpenHome@@0@Z 00457df0 f i libohNetCore:Network.obj
 0001:00056e30       ?_Grow_to@?$vector@PAVSocketTcpSession@OpenHome@@V?$allocator@PAVSocketTcpSession@OpenHome@@@std@@@std@@IBEII@Z 00457e30 f i libohNetCore:Network.obj
 0001:00056eb0       ?_Xlen@?$vector@PAVSocketTcpSession@OpenHome@@V?$allocator@PAVSocketTcpSession@OpenHome@@@std@@@std@@IBEXXZ 00457eb0 f i libohNetCore:Network.obj
 0001:00056ee0       ??0?$allocator@PAVSocketTcpSession@OpenHome@@@std@@QAE@ABV01@@Z 00457ee0 f i libohNetCore:Network.obj
 0001:00056f00       ?deallocate@?$allocator@PAVSocketTcpSession@OpenHome@@@std@@QAEXPAPAVSocketTcpSession@OpenHome@@I@Z 00457f00 f i libohNetCore:Network.obj
 0001:00056f30       ?allocate@?$allocator@PAVSocketTcpSession@OpenHome@@@std@@QAEPAPAVSocketTcpSession@OpenHome@@I@Z 00457f30 f i libohNetCore:Network.obj
 0001:00056f60       ?max_size@?$allocator@PAVSocketTcpSession@OpenHome@@@std@@QBEIXZ 00457f60 f i libohNetCore:Network.obj
 0001:00056fb0       ??$MakeFunctor@VSocketTcpSession@OpenHome@@XV12@@OpenHome@@YG?AV?$MemberTranslator@VSocketTcpSession@OpenHome@@P812@AEXXZ@0@AAVSocketTcpSession@0@ABQ820@AEXXZ@Z 00457fb0 f i libohNetCore:Network.obj
 0001:00056fe0       ??$addressof@QAVSocketTcpSession@OpenHome@@@std@@YGPBQAVSocketTcpSession@OpenHome@@ABQAV12@@Z 00457fe0 f i libohNetCore:Network.obj
 0001:00056ff0       ??$_Cons_val@V?$allocator@PAVSocketTcpSession@OpenHome@@@std@@PAVSocketTcpSession@OpenHome@@AAPAV34@@std@@YGXAAV?$allocator@PAVSocketTcpSession@OpenHome@@@0@PAPAVSocketTcpSession@OpenHome@@AAPAV23@@Z 00457ff0 f i libohNetCore:Network.obj
 0001:00057020       ??$_Cons_val@V?$allocator@PAVSocketTcpSession@OpenHome@@@std@@PAVSocketTcpSession@OpenHome@@ABQAV34@@std@@YGXAAV?$allocator@PAVSocketTcpSession@OpenHome@@@0@PAPAVSocketTcpSession@OpenHome@@ABQAV23@@Z 00458020 f i libohNetCore:Network.obj
 0001:00057050       ??$_Dest_val@V?$allocator@PAVSocketTcpSession@OpenHome@@@std@@PAVSocketTcpSession@OpenHome@@@std@@YGXAAV?$allocator@PAVSocketTcpSession@OpenHome@@@0@PAPAVSocketTcpSession@OpenHome@@@Z 00458050 f i libohNetCore:Network.obj
 0001:00057070       ??$?0PAVSocketTcpSession@OpenHome@@@?$allocator@U_Container_proxy@std@@@std@@QAE@ABV?$allocator@PAVSocketTcpSession@OpenHome@@@1@@Z 00458070 f i libohNetCore:Network.obj
 0001:00057090       ??$_Umove@PAPAVSocketTcpSession@OpenHome@@@?$vector@PAVSocketTcpSession@OpenHome@@V?$allocator@PAVSocketTcpSession@OpenHome@@@std@@@std@@IAEPAPAVSocketTcpSession@OpenHome@@PAPAV23@00@Z 00458090 f i libohNetCore:Network.obj
 0001:000570d0       ??$_Destroy_range@V?$allocator@PAVSocketTcpSession@OpenHome@@@std@@@std@@YGXPAPAVSocketTcpSession@OpenHome@@0AAV?$allocator@PAVSocketTcpSession@OpenHome@@@0@@Z 004580d0 f i libohNetCore:Network.obj
 0001:00057120       ??$_Allocate@PAVSocketTcpSession@OpenHome@@@std@@YGPAPAVSocketTcpSession@OpenHome@@IPAPAV12@@Z 00458120 f i libohNetCore:Network.obj
 0001:000571a0       ?construct@?$allocator@PAVSocketTcpSession@OpenHome@@@std@@QAEXPAPAVSocketTcpSession@OpenHome@@ABQAV34@@Z 004581a0 f i libohNetCore:Network.obj
 0001:000571d0       ?destroy@?$allocator@PAVSocketTcpSession@OpenHome@@@std@@QAEXPAPAVSocketTcpSession@OpenHome@@@Z 004581d0 f i libohNetCore:Network.obj
 0001:00057200       ??0?$MemberTranslator@VSocketTcpSession@OpenHome@@P812@AEXXZ@OpenHome@@QAE@AAVSocketTcpSession@1@ABQ821@AEXXZ@Z 00458200 f i libohNetCore:Network.obj
 0001:00057240       ?Thunk@?$MemberTranslator@VSocketTcpSession@OpenHome@@P812@AEXXZ@OpenHome@@SGXABVFunctor@2@@Z 00458240 f i libohNetCore:Network.obj
 0001:00057290       ??$forward@AAPAVSocketTcpSession@OpenHome@@@std@@YGAAPAVSocketTcpSession@OpenHome@@AAPAV12@@Z 00458290 f i libohNetCore:Network.obj
 0001:000572a0       ??$construct@AAPAVSocketTcpSession@OpenHome@@@?$allocator@PAVSocketTcpSession@OpenHome@@@std@@QAEXPAPAVSocketTcpSession@OpenHome@@AAPAV23@@Z 004582a0 f i libohNetCore:Network.obj
 0001:00057340       ??$forward@ABQAVSocketTcpSession@OpenHome@@@std@@YGABQAVSocketTcpSession@OpenHome@@ABQAV12@@Z 00458340 f i libohNetCore:Network.obj
 0001:00057350       ??$_Uninitialized_move@PAPAVSocketTcpSession@OpenHome@@PAPAV12@V?$allocator@PAVSocketTcpSession@OpenHome@@@std@@@std@@YGPAPAVSocketTcpSession@OpenHome@@PAPAV12@00AAV?$allocator@PAVSocketTcpSession@OpenHome@@@0@@Z 00458350 f i libohNetCore:Network.obj
 0001:000573a0       ??$_Ptr_cat@PAVSocketTcpSession@OpenHome@@PAV12@@std@@YG?AU_Scalar_ptr_iterator_tag@0@PAPAVSocketTcpSession@OpenHome@@0@Z 004583a0 f i libohNetCore:Network.obj
 0001:00057400       ??$_Destroy_range@V?$allocator@PAVSocketTcpSession@OpenHome@@@std@@@std@@YGXPAPAVSocketTcpSession@OpenHome@@0AAV?$allocator@PAVSocketTcpSession@OpenHome@@@0@U_Scalar_ptr_iterator_tag@0@@Z 00458400 f i libohNetCore:Network.obj
 0001:00057410       ??$_Construct@PAVSocketTcpSession@OpenHome@@ABQAV12@@std@@YGXPAPAVSocketTcpSession@OpenHome@@ABQAV12@@Z 00458410 f i libohNetCore:Network.obj
 0001:000574c0       ??$_Destroy@PAVSocketTcpSession@OpenHome@@@std@@YGXPAPAVSocketTcpSession@OpenHome@@@Z 004584c0 f i libohNetCore:Network.obj
 0001:000574d0       ??$_Val_type@PAPAVSocketTcpSession@OpenHome@@@std@@YGPAPAVSocketTcpSession@OpenHome@@PAPAV12@@Z 004584d0 f i libohNetCore:Network.obj
 0001:000574e0       ??$_Uninit_move@PAVSocketTcpSession@OpenHome@@PAV12@PAV12@@std@@YGPAPAVSocketTcpSession@OpenHome@@PAPAV12@00AAV?$allocator@PAVSocketTcpSession@OpenHome@@@0@0U_Scalar_ptr_iterator_tag@0@@Z 004584e0 f i libohNetCore:Network.obj
 0001:00057550       ??$_Debug_range@PAPAVSocketTcpSession@OpenHome@@@std@@YGXPAPAVSocketTcpSession@OpenHome@@0PB_WI@Z 00458550 f i libohNetCore:Network.obj
 0001:000575a0       ??$_Debug_pointer@PAVSocketTcpSession@OpenHome@@@std@@YGXPAPAVSocketTcpSession@OpenHome@@PB_WI@Z 004585a0 f i libohNetCore:Network.obj
 0001:000575d0       ??$_Iter_cat@PAPAVSocketTcpSession@OpenHome@@@std@@YG?AUrandom_access_iterator_tag@0@ABQAPAVSocketTcpSession@OpenHome@@@Z 004585d0 f i libohNetCore:Network.obj
 0001:00057630       ??$_Debug_range2@PAPAVSocketTcpSession@OpenHome@@@std@@YGXPAPAVSocketTcpSession@OpenHome@@0PB_WIUrandom_access_iterator_tag@0@@Z 00458630 f i libohNetCore:Network.obj
 0001:00057690       ??_ESocketTcpSession@OpenHome@@OBA@AEPAXI@Z 00458690 f i libohNetCore:Network.obj
 0001:000576a0       ??_ESocketTcp@OpenHome@@WM@AEPAXI@Z 004586a0 f i libohNetCore:Network.obj
 0001:000576b0       ??_ESocketTcp@OpenHome@@WBA@AEPAXI@Z 004586b0 f i libohNetCore:Network.obj
 0001:000576c0       ??_ESocketTcpSession@OpenHome@@OM@AEPAXI@Z 004586c0 f i libohNetCore:Network.obj
 0001:000576d0       ??0NetworkAdapterList@OpenHome@@QAE@I@Z 004586d0 f   libohNetCore:NetworkAdapterList.obj
 0001:000577d0       ??1NetworkAdapterList@OpenHome@@QAE@XZ 004587d0 f   libohNetCore:NetworkAdapterList.obj
 0001:00057880       ?CurrentAdapter@NetworkAdapterList@OpenHome@@QBEPAVNetworkAdapter@2@XZ 00458880 f   libohNetCore:NetworkAdapterList.obj
 0001:00057960       ?List@NetworkAdapterList@OpenHome@@QBEABV?$vector@PAVNetworkAdapter@OpenHome@@V?$allocator@PAVNetworkAdapter@OpenHome@@@std@@@std@@XZ 00458960 f   libohNetCore:NetworkAdapterList.obj
 0001:00057980       ?CreateSubnetList@NetworkAdapterList@OpenHome@@QBEPAV?$vector@PAVNetworkAdapter@OpenHome@@V?$allocator@PAVNetworkAdapter@OpenHome@@@std@@@std@@XZ 00458980 f   libohNetCore:NetworkAdapterList.obj
 0001:000579d0       ?DestroySubnetList@NetworkAdapterList@OpenHome@@SGXPAV?$vector@PAVNetworkAdapter@OpenHome@@V?$allocator@PAVNetworkAdapter@OpenHome@@@std@@@std@@@Z 004589d0 f   libohNetCore:NetworkAdapterList.obj
 0001:00057a60       ?SetCurrentSubnet@NetworkAdapterList@OpenHome@@QAEXI@Z 00458a60 f   libohNetCore:NetworkAdapterList.obj
 0001:00057af0       ?AddCurrentChangeListener@NetworkAdapterList@OpenHome@@QAEIVFunctor@2@@Z 00458af0 f   libohNetCore:NetworkAdapterList.obj
 0001:00057b40       ?RemoveCurrentChangeListener@NetworkAdapterList@OpenHome@@QAEXI@Z 00458b40 f   libohNetCore:NetworkAdapterList.obj
 0001:00057b80       ?AddSubnetListChangeListener@NetworkAdapterList@OpenHome@@QAEIVFunctor@2@@Z 00458b80 f   libohNetCore:NetworkAdapterList.obj
 0001:00057bd0       ?RemoveSubnetListChangeListener@NetworkAdapterList@OpenHome@@QAEXI@Z 00458bd0 f   libohNetCore:NetworkAdapterList.obj
 0001:00057c10       ?CreateSubnetListLocked@NetworkAdapterList@OpenHome@@ABEPAV?$vector@PAVNetworkAdapter@OpenHome@@V?$allocator@PAVNetworkAdapter@OpenHome@@@std@@@std@@XZ 00458c10 f   libohNetCore:NetworkAdapterList.obj
 0001:00057d40       ?AddListener@NetworkAdapterList@OpenHome@@AAEIVFunctor@2@AAV?$map@IVFunctor@OpenHome@@U?$less@I@std@@V?$allocator@U?$pair@$$CBIVFunctor@OpenHome@@@std@@@4@@std@@@Z 00458d40 f   libohNetCore:NetworkAdapterList.obj
 0001:00057df0       ?RemoveSubnetListChangeListener@NetworkAdapterList@OpenHome@@AAEXIAAV?$map@IVFunctor@OpenHome@@U?$less@I@std@@V?$allocator@U?$pair@$$CBIVFunctor@OpenHome@@@std@@@4@@std@@@Z 00458df0 f   libohNetCore:NetworkAdapterList.obj
 0001:00057f20       ?InterfaceListChanged@NetworkAdapterList@OpenHome@@CGXPAX@Z 00458f20 f   libohNetCore:NetworkAdapterList.obj
 0001:00057f40       ?FindSubnet@NetworkAdapterList@OpenHome@@CGHIABV?$vector@PAVNetworkAdapter@OpenHome@@V?$allocator@PAVNetworkAdapter@OpenHome@@@std@@@std@@@Z 00458f40 f   libohNetCore:NetworkAdapterList.obj
 0001:00057fa0       ?UpdateCurrentAdapter@NetworkAdapterList@OpenHome@@AAEXXZ 00458fa0 f   libohNetCore:NetworkAdapterList.obj
 0001:00058050       ?HandleInterfaceListChanged@NetworkAdapterList@OpenHome@@AAEXXZ 00459050 f   libohNetCore:NetworkAdapterList.obj
 0001:000581f0       ?RunCallbacks@NetworkAdapterList@OpenHome@@AAEXAAV?$map@IVFunctor@OpenHome@@U?$less@I@std@@V?$allocator@U?$pair@$$CBIVFunctor@OpenHome@@@std@@@4@@std@@@Z 004591f0 f   libohNetCore:NetworkAdapterList.obj
 0001:00058310       ?NetworkSetInterfaceChangedObserver@Os@OpenHome@@SGXP6GXPAX@Z0@Z 00459310 f i libohNetCore:NetworkAdapterList.obj
 0001:00058330       ??1?$map@IVFunctor@OpenHome@@U?$less@I@std@@V?$allocator@U?$pair@$$CBIVFunctor@OpenHome@@@std@@@4@@std@@QAE@XZ 00459330 f i libohNetCore:NetworkAdapterList.obj
 0001:00058360       ??1?$pair@V?$_Tree_iterator@V?$_Tree_val@V?$_Tmap_traits@IVFunctor@OpenHome@@U?$less@I@std@@V?$allocator@U?$pair@$$CBIVFunctor@OpenHome@@@std@@@4@$0A@@std@@@std@@@std@@_N@std@@QAE@XZ 00459360 f i libohNetCore:NetworkAdapterList.obj
 0001:00058390       ??1?$_Pair_base@V?$_Tree_iterator@V?$_Tree_val@V?$_Tmap_traits@IVFunctor@OpenHome@@U?$less@I@std@@V?$allocator@U?$pair@$$CBIVFunctor@OpenHome@@@std@@@4@$0A@@std@@@std@@@std@@_N@std@@QAE@XZ 00459390 f i libohNetCore:NetworkAdapterList.obj
 0001:000583c0       ??1?$_Tree_iterator@V?$_Tree_val@V?$_Tmap_traits@IVFunctor@OpenHome@@U?$less@I@std@@V?$allocator@U?$pair@$$CBIVFunctor@OpenHome@@@std@@@4@$0A@@std@@@std@@@std@@QAE@XZ 004593c0 f i libohNetCore:NetworkAdapterList.obj
 0001:000583f0       ??1?$_Tree_const_iterator@V?$_Tree_val@V?$_Tmap_traits@IVFunctor@OpenHome@@U?$less@I@std@@V?$allocator@U?$pair@$$CBIVFunctor@OpenHome@@@std@@@4@$0A@@std@@@std@@@std@@QAE@XZ 004593f0 f i libohNetCore:NetworkAdapterList.obj
 0001:00058420       ??1?$_Tree_unchecked_const_iterator@V?$_Tree_val@V?$_Tmap_traits@IVFunctor@OpenHome@@U?$less@I@std@@V?$allocator@U?$pair@$$CBIVFunctor@OpenHome@@@std@@@4@$0A@@std@@@std@@U_Iterator_base12@2@@std@@QAE@XZ 00459420 f i libohNetCore:NetworkAdapterList.obj
 0001:00058450       ??1?$_Iterator012@Ubidirectional_iterator_tag@std@@U?$pair@$$CBIVFunctor@OpenHome@@@2@HPBU32@ABU32@U_Iterator_base12@2@@std@@QAE@XZ 00459450 f i libohNetCore:NetworkAdapterList.obj
 0001:00058480       ??0?$_Tree_const_iterator@V?$_Tree_val@V?$_Tmap_traits@IVFunctor@OpenHome@@U?$less@I@std@@V?$allocator@U?$pair@$$CBIVFunctor@OpenHome@@@std@@@4@$0A@@std@@@std@@@std@@QAE@ABV01@@Z 00459480 f i libohNetCore:NetworkAdapterList.obj
 0001:000584b0       ??0?$_Tree_unchecked_const_iterator@V?$_Tree_val@V?$_Tmap_traits@IVFunctor@OpenHome@@U?$less@I@std@@V?$allocator@U?$pair@$$CBIVFunctor@OpenHome@@@std@@@4@$0A@@std@@@std@@U_Iterator_base12@2@@std@@QAE@ABV01@@Z 004594b0 f i libohNetCore:NetworkAdapterList.obj
 0001:000584f0       ??0?$_Iterator012@Ubidirectional_iterator_tag@std@@U?$pair@$$CBIVFunctor@OpenHome@@@2@HPBU32@ABU32@U_Iterator_base12@2@@std@@QAE@ABU01@@Z 004594f0 f i libohNetCore:NetworkAdapterList.obj
 0001:00058520       ??0?$map@IVFunctor@OpenHome@@U?$less@I@std@@V?$allocator@U?$pair@$$CBIVFunctor@OpenHome@@@std@@@4@@std@@QAE@XZ 00459520 f i libohNetCore:NetworkAdapterList.obj
 0001:00058560       ??1?$_Tree@V?$_Tmap_traits@IVFunctor@OpenHome@@U?$less@I@std@@V?$allocator@U?$pair@$$CBIVFunctor@OpenHome@@@std@@@4@$0A@@std@@@std@@QAE@XZ 00459560 f i libohNetCore:NetworkAdapterList.obj
 0001:000585d0       ?begin@?$_Tree@V?$_Tmap_traits@IVFunctor@OpenHome@@U?$less@I@std@@V?$allocator@U?$pair@$$CBIVFunctor@OpenHome@@@std@@@4@$0A@@std@@@std@@QAE?AV?$_Tree_iterator@V?$_Tree_val@V?$_Tmap_traits@IVFunctor@OpenHome@@U?$less@I@std@@V?$allocator@U?$pair@$$CBIVFunctor@OpenHome@@@std@@@4@$0A@@std@@@std@@@2@XZ 004595d0 f i libohNetCore:NetworkAdapterList.obj
 0001:00058630       ?end@?$_Tree@V?$_Tmap_traits@IVFunctor@OpenHome@@U?$less@I@std@@V?$allocator@U?$pair@$$CBIVFunctor@OpenHome@@@std@@@4@$0A@@std@@@std@@QAE?AV?$_Tree_iterator@V?$_Tree_val@V?$_Tmap_traits@IVFunctor@OpenHome@@U?$less@I@std@@V?$allocator@U?$pair@$$CBIVFunctor@OpenHome@@@std@@@4@$0A@@std@@@std@@@2@XZ 00459630 f i libohNetCore:NetworkAdapterList.obj
 0001:00058680       ?erase@?$_Tree@V?$_Tmap_traits@IVFunctor@OpenHome@@U?$less@I@std@@V?$allocator@U?$pair@$$CBIVFunctor@OpenHome@@@std@@@4@$0A@@std@@@std@@QAE?AV?$_Tree_iterator@V?$_Tree_val@V?$_Tmap_traits@IVFunctor@OpenHome@@U?$less@I@std@@V?$allocator@U?$pair@$$CBIVFunctor@OpenHome@@@std@@@4@$0A@@std@@@std@@@2@V?$_Tree_const_iterator@V?$_Tree_val@V?$_Tmap_traits@IVFunctor@OpenHome@@U?$less@I@std@@V?$allocator@U?$pair@$$CBIVFunctor@OpenHome@@@std@@@4@$0A@@std@@@std@@@2@@Z 00459680 f i libohNetCore:NetworkAdapterList.obj
 0001:00058d90       ?find@?$_Tree@V?$_Tmap_traits@IVFunctor@OpenHome@@U?$less@I@std@@V?$allocator@U?$pair@$$CBIVFunctor@OpenHome@@@std@@@4@$0A@@std@@@std@@QAE?AV?$_Tree_iterator@V?$_Tree_val@V?$_Tmap_traits@IVFunctor@OpenHome@@U?$less@I@std@@V?$allocator@U?$pair@$$CBIVFunctor@OpenHome@@@std@@@4@$0A@@std@@@std@@@2@ABI@Z 00459d90 f i libohNetCore:NetworkAdapterList.obj
 0001:00058f70       ??0?$vector@PAVNetworkAdapter@OpenHome@@V?$allocator@PAVNetworkAdapter@OpenHome@@@std@@@std@@QAE@XZ 00459f70 f i libohNetCore:NetworkAdapterList.obj
 0001:00058fb0       ??A?$vector@PAVNetworkAdapter@OpenHome@@V?$allocator@PAVNetworkAdapter@OpenHome@@@std@@@std@@QBEABQAVNetworkAdapter@OpenHome@@I@Z 00459fb0 f i libohNetCore:NetworkAdapterList.obj
 0001:00059050       ?push_back@?$vector@PAVNetworkAdapter@OpenHome@@V?$allocator@PAVNetworkAdapter@OpenHome@@@std@@@std@@QAEXABQAVNetworkAdapter@OpenHome@@@Z 0045a050 f i libohNetCore:NetworkAdapterList.obj
 0001:00059160       ??C?$_Tree_iterator@V?$_Tree_val@V?$_Tmap_traits@IVFunctor@OpenHome@@U?$less@I@std@@V?$allocator@U?$pair@$$CBIVFunctor@OpenHome@@@std@@@4@$0A@@std@@@std@@@std@@QBEPAU?$pair@$$CBIVFunctor@OpenHome@@@1@XZ 0045a160 f i libohNetCore:NetworkAdapterList.obj
 0001:00059190       ??E?$_Tree_iterator@V?$_Tree_val@V?$_Tmap_traits@IVFunctor@OpenHome@@U?$less@I@std@@V?$allocator@U?$pair@$$CBIVFunctor@OpenHome@@@std@@@4@$0A@@std@@@std@@@std@@QAE?AV01@H@Z 0045a190 f i libohNetCore:NetworkAdapterList.obj
 0001:00059260       ??9?$_Tree_const_iterator@V?$_Tree_val@V?$_Tmap_traits@IVFunctor@OpenHome@@U?$less@I@std@@V?$allocator@U?$pair@$$CBIVFunctor@OpenHome@@@std@@@4@$0A@@std@@@std@@@std@@QBE_NABV01@@Z 0045a260 f i libohNetCore:NetworkAdapterList.obj
 0001:000592a0       ??0?$_Tree_iterator@V?$_Tree_val@V?$_Tmap_traits@IVFunctor@OpenHome@@U?$less@I@std@@V?$allocator@U?$pair@$$CBIVFunctor@OpenHome@@@std@@@4@$0A@@std@@@std@@@std@@QAE@ABV01@@Z 0045a2a0 f i libohNetCore:NetworkAdapterList.obj
 0001:000592d0       ??0?$_Tree@V?$_Tmap_traits@IVFunctor@OpenHome@@U?$less@I@std@@V?$allocator@U?$pair@$$CBIVFunctor@OpenHome@@@std@@@4@$0A@@std@@@std@@QAE@ABU?$less@I@1@ABV?$allocator@U?$pair@$$CBIVFunctor@OpenHome@@@std@@@1@@Z 0045a2d0 f i libohNetCore:NetworkAdapterList.obj
 0001:00059320       ?lower_bound@?$_Tree@V?$_Tmap_traits@IVFunctor@OpenHome@@U?$less@I@std@@V?$allocator@U?$pair@$$CBIVFunctor@OpenHome@@@std@@@4@$0A@@std@@@std@@QAE?AV?$_Tree_iterator@V?$_Tree_val@V?$_Tmap_traits@IVFunctor@OpenHome@@U?$less@I@std@@V?$allocator@U?$pair@$$CBIVFunctor@OpenHome@@@std@@@4@$0A@@std@@@std@@@2@ABI@Z 0045a320 f i libohNetCore:NetworkAdapterList.obj
 0001:00059380       ?_Lmost@?$_Tree@V?$_Tmap_traits@IVFunctor@OpenHome@@U?$less@I@std@@V?$allocator@U?$pair@$$CBIVFunctor@OpenHome@@@std@@@4@$0A@@std@@@std@@IBEAAPAU_Node@?$_Tree_nod@V?$_Tmap_traits@IVFunctor@OpenHome@@U?$less@I@std@@V?$allocator@U?$pair@$$CBIVFunctor@OpenHome@@@std@@@4@$0A@@std@@@2@XZ 0045a380 f i libohNetCore:NetworkAdapterList.obj
 0001:000593b0       ?_Lrotate@?$_Tree@V?$_Tmap_traits@IVFunctor@OpenHome@@U?$less@I@std@@V?$allocator@U?$pair@$$CBIVFunctor@OpenHome@@@std@@@4@$0A@@std@@@std@@IAEXPAU_Node@?$_Tree_nod@V?$_Tmap_traits@IVFunctor@OpenHome@@U?$less@I@std@@V?$allocator@U?$pair@$$CBIVFunctor@OpenHome@@@std@@@4@$0A@@std@@@2@@Z 0045a3b0 f i libohNetCore:NetworkAdapterList.obj
 0001:000594d0       ?_Rmost@?$_Tree@V?$_Tmap_traits@IVFunctor@OpenHome@@U?$less@I@std@@V?$allocator@U?$pair@$$CBIVFunctor@OpenHome@@@std@@@4@$0A@@std@@@std@@IBEAAPAU_Node@?$_Tree_nod@V?$_Tmap_traits@IVFunctor@OpenHome@@U?$less@I@std@@V?$allocator@U?$pair@$$CBIVFunctor@OpenHome@@@std@@@4@$0A@@std@@@2@XZ 0045a4d0 f i libohNetCore:NetworkAdapterList.obj
 0001:00059500       ?_Root@?$_Tree@V?$_Tmap_traits@IVFunctor@OpenHome@@U?$less@I@std@@V?$allocator@U?$pair@$$CBIVFunctor@OpenHome@@@std@@@4@$0A@@std@@@std@@IBEAAPAU_Node@?$_Tree_nod@V?$_Tmap_traits@IVFunctor@OpenHome@@U?$less@I@std@@V?$allocator@U?$pair@$$CBIVFunctor@OpenHome@@@std@@@4@$0A@@std@@@2@XZ 0045a500 f i libohNetCore:NetworkAdapterList.obj
 0001:00059530       ?_Rrotate@?$_Tree@V?$_Tmap_traits@IVFunctor@OpenHome@@U?$less@I@std@@V?$allocator@U?$pair@$$CBIVFunctor@OpenHome@@@std@@@4@$0A@@std@@@std@@IAEXPAU_Node@?$_Tree_nod@V?$_Tmap_traits@IVFunctor@OpenHome@@U?$less@I@std@@V?$allocator@U?$pair@$$CBIVFunctor@OpenHome@@@std@@@4@$0A@@std@@@2@@Z 0045a530 f i libohNetCore:NetworkAdapterList.obj
 0001:00059650       ?_Orphan_ptr@?$_Tree@V?$_Tmap_traits@IVFunctor@OpenHome@@U?$less@I@std@@V?$allocator@U?$pair@$$CBIVFunctor@OpenHome@@@std@@@4@$0A@@std@@@std@@IBEXAAV12@PAU_Node@?$_Tree_nod@V?$_Tmap_traits@IVFunctor@OpenHome@@U?$less@I@std@@V?$allocator@U?$pair@$$CBIVFunctor@OpenHome@@@std@@@4@$0A@@std@@@2@@Z 0045a650 f i libohNetCore:NetworkAdapterList.obj
 0001:00059760       ?_Tidy@?$_Tree@V?$_Tmap_traits@IVFunctor@OpenHome@@U?$less@I@std@@V?$allocator@U?$pair@$$CBIVFunctor@OpenHome@@@std@@@4@$0A@@std@@@std@@IAEXXZ 0045a760 f i libohNetCore:NetworkAdapterList.obj
 0001:00059860       ??1?$_Tree_val@V?$_Tmap_traits@IVFunctor@OpenHome@@U?$less@I@std@@V?$allocator@U?$pair@$$CBIVFunctor@OpenHome@@@std@@@4@$0A@@std@@@std@@QAE@XZ 0045a860 f i libohNetCore:NetworkAdapterList.obj
 0001:000598d0       ?_Color@?$_Tree_val@V?$_Tmap_traits@IVFunctor@OpenHome@@U?$less@I@std@@V?$allocator@U?$pair@$$CBIVFunctor@OpenHome@@@std@@@4@$0A@@std@@@std@@SGAADPAU_Node@?$_Tree_nod@V?$_Tmap_traits@IVFunctor@OpenHome@@U?$less@I@std@@V?$allocator@U?$pair@$$CBIVFunctor@OpenHome@@@std@@@4@$0A@@std@@@2@@Z 0045a8d0 f i libohNetCore:NetworkAdapterList.obj
 0001:000598e0       ?_Isnil@?$_Tree_val@V?$_Tmap_traits@IVFunctor@OpenHome@@U?$less@I@std@@V?$allocator@U?$pair@$$CBIVFunctor@OpenHome@@@std@@@4@$0A@@std@@@std@@SGAADPAU_Node@?$_Tree_nod@V?$_Tmap_traits@IVFunctor@OpenHome@@U?$less@I@std@@V?$allocator@U?$pair@$$CBIVFunctor@OpenHome@@@std@@@4@$0A@@std@@@2@@Z 0045a8e0 f i libohNetCore:NetworkAdapterList.obj
 0001:000598f0       ?_Key@?$_Tree_val@V?$_Tmap_traits@IVFunctor@OpenHome@@U?$less@I@std@@V?$allocator@U?$pair@$$CBIVFunctor@OpenHome@@@std@@@4@$0A@@std@@@std@@SGAAIPAU_Node@?$_Tree_nod@V?$_Tmap_traits@IVFunctor@OpenHome@@U?$less@I@std@@V?$allocator@U?$pair@$$CBIVFunctor@OpenHome@@@std@@@4@$0A@@std@@@2@@Z 0045a8f0 f i libohNetCore:NetworkAdapterList.obj
 0001:00059910       ?_Left@?$_Tree_val@V?$_Tmap_traits@IVFunctor@OpenHome@@U?$less@I@std@@V?$allocator@U?$pair@$$CBIVFunctor@OpenHome@@@std@@@4@$0A@@std@@@std@@SGAAPAU_Node@?$_Tree_nod@V?$_Tmap_traits@IVFunctor@OpenHome@@U?$less@I@std@@V?$allocator@U?$pair@$$CBIVFunctor@OpenHome@@@std@@@4@$0A@@std@@@2@PAU342@@Z 0045a910 f i libohNetCore:NetworkAdapterList.obj
 0001:00059920       ?_Parent@?$_Tree_val@V?$_Tmap_traits@IVFunctor@OpenHome@@U?$less@I@std@@V?$allocator@U?$pair@$$CBIVFunctor@OpenHome@@@std@@@4@$0A@@std@@@std@@SGAAPAU_Node@?$_Tree_nod@V?$_Tmap_traits@IVFunctor@OpenHome@@U?$less@I@std@@V?$allocator@U?$pair@$$CBIVFunctor@OpenHome@@@std@@@4@$0A@@std@@@2@PAU342@@Z 0045a920 f i libohNetCore:NetworkAdapterList.obj
 0001:00059930       ?_Right@?$_Tree_val@V?$_Tmap_traits@IVFunctor@OpenHome@@U?$less@I@std@@V?$allocator@U?$pair@$$CBIVFunctor@OpenHome@@@std@@@4@$0A@@std@@@std@@SGAAPAU_Node@?$_Tree_nod@V?$_Tmap_traits@IVFunctor@OpenHome@@U?$less@I@std@@V?$allocator@U?$pair@$$CBIVFunctor@OpenHome@@@std@@@4@$0A@@std@@@2@PAU342@@Z 0045a930 f i libohNetCore:NetworkAdapterList.obj
 0001:00059940       ?_Myval@?$_Tree_val@V?$_Tmap_traits@IVFunctor@OpenHome@@U?$less@I@std@@V?$allocator@U?$pair@$$CBIVFunctor@OpenHome@@@std@@@4@$0A@@std@@@std@@SGAAU?$pair@$$CBIVFunctor@OpenHome@@@2@PAU_Node@?$_Tree_nod@V?$_Tmap_traits@IVFunctor@OpenHome@@U?$less@I@std@@V?$allocator@U?$pair@$$CBIVFunctor@OpenHome@@@std@@@4@$0A@@std@@@2@@Z 0045a940 f i libohNetCore:NetworkAdapterList.obj
 0001:00059950       ?_Max@?$_Tree_val@V?$_Tmap_traits@IVFunctor@OpenHome@@U?$less@I@std@@V?$allocator@U?$pair@$$CBIVFunctor@OpenHome@@@std@@@4@$0A@@std@@@std@@SGPAU_Node@?$_Tree_nod@V?$_Tmap_traits@IVFunctor@OpenHome@@U?$less@I@std@@V?$allocator@U?$pair@$$CBIVFunctor@OpenHome@@@std@@@4@$0A@@std@@@2@PAU342@@Z 0045a950 f i libohNetCore:NetworkAdapterList.obj
 0001:00059990       ?_Min@?$_Tree_val@V?$_Tmap_traits@IVFunctor@OpenHome@@U?$less@I@std@@V?$allocator@U?$pair@$$CBIVFunctor@OpenHome@@@std@@@4@$0A@@std@@@std@@SGPAU_Node@?$_Tree_nod@V?$_Tmap_traits@IVFunctor@OpenHome@@U?$less@I@std@@V?$allocator@U?$pair@$$CBIVFunctor@OpenHome@@@std@@@4@$0A@@std@@@2@PAU342@@Z 0045a990 f i libohNetCore:NetworkAdapterList.obj
 0001:000599d0       ??0?$allocator@U?$pair@$$CBIVFunctor@OpenHome@@@std@@@std@@QAE@XZ 0045a9d0 f i libohNetCore:NetworkAdapterList.obj
 0001:000599f0       ?deallocate@?$allocator@U_Node@?$_Tree_nod@V?$_Tmap_traits@IVFunctor@OpenHome@@U?$less@I@std@@V?$allocator@U?$pair@$$CBIVFunctor@OpenHome@@@std@@@4@$0A@@std@@@std@@@std@@QAEXPAU_Node@?$_Tree_nod@V?$_Tmap_traits@IVFunctor@OpenHome@@U?$less@I@std@@V?$allocator@U?$pair@$$CBIVFunctor@OpenHome@@@std@@@4@$0A@@std@@@2@I@Z 0045a9f0 f i libohNetCore:NetworkAdapterList.obj
 0001:00059a20       ?_Inside@?$vector@PAVNetworkAdapter@OpenHome@@V?$allocator@PAVNetworkAdapter@OpenHome@@@std@@@std@@IBE_NPBQAVNetworkAdapter@OpenHome@@@Z 0045aa20 f i libohNetCore:NetworkAdapterList.obj
 0001:00059a70       ?_Reserve@?$vector@PAVNetworkAdapter@OpenHome@@V?$allocator@PAVNetworkAdapter@OpenHome@@@std@@@std@@IAEXI@Z 0045aa70 f i libohNetCore:NetworkAdapterList.obj
 0001:00059af0       ?_Orphan_range@?$vector@PAVNetworkAdapter@OpenHome@@V?$allocator@PAVNetworkAdapter@OpenHome@@@std@@@std@@IBEXPAPAVNetworkAdapter@OpenHome@@0@Z 0045aaf0 f i libohNetCore:NetworkAdapterList.obj
 0001:00059c00       ??0?$_Vector_val@PAVNetworkAdapter@OpenHome@@V?$allocator@PAVNetworkAdapter@OpenHome@@@std@@@std@@QAE@V?$allocator@PAVNetworkAdapter@OpenHome@@@1@@Z 0045ac00 f i libohNetCore:NetworkAdapterList.obj
 0001:00059d20       ??0?$allocator@PAVNetworkAdapter@OpenHome@@@std@@QAE@XZ 0045ad20 f i libohNetCore:NetworkAdapterList.obj
 0001:00059d40       ??0?$_Tree_iterator@V?$_Tree_val@V?$_Tmap_traits@IVFunctor@OpenHome@@U?$less@I@std@@V?$allocator@U?$pair@$$CBIVFunctor@OpenHome@@@std@@@4@$0A@@std@@@std@@@std@@QAE@PAU_Node@?$_Tree_nod@V?$_Tmap_traits@IVFunctor@OpenHome@@U?$less@I@std@@V?$allocator@U?$pair@$$CBIVFunctor@OpenHome@@@std@@@4@$0A@@std@@@1@PBV?$_Tree_val@V?$_Tmap_traits@IVFunctor@OpenHome@@U?$less@I@std@@V?$allocator@U?$pair@$$CBIVFunctor@OpenHome@@@std@@@4@$0A@@std@@@1@@Z 0045ad40 f i libohNetCore:NetworkAdapterList.obj
 0001:00059d80       ??D?$_Tree_iterator@V?$_Tree_val@V?$_Tmap_traits@IVFunctor@OpenHome@@U?$less@I@std@@V?$allocator@U?$pair@$$CBIVFunctor@OpenHome@@@std@@@4@$0A@@std@@@std@@@std@@QBEAAU?$pair@$$CBIVFunctor@OpenHome@@@1@XZ 0045ad80 f i libohNetCore:NetworkAdapterList.obj
 0001:00059db0       ??E?$_Tree_iterator@V?$_Tree_val@V?$_Tmap_traits@IVFunctor@OpenHome@@U?$less@I@std@@V?$allocator@U?$pair@$$CBIVFunctor@OpenHome@@@std@@@4@$0A@@std@@@std@@@std@@QAEAAV01@XZ 0045adb0 f i libohNetCore:NetworkAdapterList.obj
 0001:00059de0       ??E?$_Tree_const_iterator@V?$_Tree_val@V?$_Tmap_traits@IVFunctor@OpenHome@@U?$less@I@std@@V?$allocator@U?$pair@$$CBIVFunctor@OpenHome@@@std@@@4@$0A@@std@@@std@@@std@@QAEAAV01@XZ 0045ade0 f i libohNetCore:NetworkAdapterList.obj
 0001:00059ea0       ??8?$_Tree_const_iterator@V?$_Tree_val@V?$_Tmap_traits@IVFunctor@OpenHome@@U?$less@I@std@@V?$allocator@U?$pair@$$CBIVFunctor@OpenHome@@@std@@@4@$0A@@std@@@std@@@std@@QBE_NABV01@@Z 0045aea0 f i libohNetCore:NetworkAdapterList.obj
 0001:00059f60       ?_Mynode@?$_Tree_unchecked_const_iterator@V?$_Tree_val@V?$_Tmap_traits@IVFunctor@OpenHome@@U?$less@I@std@@V?$allocator@U?$pair@$$CBIVFunctor@OpenHome@@@std@@@4@$0A@@std@@@std@@U_Iterator_base12@2@@std@@QBEPAU_Node@?$_Tree_nod@V?$_Tmap_traits@IVFunctor@OpenHome@@U?$less@I@std@@V?$allocator@U?$pair@$$CBIVFunctor@OpenHome@@@std@@@4@$0A@@std@@@2@XZ 0045af60 f i libohNetCore:NetworkAdapterList.obj
 0001:00059f80       ?erase@?$_Tree@V?$_Tmap_traits@IVFunctor@OpenHome@@U?$less@I@std@@V?$allocator@U?$pair@$$CBIVFunctor@OpenHome@@@std@@@4@$0A@@std@@@std@@QAE?AV?$_Tree_iterator@V?$_Tree_val@V?$_Tmap_traits@IVFunctor@OpenHome@@U?$less@I@std@@V?$allocator@U?$pair@$$CBIVFunctor@OpenHome@@@std@@@4@$0A@@std@@@std@@@2@V?$_Tree_const_iterator@V?$_Tree_val@V?$_Tmap_traits@IVFunctor@OpenHome@@U?$less@I@std@@V?$allocator@U?$pair@$$CBIVFunctor@OpenHome@@@std@@@4@$0A@@std@@@std@@@2@0@Z 0045af80 f i libohNetCore:NetworkAdapterList.obj
 0001:0005a180       ?_Lbound@?$_Tree@V?$_Tmap_traits@IVFunctor@OpenHome@@U?$less@I@std@@V?$allocator@U?$pair@$$CBIVFunctor@OpenHome@@@std@@@4@$0A@@std@@@std@@IAEPAU_Node@?$_Tree_nod@V?$_Tmap_traits@IVFunctor@OpenHome@@U?$less@I@std@@V?$allocator@U?$pair@$$CBIVFunctor@OpenHome@@@std@@@4@$0A@@std@@@2@ABI@Z 0045b180 f i libohNetCore:NetworkAdapterList.obj
 0001:0005a230       ??0?$_Tree_val@V?$_Tmap_traits@IVFunctor@OpenHome@@U?$less@I@std@@V?$allocator@U?$pair@$$CBIVFunctor@OpenHome@@@std@@@4@$0A@@std@@@std@@QAE@ABU?$less@I@1@V?$allocator@U?$pair@$$CBIVFunctor@OpenHome@@@std@@@1@@Z 0045b230 f i libohNetCore:NetworkAdapterList.obj
 0001:0005a330       ??1?$_Tree_nod@V?$_Tmap_traits@IVFunctor@OpenHome@@U?$less@I@std@@V?$allocator@U?$pair@$$CBIVFunctor@OpenHome@@@std@@@4@$0A@@std@@@std@@QAE@XZ 0045b330 f i libohNetCore:NetworkAdapterList.obj
 0001:0005a410       ??0?$allocator@U?$pair@$$CBIVFunctor@OpenHome@@@std@@@std@@QAE@ABV01@@Z 0045b410 f i libohNetCore:NetworkAdapterList.obj
 0001:0005a430       ?reserve@?$vector@PAVNetworkAdapter@OpenHome@@V?$allocator@PAVNetworkAdapter@OpenHome@@@std@@@std@@QAEXI@Z 0045b430 f i libohNetCore:NetworkAdapterList.obj
 0001:0005a5a0       ?capacity@?$vector@PAVNetworkAdapter@OpenHome@@V?$allocator@PAVNetworkAdapter@OpenHome@@@std@@@std@@QBEIXZ 0045b5a0 f i libohNetCore:NetworkAdapterList.obj
 0001:0005a5d0       ?max_size@?$vector@PAVNetworkAdapter@OpenHome@@V?$allocator@PAVNetworkAdapter@OpenHome@@@std@@@std@@QBEIXZ 0045b5d0 f i libohNetCore:NetworkAdapterList.obj
 0001:0005a600       ?_Grow_to@?$vector@PAVNetworkAdapter@OpenHome@@V?$allocator@PAVNetworkAdapter@OpenHome@@@std@@@std@@IBEII@Z 0045b600 f i libohNetCore:NetworkAdapterList.obj
 0001:0005a680       ?_Xlen@?$vector@PAVNetworkAdapter@OpenHome@@V?$allocator@PAVNetworkAdapter@OpenHome@@@std@@@std@@IBEXXZ 0045b680 f i libohNetCore:NetworkAdapterList.obj
 0001:0005a6b0       ??0?$allocator@PAVNetworkAdapter@OpenHome@@@std@@QAE@ABV01@@Z 0045b6b0 f i libohNetCore:NetworkAdapterList.obj
 0001:0005a6d0       ??0?$_Tree_const_iterator@V?$_Tree_val@V?$_Tmap_traits@IVFunctor@OpenHome@@U?$less@I@std@@V?$allocator@U?$pair@$$CBIVFunctor@OpenHome@@@std@@@4@$0A@@std@@@std@@@std@@QAE@PAU_Node@?$_Tree_nod@V?$_Tmap_traits@IVFunctor@OpenHome@@U?$less@I@std@@V?$allocator@U?$pair@$$CBIVFunctor@OpenHome@@@std@@@4@$0A@@std@@@1@PBV?$_Tree_val@V?$_Tmap_traits@IVFunctor@OpenHome@@U?$less@I@std@@V?$allocator@U?$pair@$$CBIVFunctor@OpenHome@@@std@@@4@$0A@@std@@@1@@Z 0045b6d0 f i libohNetCore:NetworkAdapterList.obj
 0001:0005a710       ??D?$_Tree_const_iterator@V?$_Tree_val@V?$_Tmap_traits@IVFunctor@OpenHome@@U?$less@I@std@@V?$allocator@U?$pair@$$CBIVFunctor@OpenHome@@@std@@@4@$0A@@std@@@std@@@std@@QBEABU?$pair@$$CBIVFunctor@OpenHome@@@1@XZ 0045b710 f i libohNetCore:NetworkAdapterList.obj
 0001:0005a7d0       ??E?$_Tree_unchecked_const_iterator@V?$_Tree_val@V?$_Tmap_traits@IVFunctor@OpenHome@@U?$less@I@std@@V?$allocator@U?$pair@$$CBIVFunctor@OpenHome@@@std@@@4@$0A@@std@@@std@@U_Iterator_base12@2@@std@@QAEAAV01@XZ 0045b7d0 f i libohNetCore:NetworkAdapterList.obj
 0001:0005a890       ??1?$_Tmap_traits@IVFunctor@OpenHome@@U?$less@I@std@@V?$allocator@U?$pair@$$CBIVFunctor@OpenHome@@@std@@@4@$0A@@std@@QAE@XZ 0045b890 f i libohNetCore:NetworkAdapterList.obj
 0001:0005a8c0       ?clear@?$_Tree@V?$_Tmap_traits@IVFunctor@OpenHome@@U?$less@I@std@@V?$allocator@U?$pair@$$CBIVFunctor@OpenHome@@@std@@@4@$0A@@std@@@std@@QAEXXZ 0045b8c0 f i libohNetCore:NetworkAdapterList.obj
 0001:0005a940       ??0?$_Tree_nod@V?$_Tmap_traits@IVFunctor@OpenHome@@U?$less@I@std@@V?$allocator@U?$pair@$$CBIVFunctor@OpenHome@@@std@@@4@$0A@@std@@@std@@QAE@ABU?$less@I@1@V?$allocator@U?$pair@$$CBIVFunctor@OpenHome@@@std@@@1@@Z 0045b940 f i libohNetCore:NetworkAdapterList.obj
 0001:0005aa50       ?allocate@?$allocator@U_Node@?$_Tree_nod@V?$_Tmap_traits@IVFunctor@OpenHome@@U?$less@I@std@@V?$allocator@U?$pair@$$CBIVFunctor@OpenHome@@@std@@@4@$0A@@std@@@std@@@std@@QAEPAU_Node@?$_Tree_nod@V?$_Tmap_traits@IVFunctor@OpenHome@@U?$less@I@std@@V?$allocator@U?$pair@$$CBIVFunctor@OpenHome@@@std@@@4@$0A@@std@@@2@I@Z 0045ba50 f i libohNetCore:NetworkAdapterList.obj
 0001:0005aa80       ?allocate@?$allocator@PAVNetworkAdapter@OpenHome@@@std@@QAEPAPAVNetworkAdapter@OpenHome@@I@Z 0045ba80 f i libohNetCore:NetworkAdapterList.obj
 0001:0005aab0       ?max_size@?$allocator@PAVNetworkAdapter@OpenHome@@@std@@QBEIXZ 0045bab0 f i libohNetCore:NetworkAdapterList.obj
 0001:0005ab00       ??E?$_Tree_const_iterator@V?$_Tree_val@V?$_Tmap_traits@IVFunctor@OpenHome@@U?$less@I@std@@V?$allocator@U?$pair@$$CBIVFunctor@OpenHome@@@std@@@4@$0A@@std@@@std@@@std@@QAE?AV01@H@Z 0045bb00 f i libohNetCore:NetworkAdapterList.obj
 0001:0005abd0       ??0?$_Tree_unchecked_const_iterator@V?$_Tree_val@V?$_Tmap_traits@IVFunctor@OpenHome@@U?$less@I@std@@V?$allocator@U?$pair@$$CBIVFunctor@OpenHome@@@std@@@4@$0A@@std@@@std@@U_Iterator_base12@2@@std@@QAE@PAU_Node@?$_Tree_nod@V?$_Tmap_traits@IVFunctor@OpenHome@@U?$less@I@std@@V?$allocator@U?$pair@$$CBIVFunctor@OpenHome@@@std@@@4@$0A@@std@@@1@PBV?$_Tree_val@V?$_Tmap_traits@IVFunctor@OpenHome@@U?$less@I@std@@V?$allocator@U?$pair@$$CBIVFunctor@OpenHome@@@std@@@4@$0A@@std@@@1@@Z 0045bbd0 f i libohNetCore:NetworkAdapterList.obj
 0001:0005ac50       ??0?$_Iterator012@Ubidirectional_iterator_tag@std@@U?$pair@$$CBIVFunctor@OpenHome@@@2@HPBU32@ABU32@U_Iterator_base12@2@@std@@QAE@XZ 0045bc50 f i libohNetCore:NetworkAdapterList.obj
 0001:0005ac80       ?_Erase@?$_Tree@V?$_Tmap_traits@IVFunctor@OpenHome@@U?$less@I@std@@V?$allocator@U?$pair@$$CBIVFunctor@OpenHome@@@std@@@4@$0A@@std@@@std@@IAEXPAU_Node@?$_Tree_nod@V?$_Tmap_traits@IVFunctor@OpenHome@@U?$less@I@std@@V?$allocator@U?$pair@$$CBIVFunctor@OpenHome@@@std@@@4@$0A@@std@@@2@@Z 0045bc80 f i libohNetCore:NetworkAdapterList.obj
 0001:0005ad20       ??0?$_Tmap_traits@IVFunctor@OpenHome@@U?$less@I@std@@V?$allocator@U?$pair@$$CBIVFunctor@OpenHome@@@std@@@4@$0A@@std@@QAE@U?$less@I@1@@Z 0045bd20 f i libohNetCore:NetworkAdapterList.obj
 0001:0005ad50       ??$?0AAIAAVFunctor@OpenHome@@@?$pair@IVFunctor@OpenHome@@@std@@QAE@AAIAAVFunctor@OpenHome@@@Z 0045bd50 f i libohNetCore:NetworkAdapterList.obj
 0001:0005ad90       ??$insert@U?$pair@IVFunctor@OpenHome@@@std@@@?$_Tree@V?$_Tmap_traits@IVFunctor@OpenHome@@U?$less@I@std@@V?$allocator@U?$pair@$$CBIVFunctor@OpenHome@@@std@@@4@$0A@@std@@@std@@QAE?AU?$pair@V?$_Tree_iterator@V?$_Tree_val@V?$_Tmap_traits@IVFunctor@OpenHome@@U?$less@I@std@@V?$allocator@U?$pair@$$CBIVFunctor@OpenHome@@@std@@@4@$0A@@std@@@std@@@std@@_N@1@$$QAU?$pair@IVFunctor@OpenHome@@@1@@Z 0045bd90 f i libohNetCore:NetworkAdapterList.obj
 0001:0005adf0       ??$addressof@U?$pair@$$CBIVFunctor@OpenHome@@@std@@@std@@YGPAU?$pair@$$CBIVFunctor@OpenHome@@@0@AAU10@@Z 0045bdf0 f i libohNetCore:NetworkAdapterList.obj
 0001:0005ae00       ??$_Dest_val@V?$allocator@U?$pair@$$CBIVFunctor@OpenHome@@@std@@@std@@U?$pair@$$CBIVFunctor@OpenHome@@@2@@std@@YGXAAV?$allocator@U?$pair@$$CBIVFunctor@OpenHome@@@std@@@0@PAU?$pair@$$CBIVFunctor@OpenHome@@@0@@Z 0045be00 f i libohNetCore:NetworkAdapterList.obj
 0001:0005ae20       ??$_Debug_lt_pred@U?$less@I@std@@II@std@@YG_NU?$less@I@0@ABIAAIPB_WI@Z 0045be20 f i libohNetCore:NetworkAdapterList.obj
 0001:0005ae80       ??$addressof@QAVNetworkAdapter@OpenHome@@@std@@YGPBQAVNetworkAdapter@OpenHome@@ABQAV12@@Z 0045be80 f i libohNetCore:NetworkAdapterList.obj
 0001:0005ae90       ??$_Cons_val@V?$allocator@PAVNetworkAdapter@OpenHome@@@std@@PAVNetworkAdapter@OpenHome@@AAPAV34@@std@@YGXAAV?$allocator@PAVNetworkAdapter@OpenHome@@@0@PAPAVNetworkAdapter@OpenHome@@AAPAV23@@Z 0045be90 f i libohNetCore:NetworkAdapterList.obj
 0001:0005aec0       ??$_Cons_val@V?$allocator@PAVNetworkAdapter@OpenHome@@@std@@PAVNetworkAdapter@OpenHome@@ABQAV34@@std@@YGXAAV?$allocator@PAVNetworkAdapter@OpenHome@@@0@PAPAVNetworkAdapter@OpenHome@@ABQAV23@@Z 0045bec0 f i libohNetCore:NetworkAdapterList.obj
 0001:0005aef0       ??$_Kfn@$$CBIVFunctor@OpenHome@@@?$_Tmap_traits@IVFunctor@OpenHome@@U?$less@I@std@@V?$allocator@U?$pair@$$CBIVFunctor@OpenHome@@@std@@@4@$0A@@std@@SGABIABU?$pair@$$CBIVFunctor@OpenHome@@@1@@Z 0045bef0 f i libohNetCore:NetworkAdapterList.obj
 0001:0005af00       ??$_Debug_lt_pred@U?$less@I@std@@II@std@@YG_NU?$less@I@0@AAIABIPB_WI@Z 0045bf00 f i libohNetCore:NetworkAdapterList.obj
 0001:0005af60       ??$?0U_Node@?$_Tree_nod@V?$_Tmap_traits@IVFunctor@OpenHome@@U?$less@I@std@@V?$allocator@U?$pair@$$CBIVFunctor@OpenHome@@@std@@@4@$0A@@std@@@std@@@?$allocator@U_Container_proxy@std@@@std@@QAE@ABV?$allocator@U_Node@?$_Tree_nod@V?$_Tmap_traits@IVFunctor@OpenHome@@U?$less@I@std@@V?$allocator@U?$pair@$$CBIVFunctor@OpenHome@@@std@@@4@$0A@@std@@@std@@@1@@Z 0045bf60 f i libohNetCore:NetworkAdapterList.obj
 0001:0005af80       ??$_Umove@PAPAVNetworkAdapter@OpenHome@@@?$vector@PAVNetworkAdapter@OpenHome@@V?$allocator@PAVNetworkAdapter@OpenHome@@@std@@@std@@IAEPAPAVNetworkAdapter@OpenHome@@PAPAV23@00@Z 0045bf80 f i libohNetCore:NetworkAdapterList.obj
 0001:0005afc0       ??$?0U?$pair@$$CBIVFunctor@OpenHome@@@std@@@?$allocator@U_Node@?$_Tree_nod@V?$_Tmap_traits@IVFunctor@OpenHome@@U?$less@I@std@@V?$allocator@U?$pair@$$CBIVFunctor@OpenHome@@@std@@@4@$0A@@std@@@std@@@std@@QAE@ABV?$allocator@U?$pair@$$CBIVFunctor@OpenHome@@@std@@@1@@Z 0045bfc0 f i libohNetCore:NetworkAdapterList.obj
 0001:0005afe0       ??$_Allocate@U_Node@?$_Tree_nod@V?$_Tmap_traits@IVFunctor@OpenHome@@U?$less@I@std@@V?$allocator@U?$pair@$$CBIVFunctor@OpenHome@@@std@@@4@$0A@@std@@@std@@@std@@YGPAU_Node@?$_Tree_nod@V?$_Tmap_traits@IVFunctor@OpenHome@@U?$less@I@std@@V?$allocator@U?$pair@$$CBIVFunctor@OpenHome@@@std@@@4@$0A@@std@@@0@IPAU120@@Z 0045bfe0 f i libohNetCore:NetworkAdapterList.obj
 0001:0005b060       ??$_Allocate@PAVNetworkAdapter@OpenHome@@@std@@YGPAPAVNetworkAdapter@OpenHome@@IPAPAV12@@Z 0045c060 f i libohNetCore:NetworkAdapterList.obj
 0001:0005b0e0       ?_Linsert@?$_Tree@V?$_Tmap_traits@IVFunctor@OpenHome@@U?$less@I@std@@V?$allocator@U?$pair@$$CBIVFunctor@OpenHome@@@std@@@4@$0A@@std@@@std@@QAE?AU?$pair@V?$_Tree_iterator@V?$_Tree_val@V?$_Tmap_traits@IVFunctor@OpenHome@@U?$less@I@std@@V?$allocator@U?$pair@$$CBIVFunctor@OpenHome@@@std@@@4@$0A@@std@@@std@@@std@@_N@2@PAU_Node@?$_Tree_nod@V?$_Tmap_traits@IVFunctor@OpenHome@@U?$less@I@std@@V?$allocator@U?$pair@$$CBIVFunctor@OpenHome@@@std@@@4@$0A@@std@@@2@_N@Z 0045c0e0 f i libohNetCore:NetworkAdapterList.obj
 0001:0005b4c0       ?destroy@?$allocator@U?$pair@$$CBIVFunctor@OpenHome@@@std@@@std@@QAEXPAU?$pair@$$CBIVFunctor@OpenHome@@@2@@Z 0045c4c0 f i libohNetCore:NetworkAdapterList.obj
 0001:0005b4f0       ??R?$less@I@std@@QBE_NABI0@Z 0045c4f0 f i libohNetCore:NetworkAdapterList.obj
 0001:0005b520       ?construct@?$allocator@PAVNetworkAdapter@OpenHome@@@std@@QAEXPAPAVNetworkAdapter@OpenHome@@ABQAV34@@Z 0045c520 f i libohNetCore:NetworkAdapterList.obj
 0001:0005b550       ?_Insert@?$_Tree@V?$_Tmap_traits@IVFunctor@OpenHome@@U?$less@I@std@@V?$allocator@U?$pair@$$CBIVFunctor@OpenHome@@@std@@@4@$0A@@std@@@std@@IAE?AV?$_Tree_iterator@V?$_Tree_val@V?$_Tmap_traits@IVFunctor@OpenHome@@U?$less@I@std@@V?$allocator@U?$pair@$$CBIVFunctor@OpenHome@@@std@@@4@$0A@@std@@@std@@@2@_NPAU_Node@?$_Tree_nod@V?$_Tmap_traits@IVFunctor@OpenHome@@U?$less@I@std@@V?$allocator@U?$pair@$$CBIVFunctor@OpenHome@@@std@@@4@$0A@@std@@@2@1@Z 0045c550 f i libohNetCore:NetworkAdapterList.obj
 0001:0005b910       ??0?$pair@V?$_Tree_iterator@V?$_Tree_val@V?$_Tmap_traits@IVFunctor@OpenHome@@U?$less@I@std@@V?$allocator@U?$pair@$$CBIVFunctor@OpenHome@@@std@@@4@$0A@@std@@@std@@@std@@_N@std@@QAE@$$QAV?$_Tree_iterator@V?$_Tree_val@V?$_Tmap_traits@IVFunctor@OpenHome@@U?$less@I@std@@V?$allocator@U?$pair@$$CBIVFunctor@OpenHome@@@std@@@4@$0A@@std@@@std@@@1@$$QA_N@Z 0045c910 f i libohNetCore:NetworkAdapterList.obj
 0001:0005b950       ??F?$_Tree_iterator@V?$_Tree_val@V?$_Tmap_traits@IVFunctor@OpenHome@@U?$less@I@std@@V?$allocator@U?$pair@$$CBIVFunctor@OpenHome@@@std@@@4@$0A@@std@@@std@@@std@@QAEAAV01@XZ 0045c950 f i libohNetCore:NetworkAdapterList.obj
 0001:0005b980       ?max_size@?$_Tree@V?$_Tmap_traits@IVFunctor@OpenHome@@U?$less@I@std@@V?$allocator@U?$pair@$$CBIVFunctor@OpenHome@@@std@@@4@$0A@@std@@@std@@QBEIXZ 0045c980 f i libohNetCore:NetworkAdapterList.obj
 0001:0005b9b0       ??0?$_Pair_base@V?$_Tree_iterator@V?$_Tree_val@V?$_Tmap_traits@IVFunctor@OpenHome@@U?$less@I@std@@V?$allocator@U?$pair@$$CBIVFunctor@OpenHome@@@std@@@4@$0A@@std@@@std@@@std@@_N@std@@QAE@$$QAV?$_Tree_iterator@V?$_Tree_val@V?$_Tmap_traits@IVFunctor@OpenHome@@U?$less@I@std@@V?$allocator@U?$pair@$$CBIVFunctor@OpenHome@@@std@@@4@$0A@@std@@@std@@@1@$$QA_N@Z 0045c9b0 f i libohNetCore:NetworkAdapterList.obj
 0001:0005ba30       ??F?$_Tree_const_iterator@V?$_Tree_val@V?$_Tmap_traits@IVFunctor@OpenHome@@U?$less@I@std@@V?$allocator@U?$pair@$$CBIVFunctor@OpenHome@@@std@@@4@$0A@@std@@@std@@@std@@QAEAAV01@XZ 0045ca30 f i libohNetCore:NetworkAdapterList.obj
 0001:0005bb50       ?max_size@?$allocator@U?$pair@$$CBIVFunctor@OpenHome@@@std@@@std@@QBEIXZ 0045cb50 f i libohNetCore:NetworkAdapterList.obj
 0001:0005bba0       ??F?$_Tree_unchecked_const_iterator@V?$_Tree_val@V?$_Tmap_traits@IVFunctor@OpenHome@@U?$less@I@std@@V?$allocator@U?$pair@$$CBIVFunctor@OpenHome@@@std@@@4@$0A@@std@@@std@@U_Iterator_base12@2@@std@@QAEAAV01@XZ 0045cba0 f i libohNetCore:NetworkAdapterList.obj
 0001:0005bc90       ??$forward@AAI@std@@YGAAIAAI@Z 0045cc90 f i libohNetCore:NetworkAdapterList.obj
 0001:0005bca0       ??$forward@AAVFunctor@OpenHome@@@std@@YGAAVFunctor@OpenHome@@AAV12@@Z 0045cca0 f i libohNetCore:NetworkAdapterList.obj
 0001:0005bcb0       ??$?0AAIAAVFunctor@OpenHome@@@?$_Pair_base@IVFunctor@OpenHome@@@std@@QAE@AAIAAVFunctor@OpenHome@@@Z 0045ccb0 f i libohNetCore:NetworkAdapterList.obj
 0001:0005bd10       ??$forward@U?$pair@IVFunctor@OpenHome@@@std@@@std@@YG$$QAU?$pair@IVFunctor@OpenHome@@@0@AAU10@@Z 0045cd10 f i libohNetCore:NetworkAdapterList.obj
 0001:0005bd20       ??$_Buynode@U?$pair@IVFunctor@OpenHome@@@std@@@?$_Tree_val@V?$_Tmap_traits@IVFunctor@OpenHome@@U?$less@I@std@@V?$allocator@U?$pair@$$CBIVFunctor@OpenHome@@@std@@@4@$0A@@std@@@std@@QAEPAU_Node@?$_Tree_nod@V?$_Tmap_traits@IVFunctor@OpenHome@@U?$less@I@std@@V?$allocator@U?$pair@$$CBIVFunctor@OpenHome@@@std@@@4@$0A@@std@@@1@$$QAU?$pair@IVFunctor@OpenHome@@@1@@Z 0045cd20 f i libohNetCore:NetworkAdapterList.obj
 0001:0005be00       ??$forward@AAPAVNetworkAdapter@OpenHome@@@std@@YGAAPAVNetworkAdapter@OpenHome@@AAPAV12@@Z 0045ce00 f i libohNetCore:NetworkAdapterList.obj
 0001:0005be10       ??$construct@AAPAVNetworkAdapter@OpenHome@@@?$allocator@PAVNetworkAdapter@OpenHome@@@std@@QAEXPAPAVNetworkAdapter@OpenHome@@AAPAV23@@Z 0045ce10 f i libohNetCore:NetworkAdapterList.obj
 0001:0005beb0       ??$forward@ABQAVNetworkAdapter@OpenHome@@@std@@YGABQAVNetworkAdapter@OpenHome@@ABQAV12@@Z 0045ceb0 f i libohNetCore:NetworkAdapterList.obj
 0001:0005bec0       ??$_Uninitialized_move@PAPAVNetworkAdapter@OpenHome@@PAPAV12@V?$allocator@PAVNetworkAdapter@OpenHome@@@std@@@std@@YGPAPAVNetworkAdapter@OpenHome@@PAPAV12@00AAV?$allocator@PAVNetworkAdapter@OpenHome@@@0@@Z 0045cec0 f i libohNetCore:NetworkAdapterList.obj
 0001:0005bf10       ??$?0AAV?$_Tree_iterator@V?$_Tree_val@V?$_Tmap_traits@IVFunctor@OpenHome@@U?$less@I@std@@V?$allocator@U?$pair@$$CBIVFunctor@OpenHome@@@std@@@4@$0A@@std@@@std@@@std@@_N@?$pair@V?$_Tree_iterator@V?$_Tree_val@V?$_Tmap_traits@IVFunctor@OpenHome@@U?$less@I@std@@V?$allocator@U?$pair@$$CBIVFunctor@OpenHome@@@std@@@4@$0A@@std@@@std@@@std@@_N@std@@QAE@AAV?$_Tree_iterator@V?$_Tree_val@V?$_Tmap_traits@IVFunctor@OpenHome@@U?$less@I@std@@V?$allocator@U?$pair@$$CBIVFunctor@OpenHome@@@std@@@4@$0A@@std@@@std@@@1@$$QA_N@Z 0045cf10 f i libohNetCore:NetworkAdapterList.obj
 0001:0005bf50       ??$_Destroy@U?$pair@$$CBIVFunctor@OpenHome@@@std@@@std@@YGXPAU?$pair@$$CBIVFunctor@OpenHome@@@0@@Z 0045cf50 f i libohNetCore:NetworkAdapterList.obj
 0001:0005bf60       ??$_Construct@PAVNetworkAdapter@OpenHome@@ABQAV12@@std@@YGXPAPAVNetworkAdapter@OpenHome@@ABQAV12@@Z 0045cf60 f i libohNetCore:NetworkAdapterList.obj
 0001:0005c010       ??$move@AAV?$_Tree_iterator@V?$_Tree_val@V?$_Tmap_traits@IVFunctor@OpenHome@@U?$less@I@std@@V?$allocator@U?$pair@$$CBIVFunctor@OpenHome@@@std@@@4@$0A@@std@@@std@@@std@@@std@@YG$$QAV?$_Tree_iterator@V?$_Tree_val@V?$_Tmap_traits@IVFunctor@OpenHome@@U?$less@I@std@@V?$allocator@U?$pair@$$CBIVFunctor@OpenHome@@@std@@@4@$0A@@std@@@std@@@0@AAV10@@Z 0045d010 f i libohNetCore:NetworkAdapterList.obj
 0001:0005c020       ?_Buynode@?$_Tree_val@V?$_Tmap_traits@IVFunctor@OpenHome@@U?$less@I@std@@V?$allocator@U?$pair@$$CBIVFunctor@OpenHome@@@std@@@4@$0A@@std@@@std@@QAEPAU_Node@?$_Tree_nod@V?$_Tmap_traits@IVFunctor@OpenHome@@U?$less@I@std@@V?$allocator@U?$pair@$$CBIVFunctor@OpenHome@@@std@@@4@$0A@@std@@@2@XZ 0045d020 f i libohNetCore:NetworkAdapterList.obj
 0001:0005c0b0       ??$_Cons_val@V?$allocator@U?$pair@$$CBIVFunctor@OpenHome@@@std@@@std@@U?$pair@$$CBIVFunctor@OpenHome@@@2@U?$pair@IVFunctor@OpenHome@@@2@@std@@YGXAAV?$allocator@U?$pair@$$CBIVFunctor@OpenHome@@@std@@@0@PAU?$pair@$$CBIVFunctor@OpenHome@@@0@$$QAU?$pair@IVFunctor@OpenHome@@@0@@Z 0045d0b0 f i libohNetCore:NetworkAdapterList.obj
 0001:0005c0e0       ??$_Val_type@PAPAVNetworkAdapter@OpenHome@@@std@@YGPAPAVNetworkAdapter@OpenHome@@PAPAV12@@Z 0045d0e0 f i libohNetCore:NetworkAdapterList.obj
 0001:0005c0f0       ??$_Uninit_move@PAVNetworkAdapter@OpenHome@@PAV12@PAV12@@std@@YGPAPAVNetworkAdapter@OpenHome@@PAPAV12@00AAV?$allocator@PAVNetworkAdapter@OpenHome@@@0@0U_Scalar_ptr_iterator_tag@0@@Z 0045d0f0 f i libohNetCore:NetworkAdapterList.obj
 0001:0005c160       ??$forward@AAV?$_Tree_iterator@V?$_Tree_val@V?$_Tmap_traits@IVFunctor@OpenHome@@U?$less@I@std@@V?$allocator@U?$pair@$$CBIVFunctor@OpenHome@@@std@@@4@$0A@@std@@@std@@@std@@@std@@YGAAV?$_Tree_iterator@V?$_Tree_val@V?$_Tmap_traits@IVFunctor@OpenHome@@U?$less@I@std@@V?$allocator@U?$pair@$$CBIVFunctor@OpenHome@@@std@@@4@$0A@@std@@@std@@@0@AAV10@@Z 0045d160 f i libohNetCore:NetworkAdapterList.obj
 0001:0005c170       ??$?0AAV?$_Tree_iterator@V?$_Tree_val@V?$_Tmap_traits@IVFunctor@OpenHome@@U?$less@I@std@@V?$allocator@U?$pair@$$CBIVFunctor@OpenHome@@@std@@@4@$0A@@std@@@std@@@std@@_N@?$_Pair_base@V?$_Tree_iterator@V?$_Tree_val@V?$_Tmap_traits@IVFunctor@OpenHome@@U?$less@I@std@@V?$allocator@U?$pair@$$CBIVFunctor@OpenHome@@@std@@@4@$0A@@std@@@std@@@std@@_N@std@@QAE@AAV?$_Tree_iterator@V?$_Tree_val@V?$_Tmap_traits@IVFunctor@OpenHome@@U?$less@I@std@@V?$allocator@U?$pair@$$CBIVFunctor@OpenHome@@@std@@@4@$0A@@std@@@std@@@1@$$QA_N@Z 0045d170 f i libohNetCore:NetworkAdapterList.obj
 0001:0005c1f0       ??$construct@U?$pair@IVFunctor@OpenHome@@@std@@@?$allocator@U?$pair@$$CBIVFunctor@OpenHome@@@std@@@std@@QAEXPAU?$pair@$$CBIVFunctor@OpenHome@@@1@$$QAU?$pair@IVFunctor@OpenHome@@@1@@Z 0045d1f0 f i libohNetCore:NetworkAdapterList.obj
 0001:0005c290       ??$_Debug_range@PAPAVNetworkAdapter@OpenHome@@@std@@YGXPAPAVNetworkAdapter@OpenHome@@0PB_WI@Z 0045d290 f i libohNetCore:NetworkAdapterList.obj
 0001:0005c2e0       ??$_Debug_pointer@PAVNetworkAdapter@OpenHome@@@std@@YGXPAPAVNetworkAdapter@OpenHome@@PB_WI@Z 0045d2e0 f i libohNetCore:NetworkAdapterList.obj
 0001:0005c310       ??$?0IVFunctor@OpenHome@@@?$pair@$$CBIVFunctor@OpenHome@@@std@@QAE@$$QAU?$pair@IVFunctor@OpenHome@@@1@@Z 0045d310 f i libohNetCore:NetworkAdapterList.obj
 0001:0005c350       ??$_Iter_cat@PAPAVNetworkAdapter@OpenHome@@@std@@YG?AUrandom_access_iterator_tag@0@ABQAPAVNetworkAdapter@OpenHome@@@Z 0045d350 f i libohNetCore:NetworkAdapterList.obj
 0001:0005c3b0       ??$_Debug_range2@PAPAVNetworkAdapter@OpenHome@@@std@@YGXPAPAVNetworkAdapter@OpenHome@@0PB_WIUrandom_access_iterator_tag@0@@Z 0045d3b0 f i libohNetCore:NetworkAdapterList.obj
 0001:0005c410       ??$forward@I@std@@YG$$QAIAAI@Z 0045d410 f i libohNetCore:NetworkAdapterList.obj
 0001:0005c420       ??$forward@VFunctor@OpenHome@@@std@@YG$$QAVFunctor@OpenHome@@AAV12@@Z 0045d420 f i libohNetCore:NetworkAdapterList.obj
 0001:0005c430       ??$?0IVFunctor@OpenHome@@@?$_Pair_base@$$CBIVFunctor@OpenHome@@@std@@QAE@$$QAI$$QAVFunctor@OpenHome@@@Z 0045d430 f i libohNetCore:NetworkAdapterList.obj
 0001:0005c490       ??0CpiDevice@Net@OpenHome@@QAE@ABVBrx@2@AAVICpiProtocol@12@AAVICpiDeviceObserver@12@PAX@Z 0045d490 f   libohNetCore:CpiDevice.obj
 0001:0005c560       ?Udn@CpiDevice@Net@OpenHome@@QBEABVBrx@3@XZ 0045d560 f   libohNetCore:CpiDevice.obj
 0001:0005c580       ?UdnAsCString@CpiDevice@Net@OpenHome@@QBEPBDXZ 0045d580 f   libohNetCore:CpiDevice.obj
 0001:0005c5b0       ??8CpiDevice@Net@OpenHome@@QBE_NABV012@@Z 0045d5b0 f   libohNetCore:CpiDevice.obj
 0001:0005c5e0       ??9CpiDevice@Net@OpenHome@@QBE_NABV012@@Z 0045d5e0 f   libohNetCore:CpiDevice.obj
 0001:0005c610       ?OwnerData@CpiDevice@Net@OpenHome@@QAEPAXXZ 0045d610 f   libohNetCore:CpiDevice.obj
 0001:0005c630       ?AddRef@CpiDevice@Net@OpenHome@@QAEXXZ 0045d630 f   libohNetCore:CpiDevice.obj
 0001:0005c680       ?RemoveRef@CpiDevice@Net@OpenHome@@QAEXXZ 0045d680 f   libohNetCore:CpiDevice.obj
 0001:0005c750       ?GetAttribute@CpiDevice@Net@OpenHome@@UBE_NPBDAAVBrh@3@@Z 0045d750 f   libohNetCore:CpiDevice.obj
 0001:0005c7a0       ?InvokeAction@CpiDevice@Net@OpenHome@@UAEXAAVInvocation@23@@Z 0045d7a0 f   libohNetCore:CpiDevice.obj
 0001:0005c7e0       ?Subscribe@CpiDevice@Net@OpenHome@@UAEIAAVCpiSubscription@23@ABVUri@3@@Z 0045d7e0 f   libohNetCore:CpiDevice.obj
 0001:0005c830       ?Renew@CpiDevice@Net@OpenHome@@UAEIAAVCpiSubscription@23@@Z 0045d830 f   libohNetCore:CpiDevice.obj
 0001:0005c870       ?Unsubscribe@CpiDevice@Net@OpenHome@@UAEXAAVCpiSubscription@23@ABVBrx@3@@Z 0045d870 f   libohNetCore:CpiDevice.obj
 0001:0005c8c0       ?NotifyRemovedBeforeReady@CpiDevice@Net@OpenHome@@UAEXXZ 0045d8c0 f   libohNetCore:CpiDevice.obj
 0001:0005c900       ?SetReady@CpiDevice@Net@OpenHome@@QAEXXZ 0045d900 f   libohNetCore:CpiDevice.obj
 0001:0005c920       ?IsReady@CpiDevice@Net@OpenHome@@QBE_NXZ 0045d920 f   libohNetCore:CpiDevice.obj
 0001:0005c940       ?SetExpired@CpiDevice@Net@OpenHome@@QAEX_N@Z 0045d940 f   libohNetCore:CpiDevice.obj
 0001:0005c960       ?HasExpired@CpiDevice@Net@OpenHome@@QBE_NXZ 0045d960 f   libohNetCore:CpiDevice.obj
 0001:0005c980       ??1CpiDevice@Net@OpenHome@@EAE@XZ 0045d980 f   libohNetCore:CpiDevice.obj
 0001:0005ca80       ?Refresh@CpiDeviceList@Net@OpenHome@@UAEXXZ 0045da80 f   libohNetCore:CpiDevice.obj
 0001:0005caa0       ?RefDevice@CpiDeviceList@Net@OpenHome@@QAEPAVCpiDevice@23@ABVBrx@3@@Z 0045daa0 f   libohNetCore:CpiDevice.obj
 0001:0005cb60       ?RefDeviceLocked@CpiDeviceList@Net@OpenHome@@IAEPAVCpiDevice@23@ABVBrx@3@@Z 0045db60 f   libohNetCore:CpiDevice.obj
 0001:0005ccc0       ??0CpiDeviceList@Net@OpenHome@@IAE@VFunctorCpiDevice@12@0@Z 0045dcc0 f   libohNetCore:CpiDevice.obj
 0001:0005ce30       ??1CpiDeviceList@Net@OpenHome@@UAE@XZ 0045de30 f   libohNetCore:CpiDevice.obj
 0001:0005cf50       ?Add@CpiDeviceList@Net@OpenHome@@IAEXPAVCpiDevice@23@@Z 0045df50 f   libohNetCore:CpiDevice.obj
 0001:0005d2d0       ?Remove@CpiDeviceList@Net@OpenHome@@MAEXABVBrx@3@@Z 0045e2d0 f   libohNetCore:CpiDevice.obj
 0001:0005d320       ?IsDeviceReady@CpiDeviceList@Net@OpenHome@@MAE_NAAVCpiDevice@23@@Z 0045e320 f   libohNetCore:CpiDevice.obj
 0001:0005d340       ?StartRefresh@CpiDeviceList@Net@OpenHome@@IAE_NXZ 0045e340 f   libohNetCore:CpiDevice.obj
 0001:0005d390       ?RefreshComplete@CpiDeviceList@Net@OpenHome@@IAEXXZ 0045e390 f   libohNetCore:CpiDevice.obj
