 TestCpDeviceDvStd

 Timestamp is 4e1c1b98 (Tue Jul 12 11:02:00 2011)

 Preferred load address is 00400000

 Start         Length     Name                   Class
 0001:00000000 0012284cH .text                   CODE
 0001:00122850 00012973H .text$x                 CODE
 0001:001351d0 00003e4eH .text$yc                CODE
 0001:00139020 00001b31H .text$yd                CODE
 0002:00000000 000001e4H .idata$5                DATA
 0002:000001e4 00000004H .CRT$XCA                DATA
 0002:000001e8 00000004H .CRT$XCC                DATA
 0002:000001ec 00000350H .CRT$XCU                DATA
 0002:0000053c 00000004H .CRT$XCZ                DATA
 0002:00000540 00000004H .CRT$XIA                DATA
 0002:00000544 00000010H .CRT$XIC                DATA
 0002:00000554 00000004H .CRT$XIY                DATA
 0002:00000558 00000004H .CRT$XIZ                DATA
 0002:0000055c 00000004H .CRT$XPA                DATA
 0002:00000560 00000008H .CRT$XPX                DATA
 0002:00000568 00000004H .CRT$XPXA               DATA
 0002:0000056c 00000004H .CRT$XPZ                DATA
 0002:00000570 00000004H .CRT$XTA                DATA
 0002:00000574 00000004H .CRT$XTZ                DATA
 0002:00000580 000230b8H .rdata                  DATA
 0002:00023638 00000058H .rdata$debug            DATA
 0002:00023690 000058e0H .rdata$r                DATA
 0002:00028f70 00001568H .rdata$sxdata           DATA
 0002:0002a4d8 00000004H .rtc$IAA                DATA
 0002:0002a4dc 00000110H .rtc$IMZ                DATA
 0002:0002a5ec 00000004H .rtc$IZZ                DATA
 0002:0002a5f0 00000004H .rtc$TAA                DATA
 0002:0002a5f4 00000110H .rtc$TMZ                DATA
 0002:0002a704 00000004H .rtc$TZZ                DATA
 0002:0002a708 00014a24H .xdata$x                DATA
 0002:0003f12c 0000003cH .idata$2                DATA
 0002:0003f168 00000014H .idata$3                DATA
 0002:0003f17c 000001e4H .idata$4                DATA
 0002:0003f360 00000776H .idata$6                DATA
 0002:0003fae0 00001e49H .edata                  DATA
 0003:00000000 00008a10H .data                   DATA
 0003:00008a20 000034acH .bss                    DATA

  Address         Publics by Value              Rva+Base       Lib:Object

 0000:00000000       __except_list              00000000     <absolute>
 0000:0000055a       ___safe_se_handler_count   0000055a     <absolute>
 0000:00000000       ___ImageBase               00400000     <linker-defined>
 0001:00000000       ?Main@Runner@TestFramework@OpenHome@@SGXHQAPADPAVInitialisationParams@Net@3@@Z 00401000 f   TestCpDeviceDvStd.obj
 0001:00000150       ??_GDeviceBasic@Net@OpenHome@@QAEPAXI@Z 00401150 f i TestCpDeviceDvStd.obj
 0001:00000190       ??A?$vector@PAVNetworkAdapter@OpenHome@@V?$allocator@PAVNetworkAdapter@OpenHome@@@std@@@std@@QAEAAPAVNetworkAdapter@OpenHome@@I@Z 00401190 f i TestCpDeviceDvStd.obj
 0001:00000230       ?size@?$vector@PAVNetworkAdapter@OpenHome@@V?$allocator@PAVNetworkAdapter@OpenHome@@@std@@@std@@QBEIXZ 00401230 f i TestCpDeviceDvStd.obj
 0001:00000260       ?TestActions@TestBasicCp@Net@OpenHome@@SGXAAVCpDeviceCpp@23@@Z 00401260 f   TestBasicCpStd.obj
 0001:000006e0       ?TestSubscriptions@TestBasicCp@Net@OpenHome@@SGXAAVCpDeviceCpp@23@@Z 004016e0 f   TestBasicCpStd.obj
 0001:00000e70       ?MakeFunctor@OpenHome@@YG?AVMemberTranslatorC@1@PAXP6GX0@Z@Z 00401e70 f i TestBasicCpStd.obj
 0001:00000ea0       ??0MemberTranslatorC@OpenHome@@QAE@PAXP6GX0@Z@Z 00401ea0 f i TestBasicCpStd.obj
 0001:00000ee0       ??0Functor@OpenHome@@IAE@P6GXABV01@@ZPBXP6GXPAX@Z@Z 00401ee0 f i TestBasicCpStd.obj
 0001:00000f20       ?Thunk@MemberTranslatorC@OpenHome@@SGXABVFunctor@2@@Z 00401f20 f i TestBasicCpStd.obj
 0001:00000f50       ??0?$basic_string@DU?$char_traits@D@std@@V?$allocator@D@2@@std@@QAE@XZ 00401f50 f i TestBasicCpStd.obj
 0001:00000fd0       ??0?$basic_string@DU?$char_traits@D@std@@V?$allocator@D@2@@std@@QAE@PBDI@Z 00401fd0 f i TestBasicCpStd.obj
 0001:00001070       ??0?$basic_string@DU?$char_traits@D@std@@V?$allocator@D@2@@std@@QAE@PBD@Z 00402070 f i TestBasicCpStd.obj
 0001:00001100       ??1?$basic_string@DU?$char_traits@D@std@@V?$allocator@D@2@@std@@QAE@XZ 00402100 f i TestBasicCpStd.obj
 0001:00001170       ?length@?$basic_string@DU?$char_traits@D@std@@V?$allocator@D@2@@std@@QBEIXZ 00402170 f i TestBasicCpStd.obj
 0001:00001190       ?assign@?$basic_string@DU?$char_traits@D@std@@V?$allocator@D@2@@std@@QAEAAV12@PBDI@Z 00402190 f i TestBasicCpStd.obj
 0001:00001240       ?copy@?$char_traits@D@std@@SAPADPADPBDI@Z 00402240 f i TestBasicCpStd.obj
 0001:00001260       ?assign@?$basic_string@DU?$char_traits@D@std@@V?$allocator@D@2@@std@@QAEAAV12@PBD@Z 00402260 f i TestBasicCpStd.obj
 0001:000012b0       ?length@?$char_traits@D@std@@SAIPBD@Z 004022b0 f i TestBasicCpStd.obj
 0001:000012d0       ?_Tidy@?$basic_string@DU?$char_traits@D@std@@V?$allocator@D@2@@std@@QAEX_NI@Z 004022d0 f i TestBasicCpStd.obj
 0001:00001360       ??0?$_String_val@DV?$allocator@D@std@@@std@@QAE@V?$allocator@D@1@@Z 00402360 f i TestBasicCpStd.obj
 0001:00001460       ??0_Container_proxy@std@@QAE@XZ 00402460 f i TestBasicCpStd.obj
 0001:00001490       ??0_Container_base12@std@@QAE@XZ 00402490 f i TestBasicCpStd.obj
 0001:000014b0       ??1_Container_base12@std@@QAE@XZ 004024b0 f i TestBasicCpStd.obj
 0001:000014e0       ?_Orphan_all@_Container_base12@std@@QAEXXZ 004024e0 f i TestBasicCpStd.obj
 0001:00001590       ??1?$_String_val@DV?$allocator@D@std@@@std@@QAE@XZ 00402590 f i TestBasicCpStd.obj
 0001:00001670       ??0?$allocator@D@std@@QAE@XZ 00402670 f i TestBasicCpStd.obj
 0001:00001690       ??0?$allocator@D@std@@QAE@ABV01@@Z 00402690 f i TestBasicCpStd.obj
 0001:000016b0       ?assign@?$basic_string@DU?$char_traits@D@std@@V?$allocator@D@2@@std@@QAEAAV12@ABV12@II@Z 004026b0 f i TestBasicCpStd.obj
 0001:00001780       ?size@?$basic_string@DU?$char_traits@D@std@@V?$allocator@D@2@@std@@QBEIXZ 00402780 f i TestBasicCpStd.obj
 0001:000017a0       ?_Myptr@?$basic_string@DU?$char_traits@D@std@@V?$allocator@D@2@@std@@QBEPBDXZ 004027a0 f i TestBasicCpStd.obj
 0001:000017e0       ?_Eos@?$basic_string@DU?$char_traits@D@std@@V?$allocator@D@2@@std@@QAEXI@Z 004027e0 f i TestBasicCpStd.obj
 0001:00001830       ?assign@?$char_traits@D@std@@SAXAADABD@Z 00402830 f i TestBasicCpStd.obj
 0001:00001840       ?_Grow@?$basic_string@DU?$char_traits@D@std@@V?$allocator@D@2@@std@@QAE_NI_N@Z 00402840 f i TestBasicCpStd.obj
 0001:000018f0       ?_Inside@?$basic_string@DU?$char_traits@D@std@@V?$allocator@D@2@@std@@QAE_NPBD@Z 004028f0 f i TestBasicCpStd.obj
 0001:00001940       ?_Myptr@?$basic_string@DU?$char_traits@D@std@@V?$allocator@D@2@@std@@QAEPADXZ 00402940 f i TestBasicCpStd.obj
 0001:00001980       ?_Xran@?$basic_string@DU?$char_traits@D@std@@V?$allocator@D@2@@std@@QBEXXZ 00402980 f i TestBasicCpStd.obj
 0001:000019b0       ?deallocate@?$allocator@D@std@@QAEXPADI@Z 004029b0 f i TestBasicCpStd.obj
 0001:000019e0       ?deallocate@?$allocator@U_Container_proxy@std@@@std@@QAEXPAU_Container_proxy@2@I@Z 004029e0 f i TestBasicCpStd.obj
 0001:00001a10       ?allocate@?$allocator@U_Container_proxy@std@@@std@@QAEPAU_Container_proxy@2@I@Z 00402a10 f i TestBasicCpStd.obj
 0001:00001a40       ?erase@?$basic_string@DU?$char_traits@D@std@@V?$allocator@D@2@@std@@QAEAAV12@II@Z 00402a40 f i TestBasicCpStd.obj
 0001:00001af0       ?move@?$char_traits@D@std@@SAPADPADPBDI@Z 00402af0 f i TestBasicCpStd.obj
 0001:00001b10       ?max_size@?$basic_string@DU?$char_traits@D@std@@V?$allocator@D@2@@std@@QBEIXZ 00402b10 f i TestBasicCpStd.obj
 0001:00001b70       ?_Copy@?$basic_string@DU?$char_traits@D@std@@V?$allocator@D@2@@std@@QAEXII@Z 00402b70 f i TestBasicCpStd.obj
 0001:00001d20       ?_Xlen@?$basic_string@DU?$char_traits@D@std@@V?$allocator@D@2@@std@@QBEXXZ 00402d20 f i TestBasicCpStd.obj
 0001:00001d50       ?allocate@?$allocator@D@std@@QAEPADI@Z 00402d50 f i TestBasicCpStd.obj
 0001:00001d80       ?max_size@?$allocator@D@std@@QBEIXZ 00402d80 f i TestBasicCpStd.obj
 0001:00001dd0       ??$?8DU?$char_traits@D@std@@V?$allocator@D@1@@std@@YG_NABV?$basic_string@DU?$char_traits@D@std@@V?$allocator@D@2@@0@0@Z 00402dd0 f i TestBasicCpStd.obj
 0001:00001e00       ?compare@?$basic_string@DU?$char_traits@D@std@@V?$allocator@D@2@@std@@QBEHABV12@@Z 00402e00 f i TestBasicCpStd.obj
 0001:00001e50       ?compare@?$basic_string@DU?$char_traits@D@std@@V?$allocator@D@2@@std@@QBEHIIPBDI@Z 00402e50 f i TestBasicCpStd.obj
 0001:00001f30       ?compare@?$char_traits@D@std@@SAHPBD0I@Z 00402f30 f i TestBasicCpStd.obj
 0001:00001f50       ??$_Debug_pointer@D@std@@YGXPBDPB_WI@Z 00402f50 f i TestBasicCpStd.obj
 0001:00001f80       ??$?0D@?$allocator@U_Container_proxy@std@@@std@@QAE@ABV?$allocator@D@1@@Z 00402f80 f i TestBasicCpStd.obj
 0001:00001fa0       ??$_Cons_val@V?$allocator@U_Container_proxy@std@@@std@@U_Container_proxy@2@U32@@std@@YGXAAV?$allocator@U_Container_proxy@std@@@0@PAU_Container_proxy@0@$$QAU20@@Z 00402fa0 f i TestBasicCpStd.obj
 0001:00001fd0       ??$_Dest_val@V?$allocator@U_Container_proxy@std@@@std@@U_Container_proxy@2@@std@@YGXAAV?$allocator@U_Container_proxy@std@@@0@PAU_Container_proxy@0@@Z 00402fd0 f i TestBasicCpStd.obj
 0001:00001ff0       ??$_Allocate@U_Container_proxy@std@@@std@@YGPAU_Container_proxy@0@IPAU10@@Z 00402ff0 f i TestBasicCpStd.obj
 0001:00002070       ??0bad_alloc@std@@QAE@PBD@Z 00403070 f i TestBasicCpStd.obj
 0001:000020b0       ??1bad_alloc@std@@UAE@XZ   004030b0 f i TestBasicCpStd.obj
 0001:000020e0       ??_Gbad_alloc@std@@UAEPAXI@Z 004030e0 f i TestBasicCpStd.obj
 0001:000020e0       ??_Ebad_alloc@std@@UAEPAXI@Z 004030e0 f i TestBasicCpStd.obj
 0001:00002120       ??$_Allocate@D@std@@YGPADIPAD@Z 00403120 f i TestBasicCpStd.obj
 0001:000021a0       ??0bad_alloc@std@@QAE@ABV01@@Z 004031a0 f i TestBasicCpStd.obj
 0001:000021e0       ?construct@?$allocator@U_Container_proxy@std@@@std@@QAEXPAU_Container_proxy@2@$$QAU32@@Z 004031e0 f i TestBasicCpStd.obj
 0001:00002290       ??2@YAPAXIPAX@Z            00403290 f i TestBasicCpStd.obj
 0001:000022a0       ??3@YAXPAX0@Z              004032a0 f i TestBasicCpStd.obj
 0001:000022b0       ?destroy@?$allocator@U_Container_proxy@std@@@std@@QAEXPAU_Container_proxy@2@@Z 004032b0 f i TestBasicCpStd.obj
 0001:000022e0       ??$forward@U_Container_proxy@std@@@std@@YG$$QAU_Container_proxy@0@AAU10@@Z 004032e0 f i TestBasicCpStd.obj
 0001:000022f0       ??$_Destroy@U_Container_proxy@std@@@std@@YGXPAU_Container_proxy@0@@Z 004032f0 f i TestBasicCpStd.obj
 0001:00002300       ??0ProviderTestBasic@Net@OpenHome@@QAE@AAVDvDeviceStd@12@@Z 00403300 f   TestBasicDvStd.obj
 0001:00002490       ?Increment@ProviderTestBasic@Net@OpenHome@@EAEXIIAAI@Z 00403490 f   TestBasicDvStd.obj
 0001:000024c0       ?Decrement@ProviderTestBasic@Net@OpenHome@@EAEXIHAAH@Z 004034c0 f   TestBasicDvStd.obj
 0001:000024f0       ?Toggle@ProviderTestBasic@Net@OpenHome@@EAEXI_NAA_N@Z 004034f0 f   TestBasicDvStd.obj
 0001:00002520       ?EchoString@ProviderTestBasic@Net@OpenHome@@EAEXIABV?$basic_string@DU?$char_traits@D@std@@V?$allocator@D@2@@std@@AAV45@@Z 00403520 f   TestBasicDvStd.obj
 0001:00002550       ?EchoBinary@ProviderTestBasic@Net@OpenHome@@EAEXIABV?$basic_string@DU?$char_traits@D@std@@V?$allocator@D@2@@std@@AAV45@@Z 00403550 f   TestBasicDvStd.obj
 0001:00002580       ?SetUint@ProviderTestBasic@Net@OpenHome@@EAEXII@Z 00403580 f   TestBasicDvStd.obj
 0001:000025b0       ?GetUint@ProviderTestBasic@Net@OpenHome@@EAEXIAAI@Z 004035b0 f   TestBasicDvStd.obj
 0001:000025e0       ?SetInt@ProviderTestBasic@Net@OpenHome@@EAEXIH@Z 004035e0 f   TestBasicDvStd.obj
 0001:00002610       ?GetInt@ProviderTestBasic@Net@OpenHome@@EAEXIAAH@Z 00403610 f   TestBasicDvStd.obj
 0001:00002640       ?SetBool@ProviderTestBasic@Net@OpenHome@@EAEXI_N@Z 00403640 f   TestBasicDvStd.obj
 0001:00002670       ?GetBool@ProviderTestBasic@Net@OpenHome@@EAEXIAA_N@Z 00403670 f   TestBasicDvStd.obj
 0001:000026a0       ?SetMultiple@ProviderTestBasic@Net@OpenHome@@EAEXIIH_N@Z 004036a0 f   TestBasicDvStd.obj
 0001:00002700       ?SetString@ProviderTestBasic@Net@OpenHome@@EAEXIABV?$basic_string@DU?$char_traits@D@std@@V?$allocator@D@2@@std@@@Z 00403700 f   TestBasicDvStd.obj
 0001:00002730       ?GetString@ProviderTestBasic@Net@OpenHome@@EAEXIAAV?$basic_string@DU?$char_traits@D@std@@V?$allocator@D@2@@std@@@Z 00403730 f   TestBasicDvStd.obj
 0001:00002760       ?SetBinary@ProviderTestBasic@Net@OpenHome@@EAEXIABV?$basic_string@DU?$char_traits@D@std@@V?$allocator@D@2@@std@@@Z 00403760 f   TestBasicDvStd.obj
 0001:00002790       ?GetBinary@ProviderTestBasic@Net@OpenHome@@EAEXIAAV?$basic_string@DU?$char_traits@D@std@@V?$allocator@D@2@@std@@@Z 00403790 f   TestBasicDvStd.obj
 0001:000027c0       ??0DeviceBasic@Net@OpenHome@@QAE@W4EProtocol@012@@Z 004037c0 f   TestBasicDvStd.obj
 0001:00002b40       ??1DeviceBasic@Net@OpenHome@@QAE@XZ 00403b40 f   TestBasicDvStd.obj
 0001:00002be0       ?Device@DeviceBasic@Net@OpenHome@@QAEAAVDvDeviceStd@23@XZ 00403be0 f   TestBasicDvStd.obj
 0001:00002c00       ??1DvProviderOpenhomeOrgTestBasic1Cpp@Net@OpenHome@@UAE@XZ 00403c00 f i TestBasicDvStd.obj
 0001:00002c30       ??_EDvProviderOpenhomeOrgTestBasic1Cpp@Net@OpenHome@@UAEPAXI@Z 00403c30 f i TestBasicDvStd.obj
 0001:00002c30       ??_GDvProviderOpenhomeOrgTestBasic1Cpp@Net@OpenHome@@UAEPAXI@Z 00403c30 f i TestBasicDvStd.obj
 0001:00002c70       ??_GProviderTestBasic@Net@OpenHome@@UAEPAXI@Z 00403c70 f i TestBasicDvStd.obj
 0001:00002c70       ??_EProviderTestBasic@Net@OpenHome@@UAEPAXI@Z 00403c70 f i TestBasicDvStd.obj
 0001:00002cb0       ??1ProviderTestBasic@Net@OpenHome@@UAE@XZ 00403cb0 f i TestBasicDvStd.obj
 0001:00002ce0       ?Bytes@Brx@OpenHome@@QBEIXZ 00403ce0 f i TestBasicDvStd.obj
 0001:00002d00       ??1Brn@OpenHome@@UAE@XZ    00403d00 f i TestBasicDvStd.obj
 0001:00002d30       ??1Brx@OpenHome@@UAE@XZ    00403d30 f i TestBasicDvStd.obj
 0001:00002d50       ??_EBrx@OpenHome@@UAEPAXI@Z 00403d50 f i TestBasicDvStd.obj
 0001:00002d50       ??_GBrx@OpenHome@@UAEPAXI@Z 00403d50 f i TestBasicDvStd.obj
 0001:00002d90       ??0Brn@OpenHome@@QAE@PBEI@Z 00403d90 f i TestBasicDvStd.obj
 0001:00002dd0       ??0Brx@OpenHome@@IAE@I@Z   00403dd0 f i TestBasicDvStd.obj
 0001:00002e00       ??_EBrn@OpenHome@@UAEPAXI@Z 00403e00 f i TestBasicDvStd.obj
 0001:00002e00       ??_GBrn@OpenHome@@UAEPAXI@Z 00403e00 f i TestBasicDvStd.obj
 0001:00002e40       ?Append@Bwx@OpenHome@@QAEXD@Z 00403e40 f i TestBasicDvStd.obj
 0001:00002e70       ??1?$Bws@$09@OpenHome@@UAE@XZ 00403e70 f i TestBasicDvStd.obj
 0001:00002ea0       ??1Bwx@OpenHome@@UAE@XZ    00403ea0 f i TestBasicDvStd.obj
 0001:00002ed0       ??_GDvDeviceStd@Net@OpenHome@@QAEPAXI@Z 00403ed0 f i TestBasicDvStd.obj
 0001:00002f10       ?assign@?$basic_string@DU?$char_traits@D@std@@V?$allocator@D@2@@std@@QAEAAV12@ABV12@@Z 00403f10 f i TestBasicDvStd.obj
 0001:00002f50       ?c_str@?$basic_string@DU?$char_traits@D@std@@V?$allocator@D@2@@std@@QBEPBDXZ 00403f50 f i TestBasicDvStd.obj
 0001:00002f80       ??0?$Bws@$09@OpenHome@@QAE@XZ 00403f80 f i TestBasicDvStd.obj
 0001:00002fc0       ?Ptr@?$Bws@$09@OpenHome@@UBEPBEXZ 00403fc0 f i TestBasicDvStd.obj
 0001:00002fe0       ??_G?$Bws@$09@OpenHome@@UAEPAXI@Z 00403fe0 f i TestBasicDvStd.obj
 0001:00002fe0       ??_E?$Bws@$09@OpenHome@@UAEPAXI@Z 00403fe0 f i TestBasicDvStd.obj
 0001:00003020       ?SetPropertyVarUint@DvProviderOpenhomeOrgTestBasic1Cpp@Net@OpenHome@@QAE_NI@Z 00404020 f   DvOpenhomeOrgTestBasic1Std.obj
 0001:00003060       ?GetPropertyVarUint@DvProviderOpenhomeOrgTestBasic1Cpp@Net@OpenHome@@QAEXAAI@Z 00404060 f   DvOpenhomeOrgTestBasic1Std.obj
 0001:00003090       ?SetPropertyVarInt@DvProviderOpenhomeOrgTestBasic1Cpp@Net@OpenHome@@QAE_NH@Z 00404090 f   DvOpenhomeOrgTestBasic1Std.obj
 0001:000030d0       ?GetPropertyVarInt@DvProviderOpenhomeOrgTestBasic1Cpp@Net@OpenHome@@QAEXAAH@Z 004040d0 f   DvOpenhomeOrgTestBasic1Std.obj
 0001:00003100       ?SetPropertyVarBool@DvProviderOpenhomeOrgTestBasic1Cpp@Net@OpenHome@@QAE_N_N@Z 00404100 f   DvOpenhomeOrgTestBasic1Std.obj
 0001:00003140       ?GetPropertyVarBool@DvProviderOpenhomeOrgTestBasic1Cpp@Net@OpenHome@@QAEXAA_N@Z 00404140 f   DvOpenhomeOrgTestBasic1Std.obj
 0001:00003170       ?SetPropertyVarStr@DvProviderOpenhomeOrgTestBasic1Cpp@Net@OpenHome@@QAE_NABV?$basic_string@DU?$char_traits@D@std@@V?$allocator@D@2@@std@@@Z 00404170 f   DvOpenhomeOrgTestBasic1Std.obj
 0001:00003240       ?GetPropertyVarStr@DvProviderOpenhomeOrgTestBasic1Cpp@Net@OpenHome@@QAEXAAV?$basic_string@DU?$char_traits@D@std@@V?$allocator@D@2@@std@@@Z 00404240 f   DvOpenhomeOrgTestBasic1Std.obj
 0001:000032a0       ?SetPropertyVarBin@DvProviderOpenhomeOrgTestBasic1Cpp@Net@OpenHome@@QAE_NABV?$basic_string@DU?$char_traits@D@std@@V?$allocator@D@2@@std@@@Z 004042a0 f   DvOpenhomeOrgTestBasic1Std.obj
 0001:00003370       ?GetPropertyVarBin@DvProviderOpenhomeOrgTestBasic1Cpp@Net@OpenHome@@QAEXAAV?$basic_string@DU?$char_traits@D@std@@V?$allocator@D@2@@std@@@Z 00404370 f   DvOpenhomeOrgTestBasic1Std.obj
 0001:000033d0       ??0DvProviderOpenhomeOrgTestBasic1Cpp@Net@OpenHome@@IAE@AAVDvDeviceStd@12@@Z 004043d0 f   DvOpenhomeOrgTestBasic1Std.obj
 0001:00003750       ?EnableActionIncrement@DvProviderOpenhomeOrgTestBasic1Cpp@Net@OpenHome@@IAEXXZ 00404750 f   DvOpenhomeOrgTestBasic1Std.obj
 0001:00003920       ?EnableActionDecrement@DvProviderOpenhomeOrgTestBasic1Cpp@Net@OpenHome@@IAEXXZ 00404920 f   DvOpenhomeOrgTestBasic1Std.obj
 0001:00003b00       ?EnableActionToggle@DvProviderOpenhomeOrgTestBasic1Cpp@Net@OpenHome@@IAEXXZ 00404b00 f   DvOpenhomeOrgTestBasic1Std.obj
 0001:00003cc0       ?EnableActionEchoString@DvProviderOpenhomeOrgTestBasic1Cpp@Net@OpenHome@@IAEXXZ 00404cc0 f   DvOpenhomeOrgTestBasic1Std.obj
 0001:00003e80       ?EnableActionEchoBinary@DvProviderOpenhomeOrgTestBasic1Cpp@Net@OpenHome@@IAEXXZ 00404e80 f   DvOpenhomeOrgTestBasic1Std.obj
 0001:00004040       ?EnableActionSetUint@DvProviderOpenhomeOrgTestBasic1Cpp@Net@OpenHome@@IAEXXZ 00405040 f   DvOpenhomeOrgTestBasic1Std.obj
 0001:000041c0       ?EnableActionGetUint@DvProviderOpenhomeOrgTestBasic1Cpp@Net@OpenHome@@IAEXXZ 004051c0 f   DvOpenhomeOrgTestBasic1Std.obj
 0001:00004340       ?EnableActionSetInt@DvProviderOpenhomeOrgTestBasic1Cpp@Net@OpenHome@@IAEXXZ 00405340 f   DvOpenhomeOrgTestBasic1Std.obj
 0001:000044c0       ?EnableActionGetInt@DvProviderOpenhomeOrgTestBasic1Cpp@Net@OpenHome@@IAEXXZ 004054c0 f   DvOpenhomeOrgTestBasic1Std.obj
 0001:00004640       ?EnableActionSetBool@DvProviderOpenhomeOrgTestBasic1Cpp@Net@OpenHome@@IAEXXZ 00405640 f   DvOpenhomeOrgTestBasic1Std.obj
 0001:000047c0       ?EnableActionGetBool@DvProviderOpenhomeOrgTestBasic1Cpp@Net@OpenHome@@IAEXXZ 004057c0 f   DvOpenhomeOrgTestBasic1Std.obj
 0001:00004940       ?EnableActionSetMultiple@DvProviderOpenhomeOrgTestBasic1Cpp@Net@OpenHome@@IAEXXZ 00405940 f   DvOpenhomeOrgTestBasic1Std.obj
 0001:00004b60       ?EnableActionSetString@DvProviderOpenhomeOrgTestBasic1Cpp@Net@OpenHome@@IAEXXZ 00405b60 f   DvOpenhomeOrgTestBasic1Std.obj
 0001:00004ce0       ?EnableActionGetString@DvProviderOpenhomeOrgTestBasic1Cpp@Net@OpenHome@@IAEXXZ 00405ce0 f   DvOpenhomeOrgTestBasic1Std.obj
 0001:00004e60       ?EnableActionSetBinary@DvProviderOpenhomeOrgTestBasic1Cpp@Net@OpenHome@@IAEXXZ 00405e60 f   DvOpenhomeOrgTestBasic1Std.obj
 0001:00004fe0       ?EnableActionGetBinary@DvProviderOpenhomeOrgTestBasic1Cpp@Net@OpenHome@@IAEXXZ 00405fe0 f   DvOpenhomeOrgTestBasic1Std.obj
 0001:00005160       ?EnableActionToggleBool@DvProviderOpenhomeOrgTestBasic1Cpp@Net@OpenHome@@IAEXXZ 00406160 f   DvOpenhomeOrgTestBasic1Std.obj
 0001:00005290       ?EnableActionWriteFile@DvProviderOpenhomeOrgTestBasic1Cpp@Net@OpenHome@@IAEXXZ 00406290 f   DvOpenhomeOrgTestBasic1Std.obj
 0001:00005450       ?EnableActionShutdown@DvProviderOpenhomeOrgTestBasic1Cpp@Net@OpenHome@@IAEXXZ 00406450 f   DvOpenhomeOrgTestBasic1Std.obj
 0001:00005580       ?DoIncrement@DvProviderOpenhomeOrgTestBasic1Cpp@Net@OpenHome@@AAEXAAVIDviInvocation@23@I@Z 00406580 f   DvOpenhomeOrgTestBasic1Std.obj
 0001:000056f0       ?DoDecrement@DvProviderOpenhomeOrgTestBasic1Cpp@Net@OpenHome@@AAEXAAVIDviInvocation@23@I@Z 004066f0 f   DvOpenhomeOrgTestBasic1Std.obj
 0001:00005860       ?DoToggle@DvProviderOpenhomeOrgTestBasic1Cpp@Net@OpenHome@@AAEXAAVIDviInvocation@23@I@Z 00406860 f   DvOpenhomeOrgTestBasic1Std.obj
 0001:000059e0       ?DoEchoString@DvProviderOpenhomeOrgTestBasic1Cpp@Net@OpenHome@@AAEXAAVIDviInvocation@23@I@Z 004069e0 f   DvOpenhomeOrgTestBasic1Std.obj
 0001:00005c60       ?DoEchoBinary@DvProviderOpenhomeOrgTestBasic1Cpp@Net@OpenHome@@AAEXAAVIDviInvocation@23@I@Z 00406c60 f   DvOpenhomeOrgTestBasic1Std.obj
 0001:00005ee0       ?DoSetUint@DvProviderOpenhomeOrgTestBasic1Cpp@Net@OpenHome@@AAEXAAVIDviInvocation@23@I@Z 00406ee0 f   DvOpenhomeOrgTestBasic1Std.obj
 0001:00005fa0       ?DoGetUint@DvProviderOpenhomeOrgTestBasic1Cpp@Net@OpenHome@@AAEXAAVIDviInvocation@23@I@Z 00406fa0 f   DvOpenhomeOrgTestBasic1Std.obj
 0001:00006110       ?DoSetInt@DvProviderOpenhomeOrgTestBasic1Cpp@Net@OpenHome@@AAEXAAVIDviInvocation@23@I@Z 00407110 f   DvOpenhomeOrgTestBasic1Std.obj
 0001:000061d0       ?DoGetInt@DvProviderOpenhomeOrgTestBasic1Cpp@Net@OpenHome@@AAEXAAVIDviInvocation@23@I@Z 004071d0 f   DvOpenhomeOrgTestBasic1Std.obj
 0001:00006330       ?DoSetBool@DvProviderOpenhomeOrgTestBasic1Cpp@Net@OpenHome@@AAEXAAVIDviInvocation@23@I@Z 00407330 f   DvOpenhomeOrgTestBasic1Std.obj
 0001:000063f0       ?DoGetBool@DvProviderOpenhomeOrgTestBasic1Cpp@Net@OpenHome@@AAEXAAVIDviInvocation@23@I@Z 004073f0 f   DvOpenhomeOrgTestBasic1Std.obj
 0001:00006560       ?DoSetMultiple@DvProviderOpenhomeOrgTestBasic1Cpp@Net@OpenHome@@AAEXAAVIDviInvocation@23@I@Z 00407560 f   DvOpenhomeOrgTestBasic1Std.obj
 0001:00006670       ?DoSetString@DvProviderOpenhomeOrgTestBasic1Cpp@Net@OpenHome@@AAEXAAVIDviInvocation@23@I@Z 00407670 f   DvOpenhomeOrgTestBasic1Std.obj
 0001:00006800       ?DoGetString@DvProviderOpenhomeOrgTestBasic1Cpp@Net@OpenHome@@AAEXAAVIDviInvocation@23@I@Z 00407800 f   DvOpenhomeOrgTestBasic1Std.obj
 0001:000069e0       ?DoSetBinary@DvProviderOpenhomeOrgTestBasic1Cpp@Net@OpenHome@@AAEXAAVIDviInvocation@23@I@Z 004079e0 f   DvOpenhomeOrgTestBasic1Std.obj
 0001:00006b70       ?DoGetBinary@DvProviderOpenhomeOrgTestBasic1Cpp@Net@OpenHome@@AAEXAAVIDviInvocation@23@I@Z 00407b70 f   DvOpenhomeOrgTestBasic1Std.obj
 0001:00006d50       ?DoToggleBool@DvProviderOpenhomeOrgTestBasic1Cpp@Net@OpenHome@@AAEXAAVIDviInvocation@23@I@Z 00407d50 f   DvOpenhomeOrgTestBasic1Std.obj
 0001:00006df0       ?DoWriteFile@DvProviderOpenhomeOrgTestBasic1Cpp@Net@OpenHome@@AAEXAAVIDviInvocation@23@I@Z 00407df0 f   DvOpenhomeOrgTestBasic1Std.obj
 0001:00007020       ?DoShutdown@DvProviderOpenhomeOrgTestBasic1Cpp@Net@OpenHome@@AAEXAAVIDviInvocation@23@I@Z 00408020 f   DvOpenhomeOrgTestBasic1Std.obj
 0001:000070c0       ?Increment@DvProviderOpenhomeOrgTestBasic1Cpp@Net@OpenHome@@EAEXIIAAI@Z 004080c0 f   DvOpenhomeOrgTestBasic1Std.obj
 0001:000070f0       ?Decrement@DvProviderOpenhomeOrgTestBasic1Cpp@Net@OpenHome@@EAEXIHAAH@Z 004080f0 f   DvOpenhomeOrgTestBasic1Std.obj
 0001:00007120       ?Toggle@DvProviderOpenhomeOrgTestBasic1Cpp@Net@OpenHome@@EAEXI_NAA_N@Z 00408120 f   DvOpenhomeOrgTestBasic1Std.obj
 0001:00007150       ?EchoString@DvProviderOpenhomeOrgTestBasic1Cpp@Net@OpenHome@@EAEXIABV?$basic_string@DU?$char_traits@D@std@@V?$allocator@D@2@@std@@AAV45@@Z 00408150 f   DvOpenhomeOrgTestBasic1Std.obj
 0001:00007180       ?EchoBinary@DvProviderOpenhomeOrgTestBasic1Cpp@Net@OpenHome@@EAEXIABV?$basic_string@DU?$char_traits@D@std@@V?$allocator@D@2@@std@@AAV45@@Z 00408180 f   DvOpenhomeOrgTestBasic1Std.obj
 0001:000071b0       ?SetUint@DvProviderOpenhomeOrgTestBasic1Cpp@Net@OpenHome@@EAEXII@Z 004081b0 f   DvOpenhomeOrgTestBasic1Std.obj
 0001:000071e0       ?GetUint@DvProviderOpenhomeOrgTestBasic1Cpp@Net@OpenHome@@EAEXIAAI@Z 004081e0 f   DvOpenhomeOrgTestBasic1Std.obj
 0001:00007210       ?SetInt@DvProviderOpenhomeOrgTestBasic1Cpp@Net@OpenHome@@EAEXIH@Z 00408210 f   DvOpenhomeOrgTestBasic1Std.obj
 0001:00007240       ?GetInt@DvProviderOpenhomeOrgTestBasic1Cpp@Net@OpenHome@@EAEXIAAH@Z 00408240 f   DvOpenhomeOrgTestBasic1Std.obj
 0001:00007270       ?SetBool@DvProviderOpenhomeOrgTestBasic1Cpp@Net@OpenHome@@EAEXI_N@Z 00408270 f   DvOpenhomeOrgTestBasic1Std.obj
 0001:000072a0       ?GetBool@DvProviderOpenhomeOrgTestBasic1Cpp@Net@OpenHome@@EAEXIAA_N@Z 004082a0 f   DvOpenhomeOrgTestBasic1Std.obj
 0001:000072d0       ?SetMultiple@DvProviderOpenhomeOrgTestBasic1Cpp@Net@OpenHome@@EAEXIIH_N@Z 004082d0 f   DvOpenhomeOrgTestBasic1Std.obj
 0001:00007300       ?SetString@DvProviderOpenhomeOrgTestBasic1Cpp@Net@OpenHome@@EAEXIABV?$basic_string@DU?$char_traits@D@std@@V?$allocator@D@2@@std@@@Z 00408300 f   DvOpenhomeOrgTestBasic1Std.obj
 0001:00007330       ?GetString@DvProviderOpenhomeOrgTestBasic1Cpp@Net@OpenHome@@EAEXIAAV?$basic_string@DU?$char_traits@D@std@@V?$allocator@D@2@@std@@@Z 00408330 f   DvOpenhomeOrgTestBasic1Std.obj
 0001:00007360       ?SetBinary@DvProviderOpenhomeOrgTestBasic1Cpp@Net@OpenHome@@EAEXIABV?$basic_string@DU?$char_traits@D@std@@V?$allocator@D@2@@std@@@Z 00408360 f   DvOpenhomeOrgTestBasic1Std.obj
 0001:00007390       ?GetBinary@DvProviderOpenhomeOrgTestBasic1Cpp@Net@OpenHome@@EAEXIAAV?$basic_string@DU?$char_traits@D@std@@V?$allocator@D@2@@std@@@Z 00408390 f   DvOpenhomeOrgTestBasic1Std.obj
 0001:000073c0       ?ToggleBool@DvProviderOpenhomeOrgTestBasic1Cpp@Net@OpenHome@@EAEXI@Z 004083c0 f   DvOpenhomeOrgTestBasic1Std.obj
 0001:000073f0       ?WriteFile@DvProviderOpenhomeOrgTestBasic1Cpp@Net@OpenHome@@EAEXIABV?$basic_string@DU?$char_traits@D@std@@V?$allocator@D@2@@std@@0@Z 004083f0 f   DvOpenhomeOrgTestBasic1Std.obj
 0001:00007420       ?Shutdown@DvProviderOpenhomeOrgTestBasic1Cpp@Net@OpenHome@@EAEXI@Z 00408420 f   DvOpenhomeOrgTestBasic1Std.obj
 0001:00007450       ??1InvocationResponseUint@Net@OpenHome@@UAE@XZ 00408450 f i DvOpenhomeOrgTestBasic1Std.obj
 0001:00007480       ??1IInvocationResponseUint@Net@OpenHome@@UAE@XZ 00408480 f i DvOpenhomeOrgTestBasic1Std.obj
 0001:000074a0       ??_GIInvocationResponseUint@Net@OpenHome@@UAEPAXI@Z 004084a0 f i DvOpenhomeOrgTestBasic1Std.obj
 0001:000074a0       ??_EIInvocationResponseUint@Net@OpenHome@@UAEPAXI@Z 004084a0 f i DvOpenhomeOrgTestBasic1Std.obj
 0001:000074e0       ??1InvocationResponseInt@Net@OpenHome@@UAE@XZ 004084e0 f i DvOpenhomeOrgTestBasic1Std.obj
 0001:00007510       ??1IInvocationResponseInt@Net@OpenHome@@UAE@XZ 00408510 f i DvOpenhomeOrgTestBasic1Std.obj
 0001:00007530       ??_GIInvocationResponseInt@Net@OpenHome@@UAEPAXI@Z 00408530 f i DvOpenhomeOrgTestBasic1Std.obj
 0001:00007530       ??_EIInvocationResponseInt@Net@OpenHome@@UAEPAXI@Z 00408530 f i DvOpenhomeOrgTestBasic1Std.obj
 0001:00007570       ??1InvocationResponseBool@Net@OpenHome@@UAE@XZ 00408570 f i DvOpenhomeOrgTestBasic1Std.obj
 0001:000075a0       ??1IInvocationResponseBool@Net@OpenHome@@UAE@XZ 004085a0 f i DvOpenhomeOrgTestBasic1Std.obj
 0001:000075c0       ??_GIInvocationResponseBool@Net@OpenHome@@UAEPAXI@Z 004085c0 f i DvOpenhomeOrgTestBasic1Std.obj
 0001:000075c0       ??_EIInvocationResponseBool@Net@OpenHome@@UAEPAXI@Z 004085c0 f i DvOpenhomeOrgTestBasic1Std.obj
 0001:00007600       ??0Brhz@OpenHome@@QAE@XZ   00408600 f i DvOpenhomeOrgTestBasic1Std.obj
 0001:00007630       ??0Brv@OpenHome@@IAE@XZ    00408630 f i DvOpenhomeOrgTestBasic1Std.obj
 0001:000076b0       ??0INonCopyable@OpenHome@@IAE@XZ 004086b0 f i DvOpenhomeOrgTestBasic1Std.obj
 0001:000076d0       ??_EBrv@OpenHome@@UAEPAXI@Z 004086d0 f i DvOpenhomeOrgTestBasic1Std.obj
 0001:00007750       ??_EBrhz@OpenHome@@UAEPAXI@Z 00408750 f i DvOpenhomeOrgTestBasic1Std.obj
 0001:00007750       ??_GBrhz@OpenHome@@UAEPAXI@Z 00408750 f i DvOpenhomeOrgTestBasic1Std.obj
 0001:00007790       ??1Brhz@OpenHome@@UAE@XZ   00408790 f i DvOpenhomeOrgTestBasic1Std.obj
 0001:000077c0       ??1InvocationResponseString@Net@OpenHome@@UAE@XZ 004087c0 f i DvOpenhomeOrgTestBasic1Std.obj
 0001:000077f0       ??1IInvocationResponseString@Net@OpenHome@@UAE@XZ 004087f0 f i DvOpenhomeOrgTestBasic1Std.obj
 0001:00007820       ??1IWriter@OpenHome@@UAE@XZ 00408820 f i DvOpenhomeOrgTestBasic1Std.obj
 0001:00007840       ??_EIWriter@OpenHome@@UAEPAXI@Z 00408840 f i DvOpenhomeOrgTestBasic1Std.obj
 0001:00007840       ??_GIWriter@OpenHome@@UAEPAXI@Z 00408840 f i DvOpenhomeOrgTestBasic1Std.obj
 0001:00007880       ??_GIInvocationResponseString@Net@OpenHome@@UAEPAXI@Z 00408880 f i DvOpenhomeOrgTestBasic1Std.obj
 0001:00007880       ??_EIInvocationResponseString@Net@OpenHome@@UAEPAXI@Z 00408880 f i DvOpenhomeOrgTestBasic1Std.obj
 0001:000078c0       ??0Brh@OpenHome@@QAE@XZ    004088c0 f i DvOpenhomeOrgTestBasic1Std.obj
 0001:000078f0       ??_EBrh@OpenHome@@UAEPAXI@Z 004088f0 f i DvOpenhomeOrgTestBasic1Std.obj
 0001:000078f0       ??_GBrh@OpenHome@@UAEPAXI@Z 004088f0 f i DvOpenhomeOrgTestBasic1Std.obj
 0001:00007930       ??1Brh@OpenHome@@UAE@XZ    00408930 f i DvOpenhomeOrgTestBasic1Std.obj
 0001:00007960       ??1InvocationResponseBinary@Net@OpenHome@@UAE@XZ 00408960 f i DvOpenhomeOrgTestBasic1Std.obj
 0001:00007990       ??1IInvocationResponseBinary@Net@OpenHome@@UAE@XZ 00408990 f i DvOpenhomeOrgTestBasic1Std.obj
 0001:000079c0       ??_EIInvocationResponseBinary@Net@OpenHome@@UAEPAXI@Z 004089c0 f i DvOpenhomeOrgTestBasic1Std.obj
 0001:000079c0       ??_GIInvocationResponseBinary@Net@OpenHome@@UAEPAXI@Z 004089c0 f i DvOpenhomeOrgTestBasic1Std.obj
 0001:00007a00       ??$MakeFunctorDviInvocation@VDvProviderOpenhomeOrgTestBasic1Cpp@Net@OpenHome@@V123@@Net@OpenHome@@YG?AV?$MemberTranslatorDviInvocation@VDvProviderOpenhomeOrgTestBasic1Cpp@Net@OpenHome@@P8123@AEXAAVIDviInvocation@23@I@Z@01@AAVDvProviderOpenhomeOrgTestBasic1Cpp@01@ABQ8301@AEXAAVIDviInvocation@01@I@Z@Z 00408a00 f i DvOpenhomeOrgTestBasic1Std.obj
 0001:00007a30       ??0?$MemberTranslatorDviInvocation@VDvProviderOpenhomeOrgTestBasic1Cpp@Net@OpenHome@@P8123@AEXAAVIDviInvocation@23@I@Z@Net@OpenHome@@QAE@AAVDvProviderOpenhomeOrgTestBasic1Cpp@12@ABQ8312@AEXAAVIDviInvocation@12@I@Z@Z 00408a30 f i DvOpenhomeOrgTestBasic1Std.obj
 0001:00007a70       ??0FunctorDviInvocation@Net@OpenHome@@IAE@P6GXABV012@AAVIDviInvocation@12@I@ZPBX3I@Z 00408a70 f i DvOpenhomeOrgTestBasic1Std.obj
 0001:00007ac0       ?Thunk@?$MemberTranslatorDviInvocation@VDvProviderOpenhomeOrgTestBasic1Cpp@Net@OpenHome@@P8123@AEXAAVIDviInvocation@23@I@Z@Net@OpenHome@@SGXABVFunctorDviInvocation@23@AAVIDviInvocation@23@I@Z 00408ac0 f i DvOpenhomeOrgTestBasic1Std.obj
 0001:00007b10       ??0SyncIncrementOpenhomeOrgTestBasic1Cpp@@QAE@AAVCpProxyOpenhomeOrgTestBasic1Cpp@Net@OpenHome@@AAI@Z 00408b10 f   CpOpenhomeOrgTestBasic1Std.obj
 0001:00007b60       ?CompleteRequest@SyncIncrementOpenhomeOrgTestBasic1Cpp@@UAEXAAVIAsync@Net@OpenHome@@@Z 00408b60 f   CpOpenhomeOrgTestBasic1Std.obj
 0001:00007ba0       ??0SyncDecrementOpenhomeOrgTestBasic1Cpp@@QAE@AAVCpProxyOpenhomeOrgTestBasic1Cpp@Net@OpenHome@@AAH@Z 00408ba0 f   CpOpenhomeOrgTestBasic1Std.obj
 0001:00007bf0       ?CompleteRequest@SyncDecrementOpenhomeOrgTestBasic1Cpp@@UAEXAAVIAsync@Net@OpenHome@@@Z 00408bf0 f   CpOpenhomeOrgTestBasic1Std.obj
 0001:00007c30       ??0SyncToggleOpenhomeOrgTestBasic1Cpp@@QAE@AAVCpProxyOpenhomeOrgTestBasic1Cpp@Net@OpenHome@@AA_N@Z 00408c30 f   CpOpenhomeOrgTestBasic1Std.obj
 0001:00007c80       ?CompleteRequest@SyncToggleOpenhomeOrgTestBasic1Cpp@@UAEXAAVIAsync@Net@OpenHome@@@Z 00408c80 f   CpOpenhomeOrgTestBasic1Std.obj
 0001:00007cc0       ??0SyncEchoStringOpenhomeOrgTestBasic1Cpp@@QAE@AAVCpProxyOpenhomeOrgTestBasic1Cpp@Net@OpenHome@@AAV?$basic_string@DU?$char_traits@D@std@@V?$allocator@D@2@@std@@@Z 00408cc0 f   CpOpenhomeOrgTestBasic1Std.obj
 0001:00007d10       ?CompleteRequest@SyncEchoStringOpenhomeOrgTestBasic1Cpp@@UAEXAAVIAsync@Net@OpenHome@@@Z 00408d10 f   CpOpenhomeOrgTestBasic1Std.obj
 0001:00007d50       ??0SyncEchoBinaryOpenhomeOrgTestBasic1Cpp@@QAE@AAVCpProxyOpenhomeOrgTestBasic1Cpp@Net@OpenHome@@AAV?$basic_string@DU?$char_traits@D@std@@V?$allocator@D@2@@std@@@Z 00408d50 f   CpOpenhomeOrgTestBasic1Std.obj
 0001:00007da0       ?CompleteRequest@SyncEchoBinaryOpenhomeOrgTestBasic1Cpp@@UAEXAAVIAsync@Net@OpenHome@@@Z 00408da0 f   CpOpenhomeOrgTestBasic1Std.obj
 0001:00007de0       ??0SyncSetUintOpenhomeOrgTestBasic1Cpp@@QAE@AAVCpProxyOpenhomeOrgTestBasic1Cpp@Net@OpenHome@@@Z 00408de0 f   CpOpenhomeOrgTestBasic1Std.obj
 0001:00007e20       ?CompleteRequest@SyncSetUintOpenhomeOrgTestBasic1Cpp@@UAEXAAVIAsync@Net@OpenHome@@@Z 00408e20 f   CpOpenhomeOrgTestBasic1Std.obj
 0001:00007e50       ??0SyncGetUintOpenhomeOrgTestBasic1Cpp@@QAE@AAVCpProxyOpenhomeOrgTestBasic1Cpp@Net@OpenHome@@AAI@Z 00408e50 f   CpOpenhomeOrgTestBasic1Std.obj
 0001:00007ea0       ?CompleteRequest@SyncGetUintOpenhomeOrgTestBasic1Cpp@@UAEXAAVIAsync@Net@OpenHome@@@Z 00408ea0 f   CpOpenhomeOrgTestBasic1Std.obj
 0001:00007ee0       ??0SyncSetIntOpenhomeOrgTestBasic1Cpp@@QAE@AAVCpProxyOpenhomeOrgTestBasic1Cpp@Net@OpenHome@@@Z 00408ee0 f   CpOpenhomeOrgTestBasic1Std.obj
 0001:00007f20       ?CompleteRequest@SyncSetIntOpenhomeOrgTestBasic1Cpp@@UAEXAAVIAsync@Net@OpenHome@@@Z 00408f20 f   CpOpenhomeOrgTestBasic1Std.obj
 0001:00007f50       ??0SyncGetIntOpenhomeOrgTestBasic1Cpp@@QAE@AAVCpProxyOpenhomeOrgTestBasic1Cpp@Net@OpenHome@@AAH@Z 00408f50 f   CpOpenhomeOrgTestBasic1Std.obj
 0001:00007fa0       ?CompleteRequest@SyncGetIntOpenhomeOrgTestBasic1Cpp@@UAEXAAVIAsync@Net@OpenHome@@@Z 00408fa0 f   CpOpenhomeOrgTestBasic1Std.obj
 0001:00007fe0       ??0SyncSetBoolOpenhomeOrgTestBasic1Cpp@@QAE@AAVCpProxyOpenhomeOrgTestBasic1Cpp@Net@OpenHome@@@Z 00408fe0 f   CpOpenhomeOrgTestBasic1Std.obj
 0001:00008020       ?CompleteRequest@SyncSetBoolOpenhomeOrgTestBasic1Cpp@@UAEXAAVIAsync@Net@OpenHome@@@Z 00409020 f   CpOpenhomeOrgTestBasic1Std.obj
 0001:00008050       ??0SyncGetBoolOpenhomeOrgTestBasic1Cpp@@QAE@AAVCpProxyOpenhomeOrgTestBasic1Cpp@Net@OpenHome@@AA_N@Z 00409050 f   CpOpenhomeOrgTestBasic1Std.obj
 0001:000080a0       ?CompleteRequest@SyncGetBoolOpenhomeOrgTestBasic1Cpp@@UAEXAAVIAsync@Net@OpenHome@@@Z 004090a0 f   CpOpenhomeOrgTestBasic1Std.obj
 0001:000080e0       ??0SyncSetMultipleOpenhomeOrgTestBasic1Cpp@@QAE@AAVCpProxyOpenhomeOrgTestBasic1Cpp@Net@OpenHome@@@Z 004090e0 f   CpOpenhomeOrgTestBasic1Std.obj
 0001:00008120       ?CompleteRequest@SyncSetMultipleOpenhomeOrgTestBasic1Cpp@@UAEXAAVIAsync@Net@OpenHome@@@Z 00409120 f   CpOpenhomeOrgTestBasic1Std.obj
 0001:00008150       ??0SyncSetStringOpenhomeOrgTestBasic1Cpp@@QAE@AAVCpProxyOpenhomeOrgTestBasic1Cpp@Net@OpenHome@@@Z 00409150 f   CpOpenhomeOrgTestBasic1Std.obj
 0001:00008190       ?CompleteRequest@SyncSetStringOpenhomeOrgTestBasic1Cpp@@UAEXAAVIAsync@Net@OpenHome@@@Z 00409190 f   CpOpenhomeOrgTestBasic1Std.obj
 0001:000081c0       ??0SyncGetStringOpenhomeOrgTestBasic1Cpp@@QAE@AAVCpProxyOpenhomeOrgTestBasic1Cpp@Net@OpenHome@@AAV?$basic_string@DU?$char_traits@D@std@@V?$allocator@D@2@@std@@@Z 004091c0 f   CpOpenhomeOrgTestBasic1Std.obj
 0001:00008210       ?CompleteRequest@SyncGetStringOpenhomeOrgTestBasic1Cpp@@UAEXAAVIAsync@Net@OpenHome@@@Z 00409210 f   CpOpenhomeOrgTestBasic1Std.obj
 0001:00008250       ??0SyncSetBinaryOpenhomeOrgTestBasic1Cpp@@QAE@AAVCpProxyOpenhomeOrgTestBasic1Cpp@Net@OpenHome@@@Z 00409250 f   CpOpenhomeOrgTestBasic1Std.obj
 0001:00008290       ?CompleteRequest@SyncSetBinaryOpenhomeOrgTestBasic1Cpp@@UAEXAAVIAsync@Net@OpenHome@@@Z 00409290 f   CpOpenhomeOrgTestBasic1Std.obj
 0001:000082c0       ??0SyncGetBinaryOpenhomeOrgTestBasic1Cpp@@QAE@AAVCpProxyOpenhomeOrgTestBasic1Cpp@Net@OpenHome@@AAV?$basic_string@DU?$char_traits@D@std@@V?$allocator@D@2@@std@@@Z 004092c0 f   CpOpenhomeOrgTestBasic1Std.obj
 0001:00008310       ?CompleteRequest@SyncGetBinaryOpenhomeOrgTestBasic1Cpp@@UAEXAAVIAsync@Net@OpenHome@@@Z 00409310 f   CpOpenhomeOrgTestBasic1Std.obj
 0001:00008350       ??0SyncToggleBoolOpenhomeOrgTestBasic1Cpp@@QAE@AAVCpProxyOpenhomeOrgTestBasic1Cpp@Net@OpenHome@@@Z 00409350 f   CpOpenhomeOrgTestBasic1Std.obj
 0001:00008390       ?CompleteRequest@SyncToggleBoolOpenhomeOrgTestBasic1Cpp@@UAEXAAVIAsync@Net@OpenHome@@@Z 00409390 f   CpOpenhomeOrgTestBasic1Std.obj
 0001:000083c0       ??0SyncWriteFileOpenhomeOrgTestBasic1Cpp@@QAE@AAVCpProxyOpenhomeOrgTestBasic1Cpp@Net@OpenHome@@@Z 004093c0 f   CpOpenhomeOrgTestBasic1Std.obj
 0001:00008400       ?CompleteRequest@SyncWriteFileOpenhomeOrgTestBasic1Cpp@@UAEXAAVIAsync@Net@OpenHome@@@Z 00409400 f   CpOpenhomeOrgTestBasic1Std.obj
 0001:00008430       ??0SyncShutdownOpenhomeOrgTestBasic1Cpp@@QAE@AAVCpProxyOpenhomeOrgTestBasic1Cpp@Net@OpenHome@@@Z 00409430 f   CpOpenhomeOrgTestBasic1Std.obj
 0001:00008470       ?CompleteRequest@SyncShutdownOpenhomeOrgTestBasic1Cpp@@UAEXAAVIAsync@Net@OpenHome@@@Z 00409470 f   CpOpenhomeOrgTestBasic1Std.obj
 0001:000084a0       ??0CpProxyOpenhomeOrgTestBasic1Cpp@Net@OpenHome@@QAE@AAVCpDeviceCpp@12@@Z 004094a0 f   CpOpenhomeOrgTestBasic1Std.obj
 0001:000099e0       ??1CpProxyOpenhomeOrgTestBasic1Cpp@Net@OpenHome@@UAE@XZ 0040a9e0 f   CpOpenhomeOrgTestBasic1Std.obj
 0001:00009e70       ?SyncIncrement@CpProxyOpenhomeOrgTestBasic1Cpp@Net@OpenHome@@QAEXIAAI@Z 0040ae70 f   CpOpenhomeOrgTestBasic1Std.obj
 0001:00009f40       ?BeginIncrement@CpProxyOpenhomeOrgTestBasic1Cpp@Net@OpenHome@@QAEXIAAVFunctorAsync@23@@Z 0040af40 f   CpOpenhomeOrgTestBasic1Std.obj
 0001:0000a0d0       ?EndIncrement@CpProxyOpenhomeOrgTestBasic1Cpp@Net@OpenHome@@QAEXAAVIAsync@23@AAI@Z 0040b0d0 f   CpOpenhomeOrgTestBasic1Std.obj
 0001:0000a260       ?SyncDecrement@CpProxyOpenhomeOrgTestBasic1Cpp@Net@OpenHome@@QAEXHAAH@Z 0040b260 f   CpOpenhomeOrgTestBasic1Std.obj
 0001:0000a330       ?BeginDecrement@CpProxyOpenhomeOrgTestBasic1Cpp@Net@OpenHome@@QAEXHAAVFunctorAsync@23@@Z 0040b330 f   CpOpenhomeOrgTestBasic1Std.obj
 0001:0000a4c0       ?EndDecrement@CpProxyOpenhomeOrgTestBasic1Cpp@Net@OpenHome@@QAEXAAVIAsync@23@AAH@Z 0040b4c0 f   CpOpenhomeOrgTestBasic1Std.obj
 0001:0000a650       ?SyncToggle@CpProxyOpenhomeOrgTestBasic1Cpp@Net@OpenHome@@QAEX_NAA_N@Z 0040b650 f   CpOpenhomeOrgTestBasic1Std.obj
 0001:0000a720       ?BeginToggle@CpProxyOpenhomeOrgTestBasic1Cpp@Net@OpenHome@@QAEX_NAAVFunctorAsync@23@@Z 0040b720 f   CpOpenhomeOrgTestBasic1Std.obj
 0001:0000a8b0       ?EndToggle@CpProxyOpenhomeOrgTestBasic1Cpp@Net@OpenHome@@QAEXAAVIAsync@23@AA_N@Z 0040b8b0 f   CpOpenhomeOrgTestBasic1Std.obj
 0001:0000aa40       ?SyncEchoString@CpProxyOpenhomeOrgTestBasic1Cpp@Net@OpenHome@@QAEXABV?$basic_string@DU?$char_traits@D@std@@V?$allocator@D@2@@std@@AAV45@@Z 0040ba40 f   CpOpenhomeOrgTestBasic1Std.obj
 0001:0000ab10       ?BeginEchoString@CpProxyOpenhomeOrgTestBasic1Cpp@Net@OpenHome@@QAEXABV?$basic_string@DU?$char_traits@D@std@@V?$allocator@D@2@@std@@AAVFunctorAsync@23@@Z 0040bb10 f   CpOpenhomeOrgTestBasic1Std.obj
 0001:0000acf0       ?EndEchoString@CpProxyOpenhomeOrgTestBasic1Cpp@Net@OpenHome@@QAEXAAVIAsync@23@AAV?$basic_string@DU?$char_traits@D@std@@V?$allocator@D@2@@std@@@Z 0040bcf0 f   CpOpenhomeOrgTestBasic1Std.obj
 0001:0000aea0       ?SyncEchoBinary@CpProxyOpenhomeOrgTestBasic1Cpp@Net@OpenHome@@QAEXABV?$basic_string@DU?$char_traits@D@std@@V?$allocator@D@2@@std@@AAV45@@Z 0040bea0 f   CpOpenhomeOrgTestBasic1Std.obj
 0001:0000af70       ?BeginEchoBinary@CpProxyOpenhomeOrgTestBasic1Cpp@Net@OpenHome@@QAEXABV?$basic_string@DU?$char_traits@D@std@@V?$allocator@D@2@@std@@AAVFunctorAsync@23@@Z 0040bf70 f   CpOpenhomeOrgTestBasic1Std.obj
 0001:0000b150       ?EndEchoBinary@CpProxyOpenhomeOrgTestBasic1Cpp@Net@OpenHome@@QAEXAAVIAsync@23@AAV?$basic_string@DU?$char_traits@D@std@@V?$allocator@D@2@@std@@@Z 0040c150 f   CpOpenhomeOrgTestBasic1Std.obj
 0001:0000b300       ?SyncSetUint@CpProxyOpenhomeOrgTestBasic1Cpp@Net@OpenHome@@QAEXI@Z 0040c300 f   CpOpenhomeOrgTestBasic1Std.obj
 0001:0000b3d0       ?BeginSetUint@CpProxyOpenhomeOrgTestBasic1Cpp@Net@OpenHome@@QAEXIAAVFunctorAsync@23@@Z 0040c3d0 f   CpOpenhomeOrgTestBasic1Std.obj
 0001:0000b4f0       ?EndSetUint@CpProxyOpenhomeOrgTestBasic1Cpp@Net@OpenHome@@QAEXAAVIAsync@23@@Z 0040c4f0 f   CpOpenhomeOrgTestBasic1Std.obj
 0001:0000b650       ?SyncGetUint@CpProxyOpenhomeOrgTestBasic1Cpp@Net@OpenHome@@QAEXAAI@Z 0040c650 f   CpOpenhomeOrgTestBasic1Std.obj
 0001:0000b720       ?BeginGetUint@CpProxyOpenhomeOrgTestBasic1Cpp@Net@OpenHome@@QAEXAAVFunctorAsync@23@@Z 0040c720 f   CpOpenhomeOrgTestBasic1Std.obj
 0001:0000b840       ?EndGetUint@CpProxyOpenhomeOrgTestBasic1Cpp@Net@OpenHome@@QAEXAAVIAsync@23@AAI@Z 0040c840 f   CpOpenhomeOrgTestBasic1Std.obj
 0001:0000b9d0       ?SyncSetInt@CpProxyOpenhomeOrgTestBasic1Cpp@Net@OpenHome@@QAEXH@Z 0040c9d0 f   CpOpenhomeOrgTestBasic1Std.obj
 0001:0000baa0       ?BeginSetInt@CpProxyOpenhomeOrgTestBasic1Cpp@Net@OpenHome@@QAEXHAAVFunctorAsync@23@@Z 0040caa0 f   CpOpenhomeOrgTestBasic1Std.obj
 0001:0000bbc0       ?EndSetInt@CpProxyOpenhomeOrgTestBasic1Cpp@Net@OpenHome@@QAEXAAVIAsync@23@@Z 0040cbc0 f   CpOpenhomeOrgTestBasic1Std.obj
 0001:0000bd20       ?SyncGetInt@CpProxyOpenhomeOrgTestBasic1Cpp@Net@OpenHome@@QAEXAAH@Z 0040cd20 f   CpOpenhomeOrgTestBasic1Std.obj
 0001:0000bdf0       ?BeginGetInt@CpProxyOpenhomeOrgTestBasic1Cpp@Net@OpenHome@@QAEXAAVFunctorAsync@23@@Z 0040cdf0 f   CpOpenhomeOrgTestBasic1Std.obj
 0001:0000bf10       ?EndGetInt@CpProxyOpenhomeOrgTestBasic1Cpp@Net@OpenHome@@QAEXAAVIAsync@23@AAH@Z 0040cf10 f   CpOpenhomeOrgTestBasic1Std.obj
 0001:0000c0a0       ?SyncSetBool@CpProxyOpenhomeOrgTestBasic1Cpp@Net@OpenHome@@QAEX_N@Z 0040d0a0 f   CpOpenhomeOrgTestBasic1Std.obj
 0001:0000c170       ?BeginSetBool@CpProxyOpenhomeOrgTestBasic1Cpp@Net@OpenHome@@QAEX_NAAVFunctorAsync@23@@Z 0040d170 f   CpOpenhomeOrgTestBasic1Std.obj
 0001:0000c290       ?EndSetBool@CpProxyOpenhomeOrgTestBasic1Cpp@Net@OpenHome@@QAEXAAVIAsync@23@@Z 0040d290 f   CpOpenhomeOrgTestBasic1Std.obj
 0001:0000c3f0       ?SyncGetBool@CpProxyOpenhomeOrgTestBasic1Cpp@Net@OpenHome@@QAEXAA_N@Z 0040d3f0 f   CpOpenhomeOrgTestBasic1Std.obj
 0001:0000c4c0       ?BeginGetBool@CpProxyOpenhomeOrgTestBasic1Cpp@Net@OpenHome@@QAEXAAVFunctorAsync@23@@Z 0040d4c0 f   CpOpenhomeOrgTestBasic1Std.obj
 0001:0000c5e0       ?EndGetBool@CpProxyOpenhomeOrgTestBasic1Cpp@Net@OpenHome@@QAEXAAVIAsync@23@AA_N@Z 0040d5e0 f   CpOpenhomeOrgTestBasic1Std.obj
 0001:0000c770       ?SyncSetMultiple@CpProxyOpenhomeOrgTestBasic1Cpp@Net@OpenHome@@QAEXIH_N@Z 0040d770 f   CpOpenhomeOrgTestBasic1Std.obj
 0001:0000c840       ?BeginSetMultiple@CpProxyOpenhomeOrgTestBasic1Cpp@Net@OpenHome@@QAEXIH_NAAVFunctorAsync@23@@Z 0040d840 f   CpOpenhomeOrgTestBasic1Std.obj
 0001:0000ca30       ?EndSetMultiple@CpProxyOpenhomeOrgTestBasic1Cpp@Net@OpenHome@@QAEXAAVIAsync@23@@Z 0040da30 f   CpOpenhomeOrgTestBasic1Std.obj
 0001:0000cb90       ?SyncSetString@CpProxyOpenhomeOrgTestBasic1Cpp@Net@OpenHome@@QAEXABV?$basic_string@DU?$char_traits@D@std@@V?$allocator@D@2@@std@@@Z 0040db90 f   CpOpenhomeOrgTestBasic1Std.obj
 0001:0000cc60       ?BeginSetString@CpProxyOpenhomeOrgTestBasic1Cpp@Net@OpenHome@@QAEXABV?$basic_string@DU?$char_traits@D@std@@V?$allocator@D@2@@std@@AAVFunctorAsync@23@@Z 0040dc60 f   CpOpenhomeOrgTestBasic1Std.obj
 0001:0000cdd0       ?EndSetString@CpProxyOpenhomeOrgTestBasic1Cpp@Net@OpenHome@@QAEXAAVIAsync@23@@Z 0040ddd0 f   CpOpenhomeOrgTestBasic1Std.obj
 0001:0000cf30       ?SyncGetString@CpProxyOpenhomeOrgTestBasic1Cpp@Net@OpenHome@@QAEXAAV?$basic_string@DU?$char_traits@D@std@@V?$allocator@D@2@@std@@@Z 0040df30 f   CpOpenhomeOrgTestBasic1Std.obj
 0001:0000d000       ?BeginGetString@CpProxyOpenhomeOrgTestBasic1Cpp@Net@OpenHome@@QAEXAAVFunctorAsync@23@@Z 0040e000 f   CpOpenhomeOrgTestBasic1Std.obj
 0001:0000d120       ?EndGetString@CpProxyOpenhomeOrgTestBasic1Cpp@Net@OpenHome@@QAEXAAVIAsync@23@AAV?$basic_string@DU?$char_traits@D@std@@V?$allocator@D@2@@std@@@Z 0040e120 f   CpOpenhomeOrgTestBasic1Std.obj
 0001:0000d2d0       ?SyncSetBinary@CpProxyOpenhomeOrgTestBasic1Cpp@Net@OpenHome@@QAEXABV?$basic_string@DU?$char_traits@D@std@@V?$allocator@D@2@@std@@@Z 0040e2d0 f   CpOpenhomeOrgTestBasic1Std.obj
 0001:0000d3a0       ?BeginSetBinary@CpProxyOpenhomeOrgTestBasic1Cpp@Net@OpenHome@@QAEXABV?$basic_string@DU?$char_traits@D@std@@V?$allocator@D@2@@std@@AAVFunctorAsync@23@@Z 0040e3a0 f   CpOpenhomeOrgTestBasic1Std.obj
 0001:0000d510       ?EndSetBinary@CpProxyOpenhomeOrgTestBasic1Cpp@Net@OpenHome@@QAEXAAVIAsync@23@@Z 0040e510 f   CpOpenhomeOrgTestBasic1Std.obj
 0001:0000d670       ?SyncGetBinary@CpProxyOpenhomeOrgTestBasic1Cpp@Net@OpenHome@@QAEXAAV?$basic_string@DU?$char_traits@D@std@@V?$allocator@D@2@@std@@@Z 0040e670 f   CpOpenhomeOrgTestBasic1Std.obj
 0001:0000d740       ?BeginGetBinary@CpProxyOpenhomeOrgTestBasic1Cpp@Net@OpenHome@@QAEXAAVFunctorAsync@23@@Z 0040e740 f   CpOpenhomeOrgTestBasic1Std.obj
 0001:0000d860       ?EndGetBinary@CpProxyOpenhomeOrgTestBasic1Cpp@Net@OpenHome@@QAEXAAVIAsync@23@AAV?$basic_string@DU?$char_traits@D@std@@V?$allocator@D@2@@std@@@Z 0040e860 f   CpOpenhomeOrgTestBasic1Std.obj
 0001:0000da10       ?SyncToggleBool@CpProxyOpenhomeOrgTestBasic1Cpp@Net@OpenHome@@QAEXXZ 0040ea10 f   CpOpenhomeOrgTestBasic1Std.obj
 0001:0000dad0       ?BeginToggleBool@CpProxyOpenhomeOrgTestBasic1Cpp@Net@OpenHome@@QAEXAAVFunctorAsync@23@@Z 0040ead0 f   CpOpenhomeOrgTestBasic1Std.obj
 0001:0000db40       ?EndToggleBool@CpProxyOpenhomeOrgTestBasic1Cpp@Net@OpenHome@@QAEXAAVIAsync@23@@Z 0040eb40 f   CpOpenhomeOrgTestBasic1Std.obj
 0001:0000dca0       ?SyncWriteFile@CpProxyOpenhomeOrgTestBasic1Cpp@Net@OpenHome@@QAEXABV?$basic_string@DU?$char_traits@D@std@@V?$allocator@D@2@@std@@0@Z 0040eca0 f   CpOpenhomeOrgTestBasic1Std.obj
 0001:0000dd70       ?BeginWriteFile@CpProxyOpenhomeOrgTestBasic1Cpp@Net@OpenHome@@QAEXABV?$basic_string@DU?$char_traits@D@std@@V?$allocator@D@2@@std@@0AAVFunctorAsync@23@@Z 0040ed70 f   CpOpenhomeOrgTestBasic1Std.obj
 0001:0000df80       ?EndWriteFile@CpProxyOpenhomeOrgTestBasic1Cpp@Net@OpenHome@@QAEXAAVIAsync@23@@Z 0040ef80 f   CpOpenhomeOrgTestBasic1Std.obj
 0001:0000e0e0       ?SyncShutdown@CpProxyOpenhomeOrgTestBasic1Cpp@Net@OpenHome@@QAEXXZ 0040f0e0 f   CpOpenhomeOrgTestBasic1Std.obj
 0001:0000e1a0       ?BeginShutdown@CpProxyOpenhomeOrgTestBasic1Cpp@Net@OpenHome@@QAEXAAVFunctorAsync@23@@Z 0040f1a0 f   CpOpenhomeOrgTestBasic1Std.obj
 0001:0000e210       ?EndShutdown@CpProxyOpenhomeOrgTestBasic1Cpp@Net@OpenHome@@QAEXAAVIAsync@23@@Z 0040f210 f   CpOpenhomeOrgTestBasic1Std.obj
 0001:0000e370       ?SetPropertyVarUintChanged@CpProxyOpenhomeOrgTestBasic1Cpp@Net@OpenHome@@QAEXAAVFunctor@3@@Z 0040f370 f   CpOpenhomeOrgTestBasic1Std.obj
 0001:0000e3d0       ?SetPropertyVarIntChanged@CpProxyOpenhomeOrgTestBasic1Cpp@Net@OpenHome@@QAEXAAVFunctor@3@@Z 0040f3d0 f   CpOpenhomeOrgTestBasic1Std.obj
 0001:0000e430       ?SetPropertyVarBoolChanged@CpProxyOpenhomeOrgTestBasic1Cpp@Net@OpenHome@@QAEXAAVFunctor@3@@Z 0040f430 f   CpOpenhomeOrgTestBasic1Std.obj
 0001:0000e490       ?SetPropertyVarStrChanged@CpProxyOpenhomeOrgTestBasic1Cpp@Net@OpenHome@@QAEXAAVFunctor@3@@Z 0040f490 f   CpOpenhomeOrgTestBasic1Std.obj
 0001:0000e4f0       ?SetPropertyVarBinChanged@CpProxyOpenhomeOrgTestBasic1Cpp@Net@OpenHome@@QAEXAAVFunctor@3@@Z 0040f4f0 f   CpOpenhomeOrgTestBasic1Std.obj
 0001:0000e550       ?PropertyVarUint@CpProxyOpenhomeOrgTestBasic1Cpp@Net@OpenHome@@QBEXAAI@Z 0040f550 f   CpOpenhomeOrgTestBasic1Std.obj
 0001:0000e5b0       ?PropertyVarInt@CpProxyOpenhomeOrgTestBasic1Cpp@Net@OpenHome@@QBEXAAH@Z 0040f5b0 f   CpOpenhomeOrgTestBasic1Std.obj
 0001:0000e610       ?PropertyVarBool@CpProxyOpenhomeOrgTestBasic1Cpp@Net@OpenHome@@QBEXAA_N@Z 0040f610 f   CpOpenhomeOrgTestBasic1Std.obj
 0001:0000e670       ?PropertyVarStr@CpProxyOpenhomeOrgTestBasic1Cpp@Net@OpenHome@@QBEXAAV?$basic_string@DU?$char_traits@D@std@@V?$allocator@D@2@@std@@@Z 0040f670 f   CpOpenhomeOrgTestBasic1Std.obj
 0001:0000e700       ?PropertyVarBin@CpProxyOpenhomeOrgTestBasic1Cpp@Net@OpenHome@@QBEXAAV?$basic_string@DU?$char_traits@D@std@@V?$allocator@D@2@@std@@@Z 0040f700 f   CpOpenhomeOrgTestBasic1Std.obj
 0001:0000e790       ?VarUintPropertyChanged@CpProxyOpenhomeOrgTestBasic1Cpp@Net@OpenHome@@AAEXXZ 0040f790 f   CpOpenhomeOrgTestBasic1Std.obj
 0001:0000e7e0       ?VarIntPropertyChanged@CpProxyOpenhomeOrgTestBasic1Cpp@Net@OpenHome@@AAEXXZ 0040f7e0 f   CpOpenhomeOrgTestBasic1Std.obj
 0001:0000e830       ?VarBoolPropertyChanged@CpProxyOpenhomeOrgTestBasic1Cpp@Net@OpenHome@@AAEXXZ 0040f830 f   CpOpenhomeOrgTestBasic1Std.obj
 0001:0000e880       ?VarStrPropertyChanged@CpProxyOpenhomeOrgTestBasic1Cpp@Net@OpenHome@@AAEXXZ 0040f880 f   CpOpenhomeOrgTestBasic1Std.obj
 0001:0000e8d0       ?VarBinPropertyChanged@CpProxyOpenhomeOrgTestBasic1Cpp@Net@OpenHome@@AAEXXZ 0040f8d0 f   CpOpenhomeOrgTestBasic1Std.obj
 0001:0000e920       ??0Functor@OpenHome@@QAE@XZ 0040f920 f i CpOpenhomeOrgTestBasic1Std.obj
 0001:0000e950       ??_GCpProxyOpenhomeOrgTestBasic1Cpp@Net@OpenHome@@UAEPAXI@Z 0040f950 f i CpOpenhomeOrgTestBasic1Std.obj
 0001:0000e950       ??_ECpProxyOpenhomeOrgTestBasic1Cpp@Net@OpenHome@@UAEPAXI@Z 0040f950 f i CpOpenhomeOrgTestBasic1Std.obj
 0001:0000e990       ??_GAction@Net@OpenHome@@QAEPAXI@Z 0040f990 f i CpOpenhomeOrgTestBasic1Std.obj
 0001:0000e9d0       ??1SyncIncrementOpenhomeOrgTestBasic1Cpp@@QAE@XZ 0040f9d0 f i CpOpenhomeOrgTestBasic1Std.obj
 0001:0000ea00       ??8Brx@OpenHome@@QBE_NABV01@@Z 0040fa00 f i CpOpenhomeOrgTestBasic1Std.obj
 0001:0000ea30       ??0ProxyError@OpenHome@@QAE@PBDI@Z 0040fa30 f i CpOpenhomeOrgTestBasic1Std.obj
 0001:0000ea70       ??1ProxyError@OpenHome@@QAE@XZ 0040fa70 f i CpOpenhomeOrgTestBasic1Std.obj
 0001:0000eaa0       ??1SyncDecrementOpenhomeOrgTestBasic1Cpp@@QAE@XZ 0040faa0 f i CpOpenhomeOrgTestBasic1Std.obj
 0001:0000ead0       ??1SyncToggleOpenhomeOrgTestBasic1Cpp@@QAE@XZ 0040fad0 f i CpOpenhomeOrgTestBasic1Std.obj
 0001:0000eb00       ??1SyncEchoStringOpenhomeOrgTestBasic1Cpp@@QAE@XZ 0040fb00 f i CpOpenhomeOrgTestBasic1Std.obj
 0001:0000eb30       ??1SyncEchoBinaryOpenhomeOrgTestBasic1Cpp@@QAE@XZ 0040fb30 f i CpOpenhomeOrgTestBasic1Std.obj
 0001:0000eb60       ??1SyncSetUintOpenhomeOrgTestBasic1Cpp@@QAE@XZ 0040fb60 f i CpOpenhomeOrgTestBasic1Std.obj
 0001:0000eb90       ??1SyncGetUintOpenhomeOrgTestBasic1Cpp@@QAE@XZ 0040fb90 f i CpOpenhomeOrgTestBasic1Std.obj
 0001:0000ebc0       ??1SyncSetIntOpenhomeOrgTestBasic1Cpp@@QAE@XZ 0040fbc0 f i CpOpenhomeOrgTestBasic1Std.obj
 0001:0000ebf0       ??1SyncGetIntOpenhomeOrgTestBasic1Cpp@@QAE@XZ 0040fbf0 f i CpOpenhomeOrgTestBasic1Std.obj
 0001:0000ec20       ??1SyncSetBoolOpenhomeOrgTestBasic1Cpp@@QAE@XZ 0040fc20 f i CpOpenhomeOrgTestBasic1Std.obj
 0001:0000ec50       ??1SyncGetBoolOpenhomeOrgTestBasic1Cpp@@QAE@XZ 0040fc50 f i CpOpenhomeOrgTestBasic1Std.obj
 0001:0000ec80       ??1SyncSetMultipleOpenhomeOrgTestBasic1Cpp@@QAE@XZ 0040fc80 f i CpOpenhomeOrgTestBasic1Std.obj
 0001:0000ecb0       ??1SyncSetStringOpenhomeOrgTestBasic1Cpp@@QAE@XZ 0040fcb0 f i CpOpenhomeOrgTestBasic1Std.obj
 0001:0000ece0       ??1SyncGetStringOpenhomeOrgTestBasic1Cpp@@QAE@XZ 0040fce0 f i CpOpenhomeOrgTestBasic1Std.obj
 0001:0000ed10       ??1SyncSetBinaryOpenhomeOrgTestBasic1Cpp@@QAE@XZ 0040fd10 f i CpOpenhomeOrgTestBasic1Std.obj
 0001:0000ed40       ??1SyncGetBinaryOpenhomeOrgTestBasic1Cpp@@QAE@XZ 0040fd40 f i CpOpenhomeOrgTestBasic1Std.obj
 0001:0000ed70       ??1SyncToggleBoolOpenhomeOrgTestBasic1Cpp@@QAE@XZ 0040fd70 f i CpOpenhomeOrgTestBasic1Std.obj
 0001:0000eda0       ??1SyncWriteFileOpenhomeOrgTestBasic1Cpp@@QAE@XZ 0040fda0 f i CpOpenhomeOrgTestBasic1Std.obj
 0001:0000edd0       ??1SyncShutdownOpenhomeOrgTestBasic1Cpp@@QAE@XZ 0040fdd0 f i CpOpenhomeOrgTestBasic1Std.obj
 0001:0000ee00       ??A?$vector@PAVParameter@Net@OpenHome@@V?$allocator@PAVParameter@Net@OpenHome@@@std@@@std@@QBEABQAVParameter@Net@OpenHome@@I@Z 0040fe00 f i CpOpenhomeOrgTestBasic1Std.obj
 0001:0000eea0       ??A?$vector@PAVArgument@Net@OpenHome@@V?$allocator@PAVArgument@Net@OpenHome@@@std@@@std@@QAEAAPAVArgument@Net@OpenHome@@I@Z 0040fea0 f i CpOpenhomeOrgTestBasic1Std.obj
 0001:0000ef40       ?size@?$vector@PAVParameter@Net@OpenHome@@V?$allocator@PAVParameter@Net@OpenHome@@@std@@@std@@QBEIXZ 0040ff40 f i CpOpenhomeOrgTestBasic1Std.obj
 0001:0000ef70       ?size@?$vector@PAVArgument@Net@OpenHome@@V?$allocator@PAVArgument@Net@OpenHome@@@std@@@std@@QBEIXZ 0040ff70 f i CpOpenhomeOrgTestBasic1Std.obj
 0001:0000efa0       ??$MakeFunctor@VCpProxyOpenhomeOrgTestBasic1Cpp@Net@OpenHome@@XV123@@OpenHome@@YG?AV?$MemberTranslator@VCpProxyOpenhomeOrgTestBasic1Cpp@Net@OpenHome@@P8123@AEXXZ@0@AAVCpProxyOpenhomeOrgTestBasic1Cpp@Net@0@ABQ8230@AEXXZ@Z 0040ffa0 f i CpOpenhomeOrgTestBasic1Std.obj
 0001:0000efd0       ??0?$MemberTranslator@VCpProxyOpenhomeOrgTestBasic1Cpp@Net@OpenHome@@P8123@AEXXZ@OpenHome@@QAE@AAVCpProxyOpenhomeOrgTestBasic1Cpp@Net@1@ABQ8231@AEXXZ@Z 0040ffd0 f i CpOpenhomeOrgTestBasic1Std.obj
 0001:0000f010       ??0Functor@OpenHome@@IAE@P6GXABV01@@ZPBX2I@Z 00410010 f i CpOpenhomeOrgTestBasic1Std.obj
 0001:0000f060       ?Thunk@?$MemberTranslator@VCpProxyOpenhomeOrgTestBasic1Cpp@Net@OpenHome@@P8123@AEXXZ@OpenHome@@SGXABVFunctor@2@@Z 00410060 f i CpOpenhomeOrgTestBasic1Std.obj
 0001:0000f0b0       ?Log@TestConsole@@QAEXPBD@Z 004100b0 f   libTestFramework:TestFramework.obj
 0001:0000f0e0       ?AssertHandlerTest@TestFramework@OpenHome@@YGXPBDI@Z 004100e0 f   libTestFramework:TestFramework.obj
 0001:0000f190       ??0Suite@TestFramework@OpenHome@@IAE@PBD@Z 00410190 f   libTestFramework:TestFramework.obj
 0001:0000f1d0       ??1Suite@TestFramework@OpenHome@@MAE@XZ 004101d0 f   libTestFramework:TestFramework.obj
 0001:0000f1f0       ?Description@Suite@TestFramework@OpenHome@@QBEPBDXZ 004101f0 f   libTestFramework:TestFramework.obj
 0001:0000f210       ??0Runner@TestFramework@OpenHome@@QAE@PBD@Z 00410210 f   libTestFramework:TestFramework.obj
 0001:0000f250       ??1Runner@TestFramework@OpenHome@@QAE@XZ 00410250 f   libTestFramework:TestFramework.obj
 0001:0000f270       ?Add@Runner@TestFramework@OpenHome@@QAEXPAVSuite@23@@Z 00410270 f   libTestFramework:TestFramework.obj
 0001:0000f2f0       ?Run@Runner@TestFramework@OpenHome@@QAEXXZ 004102f0 f   libTestFramework:TestFramework.obj
 0001:0000f5a0       ?Fail@TestFramework@OpenHome@@YGXPBDI00@Z 004105a0 f   libTestFramework:TestFramework.obj
 0001:0000f600       ?Succeed@TestFramework@OpenHome@@YGXPBDI@Z 00410600 f   libTestFramework:TestFramework.obj
 0001:0000f630       ?SucceedQuietly@TestFramework@OpenHome@@YGXPBDI@Z 00410630 f   libTestFramework:TestFramework.obj
 0001:0000f660       ?TimeStart@TestFramework@OpenHome@@YGIXZ 00410660 f   libTestFramework:TestFramework.obj
 0001:0000f680       ?TimeStop@TestFramework@OpenHome@@YGII@Z 00410680 f   libTestFramework:TestFramework.obj
 0001:0000f6b0       ?Print@TestFramework@OpenHome@@YAHPBDZZ 004106b0 f   libTestFramework:TestFramework.obj
 0001:0000f770       ?Print@TestFramework@OpenHome@@YGHPBDPAD@Z 00410770 f   libTestFramework:TestFramework.obj
 0001:0000f820       ?Print@TestFramework@OpenHome@@YGHABVBrx@2@@Z 00410820 f   libTestFramework:TestFramework.obj
 0001:0000f8d0       ?PrintHex@TestFramework@OpenHome@@YGHABVBrx@2@@Z 004108d0 f   libTestFramework:TestFramework.obj
 0001:0000f980       ??0Blocker@TestFramework@OpenHome@@QAE@XZ 00410980 f   libTestFramework:TestFramework.obj
 0001:0000fa80       ??1Blocker@TestFramework@OpenHome@@QAE@XZ 00410a80 f   libTestFramework:TestFramework.obj
 0001:0000fb20       ?Wait@Blocker@TestFramework@OpenHome@@QAEXI@Z 00410b20 f   libTestFramework:TestFramework.obj
 0001:0000fb60       ?TimerExpired@Blocker@TestFramework@OpenHome@@AAEXXZ 00410b60 f   libTestFramework:TestFramework.obj
 0001:0000fb90       ?ConsoleWrite@Os@OpenHome@@SGXPBD@Z 00410b90 f i libTestFramework:TestFramework.obj
 0001:0000fbb0       ??0AssertionFailed@OpenHome@@QAE@PBDI@Z 00410bb0 f i libTestFramework:TestFramework.obj
 0001:0000fbf0       ??1AssertionFailed@OpenHome@@QAE@XZ 00410bf0 f i libTestFramework:TestFramework.obj
 0001:0000fc20       ??_GSuite@TestFramework@OpenHome@@MAEPAXI@Z 00410c20 f i libTestFramework:TestFramework.obj
 0001:0000fc20       ??_ESuite@TestFramework@OpenHome@@MAEPAXI@Z 00410c20 f i libTestFramework:TestFramework.obj
 0001:0000fc60       ?TimeInMs@Os@OpenHome@@SGIXZ 00410c60 f i libTestFramework:TestFramework.obj
 0001:0000fc80       ?TimeInUs@Os@OpenHome@@SG_KXZ 00410c80 f i libTestFramework:TestFramework.obj
 0001:0000fca0       ??_GTimer@OpenHome@@QAEPAXI@Z 00410ca0 f i libTestFramework:TestFramework.obj
 0001:0000fce0       ??$MakeFunctorMsg@VTestConsole@@V1@@OpenHome@@YG?AV?$MemberTranslatorMsg@VTestConsole@@P81@AEXPBD@Z@0@AAVTestConsole@@ABQ82@AEXPBD@Z@Z 00410ce0 f i libTestFramework:TestFramework.obj
 0001:0000fd10       ??$MakeFunctor@VBlocker@TestFramework@OpenHome@@XV123@@OpenHome@@YG?AV?$MemberTranslator@VBlocker@TestFramework@OpenHome@@P8123@AEXXZ@0@AAVBlocker@TestFramework@0@ABQ8230@AEXXZ@Z 00410d10 f i libTestFramework:TestFramework.obj
 0001:0000fd40       ??0?$MemberTranslatorMsg@VTestConsole@@P81@AEXPBD@Z@OpenHome@@QAE@AAVTestConsole@@ABQ82@AEXPBD@Z@Z 00410d40 f i libTestFramework:TestFramework.obj
 0001:0000fd80       ??0FunctorMsg@OpenHome@@IAE@P6GXABV01@PBD@ZPBX3I@Z 00410d80 f i libTestFramework:TestFramework.obj
 0001:0000fdd0       ??0?$MemberTranslator@VBlocker@TestFramework@OpenHome@@P8123@AEXXZ@OpenHome@@QAE@AAVBlocker@TestFramework@1@ABQ8231@AEXXZ@Z 00410dd0 f i libTestFramework:TestFramework.obj
 0001:0000fe10       ?Thunk@?$MemberTranslatorMsg@VTestConsole@@P81@AEXPBD@Z@OpenHome@@SGXABVFunctorMsg@2@PBD@Z 00410e10 f i libTestFramework:TestFramework.obj
 0001:0000fe60       ?Thunk@?$MemberTranslator@VBlocker@TestFramework@OpenHome@@P8123@AEXXZ@OpenHome@@SGXABVFunctor@2@@Z 00410e60 f i libTestFramework:TestFramework.obj
 0001:0000feb0       ??0NetworkAdapter@OpenHome@@QAE@IIPBD@Z 00410eb0 f   libohNetCore:OhNet.obj
 0001:0000ff50       ??1NetworkAdapter@OpenHome@@AAE@XZ 00410f50 f   libohNetCore:OhNet.obj
 0001:0000ffc0       ?AddRef@NetworkAdapter@OpenHome@@QAEXXZ 00410fc0 f   libohNetCore:OhNet.obj
 0001:00010010       ?RemoveRef@NetworkAdapter@OpenHome@@QAEXXZ 00411010 f   libohNetCore:OhNet.obj
 0001:000100a0       ?Address@NetworkAdapter@OpenHome@@QBEIXZ 004110a0 f   libohNetCore:OhNet.obj
 0001:000100c0       ?Subnet@NetworkAdapter@OpenHome@@QBEIXZ 004110c0 f   libohNetCore:OhNet.obj
 0001:000100e0       ?Mask@NetworkAdapter@OpenHome@@QBEIXZ 004110e0 f   libohNetCore:OhNet.obj
 0001:00010100       ?ContainsAddress@NetworkAdapter@OpenHome@@QAE_NI@Z 00411100 f   libohNetCore:OhNet.obj
 0001:00010140       ?Name@NetworkAdapter@OpenHome@@QBEPBDXZ 00411140 f   libohNetCore:OhNet.obj
 0001:00010180       ?FullName@NetworkAdapter@OpenHome@@QBEPADXZ 00411180 f   libohNetCore:OhNet.obj
 0001:000102e0       ?Log@DefaultLogger@Net@OpenHome@@QAEXPBD@Z 004112e0 f   libohNetCore:OhNet.obj
 0001:00010330       ?LogError@DefaultAsyncHandler@Net@OpenHome@@QAEXAAVIAsync@23@@Z 00411330 f   libohNetCore:OhNet.obj
 0001:00010390       ?Output@DefaultAsyncHandler@Net@OpenHome@@EAEXPBD0@Z 00411390 f   libohNetCore:OhNet.obj
 0001:000103d0       ?Create@InitialisationParams@Net@OpenHome@@SGPAV123@XZ 004113d0 f   libohNetCore:OhNet.obj
 0001:00010470       ??1InitialisationParams@Net@OpenHome@@QAE@XZ 00411470 f   libohNetCore:OhNet.obj
 0001:000104d0       ?SetLogOutput@InitialisationParams@Net@OpenHome@@QAEXVFunctorMsg@3@@Z 004114d0 f   libohNetCore:OhNet.obj
 0001:00010500       ?SetFatalErrorHandler@InitialisationParams@Net@OpenHome@@QAEXVFunctorMsg@3@@Z 00411500 f   libohNetCore:OhNet.obj
 0001:00010560       ?SetAsyncBeginHandler@InitialisationParams@Net@OpenHome@@QAEXVFunctorAsync@23@@Z 00411560 f   libohNetCore:OhNet.obj
 0001:000105a0       ?SetAsyncEndHandler@InitialisationParams@Net@OpenHome@@QAEXVFunctorAsync@23@@Z 004115a0 f   libohNetCore:OhNet.obj
 0001:000105e0       ?SetAsyncErrorHandler@InitialisationParams@Net@OpenHome@@QAEXVFunctorAsync@23@@Z 004115e0 f   libohNetCore:OhNet.obj
 0001:00010620       ?SetSubnetListChangedListener@InitialisationParams@Net@OpenHome@@QAEXVFunctor@3@@Z 00411620 f   libohNetCore:OhNet.obj
 0001:00010660       ?SetTcpConnectTimeout@InitialisationParams@Net@OpenHome@@QAEXI@Z 00411660 f   libohNetCore:OhNet.obj
 0001:000106a0       ?SetMsearchTime@InitialisationParams@Net@OpenHome@@QAEXI@Z 004116a0 f   libohNetCore:OhNet.obj
 0001:000106f0       ?SetMsearchTtl@InitialisationParams@Net@OpenHome@@QAEXI@Z 004116f0 f   libohNetCore:OhNet.obj
 0001:00010730       ?SetNumEventSessionThreads@InitialisationParams@Net@OpenHome@@QAEXI@Z 00411730 f   libohNetCore:OhNet.obj
 0001:00010780       ?SetNumXmlFetcherThreads@InitialisationParams@Net@OpenHome@@QAEXI@Z 00411780 f   libohNetCore:OhNet.obj
 0001:000107d0       ?SetNumActionInvokerThreads@InitialisationParams@Net@OpenHome@@QAEXI@Z 004117d0 f   libohNetCore:OhNet.obj
 0001:00010820       ?SetNumInvocations@InitialisationParams@Net@OpenHome@@QAEXI@Z 00411820 f   libohNetCore:OhNet.obj
 0001:00010860       ?SetNumSubscriberThreads@InitialisationParams@Net@OpenHome@@QAEXI@Z 00411860 f   libohNetCore:OhNet.obj
 0001:000108b0       ?SetPendingSubscriptionTimeout@InitialisationParams@Net@OpenHome@@QAEXI@Z 004118b0 f   libohNetCore:OhNet.obj
 0001:000108f0       ?SetFreeExternalCallback@InitialisationParams@Net@OpenHome@@QAEXP6GXPAX@Z@Z 004118f0 f   libohNetCore:OhNet.obj
 0001:00010910       ?SetUseLoopbackNetworkAdapter@InitialisationParams@Net@OpenHome@@QAEXXZ 00411910 f   libohNetCore:OhNet.obj
 0001:00010930       ?SetDvMaxUpdateTime@InitialisationParams@Net@OpenHome@@QAEXI@Z 00411930 f   libohNetCore:OhNet.obj
 0001:00010950       ?SetDvNumServerThreads@InitialisationParams@Net@OpenHome@@QAEXI@Z 00411950 f   libohNetCore:OhNet.obj
 0001:000109a0       ?SetDvNumPublisherThreads@InitialisationParams@Net@OpenHome@@QAEXI@Z 004119a0 f   libohNetCore:OhNet.obj
 0001:000109f0       ?SetDvNumWebSocketThreads@InitialisationParams@Net@OpenHome@@QAEXI@Z 004119f0 f   libohNetCore:OhNet.obj
 0001:00010a40       ?SetDvWebSocketPort@InitialisationParams@Net@OpenHome@@QAEXI@Z 00411a40 f   libohNetCore:OhNet.obj
 0001:00010a60       ?SetDvEnableBonjour@InitialisationParams@Net@OpenHome@@QAEXXZ 00411a60 f   libohNetCore:OhNet.obj
 0001:00010a80       ?LogOutput@InitialisationParams@Net@OpenHome@@QAEAAVFunctorMsg@3@XZ 00411a80 f   libohNetCore:OhNet.obj
 0001:00010aa0       ?FatalErrorHandler@InitialisationParams@Net@OpenHome@@QAEAAVFunctorMsg@3@XZ 00411aa0 f   libohNetCore:OhNet.obj
 0001:00010ac0       ?AsyncBeginHandler@InitialisationParams@Net@OpenHome@@QAEAAVFunctorAsync@23@XZ 00411ac0 f   libohNetCore:OhNet.obj
 0001:00010ae0       ?AsyncEndHandler@InitialisationParams@Net@OpenHome@@QAEAAVFunctorAsync@23@XZ 00411ae0 f   libohNetCore:OhNet.obj
 0001:00010b00       ?AsyncErrorHandler@InitialisationParams@Net@OpenHome@@QAEAAVFunctorAsync@23@XZ 00411b00 f   libohNetCore:OhNet.obj
 0001:00010b20       ?SubnetListChangedListener@InitialisationParams@Net@OpenHome@@QAEAAVFunctor@3@XZ 00411b20 f   libohNetCore:OhNet.obj
 0001:00010b40       ?TcpConnectTimeoutMs@InitialisationParams@Net@OpenHome@@QBEIXZ 00411b40 f   libohNetCore:OhNet.obj
 0001:00010b60       ?MsearchTimeSecs@InitialisationParams@Net@OpenHome@@QBEIXZ 00411b60 f   libohNetCore:OhNet.obj
 0001:00010b80       ?MsearchTtl@InitialisationParams@Net@OpenHome@@QBEIXZ 00411b80 f   libohNetCore:OhNet.obj
 0001:00010ba0       ?NumEventSessionThreads@InitialisationParams@Net@OpenHome@@QBEIXZ 00411ba0 f   libohNetCore:OhNet.obj
 0001:00010bc0       ?NumXmlFetcherThreads@InitialisationParams@Net@OpenHome@@QBEIXZ 00411bc0 f   libohNetCore:OhNet.obj
 0001:00010be0       ?NumActionInvokerThreads@InitialisationParams@Net@OpenHome@@QBEIXZ 00411be0 f   libohNetCore:OhNet.obj
 0001:00010c00       ?NumInvocations@InitialisationParams@Net@OpenHome@@QBEIXZ 00411c00 f   libohNetCore:OhNet.obj
 0001:00010c20       ?NumSubscriberThreads@InitialisationParams@Net@OpenHome@@QBEIXZ 00411c20 f   libohNetCore:OhNet.obj
 0001:00010c40       ?PendingSubscriptionTimeoutMs@InitialisationParams@Net@OpenHome@@QBEIXZ 00411c40 f   libohNetCore:OhNet.obj
 0001:00010c60       ?FreeExternal@InitialisationParams@Net@OpenHome@@QBEP6GXPAX@ZXZ 00411c60 f   libohNetCore:OhNet.obj
 0001:00010c80       ?UseLoopbackNetworkAdapter@InitialisationParams@Net@OpenHome@@QBE_NXZ 00411c80 f   libohNetCore:OhNet.obj
 0001:00010ca0       ?DvMaxUpdateTimeSecs@InitialisationParams@Net@OpenHome@@QBEIXZ 00411ca0 f   libohNetCore:OhNet.obj
 0001:00010cc0       ?DvNumServerThreads@InitialisationParams@Net@OpenHome@@QBEIXZ 00411cc0 f   libohNetCore:OhNet.obj
 0001:00010ce0       ?DvNumPublisherThreads@InitialisationParams@Net@OpenHome@@QBEIXZ 00411ce0 f   libohNetCore:OhNet.obj
 0001:00010d00       ?DvNumWebSocketThreads@InitialisationParams@Net@OpenHome@@QBEIXZ 00411d00 f   libohNetCore:OhNet.obj
 0001:00010d20       ?DvWebSocketPort@InitialisationParams@Net@OpenHome@@QBEIXZ 00411d20 f   libohNetCore:OhNet.obj
 0001:00010d40       ?DvIsBonjourEnabled@InitialisationParams@Net@OpenHome@@QBE_NXZ 00411d40 f   libohNetCore:OhNet.obj
 0001:00010d60       ??0InitialisationParams@Net@OpenHome@@AAE@XZ 00411d60 f   libohNetCore:OhNet.obj
 0001:00010fd0       ?FatalErrorHandlerDefault@InitialisationParams@Net@OpenHome@@AAEXPBD@Z 00411fd0 f   libohNetCore:OhNet.obj
 0001:00011000       ?Initialise@UpnpLibrary@Net@OpenHome@@SGXPAVInitialisationParams@23@@Z 00412000 f   libohNetCore:OhNet.obj
 0001:00011100       ?InitialiseMinimal@UpnpLibrary@Net@OpenHome@@SGXPAVInitialisationParams@23@@Z 00412100 f   libohNetCore:OhNet.obj
 0001:000111a0       ?Close@UpnpLibrary@Net@OpenHome@@SGXXZ 004121a0 f   libohNetCore:OhNet.obj
 0001:000111c0       ?CreateSubnetList@UpnpLibrary@Net@OpenHome@@SGPAV?$vector@PAVNetworkAdapter@OpenHome@@V?$allocator@PAVNetworkAdapter@OpenHome@@@std@@@std@@XZ 004121c0 f   libohNetCore:OhNet.obj
 0001:000111e0       ?DestroySubnetList@UpnpLibrary@Net@OpenHome@@SGXPAV?$vector@PAVNetworkAdapter@OpenHome@@V?$allocator@PAVNetworkAdapter@OpenHome@@@std@@@std@@@Z 004121e0 f   libohNetCore:OhNet.obj
 0001:00011270       ?SetCurrentSubnet@UpnpLibrary@Net@OpenHome@@SGXI@Z 00412270 f   libohNetCore:OhNet.obj
 0001:00011290       ?CurrentSubnetAdapter@UpnpLibrary@Net@OpenHome@@SGPAVNetworkAdapter@3@XZ 00412290 f   libohNetCore:OhNet.obj
 0001:000112b0       ??_GNetworkAdapter@OpenHome@@AAEPAXI@Z 004122b0 f i libohNetCore:OhNet.obj
 0001:000112f0       ??BFunctorMsg@OpenHome@@QBE_NXZ 004122f0 f i libohNetCore:OhNet.obj
 0001:00011330       ??0FunctorAsync@Net@OpenHome@@QAE@XZ 00412330 f i libohNetCore:OhNet.obj
 0001:00011360       ??0FunctorMsg@OpenHome@@QAE@XZ 00412360 f i libohNetCore:OhNet.obj
 0001:00011390       ??0DefaultAsyncHandler@Net@OpenHome@@QAE@XZ 00412390 f i libohNetCore:OhNet.obj
 0001:000113c0       ??0IAsyncOutput@Net@OpenHome@@QAE@XZ 004123c0 f i libohNetCore:OhNet.obj
 0001:000113e0       ?Quit@Os@OpenHome@@SGXXZ   004123e0 f i libohNetCore:OhNet.obj
 0001:00011400       ??0bad_alloc@std@@QAE@XZ   00412400 f i libohNetCore:OhNet.obj
 0001:00011450       ?Create@Os@OpenHome@@SGHXZ 00412450 f i libohNetCore:OhNet.obj
 0001:00011470       ?Destroy@Os@OpenHome@@SGXXZ 00412470 f i libohNetCore:OhNet.obj
 0001:00011490       ??_G?$vector@PAVNetworkAdapter@OpenHome@@V?$allocator@PAVNetworkAdapter@OpenHome@@@std@@@std@@QAEPAXI@Z 00412490 f i libohNetCore:OhNet.obj
 0001:000114d0       ??1?$vector@PAVNetworkAdapter@OpenHome@@V?$allocator@PAVNetworkAdapter@OpenHome@@@std@@@std@@QAE@XZ 004124d0 f i libohNetCore:OhNet.obj
 0001:00011540       ?_Tidy@?$vector@PAVNetworkAdapter@OpenHome@@V?$allocator@PAVNetworkAdapter@OpenHome@@@std@@@std@@IAEXXZ 00412540 f i libohNetCore:OhNet.obj
 0001:000115d0       ??1?$_Vector_val@PAVNetworkAdapter@OpenHome@@V?$allocator@PAVNetworkAdapter@OpenHome@@@std@@@std@@QAE@XZ 004125d0 f i libohNetCore:OhNet.obj
 0001:000116b0       ?_Destroy@?$vector@PAVNetworkAdapter@OpenHome@@V?$allocator@PAVNetworkAdapter@OpenHome@@@std@@@std@@IAEXPAPAVNetworkAdapter@OpenHome@@0@Z 004126b0 f i libohNetCore:OhNet.obj
 0001:000116f0       ?deallocate@?$allocator@PAVNetworkAdapter@OpenHome@@@std@@QAEXPAPAVNetworkAdapter@OpenHome@@I@Z 004126f0 f i libohNetCore:OhNet.obj
 0001:00011720       ??$MakeFunctorMsg@VDefaultLogger@Net@OpenHome@@V123@@OpenHome@@YG?AV?$MemberTranslatorMsg@VDefaultLogger@Net@OpenHome@@P8123@AEXPBD@Z@0@AAVDefaultLogger@Net@0@ABQ8230@AEXPBD@Z@Z 00412720 f i libohNetCore:OhNet.obj
 0001:00011750       ??$MakeFunctorAsync@VDefaultAsyncHandler@Net@OpenHome@@V123@@Net@OpenHome@@YG?AV?$MemberTranslatorAsync@VDefaultAsyncHandler@Net@OpenHome@@P8123@AEXAAVIAsync@23@@Z@01@AAVDefaultAsyncHandler@01@ABQ8301@AEXAAVIAsync@01@@Z@Z 00412750 f i libohNetCore:OhNet.obj
 0001:00011780       ??$MakeFunctorMsg@VInitialisationParams@Net@OpenHome@@V123@@OpenHome@@YG?AV?$MemberTranslatorMsg@VInitialisationParams@Net@OpenHome@@P8123@AEXPBD@Z@0@AAVInitialisationParams@Net@0@ABQ8230@AEXPBD@Z@Z 00412780 f i libohNetCore:OhNet.obj
 0001:000117b0       ??$?0PAVNetworkAdapter@OpenHome@@@?$allocator@U_Container_proxy@std@@@std@@QAE@ABV?$allocator@PAVNetworkAdapter@OpenHome@@@1@@Z 004127b0 f i libohNetCore:OhNet.obj
 0001:000117d0       ??$_Destroy_range@V?$allocator@PAVNetworkAdapter@OpenHome@@@std@@@std@@YGXPAPAVNetworkAdapter@OpenHome@@0AAV?$allocator@PAVNetworkAdapter@OpenHome@@@0@@Z 004127d0 f i libohNetCore:OhNet.obj
 0001:00011820       ??0?$MemberTranslatorMsg@VDefaultLogger@Net@OpenHome@@P8123@AEXPBD@Z@OpenHome@@QAE@AAVDefaultLogger@Net@1@ABQ8231@AEXPBD@Z@Z 00412820 f i libohNetCore:OhNet.obj
 0001:00011860       ??0?$MemberTranslatorAsync@VDefaultAsyncHandler@Net@OpenHome@@P8123@AEXAAVIAsync@23@@Z@Net@OpenHome@@QAE@AAVDefaultAsyncHandler@12@ABQ8312@AEXAAVIAsync@12@@Z@Z 00412860 f i libohNetCore:OhNet.obj
 0001:000118a0       ??0FunctorAsync@Net@OpenHome@@IAE@P6GXABV012@AAVIAsync@12@@ZPBX3I@Z 004128a0 f i libohNetCore:OhNet.obj
 0001:000118f0       ??0?$MemberTranslatorMsg@VInitialisationParams@Net@OpenHome@@P8123@AEXPBD@Z@OpenHome@@QAE@AAVInitialisationParams@Net@1@ABQ8231@AEXPBD@Z@Z 004128f0 f i libohNetCore:OhNet.obj
 0001:00011930       ?Thunk@?$MemberTranslatorMsg@VDefaultLogger@Net@OpenHome@@P8123@AEXPBD@Z@OpenHome@@SGXABVFunctorMsg@2@PBD@Z 00412930 f i libohNetCore:OhNet.obj
 0001:00011980       ?Thunk@?$MemberTranslatorAsync@VDefaultAsyncHandler@Net@OpenHome@@P8123@AEXAAVIAsync@23@@Z@Net@OpenHome@@SGXABVFunctorAsync@23@AAVIAsync@23@@Z 00412980 f i libohNetCore:OhNet.obj
 0001:000119d0       ?Thunk@?$MemberTranslatorMsg@VInitialisationParams@Net@OpenHome@@P8123@AEXPBD@Z@OpenHome@@SGXABVFunctorMsg@2@PBD@Z 004129d0 f i libohNetCore:OhNet.obj
 0001:00011a20       ??$_Ptr_cat@PAVNetworkAdapter@OpenHome@@PAV12@@std@@YG?AU_Scalar_ptr_iterator_tag@0@PAPAVNetworkAdapter@OpenHome@@0@Z 00412a20 f i libohNetCore:OhNet.obj
 0001:00011a80       ??$_Destroy_range@V?$allocator@PAVNetworkAdapter@OpenHome@@@std@@@std@@YGXPAPAVNetworkAdapter@OpenHome@@0AAV?$allocator@PAVNetworkAdapter@OpenHome@@@0@U_Scalar_ptr_iterator_tag@0@@Z 00412a80 f i libohNetCore:OhNet.obj
 0001:00011a90       ?Udn@CpDeviceCpp@Net@OpenHome@@QBEABV?$basic_string@DU?$char_traits@D@std@@V?$allocator@D@2@@std@@XZ 00412a90 f   libohNetCore:CpDeviceStd.obj
 0001:00011ab0       ??8CpDeviceCpp@Net@OpenHome@@QBE_NABV012@@Z 00412ab0 f   libohNetCore:CpDeviceStd.obj
 0001:00011ae0       ??9CpDeviceCpp@Net@OpenHome@@QBE_NABV012@@Z 00412ae0 f   libohNetCore:CpDeviceStd.obj
 0001:00011b10       ?AddRef@CpDeviceCpp@Net@OpenHome@@QAEXXZ 00412b10 f   libohNetCore:CpDeviceStd.obj
 0001:00011b50       ?RemoveRef@CpDeviceCpp@Net@OpenHome@@QAEXXZ 00412b50 f   libohNetCore:CpDeviceStd.obj
 0001:00011be0       ?GetAttribute@CpDeviceCpp@Net@OpenHome@@QBE_NPBDAAV?$basic_string@DU?$char_traits@D@std@@V?$allocator@D@2@@std@@@Z 00412be0 f   libohNetCore:CpDeviceStd.obj
 0001:00011d80       ?Device@CpDeviceCpp@Net@OpenHome@@QAEAAVCpiDevice@23@XZ 00412d80 f   libohNetCore:CpDeviceStd.obj
 0001:00011da0       ??0CpDeviceCpp@Net@OpenHome@@IAE@AAVCpiDevice@12@@Z 00412da0 f   libohNetCore:CpDeviceStd.obj
 0001:00011e70       ??1CpDeviceCpp@Net@OpenHome@@MAE@XZ 00412e70 f   libohNetCore:CpDeviceStd.obj
 0001:00011ea0       ??1CpDeviceListCpp@Net@OpenHome@@QAE@XZ 00412ea0 f   libohNetCore:CpDeviceStd.obj
 0001:00012010       ?Refresh@CpDeviceListCpp@Net@OpenHome@@QAEXXZ 00413010 f   libohNetCore:CpDeviceStd.obj
 0001:00012050       ??0CpDeviceListCpp@Net@OpenHome@@IAE@VFunctorCpDeviceCpp@12@0@Z 00413050 f   libohNetCore:CpDeviceStd.obj
 0001:00012160       ?GetAddedFunctor@CpDeviceListCpp@Net@OpenHome@@IAEXAAVFunctorCpiDevice@23@@Z 00413160 f   libohNetCore:CpDeviceStd.obj
 0001:000121d0       ?GetRemovedFunctor@CpDeviceListCpp@Net@OpenHome@@IAEXAAVFunctorCpiDevice@23@@Z 004131d0 f   libohNetCore:CpDeviceStd.obj
 0001:00012240       ?Added@CpDeviceListCpp@Net@OpenHome@@AAEXAAVCpiDevice@23@@Z 00413240 f   libohNetCore:CpDeviceStd.obj
 0001:000123a0       ?Removed@CpDeviceListCpp@Net@OpenHome@@AAEXAAVCpiDevice@23@@Z 004133a0 f   libohNetCore:CpDeviceStd.obj
 0001:00012510       ??1?$_String_iterator@DU?$char_traits@D@std@@V?$allocator@D@2@@std@@QAE@XZ 00413510 f i libohNetCore:CpDeviceStd.obj
 0001:00012540       ??0?$_String_const_iterator@DU?$char_traits@D@std@@V?$allocator@D@2@@std@@QAE@ABV01@@Z 00413540 f i libohNetCore:CpDeviceStd.obj
 0001:00012580       ??1?$_String_const_iterator@DU?$char_traits@D@std@@V?$allocator@D@2@@std@@QAE@XZ 00413580 f i libohNetCore:CpDeviceStd.obj
 0001:000125b0       ??0?$_Iterator012@Urandom_access_iterator_tag@std@@DHPBDABDU_Iterator_base12@2@@std@@QAE@ABU01@@Z 004135b0 f i libohNetCore:CpDeviceStd.obj
 0001:000125e0       ??0_Iterator_base12@std@@QAE@ABU01@@Z 004135e0 f i libohNetCore:CpDeviceStd.obj
 0001:00012620       ??4_Iterator_base12@std@@QAEAAU01@ABU01@@Z 00413620 f i libohNetCore:CpDeviceStd.obj
 0001:00012660       ?_Adopt@_Iterator_base12@std@@QAEXPBU_Container_base12@2@@Z 00413660 f i libohNetCore:CpDeviceStd.obj
 0001:00012750       ?_Orphan_me@_Iterator_base12@std@@QAEXXZ 00413750 f i libohNetCore:CpDeviceStd.obj
 0001:000127e0       ??1?$_Iterator012@Urandom_access_iterator_tag@std@@DHPBDABDU_Iterator_base12@2@@std@@QAE@XZ 004137e0 f i libohNetCore:CpDeviceStd.obj
 0001:00012810       ??1_Iterator_base12@std@@QAE@XZ 00413810 f i libohNetCore:CpDeviceStd.obj
 0001:000128c0       ??_ECpDeviceCpp@Net@OpenHome@@MAEPAXI@Z 004138c0 f i libohNetCore:CpDeviceStd.obj
 0001:000128c0       ??_GCpDeviceCpp@Net@OpenHome@@MAEPAXI@Z 004138c0 f i libohNetCore:CpDeviceStd.obj
 0001:00012900       ??1?$map@VBrn@OpenHome@@PAVCpDeviceCpp@Net@2@VBufferCmp@2@V?$allocator@U?$pair@$$CBVBrn@OpenHome@@PAVCpDeviceCpp@Net@2@@std@@@std@@@std@@QAE@XZ 00413900 f i libohNetCore:CpDeviceStd.obj
 0001:00012930       ??1?$_Tree_iterator@V?$_Tree_val@V?$_Tmap_traits@VBrn@OpenHome@@PAVCpDeviceCpp@Net@2@VBufferCmp@2@V?$allocator@U?$pair@$$CBVBrn@OpenHome@@PAVCpDeviceCpp@Net@2@@std@@@std@@$0A@@std@@@std@@@std@@QAE@XZ 00413930 f i libohNetCore:CpDeviceStd.obj
 0001:00012960       ??1?$_Tree_const_iterator@V?$_Tree_val@V?$_Tmap_traits@VBrn@OpenHome@@PAVCpDeviceCpp@Net@2@VBufferCmp@2@V?$allocator@U?$pair@$$CBVBrn@OpenHome@@PAVCpDeviceCpp@Net@2@@std@@@std@@$0A@@std@@@std@@@std@@QAE@XZ 00413960 f i libohNetCore:CpDeviceStd.obj
 0001:00012990       ??1?$_Tree_unchecked_const_iterator@V?$_Tree_val@V?$_Tmap_traits@VBrn@OpenHome@@PAVCpDeviceCpp@Net@2@VBufferCmp@2@V?$allocator@U?$pair@$$CBVBrn@OpenHome@@PAVCpDeviceCpp@Net@2@@std@@@std@@$0A@@std@@@std@@U_Iterator_base12@2@@std@@QAE@XZ 00413990 f i libohNetCore:CpDeviceStd.obj
 0001:000129c0       ??1?$_Iterator012@Ubidirectional_iterator_tag@std@@U?$pair@$$CBVBrn@OpenHome@@PAVCpDeviceCpp@Net@2@@2@HPBU32@ABU32@U_Iterator_base12@2@@std@@QAE@XZ 004139c0 f i libohNetCore:CpDeviceStd.obj
 0001:000129f0       ??BFunctorCpDeviceCpp@Net@OpenHome@@QBE_NXZ 004139f0 f i libohNetCore:CpDeviceStd.obj
 0001:00012a10       ??RFunctorCpDeviceCpp@Net@OpenHome@@QBEXAAVCpDeviceCpp@12@@Z 00413a10 f i libohNetCore:CpDeviceStd.obj
 0001:00012a50       ??1?$pair@VBrn@OpenHome@@PAVCpDeviceCpp@Net@2@@std@@QAE@XZ 00413a50 f i libohNetCore:CpDeviceStd.obj
 0001:00012a80       ??1?$pair@V?$_Tree_iterator@V?$_Tree_val@V?$_Tmap_traits@VBrn@OpenHome@@PAVCpDeviceCpp@Net@2@VBufferCmp@2@V?$allocator@U?$pair@$$CBVBrn@OpenHome@@PAVCpDeviceCpp@Net@2@@std@@@std@@$0A@@std@@@std@@@std@@_N@std@@QAE@XZ 00413a80 f i libohNetCore:CpDeviceStd.obj
 0001:00012ab0       ??1?$_Pair_base@VBrn@OpenHome@@PAVCpDeviceCpp@Net@2@@std@@QAE@XZ 00413ab0 f i libohNetCore:CpDeviceStd.obj
 0001:00012ae0       ??1?$_Pair_base@V?$_Tree_iterator@V?$_Tree_val@V?$_Tmap_traits@VBrn@OpenHome@@PAVCpDeviceCpp@Net@2@VBufferCmp@2@V?$allocator@U?$pair@$$CBVBrn@OpenHome@@PAVCpDeviceCpp@Net@2@@std@@@std@@$0A@@std@@@std@@@std@@_N@std@@QAE@XZ 00413ae0 f i libohNetCore:CpDeviceStd.obj
 0001:00012b10       ??0Brn@OpenHome@@QAE@ABVBrx@1@@Z 00413b10 f i libohNetCore:CpDeviceStd.obj
 0001:00012ba0       ??0Brx@OpenHome@@IAE@ABV01@@Z 00413ba0 f i libohNetCore:CpDeviceStd.obj
 0001:00012be0       ??0?$_Tree_const_iterator@V?$_Tree_val@V?$_Tmap_traits@VBrn@OpenHome@@PAVCpDeviceCpp@Net@2@VBufferCmp@2@V?$allocator@U?$pair@$$CBVBrn@OpenHome@@PAVCpDeviceCpp@Net@2@@std@@@std@@$0A@@std@@@std@@@std@@QAE@ABV01@@Z 00413be0 f i libohNetCore:CpDeviceStd.obj
 0001:00012c10       ??0?$_Tree_unchecked_const_iterator@V?$_Tree_val@V?$_Tmap_traits@VBrn@OpenHome@@PAVCpDeviceCpp@Net@2@VBufferCmp@2@V?$allocator@U?$pair@$$CBVBrn@OpenHome@@PAVCpDeviceCpp@Net@2@@std@@@std@@$0A@@std@@@std@@U_Iterator_base12@2@@std@@QAE@ABV01@@Z 00413c10 f i libohNetCore:CpDeviceStd.obj
 0001:00012c50       ??0?$_Iterator012@Ubidirectional_iterator_tag@std@@U?$pair@$$CBVBrn@OpenHome@@PAVCpDeviceCpp@Net@2@@2@HPBU32@ABU32@U_Iterator_base12@2@@std@@QAE@ABU01@@Z 00413c50 f i libohNetCore:CpDeviceStd.obj
 0001:00012c80       ?append@?$basic_string@DU?$char_traits@D@std@@V?$allocator@D@2@@std@@QAEAAV12@PBDI@Z 00413c80 f i libohNetCore:CpDeviceStd.obj
 0001:00012d70       ?erase@?$basic_string@DU?$char_traits@D@std@@V?$allocator@D@2@@std@@QAE?AV?$_String_iterator@DU?$char_traits@D@std@@V?$allocator@D@2@@2@V?$_String_const_iterator@DU?$char_traits@D@std@@V?$allocator@D@2@@2@0@Z 00413d70 f i libohNetCore:CpDeviceStd.obj
 0001:00012ed0       ?begin@?$basic_string@DU?$char_traits@D@std@@V?$allocator@D@2@@std@@QAE?AV?$_String_iterator@DU?$char_traits@D@std@@V?$allocator@D@2@@2@XZ 00413ed0 f i libohNetCore:CpDeviceStd.obj
 0001:00012f20       ?end@?$basic_string@DU?$char_traits@D@std@@V?$allocator@D@2@@std@@QAE?AV?$_String_iterator@DU?$char_traits@D@std@@V?$allocator@D@2@@2@XZ 00413f20 f i libohNetCore:CpDeviceStd.obj
 0001:00012f80       ??0?$map@VBrn@OpenHome@@PAVCpDeviceCpp@Net@2@VBufferCmp@2@V?$allocator@U?$pair@$$CBVBrn@OpenHome@@PAVCpDeviceCpp@Net@2@@std@@@std@@@std@@QAE@XZ 00413f80 f i libohNetCore:CpDeviceStd.obj
 0001:00012fd0       ??1?$_Tree@V?$_Tmap_traits@VBrn@OpenHome@@PAVCpDeviceCpp@Net@2@VBufferCmp@2@V?$allocator@U?$pair@$$CBVBrn@OpenHome@@PAVCpDeviceCpp@Net@2@@std@@@std@@$0A@@std@@@std@@QAE@XZ 00413fd0 f i libohNetCore:CpDeviceStd.obj
 0001:00013040       ?begin@?$_Tree@V?$_Tmap_traits@VBrn@OpenHome@@PAVCpDeviceCpp@Net@2@VBufferCmp@2@V?$allocator@U?$pair@$$CBVBrn@OpenHome@@PAVCpDeviceCpp@Net@2@@std@@@std@@$0A@@std@@@std@@QAE?AV?$_Tree_iterator@V?$_Tree_val@V?$_Tmap_traits@VBrn@OpenHome@@PAVCpDeviceCpp@Net@2@VBufferCmp@2@V?$allocator@U?$pair@$$CBVBrn@OpenHome@@PAVCpDeviceCpp@Net@2@@std@@@std@@$0A@@std@@@std@@@2@XZ 00414040 f i libohNetCore:CpDeviceStd.obj
 0001:000130a0       ?end@?$_Tree@V?$_Tmap_traits@VBrn@OpenHome@@PAVCpDeviceCpp@Net@2@VBufferCmp@2@V?$allocator@U?$pair@$$CBVBrn@OpenHome@@PAVCpDeviceCpp@Net@2@@std@@@std@@$0A@@std@@@std@@QAE?AV?$_Tree_iterator@V?$_Tree_val@V?$_Tmap_traits@VBrn@OpenHome@@PAVCpDeviceCpp@Net@2@VBufferCmp@2@V?$allocator@U?$pair@$$CBVBrn@OpenHome@@PAVCpDeviceCpp@Net@2@@std@@@std@@$0A@@std@@@std@@@2@XZ 004140a0 f i libohNetCore:CpDeviceStd.obj
 0001:000130f0       ?erase@?$_Tree@V?$_Tmap_traits@VBrn@OpenHome@@PAVCpDeviceCpp@Net@2@VBufferCmp@2@V?$allocator@U?$pair@$$CBVBrn@OpenHome@@PAVCpDeviceCpp@Net@2@@std@@@std@@$0A@@std@@@std@@QAE?AV?$_Tree_iterator@V?$_Tree_val@V?$_Tmap_traits@VBrn@OpenHome@@PAVCpDeviceCpp@Net@2@VBufferCmp@2@V?$allocator@U?$pair@$$CBVBrn@OpenHome@@PAVCpDeviceCpp@Net@2@@std@@@std@@$0A@@std@@@std@@@2@V?$_Tree_const_iterator@V?$_Tree_val@V?$_Tmap_traits@VBrn@OpenHome@@PAVCpDeviceCpp@Net@2@VBufferCmp@2@V?$allocator@U?$pair@$$CBVBrn@OpenHome@@PAVCpDeviceCpp@Net@2@@std@@@std@@$0A@@std@@@std@@@2@@Z 004140f0 f i libohNetCore:CpDeviceStd.obj
 0001:00013800       ?_Getcont@_Iterator_base12@std@@QBEPBU_Container_base12@2@XZ 00414800 f i libohNetCore:CpDeviceStd.obj
 0001:00013840       ?clear@?$_Tree@V?$_Tmap_traits@VBrn@OpenHome@@PAVCpDeviceCpp@Net@2@VBufferCmp@2@V?$allocator@U?$pair@$$CBVBrn@OpenHome@@PAVCpDeviceCpp@Net@2@@std@@@std@@$0A@@std@@@std@@QAEXXZ 00414840 f i libohNetCore:CpDeviceStd.obj
 0001:000138c0       ?find@?$_Tree@V?$_Tmap_traits@VBrn@OpenHome@@PAVCpDeviceCpp@Net@2@VBufferCmp@2@V?$allocator@U?$pair@$$CBVBrn@OpenHome@@PAVCpDeviceCpp@Net@2@@std@@@std@@$0A@@std@@@std@@QAE?AV?$_Tree_iterator@V?$_Tree_val@V?$_Tmap_traits@VBrn@OpenHome@@PAVCpDeviceCpp@Net@2@VBufferCmp@2@V?$allocator@U?$pair@$$CBVBrn@OpenHome@@PAVCpDeviceCpp@Net@2@@std@@@std@@$0A@@std@@@std@@@2@ABVBrn@OpenHome@@@Z 004148c0 f i libohNetCore:CpDeviceStd.obj
 0001:00013aa0       ??C?$_Tree_iterator@V?$_Tree_val@V?$_Tmap_traits@VBrn@OpenHome@@PAVCpDeviceCpp@Net@2@VBufferCmp@2@V?$allocator@U?$pair@$$CBVBrn@OpenHome@@PAVCpDeviceCpp@Net@2@@std@@@std@@$0A@@std@@@std@@@std@@QBEPAU?$pair@$$CBVBrn@OpenHome@@PAVCpDeviceCpp@Net@2@@1@XZ 00414aa0 f i libohNetCore:CpDeviceStd.obj
 0001:00013ad0       ??E?$_Tree_iterator@V?$_Tree_val@V?$_Tmap_traits@VBrn@OpenHome@@PAVCpDeviceCpp@Net@2@VBufferCmp@2@V?$allocator@U?$pair@$$CBVBrn@OpenHome@@PAVCpDeviceCpp@Net@2@@std@@@std@@$0A@@std@@@std@@@std@@QAE?AV01@H@Z 00414ad0 f i libohNetCore:CpDeviceStd.obj
 0001:00013ba0       ??9?$_Tree_const_iterator@V?$_Tree_val@V?$_Tmap_traits@VBrn@OpenHome@@PAVCpDeviceCpp@Net@2@VBufferCmp@2@V?$allocator@U?$pair@$$CBVBrn@OpenHome@@PAVCpDeviceCpp@Net@2@@std@@@std@@$0A@@std@@@std@@@std@@QBE_NABV01@@Z 00414ba0 f i libohNetCore:CpDeviceStd.obj
 0001:00013be0       ??0?$_Tree_iterator@V?$_Tree_val@V?$_Tmap_traits@VBrn@OpenHome@@PAVCpDeviceCpp@Net@2@VBufferCmp@2@V?$allocator@U?$pair@$$CBVBrn@OpenHome@@PAVCpDeviceCpp@Net@2@@std@@@std@@$0A@@std@@@std@@@std@@QAE@ABV01@@Z 00414be0 f i libohNetCore:CpDeviceStd.obj
 0001:00013c10       ?append@?$basic_string@DU?$char_traits@D@std@@V?$allocator@D@2@@std@@QAEAAV12@ABV12@II@Z 00414c10 f i libohNetCore:CpDeviceStd.obj
 0001:00013ce0       ?_Pdif@?$basic_string@DU?$char_traits@D@std@@V?$allocator@D@2@@std@@SGIV?$_String_const_iterator@DU?$char_traits@D@std@@V?$allocator@D@2@@2@0@Z 00414ce0 f i libohNetCore:CpDeviceStd.obj
 0001:00013d80       ??0?$_Tree@V?$_Tmap_traits@VBrn@OpenHome@@PAVCpDeviceCpp@Net@2@VBufferCmp@2@V?$allocator@U?$pair@$$CBVBrn@OpenHome@@PAVCpDeviceCpp@Net@2@@std@@@std@@$0A@@std@@@std@@QAE@ABVBufferCmp@OpenHome@@ABV?$allocator@U?$pair@$$CBVBrn@OpenHome@@PAVCpDeviceCpp@Net@2@@std@@@1@@Z 00414d80 f i libohNetCore:CpDeviceStd.obj
 0001:00013dd0       ?lower_bound@?$_Tree@V?$_Tmap_traits@VBrn@OpenHome@@PAVCpDeviceCpp@Net@2@VBufferCmp@2@V?$allocator@U?$pair@$$CBVBrn@OpenHome@@PAVCpDeviceCpp@Net@2@@std@@@std@@$0A@@std@@@std@@QAE?AV?$_Tree_iterator@V?$_Tree_val@V?$_Tmap_traits@VBrn@OpenHome@@PAVCpDeviceCpp@Net@2@VBufferCmp@2@V?$allocator@U?$pair@$$CBVBrn@OpenHome@@PAVCpDeviceCpp@Net@2@@std@@@std@@$0A@@std@@@std@@@2@ABVBrn@OpenHome@@@Z 00414dd0 f i libohNetCore:CpDeviceStd.obj
 0001:00013e30       ?_Erase@?$_Tree@V?$_Tmap_traits@VBrn@OpenHome@@PAVCpDeviceCpp@Net@2@VBufferCmp@2@V?$allocator@U?$pair@$$CBVBrn@OpenHome@@PAVCpDeviceCpp@Net@2@@std@@@std@@$0A@@std@@@std@@IAEXPAU_Node@?$_Tree_nod@V?$_Tmap_traits@VBrn@OpenHome@@PAVCpDeviceCpp@Net@2@VBufferCmp@2@V?$allocator@U?$pair@$$CBVBrn@OpenHome@@PAVCpDeviceCpp@Net@2@@std@@@std@@$0A@@std@@@2@@Z 00414e30 f i libohNetCore:CpDeviceStd.obj
 0001:00013ed0       ?_Lmost@?$_Tree@V?$_Tmap_traits@VBrn@OpenHome@@PAVCpDeviceCpp@Net@2@VBufferCmp@2@V?$allocator@U?$pair@$$CBVBrn@OpenHome@@PAVCpDeviceCpp@Net@2@@std@@@std@@$0A@@std@@@std@@IBEAAPAU_Node@?$_Tree_nod@V?$_Tmap_traits@VBrn@OpenHome@@PAVCpDeviceCpp@Net@2@VBufferCmp@2@V?$allocator@U?$pair@$$CBVBrn@OpenHome@@PAVCpDeviceCpp@Net@2@@std@@@std@@$0A@@std@@@2@XZ 00414ed0 f i libohNetCore:CpDeviceStd.obj
 0001:00013f00       ?_Lrotate@?$_Tree@V?$_Tmap_traits@VBrn@OpenHome@@PAVCpDeviceCpp@Net@2@VBufferCmp@2@V?$allocator@U?$pair@$$CBVBrn@OpenHome@@PAVCpDeviceCpp@Net@2@@std@@@std@@$0A@@std@@@std@@IAEXPAU_Node@?$_Tree_nod@V?$_Tmap_traits@VBrn@OpenHome@@PAVCpDeviceCpp@Net@2@VBufferCmp@2@V?$allocator@U?$pair@$$CBVBrn@OpenHome@@PAVCpDeviceCpp@Net@2@@std@@@std@@$0A@@std@@@2@@Z 00414f00 f i libohNetCore:CpDeviceStd.obj
 0001:00014020       ?_Rmost@?$_Tree@V?$_Tmap_traits@VBrn@OpenHome@@PAVCpDeviceCpp@Net@2@VBufferCmp@2@V?$allocator@U?$pair@$$CBVBrn@OpenHome@@PAVCpDeviceCpp@Net@2@@std@@@std@@$0A@@std@@@std@@IBEAAPAU_Node@?$_Tree_nod@V?$_Tmap_traits@VBrn@OpenHome@@PAVCpDeviceCpp@Net@2@VBufferCmp@2@V?$allocator@U?$pair@$$CBVBrn@OpenHome@@PAVCpDeviceCpp@Net@2@@std@@@std@@$0A@@std@@@2@XZ 00415020 f i libohNetCore:CpDeviceStd.obj
 0001:00014050       ?_Root@?$_Tree@V?$_Tmap_traits@VBrn@OpenHome@@PAVCpDeviceCpp@Net@2@VBufferCmp@2@V?$allocator@U?$pair@$$CBVBrn@OpenHome@@PAVCpDeviceCpp@Net@2@@std@@@std@@$0A@@std@@@std@@IBEAAPAU_Node@?$_Tree_nod@V?$_Tmap_traits@VBrn@OpenHome@@PAVCpDeviceCpp@Net@2@VBufferCmp@2@V?$allocator@U?$pair@$$CBVBrn@OpenHome@@PAVCpDeviceCpp@Net@2@@std@@@std@@$0A@@std@@@2@XZ 00415050 f i libohNetCore:CpDeviceStd.obj
 0001:00014080       ?_Rrotate@?$_Tree@V?$_Tmap_traits@VBrn@OpenHome@@PAVCpDeviceCpp@Net@2@VBufferCmp@2@V?$allocator@U?$pair@$$CBVBrn@OpenHome@@PAVCpDeviceCpp@Net@2@@std@@@std@@$0A@@std@@@std@@IAEXPAU_Node@?$_Tree_nod@V?$_Tmap_traits@VBrn@OpenHome@@PAVCpDeviceCpp@Net@2@VBufferCmp@2@V?$allocator@U?$pair@$$CBVBrn@OpenHome@@PAVCpDeviceCpp@Net@2@@std@@@std@@$0A@@std@@@2@@Z 00415080 f i libohNetCore:CpDeviceStd.obj
 0001:000141a0       ?_Orphan_ptr@?$_Tree@V?$_Tmap_traits@VBrn@OpenHome@@PAVCpDeviceCpp@Net@2@VBufferCmp@2@V?$allocator@U?$pair@$$CBVBrn@OpenHome@@PAVCpDeviceCpp@Net@2@@std@@@std@@$0A@@std@@@std@@IBEXAAV12@PAU_Node@?$_Tree_nod@V?$_Tmap_traits@VBrn@OpenHome@@PAVCpDeviceCpp@Net@2@VBufferCmp@2@V?$allocator@U?$pair@$$CBVBrn@OpenHome@@PAVCpDeviceCpp@Net@2@@std@@@std@@$0A@@std@@@2@@Z 004151a0 f i libohNetCore:CpDeviceStd.obj
 0001:000142b0       ?_Getpfirst@_Container_base12@std@@QBEPAPAU_Iterator_base12@2@XZ 004152b0 f i libohNetCore:CpDeviceStd.obj
 0001:000142f0       ?_Clrcont@_Iterator_base12@std@@QAEXXZ 004152f0 f i libohNetCore:CpDeviceStd.obj
 0001:00014310       ?_Getpnext@_Iterator_base12@std@@QAEPAPAU12@XZ 00415310 f i libohNetCore:CpDeviceStd.obj
 0001:00014330       ?_Tidy@?$_Tree@V?$_Tmap_traits@VBrn@OpenHome@@PAVCpDeviceCpp@Net@2@VBufferCmp@2@V?$allocator@U?$pair@$$CBVBrn@OpenHome@@PAVCpDeviceCpp@Net@2@@std@@@std@@$0A@@std@@@std@@IAEXXZ 00415330 f i libohNetCore:CpDeviceStd.obj
 0001:00014430       ??1?$_Tree_val@V?$_Tmap_traits@VBrn@OpenHome@@PAVCpDeviceCpp@Net@2@VBufferCmp@2@V?$allocator@U?$pair@$$CBVBrn@OpenHome@@PAVCpDeviceCpp@Net@2@@std@@@std@@$0A@@std@@@std@@QAE@XZ 00415430 f i libohNetCore:CpDeviceStd.obj
 0001:000144a0       ?_Color@?$_Tree_val@V?$_Tmap_traits@VBrn@OpenHome@@PAVCpDeviceCpp@Net@2@VBufferCmp@2@V?$allocator@U?$pair@$$CBVBrn@OpenHome@@PAVCpDeviceCpp@Net@2@@std@@@std@@$0A@@std@@@std@@SGAADPAU_Node@?$_Tree_nod@V?$_Tmap_traits@VBrn@OpenHome@@PAVCpDeviceCpp@Net@2@VBufferCmp@2@V?$allocator@U?$pair@$$CBVBrn@OpenHome@@PAVCpDeviceCpp@Net@2@@std@@@std@@$0A@@std@@@2@@Z 004154a0 f i libohNetCore:CpDeviceStd.obj
 0001:000144b0       ?_Isnil@?$_Tree_val@V?$_Tmap_traits@VBrn@OpenHome@@PAVCpDeviceCpp@Net@2@VBufferCmp@2@V?$allocator@U?$pair@$$CBVBrn@OpenHome@@PAVCpDeviceCpp@Net@2@@std@@@std@@$0A@@std@@@std@@SGAADPAU_Node@?$_Tree_nod@V?$_Tmap_traits@VBrn@OpenHome@@PAVCpDeviceCpp@Net@2@VBufferCmp@2@V?$allocator@U?$pair@$$CBVBrn@OpenHome@@PAVCpDeviceCpp@Net@2@@std@@@std@@$0A@@std@@@2@@Z 004154b0 f i libohNetCore:CpDeviceStd.obj
 0001:000144c0       ?_Key@?$_Tree_val@V?$_Tmap_traits@VBrn@OpenHome@@PAVCpDeviceCpp@Net@2@VBufferCmp@2@V?$allocator@U?$pair@$$CBVBrn@OpenHome@@PAVCpDeviceCpp@Net@2@@std@@@std@@$0A@@std@@@std@@SGAAVBrn@OpenHome@@PAU_Node@?$_Tree_nod@V?$_Tmap_traits@VBrn@OpenHome@@PAVCpDeviceCpp@Net@2@VBufferCmp@2@V?$allocator@U?$pair@$$CBVBrn@OpenHome@@PAVCpDeviceCpp@Net@2@@std@@@std@@$0A@@std@@@2@@Z 004154c0 f i libohNetCore:CpDeviceStd.obj
 0001:000144e0       ?_Left@?$_Tree_val@V?$_Tmap_traits@VBrn@OpenHome@@PAVCpDeviceCpp@Net@2@VBufferCmp@2@V?$allocator@U?$pair@$$CBVBrn@OpenHome@@PAVCpDeviceCpp@Net@2@@std@@@std@@$0A@@std@@@std@@SGAAPAU_Node@?$_Tree_nod@V?$_Tmap_traits@VBrn@OpenHome@@PAVCpDeviceCpp@Net@2@VBufferCmp@2@V?$allocator@U?$pair@$$CBVBrn@OpenHome@@PAVCpDeviceCpp@Net@2@@std@@@std@@$0A@@std@@@2@PAU342@@Z 004154e0 f i libohNetCore:CpDeviceStd.obj
 0001:000144f0       ?_Parent@?$_Tree_val@V?$_Tmap_traits@VBrn@OpenHome@@PAVCpDeviceCpp@Net@2@VBufferCmp@2@V?$allocator@U?$pair@$$CBVBrn@OpenHome@@PAVCpDeviceCpp@Net@2@@std@@@std@@$0A@@std@@@std@@SGAAPAU_Node@?$_Tree_nod@V?$_Tmap_traits@VBrn@OpenHome@@PAVCpDeviceCpp@Net@2@VBufferCmp@2@V?$allocator@U?$pair@$$CBVBrn@OpenHome@@PAVCpDeviceCpp@Net@2@@std@@@std@@$0A@@std@@@2@PAU342@@Z 004154f0 f i libohNetCore:CpDeviceStd.obj
 0001:00014500       ?_Right@?$_Tree_val@V?$_Tmap_traits@VBrn@OpenHome@@PAVCpDeviceCpp@Net@2@VBufferCmp@2@V?$allocator@U?$pair@$$CBVBrn@OpenHome@@PAVCpDeviceCpp@Net@2@@std@@@std@@$0A@@std@@@std@@SGAAPAU_Node@?$_Tree_nod@V?$_Tmap_traits@VBrn@OpenHome@@PAVCpDeviceCpp@Net@2@VBufferCmp@2@V?$allocator@U?$pair@$$CBVBrn@OpenHome@@PAVCpDeviceCpp@Net@2@@std@@@std@@$0A@@std@@@2@PAU342@@Z 00415500 f i libohNetCore:CpDeviceStd.obj
 0001:00014510       ?_Myval@?$_Tree_val@V?$_Tmap_traits@VBrn@OpenHome@@PAVCpDeviceCpp@Net@2@VBufferCmp@2@V?$allocator@U?$pair@$$CBVBrn@OpenHome@@PAVCpDeviceCpp@Net@2@@std@@@std@@$0A@@std@@@std@@SGAAU?$pair@$$CBVBrn@OpenHome@@PAVCpDeviceCpp@Net@2@@2@PAU_Node@?$_Tree_nod@V?$_Tmap_traits@VBrn@OpenHome@@PAVCpDeviceCpp@Net@2@VBufferCmp@2@V?$allocator@U?$pair@$$CBVBrn@OpenHome@@PAVCpDeviceCpp@Net@2@@std@@@std@@$0A@@std@@@2@@Z 00415510 f i libohNetCore:CpDeviceStd.obj
 0001:00014520       ?_Max@?$_Tree_val@V?$_Tmap_traits@VBrn@OpenHome@@PAVCpDeviceCpp@Net@2@VBufferCmp@2@V?$allocator@U?$pair@$$CBVBrn@OpenHome@@PAVCpDeviceCpp@Net@2@@std@@@std@@$0A@@std@@@std@@SGPAU_Node@?$_Tree_nod@V?$_Tmap_traits@VBrn@OpenHome@@PAVCpDeviceCpp@Net@2@VBufferCmp@2@V?$allocator@U?$pair@$$CBVBrn@OpenHome@@PAVCpDeviceCpp@Net@2@@std@@@std@@$0A@@std@@@2@PAU342@@Z 00415520 f i libohNetCore:CpDeviceStd.obj
 0001:00014560       ?_Min@?$_Tree_val@V?$_Tmap_traits@VBrn@OpenHome@@PAVCpDeviceCpp@Net@2@VBufferCmp@2@V?$allocator@U?$pair@$$CBVBrn@OpenHome@@PAVCpDeviceCpp@Net@2@@std@@@std@@$0A@@std@@@std@@SGPAU_Node@?$_Tree_nod@V?$_Tmap_traits@VBrn@OpenHome@@PAVCpDeviceCpp@Net@2@VBufferCmp@2@V?$allocator@U?$pair@$$CBVBrn@OpenHome@@PAVCpDeviceCpp@Net@2@@std@@@std@@$0A@@std@@@2@PAU342@@Z 00415560 f i libohNetCore:CpDeviceStd.obj
 0001:000145a0       ??0?$allocator@U?$pair@$$CBVBrn@OpenHome@@PAVCpDeviceCpp@Net@2@@std@@@std@@QAE@XZ 004155a0 f i libohNetCore:CpDeviceStd.obj
 0001:000145c0       ?deallocate@?$allocator@U_Node@?$_Tree_nod@V?$_Tmap_traits@VBrn@OpenHome@@PAVCpDeviceCpp@Net@2@VBufferCmp@2@V?$allocator@U?$pair@$$CBVBrn@OpenHome@@PAVCpDeviceCpp@Net@2@@std@@@std@@$0A@@std@@@std@@@std@@QAEXPAU_Node@?$_Tree_nod@V?$_Tmap_traits@VBrn@OpenHome@@PAVCpDeviceCpp@Net@2@VBufferCmp@2@V?$allocator@U?$pair@$$CBVBrn@OpenHome@@PAVCpDeviceCpp@Net@2@@std@@@std@@$0A@@std@@@2@I@Z 004155c0 f i libohNetCore:CpDeviceStd.obj
 0001:000145f0       ??0?$_String_iterator@DU?$char_traits@D@std@@V?$allocator@D@2@@std@@QAE@PADPBU_Container_base12@1@@Z 004155f0 f i libohNetCore:CpDeviceStd.obj
 0001:00014630       ??0?$_Tree_iterator@V?$_Tree_val@V?$_Tmap_traits@VBrn@OpenHome@@PAVCpDeviceCpp@Net@2@VBufferCmp@2@V?$allocator@U?$pair@$$CBVBrn@OpenHome@@PAVCpDeviceCpp@Net@2@@std@@@std@@$0A@@std@@@std@@@std@@QAE@PAU_Node@?$_Tree_nod@V?$_Tmap_traits@VBrn@OpenHome@@PAVCpDeviceCpp@Net@2@VBufferCmp@2@V?$allocator@U?$pair@$$CBVBrn@OpenHome@@PAVCpDeviceCpp@Net@2@@std@@@std@@$0A@@std@@@1@PBV?$_Tree_val@V?$_Tmap_traits@VBrn@OpenHome@@PAVCpDeviceCpp@Net@2@VBufferCmp@2@V?$allocator@U?$pair@$$CBVBrn@OpenHome@@PAVCpDeviceCpp@Net@2@@std@@@std@@$0A@@std@@@1@@Z 00415630 f i libohNetCore:CpDeviceStd.obj
 0001:00014670       ??D?$_Tree_iterator@V?$_Tree_val@V?$_Tmap_traits@VBrn@OpenHome@@PAVCpDeviceCpp@Net@2@VBufferCmp@2@V?$allocator@U?$pair@$$CBVBrn@OpenHome@@PAVCpDeviceCpp@Net@2@@std@@@std@@$0A@@std@@@std@@@std@@QBEAAU?$pair@$$CBVBrn@OpenHome@@PAVCpDeviceCpp@Net@2@@1@XZ 00415670 f i libohNetCore:CpDeviceStd.obj
 0001:000146a0       ??E?$_Tree_iterator@V?$_Tree_val@V?$_Tmap_traits@VBrn@OpenHome@@PAVCpDeviceCpp@Net@2@VBufferCmp@2@V?$allocator@U?$pair@$$CBVBrn@OpenHome@@PAVCpDeviceCpp@Net@2@@std@@@std@@$0A@@std@@@std@@@std@@QAEAAV01@XZ 004156a0 f i libohNetCore:CpDeviceStd.obj
 0001:000146d0       ??E?$_Tree_const_iterator@V?$_Tree_val@V?$_Tmap_traits@VBrn@OpenHome@@PAVCpDeviceCpp@Net@2@VBufferCmp@2@V?$allocator@U?$pair@$$CBVBrn@OpenHome@@PAVCpDeviceCpp@Net@2@@std@@@std@@$0A@@std@@@std@@@std@@QAEAAV01@XZ 004156d0 f i libohNetCore:CpDeviceStd.obj
 0001:00014790       ??8?$_Tree_const_iterator@V?$_Tree_val@V?$_Tmap_traits@VBrn@OpenHome@@PAVCpDeviceCpp@Net@2@VBufferCmp@2@V?$allocator@U?$pair@$$CBVBrn@OpenHome@@PAVCpDeviceCpp@Net@2@@std@@@std@@$0A@@std@@@std@@@std@@QBE_NABV01@@Z 00415790 f i libohNetCore:CpDeviceStd.obj
 0001:00014850       ?_Mynode@?$_Tree_unchecked_const_iterator@V?$_Tree_val@V?$_Tmap_traits@VBrn@OpenHome@@PAVCpDeviceCpp@Net@2@VBufferCmp@2@V?$allocator@U?$pair@$$CBVBrn@OpenHome@@PAVCpDeviceCpp@Net@2@@std@@@std@@$0A@@std@@@std@@U_Iterator_base12@2@@std@@QBEPAU_Node@?$_Tree_nod@V?$_Tmap_traits@VBrn@OpenHome@@PAVCpDeviceCpp@Net@2@VBufferCmp@2@V?$allocator@U?$pair@$$CBVBrn@OpenHome@@PAVCpDeviceCpp@Net@2@@std@@@std@@$0A@@std@@@2@XZ 00415850 f i libohNetCore:CpDeviceStd.obj
 0001:00014870       ?erase@?$_Tree@V?$_Tmap_traits@VBrn@OpenHome@@PAVCpDeviceCpp@Net@2@VBufferCmp@2@V?$allocator@U?$pair@$$CBVBrn@OpenHome@@PAVCpDeviceCpp@Net@2@@std@@@std@@$0A@@std@@@std@@QAE?AV?$_Tree_iterator@V?$_Tree_val@V?$_Tmap_traits@VBrn@OpenHome@@PAVCpDeviceCpp@Net@2@VBufferCmp@2@V?$allocator@U?$pair@$$CBVBrn@OpenHome@@PAVCpDeviceCpp@Net@2@@std@@@std@@$0A@@std@@@std@@@2@V?$_Tree_const_iterator@V?$_Tree_val@V?$_Tmap_traits@VBrn@OpenHome@@PAVCpDeviceCpp@Net@2@VBufferCmp@2@V?$allocator@U?$pair@$$CBVBrn@OpenHome@@PAVCpDeviceCpp@Net@2@@std@@@std@@$0A@@std@@@std@@@2@0@Z 00415870 f i libohNetCore:CpDeviceStd.obj
 0001:00014a70       ?_Lbound@?$_Tree@V?$_Tmap_traits@VBrn@OpenHome@@PAVCpDeviceCpp@Net@2@VBufferCmp@2@V?$allocator@U?$pair@$$CBVBrn@OpenHome@@PAVCpDeviceCpp@Net@2@@std@@@std@@$0A@@std@@@std@@IAEPAU_Node@?$_Tree_nod@V?$_Tmap_traits@VBrn@OpenHome@@PAVCpDeviceCpp@Net@2@VBufferCmp@2@V?$allocator@U?$pair@$$CBVBrn@OpenHome@@PAVCpDeviceCpp@Net@2@@std@@@std@@$0A@@std@@@2@ABVBrn@OpenHome@@@Z 00415a70 f i libohNetCore:CpDeviceStd.obj
 0001:00014b20       ??0?$_Tree_val@V?$_Tmap_traits@VBrn@OpenHome@@PAVCpDeviceCpp@Net@2@VBufferCmp@2@V?$allocator@U?$pair@$$CBVBrn@OpenHome@@PAVCpDeviceCpp@Net@2@@std@@@std@@$0A@@std@@@std@@QAE@ABVBufferCmp@OpenHome@@V?$allocator@U?$pair@$$CBVBrn@OpenHome@@PAVCpDeviceCpp@Net@2@@std@@@1@@Z 00415b20 f i libohNetCore:CpDeviceStd.obj
 0001:00014c20       ??1?$_Tree_nod@V?$_Tmap_traits@VBrn@OpenHome@@PAVCpDeviceCpp@Net@2@VBufferCmp@2@V?$allocator@U?$pair@$$CBVBrn@OpenHome@@PAVCpDeviceCpp@Net@2@@std@@@std@@$0A@@std@@@std@@QAE@XZ 00415c20 f i libohNetCore:CpDeviceStd.obj
 0001:00014d00       ??0?$allocator@U?$pair@$$CBVBrn@OpenHome@@PAVCpDeviceCpp@Net@2@@std@@@std@@QAE@ABV01@@Z 00415d00 f i libohNetCore:CpDeviceStd.obj
 0001:00014d20       ??0?$_String_const_iterator@DU?$char_traits@D@std@@V?$allocator@D@2@@std@@QAE@PBDPBU_Container_base12@1@@Z 00415d20 f i libohNetCore:CpDeviceStd.obj
 0001:00014da0       ??G?$_String_const_iterator@DU?$char_traits@D@std@@V?$allocator@D@2@@std@@QBEHABV01@@Z 00415da0 f i libohNetCore:CpDeviceStd.obj
 0001:00014de0       ??0?$_Tree_const_iterator@V?$_Tree_val@V?$_Tmap_traits@VBrn@OpenHome@@PAVCpDeviceCpp@Net@2@VBufferCmp@2@V?$allocator@U?$pair@$$CBVBrn@OpenHome@@PAVCpDeviceCpp@Net@2@@std@@@std@@$0A@@std@@@std@@@std@@QAE@PAU_Node@?$_Tree_nod@V?$_Tmap_traits@VBrn@OpenHome@@PAVCpDeviceCpp@Net@2@VBufferCmp@2@V?$allocator@U?$pair@$$CBVBrn@OpenHome@@PAVCpDeviceCpp@Net@2@@std@@@std@@$0A@@std@@@1@PBV?$_Tree_val@V?$_Tmap_traits@VBrn@OpenHome@@PAVCpDeviceCpp@Net@2@VBufferCmp@2@V?$allocator@U?$pair@$$CBVBrn@OpenHome@@PAVCpDeviceCpp@Net@2@@std@@@std@@$0A@@std@@@1@@Z 00415de0 f i libohNetCore:CpDeviceStd.obj
 0001:00014e20       ??D?$_Tree_const_iterator@V?$_Tree_val@V?$_Tmap_traits@VBrn@OpenHome@@PAVCpDeviceCpp@Net@2@VBufferCmp@2@V?$allocator@U?$pair@$$CBVBrn@OpenHome@@PAVCpDeviceCpp@Net@2@@std@@@std@@$0A@@std@@@std@@@std@@QBEABU?$pair@$$CBVBrn@OpenHome@@PAVCpDeviceCpp@Net@2@@1@XZ 00415e20 f i libohNetCore:CpDeviceStd.obj
 0001:00014ee0       ??E?$_Tree_unchecked_const_iterator@V?$_Tree_val@V?$_Tmap_traits@VBrn@OpenHome@@PAVCpDeviceCpp@Net@2@VBufferCmp@2@V?$allocator@U?$pair@$$CBVBrn@OpenHome@@PAVCpDeviceCpp@Net@2@@std@@@std@@$0A@@std@@@std@@U_Iterator_base12@2@@std@@QAEAAV01@XZ 00415ee0 f i libohNetCore:CpDeviceStd.obj
 0001:00014fa0       ??1?$_Tmap_traits@VBrn@OpenHome@@PAVCpDeviceCpp@Net@2@VBufferCmp@2@V?$allocator@U?$pair@$$CBVBrn@OpenHome@@PAVCpDeviceCpp@Net@2@@std@@@std@@$0A@@std@@QAE@XZ 00415fa0 f i libohNetCore:CpDeviceStd.obj
 0001:00014fd0       ??0?$_Iterator012@Urandom_access_iterator_tag@std@@DHPBDABDU_Iterator_base12@2@@std@@QAE@XZ 00415fd0 f i libohNetCore:CpDeviceStd.obj
 0001:00015000       ??0_Iterator_base12@std@@QAE@XZ 00416000 f i libohNetCore:CpDeviceStd.obj
 0001:00015030       ??0?$_Tree_nod@V?$_Tmap_traits@VBrn@OpenHome@@PAVCpDeviceCpp@Net@2@VBufferCmp@2@V?$allocator@U?$pair@$$CBVBrn@OpenHome@@PAVCpDeviceCpp@Net@2@@std@@@std@@$0A@@std@@@std@@QAE@ABVBufferCmp@OpenHome@@V?$allocator@U?$pair@$$CBVBrn@OpenHome@@PAVCpDeviceCpp@Net@2@@std@@@1@@Z 00416030 f i libohNetCore:CpDeviceStd.obj
 0001:00015140       ?allocate@?$allocator@U_Node@?$_Tree_nod@V?$_Tmap_traits@VBrn@OpenHome@@PAVCpDeviceCpp@Net@2@VBufferCmp@2@V?$allocator@U?$pair@$$CBVBrn@OpenHome@@PAVCpDeviceCpp@Net@2@@std@@@std@@$0A@@std@@@std@@@std@@QAEPAU_Node@?$_Tree_nod@V?$_Tmap_traits@VBrn@OpenHome@@PAVCpDeviceCpp@Net@2@VBufferCmp@2@V?$allocator@U?$pair@$$CBVBrn@OpenHome@@PAVCpDeviceCpp@Net@2@@std@@@std@@$0A@@std@@@2@I@Z 00416140 f i libohNetCore:CpDeviceStd.obj
 0001:00015170       ?_Compat@?$_String_const_iterator@DU?$char_traits@D@std@@V?$allocator@D@2@@std@@QBEXABV12@@Z 00416170 f i libohNetCore:CpDeviceStd.obj
 0001:00015220       ??E?$_Tree_const_iterator@V?$_Tree_val@V?$_Tmap_traits@VBrn@OpenHome@@PAVCpDeviceCpp@Net@2@VBufferCmp@2@V?$allocator@U?$pair@$$CBVBrn@OpenHome@@PAVCpDeviceCpp@Net@2@@std@@@std@@$0A@@std@@@std@@@std@@QAE?AV01@H@Z 00416220 f i libohNetCore:CpDeviceStd.obj
 0001:000152f0       ??0?$_Tree_unchecked_const_iterator@V?$_Tree_val@V?$_Tmap_traits@VBrn@OpenHome@@PAVCpDeviceCpp@Net@2@VBufferCmp@2@V?$allocator@U?$pair@$$CBVBrn@OpenHome@@PAVCpDeviceCpp@Net@2@@std@@@std@@$0A@@std@@@std@@U_Iterator_base12@2@@std@@QAE@PAU_Node@?$_Tree_nod@V?$_Tmap_traits@VBrn@OpenHome@@PAVCpDeviceCpp@Net@2@VBufferCmp@2@V?$allocator@U?$pair@$$CBVBrn@OpenHome@@PAVCpDeviceCpp@Net@2@@std@@@std@@$0A@@std@@@1@PBV?$_Tree_val@V?$_Tmap_traits@VBrn@OpenHome@@PAVCpDeviceCpp@Net@2@VBufferCmp@2@V?$allocator@U?$pair@$$CBVBrn@OpenHome@@PAVCpDeviceCpp@Net@2@@std@@@std@@$0A@@std@@@1@@Z 004162f0 f i libohNetCore:CpDeviceStd.obj
 0001:00015370       ??0?$_Iterator012@Ubidirectional_iterator_tag@std@@U?$pair@$$CBVBrn@OpenHome@@PAVCpDeviceCpp@Net@2@@2@HPBU32@ABU32@U_Iterator_base12@2@@std@@QAE@XZ 00416370 f i libohNetCore:CpDeviceStd.obj
 0001:000153a0       ??0?$_Tmap_traits@VBrn@OpenHome@@PAVCpDeviceCpp@Net@2@VBufferCmp@2@V?$allocator@U?$pair@$$CBVBrn@OpenHome@@PAVCpDeviceCpp@Net@2@@std@@@std@@$0A@@std@@QAE@VBufferCmp@OpenHome@@@Z 004163a0 f i libohNetCore:CpDeviceStd.obj
 0001:000153d0       ??$MakeFunctorCpiDevice@VCpDeviceListCpp@Net@OpenHome@@V123@@Net@OpenHome@@YG?AV?$MemberTranslatorCpiDevice@VCpDeviceListCpp@Net@OpenHome@@P8123@AEXAAVCpiDevice@23@@Z@01@AAVCpDeviceListCpp@01@ABQ8301@AEXAAVCpiDevice@01@@Z@Z 004163d0 f i libohNetCore:CpDeviceStd.obj
 0001:00015400       ??$?0AAVBrn@OpenHome@@AAPAVCpDeviceCpp@Net@1@@?$pair@VBrn@OpenHome@@PAVCpDeviceCpp@Net@2@@std@@QAE@AAVBrn@OpenHome@@AAPAVCpDeviceCpp@Net@3@@Z 00416400 f i libohNetCore:CpDeviceStd.obj
 0001:00015440       ??$insert@U?$pair@VBrn@OpenHome@@PAVCpDeviceCpp@Net@2@@std@@@?$_Tree@V?$_Tmap_traits@VBrn@OpenHome@@PAVCpDeviceCpp@Net@2@VBufferCmp@2@V?$allocator@U?$pair@$$CBVBrn@OpenHome@@PAVCpDeviceCpp@Net@2@@std@@@std@@$0A@@std@@@std@@QAE?AU?$pair@V?$_Tree_iterator@V?$_Tree_val@V?$_Tmap_traits@VBrn@OpenHome@@PAVCpDeviceCpp@Net@2@VBufferCmp@2@V?$allocator@U?$pair@$$CBVBrn@OpenHome@@PAVCpDeviceCpp@Net@2@@std@@@std@@$0A@@std@@@std@@@std@@_N@1@$$QAU?$pair@VBrn@OpenHome@@PAVCpDeviceCpp@Net@2@@1@@Z 00416440 f i libohNetCore:CpDeviceStd.obj
 0001:000154a0       ??$swap@D@std@@YGXAAD0@Z   004164a0 f i libohNetCore:CpDeviceStd.obj
 0001:00015530       ??$addressof@U?$pair@$$CBVBrn@OpenHome@@PAVCpDeviceCpp@Net@2@@std@@@std@@YGPAU?$pair@$$CBVBrn@OpenHome@@PAVCpDeviceCpp@Net@2@@0@AAU10@@Z 00416530 f i libohNetCore:CpDeviceStd.obj
 0001:00015540       ??$_Dest_val@V?$allocator@U?$pair@$$CBVBrn@OpenHome@@PAVCpDeviceCpp@Net@2@@std@@@std@@U?$pair@$$CBVBrn@OpenHome@@PAVCpDeviceCpp@Net@2@@2@@std@@YGXAAV?$allocator@U?$pair@$$CBVBrn@OpenHome@@PAVCpDeviceCpp@Net@2@@std@@@0@PAU?$pair@$$CBVBrn@OpenHome@@PAVCpDeviceCpp@Net@2@@0@@Z 00416540 f i libohNetCore:CpDeviceStd.obj
 0001:00015560       ??$_Debug_lt_pred@VBufferCmp@OpenHome@@VBrn@2@V32@@std@@YG_NVBufferCmp@OpenHome@@ABVBrn@2@AAV32@PB_WI@Z 00416560 f i libohNetCore:CpDeviceStd.obj
 0001:000155c0       ??$_Kfn@$$CBVBrn@OpenHome@@PAVCpDeviceCpp@Net@2@@?$_Tmap_traits@VBrn@OpenHome@@PAVCpDeviceCpp@Net@2@VBufferCmp@2@V?$allocator@U?$pair@$$CBVBrn@OpenHome@@PAVCpDeviceCpp@Net@2@@std@@@std@@$0A@@std@@SGABVBrn@OpenHome@@ABU?$pair@$$CBVBrn@OpenHome@@PAVCpDeviceCpp@Net@2@@1@@Z 004165c0 f i libohNetCore:CpDeviceStd.obj
 0001:000155d0       ??$_Debug_lt_pred@VBufferCmp@OpenHome@@VBrn@2@V32@@std@@YG_NVBufferCmp@OpenHome@@AAVBrn@2@ABV32@PB_WI@Z 004165d0 f i libohNetCore:CpDeviceStd.obj
 0001:00015630       ??$?0U_Node@?$_Tree_nod@V?$_Tmap_traits@VBrn@OpenHome@@PAVCpDeviceCpp@Net@2@VBufferCmp@2@V?$allocator@U?$pair@$$CBVBrn@OpenHome@@PAVCpDeviceCpp@Net@2@@std@@@std@@$0A@@std@@@std@@@?$allocator@U_Container_proxy@std@@@std@@QAE@ABV?$allocator@U_Node@?$_Tree_nod@V?$_Tmap_traits@VBrn@OpenHome@@PAVCpDeviceCpp@Net@2@VBufferCmp@2@V?$allocator@U?$pair@$$CBVBrn@OpenHome@@PAVCpDeviceCpp@Net@2@@std@@@std@@$0A@@std@@@std@@@1@@Z 00416630 f i libohNetCore:CpDeviceStd.obj
 0001:00015650       ??$?0U?$pair@$$CBVBrn@OpenHome@@PAVCpDeviceCpp@Net@2@@std@@@?$allocator@U_Node@?$_Tree_nod@V?$_Tmap_traits@VBrn@OpenHome@@PAVCpDeviceCpp@Net@2@VBufferCmp@2@V?$allocator@U?$pair@$$CBVBrn@OpenHome@@PAVCpDeviceCpp@Net@2@@std@@@std@@$0A@@std@@@std@@@std@@QAE@ABV?$allocator@U?$pair@$$CBVBrn@OpenHome@@PAVCpDeviceCpp@Net@2@@std@@@1@@Z 00416650 f i libohNetCore:CpDeviceStd.obj
 0001:00015670       ??$_Allocate@U_Node@?$_Tree_nod@V?$_Tmap_traits@VBrn@OpenHome@@PAVCpDeviceCpp@Net@2@VBufferCmp@2@V?$allocator@U?$pair@$$CBVBrn@OpenHome@@PAVCpDeviceCpp@Net@2@@std@@@std@@$0A@@std@@@std@@@std@@YGPAU_Node@?$_Tree_nod@V?$_Tmap_traits@VBrn@OpenHome@@PAVCpDeviceCpp@Net@2@VBufferCmp@2@V?$allocator@U?$pair@$$CBVBrn@OpenHome@@PAVCpDeviceCpp@Net@2@@std@@@std@@$0A@@std@@@0@IPAU120@@Z 00416670 f i libohNetCore:CpDeviceStd.obj
 0001:000156f0       ?_Linsert@?$_Tree@V?$_Tmap_traits@VBrn@OpenHome@@PAVCpDeviceCpp@Net@2@VBufferCmp@2@V?$allocator@U?$pair@$$CBVBrn@OpenHome@@PAVCpDeviceCpp@Net@2@@std@@@std@@$0A@@std@@@std@@QAE?AU?$pair@V?$_Tree_iterator@V?$_Tree_val@V?$_Tmap_traits@VBrn@OpenHome@@PAVCpDeviceCpp@Net@2@VBufferCmp@2@V?$allocator@U?$pair@$$CBVBrn@OpenHome@@PAVCpDeviceCpp@Net@2@@std@@@std@@$0A@@std@@@std@@@std@@_N@2@PAU_Node@?$_Tree_nod@V?$_Tmap_traits@VBrn@OpenHome@@PAVCpDeviceCpp@Net@2@VBufferCmp@2@V?$allocator@U?$pair@$$CBVBrn@OpenHome@@PAVCpDeviceCpp@Net@2@@std@@@std@@$0A@@std@@@2@_N@Z 004166f0 f i libohNetCore:CpDeviceStd.obj
 0001:00015ad0       ?destroy@?$allocator@U?$pair@$$CBVBrn@OpenHome@@PAVCpDeviceCpp@Net@2@@std@@@std@@QAEXPAU?$pair@$$CBVBrn@OpenHome@@PAVCpDeviceCpp@Net@2@@2@@Z 00416ad0 f i libohNetCore:CpDeviceStd.obj
 0001:00015b00       ??0?$MemberTranslatorCpiDevice@VCpDeviceListCpp@Net@OpenHome@@P8123@AEXAAVCpiDevice@23@@Z@Net@OpenHome@@QAE@AAVCpDeviceListCpp@12@ABQ8312@AEXAAVCpiDevice@12@@Z@Z 00416b00 f i libohNetCore:CpDeviceStd.obj
 0001:00015b40       ??0FunctorCpiDevice@Net@OpenHome@@IAE@P6GXABV012@AAVCpiDevice@12@@ZPBX3I@Z 00416b40 f i libohNetCore:CpDeviceStd.obj
 0001:00015b90       ?_Insert@?$_Tree@V?$_Tmap_traits@VBrn@OpenHome@@PAVCpDeviceCpp@Net@2@VBufferCmp@2@V?$allocator@U?$pair@$$CBVBrn@OpenHome@@PAVCpDeviceCpp@Net@2@@std@@@std@@$0A@@std@@@std@@IAE?AV?$_Tree_iterator@V?$_Tree_val@V?$_Tmap_traits@VBrn@OpenHome@@PAVCpDeviceCpp@Net@2@VBufferCmp@2@V?$allocator@U?$pair@$$CBVBrn@OpenHome@@PAVCpDeviceCpp@Net@2@@std@@@std@@$0A@@std@@@std@@@2@_NPAU_Node@?$_Tree_nod@V?$_Tmap_traits@VBrn@OpenHome@@PAVCpDeviceCpp@Net@2@VBufferCmp@2@V?$allocator@U?$pair@$$CBVBrn@OpenHome@@PAVCpDeviceCpp@Net@2@@std@@@std@@$0A@@std@@@2@1@Z 00416b90 f i libohNetCore:CpDeviceStd.obj
 0001:00015f50       ??F?$_Tree_iterator@V?$_Tree_val@V?$_Tmap_traits@VBrn@OpenHome@@PAVCpDeviceCpp@Net@2@VBufferCmp@2@V?$allocator@U?$pair@$$CBVBrn@OpenHome@@PAVCpDeviceCpp@Net@2@@std@@@std@@$0A@@std@@@std@@@std@@QAEAAV01@XZ 00416f50 f i libohNetCore:CpDeviceStd.obj
 0001:00015f80       ?Thunk@?$MemberTranslatorCpiDevice@VCpDeviceListCpp@Net@OpenHome@@P8123@AEXAAVCpiDevice@23@@Z@Net@OpenHome@@SGXABVFunctorCpiDevice@23@AAVCpiDevice@23@@Z 00416f80 f i libohNetCore:CpDeviceStd.obj
 0001:00015fd0       ??0?$pair@V?$_Tree_iterator@V?$_Tree_val@V?$_Tmap_traits@VBrn@OpenHome@@PAVCpDeviceCpp@Net@2@VBufferCmp@2@V?$allocator@U?$pair@$$CBVBrn@OpenHome@@PAVCpDeviceCpp@Net@2@@std@@@std@@$0A@@std@@@std@@@std@@_N@std@@QAE@$$QAV?$_Tree_iterator@V?$_Tree_val@V?$_Tmap_traits@VBrn@OpenHome@@PAVCpDeviceCpp@Net@2@VBufferCmp@2@V?$allocator@U?$pair@$$CBVBrn@OpenHome@@PAVCpDeviceCpp@Net@2@@std@@@std@@$0A@@std@@@std@@@1@$$QA_N@Z 00416fd0 f i libohNetCore:CpDeviceStd.obj
 0001:00016010       ?max_size@?$_Tree@V?$_Tmap_traits@VBrn@OpenHome@@PAVCpDeviceCpp@Net@2@VBufferCmp@2@V?$allocator@U?$pair@$$CBVBrn@OpenHome@@PAVCpDeviceCpp@Net@2@@std@@@std@@$0A@@std@@@std@@QBEIXZ 00417010 f i libohNetCore:CpDeviceStd.obj
 0001:00016040       ??F?$_Tree_const_iterator@V?$_Tree_val@V?$_Tmap_traits@VBrn@OpenHome@@PAVCpDeviceCpp@Net@2@VBufferCmp@2@V?$allocator@U?$pair@$$CBVBrn@OpenHome@@PAVCpDeviceCpp@Net@2@@std@@@std@@$0A@@std@@@std@@@std@@QAEAAV01@XZ 00417040 f i libohNetCore:CpDeviceStd.obj
 0001:00016160       ??0?$_Pair_base@V?$_Tree_iterator@V?$_Tree_val@V?$_Tmap_traits@VBrn@OpenHome@@PAVCpDeviceCpp@Net@2@VBufferCmp@2@V?$allocator@U?$pair@$$CBVBrn@OpenHome@@PAVCpDeviceCpp@Net@2@@std@@@std@@$0A@@std@@@std@@@std@@_N@std@@QAE@$$QAV?$_Tree_iterator@V?$_Tree_val@V?$_Tmap_traits@VBrn@OpenHome@@PAVCpDeviceCpp@Net@2@VBufferCmp@2@V?$allocator@U?$pair@$$CBVBrn@OpenHome@@PAVCpDeviceCpp@Net@2@@std@@@std@@$0A@@std@@@std@@@1@$$QA_N@Z 00417160 f i libohNetCore:CpDeviceStd.obj
 0001:000161e0       ?max_size@?$allocator@U?$pair@$$CBVBrn@OpenHome@@PAVCpDeviceCpp@Net@2@@std@@@std@@QBEIXZ 004171e0 f i libohNetCore:CpDeviceStd.obj
 0001:00016230       ??F?$_Tree_unchecked_const_iterator@V?$_Tree_val@V?$_Tmap_traits@VBrn@OpenHome@@PAVCpDeviceCpp@Net@2@VBufferCmp@2@V?$allocator@U?$pair@$$CBVBrn@OpenHome@@PAVCpDeviceCpp@Net@2@@std@@@std@@$0A@@std@@@std@@U_Iterator_base12@2@@std@@QAEAAV01@XZ 00417230 f i libohNetCore:CpDeviceStd.obj
 0001:00016320       ??$forward@AAVBrn@OpenHome@@@std@@YGAAVBrn@OpenHome@@AAV12@@Z 00417320 f i libohNetCore:CpDeviceStd.obj
 0001:00016330       ??$forward@AAPAVCpDeviceCpp@Net@OpenHome@@@std@@YGAAPAVCpDeviceCpp@Net@OpenHome@@AAPAV123@@Z 00417330 f i libohNetCore:CpDeviceStd.obj
 0001:00016340       ??$?0AAVBrn@OpenHome@@AAPAVCpDeviceCpp@Net@1@@?$_Pair_base@VBrn@OpenHome@@PAVCpDeviceCpp@Net@2@@std@@QAE@AAVBrn@OpenHome@@AAPAVCpDeviceCpp@Net@3@@Z 00417340 f i libohNetCore:CpDeviceStd.obj
 0001:000163c0       ??0Brn@OpenHome@@QAE@ABV01@@Z 004173c0 f i libohNetCore:CpDeviceStd.obj
 0001:00016450       ??$forward@U?$pair@VBrn@OpenHome@@PAVCpDeviceCpp@Net@2@@std@@@std@@YG$$QAU?$pair@VBrn@OpenHome@@PAVCpDeviceCpp@Net@2@@0@AAU10@@Z 00417450 f i libohNetCore:CpDeviceStd.obj
 0001:00016460       ??$_Buynode@U?$pair@VBrn@OpenHome@@PAVCpDeviceCpp@Net@2@@std@@@?$_Tree_val@V?$_Tmap_traits@VBrn@OpenHome@@PAVCpDeviceCpp@Net@2@VBufferCmp@2@V?$allocator@U?$pair@$$CBVBrn@OpenHome@@PAVCpDeviceCpp@Net@2@@std@@@std@@$0A@@std@@@std@@QAEPAU_Node@?$_Tree_nod@V?$_Tmap_traits@VBrn@OpenHome@@PAVCpDeviceCpp@Net@2@VBufferCmp@2@V?$allocator@U?$pair@$$CBVBrn@OpenHome@@PAVCpDeviceCpp@Net@2@@std@@@std@@$0A@@std@@@1@$$QAU?$pair@VBrn@OpenHome@@PAVCpDeviceCpp@Net@2@@1@@Z 00417460 f i libohNetCore:CpDeviceStd.obj
 0001:00016540       ??$_Move@AAD@std@@YG$$QADAAD@Z 00417540 f i libohNetCore:CpDeviceStd.obj
 0001:00016550       ??$?0AAV?$_Tree_iterator@V?$_Tree_val@V?$_Tmap_traits@VBrn@OpenHome@@PAVCpDeviceCpp@Net@2@VBufferCmp@2@V?$allocator@U?$pair@$$CBVBrn@OpenHome@@PAVCpDeviceCpp@Net@2@@std@@@std@@$0A@@std@@@std@@@std@@_N@?$pair@V?$_Tree_iterator@V?$_Tree_val@V?$_Tmap_traits@VBrn@OpenHome@@PAVCpDeviceCpp@Net@2@VBufferCmp@2@V?$allocator@U?$pair@$$CBVBrn@OpenHome@@PAVCpDeviceCpp@Net@2@@std@@@std@@$0A@@std@@@std@@@std@@_N@std@@QAE@AAV?$_Tree_iterator@V?$_Tree_val@V?$_Tmap_traits@VBrn@OpenHome@@PAVCpDeviceCpp@Net@2@VBufferCmp@2@V?$allocator@U?$pair@$$CBVBrn@OpenHome@@PAVCpDeviceCpp@Net@2@@std@@@std@@$0A@@std@@@std@@@1@$$QA_N@Z 00417550 f i libohNetCore:CpDeviceStd.obj
 0001:00016590       ??$_Destroy@U?$pair@$$CBVBrn@OpenHome@@PAVCpDeviceCpp@Net@2@@std@@@std@@YGXPAU?$pair@$$CBVBrn@OpenHome@@PAVCpDeviceCpp@Net@2@@0@@Z 00417590 f i libohNetCore:CpDeviceStd.obj
 0001:000165b0       ??$move@AAV?$_Tree_iterator@V?$_Tree_val@V?$_Tmap_traits@VBrn@OpenHome@@PAVCpDeviceCpp@Net@2@VBufferCmp@2@V?$allocator@U?$pair@$$CBVBrn@OpenHome@@PAVCpDeviceCpp@Net@2@@std@@@std@@$0A@@std@@@std@@@std@@@std@@YG$$QAV?$_Tree_iterator@V?$_Tree_val@V?$_Tmap_traits@VBrn@OpenHome@@PAVCpDeviceCpp@Net@2@VBufferCmp@2@V?$allocator@U?$pair@$$CBVBrn@OpenHome@@PAVCpDeviceCpp@Net@2@@std@@@std@@$0A@@std@@@std@@@0@AAV10@@Z 004175b0 f i libohNetCore:CpDeviceStd.obj
 0001:000165c0       ??$move@AA_N@std@@YG$$QA_NAA_N@Z 004175c0 f i libohNetCore:CpDeviceStd.obj
 0001:000165d0       ??_G?$pair@$$CBVBrn@OpenHome@@PAVCpDeviceCpp@Net@2@@std@@QAEPAXI@Z 004175d0 f i libohNetCore:CpDeviceStd.obj
 0001:00016610       ??1?$pair@$$CBVBrn@OpenHome@@PAVCpDeviceCpp@Net@2@@std@@QAE@XZ 00417610 f i libohNetCore:CpDeviceStd.obj
 0001:00016640       ??1?$_Pair_base@$$CBVBrn@OpenHome@@PAVCpDeviceCpp@Net@2@@std@@QAE@XZ 00417640 f i libohNetCore:CpDeviceStd.obj
 0001:00016670       ?_Buynode@?$_Tree_val@V?$_Tmap_traits@VBrn@OpenHome@@PAVCpDeviceCpp@Net@2@VBufferCmp@2@V?$allocator@U?$pair@$$CBVBrn@OpenHome@@PAVCpDeviceCpp@Net@2@@std@@@std@@$0A@@std@@@std@@QAEPAU_Node@?$_Tree_nod@V?$_Tmap_traits@VBrn@OpenHome@@PAVCpDeviceCpp@Net@2@VBufferCmp@2@V?$allocator@U?$pair@$$CBVBrn@OpenHome@@PAVCpDeviceCpp@Net@2@@std@@@std@@$0A@@std@@@2@XZ 00417670 f i libohNetCore:CpDeviceStd.obj
 0001:00016700       ??$_Cons_val@V?$allocator@U?$pair@$$CBVBrn@OpenHome@@PAVCpDeviceCpp@Net@2@@std@@@std@@U?$pair@$$CBVBrn@OpenHome@@PAVCpDeviceCpp@Net@2@@2@U?$pair@VBrn@OpenHome@@PAVCpDeviceCpp@Net@2@@2@@std@@YGXAAV?$allocator@U?$pair@$$CBVBrn@OpenHome@@PAVCpDeviceCpp@Net@2@@std@@@0@PAU?$pair@$$CBVBrn@OpenHome@@PAVCpDeviceCpp@Net@2@@0@$$QAU?$pair@VBrn@OpenHome@@PAVCpDeviceCpp@Net@2@@0@@Z 00417700 f i libohNetCore:CpDeviceStd.obj
 0001:00016730       ??$forward@AAV?$_Tree_iterator@V?$_Tree_val@V?$_Tmap_traits@VBrn@OpenHome@@PAVCpDeviceCpp@Net@2@VBufferCmp@2@V?$allocator@U?$pair@$$CBVBrn@OpenHome@@PAVCpDeviceCpp@Net@2@@std@@@std@@$0A@@std@@@std@@@std@@@std@@YGAAV?$_Tree_iterator@V?$_Tree_val@V?$_Tmap_traits@VBrn@OpenHome@@PAVCpDeviceCpp@Net@2@VBufferCmp@2@V?$allocator@U?$pair@$$CBVBrn@OpenHome@@PAVCpDeviceCpp@Net@2@@std@@@std@@$0A@@std@@@std@@@0@AAV10@@Z 00417730 f i libohNetCore:CpDeviceStd.obj
 0001:00016740       ??$forward@_N@std@@YG$$QA_NAA_N@Z 00417740 f i libohNetCore:CpDeviceStd.obj
 0001:00016750       ??$?0AAV?$_Tree_iterator@V?$_Tree_val@V?$_Tmap_traits@VBrn@OpenHome@@PAVCpDeviceCpp@Net@2@VBufferCmp@2@V?$allocator@U?$pair@$$CBVBrn@OpenHome@@PAVCpDeviceCpp@Net@2@@std@@@std@@$0A@@std@@@std@@@std@@_N@?$_Pair_base@V?$_Tree_iterator@V?$_Tree_val@V?$_Tmap_traits@VBrn@OpenHome@@PAVCpDeviceCpp@Net@2@VBufferCmp@2@V?$allocator@U?$pair@$$CBVBrn@OpenHome@@PAVCpDeviceCpp@Net@2@@std@@@std@@$0A@@std@@@std@@@std@@_N@std@@QAE@AAV?$_Tree_iterator@V?$_Tree_val@V?$_Tmap_traits@VBrn@OpenHome@@PAVCpDeviceCpp@Net@2@VBufferCmp@2@V?$allocator@U?$pair@$$CBVBrn@OpenHome@@PAVCpDeviceCpp@Net@2@@std@@@std@@$0A@@std@@@std@@@1@$$QA_N@Z 00417750 f i libohNetCore:CpDeviceStd.obj
 0001:000167d0       ??$construct@U?$pair@VBrn@OpenHome@@PAVCpDeviceCpp@Net@2@@std@@@?$allocator@U?$pair@$$CBVBrn@OpenHome@@PAVCpDeviceCpp@Net@2@@std@@@std@@QAEXPAU?$pair@$$CBVBrn@OpenHome@@PAVCpDeviceCpp@Net@2@@1@$$QAU?$pair@VBrn@OpenHome@@PAVCpDeviceCpp@Net@2@@1@@Z 004177d0 f i libohNetCore:CpDeviceStd.obj
 0001:00016870       ??$?0VBrn@OpenHome@@PAVCpDeviceCpp@Net@1@@?$pair@$$CBVBrn@OpenHome@@PAVCpDeviceCpp@Net@2@@std@@QAE@$$QAU?$pair@VBrn@OpenHome@@PAVCpDeviceCpp@Net@2@@1@@Z 00417870 f i libohNetCore:CpDeviceStd.obj
 0001:000168b0       ??$forward@VBrn@OpenHome@@@std@@YG$$QAVBrn@OpenHome@@AAV12@@Z 004178b0 f i libohNetCore:CpDeviceStd.obj
 0001:000168c0       ??$forward@PAVCpDeviceCpp@Net@OpenHome@@@std@@YG$$QAPAVCpDeviceCpp@Net@OpenHome@@AAPAV123@@Z 004178c0 f i libohNetCore:CpDeviceStd.obj
 0001:000168d0       ??$?0VBrn@OpenHome@@PAVCpDeviceCpp@Net@1@@?$_Pair_base@$$CBVBrn@OpenHome@@PAVCpDeviceCpp@Net@2@@std@@QAE@$$QAVBrn@OpenHome@@$$QAPAVCpDeviceCpp@Net@3@@Z 004178d0 f i libohNetCore:CpDeviceStd.obj
 0001:00016950       ?New@CpDeviceDvCpp@Net@OpenHome@@SGPAV123@AAVDvDeviceStd@23@@Z 00417950 f   libohNetCore:CpDeviceDvStd.obj
 0001:00016a50       ??1CpDeviceDvCpp@Net@OpenHome@@EAE@XZ 00417a50 f   libohNetCore:CpDeviceDvStd.obj
 0001:00016a80       ??0CpDeviceDvCpp@Net@OpenHome@@AAE@AAVCpiDeviceDv@12@@Z 00417a80 f   libohNetCore:CpDeviceDvStd.obj
 0001:00016ac0       ??_GCpDeviceDvCpp@Net@OpenHome@@EAEPAXI@Z 00417ac0 f i libohNetCore:CpDeviceDvStd.obj
 0001:00016ac0       ??_ECpDeviceDvCpp@Net@OpenHome@@EAEPAXI@Z 00417ac0 f i libohNetCore:CpDeviceDvStd.obj
 0001:00016b00       ?StartCombined@UpnpLibrary@Net@OpenHome@@SGXI@Z 00417b00 f   libohNetCore:OhNetCombined.obj
 0001:00016b20       ?SetAssertHandler@OpenHome@@YGP6GXPBDI@ZP6GX0I@Z@Z 00417b20 f   libohNetCore:Exception.obj
 0001:00016b50       ?CallAssertHandler@OpenHome@@YGXPBDI@Z 00417b50 f   libohNetCore:Exception.obj
 0001:00016b80       ?AssertHandlerDefault@OpenHome@@YGXPBDI@Z 00417b80 f   libohNetCore:Exception.obj
 0001:00016c70       ?UnhandledExceptionHandler@OpenHome@@YGXPBD0I@Z 00417c70 f   libohNetCore:Exception.obj
 0001:00016d10       ?UnhandledExceptionHandler@OpenHome@@YGXAAVException@1@@Z 00417d10 f   libohNetCore:Exception.obj
 0001:00016dc0       ?UnhandledExceptionHandler@OpenHome@@YGXAAVexception@std@@@Z 00417dc0 f   libohNetCore:Exception.obj
 0001:00016e70       ??0Exception@OpenHome@@QAE@PBD0I@Z 00417e70 f   libohNetCore:Exception.obj
 0001:00016eb0       ??0Exception@OpenHome@@QAE@PBD@Z 00417eb0 f   libohNetCore:Exception.obj
 0001:00016ef0       ??1Exception@OpenHome@@QAE@XZ 00417ef0 f   libohNetCore:Exception.obj
 0001:00016f10       ?Message@Exception@OpenHome@@QAEPBDXZ 00417f10 f   libohNetCore:Exception.obj
 0001:00016f30       ?File@Exception@OpenHome@@QAEPBDXZ 00417f30 f   libohNetCore:Exception.obj
 0001:00016f50       ?Line@Exception@OpenHome@@QAEIXZ 00417f50 f   libohNetCore:Exception.obj
 0001:00016f70       ??RFunctorMsg@OpenHome@@QBEXPBD@Z 00417f70 f i libohNetCore:Exception.obj
 0001:00016fb0       ??0Semaphore@OpenHome@@QAE@PBDI@Z 00417fb0 f   libohNetCore:Thread.obj
 0001:00017030       ??1Semaphore@OpenHome@@UAE@XZ 00418030 f   libohNetCore:Thread.obj
 0001:00017070       ?Wait@Semaphore@OpenHome@@QAEXXZ 00418070 f   libohNetCore:Thread.obj
 0001:000170a0       ?Wait@Semaphore@OpenHome@@QAEXI@Z 004180a0 f   libohNetCore:Thread.obj
 0001:00017190       ?Clear@Semaphore@OpenHome@@QAE_NXZ 00418190 f   libohNetCore:Thread.obj
 0001:000171d0       ?Signal@Semaphore@OpenHome@@QAEXXZ 004181d0 f   libohNetCore:Thread.obj
 0001:00017200       ??0Mutex@OpenHome@@QAE@PBD@Z 00418200 f   libohNetCore:Thread.obj
 0001:00017290       ??1Mutex@OpenHome@@UAE@XZ  00418290 f   libohNetCore:Thread.obj
 0001:000172d0       ?Wait@Mutex@OpenHome@@QAEXXZ 004182d0 f   libohNetCore:Thread.obj
 0001:00017400       ?Signal@Mutex@OpenHome@@QAEXXZ 00418400 f   libohNetCore:Thread.obj
 0001:00017430       ??0SemaphoreActive@OpenHome@@QAE@AAVSemaphore@1@@Z 00418430 f   libohNetCore:Thread.obj
 0001:00017480       ??0SemaphoreActive@OpenHome@@QAE@AAVThread@1@@Z 00418480 f   libohNetCore:Thread.obj
 0001:000174d0       ?Signal@SemaphoreActive@OpenHome@@QAEXXZ 004184d0 f   libohNetCore:Thread.obj
 0001:00017520       ?Signalled@SemaphoreActive@OpenHome@@QAE_NXZ 00418520 f   libohNetCore:Thread.obj
 0001:000175a0       ?ConsumeOne@SemaphoreActive@OpenHome@@QAEXXZ 004185a0 f   libohNetCore:Thread.obj
 0001:00017600       ?ConsumeAll@SemaphoreActive@OpenHome@@QAEXXZ 00418600 f   libohNetCore:Thread.obj
 0001:00017650       ??0Thread@OpenHome@@IAE@PBDII@Z 00418650 f   libohNetCore:Thread.obj
 0001:00017770       ??1Thread@OpenHome@@UAE@XZ 00418770 f   libohNetCore:Thread.obj
 0001:00017850       ?Start@Thread@OpenHome@@QAEXXZ 00418850 f   libohNetCore:Thread.obj
 0001:000178b0       ?EntryPoint@Thread@OpenHome@@CGXPAX@Z 004188b0 f   libohNetCore:Thread.obj
 0001:00017a50       ?Wait@Thread@OpenHome@@QAEXXZ 00418a50 f   libohNetCore:Thread.obj
 0001:00017a80       ?Signal@Thread@OpenHome@@QAEXXZ 00418a80 f   libohNetCore:Thread.obj
 0001:00017ab0       ?TryWait@Thread@OpenHome@@QAE_NXZ 00418ab0 f   libohNetCore:Thread.obj
 0001:00017ae0       ?Sleep@Thread@OpenHome@@SGXI@Z 00418ae0 f   libohNetCore:Thread.obj
 0001:00017bb0       ?Current@Thread@OpenHome@@SGPAV12@XZ 00418bb0 f   libohNetCore:Thread.obj
 0001:00017bd0       ?SupportsPriorities@Thread@OpenHome@@SG_NXZ 00418bd0 f   libohNetCore:Thread.obj
 0001:00017bf0       ?CheckForKill@Thread@OpenHome@@IBEXXZ 00418bf0 f   libohNetCore:Thread.obj
 0001:00017cc0       ?Kill@Thread@OpenHome@@QAEXXZ 00418cc0 f   libohNetCore:Thread.obj
 0001:00017d30       ?Name@Thread@OpenHome@@QBEABVBrx@2@XZ 00418d30 f   libohNetCore:Thread.obj
 0001:00017d50       ??8Thread@OpenHome@@QBE_NABV01@@Z 00418d50 f   libohNetCore:Thread.obj
 0001:00017d80       ??9Thread@OpenHome@@QBE_NABV01@@Z 00418d80 f   libohNetCore:Thread.obj
 0001:00017dc0       ?Join@Thread@OpenHome@@IAEXXZ 00418dc0 f   libohNetCore:Thread.obj
 0001:00017e20       ??0ThreadFunctor@OpenHome@@QAE@PBDVFunctor@1@II@Z 00418e20 f   libohNetCore:Thread.obj
 0001:00017ed0       ??1ThreadFunctor@OpenHome@@UAE@XZ 00418ed0 f   libohNetCore:Thread.obj
 0001:00017f50       ?Run@ThreadFunctor@OpenHome@@EAEXXZ 00418f50 f   libohNetCore:Thread.obj
 0001:00017f90       ??0AutoMutex@OpenHome@@QAE@AAVMutex@1@@Z 00418f90 f   libohNetCore:Thread.obj
 0001:00017fd0       ??1AutoMutex@OpenHome@@QAE@XZ 00418fd0 f   libohNetCore:Thread.obj
 0001:00018000       ??0AtomicInt@OpenHome@@QAE@H@Z 00419000 f   libohNetCore:Thread.obj
 0001:00018040       ??0AtomicInt@OpenHome@@QAE@XZ 00419040 f   libohNetCore:Thread.obj
 0001:00018070       ?Inc@AtomicInt@OpenHome@@QAEHXZ 00419070 f   libohNetCore:Thread.obj
 0001:000180d0       ?Dec@AtomicInt@OpenHome@@QAEHXZ 004190d0 f   libohNetCore:Thread.obj
 0001:00018130       ?SemaphoreCreate@Os@OpenHome@@SGPAXPBDI@Z 00419130 f i libohNetCore:Thread.obj
 0001:00018150       ??_GSemaphore@OpenHome@@UAEPAXI@Z 00419150 f i libohNetCore:Thread.obj
 0001:00018150       ??_ESemaphore@OpenHome@@UAEPAXI@Z 00419150 f i libohNetCore:Thread.obj
 0001:00018190       ?SemaphoreDestroy@Os@OpenHome@@SGXPAX@Z 00419190 f i libohNetCore:Thread.obj
 0001:000181b0       ?SemaphoreWait@Os@OpenHome@@SGXPAX@Z 004191b0 f i libohNetCore:Thread.obj
 0001:00018200       ??0Timeout@OpenHome@@QAE@PBDI@Z 00419200 f i libohNetCore:Thread.obj
 0001:00018240       ?SemaphoreTimedWait@Os@OpenHome@@SG_NPAXI@Z 00419240 f i libohNetCore:Thread.obj
 0001:00018290       ??1Timeout@OpenHome@@QAE@XZ 00419290 f i libohNetCore:Thread.obj
 0001:000182c0       ?SemaphoreClear@Os@OpenHome@@SG_NPAX@Z 004192c0 f i libohNetCore:Thread.obj
 0001:000182f0       ?SemaphoreSignal@Os@OpenHome@@SGXPAX@Z 004192f0 f i libohNetCore:Thread.obj
 0001:00018340       ??_EMutex@OpenHome@@UAEPAXI@Z 00419340 f i libohNetCore:Thread.obj
 0001:000183c0       ?MutexCreate@Os@OpenHome@@SGPAXPBD@Z 004193c0 f i libohNetCore:Thread.obj
 0001:000183e0       ?MutexDestroy@Os@OpenHome@@SGXPAX@Z 004193e0 f i libohNetCore:Thread.obj
 0001:00018400       ?Set@Brhz@OpenHome@@QAEXABVBrx@2@@Z 00419400 f i libohNetCore:Thread.obj
 0001:00018450       ?MutexLock@Os@OpenHome@@SGHPAX@Z 00419450 f i libohNetCore:Thread.obj
 0001:00018480       ?MutexUnlock@Os@OpenHome@@SGXPAX@Z 00419480 f i libohNetCore:Thread.obj
 0001:000184d0       ??_GThread@OpenHome@@UAEPAXI@Z 004194d0 f i libohNetCore:Thread.obj
 0001:000184d0       ??_EThread@OpenHome@@UAEPAXI@Z 004194d0 f i libohNetCore:Thread.obj
 0001:00018510       ??1?$Bws@$04@OpenHome@@UAE@XZ 00419510 f i libohNetCore:Thread.obj
 0001:00018540       ?ThreadDestroy@Os@OpenHome@@SGXPAX@Z 00419540 f i libohNetCore:Thread.obj
 0001:00018560       ?ThreadCreate@Os@OpenHome@@SGPAXPBDIIP6GXPAX@Z1@Z 00419560 f i libohNetCore:Thread.obj
 0001:00018590       ?ThreadTls@Os@OpenHome@@SGPAXXZ 00419590 f i libohNetCore:Thread.obj
 0001:000185b0       ?ThreadSupportsPriorities@Os@OpenHome@@SG_NXZ 004195b0 f i libohNetCore:Thread.obj
 0001:000185d0       ??0ThreadKill@OpenHome@@QAE@PBDI@Z 004195d0 f i libohNetCore:Thread.obj
 0001:00018610       ??1ThreadKill@OpenHome@@QAE@XZ 00419610 f i libohNetCore:Thread.obj
 0001:00018640       ??_EThreadFunctor@OpenHome@@UAEPAXI@Z 00419640 f i libohNetCore:Thread.obj
 0001:00018640       ??_GThreadFunctor@OpenHome@@UAEPAXI@Z 00419640 f i libohNetCore:Thread.obj
 0001:00018680       ??RFunctor@OpenHome@@QBEXXZ 00419680 f i libohNetCore:Thread.obj
 0001:000186c0       ??0?$Bws@$04@OpenHome@@QAE@XZ 004196c0 f i libohNetCore:Thread.obj
 0001:00018700       ?Ptr@?$Bws@$04@OpenHome@@UBEPBEXZ 00419700 f i libohNetCore:Thread.obj
 0001:00018720       ??_E?$Bws@$04@OpenHome@@UAEPAXI@Z 00419720 f i libohNetCore:Thread.obj
 0001:00018720       ??_G?$Bws@$04@OpenHome@@UAEPAXI@Z 00419720 f i libohNetCore:Thread.obj
 0001:00018760       ?Subscribe@CpProxy@Net@OpenHome@@QAEXXZ 00419760 f   libohNetCore:CpProxy.obj
 0001:00018840       ?Unsubscribe@CpProxy@Net@OpenHome@@QAEXXZ 00419840 f   libohNetCore:CpProxy.obj
 0001:000188b0       ??0CpProxy@Net@OpenHome@@IAE@PBD0IAAVCpiDevice@12@@Z 004198b0 f   libohNetCore:CpProxy.obj
 0001:00018a90       ??1CpProxy@Net@OpenHome@@MAE@XZ 00419a90 f   libohNetCore:CpProxy.obj
 0001:00018d20       ?AddProperty@CpProxy@Net@OpenHome@@IAEXPAVProperty@23@@Z 00419d20 f   libohNetCore:CpProxy.obj
 0001:00018e30       ?DestroyService@CpProxy@Net@OpenHome@@IAEXXZ 00419e30 f   libohNetCore:CpProxy.obj
 0001:00018e90       ?SetPropertyChanged@CpProxy@Net@OpenHome@@QAEXAAVFunctor@3@@Z 00419e90 f   libohNetCore:CpProxy.obj
 0001:00018ef0       ?SetPropertyInitialEvent@CpProxy@Net@OpenHome@@QAEXAAVFunctor@3@@Z 00419ef0 f   libohNetCore:CpProxy.obj
 0001:00018f70       ?PropertyReadLock@CpProxy@Net@OpenHome@@IBEXXZ 00419f70 f   libohNetCore:CpProxy.obj
 0001:00018fa0       ?PropertyReadUnlock@CpProxy@Net@OpenHome@@IBEXXZ 00419fa0 f   libohNetCore:CpProxy.obj
 0001:00018fd0       ?ReportEvent@CpProxy@Net@OpenHome@@IAEXVFunctor@3@@Z 00419fd0 f   libohNetCore:CpProxy.obj
 0001:00019040       ?EventUpdateStart@CpProxy@Net@OpenHome@@EAEXXZ 0041a040 f   libohNetCore:CpProxy.obj
 0001:00019070       ?EventUpdate@CpProxy@Net@OpenHome@@EAEXABVBrx@3@0AAVIOutputProcessor@23@@Z 0041a070 f   libohNetCore:CpProxy.obj
 0001:000191c0       ?EventUpdateEnd@CpProxy@Net@OpenHome@@EAEXXZ 0041a1c0 f   libohNetCore:CpProxy.obj
 0001:000193d0       ??_ECpProxy@Net@OpenHome@@MAEPAXI@Z 0041a3d0 f i libohNetCore:CpProxy.obj
 0001:00019450       ??0IEventProcessor@Net@OpenHome@@QAE@XZ 0041a450 f i libohNetCore:CpProxy.obj
 0001:00019470       ??1?$map@VBrn@OpenHome@@PAVProperty@Net@2@VBufferCmp@2@V?$allocator@U?$pair@$$CBVBrn@OpenHome@@PAVProperty@Net@2@@std@@@std@@@std@@QAE@XZ 0041a470 f i libohNetCore:CpProxy.obj
 0001:000194a0       ??_GCpiService@Net@OpenHome@@QAEPAXI@Z 0041a4a0 f i libohNetCore:CpProxy.obj
 0001:000194e0       ??1?$_Tree_iterator@V?$_Tree_val@V?$_Tmap_traits@VBrn@OpenHome@@PAVProperty@Net@2@VBufferCmp@2@V?$allocator@U?$pair@$$CBVBrn@OpenHome@@PAVProperty@Net@2@@std@@@std@@$0A@@std@@@std@@@std@@QAE@XZ 0041a4e0 f i libohNetCore:CpProxy.obj
 0001:00019510       ??1?$_Tree_const_iterator@V?$_Tree_val@V?$_Tmap_traits@VBrn@OpenHome@@PAVProperty@Net@2@VBufferCmp@2@V?$allocator@U?$pair@$$CBVBrn@OpenHome@@PAVProperty@Net@2@@std@@@std@@$0A@@std@@@std@@@std@@QAE@XZ 0041a510 f i libohNetCore:CpProxy.obj
 0001:00019540       ??1?$_Tree_unchecked_const_iterator@V?$_Tree_val@V?$_Tmap_traits@VBrn@OpenHome@@PAVProperty@Net@2@VBufferCmp@2@V?$allocator@U?$pair@$$CBVBrn@OpenHome@@PAVProperty@Net@2@@std@@@std@@$0A@@std@@@std@@U_Iterator_base12@2@@std@@QAE@XZ 0041a540 f i libohNetCore:CpProxy.obj
 0001:00019570       ??1?$_Iterator012@Ubidirectional_iterator_tag@std@@U?$pair@$$CBVBrn@OpenHome@@PAVProperty@Net@2@@2@HPBU32@ABU32@U_Iterator_base12@2@@std@@QAE@XZ 0041a570 f i libohNetCore:CpProxy.obj
 0001:000195a0       ??1?$pair@VBrn@OpenHome@@PAVProperty@Net@2@@std@@QAE@XZ 0041a5a0 f i libohNetCore:CpProxy.obj
 0001:000195d0       ??1?$pair@V?$_Tree_iterator@V?$_Tree_val@V?$_Tmap_traits@VBrn@OpenHome@@PAVProperty@Net@2@VBufferCmp@2@V?$allocator@U?$pair@$$CBVBrn@OpenHome@@PAVProperty@Net@2@@std@@@std@@$0A@@std@@@std@@@std@@_N@std@@QAE@XZ 0041a5d0 f i libohNetCore:CpProxy.obj
 0001:00019600       ??1?$_Pair_base@VBrn@OpenHome@@PAVProperty@Net@2@@std@@QAE@XZ 0041a600 f i libohNetCore:CpProxy.obj
 0001:00019630       ??1?$_Pair_base@V?$_Tree_iterator@V?$_Tree_val@V?$_Tmap_traits@VBrn@OpenHome@@PAVProperty@Net@2@VBufferCmp@2@V?$allocator@U?$pair@$$CBVBrn@OpenHome@@PAVProperty@Net@2@@std@@@std@@$0A@@std@@@std@@@std@@_N@std@@QAE@XZ 0041a630 f i libohNetCore:CpProxy.obj
 0001:00019660       ??BFunctor@OpenHome@@QBE_NXZ 0041a660 f i libohNetCore:CpProxy.obj
 0001:000196a0       ??0?$map@VBrn@OpenHome@@PAVProperty@Net@2@VBufferCmp@2@V?$allocator@U?$pair@$$CBVBrn@OpenHome@@PAVProperty@Net@2@@std@@@std@@@std@@QAE@XZ 0041a6a0 f i libohNetCore:CpProxy.obj
 0001:000196f0       ??1?$_Tree@V?$_Tmap_traits@VBrn@OpenHome@@PAVProperty@Net@2@VBufferCmp@2@V?$allocator@U?$pair@$$CBVBrn@OpenHome@@PAVProperty@Net@2@@std@@@std@@$0A@@std@@@std@@QAE@XZ 0041a6f0 f i libohNetCore:CpProxy.obj
 0001:00019760       ?begin@?$_Tree@V?$_Tmap_traits@VBrn@OpenHome@@PAVProperty@Net@2@VBufferCmp@2@V?$allocator@U?$pair@$$CBVBrn@OpenHome@@PAVProperty@Net@2@@std@@@std@@$0A@@std@@@std@@QAE?AV?$_Tree_iterator@V?$_Tree_val@V?$_Tmap_traits@VBrn@OpenHome@@PAVProperty@Net@2@VBufferCmp@2@V?$allocator@U?$pair@$$CBVBrn@OpenHome@@PAVProperty@Net@2@@std@@@std@@$0A@@std@@@std@@@2@XZ 0041a760 f i libohNetCore:CpProxy.obj
 0001:000197c0       ?end@?$_Tree@V?$_Tmap_traits@VBrn@OpenHome@@PAVProperty@Net@2@VBufferCmp@2@V?$allocator@U?$pair@$$CBVBrn@OpenHome@@PAVProperty@Net@2@@std@@@std@@$0A@@std@@@std@@QAE?AV?$_Tree_iterator@V?$_Tree_val@V?$_Tmap_traits@VBrn@OpenHome@@PAVProperty@Net@2@VBufferCmp@2@V?$allocator@U?$pair@$$CBVBrn@OpenHome@@PAVProperty@Net@2@@std@@@std@@$0A@@std@@@std@@@2@XZ 0041a7c0 f i libohNetCore:CpProxy.obj
 0001:00019810       ?find@?$_Tree@V?$_Tmap_traits@VBrn@OpenHome@@PAVProperty@Net@2@VBufferCmp@2@V?$allocator@U?$pair@$$CBVBrn@OpenHome@@PAVProperty@Net@2@@std@@@std@@$0A@@std@@@std@@QAE?AV?$_Tree_iterator@V?$_Tree_val@V?$_Tmap_traits@VBrn@OpenHome@@PAVProperty@Net@2@VBufferCmp@2@V?$allocator@U?$pair@$$CBVBrn@OpenHome@@PAVProperty@Net@2@@std@@@std@@$0A@@std@@@std@@@2@ABVBrn@OpenHome@@@Z 0041a810 f i libohNetCore:CpProxy.obj
 0001:000199f0       ??C?$_Tree_iterator@V?$_Tree_val@V?$_Tmap_traits@VBrn@OpenHome@@PAVProperty@Net@2@VBufferCmp@2@V?$allocator@U?$pair@$$CBVBrn@OpenHome@@PAVProperty@Net@2@@std@@@std@@$0A@@std@@@std@@@std@@QBEPAU?$pair@$$CBVBrn@OpenHome@@PAVProperty@Net@2@@1@XZ 0041a9f0 f i libohNetCore:CpProxy.obj
 0001:00019a20       ??E?$_Tree_iterator@V?$_Tree_val@V?$_Tmap_traits@VBrn@OpenHome@@PAVProperty@Net@2@VBufferCmp@2@V?$allocator@U?$pair@$$CBVBrn@OpenHome@@PAVProperty@Net@2@@std@@@std@@$0A@@std@@@std@@@std@@QAE?AV01@H@Z 0041aa20 f i libohNetCore:CpProxy.obj
 0001:00019af0       ??9?$_Tree_const_iterator@V?$_Tree_val@V?$_Tmap_traits@VBrn@OpenHome@@PAVProperty@Net@2@VBufferCmp@2@V?$allocator@U?$pair@$$CBVBrn@OpenHome@@PAVProperty@Net@2@@std@@@std@@$0A@@std@@@std@@@std@@QBE_NABV01@@Z 0041aaf0 f i libohNetCore:CpProxy.obj
 0001:00019b30       ??0?$_Tree_iterator@V?$_Tree_val@V?$_Tmap_traits@VBrn@OpenHome@@PAVProperty@Net@2@VBufferCmp@2@V?$allocator@U?$pair@$$CBVBrn@OpenHome@@PAVProperty@Net@2@@std@@@std@@$0A@@std@@@std@@@std@@QAE@ABV01@@Z 0041ab30 f i libohNetCore:CpProxy.obj
 0001:00019b60       ??0?$_Tree_const_iterator@V?$_Tree_val@V?$_Tmap_traits@VBrn@OpenHome@@PAVProperty@Net@2@VBufferCmp@2@V?$allocator@U?$pair@$$CBVBrn@OpenHome@@PAVProperty@Net@2@@std@@@std@@$0A@@std@@@std@@@std@@QAE@ABV01@@Z 0041ab60 f i libohNetCore:CpProxy.obj
 0001:00019b90       ??0?$_Tree_unchecked_const_iterator@V?$_Tree_val@V?$_Tmap_traits@VBrn@OpenHome@@PAVProperty@Net@2@VBufferCmp@2@V?$allocator@U?$pair@$$CBVBrn@OpenHome@@PAVProperty@Net@2@@std@@@std@@$0A@@std@@@std@@U_Iterator_base12@2@@std@@QAE@ABV01@@Z 0041ab90 f i libohNetCore:CpProxy.obj
 0001:00019bd0       ??0?$_Iterator012@Ubidirectional_iterator_tag@std@@U?$pair@$$CBVBrn@OpenHome@@PAVProperty@Net@2@@2@HPBU32@ABU32@U_Iterator_base12@2@@std@@QAE@ABU01@@Z 0041abd0 f i libohNetCore:CpProxy.obj
 0001:00019c00       ??0?$_Tree@V?$_Tmap_traits@VBrn@OpenHome@@PAVProperty@Net@2@VBufferCmp@2@V?$allocator@U?$pair@$$CBVBrn@OpenHome@@PAVProperty@Net@2@@std@@@std@@$0A@@std@@@std@@QAE@ABVBufferCmp@OpenHome@@ABV?$allocator@U?$pair@$$CBVBrn@OpenHome@@PAVProperty@Net@2@@std@@@1@@Z 0041ac00 f i libohNetCore:CpProxy.obj
 0001:00019c50       ?lower_bound@?$_Tree@V?$_Tmap_traits@VBrn@OpenHome@@PAVProperty@Net@2@VBufferCmp@2@V?$allocator@U?$pair@$$CBVBrn@OpenHome@@PAVProperty@Net@2@@std@@@std@@$0A@@std@@@std@@QAE?AV?$_Tree_iterator@V?$_Tree_val@V?$_Tmap_traits@VBrn@OpenHome@@PAVProperty@Net@2@VBufferCmp@2@V?$allocator@U?$pair@$$CBVBrn@OpenHome@@PAVProperty@Net@2@@std@@@std@@$0A@@std@@@std@@@2@ABVBrn@OpenHome@@@Z 0041ac50 f i libohNetCore:CpProxy.obj
 0001:00019cb0       ?_Lmost@?$_Tree@V?$_Tmap_traits@VBrn@OpenHome@@PAVProperty@Net@2@VBufferCmp@2@V?$allocator@U?$pair@$$CBVBrn@OpenHome@@PAVProperty@Net@2@@std@@@std@@$0A@@std@@@std@@IBEAAPAU_Node@?$_Tree_nod@V?$_Tmap_traits@VBrn@OpenHome@@PAVProperty@Net@2@VBufferCmp@2@V?$allocator@U?$pair@$$CBVBrn@OpenHome@@PAVProperty@Net@2@@std@@@std@@$0A@@std@@@2@XZ 0041acb0 f i libohNetCore:CpProxy.obj
 0001:00019ce0       ?_Tidy@?$_Tree@V?$_Tmap_traits@VBrn@OpenHome@@PAVProperty@Net@2@VBufferCmp@2@V?$allocator@U?$pair@$$CBVBrn@OpenHome@@PAVProperty@Net@2@@std@@@std@@$0A@@std@@@std@@IAEXXZ 0041ace0 f i libohNetCore:CpProxy.obj
 0001:00019de0       ??1?$_Tree_val@V?$_Tmap_traits@VBrn@OpenHome@@PAVProperty@Net@2@VBufferCmp@2@V?$allocator@U?$pair@$$CBVBrn@OpenHome@@PAVProperty@Net@2@@std@@@std@@$0A@@std@@@std@@QAE@XZ 0041ade0 f i libohNetCore:CpProxy.obj
 0001:00019e50       ?_Key@?$_Tree_val@V?$_Tmap_traits@VBrn@OpenHome@@PAVProperty@Net@2@VBufferCmp@2@V?$allocator@U?$pair@$$CBVBrn@OpenHome@@PAVProperty@Net@2@@std@@@std@@$0A@@std@@@std@@SGAAVBrn@OpenHome@@PAU_Node@?$_Tree_nod@V?$_Tmap_traits@VBrn@OpenHome@@PAVProperty@Net@2@VBufferCmp@2@V?$allocator@U?$pair@$$CBVBrn@OpenHome@@PAVProperty@Net@2@@std@@@std@@$0A@@std@@@2@@Z 0041ae50 f i libohNetCore:CpProxy.obj
 0001:00019e70       ??0?$allocator@U?$pair@$$CBVBrn@OpenHome@@PAVProperty@Net@2@@std@@@std@@QAE@XZ 0041ae70 f i libohNetCore:CpProxy.obj
 0001:00019e90       ??0?$_Tree_iterator@V?$_Tree_val@V?$_Tmap_traits@VBrn@OpenHome@@PAVProperty@Net@2@VBufferCmp@2@V?$allocator@U?$pair@$$CBVBrn@OpenHome@@PAVProperty@Net@2@@std@@@std@@$0A@@std@@@std@@@std@@QAE@PAU_Node@?$_Tree_nod@V?$_Tmap_traits@VBrn@OpenHome@@PAVProperty@Net@2@VBufferCmp@2@V?$allocator@U?$pair@$$CBVBrn@OpenHome@@PAVProperty@Net@2@@std@@@std@@$0A@@std@@@1@PBV?$_Tree_val@V?$_Tmap_traits@VBrn@OpenHome@@PAVProperty@Net@2@VBufferCmp@2@V?$allocator@U?$pair@$$CBVBrn@OpenHome@@PAVProperty@Net@2@@std@@@std@@$0A@@std@@@1@@Z 0041ae90 f i libohNetCore:CpProxy.obj
 0001:00019ed0       ??D?$_Tree_iterator@V?$_Tree_val@V?$_Tmap_traits@VBrn@OpenHome@@PAVProperty@Net@2@VBufferCmp@2@V?$allocator@U?$pair@$$CBVBrn@OpenHome@@PAVProperty@Net@2@@std@@@std@@$0A@@std@@@std@@@std@@QBEAAU?$pair@$$CBVBrn@OpenHome@@PAVProperty@Net@2@@1@XZ 0041aed0 f i libohNetCore:CpProxy.obj
 0001:00019f00       ??E?$_Tree_iterator@V?$_Tree_val@V?$_Tmap_traits@VBrn@OpenHome@@PAVProperty@Net@2@VBufferCmp@2@V?$allocator@U?$pair@$$CBVBrn@OpenHome@@PAVProperty@Net@2@@std@@@std@@$0A@@std@@@std@@@std@@QAEAAV01@XZ 0041af00 f i libohNetCore:CpProxy.obj
 0001:00019f30       ??8?$_Tree_const_iterator@V?$_Tree_val@V?$_Tmap_traits@VBrn@OpenHome@@PAVProperty@Net@2@VBufferCmp@2@V?$allocator@U?$pair@$$CBVBrn@OpenHome@@PAVProperty@Net@2@@std@@@std@@$0A@@std@@@std@@@std@@QBE_NABV01@@Z 0041af30 f i libohNetCore:CpProxy.obj
 0001:00019ff0       ?_Mynode@?$_Tree_unchecked_const_iterator@V?$_Tree_val@V?$_Tmap_traits@VBrn@OpenHome@@PAVProperty@Net@2@VBufferCmp@2@V?$allocator@U?$pair@$$CBVBrn@OpenHome@@PAVProperty@Net@2@@std@@@std@@$0A@@std@@@std@@U_Iterator_base12@2@@std@@QBEPAU_Node@?$_Tree_nod@V?$_Tmap_traits@VBrn@OpenHome@@PAVProperty@Net@2@VBufferCmp@2@V?$allocator@U?$pair@$$CBVBrn@OpenHome@@PAVProperty@Net@2@@std@@@std@@$0A@@std@@@2@XZ 0041aff0 f i libohNetCore:CpProxy.obj
 0001:0001a010       ?erase@?$_Tree@V?$_Tmap_traits@VBrn@OpenHome@@PAVProperty@Net@2@VBufferCmp@2@V?$allocator@U?$pair@$$CBVBrn@OpenHome@@PAVProperty@Net@2@@std@@@std@@$0A@@std@@@std@@QAE?AV?$_Tree_iterator@V?$_Tree_val@V?$_Tmap_traits@VBrn@OpenHome@@PAVProperty@Net@2@VBufferCmp@2@V?$allocator@U?$pair@$$CBVBrn@OpenHome@@PAVProperty@Net@2@@std@@@std@@$0A@@std@@@std@@@2@V?$_Tree_const_iterator@V?$_Tree_val@V?$_Tmap_traits@VBrn@OpenHome@@PAVProperty@Net@2@VBufferCmp@2@V?$allocator@U?$pair@$$CBVBrn@OpenHome@@PAVProperty@Net@2@@std@@@std@@$0A@@std@@@std@@@2@0@Z 0041b010 f i libohNetCore:CpProxy.obj
 0001:0001a210       ?_Lbound@?$_Tree@V?$_Tmap_traits@VBrn@OpenHome@@PAVProperty@Net@2@VBufferCmp@2@V?$allocator@U?$pair@$$CBVBrn@OpenHome@@PAVProperty@Net@2@@std@@@std@@$0A@@std@@@std@@IAEPAU_Node@?$_Tree_nod@V?$_Tmap_traits@VBrn@OpenHome@@PAVProperty@Net@2@VBufferCmp@2@V?$allocator@U?$pair@$$CBVBrn@OpenHome@@PAVProperty@Net@2@@std@@@std@@$0A@@std@@@2@ABVBrn@OpenHome@@@Z 0041b210 f i libohNetCore:CpProxy.obj
 0001:0001a2c0       ??0?$_Tree_val@V?$_Tmap_traits@VBrn@OpenHome@@PAVProperty@Net@2@VBufferCmp@2@V?$allocator@U?$pair@$$CBVBrn@OpenHome@@PAVProperty@Net@2@@std@@@std@@$0A@@std@@@std@@QAE@ABVBufferCmp@OpenHome@@V?$allocator@U?$pair@$$CBVBrn@OpenHome@@PAVProperty@Net@2@@std@@@1@@Z 0041b2c0 f i libohNetCore:CpProxy.obj
 0001:0001a3c0       ?_Left@?$_Tree_val@V?$_Tmap_traits@VBrn@OpenHome@@PAVProperty@Net@2@VBufferCmp@2@V?$allocator@U?$pair@$$CBVBrn@OpenHome@@PAVProperty@Net@2@@std@@@std@@$0A@@std@@@std@@SGAAPAU_Node@?$_Tree_nod@V?$_Tmap_traits@VBrn@OpenHome@@PAVProperty@Net@2@VBufferCmp@2@V?$allocator@U?$pair@$$CBVBrn@OpenHome@@PAVProperty@Net@2@@std@@@std@@$0A@@std@@@2@PAU342@@Z 0041b3c0 f i libohNetCore:CpProxy.obj
 0001:0001a3d0       ?_Myval@?$_Tree_val@V?$_Tmap_traits@VBrn@OpenHome@@PAVProperty@Net@2@VBufferCmp@2@V?$allocator@U?$pair@$$CBVBrn@OpenHome@@PAVProperty@Net@2@@std@@@std@@$0A@@std@@@std@@SGAAU?$pair@$$CBVBrn@OpenHome@@PAVProperty@Net@2@@2@PAU_Node@?$_Tree_nod@V?$_Tmap_traits@VBrn@OpenHome@@PAVProperty@Net@2@VBufferCmp@2@V?$allocator@U?$pair@$$CBVBrn@OpenHome@@PAVProperty@Net@2@@std@@@std@@$0A@@std@@@2@@Z 0041b3d0 f i libohNetCore:CpProxy.obj
 0001:0001a3e0       ??1?$_Tree_nod@V?$_Tmap_traits@VBrn@OpenHome@@PAVProperty@Net@2@VBufferCmp@2@V?$allocator@U?$pair@$$CBVBrn@OpenHome@@PAVProperty@Net@2@@std@@@std@@$0A@@std@@@std@@QAE@XZ 0041b3e0 f i libohNetCore:CpProxy.obj
 0001:0001a4c0       ??0?$allocator@U?$pair@$$CBVBrn@OpenHome@@PAVProperty@Net@2@@std@@@std@@QAE@ABV01@@Z 0041b4c0 f i libohNetCore:CpProxy.obj
 0001:0001a4e0       ?deallocate@?$allocator@U_Node@?$_Tree_nod@V?$_Tmap_traits@VBrn@OpenHome@@PAVProperty@Net@2@VBufferCmp@2@V?$allocator@U?$pair@$$CBVBrn@OpenHome@@PAVProperty@Net@2@@std@@@std@@$0A@@std@@@std@@@std@@QAEXPAU_Node@?$_Tree_nod@V?$_Tmap_traits@VBrn@OpenHome@@PAVProperty@Net@2@VBufferCmp@2@V?$allocator@U?$pair@$$CBVBrn@OpenHome@@PAVProperty@Net@2@@std@@@std@@$0A@@std@@@2@I@Z 0041b4e0 f i libohNetCore:CpProxy.obj
 0001:0001a510       ??0?$_Tree_const_iterator@V?$_Tree_val@V?$_Tmap_traits@VBrn@OpenHome@@PAVProperty@Net@2@VBufferCmp@2@V?$allocator@U?$pair@$$CBVBrn@OpenHome@@PAVProperty@Net@2@@std@@@std@@$0A@@std@@@std@@@std@@QAE@PAU_Node@?$_Tree_nod@V?$_Tmap_traits@VBrn@OpenHome@@PAVProperty@Net@2@VBufferCmp@2@V?$allocator@U?$pair@$$CBVBrn@OpenHome@@PAVProperty@Net@2@@std@@@std@@$0A@@std@@@1@PBV?$_Tree_val@V?$_Tmap_traits@VBrn@OpenHome@@PAVProperty@Net@2@VBufferCmp@2@V?$allocator@U?$pair@$$CBVBrn@OpenHome@@PAVProperty@Net@2@@std@@@std@@$0A@@std@@@1@@Z 0041b510 f i libohNetCore:CpProxy.obj
 0001:0001a550       ??D?$_Tree_const_iterator@V?$_Tree_val@V?$_Tmap_traits@VBrn@OpenHome@@PAVProperty@Net@2@VBufferCmp@2@V?$allocator@U?$pair@$$CBVBrn@OpenHome@@PAVProperty@Net@2@@std@@@std@@$0A@@std@@@std@@@std@@QBEABU?$pair@$$CBVBrn@OpenHome@@PAVProperty@Net@2@@1@XZ 0041b550 f i libohNetCore:CpProxy.obj
 0001:0001a610       ??E?$_Tree_const_iterator@V?$_Tree_val@V?$_Tmap_traits@VBrn@OpenHome@@PAVProperty@Net@2@VBufferCmp@2@V?$allocator@U?$pair@$$CBVBrn@OpenHome@@PAVProperty@Net@2@@std@@@std@@$0A@@std@@@std@@@std@@QAEAAV01@XZ 0041b610 f i libohNetCore:CpProxy.obj
 0001:0001a6d0       ??1?$_Tmap_traits@VBrn@OpenHome@@PAVProperty@Net@2@VBufferCmp@2@V?$allocator@U?$pair@$$CBVBrn@OpenHome@@PAVProperty@Net@2@@std@@@std@@$0A@@std@@QAE@XZ 0041b6d0 f i libohNetCore:CpProxy.obj
 0001:0001a700       ?erase@?$_Tree@V?$_Tmap_traits@VBrn@OpenHome@@PAVProperty@Net@2@VBufferCmp@2@V?$allocator@U?$pair@$$CBVBrn@OpenHome@@PAVProperty@Net@2@@std@@@std@@$0A@@std@@@std@@QAE?AV?$_Tree_iterator@V?$_Tree_val@V?$_Tmap_traits@VBrn@OpenHome@@PAVProperty@Net@2@VBufferCmp@2@V?$allocator@U?$pair@$$CBVBrn@OpenHome@@PAVProperty@Net@2@@std@@@std@@$0A@@std@@@std@@@2@V?$_Tree_const_iterator@V?$_Tree_val@V?$_Tmap_traits@VBrn@OpenHome@@PAVProperty@Net@2@VBufferCmp@2@V?$allocator@U?$pair@$$CBVBrn@OpenHome@@PAVProperty@Net@2@@std@@@std@@$0A@@std@@@std@@@2@@Z 0041b700 f i libohNetCore:CpProxy.obj
 0001:0001ae10       ?clear@?$_Tree@V?$_Tmap_traits@VBrn@OpenHome@@PAVProperty@Net@2@VBufferCmp@2@V?$allocator@U?$pair@$$CBVBrn@OpenHome@@PAVProperty@Net@2@@std@@@std@@$0A@@std@@@std@@QAEXXZ 0041be10 f i libohNetCore:CpProxy.obj
 0001:0001ae90       ?_Root@?$_Tree@V?$_Tmap_traits@VBrn@OpenHome@@PAVProperty@Net@2@VBufferCmp@2@V?$allocator@U?$pair@$$CBVBrn@OpenHome@@PAVProperty@Net@2@@std@@@std@@$0A@@std@@@std@@IBEAAPAU_Node@?$_Tree_nod@V?$_Tmap_traits@VBrn@OpenHome@@PAVProperty@Net@2@VBufferCmp@2@V?$allocator@U?$pair@$$CBVBrn@OpenHome@@PAVProperty@Net@2@@std@@@std@@$0A@@std@@@2@XZ 0041be90 f i libohNetCore:CpProxy.obj
 0001:0001aec0       ?_Color@?$_Tree_val@V?$_Tmap_traits@VBrn@OpenHome@@PAVProperty@Net@2@VBufferCmp@2@V?$allocator@U?$pair@$$CBVBrn@OpenHome@@PAVProperty@Net@2@@std@@@std@@$0A@@std@@@std@@SGAADPAU_Node@?$_Tree_nod@V?$_Tmap_traits@VBrn@OpenHome@@PAVProperty@Net@2@VBufferCmp@2@V?$allocator@U?$pair@$$CBVBrn@OpenHome@@PAVProperty@Net@2@@std@@@std@@$0A@@std@@@2@@Z 0041bec0 f i libohNetCore:CpProxy.obj
 0001:0001aed0       ?_Isnil@?$_Tree_val@V?$_Tmap_traits@VBrn@OpenHome@@PAVProperty@Net@2@VBufferCmp@2@V?$allocator@U?$pair@$$CBVBrn@OpenHome@@PAVProperty@Net@2@@std@@@std@@$0A@@std@@@std@@SGAADPAU_Node@?$_Tree_nod@V?$_Tmap_traits@VBrn@OpenHome@@PAVProperty@Net@2@VBufferCmp@2@V?$allocator@U?$pair@$$CBVBrn@OpenHome@@PAVProperty@Net@2@@std@@@std@@$0A@@std@@@2@@Z 0041bed0 f i libohNetCore:CpProxy.obj
 0001:0001aee0       ?_Parent@?$_Tree_val@V?$_Tmap_traits@VBrn@OpenHome@@PAVProperty@Net@2@VBufferCmp@2@V?$allocator@U?$pair@$$CBVBrn@OpenHome@@PAVProperty@Net@2@@std@@@std@@$0A@@std@@@std@@SGAAPAU_Node@?$_Tree_nod@V?$_Tmap_traits@VBrn@OpenHome@@PAVProperty@Net@2@VBufferCmp@2@V?$allocator@U?$pair@$$CBVBrn@OpenHome@@PAVProperty@Net@2@@std@@@std@@$0A@@std@@@2@PAU342@@Z 0041bee0 f i libohNetCore:CpProxy.obj
 0001:0001aef0       ?_Right@?$_Tree_val@V?$_Tmap_traits@VBrn@OpenHome@@PAVProperty@Net@2@VBufferCmp@2@V?$allocator@U?$pair@$$CBVBrn@OpenHome@@PAVProperty@Net@2@@std@@@std@@$0A@@std@@@std@@SGAAPAU_Node@?$_Tree_nod@V?$_Tmap_traits@VBrn@OpenHome@@PAVProperty@Net@2@VBufferCmp@2@V?$allocator@U?$pair@$$CBVBrn@OpenHome@@PAVProperty@Net@2@@std@@@std@@$0A@@std@@@2@PAU342@@Z 0041bef0 f i libohNetCore:CpProxy.obj
 0001:0001af00       ??0?$_Tree_nod@V?$_Tmap_traits@VBrn@OpenHome@@PAVProperty@Net@2@VBufferCmp@2@V?$allocator@U?$pair@$$CBVBrn@OpenHome@@PAVProperty@Net@2@@std@@@std@@$0A@@std@@@std@@QAE@ABVBufferCmp@OpenHome@@V?$allocator@U?$pair@$$CBVBrn@OpenHome@@PAVProperty@Net@2@@std@@@1@@Z 0041bf00 f i libohNetCore:CpProxy.obj
 0001:0001b010       ?allocate@?$allocator@U_Node@?$_Tree_nod@V?$_Tmap_traits@VBrn@OpenHome@@PAVProperty@Net@2@VBufferCmp@2@V?$allocator@U?$pair@$$CBVBrn@OpenHome@@PAVProperty@Net@2@@std@@@std@@$0A@@std@@@std@@@std@@QAEPAU_Node@?$_Tree_nod@V?$_Tmap_traits@VBrn@OpenHome@@PAVProperty@Net@2@VBufferCmp@2@V?$allocator@U?$pair@$$CBVBrn@OpenHome@@PAVProperty@Net@2@@std@@@std@@$0A@@std@@@2@I@Z 0041c010 f i libohNetCore:CpProxy.obj
 0001:0001b040       ??E?$_Tree_const_iterator@V?$_Tree_val@V?$_Tmap_traits@VBrn@OpenHome@@PAVProperty@Net@2@VBufferCmp@2@V?$allocator@U?$pair@$$CBVBrn@OpenHome@@PAVProperty@Net@2@@std@@@std@@$0A@@std@@@std@@@std@@QAE?AV01@H@Z 0041c040 f i libohNetCore:CpProxy.obj
 0001:0001b110       ??0?$_Tree_unchecked_const_iterator@V?$_Tree_val@V?$_Tmap_traits@VBrn@OpenHome@@PAVProperty@Net@2@VBufferCmp@2@V?$allocator@U?$pair@$$CBVBrn@OpenHome@@PAVProperty@Net@2@@std@@@std@@$0A@@std@@@std@@U_Iterator_base12@2@@std@@QAE@PAU_Node@?$_Tree_nod@V?$_Tmap_traits@VBrn@OpenHome@@PAVProperty@Net@2@VBufferCmp@2@V?$allocator@U?$pair@$$CBVBrn@OpenHome@@PAVProperty@Net@2@@std@@@std@@$0A@@std@@@1@PBV?$_Tree_val@V?$_Tmap_traits@VBrn@OpenHome@@PAVProperty@Net@2@VBufferCmp@2@V?$allocator@U?$pair@$$CBVBrn@OpenHome@@PAVProperty@Net@2@@std@@@std@@$0A@@std@@@1@@Z 0041c110 f i libohNetCore:CpProxy.obj
 0001:0001b190       ??E?$_Tree_unchecked_const_iterator@V?$_Tree_val@V?$_Tmap_traits@VBrn@OpenHome@@PAVProperty@Net@2@VBufferCmp@2@V?$allocator@U?$pair@$$CBVBrn@OpenHome@@PAVProperty@Net@2@@std@@@std@@$0A@@std@@@std@@U_Iterator_base12@2@@std@@QAEAAV01@XZ 0041c190 f i libohNetCore:CpProxy.obj
 0001:0001b250       ??0?$_Iterator012@Ubidirectional_iterator_tag@std@@U?$pair@$$CBVBrn@OpenHome@@PAVProperty@Net@2@@2@HPBU32@ABU32@U_Iterator_base12@2@@std@@QAE@XZ 0041c250 f i libohNetCore:CpProxy.obj
 0001:0001b280       ?_Erase@?$_Tree@V?$_Tmap_traits@VBrn@OpenHome@@PAVProperty@Net@2@VBufferCmp@2@V?$allocator@U?$pair@$$CBVBrn@OpenHome@@PAVProperty@Net@2@@std@@@std@@$0A@@std@@@std@@IAEXPAU_Node@?$_Tree_nod@V?$_Tmap_traits@VBrn@OpenHome@@PAVProperty@Net@2@VBufferCmp@2@V?$allocator@U?$pair@$$CBVBrn@OpenHome@@PAVProperty@Net@2@@std@@@std@@$0A@@std@@@2@@Z 0041c280 f i libohNetCore:CpProxy.obj
 0001:0001b320       ?_Lrotate@?$_Tree@V?$_Tmap_traits@VBrn@OpenHome@@PAVProperty@Net@2@VBufferCmp@2@V?$allocator@U?$pair@$$CBVBrn@OpenHome@@PAVProperty@Net@2@@std@@@std@@$0A@@std@@@std@@IAEXPAU_Node@?$_Tree_nod@V?$_Tmap_traits@VBrn@OpenHome@@PAVProperty@Net@2@VBufferCmp@2@V?$allocator@U?$pair@$$CBVBrn@OpenHome@@PAVProperty@Net@2@@std@@@std@@$0A@@std@@@2@@Z 0041c320 f i libohNetCore:CpProxy.obj
 0001:0001b440       ?_Rmost@?$_Tree@V?$_Tmap_traits@VBrn@OpenHome@@PAVProperty@Net@2@VBufferCmp@2@V?$allocator@U?$pair@$$CBVBrn@OpenHome@@PAVProperty@Net@2@@std@@@std@@$0A@@std@@@std@@IBEAAPAU_Node@?$_Tree_nod@V?$_Tmap_traits@VBrn@OpenHome@@PAVProperty@Net@2@VBufferCmp@2@V?$allocator@U?$pair@$$CBVBrn@OpenHome@@PAVProperty@Net@2@@std@@@std@@$0A@@std@@@2@XZ 0041c440 f i libohNetCore:CpProxy.obj
 0001:0001b470       ?_Rrotate@?$_Tree@V?$_Tmap_traits@VBrn@OpenHome@@PAVProperty@Net@2@VBufferCmp@2@V?$allocator@U?$pair@$$CBVBrn@OpenHome@@PAVProperty@Net@2@@std@@@std@@$0A@@std@@@std@@IAEXPAU_Node@?$_Tree_nod@V?$_Tmap_traits@VBrn@OpenHome@@PAVProperty@Net@2@VBufferCmp@2@V?$allocator@U?$pair@$$CBVBrn@OpenHome@@PAVProperty@Net@2@@std@@@std@@$0A@@std@@@2@@Z 0041c470 f i libohNetCore:CpProxy.obj
 0001:0001b590       ?_Orphan_ptr@?$_Tree@V?$_Tmap_traits@VBrn@OpenHome@@PAVProperty@Net@2@VBufferCmp@2@V?$allocator@U?$pair@$$CBVBrn@OpenHome@@PAVProperty@Net@2@@std@@@std@@$0A@@std@@@std@@IBEXAAV12@PAU_Node@?$_Tree_nod@V?$_Tmap_traits@VBrn@OpenHome@@PAVProperty@Net@2@VBufferCmp@2@V?$allocator@U?$pair@$$CBVBrn@OpenHome@@PAVProperty@Net@2@@std@@@std@@$0A@@std@@@2@@Z 0041c590 f i libohNetCore:CpProxy.obj
 0001:0001b6a0       ?_Max@?$_Tree_val@V?$_Tmap_traits@VBrn@OpenHome@@PAVProperty@Net@2@VBufferCmp@2@V?$allocator@U?$pair@$$CBVBrn@OpenHome@@PAVProperty@Net@2@@std@@@std@@$0A@@std@@@std@@SGPAU_Node@?$_Tree_nod@V?$_Tmap_traits@VBrn@OpenHome@@PAVProperty@Net@2@VBufferCmp@2@V?$allocator@U?$pair@$$CBVBrn@OpenHome@@PAVProperty@Net@2@@std@@@std@@$0A@@std@@@2@PAU342@@Z 0041c6a0 f i libohNetCore:CpProxy.obj
 0001:0001b6e0       ?_Min@?$_Tree_val@V?$_Tmap_traits@VBrn@OpenHome@@PAVProperty@Net@2@VBufferCmp@2@V?$allocator@U?$pair@$$CBVBrn@OpenHome@@PAVProperty@Net@2@@std@@@std@@$0A@@std@@@std@@SGPAU_Node@?$_Tree_nod@V?$_Tmap_traits@VBrn@OpenHome@@PAVProperty@Net@2@VBufferCmp@2@V?$allocator@U?$pair@$$CBVBrn@OpenHome@@PAVProperty@Net@2@@std@@@std@@$0A@@std@@@2@PAU342@@Z 0041c6e0 f i libohNetCore:CpProxy.obj
 0001:0001b720       ??0?$_Tmap_traits@VBrn@OpenHome@@PAVProperty@Net@2@VBufferCmp@2@V?$allocator@U?$pair@$$CBVBrn@OpenHome@@PAVProperty@Net@2@@std@@@std@@$0A@@std@@QAE@VBufferCmp@OpenHome@@@Z 0041c720 f i libohNetCore:CpProxy.obj
 0001:0001b750       ??$?0AAVBrn@OpenHome@@AAPAVProperty@Net@1@@?$pair@VBrn@OpenHome@@PAVProperty@Net@2@@std@@QAE@AAVBrn@OpenHome@@AAPAVProperty@Net@3@@Z 0041c750 f i libohNetCore:CpProxy.obj
 0001:0001b790       ??$insert@U?$pair@VBrn@OpenHome@@PAVProperty@Net@2@@std@@@?$_Tree@V?$_Tmap_traits@VBrn@OpenHome@@PAVProperty@Net@2@VBufferCmp@2@V?$allocator@U?$pair@$$CBVBrn@OpenHome@@PAVProperty@Net@2@@std@@@std@@$0A@@std@@@std@@QAE?AU?$pair@V?$_Tree_iterator@V?$_Tree_val@V?$_Tmap_traits@VBrn@OpenHome@@PAVProperty@Net@2@VBufferCmp@2@V?$allocator@U?$pair@$$CBVBrn@OpenHome@@PAVProperty@Net@2@@std@@@std@@$0A@@std@@@std@@@std@@_N@1@$$QAU?$pair@VBrn@OpenHome@@PAVProperty@Net@2@@1@@Z 0041c790 f i libohNetCore:CpProxy.obj
 0001:0001b7f0       ??$_Kfn@$$CBVBrn@OpenHome@@PAVProperty@Net@2@@?$_Tmap_traits@VBrn@OpenHome@@PAVProperty@Net@2@VBufferCmp@2@V?$allocator@U?$pair@$$CBVBrn@OpenHome@@PAVProperty@Net@2@@std@@@std@@$0A@@std@@SGABVBrn@OpenHome@@ABU?$pair@$$CBVBrn@OpenHome@@PAVProperty@Net@2@@1@@Z 0041c7f0 f i libohNetCore:CpProxy.obj
 0001:0001b800       ??$?0U_Node@?$_Tree_nod@V?$_Tmap_traits@VBrn@OpenHome@@PAVProperty@Net@2@VBufferCmp@2@V?$allocator@U?$pair@$$CBVBrn@OpenHome@@PAVProperty@Net@2@@std@@@std@@$0A@@std@@@std@@@?$allocator@U_Container_proxy@std@@@std@@QAE@ABV?$allocator@U_Node@?$_Tree_nod@V?$_Tmap_traits@VBrn@OpenHome@@PAVProperty@Net@2@VBufferCmp@2@V?$allocator@U?$pair@$$CBVBrn@OpenHome@@PAVProperty@Net@2@@std@@@std@@$0A@@std@@@std@@@1@@Z 0041c800 f i libohNetCore:CpProxy.obj
 0001:0001b820       ??$addressof@U?$pair@$$CBVBrn@OpenHome@@PAVProperty@Net@2@@std@@@std@@YGPAU?$pair@$$CBVBrn@OpenHome@@PAVProperty@Net@2@@0@AAU10@@Z 0041c820 f i libohNetCore:CpProxy.obj
 0001:0001b830       ??$_Dest_val@V?$allocator@U?$pair@$$CBVBrn@OpenHome@@PAVProperty@Net@2@@std@@@std@@U?$pair@$$CBVBrn@OpenHome@@PAVProperty@Net@2@@2@@std@@YGXAAV?$allocator@U?$pair@$$CBVBrn@OpenHome@@PAVProperty@Net@2@@std@@@0@PAU?$pair@$$CBVBrn@OpenHome@@PAVProperty@Net@2@@0@@Z 0041c830 f i libohNetCore:CpProxy.obj
 0001:0001b850       ??$?0U?$pair@$$CBVBrn@OpenHome@@PAVProperty@Net@2@@std@@@?$allocator@U_Node@?$_Tree_nod@V?$_Tmap_traits@VBrn@OpenHome@@PAVProperty@Net@2@VBufferCmp@2@V?$allocator@U?$pair@$$CBVBrn@OpenHome@@PAVProperty@Net@2@@std@@@std@@$0A@@std@@@std@@@std@@QAE@ABV?$allocator@U?$pair@$$CBVBrn@OpenHome@@PAVProperty@Net@2@@std@@@1@@Z 0041c850 f i libohNetCore:CpProxy.obj
 0001:0001b870       ??$_Allocate@U_Node@?$_Tree_nod@V?$_Tmap_traits@VBrn@OpenHome@@PAVProperty@Net@2@VBufferCmp@2@V?$allocator@U?$pair@$$CBVBrn@OpenHome@@PAVProperty@Net@2@@std@@@std@@$0A@@std@@@std@@@std@@YGPAU_Node@?$_Tree_nod@V?$_Tmap_traits@VBrn@OpenHome@@PAVProperty@Net@2@VBufferCmp@2@V?$allocator@U?$pair@$$CBVBrn@OpenHome@@PAVProperty@Net@2@@std@@@std@@$0A@@std@@@0@IPAU120@@Z 0041c870 f i libohNetCore:CpProxy.obj
 0001:0001b8f0       ?_Linsert@?$_Tree@V?$_Tmap_traits@VBrn@OpenHome@@PAVProperty@Net@2@VBufferCmp@2@V?$allocator@U?$pair@$$CBVBrn@OpenHome@@PAVProperty@Net@2@@std@@@std@@$0A@@std@@@std@@QAE?AU?$pair@V?$_Tree_iterator@V?$_Tree_val@V?$_Tmap_traits@VBrn@OpenHome@@PAVProperty@Net@2@VBufferCmp@2@V?$allocator@U?$pair@$$CBVBrn@OpenHome@@PAVProperty@Net@2@@std@@@std@@$0A@@std@@@std@@@std@@_N@2@PAU_Node@?$_Tree_nod@V?$_Tmap_traits@VBrn@OpenHome@@PAVProperty@Net@2@VBufferCmp@2@V?$allocator@U?$pair@$$CBVBrn@OpenHome@@PAVProperty@Net@2@@std@@@std@@$0A@@std@@@2@_N@Z 0041c8f0 f i libohNetCore:CpProxy.obj
 0001:0001bcd0       ?destroy@?$allocator@U?$pair@$$CBVBrn@OpenHome@@PAVProperty@Net@2@@std@@@std@@QAEXPAU?$pair@$$CBVBrn@OpenHome@@PAVProperty@Net@2@@2@@Z 0041ccd0 f i libohNetCore:CpProxy.obj
 0001:0001bd00       ?_Insert@?$_Tree@V?$_Tmap_traits@VBrn@OpenHome@@PAVProperty@Net@2@VBufferCmp@2@V?$allocator@U?$pair@$$CBVBrn@OpenHome@@PAVProperty@Net@2@@std@@@std@@$0A@@std@@@std@@IAE?AV?$_Tree_iterator@V?$_Tree_val@V?$_Tmap_traits@VBrn@OpenHome@@PAVProperty@Net@2@VBufferCmp@2@V?$allocator@U?$pair@$$CBVBrn@OpenHome@@PAVProperty@Net@2@@std@@@std@@$0A@@std@@@std@@@2@_NPAU_Node@?$_Tree_nod@V?$_Tmap_traits@VBrn@OpenHome@@PAVProperty@Net@2@VBufferCmp@2@V?$allocator@U?$pair@$$CBVBrn@OpenHome@@PAVProperty@Net@2@@std@@@std@@$0A@@std@@@2@1@Z 0041cd00 f i libohNetCore:CpProxy.obj
 0001:0001c0c0       ??F?$_Tree_iterator@V?$_Tree_val@V?$_Tmap_traits@VBrn@OpenHome@@PAVProperty@Net@2@VBufferCmp@2@V?$allocator@U?$pair@$$CBVBrn@OpenHome@@PAVProperty@Net@2@@std@@@std@@$0A@@std@@@std@@@std@@QAEAAV01@XZ 0041d0c0 f i libohNetCore:CpProxy.obj
 0001:0001c0f0       ??0?$pair@V?$_Tree_iterator@V?$_Tree_val@V?$_Tmap_traits@VBrn@OpenHome@@PAVProperty@Net@2@VBufferCmp@2@V?$allocator@U?$pair@$$CBVBrn@OpenHome@@PAVProperty@Net@2@@std@@@std@@$0A@@std@@@std@@@std@@_N@std@@QAE@$$QAV?$_Tree_iterator@V?$_Tree_val@V?$_Tmap_traits@VBrn@OpenHome@@PAVProperty@Net@2@VBufferCmp@2@V?$allocator@U?$pair@$$CBVBrn@OpenHome@@PAVProperty@Net@2@@std@@@std@@$0A@@std@@@std@@@1@$$QA_N@Z 0041d0f0 f i libohNetCore:CpProxy.obj
 0001:0001c130       ?max_size@?$_Tree@V?$_Tmap_traits@VBrn@OpenHome@@PAVProperty@Net@2@VBufferCmp@2@V?$allocator@U?$pair@$$CBVBrn@OpenHome@@PAVProperty@Net@2@@std@@@std@@$0A@@std@@@std@@QBEIXZ 0041d130 f i libohNetCore:CpProxy.obj
 0001:0001c160       ??F?$_Tree_const_iterator@V?$_Tree_val@V?$_Tmap_traits@VBrn@OpenHome@@PAVProperty@Net@2@VBufferCmp@2@V?$allocator@U?$pair@$$CBVBrn@OpenHome@@PAVProperty@Net@2@@std@@@std@@$0A@@std@@@std@@@std@@QAEAAV01@XZ 0041d160 f i libohNetCore:CpProxy.obj
 0001:0001c280       ??0?$_Pair_base@V?$_Tree_iterator@V?$_Tree_val@V?$_Tmap_traits@VBrn@OpenHome@@PAVProperty@Net@2@VBufferCmp@2@V?$allocator@U?$pair@$$CBVBrn@OpenHome@@PAVProperty@Net@2@@std@@@std@@$0A@@std@@@std@@@std@@_N@std@@QAE@$$QAV?$_Tree_iterator@V?$_Tree_val@V?$_Tmap_traits@VBrn@OpenHome@@PAVProperty@Net@2@VBufferCmp@2@V?$allocator@U?$pair@$$CBVBrn@OpenHome@@PAVProperty@Net@2@@std@@@std@@$0A@@std@@@std@@@1@$$QA_N@Z 0041d280 f i libohNetCore:CpProxy.obj
 0001:0001c300       ?max_size@?$allocator@U?$pair@$$CBVBrn@OpenHome@@PAVProperty@Net@2@@std@@@std@@QBEIXZ 0041d300 f i libohNetCore:CpProxy.obj
 0001:0001c350       ??F?$_Tree_unchecked_const_iterator@V?$_Tree_val@V?$_Tmap_traits@VBrn@OpenHome@@PAVProperty@Net@2@VBufferCmp@2@V?$allocator@U?$pair@$$CBVBrn@OpenHome@@PAVProperty@Net@2@@std@@@std@@$0A@@std@@@std@@U_Iterator_base12@2@@std@@QAEAAV01@XZ 0041d350 f i libohNetCore:CpProxy.obj
 0001:0001c440       ??$forward@AAPAVProperty@Net@OpenHome@@@std@@YGAAPAVProperty@Net@OpenHome@@AAPAV123@@Z 0041d440 f i libohNetCore:CpProxy.obj
 0001:0001c450       ??$?0AAVBrn@OpenHome@@AAPAVProperty@Net@1@@?$_Pair_base@VBrn@OpenHome@@PAVProperty@Net@2@@std@@QAE@AAVBrn@OpenHome@@AAPAVProperty@Net@3@@Z 0041d450 f i libohNetCore:CpProxy.obj
 0001:0001c4d0       ??$forward@U?$pair@VBrn@OpenHome@@PAVProperty@Net@2@@std@@@std@@YG$$QAU?$pair@VBrn@OpenHome@@PAVProperty@Net@2@@0@AAU10@@Z 0041d4d0 f i libohNetCore:CpProxy.obj
 0001:0001c4e0       ??$_Buynode@U?$pair@VBrn@OpenHome@@PAVProperty@Net@2@@std@@@?$_Tree_val@V?$_Tmap_traits@VBrn@OpenHome@@PAVProperty@Net@2@VBufferCmp@2@V?$allocator@U?$pair@$$CBVBrn@OpenHome@@PAVProperty@Net@2@@std@@@std@@$0A@@std@@@std@@QAEPAU_Node@?$_Tree_nod@V?$_Tmap_traits@VBrn@OpenHome@@PAVProperty@Net@2@VBufferCmp@2@V?$allocator@U?$pair@$$CBVBrn@OpenHome@@PAVProperty@Net@2@@std@@@std@@$0A@@std@@@1@$$QAU?$pair@VBrn@OpenHome@@PAVProperty@Net@2@@1@@Z 0041d4e0 f i libohNetCore:CpProxy.obj
 0001:0001c5c0       ??$?0AAV?$_Tree_iterator@V?$_Tree_val@V?$_Tmap_traits@VBrn@OpenHome@@PAVProperty@Net@2@VBufferCmp@2@V?$allocator@U?$pair@$$CBVBrn@OpenHome@@PAVProperty@Net@2@@std@@@std@@$0A@@std@@@std@@@std@@_N@?$pair@V?$_Tree_iterator@V?$_Tree_val@V?$_Tmap_traits@VBrn@OpenHome@@PAVProperty@Net@2@VBufferCmp@2@V?$allocator@U?$pair@$$CBVBrn@OpenHome@@PAVProperty@Net@2@@std@@@std@@$0A@@std@@@std@@@std@@_N@std@@QAE@AAV?$_Tree_iterator@V?$_Tree_val@V?$_Tmap_traits@VBrn@OpenHome@@PAVProperty@Net@2@VBufferCmp@2@V?$allocator@U?$pair@$$CBVBrn@OpenHome@@PAVProperty@Net@2@@std@@@std@@$0A@@std@@@std@@@1@$$QA_N@Z 0041d5c0 f i libohNetCore:CpProxy.obj
 0001:0001c600       ??$_Destroy@U?$pair@$$CBVBrn@OpenHome@@PAVProperty@Net@2@@std@@@std@@YGXPAU?$pair@$$CBVBrn@OpenHome@@PAVProperty@Net@2@@0@@Z 0041d600 f i libohNetCore:CpProxy.obj
 0001:0001c620       ??$move@AAV?$_Tree_iterator@V?$_Tree_val@V?$_Tmap_traits@VBrn@OpenHome@@PAVProperty@Net@2@VBufferCmp@2@V?$allocator@U?$pair@$$CBVBrn@OpenHome@@PAVProperty@Net@2@@std@@@std@@$0A@@std@@@std@@@std@@@std@@YG$$QAV?$_Tree_iterator@V?$_Tree_val@V?$_Tmap_traits@VBrn@OpenHome@@PAVProperty@Net@2@VBufferCmp@2@V?$allocator@U?$pair@$$CBVBrn@OpenHome@@PAVProperty@Net@2@@std@@@std@@$0A@@std@@@std@@@0@AAV10@@Z 0041d620 f i libohNetCore:CpProxy.obj
 0001:0001c630       ??_G?$pair@$$CBVBrn@OpenHome@@PAVProperty@Net@2@@std@@QAEPAXI@Z 0041d630 f i libohNetCore:CpProxy.obj
 0001:0001c670       ??1?$pair@$$CBVBrn@OpenHome@@PAVProperty@Net@2@@std@@QAE@XZ 0041d670 f i libohNetCore:CpProxy.obj
 0001:0001c6a0       ??1?$_Pair_base@$$CBVBrn@OpenHome@@PAVProperty@Net@2@@std@@QAE@XZ 0041d6a0 f i libohNetCore:CpProxy.obj
 0001:0001c6d0       ?_Buynode@?$_Tree_val@V?$_Tmap_traits@VBrn@OpenHome@@PAVProperty@Net@2@VBufferCmp@2@V?$allocator@U?$pair@$$CBVBrn@OpenHome@@PAVProperty@Net@2@@std@@@std@@$0A@@std@@@std@@QAEPAU_Node@?$_Tree_nod@V?$_Tmap_traits@VBrn@OpenHome@@PAVProperty@Net@2@VBufferCmp@2@V?$allocator@U?$pair@$$CBVBrn@OpenHome@@PAVProperty@Net@2@@std@@@std@@$0A@@std@@@2@XZ 0041d6d0 f i libohNetCore:CpProxy.obj
 0001:0001c760       ??$_Cons_val@V?$allocator@U?$pair@$$CBVBrn@OpenHome@@PAVProperty@Net@2@@std@@@std@@U?$pair@$$CBVBrn@OpenHome@@PAVProperty@Net@2@@2@U?$pair@VBrn@OpenHome@@PAVProperty@Net@2@@2@@std@@YGXAAV?$allocator@U?$pair@$$CBVBrn@OpenHome@@PAVProperty@Net@2@@std@@@0@PAU?$pair@$$CBVBrn@OpenHome@@PAVProperty@Net@2@@0@$$QAU?$pair@VBrn@OpenHome@@PAVProperty@Net@2@@0@@Z 0041d760 f i libohNetCore:CpProxy.obj
 0001:0001c790       ??$forward@AAV?$_Tree_iterator@V?$_Tree_val@V?$_Tmap_traits@VBrn@OpenHome@@PAVProperty@Net@2@VBufferCmp@2@V?$allocator@U?$pair@$$CBVBrn@OpenHome@@PAVProperty@Net@2@@std@@@std@@$0A@@std@@@std@@@std@@@std@@YGAAV?$_Tree_iterator@V?$_Tree_val@V?$_Tmap_traits@VBrn@OpenHome@@PAVProperty@Net@2@VBufferCmp@2@V?$allocator@U?$pair@$$CBVBrn@OpenHome@@PAVProperty@Net@2@@std@@@std@@$0A@@std@@@std@@@0@AAV10@@Z 0041d790 f i libohNetCore:CpProxy.obj
 0001:0001c7a0       ??$?0AAV?$_Tree_iterator@V?$_Tree_val@V?$_Tmap_traits@VBrn@OpenHome@@PAVProperty@Net@2@VBufferCmp@2@V?$allocator@U?$pair@$$CBVBrn@OpenHome@@PAVProperty@Net@2@@std@@@std@@$0A@@std@@@std@@@std@@_N@?$_Pair_base@V?$_Tree_iterator@V?$_Tree_val@V?$_Tmap_traits@VBrn@OpenHome@@PAVProperty@Net@2@VBufferCmp@2@V?$allocator@U?$pair@$$CBVBrn@OpenHome@@PAVProperty@Net@2@@std@@@std@@$0A@@std@@@std@@@std@@_N@std@@QAE@AAV?$_Tree_iterator@V?$_Tree_val@V?$_Tmap_traits@VBrn@OpenHome@@PAVProperty@Net@2@VBufferCmp@2@V?$allocator@U?$pair@$$CBVBrn@OpenHome@@PAVProperty@Net@2@@std@@@std@@$0A@@std@@@std@@@1@$$QA_N@Z 0041d7a0 f i libohNetCore:CpProxy.obj
 0001:0001c820       ??$construct@U?$pair@VBrn@OpenHome@@PAVProperty@Net@2@@std@@@?$allocator@U?$pair@$$CBVBrn@OpenHome@@PAVProperty@Net@2@@std@@@std@@QAEXPAU?$pair@$$CBVBrn@OpenHome@@PAVProperty@Net@2@@1@$$QAU?$pair@VBrn@OpenHome@@PAVProperty@Net@2@@1@@Z 0041d820 f i libohNetCore:CpProxy.obj
 0001:0001c8c0       ??$?0VBrn@OpenHome@@PAVProperty@Net@1@@?$pair@$$CBVBrn@OpenHome@@PAVProperty@Net@2@@std@@QAE@$$QAU?$pair@VBrn@OpenHome@@PAVProperty@Net@2@@1@@Z 0041d8c0 f i libohNetCore:CpProxy.obj
 0001:0001c900       ??$forward@PAVProperty@Net@OpenHome@@@std@@YG$$QAPAVProperty@Net@OpenHome@@AAPAV123@@Z 0041d900 f i libohNetCore:CpProxy.obj
 0001:0001c910       ??$?0VBrn@OpenHome@@PAVProperty@Net@1@@?$_Pair_base@$$CBVBrn@OpenHome@@PAVProperty@Net@2@@std@@QAE@$$QAVBrn@OpenHome@@$$QAPAVProperty@Net@3@@Z 0041d910 f i libohNetCore:CpProxy.obj
 0001:0001c990       ?PropertiesLock@DvProvider@Net@OpenHome@@QAEXXZ 0041d990 f   libohNetCore:DvProvider.obj
 0001:0001c9e0       ?PropertiesUnlock@DvProvider@Net@OpenHome@@QAEXXZ 0041d9e0 f   libohNetCore:DvProvider.obj
 0001:0001ca60       ??0DvProvider@Net@OpenHome@@IAE@AAVDviDevice@12@PBD1I@Z 0041da60 f   libohNetCore:DvProvider.obj
 0001:0001cb30       ??1DvProvider@Net@OpenHome@@MAE@XZ 0041db30 f   libohNetCore:DvProvider.obj
 0001:0001cb50       ?SetPropertyInt@DvProvider@Net@OpenHome@@IAE_NAAVPropertyInt@23@H@Z 0041db50 f   libohNetCore:DvProvider.obj
 0001:0001cb90       ?SetPropertyUint@DvProvider@Net@OpenHome@@IAE_NAAVPropertyUint@23@I@Z 0041db90 f   libohNetCore:DvProvider.obj
 0001:0001cbd0       ?SetPropertyBool@DvProvider@Net@OpenHome@@IAE_NAAVPropertyBool@23@_N@Z 0041dbd0 f   libohNetCore:DvProvider.obj
 0001:0001cc10       ?SetPropertyString@DvProvider@Net@OpenHome@@IAE_NAAVPropertyString@23@ABVBrx@3@@Z 0041dc10 f   libohNetCore:DvProvider.obj
 0001:0001cc50       ?SetPropertyBinary@DvProvider@Net@OpenHome@@IAE_NAAVPropertyBinary@23@ABVBrx@3@@Z 0041dc50 f   libohNetCore:DvProvider.obj
 0001:0001cc90       ?TryPublishUpdate@DvProvider@Net@OpenHome@@AAEXXZ 0041dc90 f   libohNetCore:DvProvider.obj
 0001:0001cd10       ??_EDvProvider@Net@OpenHome@@MAEPAXI@Z 0041dd10 f i libohNetCore:DvProvider.obj
 0001:0001cd90       ??0DvDeviceStd@Net@OpenHome@@QAE@ABV?$basic_string@DU?$char_traits@D@std@@V?$allocator@D@2@@std@@@Z 0041dd90 f   libohNetCore:DvDeviceStd.obj
 0001:0001cec0       ??0DvDeviceStd@Net@OpenHome@@IAE@XZ 0041dec0 f   libohNetCore:DvDeviceStd.obj
 0001:0001cf00       ??1DvDeviceStd@Net@OpenHome@@QAE@XZ 0041df00 f   libohNetCore:DvDeviceStd.obj
 0001:0001cf70       ?SetUdn@DvDeviceStd@Net@OpenHome@@IAEXABV?$basic_string@DU?$char_traits@D@std@@V?$allocator@D@2@@std@@@Z 0041df70 f   libohNetCore:DvDeviceStd.obj
 0001:0001cfa0       ?Device@DvDeviceStd@Net@OpenHome@@QAEAAVDviDevice@23@XZ 0041dfa0 f   libohNetCore:DvDeviceStd.obj
 0001:0001cfc0       ?Udn@DvDeviceStd@Net@OpenHome@@QBEABV?$basic_string@DU?$char_traits@D@std@@V?$allocator@D@2@@std@@XZ 0041dfc0 f   libohNetCore:DvDeviceStd.obj
 0001:0001cfe0       ?Enabled@DvDeviceStd@Net@OpenHome@@QBE_NXZ 0041dfe0 f   libohNetCore:DvDeviceStd.obj
 0001:0001d010       ?SetEnabled@DvDeviceStd@Net@OpenHome@@QAEXXZ 0041e010 f   libohNetCore:DvDeviceStd.obj
 0001:0001d040       ?SetDisabled@DvDeviceStd@Net@OpenHome@@QAEXVFunctor@3@@Z 0041e040 f   libohNetCore:DvDeviceStd.obj
 0001:0001d090       ?GetAttribute@DvDeviceStd@Net@OpenHome@@QBEXPBDPAPBD@Z 0041e090 f   libohNetCore:DvDeviceStd.obj
 0001:0001d0c0       ?SetAttribute@DvDeviceStd@Net@OpenHome@@QAEXPBD0@Z 0041e0c0 f   libohNetCore:DvDeviceStd.obj
 0001:0001d0f0       ?SetXmlExtension@DvDeviceStd@Net@OpenHome@@QAEXPBD@Z 0041e0f0 f   libohNetCore:DvDeviceStd.obj
 0001:0001d120       ??0DvResourceManagerStd@Net@OpenHome@@QAE@AAVIResourceManagerStd@12@@Z 0041e120 f   libohNetCore:DvDeviceStd.obj
 0001:0001d1a0       ?WriteResource@DvResourceManagerStd@Net@OpenHome@@EAEXABVBrx@3@IAAV?$vector@PADV?$allocator@PAD@std@@@std@@AAVIResourceWriter@23@@Z 0041e1a0 f   libohNetCore:DvDeviceStd.obj
 0001:0001d2a0       ??0DvDeviceStdStandard@Net@OpenHome@@QAE@ABV?$basic_string@DU?$char_traits@D@std@@V?$allocator@D@2@@std@@@Z 0041e2a0 f   libohNetCore:DvDeviceStd.obj
 0001:0001d3d0       ??0DvDeviceStdStandard@Net@OpenHome@@QAE@ABV?$basic_string@DU?$char_traits@D@std@@V?$allocator@D@2@@std@@AAVIResourceManagerStd@12@@Z 0041e3d0 f   libohNetCore:DvDeviceStd.obj
 0001:0001d530       ??1DvDeviceStdStandard@Net@OpenHome@@QAE@XZ 0041e530 f   libohNetCore:DvDeviceStd.obj
 0001:0001d5e0       ??1IResourceManager@Net@OpenHome@@UAE@XZ 0041e5e0 f i libohNetCore:DvDeviceStd.obj
 0001:0001d600       ??_GIResourceManager@Net@OpenHome@@UAEPAXI@Z 0041e600 f i libohNetCore:DvDeviceStd.obj
 0001:0001d600       ??_EIResourceManager@Net@OpenHome@@UAEPAXI@Z 0041e600 f i libohNetCore:DvDeviceStd.obj
 0001:0001d640       ??_EDvResourceManagerStd@Net@OpenHome@@UAEPAXI@Z 0041e640 f i libohNetCore:DvDeviceStd.obj
 0001:0001d640       ??_GDvResourceManagerStd@Net@OpenHome@@UAEPAXI@Z 0041e640 f i libohNetCore:DvDeviceStd.obj
 0001:0001d680       ??0IResourceManager@Net@OpenHome@@QAE@XZ 0041e680 f i libohNetCore:DvDeviceStd.obj
 0001:0001d6a0       ??1DvResourceManagerStd@Net@OpenHome@@UAE@XZ 0041e6a0 f i libohNetCore:DvDeviceStd.obj
 0001:0001d6d0       ?Empty@Brx@OpenHome@@SGABVBrn@2@XZ 0041e6d0 f   libohNetCore:Buffer.obj
 0001:0001d6e0       ?Equals@Brx@OpenHome@@QBE_NABV12@@Z 0041e6e0 f   libohNetCore:Buffer.obj
 0001:0001d760       ?At@Brx@OpenHome@@QBEABEI@Z 0041e760 f   libohNetCore:Buffer.obj
 0001:0001d7c0       ?Split@Brx@OpenHome@@QBE?AVBrn@2@I@Z 0041e7c0 f   libohNetCore:Buffer.obj
 0001:0001d850       ?Split@Brx@OpenHome@@QBE?AVBrn@2@II@Z 0041e850 f   libohNetCore:Buffer.obj
 0001:0001d8d0       ?BeginsWith@Brx@OpenHome@@QBE_NABV12@@Z 0041e8d0 f   libohNetCore:Buffer.obj
 0001:0001d950       ??0Brn@OpenHome@@QAE@PBD@Z 0041e950 f   libohNetCore:Buffer.obj
 0001:0001d9a0       ?Set@Brn@OpenHome@@QAEXPBD@Z 0041e9a0 f   libohNetCore:Buffer.obj
 0001:0001d9e0       ?Ptr@Brn@OpenHome@@UBEPBEXZ 0041e9e0 f   libohNetCore:Buffer.obj
 0001:0001da20       ??1Brv@OpenHome@@UAE@XZ    0041ea20 f   libohNetCore:Buffer.obj
 0001:0001da60       ?Ptr@Brv@OpenHome@@UBEPBEXZ 0041ea60 f   libohNetCore:Buffer.obj
 0001:0001da80       ??0Brh@OpenHome@@QAE@ABVBrx@1@@Z 0041ea80 f   libohNetCore:Buffer.obj
 0001:0001db00       ??0Brh@OpenHome@@QAE@PBD@Z 0041eb00 f   libohNetCore:Buffer.obj
 0001:0001db80       ?Set@Brh@OpenHome@@QAEXPBEI@Z 0041eb80 f   libohNetCore:Buffer.obj
 0001:0001dbe0       ?Set@Brh@OpenHome@@QAEXPBD@Z 0041ebe0 f   libohNetCore:Buffer.obj
 0001:0001dc20       ?TransferTo@Brh@OpenHome@@QAEXAAV12@@Z 0041ec20 f   libohNetCore:Buffer.obj
 0001:0001dc80       ?Extract@Brh@OpenHome@@QAEPADXZ 0041ec80 f   libohNetCore:Buffer.obj
 0001:0001dcc0       ??0Brhz@OpenHome@@QAE@ABVBrx@1@@Z 0041ecc0 f   libohNetCore:Buffer.obj
 0001:0001dd40       ??0Brhz@OpenHome@@QAE@PBD@Z 0041ed40 f   libohNetCore:Buffer.obj
 0001:0001ddc0       ?Set@Brhz@OpenHome@@QAEXPBEI@Z 0041edc0 f   libohNetCore:Buffer.obj
 0001:0001de80       ?Set@Brhz@OpenHome@@QAEXPBD@Z 0041ee80 f   libohNetCore:Buffer.obj
 0001:0001dec0       ?Shrink@Brhz@OpenHome@@QAEXI@Z 0041eec0 f   libohNetCore:Buffer.obj
 0001:0001df60       ?TransferTo@Brhz@OpenHome@@QAEXAAVBrh@2@@Z 0041ef60 f   libohNetCore:Buffer.obj
 0001:0001dfc0       ?TransferTo@Brhz@OpenHome@@QAEXAAV12@@Z 0041efc0 f   libohNetCore:Buffer.obj
 0001:0001e020       ?Transfer@Brhz@OpenHome@@QAEPADXZ 0041f020 f   libohNetCore:Buffer.obj
 0001:0001e060       ??0Bwx@OpenHome@@IAE@II@Z  0041f060 f   libohNetCore:Buffer.obj
 0001:0001e100       ?Replace@Bwx@OpenHome@@QAEXABVBrx@2@@Z 0041f100 f   libohNetCore:Buffer.obj
 0001:0001e190       ?ReplaceThrow@Bwx@OpenHome@@QAEXABVBrx@2@@Z 0041f190 f   libohNetCore:Buffer.obj
 0001:0001e2b0       ?Replace@Bwx@OpenHome@@QAEXPBEI@Z 0041f2b0 f   libohNetCore:Buffer.obj
 0001:0001e320       ?Replace@Bwx@OpenHome@@QAEXPBD@Z 0041f320 f   libohNetCore:Buffer.obj
 0001:0001e3b0       ?Append@Bwx@OpenHome@@QAEXPBD@Z 0041f3b0 f   libohNetCore:Buffer.obj
 0001:0001e3f0       ?Append@Bwx@OpenHome@@QAEXABVBrx@2@@Z 0041f3f0 f   libohNetCore:Buffer.obj
 0001:0001e440       ?Append@Bwx@OpenHome@@QAEXPBEI@Z 0041f440 f   libohNetCore:Buffer.obj
 0001:0001e4d0       ?AppendPrintf@Bwx@OpenHome@@QAAXPBDZZ 0041f4d0 f   libohNetCore:Buffer.obj
 0001:0001e610       ?PtrZ@Bwx@OpenHome@@QBEPBDXZ 0041f610 f   libohNetCore:Buffer.obj
 0001:0001e690       ?Fill@Bwx@OpenHome@@QAEXE@Z 0041f690 f   libohNetCore:Buffer.obj
 0001:0001e6e0       ?SetBytes@Bwx@OpenHome@@QAEXI@Z 0041f6e0 f   libohNetCore:Buffer.obj
 0001:0001e730       ?At@Bwx@OpenHome@@QAEAAEI@Z 0041f730 f   libohNetCore:Buffer.obj
 0001:0001e790       ??0Bwn@OpenHome@@QAE@XZ    0041f790 f   libohNetCore:Buffer.obj
 0001:0001e7d0       ??0Bwn@OpenHome@@QAE@ABVBwx@1@@Z 0041f7d0 f   libohNetCore:Buffer.obj
 0001:0001e870       ??0Bwn@OpenHome@@QAE@ABV01@@Z 0041f870 f   libohNetCore:Buffer.obj
 0001:0001e910       ??0Bwn@OpenHome@@QAE@PBEI@Z 0041f910 f   libohNetCore:Buffer.obj
 0001:0001e960       ??0Bwn@OpenHome@@QAE@PBEII@Z 0041f960 f   libohNetCore:Buffer.obj
 0001:0001e9b0       ??0Bwn@OpenHome@@QAE@PBDI@Z 0041f9b0 f   libohNetCore:Buffer.obj
 0001:0001ea00       ??0Bwn@OpenHome@@QAE@PBDII@Z 0041fa00 f   libohNetCore:Buffer.obj
 0001:0001ea50       ?Set@Bwn@OpenHome@@QAEXABVBwx@2@@Z 0041fa50 f   libohNetCore:Buffer.obj
 0001:0001eab0       ?Set@Bwn@OpenHome@@QAEXPBEI@Z 0041fab0 f   libohNetCore:Buffer.obj
 0001:0001eae0       ?Set@Bwn@OpenHome@@QAEXPBEII@Z 0041fae0 f   libohNetCore:Buffer.obj
 0001:0001eb30       ?Ptr@Bwn@OpenHome@@UBEPBEXZ 0041fb30 f   libohNetCore:Buffer.obj
 0001:0001eb50       ??0Bwh@OpenHome@@QAE@XZ    0041fb50 f   libohNetCore:Buffer.obj
 0001:0001eb90       ??0Bwh@OpenHome@@QAE@I@Z   0041fb90 f   libohNetCore:Buffer.obj
 0001:0001ebe0       ??0Bwh@OpenHome@@QAE@II@Z  0041fbe0 f   libohNetCore:Buffer.obj
 0001:0001ec30       ??1Bwh@OpenHome@@UAE@XZ    0041fc30 f   libohNetCore:Buffer.obj
 0001:0001ec70       ?Ptr@Bwh@OpenHome@@UBEPBEXZ 0041fc70 f   libohNetCore:Buffer.obj
 0001:0001ecb0       ??0Bwh@OpenHome@@QAE@PBD@Z 0041fcb0 f   libohNetCore:Buffer.obj
 0001:0001ed50       ??0Bwh@OpenHome@@QAE@PBEI@Z 0041fd50 f   libohNetCore:Buffer.obj
 0001:0001edf0       ??0Bwh@OpenHome@@QAE@ABVBrx@1@@Z 0041fdf0 f   libohNetCore:Buffer.obj
 0001:0001ee90       ??0Bwh@OpenHome@@QAE@ABV01@@Z 0041fe90 f   libohNetCore:Buffer.obj
 0001:0001ef30       ?Grow@Bwh@OpenHome@@QAEXI@Z 0041ff30 f   libohNetCore:Buffer.obj
 0001:0001efe0       ?TransferTo@Bwh@OpenHome@@QAEXAAVBrh@2@@Z 0041ffe0 f   libohNetCore:Buffer.obj
 0001:0001f040       ?TransferTo@Bwh@OpenHome@@QAEXAAVBrhz@2@@Z 00420040 f   libohNetCore:Buffer.obj
 0001:0001f0a0       ?TransferTo@Bwh@OpenHome@@QAEXAAV12@@Z 004200a0 f   libohNetCore:Buffer.obj
 0001:0001f100       ??RBufferCmp@OpenHome@@QBE_NABVBrx@1@0@Z 00420100 f   libohNetCore:Buffer.obj
 0001:0001f200       ?Set@Brh@OpenHome@@QAEXABVBrx@2@@Z 00420200 f i libohNetCore:Buffer.obj
 0001:0001f250       ?MaxBytes@Bwx@OpenHome@@QBEIXZ 00420250 f i libohNetCore:Buffer.obj
 0001:0001f270       ??_EBwx@OpenHome@@UAEPAXI@Z 00420270 f i libohNetCore:Buffer.obj
 0001:0001f270       ??_GBwx@OpenHome@@UAEPAXI@Z 00420270 f i libohNetCore:Buffer.obj
 0001:0001f2b0       ??0BufferOverflow@OpenHome@@QAE@PBDI@Z 004202b0 f i libohNetCore:Buffer.obj
 0001:0001f2f0       ??1BufferOverflow@OpenHome@@QAE@XZ 004202f0 f i libohNetCore:Buffer.obj
 0001:0001f320       ??0BufferFull@OpenHome@@QAE@PBDI@Z 00420320 f i libohNetCore:Buffer.obj
 0001:0001f360       ??1BufferFull@OpenHome@@QAE@XZ 00420360 f i libohNetCore:Buffer.obj
 0001:0001f390       ??_EBwn@OpenHome@@UAEPAXI@Z 00420390 f i libohNetCore:Buffer.obj
 0001:0001f390       ??_GBwn@OpenHome@@UAEPAXI@Z 00420390 f i libohNetCore:Buffer.obj
 0001:0001f3d0       ??1Bwn@OpenHome@@UAE@XZ    004203d0 f i libohNetCore:Buffer.obj
 0001:0001f400       ??_EBwh@OpenHome@@UAEPAXI@Z 00420400 f i libohNetCore:Buffer.obj
 0001:0001f400       ??_GBwh@OpenHome@@UAEPAXI@Z 00420400 f i libohNetCore:Buffer.obj
 0001:0001f440       ?IsHex@Ascii@OpenHome@@SG_ND@Z 00420440 f   libohNetCore:Ascii.obj
 0001:0001f4a0       ?IsDigit@Ascii@OpenHome@@SG_ND@Z 004204a0 f   libohNetCore:Ascii.obj
 0001:0001f4e0       ?IsWhitespace@Ascii@OpenHome@@SG_ND@Z 004204e0 f   libohNetCore:Ascii.obj
 0001:0001f500       ?IsLineEnding@Ascii@OpenHome@@SG_ND@Z 00420500 f   libohNetCore:Ascii.obj
 0001:0001f540       ?IsAlphabetic@Ascii@OpenHome@@SG_ND@Z 00420540 f   libohNetCore:Ascii.obj
 0001:0001f590       ?IsUpperCase@Ascii@OpenHome@@SG_ND@Z 00420590 f   libohNetCore:Ascii.obj
 0001:0001f5d0       ?IsLowerCase@Ascii@OpenHome@@SG_ND@Z 004205d0 f   libohNetCore:Ascii.obj
 0001:0001f610       ?ToLowerCase@Ascii@OpenHome@@SGDD@Z 00420610 f   libohNetCore:Ascii.obj
 0001:0001f660       ?ToUpperCase@Ascii@OpenHome@@SGDD@Z 00420660 f   libohNetCore:Ascii.obj
 0001:0001f6b0       ?CaseInsensitiveEquals@Ascii@OpenHome@@SG_NDD@Z 004206b0 f   libohNetCore:Ascii.obj
 0001:0001f700       ?CaseInsensitiveEquals@Ascii@OpenHome@@SG_NABVBrx@2@0@Z 00420700 f   libohNetCore:Ascii.obj
 0001:0001f790       ?RemoveTheFromStart@Ascii@OpenHome@@SG_NABVBrx@2@AAVBwx@2@@Z 00420790 f   libohNetCore:Ascii.obj
 0001:0001f8d0       ?HexChar@Ascii@OpenHome@@SGDI@Z 004208d0 f   libohNetCore:Ascii.obj
 0001:0001f9a0       ?HexValue@Ascii@OpenHome@@SGID@Z 004209a0 f   libohNetCore:Ascii.obj
 0001:0001faa0       ?DecChar@Ascii@OpenHome@@SGDI@Z 00420aa0 f   libohNetCore:Ascii.obj
 0001:0001fb60       ?DecValue@Ascii@OpenHome@@SGID@Z 00420b60 f   libohNetCore:Ascii.obj
 0001:0001fc30       ?AppendDec@Ascii@OpenHome@@SGIAAVBwx@2@E@Z 00420c30 f   libohNetCore:Ascii.obj
 0001:0001fc50       ?AppendDec@Ascii@OpenHome@@SGIAAVBwx@2@C@Z 00420c50 f   libohNetCore:Ascii.obj
 0001:0001fc70       ?AppendDec@Ascii@OpenHome@@SGIAAVBwx@2@H@Z 00420c70 f   libohNetCore:Ascii.obj
 0001:0001fdf0       ?AppendDec@Ascii@OpenHome@@SGIAAVBwx@2@I@Z 00420df0 f   libohNetCore:Ascii.obj
 0001:0001ff50       ?AppendDec@Ascii@OpenHome@@SGIAAVBwx@2@_J@Z 00420f50 f   libohNetCore:Ascii.obj
 0001:00020100       ?AppendDec@Ascii@OpenHome@@SGIAAVBwx@2@_K@Z 00421100 f   libohNetCore:Ascii.obj
 0001:00020270       ?AppendHex@Ascii@OpenHome@@SGIAAVBwx@2@I@Z 00421270 f   libohNetCore:Ascii.obj
 0001:00020310       ?AppendHex@Ascii@OpenHome@@SGIAAVBwx@2@E@Z 00421310 f   libohNetCore:Ascii.obj
 0001:00020360       ?AppendHexPrefix@Ascii@OpenHome@@SGIAAVBwx@2@@Z 00421360 f   libohNetCore:Ascii.obj
 0001:00020380       ?Contains@Ascii@OpenHome@@SG_NABVBrx@2@D@Z 00421380 f   libohNetCore:Ascii.obj
 0001:000203e0       ?ContainsWhitespace@Ascii@OpenHome@@SG_NABVBrx@2@@Z 004213e0 f   libohNetCore:Ascii.obj
 0001:00020440       ?IndexOf@Ascii@OpenHome@@SGIABVBrx@2@D@Z 00421440 f   libohNetCore:Ascii.obj
 0001:000204d0       ?Substitute@Ascii@OpenHome@@SGXAAVBwx@2@DD@Z 004214d0 f   libohNetCore:Ascii.obj
 0001:00020560       ?Trim@Ascii@OpenHome@@SG?AVBrn@2@ABVBrx@2@@Z 00421560 f   libohNetCore:Ascii.obj
 0001:00020660       ?Int@Ascii@OpenHome@@SGHABVBrx@2@@Z 00421660 f   libohNetCore:Ascii.obj
 0001:000208e0       ?Uint@Ascii@OpenHome@@SGIABVBrx@2@@Z 004218e0 f   libohNetCore:Ascii.obj
 0001:00020aa0       ?Int64@Ascii@OpenHome@@SG_JABVBrx@2@@Z 00421aa0 f   libohNetCore:Ascii.obj
 0001:00020d70       ?Uint64@Ascii@OpenHome@@SG_KABVBrx@2@@Z 00421d70 f   libohNetCore:Ascii.obj
 0001:00020f50       ?UintHex@Ascii@OpenHome@@SGIABVBrx@2@@Z 00421f50 f   libohNetCore:Ascii.obj
 0001:00021110       ??0ReaderAscii@OpenHome@@QAE@AAVIReader@1@@Z 00422110 f   libohNetCore:Ascii.obj
 0001:00021190       ?ReadInt@ReaderAscii@OpenHome@@QAEHE@Z 00422190 f   libohNetCore:Ascii.obj
 0001:00021250       ?ReadUint@ReaderAscii@OpenHome@@QAEIE@Z 00422250 f   libohNetCore:Ascii.obj
 0001:00021310       ?Read@ReaderAscii@OpenHome@@UAE?AVBrn@2@I@Z 00422310 f   libohNetCore:Ascii.obj
 0001:00021370       ?ReadUntil@ReaderAscii@OpenHome@@UAE?AVBrn@2@E@Z 00422370 f   libohNetCore:Ascii.obj
 0001:000213e0       ??0WriterAscii@OpenHome@@QAE@AAVIWriter@1@@Z 004223e0 f   libohNetCore:Ascii.obj
 0001:00021460       ?WriteSpace@WriterAscii@OpenHome@@UAEXXZ 00422460 f   libohNetCore:Ascii.obj
 0001:000214a0       ?WriteNewline@WriterAscii@OpenHome@@UAEXXZ 004224a0 f   libohNetCore:Ascii.obj
 0001:000214e0       ?WriteTab@WriterAscii@OpenHome@@UAEXXZ 004224e0 f   libohNetCore:Ascii.obj
 0001:00021520       ?WriteInt@WriterAscii@OpenHome@@UAEXH@Z 00422520 f   libohNetCore:Ascii.obj
 0001:00021600       ?WriteIntPadded@WriterAscii@OpenHome@@UAEXH@Z 00422600 f   libohNetCore:Ascii.obj
 0001:00021700       ?WriteUint@WriterAscii@OpenHome@@UAEXI@Z 00422700 f   libohNetCore:Ascii.obj
 0001:000217e0       ?WriteUintPadded@WriterAscii@OpenHome@@UAEXI@Z 004227e0 f   libohNetCore:Ascii.obj
 0001:000218e0       ?WriteInt64@WriterAscii@OpenHome@@UAEX_J@Z 004228e0 f   libohNetCore:Ascii.obj
 0001:000219c0       ?WriteUint64@WriterAscii@OpenHome@@UAEX_K@Z 004229c0 f   libohNetCore:Ascii.obj
 0001:00021aa0       ?WriteHex@WriterAscii@OpenHome@@UAEXI@Z 00422aa0 f   libohNetCore:Ascii.obj
 0001:00021b90       ?WriteHex@WriterAscii@OpenHome@@UAEXE@Z 00422b90 f   libohNetCore:Ascii.obj
 0001:00021c80       ?WriteHexPrefix@WriterAscii@OpenHome@@UAEXXZ 00422c80 f   libohNetCore:Ascii.obj
 0001:00021cc0       ?Write@WriterAscii@OpenHome@@UAEXE@Z 00422cc0 f   libohNetCore:Ascii.obj
 0001:00021d10       ?Write@WriterAscii@OpenHome@@UAEXABVBrx@2@@Z 00422d10 f   libohNetCore:Ascii.obj
 0001:00021d50       ?WriteFlush@WriterAscii@OpenHome@@UAEXXZ 00422d50 f   libohNetCore:Ascii.obj
 0001:00021d90       ?StreamWriteUint@Ascii@OpenHome@@SGXAAVIWriter@2@I@Z 00422d90 f   libohNetCore:Ascii.obj
 0001:00021e70       ?StreamWriteInt@Ascii@OpenHome@@SGXAAVIWriter@2@H@Z 00422e70 f   libohNetCore:Ascii.obj
 0001:00021f50       ??ABrx@OpenHome@@QBEABEI@Z 00422f50 f i libohNetCore:Ascii.obj
 0001:00021f80       ??0AsciiError@OpenHome@@QAE@PBDI@Z 00422f80 f i libohNetCore:Ascii.obj
 0001:00021fc0       ??1AsciiError@OpenHome@@QAE@XZ 00422fc0 f i libohNetCore:Ascii.obj
 0001:00021ff0       ?Append@Bwx@OpenHome@@QAEXE@Z 00422ff0 f i libohNetCore:Ascii.obj
 0001:00022020       ??ABwx@OpenHome@@QAEAAEI@Z 00423020 f i libohNetCore:Ascii.obj
 0001:00022050       ??1?$Bws@$0BE@@OpenHome@@UAE@XZ 00423050 f i libohNetCore:Ascii.obj
 0001:00022080       ??0ReaderError@OpenHome@@QAE@PBDI@Z 00423080 f i libohNetCore:Ascii.obj
 0001:000220c0       ??1ReaderError@OpenHome@@QAE@XZ 004230c0 f i libohNetCore:Ascii.obj
 0001:000220f0       ??1IReader@OpenHome@@UAE@XZ 004230f0 f i libohNetCore:Ascii.obj
 0001:00022110       ??_EIReader@OpenHome@@UAEPAXI@Z 00423110 f i libohNetCore:Ascii.obj
 0001:00022110       ??_GIReader@OpenHome@@UAEPAXI@Z 00423110 f i libohNetCore:Ascii.obj
 0001:00022150       ??_GReaderAscii@OpenHome@@UAEPAXI@Z 00423150 f i libohNetCore:Ascii.obj
 0001:00022150       ??_EReaderAscii@OpenHome@@UAEPAXI@Z 00423150 f i libohNetCore:Ascii.obj
 0001:00022190       ??0IReader@OpenHome@@QAE@XZ 00423190 f i libohNetCore:Ascii.obj
 0001:000221b0       ??1ReaderAscii@OpenHome@@UAE@XZ 004231b0 f i libohNetCore:Ascii.obj
 0001:000221e0       ??1IWriterAscii@OpenHome@@UAE@XZ 004231e0 f i libohNetCore:Ascii.obj
 0001:00022210       ??_EIWriterAscii@OpenHome@@UAEPAXI@Z 00423210 f i libohNetCore:Ascii.obj
 0001:00022210       ??_GIWriterAscii@OpenHome@@UAEPAXI@Z 00423210 f i libohNetCore:Ascii.obj
 0001:00022250       ??_EWriterAscii@OpenHome@@UAEPAXI@Z 00423250 f i libohNetCore:Ascii.obj
 0001:00022250       ??_GWriterAscii@OpenHome@@UAEPAXI@Z 00423250 f i libohNetCore:Ascii.obj
 0001:00022290       ??0IWriterAscii@OpenHome@@QAE@XZ 00423290 f i libohNetCore:Ascii.obj
 0001:000222c0       ??1WriterAscii@OpenHome@@UAE@XZ 004232c0 f i libohNetCore:Ascii.obj
 0001:000222f0       ??0IWriter@OpenHome@@QAE@XZ 004232f0 f i libohNetCore:Ascii.obj
 0001:00022310       ??1?$Bws@$0L@@OpenHome@@UAE@XZ 00423310 f i libohNetCore:Ascii.obj
 0001:00022340       ??1?$Bws@$07@OpenHome@@UAE@XZ 00423340 f i libohNetCore:Ascii.obj
 0001:00022370       ??1?$Bws@$01@OpenHome@@UAE@XZ 00423370 f i libohNetCore:Ascii.obj
 0001:000223a0       ??0?$Bws@$0BE@@OpenHome@@QAE@XZ 004233a0 f i libohNetCore:Ascii.obj
 0001:000223e0       ?Ptr@?$Bws@$0BE@@OpenHome@@UBEPBEXZ 004233e0 f i libohNetCore:Ascii.obj
 0001:00022400       ??0?$Bws@$0L@@OpenHome@@QAE@XZ 00423400 f i libohNetCore:Ascii.obj
 0001:00022440       ?Ptr@?$Bws@$0L@@OpenHome@@UBEPBEXZ 00423440 f i libohNetCore:Ascii.obj
 0001:00022460       ??0?$Bws@$07@OpenHome@@QAE@XZ 00423460 f i libohNetCore:Ascii.obj
 0001:000224a0       ?Ptr@?$Bws@$07@OpenHome@@UBEPBEXZ 004234a0 f i libohNetCore:Ascii.obj
 0001:000224c0       ??0?$Bws@$01@OpenHome@@QAE@XZ 004234c0 f i libohNetCore:Ascii.obj
 0001:00022500       ?Ptr@?$Bws@$01@OpenHome@@UBEPBEXZ 00423500 f i libohNetCore:Ascii.obj
 0001:00022520       ??_E?$Bws@$0BE@@OpenHome@@UAEPAXI@Z 00423520 f i libohNetCore:Ascii.obj
 0001:00022520       ??_G?$Bws@$0BE@@OpenHome@@UAEPAXI@Z 00423520 f i libohNetCore:Ascii.obj
 0001:00022560       ??_G?$Bws@$0L@@OpenHome@@UAEPAXI@Z 00423560 f i libohNetCore:Ascii.obj
 0001:00022560       ??_E?$Bws@$0L@@OpenHome@@UAEPAXI@Z 00423560 f i libohNetCore:Ascii.obj
 0001:000225a0       ??_E?$Bws@$07@OpenHome@@UAEPAXI@Z 004235a0 f i libohNetCore:Ascii.obj
 0001:000225a0       ??_G?$Bws@$07@OpenHome@@UAEPAXI@Z 004235a0 f i libohNetCore:Ascii.obj
 0001:000225e0       ??_E?$Bws@$01@OpenHome@@UAEPAXI@Z 004235e0 f i libohNetCore:Ascii.obj
 0001:000225e0       ??_G?$Bws@$01@OpenHome@@UAEPAXI@Z 004235e0 f i libohNetCore:Ascii.obj
 0001:00022620       ?Twiddle@@YGIII@Z          00423620 f   libohNetCore:Maths.obj
 0001:00022650       ?SetRandomSeed@OpenHome@@YGXABVBrx@1@@Z 00423650 f   libohNetCore:Maths.obj
 0001:00022740       ?SetRandomSeed@OpenHome@@YGXI@Z 00423740 f   libohNetCore:Maths.obj
 0001:000227d0       ?Random@OpenHome@@YGIII@Z  004237d0 f   libohNetCore:Maths.obj
 0001:00022970       ?LittleEndian4@Arch@OpenHome@@SGII@Z 00423970 f i libohNetCore:Maths.obj
 0001:00022980       ??0NetworkAdapterList@OpenHome@@QAE@I@Z 00423980 f   libohNetCore:NetworkAdapterList.obj
 0001:00022a80       ??1NetworkAdapterList@OpenHome@@QAE@XZ 00423a80 f   libohNetCore:NetworkAdapterList.obj
 0001:00022b30       ?CurrentAdapter@NetworkAdapterList@OpenHome@@QBEPAVNetworkAdapter@2@XZ 00423b30 f   libohNetCore:NetworkAdapterList.obj
 0001:00022c10       ?List@NetworkAdapterList@OpenHome@@QBEABV?$vector@PAVNetworkAdapter@OpenHome@@V?$allocator@PAVNetworkAdapter@OpenHome@@@std@@@std@@XZ 00423c10 f   libohNetCore:NetworkAdapterList.obj
 0001:00022c30       ?CreateSubnetList@NetworkAdapterList@OpenHome@@QBEPAV?$vector@PAVNetworkAdapter@OpenHome@@V?$allocator@PAVNetworkAdapter@OpenHome@@@std@@@std@@XZ 00423c30 f   libohNetCore:NetworkAdapterList.obj
 0001:00022c80       ?DestroySubnetList@NetworkAdapterList@OpenHome@@SGXPAV?$vector@PAVNetworkAdapter@OpenHome@@V?$allocator@PAVNetworkAdapter@OpenHome@@@std@@@std@@@Z 00423c80 f   libohNetCore:NetworkAdapterList.obj
 0001:00022d10       ?SetCurrentSubnet@NetworkAdapterList@OpenHome@@QAEXI@Z 00423d10 f   libohNetCore:NetworkAdapterList.obj
 0001:00022da0       ?AddCurrentChangeListener@NetworkAdapterList@OpenHome@@QAEIVFunctor@2@@Z 00423da0 f   libohNetCore:NetworkAdapterList.obj
 0001:00022df0       ?RemoveCurrentChangeListener@NetworkAdapterList@OpenHome@@QAEXI@Z 00423df0 f   libohNetCore:NetworkAdapterList.obj
 0001:00022e30       ?AddSubnetListChangeListener@NetworkAdapterList@OpenHome@@QAEIVFunctor@2@@Z 00423e30 f   libohNetCore:NetworkAdapterList.obj
 0001:00022e80       ?RemoveSubnetListChangeListener@NetworkAdapterList@OpenHome@@QAEXI@Z 00423e80 f   libohNetCore:NetworkAdapterList.obj
 0001:00022ec0       ?CreateSubnetListLocked@NetworkAdapterList@OpenHome@@ABEPAV?$vector@PAVNetworkAdapter@OpenHome@@V?$allocator@PAVNetworkAdapter@OpenHome@@@std@@@std@@XZ 00423ec0 f   libohNetCore:NetworkAdapterList.obj
 0001:00022ff0       ?AddListener@NetworkAdapterList@OpenHome@@AAEIVFunctor@2@AAV?$map@IVFunctor@OpenHome@@U?$less@I@std@@V?$allocator@U?$pair@$$CBIVFunctor@OpenHome@@@std@@@4@@std@@@Z 00423ff0 f   libohNetCore:NetworkAdapterList.obj
 0001:000230a0       ?RemoveSubnetListChangeListener@NetworkAdapterList@OpenHome@@AAEXIAAV?$map@IVFunctor@OpenHome@@U?$less@I@std@@V?$allocator@U?$pair@$$CBIVFunctor@OpenHome@@@std@@@4@@std@@@Z 004240a0 f   libohNetCore:NetworkAdapterList.obj
 0001:000231d0       ?InterfaceListChanged@NetworkAdapterList@OpenHome@@CGXPAX@Z 004241d0 f   libohNetCore:NetworkAdapterList.obj
 0001:000231f0       ?FindSubnet@NetworkAdapterList@OpenHome@@CGHIABV?$vector@PAVNetworkAdapter@OpenHome@@V?$allocator@PAVNetworkAdapter@OpenHome@@@std@@@std@@@Z 004241f0 f   libohNetCore:NetworkAdapterList.obj
 0001:00023250       ?UpdateCurrentAdapter@NetworkAdapterList@OpenHome@@AAEXXZ 00424250 f   libohNetCore:NetworkAdapterList.obj
 0001:00023300       ?HandleInterfaceListChanged@NetworkAdapterList@OpenHome@@AAEXXZ 00424300 f   libohNetCore:NetworkAdapterList.obj
 0001:000234a0       ?RunCallbacks@NetworkAdapterList@OpenHome@@AAEXAAV?$map@IVFunctor@OpenHome@@U?$less@I@std@@V?$allocator@U?$pair@$$CBIVFunctor@OpenHome@@@std@@@4@@std@@@Z 004244a0 f   libohNetCore:NetworkAdapterList.obj
 0001:000235c0       ?NetworkSetInterfaceChangedObserver@Os@OpenHome@@SGXP6GXPAX@Z0@Z 004245c0 f i libohNetCore:NetworkAdapterList.obj
 0001:000235e0       ??1?$map@IVFunctor@OpenHome@@U?$less@I@std@@V?$allocator@U?$pair@$$CBIVFunctor@OpenHome@@@std@@@4@@std@@QAE@XZ 004245e0 f i libohNetCore:NetworkAdapterList.obj
 0001:00023610       ??1?$pair@V?$_Tree_iterator@V?$_Tree_val@V?$_Tmap_traits@IVFunctor@OpenHome@@U?$less@I@std@@V?$allocator@U?$pair@$$CBIVFunctor@OpenHome@@@std@@@4@$0A@@std@@@std@@@std@@_N@std@@QAE@XZ 00424610 f i libohNetCore:NetworkAdapterList.obj
 0001:00023640       ??1?$_Pair_base@V?$_Tree_iterator@V?$_Tree_val@V?$_Tmap_traits@IVFunctor@OpenHome@@U?$less@I@std@@V?$allocator@U?$pair@$$CBIVFunctor@OpenHome@@@std@@@4@$0A@@std@@@std@@@std@@_N@std@@QAE@XZ 00424640 f i libohNetCore:NetworkAdapterList.obj
 0001:00023670       ??1?$_Tree_iterator@V?$_Tree_val@V?$_Tmap_traits@IVFunctor@OpenHome@@U?$less@I@std@@V?$allocator@U?$pair@$$CBIVFunctor@OpenHome@@@std@@@4@$0A@@std@@@std@@@std@@QAE@XZ 00424670 f i libohNetCore:NetworkAdapterList.obj
 0001:000236a0       ??1?$_Tree_const_iterator@V?$_Tree_val@V?$_Tmap_traits@IVFunctor@OpenHome@@U?$less@I@std@@V?$allocator@U?$pair@$$CBIVFunctor@OpenHome@@@std@@@4@$0A@@std@@@std@@@std@@QAE@XZ 004246a0 f i libohNetCore:NetworkAdapterList.obj
 0001:000236d0       ??1?$_Tree_unchecked_const_iterator@V?$_Tree_val@V?$_Tmap_traits@IVFunctor@OpenHome@@U?$less@I@std@@V?$allocator@U?$pair@$$CBIVFunctor@OpenHome@@@std@@@4@$0A@@std@@@std@@U_Iterator_base12@2@@std@@QAE@XZ 004246d0 f i libohNetCore:NetworkAdapterList.obj
 0001:00023700       ??1?$_Iterator012@Ubidirectional_iterator_tag@std@@U?$pair@$$CBIVFunctor@OpenHome@@@2@HPBU32@ABU32@U_Iterator_base12@2@@std@@QAE@XZ 00424700 f i libohNetCore:NetworkAdapterList.obj
 0001:00023730       ??0?$_Tree_const_iterator@V?$_Tree_val@V?$_Tmap_traits@IVFunctor@OpenHome@@U?$less@I@std@@V?$allocator@U?$pair@$$CBIVFunctor@OpenHome@@@std@@@4@$0A@@std@@@std@@@std@@QAE@ABV01@@Z 00424730 f i libohNetCore:NetworkAdapterList.obj
 0001:00023760       ??0?$_Tree_unchecked_const_iterator@V?$_Tree_val@V?$_Tmap_traits@IVFunctor@OpenHome@@U?$less@I@std@@V?$allocator@U?$pair@$$CBIVFunctor@OpenHome@@@std@@@4@$0A@@std@@@std@@U_Iterator_base12@2@@std@@QAE@ABV01@@Z 00424760 f i libohNetCore:NetworkAdapterList.obj
 0001:000237a0       ??0?$_Iterator012@Ubidirectional_iterator_tag@std@@U?$pair@$$CBIVFunctor@OpenHome@@@2@HPBU32@ABU32@U_Iterator_base12@2@@std@@QAE@ABU01@@Z 004247a0 f i libohNetCore:NetworkAdapterList.obj
 0001:000237d0       ??0?$map@IVFunctor@OpenHome@@U?$less@I@std@@V?$allocator@U?$pair@$$CBIVFunctor@OpenHome@@@std@@@4@@std@@QAE@XZ 004247d0 f i libohNetCore:NetworkAdapterList.obj
 0001:00023810       ??1?$_Tree@V?$_Tmap_traits@IVFunctor@OpenHome@@U?$less@I@std@@V?$allocator@U?$pair@$$CBIVFunctor@OpenHome@@@std@@@4@$0A@@std@@@std@@QAE@XZ 00424810 f i libohNetCore:NetworkAdapterList.obj
 0001:00023880       ?begin@?$_Tree@V?$_Tmap_traits@IVFunctor@OpenHome@@U?$less@I@std@@V?$allocator@U?$pair@$$CBIVFunctor@OpenHome@@@std@@@4@$0A@@std@@@std@@QAE?AV?$_Tree_iterator@V?$_Tree_val@V?$_Tmap_traits@IVFunctor@OpenHome@@U?$less@I@std@@V?$allocator@U?$pair@$$CBIVFunctor@OpenHome@@@std@@@4@$0A@@std@@@std@@@2@XZ 00424880 f i libohNetCore:NetworkAdapterList.obj
 0001:000238e0       ?end@?$_Tree@V?$_Tmap_traits@IVFunctor@OpenHome@@U?$less@I@std@@V?$allocator@U?$pair@$$CBIVFunctor@OpenHome@@@std@@@4@$0A@@std@@@std@@QAE?AV?$_Tree_iterator@V?$_Tree_val@V?$_Tmap_traits@IVFunctor@OpenHome@@U?$less@I@std@@V?$allocator@U?$pair@$$CBIVFunctor@OpenHome@@@std@@@4@$0A@@std@@@std@@@2@XZ 004248e0 f i libohNetCore:NetworkAdapterList.obj
 0001:00023930       ?erase@?$_Tree@V?$_Tmap_traits@IVFunctor@OpenHome@@U?$less@I@std@@V?$allocator@U?$pair@$$CBIVFunctor@OpenHome@@@std@@@4@$0A@@std@@@std@@QAE?AV?$_Tree_iterator@V?$_Tree_val@V?$_Tmap_traits@IVFunctor@OpenHome@@U?$less@I@std@@V?$allocator@U?$pair@$$CBIVFunctor@OpenHome@@@std@@@4@$0A@@std@@@std@@@2@V?$_Tree_const_iterator@V?$_Tree_val@V?$_Tmap_traits@IVFunctor@OpenHome@@U?$less@I@std@@V?$allocator@U?$pair@$$CBIVFunctor@OpenHome@@@std@@@4@$0A@@std@@@std@@@2@@Z 00424930 f i libohNetCore:NetworkAdapterList.obj
 0001:00024040       ?find@?$_Tree@V?$_Tmap_traits@IVFunctor@OpenHome@@U?$less@I@std@@V?$allocator@U?$pair@$$CBIVFunctor@OpenHome@@@std@@@4@$0A@@std@@@std@@QAE?AV?$_Tree_iterator@V?$_Tree_val@V?$_Tmap_traits@IVFunctor@OpenHome@@U?$less@I@std@@V?$allocator@U?$pair@$$CBIVFunctor@OpenHome@@@std@@@4@$0A@@std@@@std@@@2@ABI@Z 00425040 f i libohNetCore:NetworkAdapterList.obj
 0001:00024220       ??0?$vector@PAVNetworkAdapter@OpenHome@@V?$allocator@PAVNetworkAdapter@OpenHome@@@std@@@std@@QAE@XZ 00425220 f i libohNetCore:NetworkAdapterList.obj
 0001:00024260       ??A?$vector@PAVNetworkAdapter@OpenHome@@V?$allocator@PAVNetworkAdapter@OpenHome@@@std@@@std@@QBEABQAVNetworkAdapter@OpenHome@@I@Z 00425260 f i libohNetCore:NetworkAdapterList.obj
 0001:00024300       ?push_back@?$vector@PAVNetworkAdapter@OpenHome@@V?$allocator@PAVNetworkAdapter@OpenHome@@@std@@@std@@QAEXABQAVNetworkAdapter@OpenHome@@@Z 00425300 f i libohNetCore:NetworkAdapterList.obj
 0001:00024410       ??C?$_Tree_iterator@V?$_Tree_val@V?$_Tmap_traits@IVFunctor@OpenHome@@U?$less@I@std@@V?$allocator@U?$pair@$$CBIVFunctor@OpenHome@@@std@@@4@$0A@@std@@@std@@@std@@QBEPAU?$pair@$$CBIVFunctor@OpenHome@@@1@XZ 00425410 f i libohNetCore:NetworkAdapterList.obj
 0001:00024440       ??E?$_Tree_iterator@V?$_Tree_val@V?$_Tmap_traits@IVFunctor@OpenHome@@U?$less@I@std@@V?$allocator@U?$pair@$$CBIVFunctor@OpenHome@@@std@@@4@$0A@@std@@@std@@@std@@QAE?AV01@H@Z 00425440 f i libohNetCore:NetworkAdapterList.obj
 0001:00024510       ??9?$_Tree_const_iterator@V?$_Tree_val@V?$_Tmap_traits@IVFunctor@OpenHome@@U?$less@I@std@@V?$allocator@U?$pair@$$CBIVFunctor@OpenHome@@@std@@@4@$0A@@std@@@std@@@std@@QBE_NABV01@@Z 00425510 f i libohNetCore:NetworkAdapterList.obj
 0001:00024550       ??0?$_Tree_iterator@V?$_Tree_val@V?$_Tmap_traits@IVFunctor@OpenHome@@U?$less@I@std@@V?$allocator@U?$pair@$$CBIVFunctor@OpenHome@@@std@@@4@$0A@@std@@@std@@@std@@QAE@ABV01@@Z 00425550 f i libohNetCore:NetworkAdapterList.obj
 0001:00024580       ??0?$_Tree@V?$_Tmap_traits@IVFunctor@OpenHome@@U?$less@I@std@@V?$allocator@U?$pair@$$CBIVFunctor@OpenHome@@@std@@@4@$0A@@std@@@std@@QAE@ABU?$less@I@1@ABV?$allocator@U?$pair@$$CBIVFunctor@OpenHome@@@std@@@1@@Z 00425580 f i libohNetCore:NetworkAdapterList.obj
 0001:000245d0       ?lower_bound@?$_Tree@V?$_Tmap_traits@IVFunctor@OpenHome@@U?$less@I@std@@V?$allocator@U?$pair@$$CBIVFunctor@OpenHome@@@std@@@4@$0A@@std@@@std@@QAE?AV?$_Tree_iterator@V?$_Tree_val@V?$_Tmap_traits@IVFunctor@OpenHome@@U?$less@I@std@@V?$allocator@U?$pair@$$CBIVFunctor@OpenHome@@@std@@@4@$0A@@std@@@std@@@2@ABI@Z 004255d0 f i libohNetCore:NetworkAdapterList.obj
 0001:00024630       ?_Lmost@?$_Tree@V?$_Tmap_traits@IVFunctor@OpenHome@@U?$less@I@std@@V?$allocator@U?$pair@$$CBIVFunctor@OpenHome@@@std@@@4@$0A@@std@@@std@@IBEAAPAU_Node@?$_Tree_nod@V?$_Tmap_traits@IVFunctor@OpenHome@@U?$less@I@std@@V?$allocator@U?$pair@$$CBIVFunctor@OpenHome@@@std@@@4@$0A@@std@@@2@XZ 00425630 f i libohNetCore:NetworkAdapterList.obj
 0001:00024660       ?_Lrotate@?$_Tree@V?$_Tmap_traits@IVFunctor@OpenHome@@U?$less@I@std@@V?$allocator@U?$pair@$$CBIVFunctor@OpenHome@@@std@@@4@$0A@@std@@@std@@IAEXPAU_Node@?$_Tree_nod@V?$_Tmap_traits@IVFunctor@OpenHome@@U?$less@I@std@@V?$allocator@U?$pair@$$CBIVFunctor@OpenHome@@@std@@@4@$0A@@std@@@2@@Z 00425660 f i libohNetCore:NetworkAdapterList.obj
 0001:00024780       ?_Rmost@?$_Tree@V?$_Tmap_traits@IVFunctor@OpenHome@@U?$less@I@std@@V?$allocator@U?$pair@$$CBIVFunctor@OpenHome@@@std@@@4@$0A@@std@@@std@@IBEAAPAU_Node@?$_Tree_nod@V?$_Tmap_traits@IVFunctor@OpenHome@@U?$less@I@std@@V?$allocator@U?$pair@$$CBIVFunctor@OpenHome@@@std@@@4@$0A@@std@@@2@XZ 00425780 f i libohNetCore:NetworkAdapterList.obj
 0001:000247b0       ?_Root@?$_Tree@V?$_Tmap_traits@IVFunctor@OpenHome@@U?$less@I@std@@V?$allocator@U?$pair@$$CBIVFunctor@OpenHome@@@std@@@4@$0A@@std@@@std@@IBEAAPAU_Node@?$_Tree_nod@V?$_Tmap_traits@IVFunctor@OpenHome@@U?$less@I@std@@V?$allocator@U?$pair@$$CBIVFunctor@OpenHome@@@std@@@4@$0A@@std@@@2@XZ 004257b0 f i libohNetCore:NetworkAdapterList.obj
 0001:000247e0       ?_Rrotate@?$_Tree@V?$_Tmap_traits@IVFunctor@OpenHome@@U?$less@I@std@@V?$allocator@U?$pair@$$CBIVFunctor@OpenHome@@@std@@@4@$0A@@std@@@std@@IAEXPAU_Node@?$_Tree_nod@V?$_Tmap_traits@IVFunctor@OpenHome@@U?$less@I@std@@V?$allocator@U?$pair@$$CBIVFunctor@OpenHome@@@std@@@4@$0A@@std@@@2@@Z 004257e0 f i libohNetCore:NetworkAdapterList.obj
 0001:00024900       ?_Orphan_ptr@?$_Tree@V?$_Tmap_traits@IVFunctor@OpenHome@@U?$less@I@std@@V?$allocator@U?$pair@$$CBIVFunctor@OpenHome@@@std@@@4@$0A@@std@@@std@@IBEXAAV12@PAU_Node@?$_Tree_nod@V?$_Tmap_traits@IVFunctor@OpenHome@@U?$less@I@std@@V?$allocator@U?$pair@$$CBIVFunctor@OpenHome@@@std@@@4@$0A@@std@@@2@@Z 00425900 f i libohNetCore:NetworkAdapterList.obj
 0001:00024a10       ?_Tidy@?$_Tree@V?$_Tmap_traits@IVFunctor@OpenHome@@U?$less@I@std@@V?$allocator@U?$pair@$$CBIVFunctor@OpenHome@@@std@@@4@$0A@@std@@@std@@IAEXXZ 00425a10 f i libohNetCore:NetworkAdapterList.obj
 0001:00024b10       ??1?$_Tree_val@V?$_Tmap_traits@IVFunctor@OpenHome@@U?$less@I@std@@V?$allocator@U?$pair@$$CBIVFunctor@OpenHome@@@std@@@4@$0A@@std@@@std@@QAE@XZ 00425b10 f i libohNetCore:NetworkAdapterList.obj
 0001:00024b80       ?_Color@?$_Tree_val@V?$_Tmap_traits@IVFunctor@OpenHome@@U?$less@I@std@@V?$allocator@U?$pair@$$CBIVFunctor@OpenHome@@@std@@@4@$0A@@std@@@std@@SGAADPAU_Node@?$_Tree_nod@V?$_Tmap_traits@IVFunctor@OpenHome@@U?$less@I@std@@V?$allocator@U?$pair@$$CBIVFunctor@OpenHome@@@std@@@4@$0A@@std@@@2@@Z 00425b80 f i libohNetCore:NetworkAdapterList.obj
 0001:00024b90       ?_Isnil@?$_Tree_val@V?$_Tmap_traits@IVFunctor@OpenHome@@U?$less@I@std@@V?$allocator@U?$pair@$$CBIVFunctor@OpenHome@@@std@@@4@$0A@@std@@@std@@SGAADPAU_Node@?$_Tree_nod@V?$_Tmap_traits@IVFunctor@OpenHome@@U?$less@I@std@@V?$allocator@U?$pair@$$CBIVFunctor@OpenHome@@@std@@@4@$0A@@std@@@2@@Z 00425b90 f i libohNetCore:NetworkAdapterList.obj
 0001:00024ba0       ?_Key@?$_Tree_val@V?$_Tmap_traits@IVFunctor@OpenHome@@U?$less@I@std@@V?$allocator@U?$pair@$$CBIVFunctor@OpenHome@@@std@@@4@$0A@@std@@@std@@SGAAIPAU_Node@?$_Tree_nod@V?$_Tmap_traits@IVFunctor@OpenHome@@U?$less@I@std@@V?$allocator@U?$pair@$$CBIVFunctor@OpenHome@@@std@@@4@$0A@@std@@@2@@Z 00425ba0 f i libohNetCore:NetworkAdapterList.obj
 0001:00024bc0       ?_Left@?$_Tree_val@V?$_Tmap_traits@IVFunctor@OpenHome@@U?$less@I@std@@V?$allocator@U?$pair@$$CBIVFunctor@OpenHome@@@std@@@4@$0A@@std@@@std@@SGAAPAU_Node@?$_Tree_nod@V?$_Tmap_traits@IVFunctor@OpenHome@@U?$less@I@std@@V?$allocator@U?$pair@$$CBIVFunctor@OpenHome@@@std@@@4@$0A@@std@@@2@PAU342@@Z 00425bc0 f i libohNetCore:NetworkAdapterList.obj
 0001:00024bd0       ?_Parent@?$_Tree_val@V?$_Tmap_traits@IVFunctor@OpenHome@@U?$less@I@std@@V?$allocator@U?$pair@$$CBIVFunctor@OpenHome@@@std@@@4@$0A@@std@@@std@@SGAAPAU_Node@?$_Tree_nod@V?$_Tmap_traits@IVFunctor@OpenHome@@U?$less@I@std@@V?$allocator@U?$pair@$$CBIVFunctor@OpenHome@@@std@@@4@$0A@@std@@@2@PAU342@@Z 00425bd0 f i libohNetCore:NetworkAdapterList.obj
 0001:00024be0       ?_Right@?$_Tree_val@V?$_Tmap_traits@IVFunctor@OpenHome@@U?$less@I@std@@V?$allocator@U?$pair@$$CBIVFunctor@OpenHome@@@std@@@4@$0A@@std@@@std@@SGAAPAU_Node@?$_Tree_nod@V?$_Tmap_traits@IVFunctor@OpenHome@@U?$less@I@std@@V?$allocator@U?$pair@$$CBIVFunctor@OpenHome@@@std@@@4@$0A@@std@@@2@PAU342@@Z 00425be0 f i libohNetCore:NetworkAdapterList.obj
 0001:00024bf0       ?_Myval@?$_Tree_val@V?$_Tmap_traits@IVFunctor@OpenHome@@U?$less@I@std@@V?$allocator@U?$pair@$$CBIVFunctor@OpenHome@@@std@@@4@$0A@@std@@@std@@SGAAU?$pair@$$CBIVFunctor@OpenHome@@@2@PAU_Node@?$_Tree_nod@V?$_Tmap_traits@IVFunctor@OpenHome@@U?$less@I@std@@V?$allocator@U?$pair@$$CBIVFunctor@OpenHome@@@std@@@4@$0A@@std@@@2@@Z 00425bf0 f i libohNetCore:NetworkAdapterList.obj
 0001:00024c00       ?_Max@?$_Tree_val@V?$_Tmap_traits@IVFunctor@OpenHome@@U?$less@I@std@@V?$allocator@U?$pair@$$CBIVFunctor@OpenHome@@@std@@@4@$0A@@std@@@std@@SGPAU_Node@?$_Tree_nod@V?$_Tmap_traits@IVFunctor@OpenHome@@U?$less@I@std@@V?$allocator@U?$pair@$$CBIVFunctor@OpenHome@@@std@@@4@$0A@@std@@@2@PAU342@@Z 00425c00 f i libohNetCore:NetworkAdapterList.obj
 0001:00024c40       ?_Min@?$_Tree_val@V?$_Tmap_traits@IVFunctor@OpenHome@@U?$less@I@std@@V?$allocator@U?$pair@$$CBIVFunctor@OpenHome@@@std@@@4@$0A@@std@@@std@@SGPAU_Node@?$_Tree_nod@V?$_Tmap_traits@IVFunctor@OpenHome@@U?$less@I@std@@V?$allocator@U?$pair@$$CBIVFunctor@OpenHome@@@std@@@4@$0A@@std@@@2@PAU342@@Z 00425c40 f i libohNetCore:NetworkAdapterList.obj
 0001:00024c80       ??0?$allocator@U?$pair@$$CBIVFunctor@OpenHome@@@std@@@std@@QAE@XZ 00425c80 f i libohNetCore:NetworkAdapterList.obj
 0001:00024ca0       ?deallocate@?$allocator@U_Node@?$_Tree_nod@V?$_Tmap_traits@IVFunctor@OpenHome@@U?$less@I@std@@V?$allocator@U?$pair@$$CBIVFunctor@OpenHome@@@std@@@4@$0A@@std@@@std@@@std@@QAEXPAU_Node@?$_Tree_nod@V?$_Tmap_traits@IVFunctor@OpenHome@@U?$less@I@std@@V?$allocator@U?$pair@$$CBIVFunctor@OpenHome@@@std@@@4@$0A@@std@@@2@I@Z 00425ca0 f i libohNetCore:NetworkAdapterList.obj
 0001:00024cd0       ?_Inside@?$vector@PAVNetworkAdapter@OpenHome@@V?$allocator@PAVNetworkAdapter@OpenHome@@@std@@@std@@IBE_NPBQAVNetworkAdapter@OpenHome@@@Z 00425cd0 f i libohNetCore:NetworkAdapterList.obj
 0001:00024d20       ?_Reserve@?$vector@PAVNetworkAdapter@OpenHome@@V?$allocator@PAVNetworkAdapter@OpenHome@@@std@@@std@@IAEXI@Z 00425d20 f i libohNetCore:NetworkAdapterList.obj
 0001:00024da0       ?_Orphan_range@?$vector@PAVNetworkAdapter@OpenHome@@V?$allocator@PAVNetworkAdapter@OpenHome@@@std@@@std@@IBEXPAPAVNetworkAdapter@OpenHome@@0@Z 00425da0 f i libohNetCore:NetworkAdapterList.obj
 0001:00024eb0       ??0?$_Vector_val@PAVNetworkAdapter@OpenHome@@V?$allocator@PAVNetworkAdapter@OpenHome@@@std@@@std@@QAE@V?$allocator@PAVNetworkAdapter@OpenHome@@@1@@Z 00425eb0 f i libohNetCore:NetworkAdapterList.obj
 0001:00024fd0       ??0?$allocator@PAVNetworkAdapter@OpenHome@@@std@@QAE@XZ 00425fd0 f i libohNetCore:NetworkAdapterList.obj
 0001:00024ff0       ??0?$_Tree_iterator@V?$_Tree_val@V?$_Tmap_traits@IVFunctor@OpenHome@@U?$less@I@std@@V?$allocator@U?$pair@$$CBIVFunctor@OpenHome@@@std@@@4@$0A@@std@@@std@@@std@@QAE@PAU_Node@?$_Tree_nod@V?$_Tmap_traits@IVFunctor@OpenHome@@U?$less@I@std@@V?$allocator@U?$pair@$$CBIVFunctor@OpenHome@@@std@@@4@$0A@@std@@@1@PBV?$_Tree_val@V?$_Tmap_traits@IVFunctor@OpenHome@@U?$less@I@std@@V?$allocator@U?$pair@$$CBIVFunctor@OpenHome@@@std@@@4@$0A@@std@@@1@@Z 00425ff0 f i libohNetCore:NetworkAdapterList.obj
 0001:00025030       ??D?$_Tree_iterator@V?$_Tree_val@V?$_Tmap_traits@IVFunctor@OpenHome@@U?$less@I@std@@V?$allocator@U?$pair@$$CBIVFunctor@OpenHome@@@std@@@4@$0A@@std@@@std@@@std@@QBEAAU?$pair@$$CBIVFunctor@OpenHome@@@1@XZ 00426030 f i libohNetCore:NetworkAdapterList.obj
 0001:00025060       ??E?$_Tree_iterator@V?$_Tree_val@V?$_Tmap_traits@IVFunctor@OpenHome@@U?$less@I@std@@V?$allocator@U?$pair@$$CBIVFunctor@OpenHome@@@std@@@4@$0A@@std@@@std@@@std@@QAEAAV01@XZ 00426060 f i libohNetCore:NetworkAdapterList.obj
 0001:00025090       ??E?$_Tree_const_iterator@V?$_Tree_val@V?$_Tmap_traits@IVFunctor@OpenHome@@U?$less@I@std@@V?$allocator@U?$pair@$$CBIVFunctor@OpenHome@@@std@@@4@$0A@@std@@@std@@@std@@QAEAAV01@XZ 00426090 f i libohNetCore:NetworkAdapterList.obj
 0001:00025150       ??8?$_Tree_const_iterator@V?$_Tree_val@V?$_Tmap_traits@IVFunctor@OpenHome@@U?$less@I@std@@V?$allocator@U?$pair@$$CBIVFunctor@OpenHome@@@std@@@4@$0A@@std@@@std@@@std@@QBE_NABV01@@Z 00426150 f i libohNetCore:NetworkAdapterList.obj
 0001:00025210       ?_Mynode@?$_Tree_unchecked_const_iterator@V?$_Tree_val@V?$_Tmap_traits@IVFunctor@OpenHome@@U?$less@I@std@@V?$allocator@U?$pair@$$CBIVFunctor@OpenHome@@@std@@@4@$0A@@std@@@std@@U_Iterator_base12@2@@std@@QBEPAU_Node@?$_Tree_nod@V?$_Tmap_traits@IVFunctor@OpenHome@@U?$less@I@std@@V?$allocator@U?$pair@$$CBIVFunctor@OpenHome@@@std@@@4@$0A@@std@@@2@XZ 00426210 f i libohNetCore:NetworkAdapterList.obj
 0001:00025230       ?erase@?$_Tree@V?$_Tmap_traits@IVFunctor@OpenHome@@U?$less@I@std@@V?$allocator@U?$pair@$$CBIVFunctor@OpenHome@@@std@@@4@$0A@@std@@@std@@QAE?AV?$_Tree_iterator@V?$_Tree_val@V?$_Tmap_traits@IVFunctor@OpenHome@@U?$less@I@std@@V?$allocator@U?$pair@$$CBIVFunctor@OpenHome@@@std@@@4@$0A@@std@@@std@@@2@V?$_Tree_const_iterator@V?$_Tree_val@V?$_Tmap_traits@IVFunctor@OpenHome@@U?$less@I@std@@V?$allocator@U?$pair@$$CBIVFunctor@OpenHome@@@std@@@4@$0A@@std@@@std@@@2@0@Z 00426230 f i libohNetCore:NetworkAdapterList.obj
 0001:00025430       ?_Lbound@?$_Tree@V?$_Tmap_traits@IVFunctor@OpenHome@@U?$less@I@std@@V?$allocator@U?$pair@$$CBIVFunctor@OpenHome@@@std@@@4@$0A@@std@@@std@@IAEPAU_Node@?$_Tree_nod@V?$_Tmap_traits@IVFunctor@OpenHome@@U?$less@I@std@@V?$allocator@U?$pair@$$CBIVFunctor@OpenHome@@@std@@@4@$0A@@std@@@2@ABI@Z 00426430 f i libohNetCore:NetworkAdapterList.obj
 0001:000254e0       ??0?$_Tree_val@V?$_Tmap_traits@IVFunctor@OpenHome@@U?$less@I@std@@V?$allocator@U?$pair@$$CBIVFunctor@OpenHome@@@std@@@4@$0A@@std@@@std@@QAE@ABU?$less@I@1@V?$allocator@U?$pair@$$CBIVFunctor@OpenHome@@@std@@@1@@Z 004264e0 f i libohNetCore:NetworkAdapterList.obj
 0001:000255e0       ??1?$_Tree_nod@V?$_Tmap_traits@IVFunctor@OpenHome@@U?$less@I@std@@V?$allocator@U?$pair@$$CBIVFunctor@OpenHome@@@std@@@4@$0A@@std@@@std@@QAE@XZ 004265e0 f i libohNetCore:NetworkAdapterList.obj
 0001:000256c0       ??0?$allocator@U?$pair@$$CBIVFunctor@OpenHome@@@std@@@std@@QAE@ABV01@@Z 004266c0 f i libohNetCore:NetworkAdapterList.obj
 0001:000256e0       ?reserve@?$vector@PAVNetworkAdapter@OpenHome@@V?$allocator@PAVNetworkAdapter@OpenHome@@@std@@@std@@QAEXI@Z 004266e0 f i libohNetCore:NetworkAdapterList.obj
 0001:00025850       ?capacity@?$vector@PAVNetworkAdapter@OpenHome@@V?$allocator@PAVNetworkAdapter@OpenHome@@@std@@@std@@QBEIXZ 00426850 f i libohNetCore:NetworkAdapterList.obj
 0001:00025880       ?max_size@?$vector@PAVNetworkAdapter@OpenHome@@V?$allocator@PAVNetworkAdapter@OpenHome@@@std@@@std@@QBEIXZ 00426880 f i libohNetCore:NetworkAdapterList.obj
 0001:000258b0       ?_Grow_to@?$vector@PAVNetworkAdapter@OpenHome@@V?$allocator@PAVNetworkAdapter@OpenHome@@@std@@@std@@IBEII@Z 004268b0 f i libohNetCore:NetworkAdapterList.obj
 0001:00025930       ?_Xlen@?$vector@PAVNetworkAdapter@OpenHome@@V?$allocator@PAVNetworkAdapter@OpenHome@@@std@@@std@@IBEXXZ 00426930 f i libohNetCore:NetworkAdapterList.obj
 0001:00025960       ??0?$allocator@PAVNetworkAdapter@OpenHome@@@std@@QAE@ABV01@@Z 00426960 f i libohNetCore:NetworkAdapterList.obj
 0001:00025980       ??0?$_Tree_const_iterator@V?$_Tree_val@V?$_Tmap_traits@IVFunctor@OpenHome@@U?$less@I@std@@V?$allocator@U?$pair@$$CBIVFunctor@OpenHome@@@std@@@4@$0A@@std@@@std@@@std@@QAE@PAU_Node@?$_Tree_nod@V?$_Tmap_traits@IVFunctor@OpenHome@@U?$less@I@std@@V?$allocator@U?$pair@$$CBIVFunctor@OpenHome@@@std@@@4@$0A@@std@@@1@PBV?$_Tree_val@V?$_Tmap_traits@IVFunctor@OpenHome@@U?$less@I@std@@V?$allocator@U?$pair@$$CBIVFunctor@OpenHome@@@std@@@4@$0A@@std@@@1@@Z 00426980 f i libohNetCore:NetworkAdapterList.obj
 0001:000259c0       ??D?$_Tree_const_iterator@V?$_Tree_val@V?$_Tmap_traits@IVFunctor@OpenHome@@U?$less@I@std@@V?$allocator@U?$pair@$$CBIVFunctor@OpenHome@@@std@@@4@$0A@@std@@@std@@@std@@QBEABU?$pair@$$CBIVFunctor@OpenHome@@@1@XZ 004269c0 f i libohNetCore:NetworkAdapterList.obj
 0001:00025a80       ??E?$_Tree_unchecked_const_iterator@V?$_Tree_val@V?$_Tmap_traits@IVFunctor@OpenHome@@U?$less@I@std@@V?$allocator@U?$pair@$$CBIVFunctor@OpenHome@@@std@@@4@$0A@@std@@@std@@U_Iterator_base12@2@@std@@QAEAAV01@XZ 00426a80 f i libohNetCore:NetworkAdapterList.obj
 0001:00025b40       ??1?$_Tmap_traits@IVFunctor@OpenHome@@U?$less@I@std@@V?$allocator@U?$pair@$$CBIVFunctor@OpenHome@@@std@@@4@$0A@@std@@QAE@XZ 00426b40 f i libohNetCore:NetworkAdapterList.obj
 0001:00025b70       ?clear@?$_Tree@V?$_Tmap_traits@IVFunctor@OpenHome@@U?$less@I@std@@V?$allocator@U?$pair@$$CBIVFunctor@OpenHome@@@std@@@4@$0A@@std@@@std@@QAEXXZ 00426b70 f i libohNetCore:NetworkAdapterList.obj
 0001:00025bf0       ??0?$_Tree_nod@V?$_Tmap_traits@IVFunctor@OpenHome@@U?$less@I@std@@V?$allocator@U?$pair@$$CBIVFunctor@OpenHome@@@std@@@4@$0A@@std@@@std@@QAE@ABU?$less@I@1@V?$allocator@U?$pair@$$CBIVFunctor@OpenHome@@@std@@@1@@Z 00426bf0 f i libohNetCore:NetworkAdapterList.obj
 0001:00025d00       ?allocate@?$allocator@U_Node@?$_Tree_nod@V?$_Tmap_traits@IVFunctor@OpenHome@@U?$less@I@std@@V?$allocator@U?$pair@$$CBIVFunctor@OpenHome@@@std@@@4@$0A@@std@@@std@@@std@@QAEPAU_Node@?$_Tree_nod@V?$_Tmap_traits@IVFunctor@OpenHome@@U?$less@I@std@@V?$allocator@U?$pair@$$CBIVFunctor@OpenHome@@@std@@@4@$0A@@std@@@2@I@Z 00426d00 f i libohNetCore:NetworkAdapterList.obj
 0001:00025d30       ?allocate@?$allocator@PAVNetworkAdapter@OpenHome@@@std@@QAEPAPAVNetworkAdapter@OpenHome@@I@Z 00426d30 f i libohNetCore:NetworkAdapterList.obj
 0001:00025d60       ?max_size@?$allocator@PAVNetworkAdapter@OpenHome@@@std@@QBEIXZ 00426d60 f i libohNetCore:NetworkAdapterList.obj
 0001:00025db0       ??E?$_Tree_const_iterator@V?$_Tree_val@V?$_Tmap_traits@IVFunctor@OpenHome@@U?$less@I@std@@V?$allocator@U?$pair@$$CBIVFunctor@OpenHome@@@std@@@4@$0A@@std@@@std@@@std@@QAE?AV01@H@Z 00426db0 f i libohNetCore:NetworkAdapterList.obj
 0001:00025e80       ??0?$_Tree_unchecked_const_iterator@V?$_Tree_val@V?$_Tmap_traits@IVFunctor@OpenHome@@U?$less@I@std@@V?$allocator@U?$pair@$$CBIVFunctor@OpenHome@@@std@@@4@$0A@@std@@@std@@U_Iterator_base12@2@@std@@QAE@PAU_Node@?$_Tree_nod@V?$_Tmap_traits@IVFunctor@OpenHome@@U?$less@I@std@@V?$allocator@U?$pair@$$CBIVFunctor@OpenHome@@@std@@@4@$0A@@std@@@1@PBV?$_Tree_val@V?$_Tmap_traits@IVFunctor@OpenHome@@U?$less@I@std@@V?$allocator@U?$pair@$$CBIVFunctor@OpenHome@@@std@@@4@$0A@@std@@@1@@Z 00426e80 f i libohNetCore:NetworkAdapterList.obj
 0001:00025f00       ??0?$_Iterator012@Ubidirectional_iterator_tag@std@@U?$pair@$$CBIVFunctor@OpenHome@@@2@HPBU32@ABU32@U_Iterator_base12@2@@std@@QAE@XZ 00426f00 f i libohNetCore:NetworkAdapterList.obj
 0001:00025f30       ?_Erase@?$_Tree@V?$_Tmap_traits@IVFunctor@OpenHome@@U?$less@I@std@@V?$allocator@U?$pair@$$CBIVFunctor@OpenHome@@@std@@@4@$0A@@std@@@std@@IAEXPAU_Node@?$_Tree_nod@V?$_Tmap_traits@IVFunctor@OpenHome@@U?$less@I@std@@V?$allocator@U?$pair@$$CBIVFunctor@OpenHome@@@std@@@4@$0A@@std@@@2@@Z 00426f30 f i libohNetCore:NetworkAdapterList.obj
 0001:00025fd0       ??0?$_Tmap_traits@IVFunctor@OpenHome@@U?$less@I@std@@V?$allocator@U?$pair@$$CBIVFunctor@OpenHome@@@std@@@4@$0A@@std@@QAE@U?$less@I@1@@Z 00426fd0 f i libohNetCore:NetworkAdapterList.obj
 0001:00026000       ??$?0AAIAAVFunctor@OpenHome@@@?$pair@IVFunctor@OpenHome@@@std@@QAE@AAIAAVFunctor@OpenHome@@@Z 00427000 f i libohNetCore:NetworkAdapterList.obj
 0001:00026040       ??$insert@U?$pair@IVFunctor@OpenHome@@@std@@@?$_Tree@V?$_Tmap_traits@IVFunctor@OpenHome@@U?$less@I@std@@V?$allocator@U?$pair@$$CBIVFunctor@OpenHome@@@std@@@4@$0A@@std@@@std@@QAE?AU?$pair@V?$_Tree_iterator@V?$_Tree_val@V?$_Tmap_traits@IVFunctor@OpenHome@@U?$less@I@std@@V?$allocator@U?$pair@$$CBIVFunctor@OpenHome@@@std@@@4@$0A@@std@@@std@@@std@@_N@1@$$QAU?$pair@IVFunctor@OpenHome@@@1@@Z 00427040 f i libohNetCore:NetworkAdapterList.obj
 0001:000260a0       ??$addressof@U?$pair@$$CBIVFunctor@OpenHome@@@std@@@std@@YGPAU?$pair@$$CBIVFunctor@OpenHome@@@0@AAU10@@Z 004270a0 f i libohNetCore:NetworkAdapterList.obj
 0001:000260b0       ??$_Dest_val@V?$allocator@U?$pair@$$CBIVFunctor@OpenHome@@@std@@@std@@U?$pair@$$CBIVFunctor@OpenHome@@@2@@std@@YGXAAV?$allocator@U?$pair@$$CBIVFunctor@OpenHome@@@std@@@0@PAU?$pair@$$CBIVFunctor@OpenHome@@@0@@Z 004270b0 f i libohNetCore:NetworkAdapterList.obj
 0001:000260d0       ??$_Debug_lt_pred@U?$less@I@std@@II@std@@YG_NU?$less@I@0@ABIAAIPB_WI@Z 004270d0 f i libohNetCore:NetworkAdapterList.obj
 0001:00026130       ??$addressof@QAVNetworkAdapter@OpenHome@@@std@@YGPBQAVNetworkAdapter@OpenHome@@ABQAV12@@Z 00427130 f i libohNetCore:NetworkAdapterList.obj
 0001:00026140       ??$_Cons_val@V?$allocator@PAVNetworkAdapter@OpenHome@@@std@@PAVNetworkAdapter@OpenHome@@AAPAV34@@std@@YGXAAV?$allocator@PAVNetworkAdapter@OpenHome@@@0@PAPAVNetworkAdapter@OpenHome@@AAPAV23@@Z 00427140 f i libohNetCore:NetworkAdapterList.obj
 0001:00026170       ??$_Cons_val@V?$allocator@PAVNetworkAdapter@OpenHome@@@std@@PAVNetworkAdapter@OpenHome@@ABQAV34@@std@@YGXAAV?$allocator@PAVNetworkAdapter@OpenHome@@@0@PAPAVNetworkAdapter@OpenHome@@ABQAV23@@Z 00427170 f i libohNetCore:NetworkAdapterList.obj
 0001:000261a0       ??$_Kfn@$$CBIVFunctor@OpenHome@@@?$_Tmap_traits@IVFunctor@OpenHome@@U?$less@I@std@@V?$allocator@U?$pair@$$CBIVFunctor@OpenHome@@@std@@@4@$0A@@std@@SGABIABU?$pair@$$CBIVFunctor@OpenHome@@@1@@Z 004271a0 f i libohNetCore:NetworkAdapterList.obj
 0001:000261b0       ??$_Debug_lt_pred@U?$less@I@std@@II@std@@YG_NU?$less@I@0@AAIABIPB_WI@Z 004271b0 f i libohNetCore:NetworkAdapterList.obj
 0001:00026210       ??$?0U_Node@?$_Tree_nod@V?$_Tmap_traits@IVFunctor@OpenHome@@U?$less@I@std@@V?$allocator@U?$pair@$$CBIVFunctor@OpenHome@@@std@@@4@$0A@@std@@@std@@@?$allocator@U_Container_proxy@std@@@std@@QAE@ABV?$allocator@U_Node@?$_Tree_nod@V?$_Tmap_traits@IVFunctor@OpenHome@@U?$less@I@std@@V?$allocator@U?$pair@$$CBIVFunctor@OpenHome@@@std@@@4@$0A@@std@@@std@@@1@@Z 00427210 f i libohNetCore:NetworkAdapterList.obj
 0001:00026230       ??$_Umove@PAPAVNetworkAdapter@OpenHome@@@?$vector@PAVNetworkAdapter@OpenHome@@V?$allocator@PAVNetworkAdapter@OpenHome@@@std@@@std@@IAEPAPAVNetworkAdapter@OpenHome@@PAPAV23@00@Z 00427230 f i libohNetCore:NetworkAdapterList.obj
 0001:00026270       ??$?0U?$pair@$$CBIVFunctor@OpenHome@@@std@@@?$allocator@U_Node@?$_Tree_nod@V?$_Tmap_traits@IVFunctor@OpenHome@@U?$less@I@std@@V?$allocator@U?$pair@$$CBIVFunctor@OpenHome@@@std@@@4@$0A@@std@@@std@@@std@@QAE@ABV?$allocator@U?$pair@$$CBIVFunctor@OpenHome@@@std@@@1@@Z 00427270 f i libohNetCore:NetworkAdapterList.obj
 0001:00026290       ??$_Allocate@U_Node@?$_Tree_nod@V?$_Tmap_traits@IVFunctor@OpenHome@@U?$less@I@std@@V?$allocator@U?$pair@$$CBIVFunctor@OpenHome@@@std@@@4@$0A@@std@@@std@@@std@@YGPAU_Node@?$_Tree_nod@V?$_Tmap_traits@IVFunctor@OpenHome@@U?$less@I@std@@V?$allocator@U?$pair@$$CBIVFunctor@OpenHome@@@std@@@4@$0A@@std@@@0@IPAU120@@Z 00427290 f i libohNetCore:NetworkAdapterList.obj
 0001:00026310       ??$_Allocate@PAVNetworkAdapter@OpenHome@@@std@@YGPAPAVNetworkAdapter@OpenHome@@IPAPAV12@@Z 00427310 f i libohNetCore:NetworkAdapterList.obj
 0001:00026390       ?_Linsert@?$_Tree@V?$_Tmap_traits@IVFunctor@OpenHome@@U?$less@I@std@@V?$allocator@U?$pair@$$CBIVFunctor@OpenHome@@@std@@@4@$0A@@std@@@std@@QAE?AU?$pair@V?$_Tree_iterator@V?$_Tree_val@V?$_Tmap_traits@IVFunctor@OpenHome@@U?$less@I@std@@V?$allocator@U?$pair@$$CBIVFunctor@OpenHome@@@std@@@4@$0A@@std@@@std@@@std@@_N@2@PAU_Node@?$_Tree_nod@V?$_Tmap_traits@IVFunctor@OpenHome@@U?$less@I@std@@V?$allocator@U?$pair@$$CBIVFunctor@OpenHome@@@std@@@4@$0A@@std@@@2@_N@Z 00427390 f i libohNetCore:NetworkAdapterList.obj
 0001:00026770       ?destroy@?$allocator@U?$pair@$$CBIVFunctor@OpenHome@@@std@@@std@@QAEXPAU?$pair@$$CBIVFunctor@OpenHome@@@2@@Z 00427770 f i libohNetCore:NetworkAdapterList.obj
 0001:000267a0       ??R?$less@I@std@@QBE_NABI0@Z 004277a0 f i libohNetCore:NetworkAdapterList.obj
 0001:000267d0       ?construct@?$allocator@PAVNetworkAdapter@OpenHome@@@std@@QAEXPAPAVNetworkAdapter@OpenHome@@ABQAV34@@Z 004277d0 f i libohNetCore:NetworkAdapterList.obj
 0001:00026800       ?_Insert@?$_Tree@V?$_Tmap_traits@IVFunctor@OpenHome@@U?$less@I@std@@V?$allocator@U?$pair@$$CBIVFunctor@OpenHome@@@std@@@4@$0A@@std@@@std@@IAE?AV?$_Tree_iterator@V?$_Tree_val@V?$_Tmap_traits@IVFunctor@OpenHome@@U?$less@I@std@@V?$allocator@U?$pair@$$CBIVFunctor@OpenHome@@@std@@@4@$0A@@std@@@std@@@2@_NPAU_Node@?$_Tree_nod@V?$_Tmap_traits@IVFunctor@OpenHome@@U?$less@I@std@@V?$allocator@U?$pair@$$CBIVFunctor@OpenHome@@@std@@@4@$0A@@std@@@2@1@Z 00427800 f i libohNetCore:NetworkAdapterList.obj
 0001:00026bc0       ??0?$pair@V?$_Tree_iterator@V?$_Tree_val@V?$_Tmap_traits@IVFunctor@OpenHome@@U?$less@I@std@@V?$allocator@U?$pair@$$CBIVFunctor@OpenHome@@@std@@@4@$0A@@std@@@std@@@std@@_N@std@@QAE@$$QAV?$_Tree_iterator@V?$_Tree_val@V?$_Tmap_traits@IVFunctor@OpenHome@@U?$less@I@std@@V?$allocator@U?$pair@$$CBIVFunctor@OpenHome@@@std@@@4@$0A@@std@@@std@@@1@$$QA_N@Z 00427bc0 f i libohNetCore:NetworkAdapterList.obj
 0001:00026c00       ??F?$_Tree_iterator@V?$_Tree_val@V?$_Tmap_traits@IVFunctor@OpenHome@@U?$less@I@std@@V?$allocator@U?$pair@$$CBIVFunctor@OpenHome@@@std@@@4@$0A@@std@@@std@@@std@@QAEAAV01@XZ 00427c00 f i libohNetCore:NetworkAdapterList.obj
 0001:00026c30       ?max_size@?$_Tree@V?$_Tmap_traits@IVFunctor@OpenHome@@U?$less@I@std@@V?$allocator@U?$pair@$$CBIVFunctor@OpenHome@@@std@@@4@$0A@@std@@@std@@QBEIXZ 00427c30 f i libohNetCore:NetworkAdapterList.obj
 0001:00026c60       ??0?$_Pair_base@V?$_Tree_iterator@V?$_Tree_val@V?$_Tmap_traits@IVFunctor@OpenHome@@U?$less@I@std@@V?$allocator@U?$pair@$$CBIVFunctor@OpenHome@@@std@@@4@$0A@@std@@@std@@@std@@_N@std@@QAE@$$QAV?$_Tree_iterator@V?$_Tree_val@V?$_Tmap_traits@IVFunctor@OpenHome@@U?$less@I@std@@V?$allocator@U?$pair@$$CBIVFunctor@OpenHome@@@std@@@4@$0A@@std@@@std@@@1@$$QA_N@Z 00427c60 f i libohNetCore:NetworkAdapterList.obj
 0001:00026ce0       ??F?$_Tree_const_iterator@V?$_Tree_val@V?$_Tmap_traits@IVFunctor@OpenHome@@U?$less@I@std@@V?$allocator@U?$pair@$$CBIVFunctor@OpenHome@@@std@@@4@$0A@@std@@@std@@@std@@QAEAAV01@XZ 00427ce0 f i libohNetCore:NetworkAdapterList.obj
 0001:00026e00       ?max_size@?$allocator@U?$pair@$$CBIVFunctor@OpenHome@@@std@@@std@@QBEIXZ 00427e00 f i libohNetCore:NetworkAdapterList.obj
 0001:00026e50       ??F?$_Tree_unchecked_const_iterator@V?$_Tree_val@V?$_Tmap_traits@IVFunctor@OpenHome@@U?$less@I@std@@V?$allocator@U?$pair@$$CBIVFunctor@OpenHome@@@std@@@4@$0A@@std@@@std@@U_Iterator_base12@2@@std@@QAEAAV01@XZ 00427e50 f i libohNetCore:NetworkAdapterList.obj
 0001:00026f40       ??$forward@AAI@std@@YGAAIAAI@Z 00427f40 f i libohNetCore:NetworkAdapterList.obj
 0001:00026f50       ??$forward@AAVFunctor@OpenHome@@@std@@YGAAVFunctor@OpenHome@@AAV12@@Z 00427f50 f i libohNetCore:NetworkAdapterList.obj
 0001:00026f60       ??$?0AAIAAVFunctor@OpenHome@@@?$_Pair_base@IVFunctor@OpenHome@@@std@@QAE@AAIAAVFunctor@OpenHome@@@Z 00427f60 f i libohNetCore:NetworkAdapterList.obj
 0001:00026fc0       ??$forward@U?$pair@IVFunctor@OpenHome@@@std@@@std@@YG$$QAU?$pair@IVFunctor@OpenHome@@@0@AAU10@@Z 00427fc0 f i libohNetCore:NetworkAdapterList.obj
 0001:00026fe0       ??$_Buynode@U?$pair@IVFunctor@OpenHome@@@std@@@?$_Tree_val@V?$_Tmap_traits@IVFunctor@OpenHome@@U?$less@I@std@@V?$allocator@U?$pair@$$CBIVFunctor@OpenHome@@@std@@@4@$0A@@std@@@std@@QAEPAU_Node@?$_Tree_nod@V?$_Tmap_traits@IVFunctor@OpenHome@@U?$less@I@std@@V?$allocator@U?$pair@$$CBIVFunctor@OpenHome@@@std@@@4@$0A@@std@@@1@$$QAU?$pair@IVFunctor@OpenHome@@@1@@Z 00427fe0 f i libohNetCore:NetworkAdapterList.obj
 0001:000270c0       ??$forward@AAPAVNetworkAdapter@OpenHome@@@std@@YGAAPAVNetworkAdapter@OpenHome@@AAPAV12@@Z 004280c0 f i libohNetCore:NetworkAdapterList.obj
 0001:000270d0       ??$construct@AAPAVNetworkAdapter@OpenHome@@@?$allocator@PAVNetworkAdapter@OpenHome@@@std@@QAEXPAPAVNetworkAdapter@OpenHome@@AAPAV23@@Z 004280d0 f i libohNetCore:NetworkAdapterList.obj
 0001:00027170       ??$forward@ABQAVNetworkAdapter@OpenHome@@@std@@YGABQAVNetworkAdapter@OpenHome@@ABQAV12@@Z 00428170 f i libohNetCore:NetworkAdapterList.obj
 0001:00027180       ??$_Uninitialized_move@PAPAVNetworkAdapter@OpenHome@@PAPAV12@V?$allocator@PAVNetworkAdapter@OpenHome@@@std@@@std@@YGPAPAVNetworkAdapter@OpenHome@@PAPAV12@00AAV?$allocator@PAVNetworkAdapter@OpenHome@@@0@@Z 00428180 f i libohNetCore:NetworkAdapterList.obj
 0001:000271d0       ??$?0AAV?$_Tree_iterator@V?$_Tree_val@V?$_Tmap_traits@IVFunctor@OpenHome@@U?$less@I@std@@V?$allocator@U?$pair@$$CBIVFunctor@OpenHome@@@std@@@4@$0A@@std@@@std@@@std@@_N@?$pair@V?$_Tree_iterator@V?$_Tree_val@V?$_Tmap_traits@IVFunctor@OpenHome@@U?$less@I@std@@V?$allocator@U?$pair@$$CBIVFunctor@OpenHome@@@std@@@4@$0A@@std@@@std@@@std@@_N@std@@QAE@AAV?$_Tree_iterator@V?$_Tree_val@V?$_Tmap_traits@IVFunctor@OpenHome@@U?$less@I@std@@V?$allocator@U?$pair@$$CBIVFunctor@OpenHome@@@std@@@4@$0A@@std@@@std@@@1@$$QA_N@Z 004281d0 f i libohNetCore:NetworkAdapterList.obj
 0001:00027210       ??$_Destroy@U?$pair@$$CBIVFunctor@OpenHome@@@std@@@std@@YGXPAU?$pair@$$CBIVFunctor@OpenHome@@@0@@Z 00428210 f i libohNetCore:NetworkAdapterList.obj
 0001:00027220       ??$_Construct@PAVNetworkAdapter@OpenHome@@ABQAV12@@std@@YGXPAPAVNetworkAdapter@OpenHome@@ABQAV12@@Z 00428220 f i libohNetCore:NetworkAdapterList.obj
 0001:000272d0       ??$move@AAV?$_Tree_iterator@V?$_Tree_val@V?$_Tmap_traits@IVFunctor@OpenHome@@U?$less@I@std@@V?$allocator@U?$pair@$$CBIVFunctor@OpenHome@@@std@@@4@$0A@@std@@@std@@@std@@@std@@YG$$QAV?$_Tree_iterator@V?$_Tree_val@V?$_Tmap_traits@IVFunctor@OpenHome@@U?$less@I@std@@V?$allocator@U?$pair@$$CBIVFunctor@OpenHome@@@std@@@4@$0A@@std@@@std@@@0@AAV10@@Z 004282d0 f i libohNetCore:NetworkAdapterList.obj
 0001:000272e0       ?_Buynode@?$_Tree_val@V?$_Tmap_traits@IVFunctor@OpenHome@@U?$less@I@std@@V?$allocator@U?$pair@$$CBIVFunctor@OpenHome@@@std@@@4@$0A@@std@@@std@@QAEPAU_Node@?$_Tree_nod@V?$_Tmap_traits@IVFunctor@OpenHome@@U?$less@I@std@@V?$allocator@U?$pair@$$CBIVFunctor@OpenHome@@@std@@@4@$0A@@std@@@2@XZ 004282e0 f i libohNetCore:NetworkAdapterList.obj
 0001:00027370       ??$_Cons_val@V?$allocator@U?$pair@$$CBIVFunctor@OpenHome@@@std@@@std@@U?$pair@$$CBIVFunctor@OpenHome@@@2@U?$pair@IVFunctor@OpenHome@@@2@@std@@YGXAAV?$allocator@U?$pair@$$CBIVFunctor@OpenHome@@@std@@@0@PAU?$pair@$$CBIVFunctor@OpenHome@@@0@$$QAU?$pair@IVFunctor@OpenHome@@@0@@Z 00428370 f i libohNetCore:NetworkAdapterList.obj
 0001:000273a0       ??$_Val_type@PAPAVNetworkAdapter@OpenHome@@@std@@YGPAPAVNetworkAdapter@OpenHome@@PAPAV12@@Z 004283a0 f i libohNetCore:NetworkAdapterList.obj
 0001:000273b0       ??$_Uninit_move@PAVNetworkAdapter@OpenHome@@PAV12@PAV12@@std@@YGPAPAVNetworkAdapter@OpenHome@@PAPAV12@00AAV?$allocator@PAVNetworkAdapter@OpenHome@@@0@0U_Scalar_ptr_iterator_tag@0@@Z 004283b0 f i libohNetCore:NetworkAdapterList.obj
 0001:00027420       ??$forward@AAV?$_Tree_iterator@V?$_Tree_val@V?$_Tmap_traits@IVFunctor@OpenHome@@U?$less@I@std@@V?$allocator@U?$pair@$$CBIVFunctor@OpenHome@@@std@@@4@$0A@@std@@@std@@@std@@@std@@YGAAV?$_Tree_iterator@V?$_Tree_val@V?$_Tmap_traits@IVFunctor@OpenHome@@U?$less@I@std@@V?$allocator@U?$pair@$$CBIVFunctor@OpenHome@@@std@@@4@$0A@@std@@@std@@@0@AAV10@@Z 00428420 f i libohNetCore:NetworkAdapterList.obj
 0001:00027430       ??$?0AAV?$_Tree_iterator@V?$_Tree_val@V?$_Tmap_traits@IVFunctor@OpenHome@@U?$less@I@std@@V?$allocator@U?$pair@$$CBIVFunctor@OpenHome@@@std@@@4@$0A@@std@@@std@@@std@@_N@?$_Pair_base@V?$_Tree_iterator@V?$_Tree_val@V?$_Tmap_traits@IVFunctor@OpenHome@@U?$less@I@std@@V?$allocator@U?$pair@$$CBIVFunctor@OpenHome@@@std@@@4@$0A@@std@@@std@@@std@@_N@std@@QAE@AAV?$_Tree_iterator@V?$_Tree_val@V?$_Tmap_traits@IVFunctor@OpenHome@@U?$less@I@std@@V?$allocator@U?$pair@$$CBIVFunctor@OpenHome@@@std@@@4@$0A@@std@@@std@@@1@$$QA_N@Z 00428430 f i libohNetCore:NetworkAdapterList.obj
 0001:000274b0       ??$construct@U?$pair@IVFunctor@OpenHome@@@std@@@?$allocator@U?$pair@$$CBIVFunctor@OpenHome@@@std@@@std@@QAEXPAU?$pair@$$CBIVFunctor@OpenHome@@@1@$$QAU?$pair@IVFunctor@OpenHome@@@1@@Z 004284b0 f i libohNetCore:NetworkAdapterList.obj
 0001:00027550       ??$_Debug_range@PAPAVNetworkAdapter@OpenHome@@@std@@YGXPAPAVNetworkAdapter@OpenHome@@0PB_WI@Z 00428550 f i libohNetCore:NetworkAdapterList.obj
 0001:000275a0       ??$_Debug_pointer@PAVNetworkAdapter@OpenHome@@@std@@YGXPAPAVNetworkAdapter@OpenHome@@PB_WI@Z 004285a0 f i libohNetCore:NetworkAdapterList.obj
 0001:000275d0       ??$?0IVFunctor@OpenHome@@@?$pair@$$CBIVFunctor@OpenHome@@@std@@QAE@$$QAU?$pair@IVFunctor@OpenHome@@@1@@Z 004285d0 f i libohNetCore:NetworkAdapterList.obj
 0001:00027610       ??$_Iter_cat@PAPAVNetworkAdapter@OpenHome@@@std@@YG?AUrandom_access_iterator_tag@0@ABQAPAVNetworkAdapter@OpenHome@@@Z 00428610 f i libohNetCore:NetworkAdapterList.obj
 0001:00027670       ??$_Debug_range2@PAPAVNetworkAdapter@OpenHome@@@std@@YGXPAPAVNetworkAdapter@OpenHome@@0PB_WIUrandom_access_iterator_tag@0@@Z 00428670 f i libohNetCore:NetworkAdapterList.obj
 0001:000276d0       ??$forward@I@std@@YG$$QAIAAI@Z 004286d0 f i libohNetCore:NetworkAdapterList.obj
 0001:000276e0       ??$forward@VFunctor@OpenHome@@@std@@YG$$QAVFunctor@OpenHome@@AAV12@@Z 004286e0 f i libohNetCore:NetworkAdapterList.obj
 0001:000276f0       ??$?0IVFunctor@OpenHome@@@?$_Pair_base@$$CBIVFunctor@OpenHome@@@std@@QAE@$$QAI$$QAVFunctor@OpenHome@@@Z 004286f0 f i libohNetCore:NetworkAdapterList.obj
 0001:00027750       ??0Stack@Net@OpenHome@@QAE@XZ 00428750 f   libohNetCore:Stack.obj
 0001:00027850       ??0Stack@Net@OpenHome@@QAE@PAVInitialisationParams@12@@Z 00428850 f   libohNetCore:Stack.obj
 0001:00027a70       ?Destroy@Stack@Net@OpenHome@@SGXXZ 00428a70 f   libohNetCore:Stack.obj
 0001:00027ad0       ??1Stack@Net@OpenHome@@AAE@XZ 00428ad0 f   libohNetCore:Stack.obj
 0001:00027ce0       ?IsInitialised@Stack@Net@OpenHome@@SG_NXZ 00428ce0 f   libohNetCore:Stack.obj
 0001:00027d00       ?GetVersion@Stack@Net@OpenHome@@SGXAAI0@Z 00428d00 f   libohNetCore:Stack.obj
 0001:00027d20       ?TimerManager@Stack@Net@OpenHome@@SGAAV03@XZ 00428d20 f   libohNetCore:Stack.obj
 0001:00027d30       ?Mutex@Stack@Net@OpenHome@@SGAAV03@XZ 00428d30 f   libohNetCore:Stack.obj
 0001:00027d40       ?NetworkAdapterList@Stack@Net@OpenHome@@SGAAV03@XZ 00428d40 f   libohNetCore:Stack.obj
 0001:00027d50       ?MulticastListenerClaim@Stack@Net@OpenHome@@SGAAVSsdpListenerMulticast@23@I@Z 00428d50 f   libohNetCore:Stack.obj
 0001:00027f00       ?MulticastListenerRelease@Stack@Net@OpenHome@@SGXI@Z 00428f00 f   libohNetCore:Stack.obj
 0001:000280a0       ?SequenceNumber@Stack@Net@OpenHome@@SGIXZ 004290a0 f   libohNetCore:Stack.obj
 0001:00028100       ?InitParams@Stack@Net@OpenHome@@SGAAVInitialisationParams@23@XZ 00429100 f   libohNetCore:Stack.obj
 0001:00028110       ?AddObject@Stack@Net@OpenHome@@SGXPAXPBD@Z 00429110 f   libohNetCore:Stack.obj
 0001:00028140       ?RemoveObject@Stack@Net@OpenHome@@SGXPAXPBD@Z 00429140 f   libohNetCore:Stack.obj
 0001:00028170       ?ListObjects@Stack@Net@OpenHome@@SGXXZ 00429170 f   libohNetCore:Stack.obj
 0001:00028190       ?DoAddObject@Stack@Net@OpenHome@@AAEXPAXPBD@Z 00429190 f   libohNetCore:Stack.obj
 0001:000283f0       ?DoRemoveObject@Stack@Net@OpenHome@@AAEXPAXPBD@Z 004293f0 f   libohNetCore:Stack.obj
 0001:00028690       ?DoListObjects@Stack@Net@OpenHome@@AAEXXZ 00429690 f   libohNetCore:Stack.obj
 0001:000288a0       ?SetCpiStack@Stack@Net@OpenHome@@CGXPAVIStack@23@@Z 004298a0 f   libohNetCore:Stack.obj
 0001:000288c0       ?SetDviStack@Stack@Net@OpenHome@@CGXPAVIStack@23@@Z 004298c0 f   libohNetCore:Stack.obj
 0001:000288e0       ?CpiStack@Stack@Net@OpenHome@@CGPAVIStack@23@XZ 004298e0 f   libohNetCore:Stack.obj
 0001:000288f0       ?DviStack@Stack@Net@OpenHome@@CGPAVIStack@23@XZ 004298f0 f   libohNetCore:Stack.obj
 0001:00028900       ??0MListener@Stack@Net@OpenHome@@QAE@I@Z 00429900 f   libohNetCore:Stack.obj
 0001:00028940       ?Listener@MListener@Stack@Net@OpenHome@@QAEAAVSsdpListenerMulticast@34@XZ 00429940 f   libohNetCore:Stack.obj
 0001:00028960       ?Interface@MListener@Stack@Net@OpenHome@@QBEIXZ 00429960 f   libohNetCore:Stack.obj
 0001:00028990       ?AddRef@MListener@Stack@Net@OpenHome@@QAEXXZ 00429990 f   libohNetCore:Stack.obj
 0001:000289c0       ?RemoveRef@MListener@Stack@Net@OpenHome@@QAE_NXZ 004299c0 f   libohNetCore:Stack.obj
 0001:00028a00       ??0ObjectType@Stack@Net@OpenHome@@QAE@PBD@Z 00429a00 f   libohNetCore:Stack.obj
 0001:00028a70       ??1ObjectType@Stack@Net@OpenHome@@QAE@XZ 00429a70 f   libohNetCore:Stack.obj
 0001:00028b00       ??1?$map@VBrn@OpenHome@@PAVObjectType@Stack@Net@2@VBufferCmp@2@V?$allocator@U?$pair@$$CBVBrn@OpenHome@@PAVObjectType@Stack@Net@2@@std@@@std@@@std@@QAE@XZ 00429b00 f i libohNetCore:Stack.obj
 0001:00028b30       ??_GStack@Net@OpenHome@@AAEPAXI@Z 00429b30 f i libohNetCore:Stack.obj
 0001:00028b70       ??_GNetworkAdapterList@OpenHome@@QAEPAXI@Z 00429b70 f i libohNetCore:Stack.obj
 0001:00028bb0       ??_GInitialisationParams@Net@OpenHome@@QAEPAXI@Z 00429bb0 f i libohNetCore:Stack.obj
 0001:00028bf0       ??_GMListener@Stack@Net@OpenHome@@QAEPAXI@Z 00429bf0 f i libohNetCore:Stack.obj
 0001:00028c30       ??1?$_Vector_iterator@V?$_Vector_val@PAVMListener@Stack@Net@OpenHome@@V?$allocator@PAVMListener@Stack@Net@OpenHome@@@std@@@std@@@std@@QAE@XZ 00429c30 f i libohNetCore:Stack.obj
 0001:00028c60       ??0?$_Vector_const_iterator@V?$_Vector_val@PAVMListener@Stack@Net@OpenHome@@V?$allocator@PAVMListener@Stack@Net@OpenHome@@@std@@@std@@@std@@QAE@ABV01@@Z 00429c60 f i libohNetCore:Stack.obj
 0001:00028ca0       ??1?$_Vector_const_iterator@V?$_Vector_val@PAVMListener@Stack@Net@OpenHome@@V?$allocator@PAVMListener@Stack@Net@OpenHome@@@std@@@std@@@std@@QAE@XZ 00429ca0 f i libohNetCore:Stack.obj
 0001:00028cd0       ??1MListener@Stack@Net@OpenHome@@QAE@XZ 00429cd0 f i libohNetCore:Stack.obj
 0001:00028d00       ??0?$_Iterator012@Urandom_access_iterator_tag@std@@PAVMListener@Stack@Net@OpenHome@@HPBQAV3456@ABQAV3456@U_Iterator_base12@2@@std@@QAE@ABU01@@Z 00429d00 f i libohNetCore:Stack.obj
 0001:00028d30       ??1?$_Iterator012@Urandom_access_iterator_tag@std@@PAVMListener@Stack@Net@OpenHome@@HPBQAV3456@ABQAV3456@U_Iterator_base12@2@@std@@QAE@XZ 00429d30 f i libohNetCore:Stack.obj
 0001:00028d60       ?Set@Brn@OpenHome@@QAEXABVBrx@2@@Z 00429d60 f i libohNetCore:Stack.obj
 0001:00028db0       ?Name@ObjectType@Stack@Net@OpenHome@@QAEABVBrx@4@XZ 00429db0 f i libohNetCore:Stack.obj
 0001:00028dd0       ?Map@ObjectType@Stack@Net@OpenHome@@QAEAAV?$map@PAXPAXU?$less@PAX@std@@V?$allocator@U?$pair@QAXPAX@std@@@2@@std@@XZ 00429dd0 f i libohNetCore:Stack.obj
 0001:00028df0       ??1?$_Tree_iterator@V?$_Tree_val@V?$_Tmap_traits@VBrn@OpenHome@@PAVObjectType@Stack@Net@2@VBufferCmp@2@V?$allocator@U?$pair@$$CBVBrn@OpenHome@@PAVObjectType@Stack@Net@2@@std@@@std@@$0A@@std@@@std@@@std@@QAE@XZ 00429df0 f i libohNetCore:Stack.obj
 0001:00028e20       ??1?$pair@VBrn@OpenHome@@PAVObjectType@Stack@Net@2@@std@@QAE@XZ 00429e20 f i libohNetCore:Stack.obj
 0001:00028e50       ??1?$pair@V?$_Tree_iterator@V?$_Tree_val@V?$_Tmap_traits@VBrn@OpenHome@@PAVObjectType@Stack@Net@2@VBufferCmp@2@V?$allocator@U?$pair@$$CBVBrn@OpenHome@@PAVObjectType@Stack@Net@2@@std@@@std@@$0A@@std@@@std@@@std@@_N@std@@QAE@XZ 00429e50 f i libohNetCore:Stack.obj
 0001:00028e80       ??1?$pair@V?$_Tree_iterator@V?$_Tree_val@V?$_Tmap_traits@PAXPAXU?$less@PAX@std@@V?$allocator@U?$pair@QAXPAX@std@@@2@$0A@@std@@@std@@@std@@_N@std@@QAE@XZ 00429e80 f i libohNetCore:Stack.obj
 0001:00028eb0       ??1?$_Tree_const_iterator@V?$_Tree_val@V?$_Tmap_traits@VBrn@OpenHome@@PAVObjectType@Stack@Net@2@VBufferCmp@2@V?$allocator@U?$pair@$$CBVBrn@OpenHome@@PAVObjectType@Stack@Net@2@@std@@@std@@$0A@@std@@@std@@@std@@QAE@XZ 00429eb0 f i libohNetCore:Stack.obj
 0001:00028ee0       ??1?$_Pair_base@VBrn@OpenHome@@PAVObjectType@Stack@Net@2@@std@@QAE@XZ 00429ee0 f i libohNetCore:Stack.obj
 0001:00028f10       ??1?$_Pair_base@V?$_Tree_iterator@V?$_Tree_val@V?$_Tmap_traits@VBrn@OpenHome@@PAVObjectType@Stack@Net@2@VBufferCmp@2@V?$allocator@U?$pair@$$CBVBrn@OpenHome@@PAVObjectType@Stack@Net@2@@std@@@std@@$0A@@std@@@std@@@std@@_N@std@@QAE@XZ 00429f10 f i libohNetCore:Stack.obj
 0001:00028f40       ??1?$_Pair_base@V?$_Tree_iterator@V?$_Tree_val@V?$_Tmap_traits@PAXPAXU?$less@PAX@std@@V?$allocator@U?$pair@QAXPAX@std@@@2@$0A@@std@@@std@@@std@@_N@std@@QAE@XZ 00429f40 f i libohNetCore:Stack.obj
 0001:00028f70       ??1?$_Tree_unchecked_const_iterator@V?$_Tree_val@V?$_Tmap_traits@VBrn@OpenHome@@PAVObjectType@Stack@Net@2@VBufferCmp@2@V?$allocator@U?$pair@$$CBVBrn@OpenHome@@PAVObjectType@Stack@Net@2@@std@@@std@@$0A@@std@@@std@@U_Iterator_base12@2@@std@@QAE@XZ 00429f70 f i libohNetCore:Stack.obj
 0001:00028fa0       ??1?$_Tree_iterator@V?$_Tree_val@V?$_Tmap_traits@PAXPAXU?$less@PAX@std@@V?$allocator@U?$pair@QAXPAX@std@@@2@$0A@@std@@@std@@@std@@QAE@XZ 00429fa0 f i libohNetCore:Stack.obj
 0001:00028fd0       ??1?$_Iterator012@Ubidirectional_iterator_tag@std@@U?$pair@$$CBVBrn@OpenHome@@PAVObjectType@Stack@Net@2@@2@HPBU32@ABU32@U_Iterator_base12@2@@std@@QAE@XZ 00429fd0 f i libohNetCore:Stack.obj
 0001:00029000       ??1?$_Tree_const_iterator@V?$_Tree_val@V?$_Tmap_traits@PAXPAXU?$less@PAX@std@@V?$allocator@U?$pair@QAXPAX@std@@@2@$0A@@std@@@std@@@std@@QAE@XZ 0042a000 f i libohNetCore:Stack.obj
 0001:00029030       ??1?$_Tree_unchecked_const_iterator@V?$_Tree_val@V?$_Tmap_traits@PAXPAXU?$less@PAX@std@@V?$allocator@U?$pair@QAXPAX@std@@@2@$0A@@std@@@std@@U_Iterator_base12@2@@std@@QAE@XZ 0042a030 f i libohNetCore:Stack.obj
 0001:00029060       ??1?$_Iterator012@Ubidirectional_iterator_tag@std@@U?$pair@QAXPAX@2@HPBU32@ABU32@U_Iterator_base12@2@@std@@QAE@XZ 0042a060 f i libohNetCore:Stack.obj
 0001:00029090       ??0?$_Tree_const_iterator@V?$_Tree_val@V?$_Tmap_traits@PAXPAXU?$less@PAX@std@@V?$allocator@U?$pair@QAXPAX@std@@@2@$0A@@std@@@std@@@std@@QAE@ABV01@@Z 0042a090 f i libohNetCore:Stack.obj
 0001:000290c0       ??_GObjectType@Stack@Net@OpenHome@@QAEPAXI@Z 0042a0c0 f i libohNetCore:Stack.obj
 0001:00029100       ??0?$_Tree_const_iterator@V?$_Tree_val@V?$_Tmap_traits@VBrn@OpenHome@@PAVObjectType@Stack@Net@2@VBufferCmp@2@V?$allocator@U?$pair@$$CBVBrn@OpenHome@@PAVObjectType@Stack@Net@2@@std@@@std@@$0A@@std@@@std@@@std@@QAE@ABV01@@Z 0042a100 f i libohNetCore:Stack.obj
 0001:00029130       ??0?$_Tree_unchecked_const_iterator@V?$_Tree_val@V?$_Tmap_traits@PAXPAXU?$less@PAX@std@@V?$allocator@U?$pair@QAXPAX@std@@@2@$0A@@std@@@std@@U_Iterator_base12@2@@std@@QAE@ABV01@@Z 0042a130 f i libohNetCore:Stack.obj
 0001:00029170       ??0?$_Tree_unchecked_const_iterator@V?$_Tree_val@V?$_Tmap_traits@VBrn@OpenHome@@PAVObjectType@Stack@Net@2@VBufferCmp@2@V?$allocator@U?$pair@$$CBVBrn@OpenHome@@PAVObjectType@Stack@Net@2@@std@@@std@@$0A@@std@@@std@@U_Iterator_base12@2@@std@@QAE@ABV01@@Z 0042a170 f i libohNetCore:Stack.obj
 0001:000291b0       ??0?$_Iterator012@Ubidirectional_iterator_tag@std@@U?$pair@QAXPAX@2@HPBU32@ABU32@U_Iterator_base12@2@@std@@QAE@ABU01@@Z 0042a1b0 f i libohNetCore:Stack.obj
 0001:000291e0       ??0?$_Iterator012@Ubidirectional_iterator_tag@std@@U?$pair@$$CBVBrn@OpenHome@@PAVObjectType@Stack@Net@2@@2@HPBU32@ABU32@U_Iterator_base12@2@@std@@QAE@ABU01@@Z 0042a1e0 f i libohNetCore:Stack.obj
 0001:00029210       ??1?$map@PAXPAXU?$less@PAX@std@@V?$allocator@U?$pair@QAXPAX@std@@@2@@std@@QAE@XZ 0042a210 f i libohNetCore:Stack.obj
 0001:00029240       ??0?$map@PAXPAXU?$less@PAX@std@@V?$allocator@U?$pair@QAXPAX@std@@@2@@std@@QAE@XZ 0042a240 f i libohNetCore:Stack.obj
 0001:00029280       ??1?$_Tree@V?$_Tmap_traits@PAXPAXU?$less@PAX@std@@V?$allocator@U?$pair@QAXPAX@std@@@2@$0A@@std@@@std@@QAE@XZ 0042a280 f i libohNetCore:Stack.obj
 0001:000292f0       ?begin@?$_Tree@V?$_Tmap_traits@PAXPAXU?$less@PAX@std@@V?$allocator@U?$pair@QAXPAX@std@@@2@$0A@@std@@@std@@QAE?AV?$_Tree_iterator@V?$_Tree_val@V?$_Tmap_traits@PAXPAXU?$less@PAX@std@@V?$allocator@U?$pair@QAXPAX@std@@@2@$0A@@std@@@std@@@2@XZ 0042a2f0 f i libohNetCore:Stack.obj
 0001:00029350       ?end@?$_Tree@V?$_Tmap_traits@PAXPAXU?$less@PAX@std@@V?$allocator@U?$pair@QAXPAX@std@@@2@$0A@@std@@@std@@QAE?AV?$_Tree_iterator@V?$_Tree_val@V?$_Tmap_traits@PAXPAXU?$less@PAX@std@@V?$allocator@U?$pair@QAXPAX@std@@@2@$0A@@std@@@std@@@2@XZ 0042a350 f i libohNetCore:Stack.obj
 0001:000293a0       ?size@?$_Tree@V?$_Tmap_traits@PAXPAXU?$less@PAX@std@@V?$allocator@U?$pair@QAXPAX@std@@@2@$0A@@std@@@std@@QBEIXZ 0042a3a0 f i libohNetCore:Stack.obj
 0001:000293c0       ?erase@?$_Tree@V?$_Tmap_traits@PAXPAXU?$less@PAX@std@@V?$allocator@U?$pair@QAXPAX@std@@@2@$0A@@std@@@std@@QAE?AV?$_Tree_iterator@V?$_Tree_val@V?$_Tmap_traits@PAXPAXU?$less@PAX@std@@V?$allocator@U?$pair@QAXPAX@std@@@2@$0A@@std@@@std@@@2@V?$_Tree_const_iterator@V?$_Tree_val@V?$_Tmap_traits@PAXPAXU?$less@PAX@std@@V?$allocator@U?$pair@QAXPAX@std@@@2@$0A@@std@@@std@@@2@@Z 0042a3c0 f i libohNetCore:Stack.obj
 0001:00029ad0       ?find@?$_Tree@V?$_Tmap_traits@PAXPAXU?$less@PAX@std@@V?$allocator@U?$pair@QAXPAX@std@@@2@$0A@@std@@@std@@QAE?AV?$_Tree_iterator@V?$_Tree_val@V?$_Tmap_traits@PAXPAXU?$less@PAX@std@@V?$allocator@U?$pair@QAXPAX@std@@@2@$0A@@std@@@std@@@2@ABQAX@Z 0042aad0 f i libohNetCore:Stack.obj
 0001:00029cb0       ??0?$vector@PAVMListener@Stack@Net@OpenHome@@V?$allocator@PAVMListener@Stack@Net@OpenHome@@@std@@@std@@QAE@XZ 0042acb0 f i libohNetCore:Stack.obj
 0001:00029cf0       ??1?$vector@PAVMListener@Stack@Net@OpenHome@@V?$allocator@PAVMListener@Stack@Net@OpenHome@@@std@@@std@@QAE@XZ 0042acf0 f i libohNetCore:Stack.obj
 0001:00029d60       ?begin@?$vector@PAVMListener@Stack@Net@OpenHome@@V?$allocator@PAVMListener@Stack@Net@OpenHome@@@std@@@std@@QAE?AV?$_Vector_iterator@V?$_Vector_val@PAVMListener@Stack@Net@OpenHome@@V?$allocator@PAVMListener@Stack@Net@OpenHome@@@std@@@std@@@2@XZ 0042ad60 f i libohNetCore:Stack.obj
 0001:00029db0       ?size@?$vector@PAVMListener@Stack@Net@OpenHome@@V?$allocator@PAVMListener@Stack@Net@OpenHome@@@std@@@std@@QBEIXZ 0042adb0 f i libohNetCore:Stack.obj
 0001:00029de0       ??A?$vector@PAVMListener@Stack@Net@OpenHome@@V?$allocator@PAVMListener@Stack@Net@OpenHome@@@std@@@std@@QAEAAPAVMListener@Stack@Net@OpenHome@@I@Z 0042ade0 f i libohNetCore:Stack.obj
 0001:00029e80       ?push_back@?$vector@PAVMListener@Stack@Net@OpenHome@@V?$allocator@PAVMListener@Stack@Net@OpenHome@@@std@@@std@@QAEXABQAVMListener@Stack@Net@OpenHome@@@Z 0042ae80 f i libohNetCore:Stack.obj
 0001:00029f90       ?erase@?$vector@PAVMListener@Stack@Net@OpenHome@@V?$allocator@PAVMListener@Stack@Net@OpenHome@@@std@@@std@@QAE?AV?$_Vector_iterator@V?$_Vector_val@PAVMListener@Stack@Net@OpenHome@@V?$allocator@PAVMListener@Stack@Net@OpenHome@@@std@@@std@@@2@V?$_Vector_const_iterator@V?$_Vector_val@PAVMListener@Stack@Net@OpenHome@@V?$allocator@PAVMListener@Stack@Net@OpenHome@@@std@@@std@@@2@@Z 0042af90 f i libohNetCore:Stack.obj
 0001:0002a0c0       ??0?$map@VBrn@OpenHome@@PAVObjectType@Stack@Net@2@VBufferCmp@2@V?$allocator@U?$pair@$$CBVBrn@OpenHome@@PAVObjectType@Stack@Net@2@@std@@@std@@@std@@QAE@XZ 0042b0c0 f i libohNetCore:Stack.obj
 0001:0002a110       ??1?$_Tree@V?$_Tmap_traits@VBrn@OpenHome@@PAVObjectType@Stack@Net@2@VBufferCmp@2@V?$allocator@U?$pair@$$CBVBrn@OpenHome@@PAVObjectType@Stack@Net@2@@std@@@std@@$0A@@std@@@std@@QAE@XZ 0042b110 f i libohNetCore:Stack.obj
 0001:0002a180       ?begin@?$_Tree@V?$_Tmap_traits@VBrn@OpenHome@@PAVObjectType@Stack@Net@2@VBufferCmp@2@V?$allocator@U?$pair@$$CBVBrn@OpenHome@@PAVObjectType@Stack@Net@2@@std@@@std@@$0A@@std@@@std@@QAE?AV?$_Tree_iterator@V?$_Tree_val@V?$_Tmap_traits@VBrn@OpenHome@@PAVObjectType@Stack@Net@2@VBufferCmp@2@V?$allocator@U?$pair@$$CBVBrn@OpenHome@@PAVObjectType@Stack@Net@2@@std@@@std@@$0A@@std@@@std@@@2@XZ 0042b180 f i libohNetCore:Stack.obj
 0001:0002a1e0       ?end@?$_Tree@V?$_Tmap_traits@VBrn@OpenHome@@PAVObjectType@Stack@Net@2@VBufferCmp@2@V?$allocator@U?$pair@$$CBVBrn@OpenHome@@PAVObjectType@Stack@Net@2@@std@@@std@@$0A@@std@@@std@@QAE?AV?$_Tree_iterator@V?$_Tree_val@V?$_Tmap_traits@VBrn@OpenHome@@PAVObjectType@Stack@Net@2@VBufferCmp@2@V?$allocator@U?$pair@$$CBVBrn@OpenHome@@PAVObjectType@Stack@Net@2@@std@@@std@@$0A@@std@@@std@@@2@XZ 0042b1e0 f i libohNetCore:Stack.obj
 0001:0002a230       ?size@?$_Tree@V?$_Tmap_traits@VBrn@OpenHome@@PAVObjectType@Stack@Net@2@VBufferCmp@2@V?$allocator@U?$pair@$$CBVBrn@OpenHome@@PAVObjectType@Stack@Net@2@@std@@@std@@$0A@@std@@@std@@QBEIXZ 0042b230 f i libohNetCore:Stack.obj
 0001:0002a250       ?erase@?$_Tree@V?$_Tmap_traits@VBrn@OpenHome@@PAVObjectType@Stack@Net@2@VBufferCmp@2@V?$allocator@U?$pair@$$CBVBrn@OpenHome@@PAVObjectType@Stack@Net@2@@std@@@std@@$0A@@std@@@std@@QAE?AV?$_Tree_iterator@V?$_Tree_val@V?$_Tmap_traits@VBrn@OpenHome@@PAVObjectType@Stack@Net@2@VBufferCmp@2@V?$allocator@U?$pair@$$CBVBrn@OpenHome@@PAVObjectType@Stack@Net@2@@std@@@std@@$0A@@std@@@std@@@2@V?$_Tree_const_iterator@V?$_Tree_val@V?$_Tmap_traits@VBrn@OpenHome@@PAVObjectType@Stack@Net@2@VBufferCmp@2@V?$allocator@U?$pair@$$CBVBrn@OpenHome@@PAVObjectType@Stack@Net@2@@std@@@std@@$0A@@std@@@std@@@2@@Z 0042b250 f i libohNetCore:Stack.obj
 0001:0002a960       ?find@?$_Tree@V?$_Tmap_traits@VBrn@OpenHome@@PAVObjectType@Stack@Net@2@VBufferCmp@2@V?$allocator@U?$pair@$$CBVBrn@OpenHome@@PAVObjectType@Stack@Net@2@@std@@@std@@$0A@@std@@@std@@QAE?AV?$_Tree_iterator@V?$_Tree_val@V?$_Tmap_traits@VBrn@OpenHome@@PAVObjectType@Stack@Net@2@VBufferCmp@2@V?$allocator@U?$pair@$$CBVBrn@OpenHome@@PAVObjectType@Stack@Net@2@@std@@@std@@$0A@@std@@@std@@@2@ABVBrn@OpenHome@@@Z 0042b960 f i libohNetCore:Stack.obj
 0001:0002ab40       ??H?$_Vector_iterator@V?$_Vector_val@PAVMListener@Stack@Net@OpenHome@@V?$allocator@PAVMListener@Stack@Net@OpenHome@@@std@@@std@@@std@@QBE?AV01@H@Z 0042bb40 f i libohNetCore:Stack.obj
 0001:0002ac20       ??C?$_Tree_iterator@V?$_Tree_val@V?$_Tmap_traits@VBrn@OpenHome@@PAVObjectType@Stack@Net@2@VBufferCmp@2@V?$allocator@U?$pair@$$CBVBrn@OpenHome@@PAVObjectType@Stack@Net@2@@std@@@std@@$0A@@std@@@std@@@std@@QBEPAU?$pair@$$CBVBrn@OpenHome@@PAVObjectType@Stack@Net@2@@1@XZ 0042bc20 f i libohNetCore:Stack.obj
 0001:0002ac50       ??E?$_Tree_iterator@V?$_Tree_val@V?$_Tmap_traits@VBrn@OpenHome@@PAVObjectType@Stack@Net@2@VBufferCmp@2@V?$allocator@U?$pair@$$CBVBrn@OpenHome@@PAVObjectType@Stack@Net@2@@std@@@std@@$0A@@std@@@std@@@std@@QAE?AV01@H@Z 0042bc50 f i libohNetCore:Stack.obj
 0001:0002ad20       ??9?$_Tree_const_iterator@V?$_Tree_val@V?$_Tmap_traits@VBrn@OpenHome@@PAVObjectType@Stack@Net@2@VBufferCmp@2@V?$allocator@U?$pair@$$CBVBrn@OpenHome@@PAVObjectType@Stack@Net@2@@std@@@std@@$0A@@std@@@std@@@std@@QBE_NABV01@@Z 0042bd20 f i libohNetCore:Stack.obj
 0001:0002ad60       ??C?$_Tree_iterator@V?$_Tree_val@V?$_Tmap_traits@PAXPAXU?$less@PAX@std@@V?$allocator@U?$pair@QAXPAX@std@@@2@$0A@@std@@@std@@@std@@QBEPAU?$pair@QAXPAX@1@XZ 0042bd60 f i libohNetCore:Stack.obj
 0001:0002ad90       ??E?$_Tree_iterator@V?$_Tree_val@V?$_Tmap_traits@PAXPAXU?$less@PAX@std@@V?$allocator@U?$pair@QAXPAX@std@@@2@$0A@@std@@@std@@@std@@QAE?AV01@H@Z 0042bd90 f i libohNetCore:Stack.obj
 0001:0002ae60       ??9?$_Tree_const_iterator@V?$_Tree_val@V?$_Tmap_traits@PAXPAXU?$less@PAX@std@@V?$allocator@U?$pair@QAXPAX@std@@@2@$0A@@std@@@std@@@std@@QBE_NABV01@@Z 0042be60 f i libohNetCore:Stack.obj
 0001:0002aea0       ??0?$_Tree_iterator@V?$_Tree_val@V?$_Tmap_traits@PAXPAXU?$less@PAX@std@@V?$allocator@U?$pair@QAXPAX@std@@@2@$0A@@std@@@std@@@std@@QAE@ABV01@@Z 0042bea0 f i libohNetCore:Stack.obj
 0001:0002aed0       ??0?$_Tree_iterator@V?$_Tree_val@V?$_Tmap_traits@VBrn@OpenHome@@PAVObjectType@Stack@Net@2@VBufferCmp@2@V?$allocator@U?$pair@$$CBVBrn@OpenHome@@PAVObjectType@Stack@Net@2@@std@@@std@@$0A@@std@@@std@@@std@@QAE@ABV01@@Z 0042bed0 f i libohNetCore:Stack.obj
 0001:0002af00       ??0?$_Vector_iterator@V?$_Vector_val@PAVMListener@Stack@Net@OpenHome@@V?$allocator@PAVMListener@Stack@Net@OpenHome@@@std@@@std@@@std@@QAE@ABV01@@Z 0042bf00 f i libohNetCore:Stack.obj
 0001:0002af30       ??0?$_Tree@V?$_Tmap_traits@PAXPAXU?$less@PAX@std@@V?$allocator@U?$pair@QAXPAX@std@@@2@$0A@@std@@@std@@QAE@ABU?$less@PAX@1@ABV?$allocator@U?$pair@QAXPAX@std@@@1@@Z 0042bf30 f i libohNetCore:Stack.obj
 0001:0002af80       ?lower_bound@?$_Tree@V?$_Tmap_traits@PAXPAXU?$less@PAX@std@@V?$allocator@U?$pair@QAXPAX@std@@@2@$0A@@std@@@std@@QAE?AV?$_Tree_iterator@V?$_Tree_val@V?$_Tmap_traits@PAXPAXU?$less@PAX@std@@V?$allocator@U?$pair@QAXPAX@std@@@2@$0A@@std@@@std@@@2@ABQAX@Z 0042bf80 f i libohNetCore:Stack.obj
 0001:0002afe0       ?_Lmost@?$_Tree@V?$_Tmap_traits@PAXPAXU?$less@PAX@std@@V?$allocator@U?$pair@QAXPAX@std@@@2@$0A@@std@@@std@@IBEAAPAU_Node@?$_Tree_nod@V?$_Tmap_traits@PAXPAXU?$less@PAX@std@@V?$allocator@U?$pair@QAXPAX@std@@@2@$0A@@std@@@2@XZ 0042bfe0 f i libohNetCore:Stack.obj
 0001:0002b010       ?_Lrotate@?$_Tree@V?$_Tmap_traits@PAXPAXU?$less@PAX@std@@V?$allocator@U?$pair@QAXPAX@std@@@2@$0A@@std@@@std@@IAEXPAU_Node@?$_Tree_nod@V?$_Tmap_traits@PAXPAXU?$less@PAX@std@@V?$allocator@U?$pair@QAXPAX@std@@@2@$0A@@std@@@2@@Z 0042c010 f i libohNetCore:Stack.obj
 0001:0002b130       ?_Rmost@?$_Tree@V?$_Tmap_traits@PAXPAXU?$less@PAX@std@@V?$allocator@U?$pair@QAXPAX@std@@@2@$0A@@std@@@std@@IBEAAPAU_Node@?$_Tree_nod@V?$_Tmap_traits@PAXPAXU?$less@PAX@std@@V?$allocator@U?$pair@QAXPAX@std@@@2@$0A@@std@@@2@XZ 0042c130 f i libohNetCore:Stack.obj
 0001:0002b160       ?_Root@?$_Tree@V?$_Tmap_traits@PAXPAXU?$less@PAX@std@@V?$allocator@U?$pair@QAXPAX@std@@@2@$0A@@std@@@std@@IBEAAPAU_Node@?$_Tree_nod@V?$_Tmap_traits@PAXPAXU?$less@PAX@std@@V?$allocator@U?$pair@QAXPAX@std@@@2@$0A@@std@@@2@XZ 0042c160 f i libohNetCore:Stack.obj
 0001:0002b190       ?_Rrotate@?$_Tree@V?$_Tmap_traits@PAXPAXU?$less@PAX@std@@V?$allocator@U?$pair@QAXPAX@std@@@2@$0A@@std@@@std@@IAEXPAU_Node@?$_Tree_nod@V?$_Tmap_traits@PAXPAXU?$less@PAX@std@@V?$allocator@U?$pair@QAXPAX@std@@@2@$0A@@std@@@2@@Z 0042c190 f i libohNetCore:Stack.obj
 0001:0002b2b0       ?_Orphan_ptr@?$_Tree@V?$_Tmap_traits@PAXPAXU?$less@PAX@std@@V?$allocator@U?$pair@QAXPAX@std@@@2@$0A@@std@@@std@@IBEXAAV12@PAU_Node@?$_Tree_nod@V?$_Tmap_traits@PAXPAXU?$less@PAX@std@@V?$allocator@U?$pair@QAXPAX@std@@@2@$0A@@std@@@2@@Z 0042c2b0 f i libohNetCore:Stack.obj
 0001:0002b3c0       ?_Tidy@?$_Tree@V?$_Tmap_traits@PAXPAXU?$less@PAX@std@@V?$allocator@U?$pair@QAXPAX@std@@@2@$0A@@std@@@std@@IAEXXZ 0042c3c0 f i libohNetCore:Stack.obj
 0001:0002b4c0       ??1?$_Tree_val@V?$_Tmap_traits@PAXPAXU?$less@PAX@std@@V?$allocator@U?$pair@QAXPAX@std@@@2@$0A@@std@@@std@@QAE@XZ 0042c4c0 f i libohNetCore:Stack.obj
 0001:0002b530       ?_Color@?$_Tree_val@V?$_Tmap_traits@PAXPAXU?$less@PAX@std@@V?$allocator@U?$pair@QAXPAX@std@@@2@$0A@@std@@@std@@SGAADPAU_Node@?$_Tree_nod@V?$_Tmap_traits@PAXPAXU?$less@PAX@std@@V?$allocator@U?$pair@QAXPAX@std@@@2@$0A@@std@@@2@@Z 0042c530 f i libohNetCore:Stack.obj
 0001:0002b540       ?_Isnil@?$_Tree_val@V?$_Tmap_traits@PAXPAXU?$less@PAX@std@@V?$allocator@U?$pair@QAXPAX@std@@@2@$0A@@std@@@std@@SGAADPAU_Node@?$_Tree_nod@V?$_Tmap_traits@PAXPAXU?$less@PAX@std@@V?$allocator@U?$pair@QAXPAX@std@@@2@$0A@@std@@@2@@Z 0042c540 f i libohNetCore:Stack.obj
 0001:0002b550       ?_Key@?$_Tree_val@V?$_Tmap_traits@PAXPAXU?$less@PAX@std@@V?$allocator@U?$pair@QAXPAX@std@@@2@$0A@@std@@@std@@SGAAPAXPAU_Node@?$_Tree_nod@V?$_Tmap_traits@PAXPAXU?$less@PAX@std@@V?$allocator@U?$pair@QAXPAX@std@@@2@$0A@@std@@@2@@Z 0042c550 f i libohNetCore:Stack.obj
 0001:0002b570       ?_Left@?$_Tree_val@V?$_Tmap_traits@PAXPAXU?$less@PAX@std@@V?$allocator@U?$pair@QAXPAX@std@@@2@$0A@@std@@@std@@SGAAPAU_Node@?$_Tree_nod@V?$_Tmap_traits@PAXPAXU?$less@PAX@std@@V?$allocator@U?$pair@QAXPAX@std@@@2@$0A@@std@@@2@PAU342@@Z 0042c570 f i libohNetCore:Stack.obj
 0001:0002b580       ?_Parent@?$_Tree_val@V?$_Tmap_traits@PAXPAXU?$less@PAX@std@@V?$allocator@U?$pair@QAXPAX@std@@@2@$0A@@std@@@std@@SGAAPAU_Node@?$_Tree_nod@V?$_Tmap_traits@PAXPAXU?$less@PAX@std@@V?$allocator@U?$pair@QAXPAX@std@@@2@$0A@@std@@@2@PAU342@@Z 0042c580 f i libohNetCore:Stack.obj
 0001:0002b590       ?_Right@?$_Tree_val@V?$_Tmap_traits@PAXPAXU?$less@PAX@std@@V?$allocator@U?$pair@QAXPAX@std@@@2@$0A@@std@@@std@@SGAAPAU_Node@?$_Tree_nod@V?$_Tmap_traits@PAXPAXU?$less@PAX@std@@V?$allocator@U?$pair@QAXPAX@std@@@2@$0A@@std@@@2@PAU342@@Z 0042c590 f i libohNetCore:Stack.obj
 0001:0002b5a0       ?_Myval@?$_Tree_val@V?$_Tmap_traits@PAXPAXU?$less@PAX@std@@V?$allocator@U?$pair@QAXPAX@std@@@2@$0A@@std@@@std@@SGAAU?$pair@QAXPAX@2@PAU_Node@?$_Tree_nod@V?$_Tmap_traits@PAXPAXU?$less@PAX@std@@V?$allocator@U?$pair@QAXPAX@std@@@2@$0A@@std@@@2@@Z 0042c5a0 f i libohNetCore:Stack.obj
 0001:0002b5b0       ?_Max@?$_Tree_val@V?$_Tmap_traits@PAXPAXU?$less@PAX@std@@V?$allocator@U?$pair@QAXPAX@std@@@2@$0A@@std@@@std@@SGPAU_Node@?$_Tree_nod@V?$_Tmap_traits@PAXPAXU?$less@PAX@std@@V?$allocator@U?$pair@QAXPAX@std@@@2@$0A@@std@@@2@PAU342@@Z 0042c5b0 f i libohNetCore:Stack.obj
 0001:0002b5f0       ?_Min@?$_Tree_val@V?$_Tmap_traits@PAXPAXU?$less@PAX@std@@V?$allocator@U?$pair@QAXPAX@std@@@2@$0A@@std@@@std@@SGPAU_Node@?$_Tree_nod@V?$_Tmap_traits@PAXPAXU?$less@PAX@std@@V?$allocator@U?$pair@QAXPAX@std@@@2@$0A@@std@@@2@PAU342@@Z 0042c5f0 f i libohNetCore:Stack.obj
 0001:0002b630       ??0?$allocator@U?$pair@QAXPAX@std@@@std@@QAE@XZ 0042c630 f i libohNetCore:Stack.obj
 0001:0002b650       ?deallocate@?$allocator@U_Node@?$_Tree_nod@V?$_Tmap_traits@PAXPAXU?$less@PAX@std@@V?$allocator@U?$pair@QAXPAX@std@@@2@$0A@@std@@@std@@@std@@QAEXPAU_Node@?$_Tree_nod@V?$_Tmap_traits@PAXPAXU?$less@PAX@std@@V?$allocator@U?$pair@QAXPAX@std@@@2@$0A@@std@@@2@I@Z 0042c650 f i libohNetCore:Stack.obj
 0001:0002b680       ?_Make_iter@?$vector@PAVMListener@Stack@Net@OpenHome@@V?$allocator@PAVMListener@Stack@Net@OpenHome@@@std@@@std@@QBE?AV?$_Vector_iterator@V?$_Vector_val@PAVMListener@Stack@Net@OpenHome@@V?$allocator@PAVMListener@Stack@Net@OpenHome@@@std@@@std@@@2@V?$_Vector_const_iterator@V?$_Vector_val@PAVMListener@Stack@Net@OpenHome@@V?$allocator@PAVMListener@Stack@Net@OpenHome@@@std@@@std@@@2@@Z 0042c680 f i libohNetCore:Stack.obj
 0001:0002b710       ?_Destroy@?$vector@PAVMListener@Stack@Net@OpenHome@@V?$allocator@PAVMListener@Stack@Net@OpenHome@@@std@@@std@@IAEXPAPAVMListener@Stack@Net@OpenHome@@0@Z 0042c710 f i libohNetCore:Stack.obj
 0001:0002b750       ?_Inside@?$vector@PAVMListener@Stack@Net@OpenHome@@V?$allocator@PAVMListener@Stack@Net@OpenHome@@@std@@@std@@IBE_NPBQAVMListener@Stack@Net@OpenHome@@@Z 0042c750 f i libohNetCore:Stack.obj
 0001:0002b7a0       ?_Reserve@?$vector@PAVMListener@Stack@Net@OpenHome@@V?$allocator@PAVMListener@Stack@Net@OpenHome@@@std@@@std@@IAEXI@Z 0042c7a0 f i libohNetCore:Stack.obj
 0001:0002b820       ?_Tidy@?$vector@PAVMListener@Stack@Net@OpenHome@@V?$allocator@PAVMListener@Stack@Net@OpenHome@@@std@@@std@@IAEXXZ 0042c820 f i libohNetCore:Stack.obj
 0001:0002b8b0       ?_Orphan_range@?$vector@PAVMListener@Stack@Net@OpenHome@@V?$allocator@PAVMListener@Stack@Net@OpenHome@@@std@@@std@@IBEXPAPAVMListener@Stack@Net@OpenHome@@0@Z 0042c8b0 f i libohNetCore:Stack.obj
 0001:0002b9c0       ??0?$_Vector_val@PAVMListener@Stack@Net@OpenHome@@V?$allocator@PAVMListener@Stack@Net@OpenHome@@@std@@@std@@QAE@V?$allocator@PAVMListener@Stack@Net@OpenHome@@@1@@Z 0042c9c0 f i libohNetCore:Stack.obj
 0001:0002bae0       ??1?$_Vector_val@PAVMListener@Stack@Net@OpenHome@@V?$allocator@PAVMListener@Stack@Net@OpenHome@@@std@@@std@@QAE@XZ 0042cae0 f i libohNetCore:Stack.obj
 0001:0002bbc0       ??0?$allocator@PAVMListener@Stack@Net@OpenHome@@@std@@QAE@XZ 0042cbc0 f i libohNetCore:Stack.obj
 0001:0002bbe0       ??0?$_Tree@V?$_Tmap_traits@VBrn@OpenHome@@PAVObjectType@Stack@Net@2@VBufferCmp@2@V?$allocator@U?$pair@$$CBVBrn@OpenHome@@PAVObjectType@Stack@Net@2@@std@@@std@@$0A@@std@@@std@@QAE@ABVBufferCmp@OpenHome@@ABV?$allocator@U?$pair@$$CBVBrn@OpenHome@@PAVObjectType@Stack@Net@2@@std@@@1@@Z 0042cbe0 f i libohNetCore:Stack.obj
 0001:0002bc30       ?lower_bound@?$_Tree@V?$_Tmap_traits@VBrn@OpenHome@@PAVObjectType@Stack@Net@2@VBufferCmp@2@V?$allocator@U?$pair@$$CBVBrn@OpenHome@@PAVObjectType@Stack@Net@2@@std@@@std@@$0A@@std@@@std@@QAE?AV?$_Tree_iterator@V?$_Tree_val@V?$_Tmap_traits@VBrn@OpenHome@@PAVObjectType@Stack@Net@2@VBufferCmp@2@V?$allocator@U?$pair@$$CBVBrn@OpenHome@@PAVObjectType@Stack@Net@2@@std@@@std@@$0A@@std@@@std@@@2@ABVBrn@OpenHome@@@Z 0042cc30 f i libohNetCore:Stack.obj
 0001:0002bc90       ?_Lmost@?$_Tree@V?$_Tmap_traits@VBrn@OpenHome@@PAVObjectType@Stack@Net@2@VBufferCmp@2@V?$allocator@U?$pair@$$CBVBrn@OpenHome@@PAVObjectType@Stack@Net@2@@std@@@std@@$0A@@std@@@std@@IBEAAPAU_Node@?$_Tree_nod@V?$_Tmap_traits@VBrn@OpenHome@@PAVObjectType@Stack@Net@2@VBufferCmp@2@V?$allocator@U?$pair@$$CBVBrn@OpenHome@@PAVObjectType@Stack@Net@2@@std@@@std@@$0A@@std@@@2@XZ 0042cc90 f i libohNetCore:Stack.obj
 0001:0002bcc0       ?_Lrotate@?$_Tree@V?$_Tmap_traits@VBrn@OpenHome@@PAVObjectType@Stack@Net@2@VBufferCmp@2@V?$allocator@U?$pair@$$CBVBrn@OpenHome@@PAVObjectType@Stack@Net@2@@std@@@std@@$0A@@std@@@std@@IAEXPAU_Node@?$_Tree_nod@V?$_Tmap_traits@VBrn@OpenHome@@PAVObjectType@Stack@Net@2@VBufferCmp@2@V?$allocator@U?$pair@$$CBVBrn@OpenHome@@PAVObjectType@Stack@Net@2@@std@@@std@@$0A@@std@@@2@@Z 0042ccc0 f i libohNetCore:Stack.obj
 0001:0002bde0       ?_Rmost@?$_Tree@V?$_Tmap_traits@VBrn@OpenHome@@PAVObjectType@Stack@Net@2@VBufferCmp@2@V?$allocator@U?$pair@$$CBVBrn@OpenHome@@PAVObjectType@Stack@Net@2@@std@@@std@@$0A@@std@@@std@@IBEAAPAU_Node@?$_Tree_nod@V?$_Tmap_traits@VBrn@OpenHome@@PAVObjectType@Stack@Net@2@VBufferCmp@2@V?$allocator@U?$pair@$$CBVBrn@OpenHome@@PAVObjectType@Stack@Net@2@@std@@@std@@$0A@@std@@@2@XZ 0042cde0 f i libohNetCore:Stack.obj
 0001:0002be10       ?_Root@?$_Tree@V?$_Tmap_traits@VBrn@OpenHome@@PAVObjectType@Stack@Net@2@VBufferCmp@2@V?$allocator@U?$pair@$$CBVBrn@OpenHome@@PAVObjectType@Stack@Net@2@@std@@@std@@$0A@@std@@@std@@IBEAAPAU_Node@?$_Tree_nod@V?$_Tmap_traits@VBrn@OpenHome@@PAVObjectType@Stack@Net@2@VBufferCmp@2@V?$allocator@U?$pair@$$CBVBrn@OpenHome@@PAVObjectType@Stack@Net@2@@std@@@std@@$0A@@std@@@2@XZ 0042ce10 f i libohNetCore:Stack.obj
 0001:0002be40       ?_Rrotate@?$_Tree@V?$_Tmap_traits@VBrn@OpenHome@@PAVObjectType@Stack@Net@2@VBufferCmp@2@V?$allocator@U?$pair@$$CBVBrn@OpenHome@@PAVObjectType@Stack@Net@2@@std@@@std@@$0A@@std@@@std@@IAEXPAU_Node@?$_Tree_nod@V?$_Tmap_traits@VBrn@OpenHome@@PAVObjectType@Stack@Net@2@VBufferCmp@2@V?$allocator@U?$pair@$$CBVBrn@OpenHome@@PAVObjectType@Stack@Net@2@@std@@@std@@$0A@@std@@@2@@Z 0042ce40 f i libohNetCore:Stack.obj
 0001:0002bf60       ?_Orphan_ptr@?$_Tree@V?$_Tmap_traits@VBrn@OpenHome@@PAVObjectType@Stack@Net@2@VBufferCmp@2@V?$allocator@U?$pair@$$CBVBrn@OpenHome@@PAVObjectType@Stack@Net@2@@std@@@std@@$0A@@std@@@std@@IBEXAAV12@PAU_Node@?$_Tree_nod@V?$_Tmap_traits@VBrn@OpenHome@@PAVObjectType@Stack@Net@2@VBufferCmp@2@V?$allocator@U?$pair@$$CBVBrn@OpenHome@@PAVObjectType@Stack@Net@2@@std@@@std@@$0A@@std@@@2@@Z 0042cf60 f i libohNetCore:Stack.obj
 0001:0002c070       ?_Tidy@?$_Tree@V?$_Tmap_traits@VBrn@OpenHome@@PAVObjectType@Stack@Net@2@VBufferCmp@2@V?$allocator@U?$pair@$$CBVBrn@OpenHome@@PAVObjectType@Stack@Net@2@@std@@@std@@$0A@@std@@@std@@IAEXXZ 0042d070 f i libohNetCore:Stack.obj
 0001:0002c170       ??1?$_Tree_val@V?$_Tmap_traits@VBrn@OpenHome@@PAVObjectType@Stack@Net@2@VBufferCmp@2@V?$allocator@U?$pair@$$CBVBrn@OpenHome@@PAVObjectType@Stack@Net@2@@std@@@std@@$0A@@std@@@std@@QAE@XZ 0042d170 f i libohNetCore:Stack.obj
 0001:0002c1e0       ?_Color@?$_Tree_val@V?$_Tmap_traits@VBrn@OpenHome@@PAVObjectType@Stack@Net@2@VBufferCmp@2@V?$allocator@U?$pair@$$CBVBrn@OpenHome@@PAVObjectType@Stack@Net@2@@std@@@std@@$0A@@std@@@std@@SGAADPAU_Node@?$_Tree_nod@V?$_Tmap_traits@VBrn@OpenHome@@PAVObjectType@Stack@Net@2@VBufferCmp@2@V?$allocator@U?$pair@$$CBVBrn@OpenHome@@PAVObjectType@Stack@Net@2@@std@@@std@@$0A@@std@@@2@@Z 0042d1e0 f i libohNetCore:Stack.obj
 0001:0002c1f0       ?_Isnil@?$_Tree_val@V?$_Tmap_traits@VBrn@OpenHome@@PAVObjectType@Stack@Net@2@VBufferCmp@2@V?$allocator@U?$pair@$$CBVBrn@OpenHome@@PAVObjectType@Stack@Net@2@@std@@@std@@$0A@@std@@@std@@SGAADPAU_Node@?$_Tree_nod@V?$_Tmap_traits@VBrn@OpenHome@@PAVObjectType@Stack@Net@2@VBufferCmp@2@V?$allocator@U?$pair@$$CBVBrn@OpenHome@@PAVObjectType@Stack@Net@2@@std@@@std@@$0A@@std@@@2@@Z 0042d1f0 f i libohNetCore:Stack.obj
 0001:0002c200       ?_Key@?$_Tree_val@V?$_Tmap_traits@VBrn@OpenHome@@PAVObjectType@Stack@Net@2@VBufferCmp@2@V?$allocator@U?$pair@$$CBVBrn@OpenHome@@PAVObjectType@Stack@Net@2@@std@@@std@@$0A@@std@@@std@@SGAAVBrn@OpenHome@@PAU_Node@?$_Tree_nod@V?$_Tmap_traits@VBrn@OpenHome@@PAVObjectType@Stack@Net@2@VBufferCmp@2@V?$allocator@U?$pair@$$CBVBrn@OpenHome@@PAVObjectType@Stack@Net@2@@std@@@std@@$0A@@std@@@2@@Z 0042d200 f i libohNetCore:Stack.obj
 0001:0002c220       ?_Left@?$_Tree_val@V?$_Tmap_traits@VBrn@OpenHome@@PAVObjectType@Stack@Net@2@VBufferCmp@2@V?$allocator@U?$pair@$$CBVBrn@OpenHome@@PAVObjectType@Stack@Net@2@@std@@@std@@$0A@@std@@@std@@SGAAPAU_Node@?$_Tree_nod@V?$_Tmap_traits@VBrn@OpenHome@@PAVObjectType@Stack@Net@2@VBufferCmp@2@V?$allocator@U?$pair@$$CBVBrn@OpenHome@@PAVObjectType@Stack@Net@2@@std@@@std@@$0A@@std@@@2@PAU342@@Z 0042d220 f i libohNetCore:Stack.obj
 0001:0002c230       ?_Parent@?$_Tree_val@V?$_Tmap_traits@VBrn@OpenHome@@PAVObjectType@Stack@Net@2@VBufferCmp@2@V?$allocator@U?$pair@$$CBVBrn@OpenHome@@PAVObjectType@Stack@Net@2@@std@@@std@@$0A@@std@@@std@@SGAAPAU_Node@?$_Tree_nod@V?$_Tmap_traits@VBrn@OpenHome@@PAVObjectType@Stack@Net@2@VBufferCmp@2@V?$allocator@U?$pair@$$CBVBrn@OpenHome@@PAVObjectType@Stack@Net@2@@std@@@std@@$0A@@std@@@2@PAU342@@Z 0042d230 f i libohNetCore:Stack.obj
 0001:0002c240       ?_Right@?$_Tree_val@V?$_Tmap_traits@VBrn@OpenHome@@PAVObjectType@Stack@Net@2@VBufferCmp@2@V?$allocator@U?$pair@$$CBVBrn@OpenHome@@PAVObjectType@Stack@Net@2@@std@@@std@@$0A@@std@@@std@@SGAAPAU_Node@?$_Tree_nod@V?$_Tmap_traits@VBrn@OpenHome@@PAVObjectType@Stack@Net@2@VBufferCmp@2@V?$allocator@U?$pair@$$CBVBrn@OpenHome@@PAVObjectType@Stack@Net@2@@std@@@std@@$0A@@std@@@2@PAU342@@Z 0042d240 f i libohNetCore:Stack.obj
 0001:0002c250       ?_Myval@?$_Tree_val@V?$_Tmap_traits@VBrn@OpenHome@@PAVObjectType@Stack@Net@2@VBufferCmp@2@V?$allocator@U?$pair@$$CBVBrn@OpenHome@@PAVObjectType@Stack@Net@2@@std@@@std@@$0A@@std@@@std@@SGAAU?$pair@$$CBVBrn@OpenHome@@PAVObjectType@Stack@Net@2@@2@PAU_Node@?$_Tree_nod@V?$_Tmap_traits@VBrn@OpenHome@@PAVObjectType@Stack@Net@2@VBufferCmp@2@V?$allocator@U?$pair@$$CBVBrn@OpenHome@@PAVObjectType@Stack@Net@2@@std@@@std@@$0A@@std@@@2@@Z 0042d250 f i libohNetCore:Stack.obj
 0001:0002c260       ?_Max@?$_Tree_val@V?$_Tmap_traits@VBrn@OpenHome@@PAVObjectType@Stack@Net@2@VBufferCmp@2@V?$allocator@U?$pair@$$CBVBrn@OpenHome@@PAVObjectType@Stack@Net@2@@std@@@std@@$0A@@std@@@std@@SGPAU_Node@?$_Tree_nod@V?$_Tmap_traits@VBrn@OpenHome@@PAVObjectType@Stack@Net@2@VBufferCmp@2@V?$allocator@U?$pair@$$CBVBrn@OpenHome@@PAVObjectType@Stack@Net@2@@std@@@std@@$0A@@std@@@2@PAU342@@Z 0042d260 f i libohNetCore:Stack.obj
 0001:0002c2a0       ?_Min@?$_Tree_val@V?$_Tmap_traits@VBrn@OpenHome@@PAVObjectType@Stack@Net@2@VBufferCmp@2@V?$allocator@U?$pair@$$CBVBrn@OpenHome@@PAVObjectType@Stack@Net@2@@std@@@std@@$0A@@std@@@std@@SGPAU_Node@?$_Tree_nod@V?$_Tmap_traits@VBrn@OpenHome@@PAVObjectType@Stack@Net@2@VBufferCmp@2@V?$allocator@U?$pair@$$CBVBrn@OpenHome@@PAVObjectType@Stack@Net@2@@std@@@std@@$0A@@std@@@2@PAU342@@Z 0042d2a0 f i libohNetCore:Stack.obj
 0001:0002c2e0       ??0?$allocator@U?$pair@$$CBVBrn@OpenHome@@PAVObjectType@Stack@Net@2@@std@@@std@@QAE@XZ 0042d2e0 f i libohNetCore:Stack.obj
 0001:0002c300       ?deallocate@?$allocator@U_Node@?$_Tree_nod@V?$_Tmap_traits@VBrn@OpenHome@@PAVObjectType@Stack@Net@2@VBufferCmp@2@V?$allocator@U?$pair@$$CBVBrn@OpenHome@@PAVObjectType@Stack@Net@2@@std@@@std@@$0A@@std@@@std@@@std@@QAEXPAU_Node@?$_Tree_nod@V?$_Tmap_traits@VBrn@OpenHome@@PAVObjectType@Stack@Net@2@VBufferCmp@2@V?$allocator@U?$pair@$$CBVBrn@OpenHome@@PAVObjectType@Stack@Net@2@@std@@@std@@$0A@@std@@@2@I@Z 0042d300 f i libohNetCore:Stack.obj
 0001:0002c330       ??0?$_Vector_iterator@V?$_Vector_val@PAVMListener@Stack@Net@OpenHome@@V?$allocator@PAVMListener@Stack@Net@OpenHome@@@std@@@std@@@std@@QAE@PAPAVMListener@Stack@Net@OpenHome@@PBU_Container_base12@1@@Z 0042d330 f i libohNetCore:Stack.obj
 0001:0002c370       ??Y?$_Vector_iterator@V?$_Vector_val@PAVMListener@Stack@Net@OpenHome@@V?$allocator@PAVMListener@Stack@Net@OpenHome@@@std@@@std@@@std@@QAEAAV01@H@Z 0042d370 f i libohNetCore:Stack.obj
 0001:0002c3a0       ??0?$_Tree_iterator@V?$_Tree_val@V?$_Tmap_traits@VBrn@OpenHome@@PAVObjectType@Stack@Net@2@VBufferCmp@2@V?$allocator@U?$pair@$$CBVBrn@OpenHome@@PAVObjectType@Stack@Net@2@@std@@@std@@$0A@@std@@@std@@@std@@QAE@PAU_Node@?$_Tree_nod@V?$_Tmap_traits@VBrn@OpenHome@@PAVObjectType@Stack@Net@2@VBufferCmp@2@V?$allocator@U?$pair@$$CBVBrn@OpenHome@@PAVObjectType@Stack@Net@2@@std@@@std@@$0A@@std@@@1@PBV?$_Tree_val@V?$_Tmap_traits@VBrn@OpenHome@@PAVObjectType@Stack@Net@2@VBufferCmp@2@V?$allocator@U?$pair@$$CBVBrn@OpenHome@@PAVObjectType@Stack@Net@2@@std@@@std@@$0A@@std@@@1@@Z 0042d3a0 f i libohNetCore:Stack.obj
 0001:0002c3e0       ??D?$_Tree_iterator@V?$_Tree_val@V?$_Tmap_traits@VBrn@OpenHome@@PAVObjectType@Stack@Net@2@VBufferCmp@2@V?$allocator@U?$pair@$$CBVBrn@OpenHome@@PAVObjectType@Stack@Net@2@@std@@@std@@$0A@@std@@@std@@@std@@QBEAAU?$pair@$$CBVBrn@OpenHome@@PAVObjectType@Stack@Net@2@@1@XZ 0042d3e0 f i libohNetCore:Stack.obj
 0001:0002c410       ??E?$_Tree_iterator@V?$_Tree_val@V?$_Tmap_traits@VBrn@OpenHome@@PAVObjectType@Stack@Net@2@VBufferCmp@2@V?$allocator@U?$pair@$$CBVBrn@OpenHome@@PAVObjectType@Stack@Net@2@@std@@@std@@$0A@@std@@@std@@@std@@QAEAAV01@XZ 0042d410 f i libohNetCore:Stack.obj
 0001:0002c440       ??E?$_Tree_const_iterator@V?$_Tree_val@V?$_Tmap_traits@VBrn@OpenHome@@PAVObjectType@Stack@Net@2@VBufferCmp@2@V?$allocator@U?$pair@$$CBVBrn@OpenHome@@PAVObjectType@Stack@Net@2@@std@@@std@@$0A@@std@@@std@@@std@@QAEAAV01@XZ 0042d440 f i libohNetCore:Stack.obj
 0001:0002c500       ??8?$_Tree_const_iterator@V?$_Tree_val@V?$_Tmap_traits@VBrn@OpenHome@@PAVObjectType@Stack@Net@2@VBufferCmp@2@V?$allocator@U?$pair@$$CBVBrn@OpenHome@@PAVObjectType@Stack@Net@2@@std@@@std@@$0A@@std@@@std@@@std@@QBE_NABV01@@Z 0042d500 f i libohNetCore:Stack.obj
 0001:0002c5c0       ?_Mynode@?$_Tree_unchecked_const_iterator@V?$_Tree_val@V?$_Tmap_traits@VBrn@OpenHome@@PAVObjectType@Stack@Net@2@VBufferCmp@2@V?$allocator@U?$pair@$$CBVBrn@OpenHome@@PAVObjectType@Stack@Net@2@@std@@@std@@$0A@@std@@@std@@U_Iterator_base12@2@@std@@QBEPAU_Node@?$_Tree_nod@V?$_Tmap_traits@VBrn@OpenHome@@PAVObjectType@Stack@Net@2@VBufferCmp@2@V?$allocator@U?$pair@$$CBVBrn@OpenHome@@PAVObjectType@Stack@Net@2@@std@@@std@@$0A@@std@@@2@XZ 0042d5c0 f i libohNetCore:Stack.obj
 0001:0002c5e0       ??0?$_Tree_iterator@V?$_Tree_val@V?$_Tmap_traits@PAXPAXU?$less@PAX@std@@V?$allocator@U?$pair@QAXPAX@std@@@2@$0A@@std@@@std@@@std@@QAE@PAU_Node@?$_Tree_nod@V?$_Tmap_traits@PAXPAXU?$less@PAX@std@@V?$allocator@U?$pair@QAXPAX@std@@@2@$0A@@std@@@1@PBV?$_Tree_val@V?$_Tmap_traits@PAXPAXU?$less@PAX@std@@V?$allocator@U?$pair@QAXPAX@std@@@2@$0A@@std@@@1@@Z 0042d5e0 f i libohNetCore:Stack.obj
 0001:0002c620       ??D?$_Tree_iterator@V?$_Tree_val@V?$_Tmap_traits@PAXPAXU?$less@PAX@std@@V?$allocator@U?$pair@QAXPAX@std@@@2@$0A@@std@@@std@@@std@@QBEAAU?$pair@QAXPAX@1@XZ 0042d620 f i libohNetCore:Stack.obj
 0001:0002c650       ??E?$_Tree_iterator@V?$_Tree_val@V?$_Tmap_traits@PAXPAXU?$less@PAX@std@@V?$allocator@U?$pair@QAXPAX@std@@@2@$0A@@std@@@std@@@std@@QAEAAV01@XZ 0042d650 f i libohNetCore:Stack.obj
 0001:0002c680       ??E?$_Tree_const_iterator@V?$_Tree_val@V?$_Tmap_traits@PAXPAXU?$less@PAX@std@@V?$allocator@U?$pair@QAXPAX@std@@@2@$0A@@std@@@std@@@std@@QAEAAV01@XZ 0042d680 f i libohNetCore:Stack.obj
 0001:0002c740       ??8?$_Tree_const_iterator@V?$_Tree_val@V?$_Tmap_traits@PAXPAXU?$less@PAX@std@@V?$allocator@U?$pair@QAXPAX@std@@@2@$0A@@std@@@std@@@std@@QBE_NABV01@@Z 0042d740 f i libohNetCore:Stack.obj
 0001:0002c800       ?_Mynode@?$_Tree_unchecked_const_iterator@V?$_Tree_val@V?$_Tmap_traits@PAXPAXU?$less@PAX@std@@V?$allocator@U?$pair@QAXPAX@std@@@2@$0A@@std@@@std@@U_Iterator_base12@2@@std@@QBEPAU_Node@?$_Tree_nod@V?$_Tmap_traits@PAXPAXU?$less@PAX@std@@V?$allocator@U?$pair@QAXPAX@std@@@2@$0A@@std@@@2@XZ 0042d800 f i libohNetCore:Stack.obj
 0001:0002c820       ?erase@?$_Tree@V?$_Tmap_traits@PAXPAXU?$less@PAX@std@@V?$allocator@U?$pair@QAXPAX@std@@@2@$0A@@std@@@std@@QAE?AV?$_Tree_iterator@V?$_Tree_val@V?$_Tmap_traits@PAXPAXU?$less@PAX@std@@V?$allocator@U?$pair@QAXPAX@std@@@2@$0A@@std@@@std@@@2@V?$_Tree_const_iterator@V?$_Tree_val@V?$_Tmap_traits@PAXPAXU?$less@PAX@std@@V?$allocator@U?$pair@QAXPAX@std@@@2@$0A@@std@@@std@@@2@0@Z 0042d820 f i libohNetCore:Stack.obj
 0001:0002ca20       ?_Lbound@?$_Tree@V?$_Tmap_traits@PAXPAXU?$less@PAX@std@@V?$allocator@U?$pair@QAXPAX@std@@@2@$0A@@std@@@std@@IAEPAU_Node@?$_Tree_nod@V?$_Tmap_traits@PAXPAXU?$less@PAX@std@@V?$allocator@U?$pair@QAXPAX@std@@@2@$0A@@std@@@2@ABQAX@Z 0042da20 f i libohNetCore:Stack.obj
 0001:0002cad0       ??0?$_Tree_val@V?$_Tmap_traits@PAXPAXU?$less@PAX@std@@V?$allocator@U?$pair@QAXPAX@std@@@2@$0A@@std@@@std@@QAE@ABU?$less@PAX@1@V?$allocator@U?$pair@QAXPAX@std@@@1@@Z 0042dad0 f i libohNetCore:Stack.obj
 0001:0002cbd0       ??1?$_Tree_nod@V?$_Tmap_traits@PAXPAXU?$less@PAX@std@@V?$allocator@U?$pair@QAXPAX@std@@@2@$0A@@std@@@std@@QAE@XZ 0042dbd0 f i libohNetCore:Stack.obj
 0001:0002ccb0       ??0?$allocator@U?$pair@QAXPAX@std@@@std@@QAE@ABV01@@Z 0042dcb0 f i libohNetCore:Stack.obj
 0001:0002ccd0       ?reserve@?$vector@PAVMListener@Stack@Net@OpenHome@@V?$allocator@PAVMListener@Stack@Net@OpenHome@@@std@@@std@@QAEXI@Z 0042dcd0 f i libohNetCore:Stack.obj
 0001:0002ce40       ?capacity@?$vector@PAVMListener@Stack@Net@OpenHome@@V?$allocator@PAVMListener@Stack@Net@OpenHome@@@std@@@std@@QBEIXZ 0042de40 f i libohNetCore:Stack.obj
 0001:0002ce70       ?max_size@?$vector@PAVMListener@Stack@Net@OpenHome@@V?$allocator@PAVMListener@Stack@Net@OpenHome@@@std@@@std@@QBEIXZ 0042de70 f i libohNetCore:Stack.obj
 0001:0002cea0       ?_Grow_to@?$vector@PAVMListener@Stack@Net@OpenHome@@V?$allocator@PAVMListener@Stack@Net@OpenHome@@@std@@@std@@IBEII@Z 0042dea0 f i libohNetCore:Stack.obj
 0001:0002cf20       ?_Xlen@?$vector@PAVMListener@Stack@Net@OpenHome@@V?$allocator@PAVMListener@Stack@Net@OpenHome@@@std@@@std@@IBEXXZ 0042df20 f i libohNetCore:Stack.obj
 0001:0002cf50       ??0?$allocator@PAVMListener@Stack@Net@OpenHome@@@std@@QAE@ABV01@@Z 0042df50 f i libohNetCore:Stack.obj
 0001:0002cf70       ?deallocate@?$allocator@PAVMListener@Stack@Net@OpenHome@@@std@@QAEXPAPAVMListener@Stack@Net@OpenHome@@I@Z 0042df70 f i libohNetCore:Stack.obj
 0001:0002cfa0       ?erase@?$_Tree@V?$_Tmap_traits@VBrn@OpenHome@@PAVObjectType@Stack@Net@2@VBufferCmp@2@V?$allocator@U?$pair@$$CBVBrn@OpenHome@@PAVObjectType@Stack@Net@2@@std@@@std@@$0A@@std@@@std@@QAE?AV?$_Tree_iterator@V?$_Tree_val@V?$_Tmap_traits@VBrn@OpenHome@@PAVObjectType@Stack@Net@2@VBufferCmp@2@V?$allocator@U?$pair@$$CBVBrn@OpenHome@@PAVObjectType@Stack@Net@2@@std@@@std@@$0A@@std@@@std@@@2@V?$_Tree_const_iterator@V?$_Tree_val@V?$_Tmap_traits@VBrn@OpenHome@@PAVObjectType@Stack@Net@2@VBufferCmp@2@V?$allocator@U?$pair@$$CBVBrn@OpenHome@@PAVObjectType@Stack@Net@2@@std@@@std@@$0A@@std@@@std@@@2@0@Z 0042dfa0 f i libohNetCore:Stack.obj
 0001:0002d1a0       ?_Lbound@?$_Tree@V?$_Tmap_traits@VBrn@OpenHome@@PAVObjectType@Stack@Net@2@VBufferCmp@2@V?$allocator@U?$pair@$$CBVBrn@OpenHome@@PAVObjectType@Stack@Net@2@@std@@@std@@$0A@@std@@@std@@IAEPAU_Node@?$_Tree_nod@V?$_Tmap_traits@VBrn@OpenHome@@PAVObjectType@Stack@Net@2@VBufferCmp@2@V?$allocator@U?$pair@$$CBVBrn@OpenHome@@PAVObjectType@Stack@Net@2@@std@@@std@@$0A@@std@@@2@ABVBrn@OpenHome@@@Z 0042e1a0 f i libohNetCore:Stack.obj
 0001:0002d250       ??0?$_Tree_val@V?$_Tmap_traits@VBrn@OpenHome@@PAVObjectType@Stack@Net@2@VBufferCmp@2@V?$allocator@U?$pair@$$CBVBrn@OpenHome@@PAVObjectType@Stack@Net@2@@std@@@std@@$0A@@std@@@std@@QAE@ABVBufferCmp@OpenHome@@V?$allocator@U?$pair@$$CBVBrn@OpenHome@@PAVObjectType@Stack@Net@2@@std@@@1@@Z 0042e250 f i libohNetCore:Stack.obj
 0001:0002d350       ??1?$_Tree_nod@V?$_Tmap_traits@VBrn@OpenHome@@PAVObjectType@Stack@Net@2@VBufferCmp@2@V?$allocator@U?$pair@$$CBVBrn@OpenHome@@PAVObjectType@Stack@Net@2@@std@@@std@@$0A@@std@@@std@@QAE@XZ 0042e350 f i libohNetCore:Stack.obj
 0001:0002d430       ??0?$allocator@U?$pair@$$CBVBrn@OpenHome@@PAVObjectType@Stack@Net@2@@std@@@std@@QAE@ABV01@@Z 0042e430 f i libohNetCore:Stack.obj
 0001:0002d450       ??0?$_Vector_const_iterator@V?$_Vector_val@PAVMListener@Stack@Net@OpenHome@@V?$allocator@PAVMListener@Stack@Net@OpenHome@@@std@@@std@@@std@@QAE@PAPAVMListener@Stack@Net@OpenHome@@PBU_Container_base12@1@@Z 0042e450 f i libohNetCore:Stack.obj
 0001:0002d4d0       ??Y?$_Vector_const_iterator@V?$_Vector_val@PAVMListener@Stack@Net@OpenHome@@V?$allocator@PAVMListener@Stack@Net@OpenHome@@@std@@@std@@@std@@QAEAAV01@H@Z 0042e4d0 f i libohNetCore:Stack.obj
 0001:0002d5b0       ??0?$_Tree_const_iterator@V?$_Tree_val@V?$_Tmap_traits@VBrn@OpenHome@@PAVObjectType@Stack@Net@2@VBufferCmp@2@V?$allocator@U?$pair@$$CBVBrn@OpenHome@@PAVObjectType@Stack@Net@2@@std@@@std@@$0A@@std@@@std@@@std@@QAE@PAU_Node@?$_Tree_nod@V?$_Tmap_traits@VBrn@OpenHome@@PAVObjectType@Stack@Net@2@VBufferCmp@2@V?$allocator@U?$pair@$$CBVBrn@OpenHome@@PAVObjectType@Stack@Net@2@@std@@@std@@$0A@@std@@@1@PBV?$_Tree_val@V?$_Tmap_traits@VBrn@OpenHome@@PAVObjectType@Stack@Net@2@VBufferCmp@2@V?$allocator@U?$pair@$$CBVBrn@OpenHome@@PAVObjectType@Stack@Net@2@@std@@@std@@$0A@@std@@@1@@Z 0042e5b0 f i libohNetCore:Stack.obj
 0001:0002d5f0       ??D?$_Tree_const_iterator@V?$_Tree_val@V?$_Tmap_traits@VBrn@OpenHome@@PAVObjectType@Stack@Net@2@VBufferCmp@2@V?$allocator@U?$pair@$$CBVBrn@OpenHome@@PAVObjectType@Stack@Net@2@@std@@@std@@$0A@@std@@@std@@@std@@QBEABU?$pair@$$CBVBrn@OpenHome@@PAVObjectType@Stack@Net@2@@1@XZ 0042e5f0 f i libohNetCore:Stack.obj
 0001:0002d6b0       ??E?$_Tree_unchecked_const_iterator@V?$_Tree_val@V?$_Tmap_traits@VBrn@OpenHome@@PAVObjectType@Stack@Net@2@VBufferCmp@2@V?$allocator@U?$pair@$$CBVBrn@OpenHome@@PAVObjectType@Stack@Net@2@@std@@@std@@$0A@@std@@@std@@U_Iterator_base12@2@@std@@QAEAAV01@XZ 0042e6b0 f i libohNetCore:Stack.obj
 0001:0002d770       ??0?$_Tree_const_iterator@V?$_Tree_val@V?$_Tmap_traits@PAXPAXU?$less@PAX@std@@V?$allocator@U?$pair@QAXPAX@std@@@2@$0A@@std@@@std@@@std@@QAE@PAU_Node@?$_Tree_nod@V?$_Tmap_traits@PAXPAXU?$less@PAX@std@@V?$allocator@U?$pair@QAXPAX@std@@@2@$0A@@std@@@1@PBV?$_Tree_val@V?$_Tmap_traits@PAXPAXU?$less@PAX@std@@V?$allocator@U?$pair@QAXPAX@std@@@2@$0A@@std@@@1@@Z 0042e770 f i libohNetCore:Stack.obj
 0001:0002d7b0       ??D?$_Tree_const_iterator@V?$_Tree_val@V?$_Tmap_traits@PAXPAXU?$less@PAX@std@@V?$allocator@U?$pair@QAXPAX@std@@@2@$0A@@std@@@std@@@std@@QBEABU?$pair@QAXPAX@1@XZ 0042e7b0 f i libohNetCore:Stack.obj
 0001:0002d870       ??E?$_Tree_unchecked_const_iterator@V?$_Tree_val@V?$_Tmap_traits@PAXPAXU?$less@PAX@std@@V?$allocator@U?$pair@QAXPAX@std@@@2@$0A@@std@@@std@@U_Iterator_base12@2@@std@@QAEAAV01@XZ 0042e870 f i libohNetCore:Stack.obj
 0001:0002d930       ??1?$_Tmap_traits@PAXPAXU?$less@PAX@std@@V?$allocator@U?$pair@QAXPAX@std@@@2@$0A@@std@@QAE@XZ 0042e930 f i libohNetCore:Stack.obj
 0001:0002d960       ??1?$_Tmap_traits@VBrn@OpenHome@@PAVObjectType@Stack@Net@2@VBufferCmp@2@V?$allocator@U?$pair@$$CBVBrn@OpenHome@@PAVObjectType@Stack@Net@2@@std@@@std@@$0A@@std@@QAE@XZ 0042e960 f i libohNetCore:Stack.obj
 0001:0002d990       ??0?$_Iterator012@Urandom_access_iterator_tag@std@@PAVMListener@Stack@Net@OpenHome@@HPBQAV3456@ABQAV3456@U_Iterator_base12@2@@std@@QAE@XZ 0042e990 f i libohNetCore:Stack.obj
 0001:0002d9c0       ?clear@?$_Tree@V?$_Tmap_traits@PAXPAXU?$less@PAX@std@@V?$allocator@U?$pair@QAXPAX@std@@@2@$0A@@std@@@std@@QAEXXZ 0042e9c0 f i libohNetCore:Stack.obj
 0001:0002da40       ??0?$_Tree_nod@V?$_Tmap_traits@PAXPAXU?$less@PAX@std@@V?$allocator@U?$pair@QAXPAX@std@@@2@$0A@@std@@@std@@QAE@ABU?$less@PAX@1@V?$allocator@U?$pair@QAXPAX@std@@@1@@Z 0042ea40 f i libohNetCore:Stack.obj
 0001:0002db50       ?allocate@?$allocator@U_Node@?$_Tree_nod@V?$_Tmap_traits@PAXPAXU?$less@PAX@std@@V?$allocator@U?$pair@QAXPAX@std@@@2@$0A@@std@@@std@@@std@@QAEPAU_Node@?$_Tree_nod@V?$_Tmap_traits@PAXPAXU?$less@PAX@std@@V?$allocator@U?$pair@QAXPAX@std@@@2@$0A@@std@@@2@I@Z 0042eb50 f i libohNetCore:Stack.obj
 0001:0002db80       ?allocate@?$allocator@PAVMListener@Stack@Net@OpenHome@@@std@@QAEPAPAVMListener@Stack@Net@OpenHome@@I@Z 0042eb80 f i libohNetCore:Stack.obj
 0001:0002dbb0       ?max_size@?$allocator@PAVMListener@Stack@Net@OpenHome@@@std@@QBEIXZ 0042ebb0 f i libohNetCore:Stack.obj
 0001:0002dc00       ?clear@?$_Tree@V?$_Tmap_traits@VBrn@OpenHome@@PAVObjectType@Stack@Net@2@VBufferCmp@2@V?$allocator@U?$pair@$$CBVBrn@OpenHome@@PAVObjectType@Stack@Net@2@@std@@@std@@$0A@@std@@@std@@QAEXXZ 0042ec00 f i libohNetCore:Stack.obj
 0001:0002dc80       ??0?$_Tree_nod@V?$_Tmap_traits@VBrn@OpenHome@@PAVObjectType@Stack@Net@2@VBufferCmp@2@V?$allocator@U?$pair@$$CBVBrn@OpenHome@@PAVObjectType@Stack@Net@2@@std@@@std@@$0A@@std@@@std@@QAE@ABVBufferCmp@OpenHome@@V?$allocator@U?$pair@$$CBVBrn@OpenHome@@PAVObjectType@Stack@Net@2@@std@@@1@@Z 0042ec80 f i libohNetCore:Stack.obj
 0001:0002dd90       ?allocate@?$allocator@U_Node@?$_Tree_nod@V?$_Tmap_traits@VBrn@OpenHome@@PAVObjectType@Stack@Net@2@VBufferCmp@2@V?$allocator@U?$pair@$$CBVBrn@OpenHome@@PAVObjectType@Stack@Net@2@@std@@@std@@$0A@@std@@@std@@@std@@QAEPAU_Node@?$_Tree_nod@V?$_Tmap_traits@VBrn@OpenHome@@PAVObjectType@Stack@Net@2@VBufferCmp@2@V?$allocator@U?$pair@$$CBVBrn@OpenHome@@PAVObjectType@Stack@Net@2@@std@@@std@@$0A@@std@@@2@I@Z 0042ed90 f i libohNetCore:Stack.obj
 0001:0002ddc0       ??E?$_Tree_const_iterator@V?$_Tree_val@V?$_Tmap_traits@VBrn@OpenHome@@PAVObjectType@Stack@Net@2@VBufferCmp@2@V?$allocator@U?$pair@$$CBVBrn@OpenHome@@PAVObjectType@Stack@Net@2@@std@@@std@@$0A@@std@@@std@@@std@@QAE?AV01@H@Z 0042edc0 f i libohNetCore:Stack.obj
 0001:0002de90       ??0?$_Tree_unchecked_const_iterator@V?$_Tree_val@V?$_Tmap_traits@VBrn@OpenHome@@PAVObjectType@Stack@Net@2@VBufferCmp@2@V?$allocator@U?$pair@$$CBVBrn@OpenHome@@PAVObjectType@Stack@Net@2@@std@@@std@@$0A@@std@@@std@@U_Iterator_base12@2@@std@@QAE@PAU_Node@?$_Tree_nod@V?$_Tmap_traits@VBrn@OpenHome@@PAVObjectType@Stack@Net@2@VBufferCmp@2@V?$allocator@U?$pair@$$CBVBrn@OpenHome@@PAVObjectType@Stack@Net@2@@std@@@std@@$0A@@std@@@1@PBV?$_Tree_val@V?$_Tmap_traits@VBrn@OpenHome@@PAVObjectType@Stack@Net@2@VBufferCmp@2@V?$allocator@U?$pair@$$CBVBrn@OpenHome@@PAVObjectType@Stack@Net@2@@std@@@std@@$0A@@std@@@1@@Z 0042ee90 f i libohNetCore:Stack.obj
 0001:0002df10       ??E?$_Tree_const_iterator@V?$_Tree_val@V?$_Tmap_traits@PAXPAXU?$less@PAX@std@@V?$allocator@U?$pair@QAXPAX@std@@@2@$0A@@std@@@std@@@std@@QAE?AV01@H@Z 0042ef10 f i libohNetCore:Stack.obj
 0001:0002dfe0       ??0?$_Tree_unchecked_const_iterator@V?$_Tree_val@V?$_Tmap_traits@PAXPAXU?$less@PAX@std@@V?$allocator@U?$pair@QAXPAX@std@@@2@$0A@@std@@@std@@U_Iterator_base12@2@@std@@QAE@PAU_Node@?$_Tree_nod@V?$_Tmap_traits@PAXPAXU?$less@PAX@std@@V?$allocator@U?$pair@QAXPAX@std@@@2@$0A@@std@@@1@PBV?$_Tree_val@V?$_Tmap_traits@PAXPAXU?$less@PAX@std@@V?$allocator@U?$pair@QAXPAX@std@@@2@$0A@@std@@@1@@Z 0042efe0 f i libohNetCore:Stack.obj
 0001:0002e060       ??0?$_Iterator012@Ubidirectional_iterator_tag@std@@U?$pair@$$CBVBrn@OpenHome@@PAVObjectType@Stack@Net@2@@2@HPBU32@ABU32@U_Iterator_base12@2@@std@@QAE@XZ 0042f060 f i libohNetCore:Stack.obj
 0001:0002e090       ??0?$_Iterator012@Ubidirectional_iterator_tag@std@@U?$pair@QAXPAX@2@HPBU32@ABU32@U_Iterator_base12@2@@std@@QAE@XZ 0042f090 f i libohNetCore:Stack.obj
 0001:0002e0c0       ?_Erase@?$_Tree@V?$_Tmap_traits@PAXPAXU?$less@PAX@std@@V?$allocator@U?$pair@QAXPAX@std@@@2@$0A@@std@@@std@@IAEXPAU_Node@?$_Tree_nod@V?$_Tmap_traits@PAXPAXU?$less@PAX@std@@V?$allocator@U?$pair@QAXPAX@std@@@2@$0A@@std@@@2@@Z 0042f0c0 f i libohNetCore:Stack.obj
 0001:0002e160       ??0?$_Tmap_traits@PAXPAXU?$less@PAX@std@@V?$allocator@U?$pair@QAXPAX@std@@@2@$0A@@std@@QAE@U?$less@PAX@1@@Z 0042f160 f i libohNetCore:Stack.obj
 0001:0002e190       ?_Erase@?$_Tree@V?$_Tmap_traits@VBrn@OpenHome@@PAVObjectType@Stack@Net@2@VBufferCmp@2@V?$allocator@U?$pair@$$CBVBrn@OpenHome@@PAVObjectType@Stack@Net@2@@std@@@std@@$0A@@std@@@std@@IAEXPAU_Node@?$_Tree_nod@V?$_Tmap_traits@VBrn@OpenHome@@PAVObjectType@Stack@Net@2@VBufferCmp@2@V?$allocator@U?$pair@$$CBVBrn@OpenHome@@PAVObjectType@Stack@Net@2@@std@@@std@@$0A@@std@@@2@@Z 0042f190 f i libohNetCore:Stack.obj
 0001:0002e230       ??0?$_Tmap_traits@VBrn@OpenHome@@PAVObjectType@Stack@Net@2@VBufferCmp@2@V?$allocator@U?$pair@$$CBVBrn@OpenHome@@PAVObjectType@Stack@Net@2@@std@@@std@@$0A@@std@@QAE@VBufferCmp@OpenHome@@@Z 0042f230 f i libohNetCore:Stack.obj
 0001:0002e260       ??$?0AAVBrn@OpenHome@@AAPAVObjectType@Stack@Net@1@@?$pair@VBrn@OpenHome@@PAVObjectType@Stack@Net@2@@std@@QAE@AAVBrn@OpenHome@@AAPAVObjectType@Stack@Net@3@@Z 0042f260 f i libohNetCore:Stack.obj
 0001:0002e2a0       ??$insert@U?$pair@VBrn@OpenHome@@PAVObjectType@Stack@Net@2@@std@@@?$_Tree@V?$_Tmap_traits@VBrn@OpenHome@@PAVObjectType@Stack@Net@2@VBufferCmp@2@V?$allocator@U?$pair@$$CBVBrn@OpenHome@@PAVObjectType@Stack@Net@2@@std@@@std@@$0A@@std@@@std@@QAE?AU?$pair@V?$_Tree_iterator@V?$_Tree_val@V?$_Tmap_traits@VBrn@OpenHome@@PAVObjectType@Stack@Net@2@VBufferCmp@2@V?$allocator@U?$pair@$$CBVBrn@OpenHome@@PAVObjectType@Stack@Net@2@@std@@@std@@$0A@@std@@@std@@@std@@_N@1@$$QAU?$pair@VBrn@OpenHome@@PAVObjectType@Stack@Net@2@@1@@Z 0042f2a0 f i libohNetCore:Stack.obj
 0001:0002e300       ??$?0AAPAXAAPAX@?$pair@PAXPAX@std@@QAE@AAPAX0@Z 0042f300 f i libohNetCore:Stack.obj
 0001:0002e340       ??$insert@U?$pair@PAXPAX@std@@@?$_Tree@V?$_Tmap_traits@PAXPAXU?$less@PAX@std@@V?$allocator@U?$pair@QAXPAX@std@@@2@$0A@@std@@@std@@QAE?AU?$pair@V?$_Tree_iterator@V?$_Tree_val@V?$_Tmap_traits@PAXPAXU?$less@PAX@std@@V?$allocator@U?$pair@QAXPAX@std@@@2@$0A@@std@@@std@@@std@@_N@1@$$QAU?$pair@PAXPAX@1@@Z 0042f340 f i libohNetCore:Stack.obj
 0001:0002e3a0       ??$addressof@U?$pair@QAXPAX@std@@@std@@YGPAU?$pair@QAXPAX@0@AAU10@@Z 0042f3a0 f i libohNetCore:Stack.obj
 0001:0002e3b0       ??$_Dest_val@V?$allocator@U?$pair@QAXPAX@std@@@std@@U?$pair@QAXPAX@2@@std@@YGXAAV?$allocator@U?$pair@QAXPAX@std@@@0@PAU?$pair@QAXPAX@0@@Z 0042f3b0 f i libohNetCore:Stack.obj
 0001:0002e3d0       ??$_Debug_lt_pred@U?$less@PAX@std@@PAXPAX@std@@YG_NU?$less@PAX@0@ABQAXAAPAXPB_WI@Z 0042f3d0 f i libohNetCore:Stack.obj
 0001:0002e430       ??$addressof@QAVMListener@Stack@Net@OpenHome@@@std@@YGPBQAVMListener@Stack@Net@OpenHome@@ABQAV1234@@Z 0042f430 f i libohNetCore:Stack.obj
 0001:0002e440       ??$_Cons_val@V?$allocator@PAVMListener@Stack@Net@OpenHome@@@std@@PAVMListener@Stack@Net@OpenHome@@AAPAV3456@@std@@YGXAAV?$allocator@PAVMListener@Stack@Net@OpenHome@@@0@PAPAVMListener@Stack@Net@OpenHome@@AAPAV2345@@Z 0042f440 f i libohNetCore:Stack.obj
 0001:0002e470       ??$_Cons_val@V?$allocator@PAVMListener@Stack@Net@OpenHome@@@std@@PAVMListener@Stack@Net@OpenHome@@ABQAV3456@@std@@YGXAAV?$allocator@PAVMListener@Stack@Net@OpenHome@@@0@PAPAVMListener@Stack@Net@OpenHome@@ABQAV2345@@Z 0042f470 f i libohNetCore:Stack.obj
 0001:0002e4a0       ??$_Move@PAPAVMListener@Stack@Net@OpenHome@@PAPAV1234@@std@@YGPAPAVMListener@Stack@Net@OpenHome@@PAPAV1234@00@Z 0042f4a0 f i libohNetCore:Stack.obj
 0001:0002e4f0       ??$addressof@U?$pair@$$CBVBrn@OpenHome@@PAVObjectType@Stack@Net@2@@std@@@std@@YGPAU?$pair@$$CBVBrn@OpenHome@@PAVObjectType@Stack@Net@2@@0@AAU10@@Z 0042f4f0 f i libohNetCore:Stack.obj
 0001:0002e500       ??$_Dest_val@V?$allocator@U?$pair@$$CBVBrn@OpenHome@@PAVObjectType@Stack@Net@2@@std@@@std@@U?$pair@$$CBVBrn@OpenHome@@PAVObjectType@Stack@Net@2@@2@@std@@YGXAAV?$allocator@U?$pair@$$CBVBrn@OpenHome@@PAVObjectType@Stack@Net@2@@std@@@0@PAU?$pair@$$CBVBrn@OpenHome@@PAVObjectType@Stack@Net@2@@0@@Z 0042f500 f i libohNetCore:Stack.obj
 0001:0002e520       ??$_Kfn@QAXPAX@?$_Tmap_traits@PAXPAXU?$less@PAX@std@@V?$allocator@U?$pair@QAXPAX@std@@@2@$0A@@std@@SGABQAXABU?$pair@QAXPAX@1@@Z 0042f520 f i libohNetCore:Stack.obj
 0001:0002e530       ??$_Destroy_range@V?$allocator@PAVMListener@Stack@Net@OpenHome@@@std@@@std@@YGXPAPAVMListener@Stack@Net@OpenHome@@0AAV?$allocator@PAVMListener@Stack@Net@OpenHome@@@0@@Z 0042f530 f i libohNetCore:Stack.obj
 0001:0002e580       ??$?0PAVMListener@Stack@Net@OpenHome@@@?$allocator@U_Container_proxy@std@@@std@@QAE@ABV?$allocator@PAVMListener@Stack@Net@OpenHome@@@1@@Z 0042f580 f i libohNetCore:Stack.obj
 0001:0002e5a0       ??$_Kfn@$$CBVBrn@OpenHome@@PAVObjectType@Stack@Net@2@@?$_Tmap_traits@VBrn@OpenHome@@PAVObjectType@Stack@Net@2@VBufferCmp@2@V?$allocator@U?$pair@$$CBVBrn@OpenHome@@PAVObjectType@Stack@Net@2@@std@@@std@@$0A@@std@@SGABVBrn@OpenHome@@ABU?$pair@$$CBVBrn@OpenHome@@PAVObjectType@Stack@Net@2@@1@@Z 0042f5a0 f i libohNetCore:Stack.obj
 0001:0002e5b0       ??$_Debug_lt_pred@U?$less@PAX@std@@PAXPAX@std@@YG_NU?$less@PAX@0@AAPAXABQAXPB_WI@Z 0042f5b0 f i libohNetCore:Stack.obj
 0001:0002e610       ??$?0U_Node@?$_Tree_nod@V?$_Tmap_traits@PAXPAXU?$less@PAX@std@@V?$allocator@U?$pair@QAXPAX@std@@@2@$0A@@std@@@std@@@?$allocator@U_Container_proxy@std@@@std@@QAE@ABV?$allocator@U_Node@?$_Tree_nod@V?$_Tmap_traits@PAXPAXU?$less@PAX@std@@V?$allocator@U?$pair@QAXPAX@std@@@2@$0A@@std@@@std@@@1@@Z 0042f610 f i libohNetCore:Stack.obj
 0001:0002e630       ??$_Umove@PAPAVMListener@Stack@Net@OpenHome@@@?$vector@PAVMListener@Stack@Net@OpenHome@@V?$allocator@PAVMListener@Stack@Net@OpenHome@@@std@@@std@@IAEPAPAVMListener@Stack@Net@OpenHome@@PAPAV2345@00@Z 0042f630 f i libohNetCore:Stack.obj
 0001:0002e670       ??$?0U_Node@?$_Tree_nod@V?$_Tmap_traits@VBrn@OpenHome@@PAVObjectType@Stack@Net@2@VBufferCmp@2@V?$allocator@U?$pair@$$CBVBrn@OpenHome@@PAVObjectType@Stack@Net@2@@std@@@std@@$0A@@std@@@std@@@?$allocator@U_Container_proxy@std@@@std@@QAE@ABV?$allocator@U_Node@?$_Tree_nod@V?$_Tmap_traits@VBrn@OpenHome@@PAVObjectType@Stack@Net@2@VBufferCmp@2@V?$allocator@U?$pair@$$CBVBrn@OpenHome@@PAVObjectType@Stack@Net@2@@std@@@std@@$0A@@std@@@std@@@1@@Z 0042f670 f i libohNetCore:Stack.obj
 0001:0002e690       ??$?0U?$pair@QAXPAX@std@@@?$allocator@U_Node@?$_Tree_nod@V?$_Tmap_traits@PAXPAXU?$less@PAX@std@@V?$allocator@U?$pair@QAXPAX@std@@@2@$0A@@std@@@std@@@std@@QAE@ABV?$allocator@U?$pair@QAXPAX@std@@@1@@Z 0042f690 f i libohNetCore:Stack.obj
 0001:0002e6b0       ??$_Allocate@U_Node@?$_Tree_nod@V?$_Tmap_traits@PAXPAXU?$less@PAX@std@@V?$allocator@U?$pair@QAXPAX@std@@@2@$0A@@std@@@std@@@std@@YGPAU_Node@?$_Tree_nod@V?$_Tmap_traits@PAXPAXU?$less@PAX@std@@V?$allocator@U?$pair@QAXPAX@std@@@2@$0A@@std@@@0@IPAU120@@Z 0042f6b0 f i libohNetCore:Stack.obj
 0001:0002e730       ??$_Allocate@PAVMListener@Stack@Net@OpenHome@@@std@@YGPAPAVMListener@Stack@Net@OpenHome@@IPAPAV1234@@Z 0042f730 f i libohNetCore:Stack.obj
 0001:0002e7b0       ??$?0U?$pair@$$CBVBrn@OpenHome@@PAVObjectType@Stack@Net@2@@std@@@?$allocator@U_Node@?$_Tree_nod@V?$_Tmap_traits@VBrn@OpenHome@@PAVObjectType@Stack@Net@2@VBufferCmp@2@V?$allocator@U?$pair@$$CBVBrn@OpenHome@@PAVObjectType@Stack@Net@2@@std@@@std@@$0A@@std@@@std@@@std@@QAE@ABV?$allocator@U?$pair@$$CBVBrn@OpenHome@@PAVObjectType@Stack@Net@2@@std@@@1@@Z 0042f7b0 f i libohNetCore:Stack.obj
 0001:0002e7d0       ??$_Allocate@U_Node@?$_Tree_nod@V?$_Tmap_traits@VBrn@OpenHome@@PAVObjectType@Stack@Net@2@VBufferCmp@2@V?$allocator@U?$pair@$$CBVBrn@OpenHome@@PAVObjectType@Stack@Net@2@@std@@@std@@$0A@@std@@@std@@@std@@YGPAU_Node@?$_Tree_nod@V?$_Tmap_traits@VBrn@OpenHome@@PAVObjectType@Stack@Net@2@VBufferCmp@2@V?$allocator@U?$pair@$$CBVBrn@OpenHome@@PAVObjectType@Stack@Net@2@@std@@@std@@$0A@@std@@@0@IPAU120@@Z 0042f7d0 f i libohNetCore:Stack.obj
 0001:0002e850       ?_Linsert@?$_Tree@V?$_Tmap_traits@PAXPAXU?$less@PAX@std@@V?$allocator@U?$pair@QAXPAX@std@@@2@$0A@@std@@@std@@QAE?AU?$pair@V?$_Tree_iterator@V?$_Tree_val@V?$_Tmap_traits@PAXPAXU?$less@PAX@std@@V?$allocator@U?$pair@QAXPAX@std@@@2@$0A@@std@@@std@@@std@@_N@2@PAU_Node@?$_Tree_nod@V?$_Tmap_traits@PAXPAXU?$less@PAX@std@@V?$allocator@U?$pair@QAXPAX@std@@@2@$0A@@std@@@2@_N@Z 0042f850 f i libohNetCore:Stack.obj
 0001:0002ec30       ?destroy@?$allocator@U?$pair@QAXPAX@std@@@std@@QAEXPAU?$pair@QAXPAX@2@@Z 0042fc30 f i libohNetCore:Stack.obj
 0001:0002ec60       ??R?$less@PAX@std@@QBE_NABQAX0@Z 0042fc60 f i libohNetCore:Stack.obj
 0001:0002ec90       ?construct@?$allocator@PAVMListener@Stack@Net@OpenHome@@@std@@QAEXPAPAVMListener@Stack@Net@OpenHome@@ABQAV3456@@Z 0042fc90 f i libohNetCore:Stack.obj
 0001:0002ecc0       ?_Linsert@?$_Tree@V?$_Tmap_traits@VBrn@OpenHome@@PAVObjectType@Stack@Net@2@VBufferCmp@2@V?$allocator@U?$pair@$$CBVBrn@OpenHome@@PAVObjectType@Stack@Net@2@@std@@@std@@$0A@@std@@@std@@QAE?AU?$pair@V?$_Tree_iterator@V?$_Tree_val@V?$_Tmap_traits@VBrn@OpenHome@@PAVObjectType@Stack@Net@2@VBufferCmp@2@V?$allocator@U?$pair@$$CBVBrn@OpenHome@@PAVObjectType@Stack@Net@2@@std@@@std@@$0A@@std@@@std@@@std@@_N@2@PAU_Node@?$_Tree_nod@V?$_Tmap_traits@VBrn@OpenHome@@PAVObjectType@Stack@Net@2@VBufferCmp@2@V?$allocator@U?$pair@$$CBVBrn@OpenHome@@PAVObjectType@Stack@Net@2@@std@@@std@@$0A@@std@@@2@_N@Z 0042fcc0 f i libohNetCore:Stack.obj
 0001:0002f0a0       ?destroy@?$allocator@U?$pair@$$CBVBrn@OpenHome@@PAVObjectType@Stack@Net@2@@std@@@std@@QAEXPAU?$pair@$$CBVBrn@OpenHome@@PAVObjectType@Stack@Net@2@@2@@Z 004300a0 f i libohNetCore:Stack.obj
 0001:0002f0d0       ?_Insert@?$_Tree@V?$_Tmap_traits@PAXPAXU?$less@PAX@std@@V?$allocator@U?$pair@QAXPAX@std@@@2@$0A@@std@@@std@@IAE?AV?$_Tree_iterator@V?$_Tree_val@V?$_Tmap_traits@PAXPAXU?$less@PAX@std@@V?$allocator@U?$pair@QAXPAX@std@@@2@$0A@@std@@@std@@@2@_NPAU_Node@?$_Tree_nod@V?$_Tmap_traits@PAXPAXU?$less@PAX@std@@V?$allocator@U?$pair@QAXPAX@std@@@2@$0A@@std@@@2@1@Z 004300d0 f i libohNetCore:Stack.obj
 0001:0002f490       ?_Insert@?$_Tree@V?$_Tmap_traits@VBrn@OpenHome@@PAVObjectType@Stack@Net@2@VBufferCmp@2@V?$allocator@U?$pair@$$CBVBrn@OpenHome@@PAVObjectType@Stack@Net@2@@std@@@std@@$0A@@std@@@std@@IAE?AV?$_Tree_iterator@V?$_Tree_val@V?$_Tmap_traits@VBrn@OpenHome@@PAVObjectType@Stack@Net@2@VBufferCmp@2@V?$allocator@U?$pair@$$CBVBrn@OpenHome@@PAVObjectType@Stack@Net@2@@std@@@std@@$0A@@std@@@std@@@2@_NPAU_Node@?$_Tree_nod@V?$_Tmap_traits@VBrn@OpenHome@@PAVObjectType@Stack@Net@2@VBufferCmp@2@V?$allocator@U?$pair@$$CBVBrn@OpenHome@@PAVObjectType@Stack@Net@2@@std@@@std@@$0A@@std@@@2@1@Z 00430490 f i libohNetCore:Stack.obj
 0001:0002f850       ??F?$_Tree_iterator@V?$_Tree_val@V?$_Tmap_traits@VBrn@OpenHome@@PAVObjectType@Stack@Net@2@VBufferCmp@2@V?$allocator@U?$pair@$$CBVBrn@OpenHome@@PAVObjectType@Stack@Net@2@@std@@@std@@$0A@@std@@@std@@@std@@QAEAAV01@XZ 00430850 f i libohNetCore:Stack.obj
 0001:0002f880       ??0?$pair@V?$_Tree_iterator@V?$_Tree_val@V?$_Tmap_traits@VBrn@OpenHome@@PAVObjectType@Stack@Net@2@VBufferCmp@2@V?$allocator@U?$pair@$$CBVBrn@OpenHome@@PAVObjectType@Stack@Net@2@@std@@@std@@$0A@@std@@@std@@@std@@_N@std@@QAE@$$QAV?$_Tree_iterator@V?$_Tree_val@V?$_Tmap_traits@VBrn@OpenHome@@PAVObjectType@Stack@Net@2@VBufferCmp@2@V?$allocator@U?$pair@$$CBVBrn@OpenHome@@PAVObjectType@Stack@Net@2@@std@@@std@@$0A@@std@@@std@@@1@$$QA_N@Z 00430880 f i libohNetCore:Stack.obj
 0001:0002f8c0       ??0?$pair@V?$_Tree_iterator@V?$_Tree_val@V?$_Tmap_traits@PAXPAXU?$less@PAX@std@@V?$allocator@U?$pair@QAXPAX@std@@@2@$0A@@std@@@std@@@std@@_N@std@@QAE@$$QAV?$_Tree_iterator@V?$_Tree_val@V?$_Tmap_traits@PAXPAXU?$less@PAX@std@@V?$allocator@U?$pair@QAXPAX@std@@@2@$0A@@std@@@std@@@1@$$QA_N@Z 004308c0 f i libohNetCore:Stack.obj
 0001:0002f900       ??F?$_Tree_iterator@V?$_Tree_val@V?$_Tmap_traits@PAXPAXU?$less@PAX@std@@V?$allocator@U?$pair@QAXPAX@std@@@2@$0A@@std@@@std@@@std@@QAEAAV01@XZ 00430900 f i libohNetCore:Stack.obj
 0001:0002f930       ?max_size@?$_Tree@V?$_Tmap_traits@PAXPAXU?$less@PAX@std@@V?$allocator@U?$pair@QAXPAX@std@@@2@$0A@@std@@@std@@QBEIXZ 00430930 f i libohNetCore:Stack.obj
 0001:0002f960       ?max_size@?$_Tree@V?$_Tmap_traits@VBrn@OpenHome@@PAVObjectType@Stack@Net@2@VBufferCmp@2@V?$allocator@U?$pair@$$CBVBrn@OpenHome@@PAVObjectType@Stack@Net@2@@std@@@std@@$0A@@std@@@std@@QBEIXZ 00430960 f i libohNetCore:Stack.obj
 0001:0002f990       ??F?$_Tree_const_iterator@V?$_Tree_val@V?$_Tmap_traits@VBrn@OpenHome@@PAVObjectType@Stack@Net@2@VBufferCmp@2@V?$allocator@U?$pair@$$CBVBrn@OpenHome@@PAVObjectType@Stack@Net@2@@std@@@std@@$0A@@std@@@std@@@std@@QAEAAV01@XZ 00430990 f i libohNetCore:Stack.obj
 0001:0002fab0       ??0?$_Pair_base@V?$_Tree_iterator@V?$_Tree_val@V?$_Tmap_traits@VBrn@OpenHome@@PAVObjectType@Stack@Net@2@VBufferCmp@2@V?$allocator@U?$pair@$$CBVBrn@OpenHome@@PAVObjectType@Stack@Net@2@@std@@@std@@$0A@@std@@@std@@@std@@_N@std@@QAE@$$QAV?$_Tree_iterator@V?$_Tree_val@V?$_Tmap_traits@VBrn@OpenHome@@PAVObjectType@Stack@Net@2@VBufferCmp@2@V?$allocator@U?$pair@$$CBVBrn@OpenHome@@PAVObjectType@Stack@Net@2@@std@@@std@@$0A@@std@@@std@@@1@$$QA_N@Z 00430ab0 f i libohNetCore:Stack.obj
 0001:0002fb30       ??0?$_Pair_base@V?$_Tree_iterator@V?$_Tree_val@V?$_Tmap_traits@PAXPAXU?$less@PAX@std@@V?$allocator@U?$pair@QAXPAX@std@@@2@$0A@@std@@@std@@@std@@_N@std@@QAE@$$QAV?$_Tree_iterator@V?$_Tree_val@V?$_Tmap_traits@PAXPAXU?$less@PAX@std@@V?$allocator@U?$pair@QAXPAX@std@@@2@$0A@@std@@@std@@@1@$$QA_N@Z 00430b30 f i libohNetCore:Stack.obj
 0001:0002fbb0       ??F?$_Tree_const_iterator@V?$_Tree_val@V?$_Tmap_traits@PAXPAXU?$less@PAX@std@@V?$allocator@U?$pair@QAXPAX@std@@@2@$0A@@std@@@std@@@std@@QAEAAV01@XZ 00430bb0 f i libohNetCore:Stack.obj
 0001:0002fcd0       ?max_size@?$allocator@U?$pair@QAXPAX@std@@@std@@QBEIXZ 00430cd0 f i libohNetCore:Stack.obj
 0001:0002fd20       ?max_size@?$allocator@U?$pair@$$CBVBrn@OpenHome@@PAVObjectType@Stack@Net@2@@std@@@std@@QBEIXZ 00430d20 f i libohNetCore:Stack.obj
 0001:0002fd70       ??F?$_Tree_unchecked_const_iterator@V?$_Tree_val@V?$_Tmap_traits@VBrn@OpenHome@@PAVObjectType@Stack@Net@2@VBufferCmp@2@V?$allocator@U?$pair@$$CBVBrn@OpenHome@@PAVObjectType@Stack@Net@2@@std@@@std@@$0A@@std@@@std@@U_Iterator_base12@2@@std@@QAEAAV01@XZ 00430d70 f i libohNetCore:Stack.obj
 0001:0002fe60       ??F?$_Tree_unchecked_const_iterator@V?$_Tree_val@V?$_Tmap_traits@PAXPAXU?$less@PAX@std@@V?$allocator@U?$pair@QAXPAX@std@@@2@$0A@@std@@@std@@U_Iterator_base12@2@@std@@QAEAAV01@XZ 00430e60 f i libohNetCore:Stack.obj
 0001:0002ff50       ??$forward@AAPAVObjectType@Stack@Net@OpenHome@@@std@@YGAAPAVObjectType@Stack@Net@OpenHome@@AAPAV1234@@Z 00430f50 f i libohNetCore:Stack.obj
 0001:0002ff60       ??$?0AAVBrn@OpenHome@@AAPAVObjectType@Stack@Net@1@@?$_Pair_base@VBrn@OpenHome@@PAVObjectType@Stack@Net@2@@std@@QAE@AAVBrn@OpenHome@@AAPAVObjectType@Stack@Net@3@@Z 00430f60 f i libohNetCore:Stack.obj
 0001:0002ffe0       ??$forward@U?$pair@VBrn@OpenHome@@PAVObjectType@Stack@Net@2@@std@@@std@@YG$$QAU?$pair@VBrn@OpenHome@@PAVObjectType@Stack@Net@2@@0@AAU10@@Z 00430fe0 f i libohNetCore:Stack.obj
 0001:0002fff0       ??$_Buynode@U?$pair@VBrn@OpenHome@@PAVObjectType@Stack@Net@2@@std@@@?$_Tree_val@V?$_Tmap_traits@VBrn@OpenHome@@PAVObjectType@Stack@Net@2@VBufferCmp@2@V?$allocator@U?$pair@$$CBVBrn@OpenHome@@PAVObjectType@Stack@Net@2@@std@@@std@@$0A@@std@@@std@@QAEPAU_Node@?$_Tree_nod@V?$_Tmap_traits@VBrn@OpenHome@@PAVObjectType@Stack@Net@2@VBufferCmp@2@V?$allocator@U?$pair@$$CBVBrn@OpenHome@@PAVObjectType@Stack@Net@2@@std@@@std@@$0A@@std@@@1@$$QAU?$pair@VBrn@OpenHome@@PAVObjectType@Stack@Net@2@@1@@Z 00430ff0 f i libohNetCore:Stack.obj
 0001:000300d0       ??$forward@AAPAX@std@@YGAAPAXAAPAX@Z 004310d0 f i libohNetCore:Stack.obj
 0001:000300e0       ??$?0AAPAXAAPAX@?$_Pair_base@PAXPAX@std@@QAE@AAPAX0@Z 004310e0 f i libohNetCore:Stack.obj
 0001:00030130       ??$forward@U?$pair@PAXPAX@std@@@std@@YG$$QAU?$pair@PAXPAX@0@AAU10@@Z 00431130 f i libohNetCore:Stack.obj
 0001:00030140       ??$_Buynode@U?$pair@PAXPAX@std@@@?$_Tree_val@V?$_Tmap_traits@PAXPAXU?$less@PAX@std@@V?$allocator@U?$pair@QAXPAX@std@@@2@$0A@@std@@@std@@QAEPAU_Node@?$_Tree_nod@V?$_Tmap_traits@PAXPAXU?$less@PAX@std@@V?$allocator@U?$pair@QAXPAX@std@@@2@$0A@@std@@@1@$$QAU?$pair@PAXPAX@1@@Z 00431140 f i libohNetCore:Stack.obj
 0001:00030220       ??$forward@AAPAVMListener@Stack@Net@OpenHome@@@std@@YGAAPAVMListener@Stack@Net@OpenHome@@AAPAV1234@@Z 00431220 f i libohNetCore:Stack.obj
 0001:00030230       ??$construct@AAPAVMListener@Stack@Net@OpenHome@@@?$allocator@PAVMListener@Stack@Net@OpenHome@@@std@@QAEXPAPAVMListener@Stack@Net@OpenHome@@AAPAV2345@@Z 00431230 f i libohNetCore:Stack.obj
 0001:000302d0       ??$forward@ABQAVMListener@Stack@Net@OpenHome@@@std@@YGABQAVMListener@Stack@Net@OpenHome@@ABQAV1234@@Z 004312d0 f i libohNetCore:Stack.obj
 0001:000302e0       ??$_Ptr_cat@PAVMListener@Stack@Net@OpenHome@@PAV1234@@std@@YG?AU_Scalar_ptr_iterator_tag@0@PAPAVMListener@Stack@Net@OpenHome@@0@Z 004312e0 f i libohNetCore:Stack.obj
 0001:00030340       ??$_Move@PAPAVMListener@Stack@Net@OpenHome@@PAPAV1234@@std@@YGPAPAVMListener@Stack@Net@OpenHome@@PAPAV1234@00U_Scalar_ptr_iterator_tag@0@@Z 00431340 f i libohNetCore:Stack.obj
 0001:00030390       ??$_Destroy_range@V?$allocator@PAVMListener@Stack@Net@OpenHome@@@std@@@std@@YGXPAPAVMListener@Stack@Net@OpenHome@@0AAV?$allocator@PAVMListener@Stack@Net@OpenHome@@@0@U_Scalar_ptr_iterator_tag@0@@Z 00431390 f i libohNetCore:Stack.obj
 0001:000303a0       ??$_Uninitialized_move@PAPAVMListener@Stack@Net@OpenHome@@PAPAV1234@V?$allocator@PAVMListener@Stack@Net@OpenHome@@@std@@@std@@YGPAPAVMListener@Stack@Net@OpenHome@@PAPAV1234@00AAV?$allocator@PAVMListener@Stack@Net@OpenHome@@@0@@Z 004313a0 f i libohNetCore:Stack.obj
 0001:000303f0       ??$?0AAV?$_Tree_iterator@V?$_Tree_val@V?$_Tmap_traits@PAXPAXU?$less@PAX@std@@V?$allocator@U?$pair@QAXPAX@std@@@2@$0A@@std@@@std@@@std@@_N@?$pair@V?$_Tree_iterator@V?$_Tree_val@V?$_Tmap_traits@PAXPAXU?$less@PAX@std@@V?$allocator@U?$pair@QAXPAX@std@@@2@$0A@@std@@@std@@@std@@_N@std@@QAE@AAV?$_Tree_iterator@V?$_Tree_val@V?$_Tmap_traits@PAXPAXU?$less@PAX@std@@V?$allocator@U?$pair@QAXPAX@std@@@2@$0A@@std@@@std@@@1@$$QA_N@Z 004313f0 f i libohNetCore:Stack.obj
 0001:00030430       ??$_Destroy@U?$pair@QAXPAX@std@@@std@@YGXPAU?$pair@QAXPAX@0@@Z 00431430 f i libohNetCore:Stack.obj
 0001:00030440       ??$_Construct@PAVMListener@Stack@Net@OpenHome@@ABQAV1234@@std@@YGXPAPAVMListener@Stack@Net@OpenHome@@ABQAV1234@@Z 00431440 f i libohNetCore:Stack.obj
 0001:000304f0       ??$?0AAV?$_Tree_iterator@V?$_Tree_val@V?$_Tmap_traits@VBrn@OpenHome@@PAVObjectType@Stack@Net@2@VBufferCmp@2@V?$allocator@U?$pair@$$CBVBrn@OpenHome@@PAVObjectType@Stack@Net@2@@std@@@std@@$0A@@std@@@std@@@std@@_N@?$pair@V?$_Tree_iterator@V?$_Tree_val@V?$_Tmap_traits@VBrn@OpenHome@@PAVObjectType@Stack@Net@2@VBufferCmp@2@V?$allocator@U?$pair@$$CBVBrn@OpenHome@@PAVObjectType@Stack@Net@2@@std@@@std@@$0A@@std@@@std@@@std@@_N@std@@QAE@AAV?$_Tree_iterator@V?$_Tree_val@V?$_Tmap_traits@VBrn@OpenHome@@PAVObjectType@Stack@Net@2@VBufferCmp@2@V?$allocator@U?$pair@$$CBVBrn@OpenHome@@PAVObjectType@Stack@Net@2@@std@@@std@@$0A@@std@@@std@@@1@$$QA_N@Z 004314f0 f i libohNetCore:Stack.obj
 0001:00030530       ??$_Destroy@U?$pair@$$CBVBrn@OpenHome@@PAVObjectType@Stack@Net@2@@std@@@std@@YGXPAU?$pair@$$CBVBrn@OpenHome@@PAVObjectType@Stack@Net@2@@0@@Z 00431530 f i libohNetCore:Stack.obj
 0001:00030550       ??$move@AAV?$_Tree_iterator@V?$_Tree_val@V?$_Tmap_traits@VBrn@OpenHome@@PAVObjectType@Stack@Net@2@VBufferCmp@2@V?$allocator@U?$pair@$$CBVBrn@OpenHome@@PAVObjectType@Stack@Net@2@@std@@@std@@$0A@@std@@@std@@@std@@@std@@YG$$QAV?$_Tree_iterator@V?$_Tree_val@V?$_Tmap_traits@VBrn@OpenHome@@PAVObjectType@Stack@Net@2@VBufferCmp@2@V?$allocator@U?$pair@$$CBVBrn@OpenHome@@PAVObjectType@Stack@Net@2@@std@@@std@@$0A@@std@@@std@@@0@AAV10@@Z 00431550 f i libohNetCore:Stack.obj
 0001:00030560       ??$move@AAV?$_Tree_iterator@V?$_Tree_val@V?$_Tmap_traits@PAXPAXU?$less@PAX@std@@V?$allocator@U?$pair@QAXPAX@std@@@2@$0A@@std@@@std@@@std@@@std@@YG$$QAV?$_Tree_iterator@V?$_Tree_val@V?$_Tmap_traits@PAXPAXU?$less@PAX@std@@V?$allocator@U?$pair@QAXPAX@std@@@2@$0A@@std@@@std@@@0@AAV10@@Z 00431560 f i libohNetCore:Stack.obj
 0001:00030570       ??_G?$pair@$$CBVBrn@OpenHome@@PAVObjectType@Stack@Net@2@@std@@QAEPAXI@Z 00431570 f i libohNetCore:Stack.obj
 0001:000305b0       ??1?$pair@$$CBVBrn@OpenHome@@PAVObjectType@Stack@Net@2@@std@@QAE@XZ 004315b0 f i libohNetCore:Stack.obj
 0001:000305e0       ??1?$_Pair_base@$$CBVBrn@OpenHome@@PAVObjectType@Stack@Net@2@@std@@QAE@XZ 004315e0 f i libohNetCore:Stack.obj
 0001:00030610       ?_Buynode@?$_Tree_val@V?$_Tmap_traits@PAXPAXU?$less@PAX@std@@V?$allocator@U?$pair@QAXPAX@std@@@2@$0A@@std@@@std@@QAEPAU_Node@?$_Tree_nod@V?$_Tmap_traits@PAXPAXU?$less@PAX@std@@V?$allocator@U?$pair@QAXPAX@std@@@2@$0A@@std@@@2@XZ 00431610 f i libohNetCore:Stack.obj
 0001:000306a0       ?_Buynode@?$_Tree_val@V?$_Tmap_traits@VBrn@OpenHome@@PAVObjectType@Stack@Net@2@VBufferCmp@2@V?$allocator@U?$pair@$$CBVBrn@OpenHome@@PAVObjectType@Stack@Net@2@@std@@@std@@$0A@@std@@@std@@QAEPAU_Node@?$_Tree_nod@V?$_Tmap_traits@VBrn@OpenHome@@PAVObjectType@Stack@Net@2@VBufferCmp@2@V?$allocator@U?$pair@$$CBVBrn@OpenHome@@PAVObjectType@Stack@Net@2@@std@@@std@@$0A@@std@@@2@XZ 004316a0 f i libohNetCore:Stack.obj
 0001:00030730       ??$_Cons_val@V?$allocator@U?$pair@$$CBVBrn@OpenHome@@PAVObjectType@Stack@Net@2@@std@@@std@@U?$pair@$$CBVBrn@OpenHome@@PAVObjectType@Stack@Net@2@@2@U?$pair@VBrn@OpenHome@@PAVObjectType@Stack@Net@2@@2@@std@@YGXAAV?$allocator@U?$pair@$$CBVBrn@OpenHome@@PAVObjectType@Stack@Net@2@@std@@@0@PAU?$pair@$$CBVBrn@OpenHome@@PAVObjectType@Stack@Net@2@@0@$$QAU?$pair@VBrn@OpenHome@@PAVObjectType@Stack@Net@2@@0@@Z 00431730 f i libohNetCore:Stack.obj
 0001:00030760       ??$_Cons_val@V?$allocator@U?$pair@QAXPAX@std@@@std@@U?$pair@QAXPAX@2@U?$pair@PAXPAX@2@@std@@YGXAAV?$allocator@U?$pair@QAXPAX@std@@@0@PAU?$pair@QAXPAX@0@$$QAU?$pair@PAXPAX@0@@Z 00431760 f i libohNetCore:Stack.obj
 0001:00030790       ??$_Val_type@PAPAVMListener@Stack@Net@OpenHome@@@std@@YGPAPAVMListener@Stack@Net@OpenHome@@PAPAV1234@@Z 00431790 f i libohNetCore:Stack.obj
 0001:000307a0       ??$_Uninit_move@PAVMListener@Stack@Net@OpenHome@@PAV1234@PAV1234@@std@@YGPAPAVMListener@Stack@Net@OpenHome@@PAPAV1234@00AAV?$allocator@PAVMListener@Stack@Net@OpenHome@@@0@0U_Scalar_ptr_iterator_tag@0@@Z 004317a0 f i libohNetCore:Stack.obj
 0001:00030810       ??$forward@AAV?$_Tree_iterator@V?$_Tree_val@V?$_Tmap_traits@PAXPAXU?$less@PAX@std@@V?$allocator@U?$pair@QAXPAX@std@@@2@$0A@@std@@@std@@@std@@@std@@YGAAV?$_Tree_iterator@V?$_Tree_val@V?$_Tmap_traits@PAXPAXU?$less@PAX@std@@V?$allocator@U?$pair@QAXPAX@std@@@2@$0A@@std@@@std@@@0@AAV10@@Z 00431810 f i libohNetCore:Stack.obj
 0001:00030820       ??$?0AAV?$_Tree_iterator@V?$_Tree_val@V?$_Tmap_traits@PAXPAXU?$less@PAX@std@@V?$allocator@U?$pair@QAXPAX@std@@@2@$0A@@std@@@std@@@std@@_N@?$_Pair_base@V?$_Tree_iterator@V?$_Tree_val@V?$_Tmap_traits@PAXPAXU?$less@PAX@std@@V?$allocator@U?$pair@QAXPAX@std@@@2@$0A@@std@@@std@@@std@@_N@std@@QAE@AAV?$_Tree_iterator@V?$_Tree_val@V?$_Tmap_traits@PAXPAXU?$less@PAX@std@@V?$allocator@U?$pair@QAXPAX@std@@@2@$0A@@std@@@std@@@1@$$QA_N@Z 00431820 f i libohNetCore:Stack.obj
 0001:000308a0       ??$forward@AAV?$_Tree_iterator@V?$_Tree_val@V?$_Tmap_traits@VBrn@OpenHome@@PAVObjectType@Stack@Net@2@VBufferCmp@2@V?$allocator@U?$pair@$$CBVBrn@OpenHome@@PAVObjectType@Stack@Net@2@@std@@@std@@$0A@@std@@@std@@@std@@@std@@YGAAV?$_Tree_iterator@V?$_Tree_val@V?$_Tmap_traits@VBrn@OpenHome@@PAVObjectType@Stack@Net@2@VBufferCmp@2@V?$allocator@U?$pair@$$CBVBrn@OpenHome@@PAVObjectType@Stack@Net@2@@std@@@std@@$0A@@std@@@std@@@0@AAV10@@Z 004318a0 f i libohNetCore:Stack.obj
 0001:000308b0       ??$?0AAV?$_Tree_iterator@V?$_Tree_val@V?$_Tmap_traits@VBrn@OpenHome@@PAVObjectType@Stack@Net@2@VBufferCmp@2@V?$allocator@U?$pair@$$CBVBrn@OpenHome@@PAVObjectType@Stack@Net@2@@std@@@std@@$0A@@std@@@std@@@std@@_N@?$_Pair_base@V?$_Tree_iterator@V?$_Tree_val@V?$_Tmap_traits@VBrn@OpenHome@@PAVObjectType@Stack@Net@2@VBufferCmp@2@V?$allocator@U?$pair@$$CBVBrn@OpenHome@@PAVObjectType@Stack@Net@2@@std@@@std@@$0A@@std@@@std@@@std@@_N@std@@QAE@AAV?$_Tree_iterator@V?$_Tree_val@V?$_Tmap_traits@VBrn@OpenHome@@PAVObjectType@Stack@Net@2@VBufferCmp@2@V?$allocator@U?$pair@$$CBVBrn@OpenHome@@PAVObjectType@Stack@Net@2@@std@@@std@@$0A@@std@@@std@@@1@$$QA_N@Z 004318b0 f i libohNetCore:Stack.obj
 0001:00030930       ??$construct@U?$pair@VBrn@OpenHome@@PAVObjectType@Stack@Net@2@@std@@@?$allocator@U?$pair@$$CBVBrn@OpenHome@@PAVObjectType@Stack@Net@2@@std@@@std@@QAEXPAU?$pair@$$CBVBrn@OpenHome@@PAVObjectType@Stack@Net@2@@1@$$QAU?$pair@VBrn@OpenHome@@PAVObjectType@Stack@Net@2@@1@@Z 00431930 f i libohNetCore:Stack.obj
 0001:000309d0       ??$construct@U?$pair@PAXPAX@std@@@?$allocator@U?$pair@QAXPAX@std@@@std@@QAEXPAU?$pair@QAXPAX@1@$$QAU?$pair@PAXPAX@1@@Z 004319d0 f i libohNetCore:Stack.obj
 0001:00030a70       ??$_Debug_range@PAPAVMListener@Stack@Net@OpenHome@@@std@@YGXPAPAVMListener@Stack@Net@OpenHome@@0PB_WI@Z 00431a70 f i libohNetCore:Stack.obj
 0001:00030ac0       ??$_Debug_pointer@PAVMListener@Stack@Net@OpenHome@@@std@@YGXPAPAVMListener@Stack@Net@OpenHome@@PB_WI@Z 00431ac0 f i libohNetCore:Stack.obj
 0001:00030af0       ??$?0VBrn@OpenHome@@PAVObjectType@Stack@Net@1@@?$pair@$$CBVBrn@OpenHome@@PAVObjectType@Stack@Net@2@@std@@QAE@$$QAU?$pair@VBrn@OpenHome@@PAVObjectType@Stack@Net@2@@1@@Z 00431af0 f i libohNetCore:Stack.obj
 0001:00030b30       ??$?0PAXPAX@?$pair@QAXPAX@std@@QAE@$$QAU?$pair@PAXPAX@1@@Z 00431b30 f i libohNetCore:Stack.obj
 0001:00030b70       ??$_Iter_cat@PAPAVMListener@Stack@Net@OpenHome@@@std@@YG?AUrandom_access_iterator_tag@0@ABQAPAVMListener@Stack@Net@OpenHome@@@Z 00431b70 f i libohNetCore:Stack.obj
 0001:00030bd0       ??$_Debug_range2@PAPAVMListener@Stack@Net@OpenHome@@@std@@YGXPAPAVMListener@Stack@Net@OpenHome@@0PB_WIUrandom_access_iterator_tag@0@@Z 00431bd0 f i libohNetCore:Stack.obj
 0001:00030c30       ??$forward@PAVObjectType@Stack@Net@OpenHome@@@std@@YG$$QAPAVObjectType@Stack@Net@OpenHome@@AAPAV1234@@Z 00431c30 f i libohNetCore:Stack.obj
 0001:00030c40       ??$?0VBrn@OpenHome@@PAVObjectType@Stack@Net@1@@?$_Pair_base@$$CBVBrn@OpenHome@@PAVObjectType@Stack@Net@2@@std@@QAE@$$QAVBrn@OpenHome@@$$QAPAVObjectType@Stack@Net@3@@Z 00431c40 f i libohNetCore:Stack.obj
 0001:00030cc0       ??$forward@PAX@std@@YG$$QAPAXAAPAX@Z 00431cc0 f i libohNetCore:Stack.obj
 0001:00030cd0       ??$?0PAXPAX@?$_Pair_base@QAXPAX@std@@QAE@$$QAPAX0@Z 00431cd0 f i libohNetCore:Stack.obj
 0001:00030d30       ??0Parameter@Net@OpenHome@@IAE@PBDW4EType@012@@Z 00431d30 f   libohNetCore:Service.obj
 0001:00030d80       ??1Parameter@Net@OpenHome@@UAE@XZ 00431d80 f   libohNetCore:Service.obj
 0001:00030db0       ?Name@Parameter@Net@OpenHome@@QBEABVBrx@3@XZ 00431db0 f   libohNetCore:Service.obj
 0001:00030dd0       ?Type@Parameter@Net@OpenHome@@QBE?AW4EType@123@XZ 00431dd0 f   libohNetCore:Service.obj
 0001:00030df0       ?ValidateBool@Parameter@Net@OpenHome@@UBEX_N@Z 00431df0 f   libohNetCore:Service.obj
 0001:00030e20       ?ValidateInt@Parameter@Net@OpenHome@@UBEXH@Z 00431e20 f   libohNetCore:Service.obj
 0001:00030e50       ?ValidateUint@Parameter@Net@OpenHome@@UBEXI@Z 00431e50 f   libohNetCore:Service.obj
 0001:00030e80       ?ValidateString@Parameter@Net@OpenHome@@UBEXABVBrx@3@@Z 00431e80 f   libohNetCore:Service.obj
 0001:00030eb0       ?ValidateBinary@Parameter@Net@OpenHome@@UBEXABVBrx@3@@Z 00431eb0 f   libohNetCore:Service.obj
 0001:00030ee0       ??0ParameterBool@Net@OpenHome@@QAE@PBD@Z 00431ee0 f   libohNetCore:Service.obj
 0001:00030f20       ??1ParameterBool@Net@OpenHome@@UAE@XZ 00431f20 f   libohNetCore:Service.obj
 0001:00030f50       ?ValidateBool@ParameterBool@Net@OpenHome@@UBEX_N@Z 00431f50 f   libohNetCore:Service.obj
 0001:00030f70       ??0ParameterInt@Net@OpenHome@@QAE@PBDHHH@Z 00431f70 f   libohNetCore:Service.obj
 0001:00031040       ??1ParameterInt@Net@OpenHome@@UAE@XZ 00432040 f   libohNetCore:Service.obj
 0001:00031070       ?ValidateInt@ParameterInt@Net@OpenHome@@UBEXH@Z 00432070 f   libohNetCore:Service.obj
 0001:00031150       ?MinValue@ParameterInt@Net@OpenHome@@QBEHXZ 00432150 f   libohNetCore:Service.obj
 0001:00031170       ?MaxValue@ParameterInt@Net@OpenHome@@QBEHXZ 00432170 f   libohNetCore:Service.obj
 0001:00031190       ?Step@ParameterInt@Net@OpenHome@@QBEHXZ 00432190 f   libohNetCore:Service.obj
 0001:000311b0       ??0ParameterUint@Net@OpenHome@@QAE@PBDIII@Z 004321b0 f   libohNetCore:Service.obj
 0001:00031280       ??1ParameterUint@Net@OpenHome@@UAE@XZ 00432280 f   libohNetCore:Service.obj
 0001:000312b0       ?ValidateUint@ParameterUint@Net@OpenHome@@UBEXI@Z 004322b0 f   libohNetCore:Service.obj
 0001:000313a0       ?MinValue@ParameterUint@Net@OpenHome@@QBEIXZ 004323a0 f   libohNetCore:Service.obj
 0001:000313c0       ?MaxValue@ParameterUint@Net@OpenHome@@QBEIXZ 004323c0 f   libohNetCore:Service.obj
 0001:000313e0       ?Step@ParameterUint@Net@OpenHome@@QBEIXZ 004323e0 f   libohNetCore:Service.obj
 0001:00031400       ??0ParameterString@Net@OpenHome@@QAE@PBD@Z 00432400 f   libohNetCore:Service.obj
 0001:00031480       ??0ParameterString@Net@OpenHome@@QAE@PBDPAPADI@Z 00432480 f   libohNetCore:Service.obj
 0001:00031610       ??1ParameterString@Net@OpenHome@@UAE@XZ 00432610 f   libohNetCore:Service.obj
 0001:00031790       ?ValidateString@ParameterString@Net@OpenHome@@UBEXABVBrx@3@@Z 00432790 f   libohNetCore:Service.obj
 0001:00031910       ?AllowedValues@ParameterString@Net@OpenHome@@QBEABV?$map@VBrn@OpenHome@@PAVBrh@2@VBufferCmp@2@V?$allocator@U?$pair@$$CBVBrn@OpenHome@@PAVBrh@2@@std@@@std@@@std@@XZ 00432910 f   libohNetCore:Service.obj
 0001:00031930       ??0ParameterBinary@Net@OpenHome@@QAE@PBD@Z 00432930 f   libohNetCore:Service.obj
 0001:00031970       ??1ParameterBinary@Net@OpenHome@@UAE@XZ 00432970 f   libohNetCore:Service.obj
 0001:000319a0       ?ValidateBinary@ParameterBinary@Net@OpenHome@@UBEXABVBrx@3@@Z 004329a0 f   libohNetCore:Service.obj
 0001:000319c0       ??0ParameterRelated@Net@OpenHome@@QAE@PBDABVProperty@12@@Z 004329c0 f   libohNetCore:Service.obj
 0001:00031a10       ??1ParameterRelated@Net@OpenHome@@UAE@XZ 00432a10 f   libohNetCore:Service.obj
 0001:00031a40       ?Related@ParameterRelated@Net@OpenHome@@QBEABVProperty@23@XZ 00432a40 f   libohNetCore:Service.obj
 0001:00031a60       ?Parameter@Property@Net@OpenHome@@QBEABV023@XZ 00432a60 f   libohNetCore:Service.obj
 0001:00031a80       ?SequenceNumber@Property@Net@OpenHome@@QBEIXZ 00432a80 f   libohNetCore:Service.obj
 0001:00031aa0       ?ReportChanged@Property@Net@OpenHome@@QAE_NXZ 00432aa0 f   libohNetCore:Service.obj
 0001:00031ae0       ??0Property@Net@OpenHome@@IAE@PAVParameter@12@AAVFunctor@2@@Z 00432ae0 f   libohNetCore:Service.obj
 0001:00031b80       ??0Property@Net@OpenHome@@IAE@PAVParameter@12@@Z 00432b80 f   libohNetCore:Service.obj
 0001:00031c10       ?Construct@Property@Net@OpenHome@@AAEXPAVParameter@23@@Z 00432c10 f   libohNetCore:Service.obj
 0001:00031c80       ??1Property@Net@OpenHome@@UAE@XZ 00432c80 f   libohNetCore:Service.obj
 0001:00031cf0       ??0PropertyString@Net@OpenHome@@QAE@PBDAAVFunctor@2@@Z 00432cf0 f   libohNetCore:Service.obj
 0001:00031dc0       ??0PropertyString@Net@OpenHome@@QAE@PAVParameter@12@@Z 00432dc0 f   libohNetCore:Service.obj
 0001:00031e40       ??1PropertyString@Net@OpenHome@@UAE@XZ 00432e40 f   libohNetCore:Service.obj
 0001:00031eb0       ?Value@PropertyString@Net@OpenHome@@QBEABVBrx@3@XZ 00432eb0 f   libohNetCore:Service.obj
 0001:00031f80       ?Process@PropertyString@Net@OpenHome@@UAEXAAVIOutputProcessor@23@ABVBrx@3@@Z 00432f80 f   libohNetCore:Service.obj
 0001:000320c0       ?SetValue@PropertyString@Net@OpenHome@@QAE_NABVBrx@3@@Z 004330c0 f   libohNetCore:Service.obj
 0001:000321c0       ?Write@PropertyString@Net@OpenHome@@UAEXAAVIPropertyWriter@23@@Z 004331c0 f   libohNetCore:Service.obj
 0001:00032210       ??0PropertyInt@Net@OpenHome@@QAE@PBDAAVFunctor@2@@Z 00433210 f   libohNetCore:Service.obj
 0001:000322d0       ??0PropertyInt@Net@OpenHome@@QAE@PAVParameter@12@@Z 004332d0 f   libohNetCore:Service.obj
 0001:00032310       ??1PropertyInt@Net@OpenHome@@UAE@XZ 00433310 f   libohNetCore:Service.obj
 0001:00032340       ?Value@PropertyInt@Net@OpenHome@@QBEHXZ 00433340 f   libohNetCore:Service.obj
 0001:000323b0       ?Process@PropertyInt@Net@OpenHome@@UAEXAAVIOutputProcessor@23@ABVBrx@3@@Z 004333b0 f   libohNetCore:Service.obj
 0001:000324b0       ?SetValue@PropertyInt@Net@OpenHome@@QAE_NH@Z 004334b0 f   libohNetCore:Service.obj
 0001:000325a0       ?Write@PropertyInt@Net@OpenHome@@UAEXAAVIPropertyWriter@23@@Z 004335a0 f   libohNetCore:Service.obj
 0001:000325f0       ??0PropertyUint@Net@OpenHome@@QAE@PBDAAVFunctor@2@@Z 004335f0 f   libohNetCore:Service.obj
 0001:000326b0       ??0PropertyUint@Net@OpenHome@@QAE@PAVParameter@12@@Z 004336b0 f   libohNetCore:Service.obj
 0001:000326f0       ??1PropertyUint@Net@OpenHome@@UAE@XZ 004336f0 f   libohNetCore:Service.obj
 0001:00032720       ?Value@PropertyUint@Net@OpenHome@@QBEIXZ 00433720 f   libohNetCore:Service.obj
 0001:00032790       ?Process@PropertyUint@Net@OpenHome@@UAEXAAVIOutputProcessor@23@ABVBrx@3@@Z 00433790 f   libohNetCore:Service.obj
 0001:00032890       ?SetValue@PropertyUint@Net@OpenHome@@QAE_NI@Z 00433890 f   libohNetCore:Service.obj
 0001:00032980       ?Write@PropertyUint@Net@OpenHome@@UAEXAAVIPropertyWriter@23@@Z 00433980 f   libohNetCore:Service.obj
 0001:000329d0       ??0PropertyBool@Net@OpenHome@@QAE@PBDAAVFunctor@2@@Z 004339d0 f   libohNetCore:Service.obj
 0001:00032a80       ??0PropertyBool@Net@OpenHome@@QAE@PAVParameter@12@@Z 00433a80 f   libohNetCore:Service.obj
 0001:00032ac0       ??1PropertyBool@Net@OpenHome@@UAE@XZ 00433ac0 f   libohNetCore:Service.obj
 0001:00032af0       ?Value@PropertyBool@Net@OpenHome@@QBE_NXZ 00433af0 f   libohNetCore:Service.obj
 0001:00032b60       ?Process@PropertyBool@Net@OpenHome@@UAEXAAVIOutputProcessor@23@ABVBrx@3@@Z 00433b60 f   libohNetCore:Service.obj
 0001:00032c60       ?SetValue@PropertyBool@Net@OpenHome@@QAE_N_N@Z 00433c60 f   libohNetCore:Service.obj
 0001:00032d60       ?Write@PropertyBool@Net@OpenHome@@UAEXAAVIPropertyWriter@23@@Z 00433d60 f   libohNetCore:Service.obj
 0001:00032db0       ??0PropertyBinary@Net@OpenHome@@QAE@PBDAAVFunctor@2@@Z 00433db0 f   libohNetCore:Service.obj
 0001:00032e80       ??0PropertyBinary@Net@OpenHome@@QAE@PAVParameter@12@@Z 00433e80 f   libohNetCore:Service.obj
 0001:00032f00       ??1PropertyBinary@Net@OpenHome@@UAE@XZ 00433f00 f   libohNetCore:Service.obj
 0001:00032f70       ?Value@PropertyBinary@Net@OpenHome@@QBEABVBrx@3@XZ 00433f70 f   libohNetCore:Service.obj
 0001:00033040       ?Process@PropertyBinary@Net@OpenHome@@UAEXAAVIOutputProcessor@23@ABVBrx@3@@Z 00434040 f   libohNetCore:Service.obj
 0001:00033190       ?SetValue@PropertyBinary@Net@OpenHome@@QAE_NABVBrx@3@@Z 00434190 f   libohNetCore:Service.obj
 0001:00033290       ?Write@PropertyBinary@Net@OpenHome@@UAEXAAVIPropertyWriter@23@@Z 00434290 f   libohNetCore:Service.obj
 0001:000332e0       ??0Action@Net@OpenHome@@QAE@PBD@Z 004342e0 f   libohNetCore:Service.obj
 0001:00033360       ??1Action@Net@OpenHome@@QAE@XZ 00434360 f   libohNetCore:Service.obj
 0001:000334d0       ?AddInputParameter@Action@Net@OpenHome@@QAEXPAVParameter@23@@Z 004344d0 f   libohNetCore:Service.obj
 0001:00033500       ?AddOutputParameter@Action@Net@OpenHome@@QAEXPAVParameter@23@@Z 00434500 f   libohNetCore:Service.obj
 0001:00033530       ?Name@Action@Net@OpenHome@@QBEABVBrx@3@XZ 00434530 f   libohNetCore:Service.obj
 0001:00033550       ?InputParameters@Action@Net@OpenHome@@QBEABV?$vector@PAVParameter@Net@OpenHome@@V?$allocator@PAVParameter@Net@OpenHome@@@std@@@std@@XZ 00434550 f   libohNetCore:Service.obj
 0001:00033570       ?OutputParameters@Action@Net@OpenHome@@QBEABV?$vector@PAVParameter@Net@OpenHome@@V?$allocator@PAVParameter@Net@OpenHome@@@std@@@std@@XZ 00434570 f   libohNetCore:Service.obj
 0001:00033590       ??0ServiceType@Net@OpenHome@@QAE@PBD0I@Z 00434590 f   libohNetCore:Service.obj
 0001:00033650       ??0ServiceType@Net@OpenHome@@QAE@ABV012@@Z 00434650 f   libohNetCore:Service.obj
 0001:00033730       ??1ServiceType@Net@OpenHome@@QAE@XZ 00434730 f   libohNetCore:Service.obj
 0001:000337e0       ?Domain@ServiceType@Net@OpenHome@@QBEABVBrx@3@XZ 004347e0 f   libohNetCore:Service.obj
 0001:00033800       ?Name@ServiceType@Net@OpenHome@@QBEABVBrx@3@XZ 00434800 f   libohNetCore:Service.obj
 0001:00033820       ?Version@ServiceType@Net@OpenHome@@QBEIXZ 00434820 f   libohNetCore:Service.obj
 0001:00033840       ?FullName@ServiceType@Net@OpenHome@@QBEABVBrx@3@XZ 00434840 f   libohNetCore:Service.obj
 0001:00033950       ?FullNameUpnp@ServiceType@Net@OpenHome@@QBEABVBrx@3@XZ 00434950 f   libohNetCore:Service.obj
 0001:00033b00       ?PathUpnp@ServiceType@Net@OpenHome@@QBEABVBrx@3@XZ 00434b00 f   libohNetCore:Service.obj
 0001:00033be0       ?ServiceId@ServiceType@Net@OpenHome@@QBEABVBrx@3@XZ 00434be0 f   libohNetCore:Service.obj
 0001:00033da0       ??0Service@Net@OpenHome@@IAE@PBD0I@Z 00434da0 f   libohNetCore:Service.obj
 0001:00033de0       ?ServiceType@Service@Net@OpenHome@@QBEABV023@XZ 00434de0 f   libohNetCore:Service.obj
 0001:00033e00       ??_GParameter@Net@OpenHome@@UAEPAXI@Z 00434e00 f i libohNetCore:Service.obj
 0001:00033e00       ??_EParameter@Net@OpenHome@@UAEPAXI@Z 00434e00 f i libohNetCore:Service.obj
 0001:00033e40       ??_EParameterBool@Net@OpenHome@@UAEPAXI@Z 00434e40 f i libohNetCore:Service.obj
 0001:00033ec0       ??_EParameterInt@Net@OpenHome@@UAEPAXI@Z 00434ec0 f i libohNetCore:Service.obj
 0001:00033f40       ??0ParameterValidationError@OpenHome@@QAE@PBDI@Z 00434f40 f i libohNetCore:Service.obj
 0001:00033f80       ??1ParameterValidationError@OpenHome@@QAE@XZ 00434f80 f i libohNetCore:Service.obj
 0001:00033fb0       ??_EParameterUint@Net@OpenHome@@UAEPAXI@Z 00434fb0 f i libohNetCore:Service.obj
 0001:00034030       ??_EParameterString@Net@OpenHome@@UAEPAXI@Z 00435030 f i libohNetCore:Service.obj
 0001:000340b0       ??1?$map@VBrn@OpenHome@@PAVBrh@2@VBufferCmp@2@V?$allocator@U?$pair@$$CBVBrn@OpenHome@@PAVBrh@2@@std@@@std@@@std@@QAE@XZ 004350b0 f i libohNetCore:Service.obj
 0001:000340e0       ??1?$pair@VBrn@OpenHome@@PAVBrh@2@@std@@QAE@XZ 004350e0 f i libohNetCore:Service.obj
 0001:00034110       ??1?$pair@V?$_Tree_iterator@V?$_Tree_val@V?$_Tmap_traits@VBrn@OpenHome@@PAVBrh@2@VBufferCmp@2@V?$allocator@U?$pair@$$CBVBrn@OpenHome@@PAVBrh@2@@std@@@std@@$0A@@std@@@std@@@std@@_N@std@@QAE@XZ 00435110 f i libohNetCore:Service.obj
 0001:00034140       ??1?$_Pair_base@VBrn@OpenHome@@PAVBrh@2@@std@@QAE@XZ 00435140 f i libohNetCore:Service.obj
 0001:00034170       ??1?$_Pair_base@V?$_Tree_iterator@V?$_Tree_val@V?$_Tmap_traits@VBrn@OpenHome@@PAVBrh@2@VBufferCmp@2@V?$allocator@U?$pair@$$CBVBrn@OpenHome@@PAVBrh@2@@std@@@std@@$0A@@std@@@std@@@std@@_N@std@@QAE@XZ 00435170 f i libohNetCore:Service.obj
 0001:000341a0       ??1?$_Tree_iterator@V?$_Tree_val@V?$_Tmap_traits@VBrn@OpenHome@@PAVBrh@2@VBufferCmp@2@V?$allocator@U?$pair@$$CBVBrn@OpenHome@@PAVBrh@2@@std@@@std@@$0A@@std@@@std@@@std@@QAE@XZ 004351a0 f i libohNetCore:Service.obj
 0001:000341d0       ??1?$_Tree_const_iterator@V?$_Tree_val@V?$_Tmap_traits@VBrn@OpenHome@@PAVBrh@2@VBufferCmp@2@V?$allocator@U?$pair@$$CBVBrn@OpenHome@@PAVBrh@2@@std@@@std@@$0A@@std@@@std@@@std@@QAE@XZ 004351d0 f i libohNetCore:Service.obj
 0001:00034200       ??1?$_Tree_unchecked_const_iterator@V?$_Tree_val@V?$_Tmap_traits@VBrn@OpenHome@@PAVBrh@2@VBufferCmp@2@V?$allocator@U?$pair@$$CBVBrn@OpenHome@@PAVBrh@2@@std@@@std@@$0A@@std@@@std@@U_Iterator_base12@2@@std@@QAE@XZ 00435200 f i libohNetCore:Service.obj
 0001:00034230       ??1?$_Iterator012@Ubidirectional_iterator_tag@std@@U?$pair@$$CBVBrn@OpenHome@@PAVBrh@2@@2@HPBU32@ABU32@U_Iterator_base12@2@@std@@QAE@XZ 00435230 f i libohNetCore:Service.obj
 0001:00034260       ??_EParameterBinary@Net@OpenHome@@UAEPAXI@Z 00435260 f i libohNetCore:Service.obj
 0001:000342e0       ??_EParameterRelated@Net@OpenHome@@UAEPAXI@Z 004352e0 f i libohNetCore:Service.obj
 0001:00034360       ??_EProperty@Net@OpenHome@@UAEPAXI@Z 00435360 f i libohNetCore:Service.obj
 0001:00034360       ??_GProperty@Net@OpenHome@@UAEPAXI@Z 00435360 f i libohNetCore:Service.obj
 0001:000343a0       ??_EPropertyString@Net@OpenHome@@UAEPAXI@Z 004353a0 f i libohNetCore:Service.obj
 0001:00034420       ??9Brx@OpenHome@@QBE_NABV01@@Z 00435420 f i libohNetCore:Service.obj
 0001:00034460       ??_EPropertyInt@Net@OpenHome@@UAEPAXI@Z 00435460 f i libohNetCore:Service.obj
 0001:000344e0       ??_EPropertyUint@Net@OpenHome@@UAEPAXI@Z 004354e0 f i libohNetCore:Service.obj
 0001:00034560       ??_EPropertyBool@Net@OpenHome@@UAEPAXI@Z 00435560 f i libohNetCore:Service.obj
 0001:000345e0       ??_EPropertyBinary@Net@OpenHome@@UAEPAXI@Z 004355e0 f i libohNetCore:Service.obj
 0001:00034660       ??0?$map@VBrn@OpenHome@@PAVBrh@2@VBufferCmp@2@V?$allocator@U?$pair@$$CBVBrn@OpenHome@@PAVBrh@2@@std@@@std@@@std@@QAE@XZ 00435660 f i libohNetCore:Service.obj
 0001:000346b0       ??1?$_Tree@V?$_Tmap_traits@VBrn@OpenHome@@PAVBrh@2@VBufferCmp@2@V?$allocator@U?$pair@$$CBVBrn@OpenHome@@PAVBrh@2@@std@@@std@@$0A@@std@@@std@@QAE@XZ 004356b0 f i libohNetCore:Service.obj
 0001:00034720       ?begin@?$_Tree@V?$_Tmap_traits@VBrn@OpenHome@@PAVBrh@2@VBufferCmp@2@V?$allocator@U?$pair@$$CBVBrn@OpenHome@@PAVBrh@2@@std@@@std@@$0A@@std@@@std@@QAE?AV?$_Tree_iterator@V?$_Tree_val@V?$_Tmap_traits@VBrn@OpenHome@@PAVBrh@2@VBufferCmp@2@V?$allocator@U?$pair@$$CBVBrn@OpenHome@@PAVBrh@2@@std@@@std@@$0A@@std@@@std@@@2@XZ 00435720 f i libohNetCore:Service.obj
 0001:00034780       ?end@?$_Tree@V?$_Tmap_traits@VBrn@OpenHome@@PAVBrh@2@VBufferCmp@2@V?$allocator@U?$pair@$$CBVBrn@OpenHome@@PAVBrh@2@@std@@@std@@$0A@@std@@@std@@QAE?AV?$_Tree_iterator@V?$_Tree_val@V?$_Tmap_traits@VBrn@OpenHome@@PAVBrh@2@VBufferCmp@2@V?$allocator@U?$pair@$$CBVBrn@OpenHome@@PAVBrh@2@@std@@@std@@$0A@@std@@@std@@@2@XZ 00435780 f i libohNetCore:Service.obj
 0001:000347d0       ?end@?$_Tree@V?$_Tmap_traits@VBrn@OpenHome@@PAVBrh@2@VBufferCmp@2@V?$allocator@U?$pair@$$CBVBrn@OpenHome@@PAVBrh@2@@std@@@std@@$0A@@std@@@std@@QBE?AV?$_Tree_const_iterator@V?$_Tree_val@V?$_Tmap_traits@VBrn@OpenHome@@PAVBrh@2@VBufferCmp@2@V?$allocator@U?$pair@$$CBVBrn@OpenHome@@PAVBrh@2@@std@@@std@@$0A@@std@@@std@@@2@XZ 004357d0 f i libohNetCore:Service.obj
 0001:00034820       ?size@?$_Tree@V?$_Tmap_traits@VBrn@OpenHome@@PAVBrh@2@VBufferCmp@2@V?$allocator@U?$pair@$$CBVBrn@OpenHome@@PAVBrh@2@@std@@@std@@$0A@@std@@@std@@QBEIXZ 00435820 f i libohNetCore:Service.obj
 0001:00034840       ?find@?$_Tree@V?$_Tmap_traits@VBrn@OpenHome@@PAVBrh@2@VBufferCmp@2@V?$allocator@U?$pair@$$CBVBrn@OpenHome@@PAVBrh@2@@std@@@std@@$0A@@std@@@std@@QBE?AV?$_Tree_const_iterator@V?$_Tree_val@V?$_Tmap_traits@VBrn@OpenHome@@PAVBrh@2@VBufferCmp@2@V?$allocator@U?$pair@$$CBVBrn@OpenHome@@PAVBrh@2@@std@@@std@@$0A@@std@@@std@@@2@ABVBrn@OpenHome@@@Z 00435840 f i libohNetCore:Service.obj
 0001:00034a20       ??0?$vector@PAVParameter@Net@OpenHome@@V?$allocator@PAVParameter@Net@OpenHome@@@std@@@std@@QAE@XZ 00435a20 f i libohNetCore:Service.obj
 0001:00034a60       ??1?$vector@PAVParameter@Net@OpenHome@@V?$allocator@PAVParameter@Net@OpenHome@@@std@@@std@@QAE@XZ 00435a60 f i libohNetCore:Service.obj
 0001:00034ad0       ??A?$vector@PAVParameter@Net@OpenHome@@V?$allocator@PAVParameter@Net@OpenHome@@@std@@@std@@QAEAAPAVParameter@Net@OpenHome@@I@Z 00435ad0 f i libohNetCore:Service.obj
 0001:00034b70       ?push_back@?$vector@PAVParameter@Net@OpenHome@@V?$allocator@PAVParameter@Net@OpenHome@@@std@@@std@@QAEXABQAVParameter@Net@OpenHome@@@Z 00435b70 f i libohNetCore:Service.obj
 0001:00034c80       ??C?$_Tree_iterator@V?$_Tree_val@V?$_Tmap_traits@VBrn@OpenHome@@PAVBrh@2@VBufferCmp@2@V?$allocator@U?$pair@$$CBVBrn@OpenHome@@PAVBrh@2@@std@@@std@@$0A@@std@@@std@@@std@@QBEPAU?$pair@$$CBVBrn@OpenHome@@PAVBrh@2@@1@XZ 00435c80 f i libohNetCore:Service.obj
 0001:00034cb0       ??E?$_Tree_iterator@V?$_Tree_val@V?$_Tmap_traits@VBrn@OpenHome@@PAVBrh@2@VBufferCmp@2@V?$allocator@U?$pair@$$CBVBrn@OpenHome@@PAVBrh@2@@std@@@std@@$0A@@std@@@std@@@std@@QAE?AV01@H@Z 00435cb0 f i libohNetCore:Service.obj
 0001:00034d80       ??8?$_Tree_const_iterator@V?$_Tree_val@V?$_Tmap_traits@VBrn@OpenHome@@PAVBrh@2@VBufferCmp@2@V?$allocator@U?$pair@$$CBVBrn@OpenHome@@PAVBrh@2@@std@@@std@@$0A@@std@@@std@@@std@@QBE_NABV01@@Z 00435d80 f i libohNetCore:Service.obj
 0001:00034e40       ??9?$_Tree_const_iterator@V?$_Tree_val@V?$_Tmap_traits@VBrn@OpenHome@@PAVBrh@2@VBufferCmp@2@V?$allocator@U?$pair@$$CBVBrn@OpenHome@@PAVBrh@2@@std@@@std@@$0A@@std@@@std@@@std@@QBE_NABV01@@Z 00435e40 f i libohNetCore:Service.obj
 0001:00034e80       ??0?$_Tree_const_iterator@V?$_Tree_val@V?$_Tmap_traits@VBrn@OpenHome@@PAVBrh@2@VBufferCmp@2@V?$allocator@U?$pair@$$CBVBrn@OpenHome@@PAVBrh@2@@std@@@std@@$0A@@std@@@std@@@std@@QAE@ABV01@@Z 00435e80 f i libohNetCore:Service.obj
 0001:00034eb0       ??0?$_Tree_iterator@V?$_Tree_val@V?$_Tmap_traits@VBrn@OpenHome@@PAVBrh@2@VBufferCmp@2@V?$allocator@U?$pair@$$CBVBrn@OpenHome@@PAVBrh@2@@std@@@std@@$0A@@std@@@std@@@std@@QAE@ABV01@@Z 00435eb0 f i libohNetCore:Service.obj
 0001:00034ee0       ??0?$_Tree_unchecked_const_iterator@V?$_Tree_val@V?$_Tmap_traits@VBrn@OpenHome@@PAVBrh@2@VBufferCmp@2@V?$allocator@U?$pair@$$CBVBrn@OpenHome@@PAVBrh@2@@std@@@std@@$0A@@std@@@std@@U_Iterator_base12@2@@std@@QAE@ABV01@@Z 00435ee0 f i libohNetCore:Service.obj
 0001:00034f20       ??0?$_Iterator012@Ubidirectional_iterator_tag@std@@U?$pair@$$CBVBrn@OpenHome@@PAVBrh@2@@2@HPBU32@ABU32@U_Iterator_base12@2@@std@@QAE@ABU01@@Z 00435f20 f i libohNetCore:Service.obj
 0001:00034f50       ??0?$_Tree@V?$_Tmap_traits@VBrn@OpenHome@@PAVBrh@2@VBufferCmp@2@V?$allocator@U?$pair@$$CBVBrn@OpenHome@@PAVBrh@2@@std@@@std@@$0A@@std@@@std@@QAE@ABVBufferCmp@OpenHome@@ABV?$allocator@U?$pair@$$CBVBrn@OpenHome@@PAVBrh@2@@std@@@1@@Z 00435f50 f i libohNetCore:Service.obj
 0001:00034fa0       ?lower_bound@?$_Tree@V?$_Tmap_traits@VBrn@OpenHome@@PAVBrh@2@VBufferCmp@2@V?$allocator@U?$pair@$$CBVBrn@OpenHome@@PAVBrh@2@@std@@@std@@$0A@@std@@@std@@QBE?AV?$_Tree_const_iterator@V?$_Tree_val@V?$_Tmap_traits@VBrn@OpenHome@@PAVBrh@2@VBufferCmp@2@V?$allocator@U?$pair@$$CBVBrn@OpenHome@@PAVBrh@2@@std@@@std@@$0A@@std@@@std@@@2@ABVBrn@OpenHome@@@Z 00435fa0 f i libohNetCore:Service.obj
 0001:00035000       ?_Lmost@?$_Tree@V?$_Tmap_traits@VBrn@OpenHome@@PAVBrh@2@VBufferCmp@2@V?$allocator@U?$pair@$$CBVBrn@OpenHome@@PAVBrh@2@@std@@@std@@$0A@@std@@@std@@IBEAAPAU_Node@?$_Tree_nod@V?$_Tmap_traits@VBrn@OpenHome@@PAVBrh@2@VBufferCmp@2@V?$allocator@U?$pair@$$CBVBrn@OpenHome@@PAVBrh@2@@std@@@std@@$0A@@std@@@2@XZ 00436000 f i libohNetCore:Service.obj
 0001:00035030       ?_Tidy@?$_Tree@V?$_Tmap_traits@VBrn@OpenHome@@PAVBrh@2@VBufferCmp@2@V?$allocator@U?$pair@$$CBVBrn@OpenHome@@PAVBrh@2@@std@@@std@@$0A@@std@@@std@@IAEXXZ 00436030 f i libohNetCore:Service.obj
 0001:00035130       ??1?$_Tree_val@V?$_Tmap_traits@VBrn@OpenHome@@PAVBrh@2@VBufferCmp@2@V?$allocator@U?$pair@$$CBVBrn@OpenHome@@PAVBrh@2@@std@@@std@@$0A@@std@@@std@@QAE@XZ 00436130 f i libohNetCore:Service.obj
 0001:000351a0       ?_Key@?$_Tree_val@V?$_Tmap_traits@VBrn@OpenHome@@PAVBrh@2@VBufferCmp@2@V?$allocator@U?$pair@$$CBVBrn@OpenHome@@PAVBrh@2@@std@@@std@@$0A@@std@@@std@@SGAAVBrn@OpenHome@@PAU_Node@?$_Tree_nod@V?$_Tmap_traits@VBrn@OpenHome@@PAVBrh@2@VBufferCmp@2@V?$allocator@U?$pair@$$CBVBrn@OpenHome@@PAVBrh@2@@std@@@std@@$0A@@std@@@2@@Z 004361a0 f i libohNetCore:Service.obj
 0001:000351c0       ??0?$allocator@U?$pair@$$CBVBrn@OpenHome@@PAVBrh@2@@std@@@std@@QAE@XZ 004361c0 f i libohNetCore:Service.obj
 0001:000351e0       ?_Inside@?$vector@PAVParameter@Net@OpenHome@@V?$allocator@PAVParameter@Net@OpenHome@@@std@@@std@@IBE_NPBQAVParameter@Net@OpenHome@@@Z 004361e0 f i libohNetCore:Service.obj
 0001:00035230       ?_Reserve@?$vector@PAVParameter@Net@OpenHome@@V?$allocator@PAVParameter@Net@OpenHome@@@std@@@std@@IAEXI@Z 00436230 f i libohNetCore:Service.obj
 0001:000352b0       ?_Tidy@?$vector@PAVParameter@Net@OpenHome@@V?$allocator@PAVParameter@Net@OpenHome@@@std@@@std@@IAEXXZ 004362b0 f i libohNetCore:Service.obj
 0001:00035340       ?_Orphan_range@?$vector@PAVParameter@Net@OpenHome@@V?$allocator@PAVParameter@Net@OpenHome@@@std@@@std@@IBEXPAPAVParameter@Net@OpenHome@@0@Z 00436340 f i libohNetCore:Service.obj
 0001:00035450       ??0?$_Vector_val@PAVParameter@Net@OpenHome@@V?$allocator@PAVParameter@Net@OpenHome@@@std@@@std@@QAE@V?$allocator@PAVParameter@Net@OpenHome@@@1@@Z 00436450 f i libohNetCore:Service.obj
 0001:00035570       ??1?$_Vector_val@PAVParameter@Net@OpenHome@@V?$allocator@PAVParameter@Net@OpenHome@@@std@@@std@@QAE@XZ 00436570 f i libohNetCore:Service.obj
 0001:00035650       ??0?$allocator@PAVParameter@Net@OpenHome@@@std@@QAE@XZ 00436650 f i libohNetCore:Service.obj
 0001:00035670       ??0?$_Tree_iterator@V?$_Tree_val@V?$_Tmap_traits@VBrn@OpenHome@@PAVBrh@2@VBufferCmp@2@V?$allocator@U?$pair@$$CBVBrn@OpenHome@@PAVBrh@2@@std@@@std@@$0A@@std@@@std@@@std@@QAE@PAU_Node@?$_Tree_nod@V?$_Tmap_traits@VBrn@OpenHome@@PAVBrh@2@VBufferCmp@2@V?$allocator@U?$pair@$$CBVBrn@OpenHome@@PAVBrh@2@@std@@@std@@$0A@@std@@@1@PBV?$_Tree_val@V?$_Tmap_traits@VBrn@OpenHome@@PAVBrh@2@VBufferCmp@2@V?$allocator@U?$pair@$$CBVBrn@OpenHome@@PAVBrh@2@@std@@@std@@$0A@@std@@@1@@Z 00436670 f i libohNetCore:Service.obj
 0001:000356b0       ??D?$_Tree_iterator@V?$_Tree_val@V?$_Tmap_traits@VBrn@OpenHome@@PAVBrh@2@VBufferCmp@2@V?$allocator@U?$pair@$$CBVBrn@OpenHome@@PAVBrh@2@@std@@@std@@$0A@@std@@@std@@@std@@QBEAAU?$pair@$$CBVBrn@OpenHome@@PAVBrh@2@@1@XZ 004366b0 f i libohNetCore:Service.obj
 0001:000356e0       ??E?$_Tree_iterator@V?$_Tree_val@V?$_Tmap_traits@VBrn@OpenHome@@PAVBrh@2@VBufferCmp@2@V?$allocator@U?$pair@$$CBVBrn@OpenHome@@PAVBrh@2@@std@@@std@@$0A@@std@@@std@@@std@@QAEAAV01@XZ 004366e0 f i libohNetCore:Service.obj
 0001:00035710       ??0?$_Tree_const_iterator@V?$_Tree_val@V?$_Tmap_traits@VBrn@OpenHome@@PAVBrh@2@VBufferCmp@2@V?$allocator@U?$pair@$$CBVBrn@OpenHome@@PAVBrh@2@@std@@@std@@$0A@@std@@@std@@@std@@QAE@PAU_Node@?$_Tree_nod@V?$_Tmap_traits@VBrn@OpenHome@@PAVBrh@2@VBufferCmp@2@V?$allocator@U?$pair@$$CBVBrn@OpenHome@@PAVBrh@2@@std@@@std@@$0A@@std@@@1@PBV?$_Tree_val@V?$_Tmap_traits@VBrn@OpenHome@@PAVBrh@2@VBufferCmp@2@V?$allocator@U?$pair@$$CBVBrn@OpenHome@@PAVBrh@2@@std@@@std@@$0A@@std@@@1@@Z 00436710 f i libohNetCore:Service.obj
 0001:00035750       ?_Mynode@?$_Tree_unchecked_const_iterator@V?$_Tree_val@V?$_Tmap_traits@VBrn@OpenHome@@PAVBrh@2@VBufferCmp@2@V?$allocator@U?$pair@$$CBVBrn@OpenHome@@PAVBrh@2@@std@@@std@@$0A@@std@@@std@@U_Iterator_base12@2@@std@@QBEPAU_Node@?$_Tree_nod@V?$_Tmap_traits@VBrn@OpenHome@@PAVBrh@2@VBufferCmp@2@V?$allocator@U?$pair@$$CBVBrn@OpenHome@@PAVBrh@2@@std@@@std@@$0A@@std@@@2@XZ 00436750 f i libohNetCore:Service.obj
 0001:00035770       ?erase@?$_Tree@V?$_Tmap_traits@VBrn@OpenHome@@PAVBrh@2@VBufferCmp@2@V?$allocator@U?$pair@$$CBVBrn@OpenHome@@PAVBrh@2@@std@@@std@@$0A@@std@@@std@@QAE?AV?$_Tree_iterator@V?$_Tree_val@V?$_Tmap_traits@VBrn@OpenHome@@PAVBrh@2@VBufferCmp@2@V?$allocator@U?$pair@$$CBVBrn@OpenHome@@PAVBrh@2@@std@@@std@@$0A@@std@@@std@@@2@V?$_Tree_const_iterator@V?$_Tree_val@V?$_Tmap_traits@VBrn@OpenHome@@PAVBrh@2@VBufferCmp@2@V?$allocator@U?$pair@$$CBVBrn@OpenHome@@PAVBrh@2@@std@@@std@@$0A@@std@@@std@@@2@0@Z 00436770 f i libohNetCore:Service.obj
 0001:00035970       ?_Lbound@?$_Tree@V?$_Tmap_traits@VBrn@OpenHome@@PAVBrh@2@VBufferCmp@2@V?$allocator@U?$pair@$$CBVBrn@OpenHome@@PAVBrh@2@@std@@@std@@$0A@@std@@@std@@IBEPAU_Node@?$_Tree_nod@V?$_Tmap_traits@VBrn@OpenHome@@PAVBrh@2@VBufferCmp@2@V?$allocator@U?$pair@$$CBVBrn@OpenHome@@PAVBrh@2@@std@@@std@@$0A@@std@@@2@ABVBrn@OpenHome@@@Z 00436970 f i libohNetCore:Service.obj
 0001:00035a20       ??0?$_Tree_val@V?$_Tmap_traits@VBrn@OpenHome@@PAVBrh@2@VBufferCmp@2@V?$allocator@U?$pair@$$CBVBrn@OpenHome@@PAVBrh@2@@std@@@std@@$0A@@std@@@std@@QAE@ABVBufferCmp@OpenHome@@V?$allocator@U?$pair@$$CBVBrn@OpenHome@@PAVBrh@2@@std@@@1@@Z 00436a20 f i libohNetCore:Service.obj
 0001:00035b20       ?_Left@?$_Tree_val@V?$_Tmap_traits@VBrn@OpenHome@@PAVBrh@2@VBufferCmp@2@V?$allocator@U?$pair@$$CBVBrn@OpenHome@@PAVBrh@2@@std@@@std@@$0A@@std@@@std@@SGAAPAU_Node@?$_Tree_nod@V?$_Tmap_traits@VBrn@OpenHome@@PAVBrh@2@VBufferCmp@2@V?$allocator@U?$pair@$$CBVBrn@OpenHome@@PAVBrh@2@@std@@@std@@$0A@@std@@@2@PAU342@@Z 00436b20 f i libohNetCore:Service.obj
 0001:00035b30       ?_Myval@?$_Tree_val@V?$_Tmap_traits@VBrn@OpenHome@@PAVBrh@2@VBufferCmp@2@V?$allocator@U?$pair@$$CBVBrn@OpenHome@@PAVBrh@2@@std@@@std@@$0A@@std@@@std@@SGAAU?$pair@$$CBVBrn@OpenHome@@PAVBrh@2@@2@PAU_Node@?$_Tree_nod@V?$_Tmap_traits@VBrn@OpenHome@@PAVBrh@2@VBufferCmp@2@V?$allocator@U?$pair@$$CBVBrn@OpenHome@@PAVBrh@2@@std@@@std@@$0A@@std@@@2@@Z 00436b30 f i libohNetCore:Service.obj
 0001:00035b40       ??1?$_Tree_nod@V?$_Tmap_traits@VBrn@OpenHome@@PAVBrh@2@VBufferCmp@2@V?$allocator@U?$pair@$$CBVBrn@OpenHome@@PAVBrh@2@@std@@@std@@$0A@@std@@@std@@QAE@XZ 00436b40 f i libohNetCore:Service.obj
 0001:00035c20       ??0?$allocator@U?$pair@$$CBVBrn@OpenHome@@PAVBrh@2@@std@@@std@@QAE@ABV01@@Z 00436c20 f i libohNetCore:Service.obj
 0001:00035c40       ?deallocate@?$allocator@U_Node@?$_Tree_nod@V?$_Tmap_traits@VBrn@OpenHome@@PAVBrh@2@VBufferCmp@2@V?$allocator@U?$pair@$$CBVBrn@OpenHome@@PAVBrh@2@@std@@@std@@$0A@@std@@@std@@@std@@QAEXPAU_Node@?$_Tree_nod@V?$_Tmap_traits@VBrn@OpenHome@@PAVBrh@2@VBufferCmp@2@V?$allocator@U?$pair@$$CBVBrn@OpenHome@@PAVBrh@2@@std@@@std@@$0A@@std@@@2@I@Z 00436c40 f i libohNetCore:Service.obj
 0001:00035c70       ?reserve@?$vector@PAVParameter@Net@OpenHome@@V?$allocator@PAVParameter@Net@OpenHome@@@std@@@std@@QAEXI@Z 00436c70 f i libohNetCore:Service.obj
 0001:00035de0       ?capacity@?$vector@PAVParameter@Net@OpenHome@@V?$allocator@PAVParameter@Net@OpenHome@@@std@@@std@@QBEIXZ 00436de0 f i libohNetCore:Service.obj
 0001:00035e10       ?max_size@?$vector@PAVParameter@Net@OpenHome@@V?$allocator@PAVParameter@Net@OpenHome@@@std@@@std@@QBEIXZ 00436e10 f i libohNetCore:Service.obj
 0001:00035e40       ?_Destroy@?$vector@PAVParameter@Net@OpenHome@@V?$allocator@PAVParameter@Net@OpenHome@@@std@@@std@@IAEXPAPAVParameter@Net@OpenHome@@0@Z 00436e40 f i libohNetCore:Service.obj
 0001:00035e80       ?_Grow_to@?$vector@PAVParameter@Net@OpenHome@@V?$allocator@PAVParameter@Net@OpenHome@@@std@@@std@@IBEII@Z 00436e80 f i libohNetCore:Service.obj
 0001:00035f00       ?_Xlen@?$vector@PAVParameter@Net@OpenHome@@V?$allocator@PAVParameter@Net@OpenHome@@@std@@@std@@IBEXXZ 00436f00 f i libohNetCore:Service.obj
 0001:00035f30       ??0?$allocator@PAVParameter@Net@OpenHome@@@std@@QAE@ABV01@@Z 00436f30 f i libohNetCore:Service.obj
 0001:00035f50       ?deallocate@?$allocator@PAVParameter@Net@OpenHome@@@std@@QAEXPAPAVParameter@Net@OpenHome@@I@Z 00436f50 f i libohNetCore:Service.obj
 0001:00035f80       ??D?$_Tree_const_iterator@V?$_Tree_val@V?$_Tmap_traits@VBrn@OpenHome@@PAVBrh@2@VBufferCmp@2@V?$allocator@U?$pair@$$CBVBrn@OpenHome@@PAVBrh@2@@std@@@std@@$0A@@std@@@std@@@std@@QBEABU?$pair@$$CBVBrn@OpenHome@@PAVBrh@2@@1@XZ 00436f80 f i libohNetCore:Service.obj
 0001:00036040       ??E?$_Tree_const_iterator@V?$_Tree_val@V?$_Tmap_traits@VBrn@OpenHome@@PAVBrh@2@VBufferCmp@2@V?$allocator@U?$pair@$$CBVBrn@OpenHome@@PAVBrh@2@@std@@@std@@$0A@@std@@@std@@@std@@QAEAAV01@XZ 00437040 f i libohNetCore:Service.obj
 0001:00036100       ??0?$_Tree_unchecked_const_iterator@V?$_Tree_val@V?$_Tmap_traits@VBrn@OpenHome@@PAVBrh@2@VBufferCmp@2@V?$allocator@U?$pair@$$CBVBrn@OpenHome@@PAVBrh@2@@std@@@std@@$0A@@std@@@std@@U_Iterator_base12@2@@std@@QAE@PAU_Node@?$_Tree_nod@V?$_Tmap_traits@VBrn@OpenHome@@PAVBrh@2@VBufferCmp@2@V?$allocator@U?$pair@$$CBVBrn@OpenHome@@PAVBrh@2@@std@@@std@@$0A@@std@@@1@PBV?$_Tree_val@V?$_Tmap_traits@VBrn@OpenHome@@PAVBrh@2@VBufferCmp@2@V?$allocator@U?$pair@$$CBVBrn@OpenHome@@PAVBrh@2@@std@@@std@@$0A@@std@@@1@@Z 00437100 f i libohNetCore:Service.obj
 0001:00036180       ??1?$_Tmap_traits@VBrn@OpenHome@@PAVBrh@2@VBufferCmp@2@V?$allocator@U?$pair@$$CBVBrn@OpenHome@@PAVBrh@2@@std@@@std@@$0A@@std@@QAE@XZ 00437180 f i libohNetCore:Service.obj
 0001:000361b0       ??0?$_Iterator012@Ubidirectional_iterator_tag@std@@U?$pair@$$CBVBrn@OpenHome@@PAVBrh@2@@2@HPBU32@ABU32@U_Iterator_base12@2@@std@@QAE@XZ 004371b0 f i libohNetCore:Service.obj
 0001:000361e0       ?erase@?$_Tree@V?$_Tmap_traits@VBrn@OpenHome@@PAVBrh@2@VBufferCmp@2@V?$allocator@U?$pair@$$CBVBrn@OpenHome@@PAVBrh@2@@std@@@std@@$0A@@std@@@std@@QAE?AV?$_Tree_iterator@V?$_Tree_val@V?$_Tmap_traits@VBrn@OpenHome@@PAVBrh@2@VBufferCmp@2@V?$allocator@U?$pair@$$CBVBrn@OpenHome@@PAVBrh@2@@std@@@std@@$0A@@std@@@std@@@2@V?$_Tree_const_iterator@V?$_Tree_val@V?$_Tmap_traits@VBrn@OpenHome@@PAVBrh@2@VBufferCmp@2@V?$allocator@U?$pair@$$CBVBrn@OpenHome@@PAVBrh@2@@std@@@std@@$0A@@std@@@std@@@2@@Z 004371e0 f i libohNetCore:Service.obj
 0001:000368f0       ?clear@?$_Tree@V?$_Tmap_traits@VBrn@OpenHome@@PAVBrh@2@VBufferCmp@2@V?$allocator@U?$pair@$$CBVBrn@OpenHome@@PAVBrh@2@@std@@@std@@$0A@@std@@@std@@QAEXXZ 004378f0 f i libohNetCore:Service.obj
 0001:00036970       ?_Root@?$_Tree@V?$_Tmap_traits@VBrn@OpenHome@@PAVBrh@2@VBufferCmp@2@V?$allocator@U?$pair@$$CBVBrn@OpenHome@@PAVBrh@2@@std@@@std@@$0A@@std@@@std@@IBEAAPAU_Node@?$_Tree_nod@V?$_Tmap_traits@VBrn@OpenHome@@PAVBrh@2@VBufferCmp@2@V?$allocator@U?$pair@$$CBVBrn@OpenHome@@PAVBrh@2@@std@@@std@@$0A@@std@@@2@XZ 00437970 f i libohNetCore:Service.obj
 0001:000369a0       ?_Color@?$_Tree_val@V?$_Tmap_traits@VBrn@OpenHome@@PAVBrh@2@VBufferCmp@2@V?$allocator@U?$pair@$$CBVBrn@OpenHome@@PAVBrh@2@@std@@@std@@$0A@@std@@@std@@SGAADPAU_Node@?$_Tree_nod@V?$_Tmap_traits@VBrn@OpenHome@@PAVBrh@2@VBufferCmp@2@V?$allocator@U?$pair@$$CBVBrn@OpenHome@@PAVBrh@2@@std@@@std@@$0A@@std@@@2@@Z 004379a0 f i libohNetCore:Service.obj
 0001:000369b0       ?_Isnil@?$_Tree_val@V?$_Tmap_traits@VBrn@OpenHome@@PAVBrh@2@VBufferCmp@2@V?$allocator@U?$pair@$$CBVBrn@OpenHome@@PAVBrh@2@@std@@@std@@$0A@@std@@@std@@SGAADPAU_Node@?$_Tree_nod@V?$_Tmap_traits@VBrn@OpenHome@@PAVBrh@2@VBufferCmp@2@V?$allocator@U?$pair@$$CBVBrn@OpenHome@@PAVBrh@2@@std@@@std@@$0A@@std@@@2@@Z 004379b0 f i libohNetCore:Service.obj
 0001:000369c0       ?_Parent@?$_Tree_val@V?$_Tmap_traits@VBrn@OpenHome@@PAVBrh@2@VBufferCmp@2@V?$allocator@U?$pair@$$CBVBrn@OpenHome@@PAVBrh@2@@std@@@std@@$0A@@std@@@std@@SGAAPAU_Node@?$_Tree_nod@V?$_Tmap_traits@VBrn@OpenHome@@PAVBrh@2@VBufferCmp@2@V?$allocator@U?$pair@$$CBVBrn@OpenHome@@PAVBrh@2@@std@@@std@@$0A@@std@@@2@PAU342@@Z 004379c0 f i libohNetCore:Service.obj
 0001:000369d0       ?_Right@?$_Tree_val@V?$_Tmap_traits@VBrn@OpenHome@@PAVBrh@2@VBufferCmp@2@V?$allocator@U?$pair@$$CBVBrn@OpenHome@@PAVBrh@2@@std@@@std@@$0A@@std@@@std@@SGAAPAU_Node@?$_Tree_nod@V?$_Tmap_traits@VBrn@OpenHome@@PAVBrh@2@VBufferCmp@2@V?$allocator@U?$pair@$$CBVBrn@OpenHome@@PAVBrh@2@@std@@@std@@$0A@@std@@@2@PAU342@@Z 004379d0 f i libohNetCore:Service.obj
 0001:000369e0       ??0?$_Tree_nod@V?$_Tmap_traits@VBrn@OpenHome@@PAVBrh@2@VBufferCmp@2@V?$allocator@U?$pair@$$CBVBrn@OpenHome@@PAVBrh@2@@std@@@std@@$0A@@std@@@std@@QAE@ABVBufferCmp@OpenHome@@V?$allocator@U?$pair@$$CBVBrn@OpenHome@@PAVBrh@2@@std@@@1@@Z 004379e0 f i libohNetCore:Service.obj
 0001:00036af0       ?allocate@?$allocator@U_Node@?$_Tree_nod@V?$_Tmap_traits@VBrn@OpenHome@@PAVBrh@2@VBufferCmp@2@V?$allocator@U?$pair@$$CBVBrn@OpenHome@@PAVBrh@2@@std@@@std@@$0A@@std@@@std@@@std@@QAEPAU_Node@?$_Tree_nod@V?$_Tmap_traits@VBrn@OpenHome@@PAVBrh@2@VBufferCmp@2@V?$allocator@U?$pair@$$CBVBrn@OpenHome@@PAVBrh@2@@std@@@std@@$0A@@std@@@2@I@Z 00437af0 f i libohNetCore:Service.obj
 0001:00036b20       ?allocate@?$allocator@PAVParameter@Net@OpenHome@@@std@@QAEPAPAVParameter@Net@OpenHome@@I@Z 00437b20 f i libohNetCore:Service.obj
 0001:00036b50       ?max_size@?$allocator@PAVParameter@Net@OpenHome@@@std@@QBEIXZ 00437b50 f i libohNetCore:Service.obj
 0001:00036ba0       ??E?$_Tree_const_iterator@V?$_Tree_val@V?$_Tmap_traits@VBrn@OpenHome@@PAVBrh@2@VBufferCmp@2@V?$allocator@U?$pair@$$CBVBrn@OpenHome@@PAVBrh@2@@std@@@std@@$0A@@std@@@std@@@std@@QAE?AV01@H@Z 00437ba0 f i libohNetCore:Service.obj
 0001:00036c70       ??E?$_Tree_unchecked_const_iterator@V?$_Tree_val@V?$_Tmap_traits@VBrn@OpenHome@@PAVBrh@2@VBufferCmp@2@V?$allocator@U?$pair@$$CBVBrn@OpenHome@@PAVBrh@2@@std@@@std@@$0A@@std@@@std@@U_Iterator_base12@2@@std@@QAEAAV01@XZ 00437c70 f i libohNetCore:Service.obj
 0001:00036d30       ?_Erase@?$_Tree@V?$_Tmap_traits@VBrn@OpenHome@@PAVBrh@2@VBufferCmp@2@V?$allocator@U?$pair@$$CBVBrn@OpenHome@@PAVBrh@2@@std@@@std@@$0A@@std@@@std@@IAEXPAU_Node@?$_Tree_nod@V?$_Tmap_traits@VBrn@OpenHome@@PAVBrh@2@VBufferCmp@2@V?$allocator@U?$pair@$$CBVBrn@OpenHome@@PAVBrh@2@@std@@@std@@$0A@@std@@@2@@Z 00437d30 f i libohNetCore:Service.obj
 0001:00036dd0       ?_Lrotate@?$_Tree@V?$_Tmap_traits@VBrn@OpenHome@@PAVBrh@2@VBufferCmp@2@V?$allocator@U?$pair@$$CBVBrn@OpenHome@@PAVBrh@2@@std@@@std@@$0A@@std@@@std@@IAEXPAU_Node@?$_Tree_nod@V?$_Tmap_traits@VBrn@OpenHome@@PAVBrh@2@VBufferCmp@2@V?$allocator@U?$pair@$$CBVBrn@OpenHome@@PAVBrh@2@@std@@@std@@$0A@@std@@@2@@Z 00437dd0 f i libohNetCore:Service.obj
 0001:00036ef0       ?_Rmost@?$_Tree@V?$_Tmap_traits@VBrn@OpenHome@@PAVBrh@2@VBufferCmp@2@V?$allocator@U?$pair@$$CBVBrn@OpenHome@@PAVBrh@2@@std@@@std@@$0A@@std@@@std@@IBEAAPAU_Node@?$_Tree_nod@V?$_Tmap_traits@VBrn@OpenHome@@PAVBrh@2@VBufferCmp@2@V?$allocator@U?$pair@$$CBVBrn@OpenHome@@PAVBrh@2@@std@@@std@@$0A@@std@@@2@XZ 00437ef0 f i libohNetCore:Service.obj
 0001:00036f20       ?_Rrotate@?$_Tree@V?$_Tmap_traits@VBrn@OpenHome@@PAVBrh@2@VBufferCmp@2@V?$allocator@U?$pair@$$CBVBrn@OpenHome@@PAVBrh@2@@std@@@std@@$0A@@std@@@std@@IAEXPAU_Node@?$_Tree_nod@V?$_Tmap_traits@VBrn@OpenHome@@PAVBrh@2@VBufferCmp@2@V?$allocator@U?$pair@$$CBVBrn@OpenHome@@PAVBrh@2@@std@@@std@@$0A@@std@@@2@@Z 00437f20 f i libohNetCore:Service.obj
 0001:00037040       ?_Orphan_ptr@?$_Tree@V?$_Tmap_traits@VBrn@OpenHome@@PAVBrh@2@VBufferCmp@2@V?$allocator@U?$pair@$$CBVBrn@OpenHome@@PAVBrh@2@@std@@@std@@$0A@@std@@@std@@IBEXAAV12@PAU_Node@?$_Tree_nod@V?$_Tmap_traits@VBrn@OpenHome@@PAVBrh@2@VBufferCmp@2@V?$allocator@U?$pair@$$CBVBrn@OpenHome@@PAVBrh@2@@std@@@std@@$0A@@std@@@2@@Z 00438040 f i libohNetCore:Service.obj
 0001:00037150       ?_Max@?$_Tree_val@V?$_Tmap_traits@VBrn@OpenHome@@PAVBrh@2@VBufferCmp@2@V?$allocator@U?$pair@$$CBVBrn@OpenHome@@PAVBrh@2@@std@@@std@@$0A@@std@@@std@@SGPAU_Node@?$_Tree_nod@V?$_Tmap_traits@VBrn@OpenHome@@PAVBrh@2@VBufferCmp@2@V?$allocator@U?$pair@$$CBVBrn@OpenHome@@PAVBrh@2@@std@@@std@@$0A@@std@@@2@PAU342@@Z 00438150 f i libohNetCore:Service.obj
 0001:00037190       ?_Min@?$_Tree_val@V?$_Tmap_traits@VBrn@OpenHome@@PAVBrh@2@VBufferCmp@2@V?$allocator@U?$pair@$$CBVBrn@OpenHome@@PAVBrh@2@@std@@@std@@$0A@@std@@@std@@SGPAU_Node@?$_Tree_nod@V?$_Tmap_traits@VBrn@OpenHome@@PAVBrh@2@VBufferCmp@2@V?$allocator@U?$pair@$$CBVBrn@OpenHome@@PAVBrh@2@@std@@@std@@$0A@@std@@@2@PAU342@@Z 00438190 f i libohNetCore:Service.obj
 0001:000371d0       ??0?$_Tmap_traits@VBrn@OpenHome@@PAVBrh@2@VBufferCmp@2@V?$allocator@U?$pair@$$CBVBrn@OpenHome@@PAVBrh@2@@std@@@std@@$0A@@std@@QAE@VBufferCmp@OpenHome@@@Z 004381d0 f i libohNetCore:Service.obj
 0001:00037200       ??$?0AAVBrn@OpenHome@@AAPAVBrh@1@@?$pair@VBrn@OpenHome@@PAVBrh@2@@std@@QAE@AAVBrn@OpenHome@@AAPAVBrh@3@@Z 00438200 f i libohNetCore:Service.obj
 0001:00037240       ??$insert@U?$pair@VBrn@OpenHome@@PAVBrh@2@@std@@@?$_Tree@V?$_Tmap_traits@VBrn@OpenHome@@PAVBrh@2@VBufferCmp@2@V?$allocator@U?$pair@$$CBVBrn@OpenHome@@PAVBrh@2@@std@@@std@@$0A@@std@@@std@@QAE?AU?$pair@V?$_Tree_iterator@V?$_Tree_val@V?$_Tmap_traits@VBrn@OpenHome@@PAVBrh@2@VBufferCmp@2@V?$allocator@U?$pair@$$CBVBrn@OpenHome@@PAVBrh@2@@std@@@std@@$0A@@std@@@std@@@std@@_N@1@$$QAU?$pair@VBrn@OpenHome@@PAVBrh@2@@1@@Z 00438240 f i libohNetCore:Service.obj
 0001:000372a0       ??$addressof@QAVParameter@Net@OpenHome@@@std@@YGPBQAVParameter@Net@OpenHome@@ABQAV123@@Z 004382a0 f i libohNetCore:Service.obj
 0001:000372b0       ??$_Cons_val@V?$allocator@PAVParameter@Net@OpenHome@@@std@@PAVParameter@Net@OpenHome@@AAPAV345@@std@@YGXAAV?$allocator@PAVParameter@Net@OpenHome@@@0@PAPAVParameter@Net@OpenHome@@AAPAV234@@Z 004382b0 f i libohNetCore:Service.obj
 0001:000372e0       ??$_Cons_val@V?$allocator@PAVParameter@Net@OpenHome@@@std@@PAVParameter@Net@OpenHome@@ABQAV345@@std@@YGXAAV?$allocator@PAVParameter@Net@OpenHome@@@0@PAPAVParameter@Net@OpenHome@@ABQAV234@@Z 004382e0 f i libohNetCore:Service.obj
 0001:00037310       ??$_Kfn@$$CBVBrn@OpenHome@@PAVBrh@2@@?$_Tmap_traits@VBrn@OpenHome@@PAVBrh@2@VBufferCmp@2@V?$allocator@U?$pair@$$CBVBrn@OpenHome@@PAVBrh@2@@std@@@std@@$0A@@std@@SGABVBrn@OpenHome@@ABU?$pair@$$CBVBrn@OpenHome@@PAVBrh@2@@1@@Z 00438310 f i libohNetCore:Service.obj
 0001:00037320       ??$?0PAVParameter@Net@OpenHome@@@?$allocator@U_Container_proxy@std@@@std@@QAE@ABV?$allocator@PAVParameter@Net@OpenHome@@@1@@Z 00438320 f i libohNetCore:Service.obj
 0001:00037340       ??$?0U_Node@?$_Tree_nod@V?$_Tmap_traits@VBrn@OpenHome@@PAVBrh@2@VBufferCmp@2@V?$allocator@U?$pair@$$CBVBrn@OpenHome@@PAVBrh@2@@std@@@std@@$0A@@std@@@std@@@?$allocator@U_Container_proxy@std@@@std@@QAE@ABV?$allocator@U_Node@?$_Tree_nod@V?$_Tmap_traits@VBrn@OpenHome@@PAVBrh@2@VBufferCmp@2@V?$allocator@U?$pair@$$CBVBrn@OpenHome@@PAVBrh@2@@std@@@std@@$0A@@std@@@std@@@1@@Z 00438340 f i libohNetCore:Service.obj
 0001:00037360       ??$_Umove@PAPAVParameter@Net@OpenHome@@@?$vector@PAVParameter@Net@OpenHome@@V?$allocator@PAVParameter@Net@OpenHome@@@std@@@std@@IAEPAPAVParameter@Net@OpenHome@@PAPAV234@00@Z 00438360 f i libohNetCore:Service.obj
 0001:000373a0       ??$_Destroy_range@V?$allocator@PAVParameter@Net@OpenHome@@@std@@@std@@YGXPAPAVParameter@Net@OpenHome@@0AAV?$allocator@PAVParameter@Net@OpenHome@@@0@@Z 004383a0 f i libohNetCore:Service.obj
 0001:000373f0       ??$addressof@U?$pair@$$CBVBrn@OpenHome@@PAVBrh@2@@std@@@std@@YGPAU?$pair@$$CBVBrn@OpenHome@@PAVBrh@2@@0@AAU10@@Z 004383f0 f i libohNetCore:Service.obj
 0001:00037400       ??$_Dest_val@V?$allocator@U?$pair@$$CBVBrn@OpenHome@@PAVBrh@2@@std@@@std@@U?$pair@$$CBVBrn@OpenHome@@PAVBrh@2@@2@@std@@YGXAAV?$allocator@U?$pair@$$CBVBrn@OpenHome@@PAVBrh@2@@std@@@0@PAU?$pair@$$CBVBrn@OpenHome@@PAVBrh@2@@0@@Z 00438400 f i libohNetCore:Service.obj
 0001:00037420       ??$?0U?$pair@$$CBVBrn@OpenHome@@PAVBrh@2@@std@@@?$allocator@U_Node@?$_Tree_nod@V?$_Tmap_traits@VBrn@OpenHome@@PAVBrh@2@VBufferCmp@2@V?$allocator@U?$pair@$$CBVBrn@OpenHome@@PAVBrh@2@@std@@@std@@$0A@@std@@@std@@@std@@QAE@ABV?$allocator@U?$pair@$$CBVBrn@OpenHome@@PAVBrh@2@@std@@@1@@Z 00438420 f i libohNetCore:Service.obj
 0001:00037440       ??$_Allocate@U_Node@?$_Tree_nod@V?$_Tmap_traits@VBrn@OpenHome@@PAVBrh@2@VBufferCmp@2@V?$allocator@U?$pair@$$CBVBrn@OpenHome@@PAVBrh@2@@std@@@std@@$0A@@std@@@std@@@std@@YGPAU_Node@?$_Tree_nod@V?$_Tmap_traits@VBrn@OpenHome@@PAVBrh@2@VBufferCmp@2@V?$allocator@U?$pair@$$CBVBrn@OpenHome@@PAVBrh@2@@std@@@std@@$0A@@std@@@0@IPAU120@@Z 00438440 f i libohNetCore:Service.obj
 0001:000374c0       ??$_Allocate@PAVParameter@Net@OpenHome@@@std@@YGPAPAVParameter@Net@OpenHome@@IPAPAV123@@Z 004384c0 f i libohNetCore:Service.obj
 0001:00037540       ?_Linsert@?$_Tree@V?$_Tmap_traits@VBrn@OpenHome@@PAVBrh@2@VBufferCmp@2@V?$allocator@U?$pair@$$CBVBrn@OpenHome@@PAVBrh@2@@std@@@std@@$0A@@std@@@std@@QAE?AU?$pair@V?$_Tree_iterator@V?$_Tree_val@V?$_Tmap_traits@VBrn@OpenHome@@PAVBrh@2@VBufferCmp@2@V?$allocator@U?$pair@$$CBVBrn@OpenHome@@PAVBrh@2@@std@@@std@@$0A@@std@@@std@@@std@@_N@2@PAU_Node@?$_Tree_nod@V?$_Tmap_traits@VBrn@OpenHome@@PAVBrh@2@VBufferCmp@2@V?$allocator@U?$pair@$$CBVBrn@OpenHome@@PAVBrh@2@@std@@@std@@$0A@@std@@@2@_N@Z 00438540 f i libohNetCore:Service.obj
 0001:00037920       ?destroy@?$allocator@U?$pair@$$CBVBrn@OpenHome@@PAVBrh@2@@std@@@std@@QAEXPAU?$pair@$$CBVBrn@OpenHome@@PAVBrh@2@@2@@Z 00438920 f i libohNetCore:Service.obj
 0001:00037950       ?construct@?$allocator@PAVParameter@Net@OpenHome@@@std@@QAEXPAPAVParameter@Net@OpenHome@@ABQAV345@@Z 00438950 f i libohNetCore:Service.obj
 0001:00037980       ?_Insert@?$_Tree@V?$_Tmap_traits@VBrn@OpenHome@@PAVBrh@2@VBufferCmp@2@V?$allocator@U?$pair@$$CBVBrn@OpenHome@@PAVBrh@2@@std@@@std@@$0A@@std@@@std@@IAE?AV?$_Tree_iterator@V?$_Tree_val@V?$_Tmap_traits@VBrn@OpenHome@@PAVBrh@2@VBufferCmp@2@V?$allocator@U?$pair@$$CBVBrn@OpenHome@@PAVBrh@2@@std@@@std@@$0A@@std@@@std@@@2@_NPAU_Node@?$_Tree_nod@V?$_Tmap_traits@VBrn@OpenHome@@PAVBrh@2@VBufferCmp@2@V?$allocator@U?$pair@$$CBVBrn@OpenHome@@PAVBrh@2@@std@@@std@@$0A@@std@@@2@1@Z 00438980 f i libohNetCore:Service.obj
 0001:00037d40       ??0?$pair@V?$_Tree_iterator@V?$_Tree_val@V?$_Tmap_traits@VBrn@OpenHome@@PAVBrh@2@VBufferCmp@2@V?$allocator@U?$pair@$$CBVBrn@OpenHome@@PAVBrh@2@@std@@@std@@$0A@@std@@@std@@@std@@_N@std@@QAE@$$QAV?$_Tree_iterator@V?$_Tree_val@V?$_Tmap_traits@VBrn@OpenHome@@PAVBrh@2@VBufferCmp@2@V?$allocator@U?$pair@$$CBVBrn@OpenHome@@PAVBrh@2@@std@@@std@@$0A@@std@@@std@@@1@$$QA_N@Z 00438d40 f i libohNetCore:Service.obj
 0001:00037d80       ??F?$_Tree_iterator@V?$_Tree_val@V?$_Tmap_traits@VBrn@OpenHome@@PAVBrh@2@VBufferCmp@2@V?$allocator@U?$pair@$$CBVBrn@OpenHome@@PAVBrh@2@@std@@@std@@$0A@@std@@@std@@@std@@QAEAAV01@XZ 00438d80 f i libohNetCore:Service.obj
 0001:00037db0       ?max_size@?$_Tree@V?$_Tmap_traits@VBrn@OpenHome@@PAVBrh@2@VBufferCmp@2@V?$allocator@U?$pair@$$CBVBrn@OpenHome@@PAVBrh@2@@std@@@std@@$0A@@std@@@std@@QBEIXZ 00438db0 f i libohNetCore:Service.obj
 0001:00037de0       ??0?$_Pair_base@V?$_Tree_iterator@V?$_Tree_val@V?$_Tmap_traits@VBrn@OpenHome@@PAVBrh@2@VBufferCmp@2@V?$allocator@U?$pair@$$CBVBrn@OpenHome@@PAVBrh@2@@std@@@std@@$0A@@std@@@std@@@std@@_N@std@@QAE@$$QAV?$_Tree_iterator@V?$_Tree_val@V?$_Tmap_traits@VBrn@OpenHome@@PAVBrh@2@VBufferCmp@2@V?$allocator@U?$pair@$$CBVBrn@OpenHome@@PAVBrh@2@@std@@@std@@$0A@@std@@@std@@@1@$$QA_N@Z 00438de0 f i libohNetCore:Service.obj
 0001:00037e60       ??F?$_Tree_const_iterator@V?$_Tree_val@V?$_Tmap_traits@VBrn@OpenHome@@PAVBrh@2@VBufferCmp@2@V?$allocator@U?$pair@$$CBVBrn@OpenHome@@PAVBrh@2@@std@@@std@@$0A@@std@@@std@@@std@@QAEAAV01@XZ 00438e60 f i libohNetCore:Service.obj
 0001:00037f80       ?max_size@?$allocator@U?$pair@$$CBVBrn@OpenHome@@PAVBrh@2@@std@@@std@@QBEIXZ 00438f80 f i libohNetCore:Service.obj
 0001:00037fd0       ??F?$_Tree_unchecked_const_iterator@V?$_Tree_val@V?$_Tmap_traits@VBrn@OpenHome@@PAVBrh@2@VBufferCmp@2@V?$allocator@U?$pair@$$CBVBrn@OpenHome@@PAVBrh@2@@std@@@std@@$0A@@std@@@std@@U_Iterator_base12@2@@std@@QAEAAV01@XZ 00438fd0 f i libohNetCore:Service.obj
 0001:000380c0       ??$forward@AAPAVBrh@OpenHome@@@std@@YGAAPAVBrh@OpenHome@@AAPAV12@@Z 004390c0 f i libohNetCore:Service.obj
 0001:000380d0       ??$?0AAVBrn@OpenHome@@AAPAVBrh@1@@?$_Pair_base@VBrn@OpenHome@@PAVBrh@2@@std@@QAE@AAVBrn@OpenHome@@AAPAVBrh@3@@Z 004390d0 f i libohNetCore:Service.obj
 0001:00038150       ??$forward@U?$pair@VBrn@OpenHome@@PAVBrh@2@@std@@@std@@YG$$QAU?$pair@VBrn@OpenHome@@PAVBrh@2@@0@AAU10@@Z 00439150 f i libohNetCore:Service.obj
 0001:00038160       ??$_Buynode@U?$pair@VBrn@OpenHome@@PAVBrh@2@@std@@@?$_Tree_val@V?$_Tmap_traits@VBrn@OpenHome@@PAVBrh@2@VBufferCmp@2@V?$allocator@U?$pair@$$CBVBrn@OpenHome@@PAVBrh@2@@std@@@std@@$0A@@std@@@std@@QAEPAU_Node@?$_Tree_nod@V?$_Tmap_traits@VBrn@OpenHome@@PAVBrh@2@VBufferCmp@2@V?$allocator@U?$pair@$$CBVBrn@OpenHome@@PAVBrh@2@@std@@@std@@$0A@@std@@@1@$$QAU?$pair@VBrn@OpenHome@@PAVBrh@2@@1@@Z 00439160 f i libohNetCore:Service.obj
 0001:00038240       ??$forward@AAPAVParameter@Net@OpenHome@@@std@@YGAAPAVParameter@Net@OpenHome@@AAPAV123@@Z 00439240 f i libohNetCore:Service.obj
 0001:00038250       ??$construct@AAPAVParameter@Net@OpenHome@@@?$allocator@PAVParameter@Net@OpenHome@@@std@@QAEXPAPAVParameter@Net@OpenHome@@AAPAV234@@Z 00439250 f i libohNetCore:Service.obj
 0001:000382f0       ??$forward@ABQAVParameter@Net@OpenHome@@@std@@YGABQAVParameter@Net@OpenHome@@ABQAV123@@Z 004392f0 f i libohNetCore:Service.obj
 0001:00038300       ??$_Uninitialized_move@PAPAVParameter@Net@OpenHome@@PAPAV123@V?$allocator@PAVParameter@Net@OpenHome@@@std@@@std@@YGPAPAVParameter@Net@OpenHome@@PAPAV123@00AAV?$allocator@PAVParameter@Net@OpenHome@@@0@@Z 00439300 f i libohNetCore:Service.obj
 0001:00038350       ??$_Ptr_cat@PAVParameter@Net@OpenHome@@PAV123@@std@@YG?AU_Scalar_ptr_iterator_tag@0@PAPAVParameter@Net@OpenHome@@0@Z 00439350 f i libohNetCore:Service.obj
 0001:000383b0       ??$_Destroy_range@V?$allocator@PAVParameter@Net@OpenHome@@@std@@@std@@YGXPAPAVParameter@Net@OpenHome@@0AAV?$allocator@PAVParameter@Net@OpenHome@@@0@U_Scalar_ptr_iterator_tag@0@@Z 004393b0 f i libohNetCore:Service.obj
 0001:000383c0       ??$?0AAV?$_Tree_iterator@V?$_Tree_val@V?$_Tmap_traits@VBrn@OpenHome@@PAVBrh@2@VBufferCmp@2@V?$allocator@U?$pair@$$CBVBrn@OpenHome@@PAVBrh@2@@std@@@std@@$0A@@std@@@std@@@std@@_N@?$pair@V?$_Tree_iterator@V?$_Tree_val@V?$_Tmap_traits@VBrn@OpenHome@@PAVBrh@2@VBufferCmp@2@V?$allocator@U?$pair@$$CBVBrn@OpenHome@@PAVBrh@2@@std@@@std@@$0A@@std@@@std@@@std@@_N@std@@QAE@AAV?$_Tree_iterator@V?$_Tree_val@V?$_Tmap_traits@VBrn@OpenHome@@PAVBrh@2@VBufferCmp@2@V?$allocator@U?$pair@$$CBVBrn@OpenHome@@PAVBrh@2@@std@@@std@@$0A@@std@@@std@@@1@$$QA_N@Z 004393c0 f i libohNetCore:Service.obj
 0001:00038400       ??$_Destroy@U?$pair@$$CBVBrn@OpenHome@@PAVBrh@2@@std@@@std@@YGXPAU?$pair@$$CBVBrn@OpenHome@@PAVBrh@2@@0@@Z 00439400 f i libohNetCore:Service.obj
 0001:00038420       ??$_Construct@PAVParameter@Net@OpenHome@@ABQAV123@@std@@YGXPAPAVParameter@Net@OpenHome@@ABQAV123@@Z 00439420 f i libohNetCore:Service.obj
 0001:000384d0       ??$move@AAV?$_Tree_iterator@V?$_Tree_val@V?$_Tmap_traits@VBrn@OpenHome@@PAVBrh@2@VBufferCmp@2@V?$allocator@U?$pair@$$CBVBrn@OpenHome@@PAVBrh@2@@std@@@std@@$0A@@std@@@std@@@std@@@std@@YG$$QAV?$_Tree_iterator@V?$_Tree_val@V?$_Tmap_traits@VBrn@OpenHome@@PAVBrh@2@VBufferCmp@2@V?$allocator@U?$pair@$$CBVBrn@OpenHome@@PAVBrh@2@@std@@@std@@$0A@@std@@@std@@@0@AAV10@@Z 004394d0 f i libohNetCore:Service.obj
 0001:000384e0       ??_G?$pair@$$CBVBrn@OpenHome@@PAVBrh@2@@std@@QAEPAXI@Z 004394e0 f i libohNetCore:Service.obj
 0001:00038520       ??1?$pair@$$CBVBrn@OpenHome@@PAVBrh@2@@std@@QAE@XZ 00439520 f i libohNetCore:Service.obj
 0001:00038550       ??1?$_Pair_base@$$CBVBrn@OpenHome@@PAVBrh@2@@std@@QAE@XZ 00439550 f i libohNetCore:Service.obj
 0001:00038580       ?_Buynode@?$_Tree_val@V?$_Tmap_traits@VBrn@OpenHome@@PAVBrh@2@VBufferCmp@2@V?$allocator@U?$pair@$$CBVBrn@OpenHome@@PAVBrh@2@@std@@@std@@$0A@@std@@@std@@QAEPAU_Node@?$_Tree_nod@V?$_Tmap_traits@VBrn@OpenHome@@PAVBrh@2@VBufferCmp@2@V?$allocator@U?$pair@$$CBVBrn@OpenHome@@PAVBrh@2@@std@@@std@@$0A@@std@@@2@XZ 00439580 f i libohNetCore:Service.obj
 0001:00038610       ??$_Cons_val@V?$allocator@U?$pair@$$CBVBrn@OpenHome@@PAVBrh@2@@std@@@std@@U?$pair@$$CBVBrn@OpenHome@@PAVBrh@2@@2@U?$pair@VBrn@OpenHome@@PAVBrh@2@@2@@std@@YGXAAV?$allocator@U?$pair@$$CBVBrn@OpenHome@@PAVBrh@2@@std@@@0@PAU?$pair@$$CBVBrn@OpenHome@@PAVBrh@2@@0@$$QAU?$pair@VBrn@OpenHome@@PAVBrh@2@@0@@Z 00439610 f i libohNetCore:Service.obj
 0001:00038640       ??$_Val_type@PAPAVParameter@Net@OpenHome@@@std@@YGPAPAVParameter@Net@OpenHome@@PAPAV123@@Z 00439640 f i libohNetCore:Service.obj
 0001:00038650       ??$_Uninit_move@PAVParameter@Net@OpenHome@@PAV123@PAV123@@std@@YGPAPAVParameter@Net@OpenHome@@PAPAV123@00AAV?$allocator@PAVParameter@Net@OpenHome@@@0@0U_Scalar_ptr_iterator_tag@0@@Z 00439650 f i libohNetCore:Service.obj
 0001:000386c0       ??$forward@AAV?$_Tree_iterator@V?$_Tree_val@V?$_Tmap_traits@VBrn@OpenHome@@PAVBrh@2@VBufferCmp@2@V?$allocator@U?$pair@$$CBVBrn@OpenHome@@PAVBrh@2@@std@@@std@@$0A@@std@@@std@@@std@@@std@@YGAAV?$_Tree_iterator@V?$_Tree_val@V?$_Tmap_traits@VBrn@OpenHome@@PAVBrh@2@VBufferCmp@2@V?$allocator@U?$pair@$$CBVBrn@OpenHome@@PAVBrh@2@@std@@@std@@$0A@@std@@@std@@@0@AAV10@@Z 004396c0 f i libohNetCore:Service.obj
 0001:000386d0       ??$?0AAV?$_Tree_iterator@V?$_Tree_val@V?$_Tmap_traits@VBrn@OpenHome@@PAVBrh@2@VBufferCmp@2@V?$allocator@U?$pair@$$CBVBrn@OpenHome@@PAVBrh@2@@std@@@std@@$0A@@std@@@std@@@std@@_N@?$_Pair_base@V?$_Tree_iterator@V?$_Tree_val@V?$_Tmap_traits@VBrn@OpenHome@@PAVBrh@2@VBufferCmp@2@V?$allocator@U?$pair@$$CBVBrn@OpenHome@@PAVBrh@2@@std@@@std@@$0A@@std@@@std@@@std@@_N@std@@QAE@AAV?$_Tree_iterator@V?$_Tree_val@V?$_Tmap_traits@VBrn@OpenHome@@PAVBrh@2@VBufferCmp@2@V?$allocator@U?$pair@$$CBVBrn@OpenHome@@PAVBrh@2@@std@@@std@@$0A@@std@@@std@@@1@$$QA_N@Z 004396d0 f i libohNetCore:Service.obj
 0001:00038750       ??$construct@U?$pair@VBrn@OpenHome@@PAVBrh@2@@std@@@?$allocator@U?$pair@$$CBVBrn@OpenHome@@PAVBrh@2@@std@@@std@@QAEXPAU?$pair@$$CBVBrn@OpenHome@@PAVBrh@2@@1@$$QAU?$pair@VBrn@OpenHome@@PAVBrh@2@@1@@Z 00439750 f i libohNetCore:Service.obj
 0001:000387f0       ??$_Debug_range@PAPAVParameter@Net@OpenHome@@@std@@YGXPAPAVParameter@Net@OpenHome@@0PB_WI@Z 004397f0 f i libohNetCore:Service.obj
 0001:00038840       ??$_Debug_pointer@PAVParameter@Net@OpenHome@@@std@@YGXPAPAVParameter@Net@OpenHome@@PB_WI@Z 00439840 f i libohNetCore:Service.obj
 0001:00038870       ??$?0VBrn@OpenHome@@PAVBrh@1@@?$pair@$$CBVBrn@OpenHome@@PAVBrh@2@@std@@QAE@$$QAU?$pair@VBrn@OpenHome@@PAVBrh@2@@1@@Z 00439870 f i libohNetCore:Service.obj
 0001:000388b0       ??$_Iter_cat@PAPAVParameter@Net@OpenHome@@@std@@YG?AUrandom_access_iterator_tag@0@ABQAPAVParameter@Net@OpenHome@@@Z 004398b0 f i libohNetCore:Service.obj
 0001:00038910       ??$_Debug_range2@PAPAVParameter@Net@OpenHome@@@std@@YGXPAPAVParameter@Net@OpenHome@@0PB_WIUrandom_access_iterator_tag@0@@Z 00439910 f i libohNetCore:Service.obj
 0001:00038970       ??$forward@PAVBrh@OpenHome@@@std@@YG$$QAPAVBrh@OpenHome@@AAPAV12@@Z 00439970 f i libohNetCore:Service.obj
 0001:00038980       ??$?0VBrn@OpenHome@@PAVBrh@1@@?$_Pair_base@$$CBVBrn@OpenHome@@PAVBrh@2@@std@@QAE@$$QAVBrn@OpenHome@@$$QAPAVBrh@3@@Z 00439980 f i libohNetCore:Service.obj
 0001:00038a00       ??0DvAction@Net@OpenHome@@QAE@PAVAction@12@VFunctorDviInvocation@12@@Z 00439a00 f   libohNetCore:DviService.obj
 0001:00038a40       ?Action@DvAction@Net@OpenHome@@QAEPAV023@XZ 00439a40 f   libohNetCore:DviService.obj
 0001:00038a60       ?Action@DvAction@Net@OpenHome@@QBEPBV023@XZ 00439a60 f   libohNetCore:DviService.obj
 0001:00038a80       ?Functor@DvAction@Net@OpenHome@@QBE?AVFunctorDviInvocation@23@XZ 00439a80 f   libohNetCore:DviService.obj
 0001:00038ac0       ??0DviService@Net@OpenHome@@QAE@PBD0I@Z 00439ac0 f   libohNetCore:DviService.obj
 0001:00038bb0       ??1DviService@Net@OpenHome@@AAE@XZ 00439bb0 f   libohNetCore:DviService.obj
 0001:00038dd0       ?AddRef@DviService@Net@OpenHome@@QAEXXZ 00439dd0 f   libohNetCore:DviService.obj
 0001:00038e20       ?RemoveRef@DviService@Net@OpenHome@@QAEXXZ 00439e20 f   libohNetCore:DviService.obj
 0001:00038ec0       ?AddAction@DviService@Net@OpenHome@@QAEXPAVAction@23@VFunctorDviInvocation@23@@Z 00439ec0 f   libohNetCore:DviService.obj
 0001:00038f60       ?DvActions@DviService@Net@OpenHome@@QBEABV?$vector@VDvAction@Net@OpenHome@@V?$allocator@VDvAction@Net@OpenHome@@@std@@@std@@XZ 00439f60 f   libohNetCore:DviService.obj
 0001:00038f80       ?Invoke@DviService@Net@OpenHome@@QAEXAAVIDviInvocation@23@IABVBrx@3@@Z 00439f80 f   libohNetCore:DviService.obj
 0001:000390b0       ?PropertiesLock@DviService@Net@OpenHome@@QAEXXZ 0043a0b0 f   libohNetCore:DviService.obj
 0001:000390e0       ?PropertiesUnlock@DviService@Net@OpenHome@@QAEXXZ 0043a0e0 f   libohNetCore:DviService.obj
 0001:00039110       ?AddProperty@DviService@Net@OpenHome@@QAEXPAVProperty@23@@Z 0043a110 f   libohNetCore:DviService.obj
 0001:00039140       ?Properties@DviService@Net@OpenHome@@QBEABV?$vector@PAVProperty@Net@OpenHome@@V?$allocator@PAVProperty@Net@OpenHome@@@std@@@std@@XZ 0043a140 f   libohNetCore:DviService.obj
 0001:00039160       ?PublishPropertyUpdates@DviService@Net@OpenHome@@QAEXXZ 0043a160 f   libohNetCore:DviService.obj
 0001:000391e0       ?AddSubscription@DviService@Net@OpenHome@@QAEXPAVDviSubscription@23@@Z 0043a1e0 f   libohNetCore:DviService.obj
 0001:00039240       ?RemoveSubscription@DviService@Net@OpenHome@@QAEXABVBrx@3@@Z 0043a240 f   libohNetCore:DviService.obj
 0001:000393c0       ??0InvocationResponse@Net@OpenHome@@QAE@AAVIDviInvocation@12@@Z 0043a3c0 f   libohNetCore:DviService.obj
 0001:00039440       ?Error@InvocationResponse@Net@OpenHome@@UAEXHABVBrx@3@@Z 0043a440 f   libohNetCore:DviService.obj
 0001:00039490       ?Start@InvocationResponse@Net@OpenHome@@UAEXXZ 0043a490 f   libohNetCore:DviService.obj
 0001:000394d0       ?End@InvocationResponse@Net@OpenHome@@UAEXXZ 0043a4d0 f   libohNetCore:DviService.obj
 0001:00039510       ??0InvocationResponseBool@Net@OpenHome@@QAE@AAVIDviInvocation@12@PBD@Z 0043a510 f   libohNetCore:DviService.obj
 0001:000395a0       ?Write@InvocationResponseBool@Net@OpenHome@@UAEX_N@Z 0043a5a0 f   libohNetCore:DviService.obj
 0001:000395f0       ??0InvocationResponseUint@Net@OpenHome@@QAE@AAVIDviInvocation@12@PBD@Z 0043a5f0 f   libohNetCore:DviService.obj
 0001:00039680       ?Write@InvocationResponseUint@Net@OpenHome@@UAEXI@Z 0043a680 f   libohNetCore:DviService.obj
 0001:000396d0       ??0InvocationResponseInt@Net@OpenHome@@QAE@AAVIDviInvocation@12@PBD@Z 0043a6d0 f   libohNetCore:DviService.obj
 0001:00039760       ?Write@InvocationResponseInt@Net@OpenHome@@UAEXH@Z 0043a760 f   libohNetCore:DviService.obj
 0001:000397b0       ??0InvocationResponseBinary@Net@OpenHome@@QAE@AAVIDviInvocation@12@PBD@Z 0043a7b0 f   libohNetCore:DviService.obj
 0001:00039840       ?CheckFirst@InvocationResponseBinary@Net@OpenHome@@AAEXXZ 0043a840 f   libohNetCore:DviService.obj
 0001:000398a0       ?Write@InvocationResponseBinary@Net@OpenHome@@UAEXE@Z 0043a8a0 f   libohNetCore:DviService.obj
 0001:000398f0       ?Write@InvocationResponseBinary@Net@OpenHome@@UAEXABVBrx@3@@Z 0043a8f0 f   libohNetCore:DviService.obj
 0001:00039940       ?WriteFlush@InvocationResponseBinary@Net@OpenHome@@UAEXXZ 0043a940 f   libohNetCore:DviService.obj
 0001:00039990       ??0InvocationResponseString@Net@OpenHome@@QAE@AAVIDviInvocation@12@PBD@Z 0043a990 f   libohNetCore:DviService.obj
 0001:00039a20       ?CheckFirst@InvocationResponseString@Net@OpenHome@@AAEXXZ 0043aa20 f   libohNetCore:DviService.obj
 0001:00039a80       ?Write@InvocationResponseString@Net@OpenHome@@UAEXE@Z 0043aa80 f   libohNetCore:DviService.obj
 0001:00039ad0       ?Write@InvocationResponseString@Net@OpenHome@@UAEXABVBrx@3@@Z 0043aad0 f   libohNetCore:DviService.obj
 0001:00039b20       ?WriteFlush@InvocationResponseString@Net@OpenHome@@UAEXXZ 0043ab20 f   libohNetCore:DviService.obj
 0001:00039b70       ??1Service@Net@OpenHome@@IAE@XZ 0043ab70 f i libohNetCore:DviService.obj
 0001:00039ba0       ??_GDviService@Net@OpenHome@@AAEPAXI@Z 0043aba0 f i libohNetCore:DviService.obj
 0001:00039be0       ??RFunctorDviInvocation@Net@OpenHome@@QBEXAAVIDviInvocation@12@I@Z 0043abe0 f i libohNetCore:DviService.obj
 0001:00039c20       ??1?$_Vector_iterator@V?$_Vector_val@PAVDviSubscription@Net@OpenHome@@V?$allocator@PAVDviSubscription@Net@OpenHome@@@std@@@std@@@std@@QAE@XZ 0043ac20 f i libohNetCore:DviService.obj
 0001:00039c50       ??0?$_Vector_const_iterator@V?$_Vector_val@PAVDviSubscription@Net@OpenHome@@V?$allocator@PAVDviSubscription@Net@OpenHome@@@std@@@std@@@std@@QAE@ABV01@@Z 0043ac50 f i libohNetCore:DviService.obj
 0001:00039c90       ??1?$_Vector_const_iterator@V?$_Vector_val@PAVDviSubscription@Net@OpenHome@@V?$allocator@PAVDviSubscription@Net@OpenHome@@@std@@@std@@@std@@QAE@XZ 0043ac90 f i libohNetCore:DviService.obj
 0001:00039cc0       ??0?$_Iterator012@Urandom_access_iterator_tag@std@@PAVDviSubscription@Net@OpenHome@@HPBQAV345@ABQAV345@U_Iterator_base12@2@@std@@QAE@ABU01@@Z 0043acc0 f i libohNetCore:DviService.obj
 0001:00039cf0       ??1?$_Iterator012@Urandom_access_iterator_tag@std@@PAVDviSubscription@Net@OpenHome@@HPBQAV345@ABQAV345@U_Iterator_base12@2@@std@@QAE@XZ 0043acf0 f i libohNetCore:DviService.obj
 0001:00039d20       ??1IInvocationResponse@Net@OpenHome@@UAE@XZ 0043ad20 f i libohNetCore:DviService.obj
 0001:00039d40       ??_EIInvocationResponse@Net@OpenHome@@UAEPAXI@Z 0043ad40 f i libohNetCore:DviService.obj
 0001:00039d40       ??_GIInvocationResponse@Net@OpenHome@@UAEPAXI@Z 0043ad40 f i libohNetCore:DviService.obj
 0001:00039d80       ??_EInvocationResponse@Net@OpenHome@@UAEPAXI@Z 0043ad80 f i libohNetCore:DviService.obj
 0001:00039d80       ??_GInvocationResponse@Net@OpenHome@@UAEPAXI@Z 0043ad80 f i libohNetCore:DviService.obj
 0001:00039dc0       ??0IInvocationResponse@Net@OpenHome@@QAE@XZ 0043adc0 f i libohNetCore:DviService.obj
 0001:00039de0       ??1InvocationResponse@Net@OpenHome@@UAE@XZ 0043ade0 f i libohNetCore:DviService.obj
 0001:00039e10       ??_EInvocationResponseBool@Net@OpenHome@@UAEPAXI@Z 0043ae10 f i libohNetCore:DviService.obj
 0001:00039e10       ??_GInvocationResponseBool@Net@OpenHome@@UAEPAXI@Z 0043ae10 f i libohNetCore:DviService.obj
 0001:00039e50       ??0IInvocationResponseBool@Net@OpenHome@@QAE@XZ 0043ae50 f i libohNetCore:DviService.obj
 0001:00039e70       ??_GInvocationResponseUint@Net@OpenHome@@UAEPAXI@Z 0043ae70 f i libohNetCore:DviService.obj
 0001:00039e70       ??_EInvocationResponseUint@Net@OpenHome@@UAEPAXI@Z 0043ae70 f i libohNetCore:DviService.obj
 0001:00039eb0       ??0IInvocationResponseUint@Net@OpenHome@@QAE@XZ 0043aeb0 f i libohNetCore:DviService.obj
 0001:00039ed0       ??_GInvocationResponseInt@Net@OpenHome@@UAEPAXI@Z 0043aed0 f i libohNetCore:DviService.obj
 0001:00039ed0       ??_EInvocationResponseInt@Net@OpenHome@@UAEPAXI@Z 0043aed0 f i libohNetCore:DviService.obj
 0001:00039f10       ??0IInvocationResponseInt@Net@OpenHome@@QAE@XZ 0043af10 f i libohNetCore:DviService.obj
 0001:00039f30       ??_EInvocationResponseBinary@Net@OpenHome@@UAEPAXI@Z 0043af30 f i libohNetCore:DviService.obj
 0001:00039f30       ??_GInvocationResponseBinary@Net@OpenHome@@UAEPAXI@Z 0043af30 f i libohNetCore:DviService.obj
 0001:00039f70       ??0IInvocationResponseBinary@Net@OpenHome@@QAE@XZ 0043af70 f i libohNetCore:DviService.obj
 0001:00039fa0       ??_GInvocationResponseString@Net@OpenHome@@UAEPAXI@Z 0043afa0 f i libohNetCore:DviService.obj
 0001:00039fa0       ??_EInvocationResponseString@Net@OpenHome@@UAEPAXI@Z 0043afa0 f i libohNetCore:DviService.obj
 0001:00039fe0       ??0IInvocationResponseString@Net@OpenHome@@QAE@XZ 0043afe0 f i libohNetCore:DviService.obj
 0001:0003a010       ??0?$vector@VDvAction@Net@OpenHome@@V?$allocator@VDvAction@Net@OpenHome@@@std@@@std@@QAE@XZ 0043b010 f i libohNetCore:DviService.obj
 0001:0003a050       ??1?$vector@VDvAction@Net@OpenHome@@V?$allocator@VDvAction@Net@OpenHome@@@std@@@std@@QAE@XZ 0043b050 f i libohNetCore:DviService.obj
 0001:0003a0c0       ?size@?$vector@VDvAction@Net@OpenHome@@V?$allocator@VDvAction@Net@OpenHome@@@std@@@std@@QBEIXZ 0043b0c0 f i libohNetCore:DviService.obj
 0001:0003a0f0       ??A?$vector@VDvAction@Net@OpenHome@@V?$allocator@VDvAction@Net@OpenHome@@@std@@@std@@QAEAAVDvAction@Net@OpenHome@@I@Z 0043b0f0 f i libohNetCore:DviService.obj
 0001:0003a190       ?push_back@?$vector@VDvAction@Net@OpenHome@@V?$allocator@VDvAction@Net@OpenHome@@@std@@@std@@QAEXABVDvAction@Net@OpenHome@@@Z 0043b190 f i libohNetCore:DviService.obj
 0001:0003a2a0       ??0?$vector@PAVProperty@Net@OpenHome@@V?$allocator@PAVProperty@Net@OpenHome@@@std@@@std@@QAE@XZ 0043b2a0 f i libohNetCore:DviService.obj
 0001:0003a2e0       ??1?$vector@PAVProperty@Net@OpenHome@@V?$allocator@PAVProperty@Net@OpenHome@@@std@@@std@@QAE@XZ 0043b2e0 f i libohNetCore:DviService.obj
 0001:0003a350       ?size@?$vector@PAVProperty@Net@OpenHome@@V?$allocator@PAVProperty@Net@OpenHome@@@std@@@std@@QBEIXZ 0043b350 f i libohNetCore:DviService.obj
 0001:0003a380       ??A?$vector@PAVProperty@Net@OpenHome@@V?$allocator@PAVProperty@Net@OpenHome@@@std@@@std@@QAEAAPAVProperty@Net@OpenHome@@I@Z 0043b380 f i libohNetCore:DviService.obj
 0001:0003a420       ?push_back@?$vector@PAVProperty@Net@OpenHome@@V?$allocator@PAVProperty@Net@OpenHome@@@std@@@std@@QAEXABQAVProperty@Net@OpenHome@@@Z 0043b420 f i libohNetCore:DviService.obj
 0001:0003a530       ??0?$vector@PAVDviSubscription@Net@OpenHome@@V?$allocator@PAVDviSubscription@Net@OpenHome@@@std@@@std@@QAE@XZ 0043b530 f i libohNetCore:DviService.obj
 0001:0003a570       ??1?$vector@PAVDviSubscription@Net@OpenHome@@V?$allocator@PAVDviSubscription@Net@OpenHome@@@std@@@std@@QAE@XZ 0043b570 f i libohNetCore:DviService.obj
 0001:0003a5e0       ?begin@?$vector@PAVDviSubscription@Net@OpenHome@@V?$allocator@PAVDviSubscription@Net@OpenHome@@@std@@@std@@QAE?AV?$_Vector_iterator@V?$_Vector_val@PAVDviSubscription@Net@OpenHome@@V?$allocator@PAVDviSubscription@Net@OpenHome@@@std@@@std@@@2@XZ 0043b5e0 f i libohNetCore:DviService.obj
 0001:0003a630       ?size@?$vector@PAVDviSubscription@Net@OpenHome@@V?$allocator@PAVDviSubscription@Net@OpenHome@@@std@@@std@@QBEIXZ 0043b630 f i libohNetCore:DviService.obj
 0001:0003a660       ??A?$vector@PAVDviSubscription@Net@OpenHome@@V?$allocator@PAVDviSubscription@Net@OpenHome@@@std@@@std@@QAEAAPAVDviSubscription@Net@OpenHome@@I@Z 0043b660 f i libohNetCore:DviService.obj
 0001:0003a700       ?push_back@?$vector@PAVDviSubscription@Net@OpenHome@@V?$allocator@PAVDviSubscription@Net@OpenHome@@@std@@@std@@QAEXABQAVDviSubscription@Net@OpenHome@@@Z 0043b700 f i libohNetCore:DviService.obj
 0001:0003a810       ?erase@?$vector@PAVDviSubscription@Net@OpenHome@@V?$allocator@PAVDviSubscription@Net@OpenHome@@@std@@@std@@QAE?AV?$_Vector_iterator@V?$_Vector_val@PAVDviSubscription@Net@OpenHome@@V?$allocator@PAVDviSubscription@Net@OpenHome@@@std@@@std@@@2@V?$_Vector_const_iterator@V?$_Vector_val@PAVDviSubscription@Net@OpenHome@@V?$allocator@PAVDviSubscription@Net@OpenHome@@@std@@@std@@@2@@Z 0043b810 f i libohNetCore:DviService.obj
 0001:0003a940       ??H?$_Vector_iterator@V?$_Vector_val@PAVDviSubscription@Net@OpenHome@@V?$allocator@PAVDviSubscription@Net@OpenHome@@@std@@@std@@@std@@QBE?AV01@H@Z 0043b940 f i libohNetCore:DviService.obj
 0001:0003aa20       ??0?$_Vector_iterator@V?$_Vector_val@PAVDviSubscription@Net@OpenHome@@V?$allocator@PAVDviSubscription@Net@OpenHome@@@std@@@std@@@std@@QAE@ABV01@@Z 0043ba20 f i libohNetCore:DviService.obj
 0001:0003aa50       ??0?$allocator@PAVDviSubscription@Net@OpenHome@@@std@@QAE@XZ 0043ba50 f i libohNetCore:DviService.obj
 0001:0003aa70       ?_Inside@?$vector@VDvAction@Net@OpenHome@@V?$allocator@VDvAction@Net@OpenHome@@@std@@@std@@IBE_NPBVDvAction@Net@OpenHome@@@Z 0043ba70 f i libohNetCore:DviService.obj
 0001:0003aac0       ?_Reserve@?$vector@VDvAction@Net@OpenHome@@V?$allocator@VDvAction@Net@OpenHome@@@std@@@std@@IAEXI@Z 0043bac0 f i libohNetCore:DviService.obj
 0001:0003ab40       ?_Tidy@?$vector@VDvAction@Net@OpenHome@@V?$allocator@VDvAction@Net@OpenHome@@@std@@@std@@IAEXXZ 0043bb40 f i libohNetCore:DviService.obj
 0001:0003abd0       ?_Orphan_range@?$vector@VDvAction@Net@OpenHome@@V?$allocator@VDvAction@Net@OpenHome@@@std@@@std@@IBEXPAVDvAction@Net@OpenHome@@0@Z 0043bbd0 f i libohNetCore:DviService.obj
 0001:0003ace0       ??0?$_Vector_val@VDvAction@Net@OpenHome@@V?$allocator@VDvAction@Net@OpenHome@@@std@@@std@@QAE@V?$allocator@VDvAction@Net@OpenHome@@@1@@Z 0043bce0 f i libohNetCore:DviService.obj
 0001:0003ae00       ??1?$_Vector_val@VDvAction@Net@OpenHome@@V?$allocator@VDvAction@Net@OpenHome@@@std@@@std@@QAE@XZ 0043be00 f i libohNetCore:DviService.obj
 0001:0003aee0       ??0?$allocator@VDvAction@Net@OpenHome@@@std@@QAE@XZ 0043bee0 f i libohNetCore:DviService.obj
 0001:0003af00       ?_Inside@?$vector@PAVProperty@Net@OpenHome@@V?$allocator@PAVProperty@Net@OpenHome@@@std@@@std@@IBE_NPBQAVProperty@Net@OpenHome@@@Z 0043bf00 f i libohNetCore:DviService.obj
 0001:0003af50       ?_Reserve@?$vector@PAVProperty@Net@OpenHome@@V?$allocator@PAVProperty@Net@OpenHome@@@std@@@std@@IAEXI@Z 0043bf50 f i libohNetCore:DviService.obj
 0001:0003afd0       ?_Tidy@?$vector@PAVProperty@Net@OpenHome@@V?$allocator@PAVProperty@Net@OpenHome@@@std@@@std@@IAEXXZ 0043bfd0 f i libohNetCore:DviService.obj
 0001:0003b060       ?_Orphan_range@?$vector@PAVProperty@Net@OpenHome@@V?$allocator@PAVProperty@Net@OpenHome@@@std@@@std@@IBEXPAPAVProperty@Net@OpenHome@@0@Z 0043c060 f i libohNetCore:DviService.obj
 0001:0003b170       ??0?$_Vector_val@PAVProperty@Net@OpenHome@@V?$allocator@PAVProperty@Net@OpenHome@@@std@@@std@@QAE@V?$allocator@PAVProperty@Net@OpenHome@@@1@@Z 0043c170 f i libohNetCore:DviService.obj
 0001:0003b290       ??1?$_Vector_val@PAVProperty@Net@OpenHome@@V?$allocator@PAVProperty@Net@OpenHome@@@std@@@std@@QAE@XZ 0043c290 f i libohNetCore:DviService.obj
 0001:0003b370       ??0?$allocator@PAVProperty@Net@OpenHome@@@std@@QAE@XZ 0043c370 f i libohNetCore:DviService.obj
 0001:0003b390       ?_Make_iter@?$vector@PAVDviSubscription@Net@OpenHome@@V?$allocator@PAVDviSubscription@Net@OpenHome@@@std@@@std@@QBE?AV?$_Vector_iterator@V?$_Vector_val@PAVDviSubscription@Net@OpenHome@@V?$allocator@PAVDviSubscription@Net@OpenHome@@@std@@@std@@@2@V?$_Vector_const_iterator@V?$_Vector_val@PAVDviSubscription@Net@OpenHome@@V?$allocator@PAVDviSubscription@Net@OpenHome@@@std@@@std@@@2@@Z 0043c390 f i libohNetCore:DviService.obj
 0001:0003b420       ?_Destroy@?$vector@PAVDviSubscription@Net@OpenHome@@V?$allocator@PAVDviSubscription@Net@OpenHome@@@std@@@std@@IAEXPAPAVDviSubscription@Net@OpenHome@@0@Z 0043c420 f i libohNetCore:DviService.obj
 0001:0003b460       ?_Inside@?$vector@PAVDviSubscription@Net@OpenHome@@V?$allocator@PAVDviSubscription@Net@OpenHome@@@std@@@std@@IBE_NPBQAVDviSubscription@Net@OpenHome@@@Z 0043c460 f i libohNetCore:DviService.obj
 0001:0003b4b0       ?_Reserve@?$vector@PAVDviSubscription@Net@OpenHome@@V?$allocator@PAVDviSubscription@Net@OpenHome@@@std@@@std@@IAEXI@Z 0043c4b0 f i libohNetCore:DviService.obj
 0001:0003b530       ?_Tidy@?$vector@PAVDviSubscription@Net@OpenHome@@V?$allocator@PAVDviSubscription@Net@OpenHome@@@std@@@std@@IAEXXZ 0043c530 f i libohNetCore:DviService.obj
 0001:0003b5c0       ?_Orphan_range@?$vector@PAVDviSubscription@Net@OpenHome@@V?$allocator@PAVDviSubscription@Net@OpenHome@@@std@@@std@@IBEXPAPAVDviSubscription@Net@OpenHome@@0@Z 0043c5c0 f i libohNetCore:DviService.obj
 0001:0003b6d0       ??0?$_Vector_val@PAVDviSubscription@Net@OpenHome@@V?$allocator@PAVDviSubscription@Net@OpenHome@@@std@@@std@@QAE@V?$allocator@PAVDviSubscription@Net@OpenHome@@@1@@Z 0043c6d0 f i libohNetCore:DviService.obj
 0001:0003b7f0       ??1?$_Vector_val@PAVDviSubscription@Net@OpenHome@@V?$allocator@PAVDviSubscription@Net@OpenHome@@@std@@@std@@QAE@XZ 0043c7f0 f i libohNetCore:DviService.obj
 0001:0003b8d0       ??0?$_Vector_iterator@V?$_Vector_val@PAVDviSubscription@Net@OpenHome@@V?$allocator@PAVDviSubscription@Net@OpenHome@@@std@@@std@@@std@@QAE@PAPAVDviSubscription@Net@OpenHome@@PBU_Container_base12@1@@Z 0043c8d0 f i libohNetCore:DviService.obj
 0001:0003b910       ??Y?$_Vector_iterator@V?$_Vector_val@PAVDviSubscription@Net@OpenHome@@V?$allocator@PAVDviSubscription@Net@OpenHome@@@std@@@std@@@std@@QAEAAV01@H@Z 0043c910 f i libohNetCore:DviService.obj
 0001:0003b940       ??0?$allocator@PAVDviSubscription@Net@OpenHome@@@std@@QAE@ABV01@@Z 0043c940 f i libohNetCore:DviService.obj
 0001:0003b960       ?deallocate@?$allocator@PAVDviSubscription@Net@OpenHome@@@std@@QAEXPAPAVDviSubscription@Net@OpenHome@@I@Z 0043c960 f i libohNetCore:DviService.obj
 0001:0003b990       ?reserve@?$vector@VDvAction@Net@OpenHome@@V?$allocator@VDvAction@Net@OpenHome@@@std@@@std@@QAEXI@Z 0043c990 f i libohNetCore:DviService.obj
 0001:0003bb10       ?capacity@?$vector@VDvAction@Net@OpenHome@@V?$allocator@VDvAction@Net@OpenHome@@@std@@@std@@QBEIXZ 0043cb10 f i libohNetCore:DviService.obj
 0001:0003bb40       ?max_size@?$vector@VDvAction@Net@OpenHome@@V?$allocator@VDvAction@Net@OpenHome@@@std@@@std@@QBEIXZ 0043cb40 f i libohNetCore:DviService.obj
 0001:0003bb70       ?_Destroy@?$vector@VDvAction@Net@OpenHome@@V?$allocator@VDvAction@Net@OpenHome@@@std@@@std@@IAEXPAVDvAction@Net@OpenHome@@0@Z 0043cb70 f i libohNetCore:DviService.obj
 0001:0003bbb0       ?_Grow_to@?$vector@VDvAction@Net@OpenHome@@V?$allocator@VDvAction@Net@OpenHome@@@std@@@std@@IBEII@Z 0043cbb0 f i libohNetCore:DviService.obj
 0001:0003bc30       ?_Xlen@?$vector@VDvAction@Net@OpenHome@@V?$allocator@VDvAction@Net@OpenHome@@@std@@@std@@IBEXXZ 0043cc30 f i libohNetCore:DviService.obj
 0001:0003bc60       ??0?$allocator@VDvAction@Net@OpenHome@@@std@@QAE@ABV01@@Z 0043cc60 f i libohNetCore:DviService.obj
 0001:0003bc80       ?deallocate@?$allocator@VDvAction@Net@OpenHome@@@std@@QAEXPAVDvAction@Net@OpenHome@@I@Z 0043cc80 f i libohNetCore:DviService.obj
 0001:0003bcb0       ?reserve@?$vector@PAVProperty@Net@OpenHome@@V?$allocator@PAVProperty@Net@OpenHome@@@std@@@std@@QAEXI@Z 0043ccb0 f i libohNetCore:DviService.obj
 0001:0003be20       ?capacity@?$vector@PAVProperty@Net@OpenHome@@V?$allocator@PAVProperty@Net@OpenHome@@@std@@@std@@QBEIXZ 0043ce20 f i libohNetCore:DviService.obj
 0001:0003be50       ?max_size@?$vector@PAVProperty@Net@OpenHome@@V?$allocator@PAVProperty@Net@OpenHome@@@std@@@std@@QBEIXZ 0043ce50 f i libohNetCore:DviService.obj
 0001:0003be80       ?_Destroy@?$vector@PAVProperty@Net@OpenHome@@V?$allocator@PAVProperty@Net@OpenHome@@@std@@@std@@IAEXPAPAVProperty@Net@OpenHome@@0@Z 0043ce80 f i libohNetCore:DviService.obj
 0001:0003bec0       ?_Grow_to@?$vector@PAVProperty@Net@OpenHome@@V?$allocator@PAVProperty@Net@OpenHome@@@std@@@std@@IBEII@Z 0043cec0 f i libohNetCore:DviService.obj
 0001:0003bf40       ?_Xlen@?$vector@PAVProperty@Net@OpenHome@@V?$allocator@PAVProperty@Net@OpenHome@@@std@@@std@@IBEXXZ 0043cf40 f i libohNetCore:DviService.obj
 0001:0003bf70       ??0?$allocator@PAVProperty@Net@OpenHome@@@std@@QAE@ABV01@@Z 0043cf70 f i libohNetCore:DviService.obj
 0001:0003bf90       ?deallocate@?$allocator@PAVProperty@Net@OpenHome@@@std@@QAEXPAPAVProperty@Net@OpenHome@@I@Z 0043cf90 f i libohNetCore:DviService.obj
 0001:0003bfc0       ?reserve@?$vector@PAVDviSubscription@Net@OpenHome@@V?$allocator@PAVDviSubscription@Net@OpenHome@@@std@@@std@@QAEXI@Z 0043cfc0 f i libohNetCore:DviService.obj
 0001:0003c130       ?capacity@?$vector@PAVDviSubscription@Net@OpenHome@@V?$allocator@PAVDviSubscription@Net@OpenHome@@@std@@@std@@QBEIXZ 0043d130 f i libohNetCore:DviService.obj
 0001:0003c160       ?max_size@?$vector@PAVDviSubscription@Net@OpenHome@@V?$allocator@PAVDviSubscription@Net@OpenHome@@@std@@@std@@QBEIXZ 0043d160 f i libohNetCore:DviService.obj
 0001:0003c190       ?_Grow_to@?$vector@PAVDviSubscription@Net@OpenHome@@V?$allocator@PAVDviSubscription@Net@OpenHome@@@std@@@std@@IBEII@Z 0043d190 f i libohNetCore:DviService.obj
 0001:0003c210       ?_Xlen@?$vector@PAVDviSubscription@Net@OpenHome@@V?$allocator@PAVDviSubscription@Net@OpenHome@@@std@@@std@@IBEXXZ 0043d210 f i libohNetCore:DviService.obj
 0001:0003c240       ??0?$_Vector_const_iterator@V?$_Vector_val@PAVDviSubscription@Net@OpenHome@@V?$allocator@PAVDviSubscription@Net@OpenHome@@@std@@@std@@@std@@QAE@PAPAVDviSubscription@Net@OpenHome@@PBU_Container_base12@1@@Z 0043d240 f i libohNetCore:DviService.obj
 0001:0003c2c0       ??Y?$_Vector_const_iterator@V?$_Vector_val@PAVDviSubscription@Net@OpenHome@@V?$allocator@PAVDviSubscription@Net@OpenHome@@@std@@@std@@@std@@QAEAAV01@H@Z 0043d2c0 f i libohNetCore:DviService.obj
 0001:0003c3a0       ??0?$_Iterator012@Urandom_access_iterator_tag@std@@PAVDviSubscription@Net@OpenHome@@HPBQAV345@ABQAV345@U_Iterator_base12@2@@std@@QAE@XZ 0043d3a0 f i libohNetCore:DviService.obj
 0001:0003c3d0       ?allocate@?$allocator@PAVDviSubscription@Net@OpenHome@@@std@@QAEPAPAVDviSubscription@Net@OpenHome@@I@Z 0043d3d0 f i libohNetCore:DviService.obj
 0001:0003c400       ?max_size@?$allocator@PAVDviSubscription@Net@OpenHome@@@std@@QBEIXZ 0043d400 f i libohNetCore:DviService.obj
 0001:0003c450       ?allocate@?$allocator@VDvAction@Net@OpenHome@@@std@@QAEPAVDvAction@Net@OpenHome@@I@Z 0043d450 f i libohNetCore:DviService.obj
 0001:0003c480       ?max_size@?$allocator@VDvAction@Net@OpenHome@@@std@@QBEIXZ 0043d480 f i libohNetCore:DviService.obj
 0001:0003c4d0       ?allocate@?$allocator@PAVProperty@Net@OpenHome@@@std@@QAEPAPAVProperty@Net@OpenHome@@I@Z 0043d4d0 f i libohNetCore:DviService.obj
 0001:0003c500       ?max_size@?$allocator@PAVProperty@Net@OpenHome@@@std@@QBEIXZ 0043d500 f i libohNetCore:DviService.obj
 0001:0003c550       ??$addressof@$$CBVDvAction@Net@OpenHome@@@std@@YGPBVDvAction@Net@OpenHome@@ABV123@@Z 0043d550 f i libohNetCore:DviService.obj
 0001:0003c560       ??$_Cons_val@V?$allocator@VDvAction@Net@OpenHome@@@std@@VDvAction@Net@OpenHome@@AAV345@@std@@YGXAAV?$allocator@VDvAction@Net@OpenHome@@@0@PAVDvAction@Net@OpenHome@@AAV234@@Z 0043d560 f i libohNetCore:DviService.obj
 0001:0003c590       ??$_Cons_val@V?$allocator@VDvAction@Net@OpenHome@@@std@@VDvAction@Net@OpenHome@@ABV345@@std@@YGXAAV?$allocator@VDvAction@Net@OpenHome@@@0@PAVDvAction@Net@OpenHome@@ABV234@@Z 0043d590 f i libohNetCore:DviService.obj
 0001:0003c5c0       ??$addressof@QAVProperty@Net@OpenHome@@@std@@YGPBQAVProperty@Net@OpenHome@@ABQAV123@@Z 0043d5c0 f i libohNetCore:DviService.obj
 0001:0003c5d0       ??$_Cons_val@V?$allocator@PAVProperty@Net@OpenHome@@@std@@PAVProperty@Net@OpenHome@@AAPAV345@@std@@YGXAAV?$allocator@PAVProperty@Net@OpenHome@@@0@PAPAVProperty@Net@OpenHome@@AAPAV234@@Z 0043d5d0 f i libohNetCore:DviService.obj
 0001:0003c600       ??$_Cons_val@V?$allocator@PAVProperty@Net@OpenHome@@@std@@PAVProperty@Net@OpenHome@@ABQAV345@@std@@YGXAAV?$allocator@PAVProperty@Net@OpenHome@@@0@PAPAVProperty@Net@OpenHome@@ABQAV234@@Z 0043d600 f i libohNetCore:DviService.obj
 0001:0003c630       ??$addressof@QAVDviSubscription@Net@OpenHome@@@std@@YGPBQAVDviSubscription@Net@OpenHome@@ABQAV123@@Z 0043d630 f i libohNetCore:DviService.obj
 0001:0003c640       ??$_Cons_val@V?$allocator@PAVDviSubscription@Net@OpenHome@@@std@@PAVDviSubscription@Net@OpenHome@@AAPAV345@@std@@YGXAAV?$allocator@PAVDviSubscription@Net@OpenHome@@@0@PAPAVDviSubscription@Net@OpenHome@@AAPAV234@@Z 0043d640 f i libohNetCore:DviService.obj
 0001:0003c670       ??$_Cons_val@V?$allocator@PAVDviSubscription@Net@OpenHome@@@std@@PAVDviSubscription@Net@OpenHome@@ABQAV345@@std@@YGXAAV?$allocator@PAVDviSubscription@Net@OpenHome@@@0@PAPAVDviSubscription@Net@OpenHome@@ABQAV234@@Z 0043d670 f i libohNetCore:DviService.obj
 0001:0003c6a0       ??$_Move@PAPAVDviSubscription@Net@OpenHome@@PAPAV123@@std@@YGPAPAVDviSubscription@Net@OpenHome@@PAPAV123@00@Z 0043d6a0 f i libohNetCore:DviService.obj
 0001:0003c6f0       ??$?0VDvAction@Net@OpenHome@@@?$allocator@U_Container_proxy@std@@@std@@QAE@ABV?$allocator@VDvAction@Net@OpenHome@@@1@@Z 0043d6f0 f i libohNetCore:DviService.obj
 0001:0003c710       ??$?0PAVProperty@Net@OpenHome@@@?$allocator@U_Container_proxy@std@@@std@@QAE@ABV?$allocator@PAVProperty@Net@OpenHome@@@1@@Z 0043d710 f i libohNetCore:DviService.obj
 0001:0003c730       ??$_Destroy_range@V?$allocator@PAVDviSubscription@Net@OpenHome@@@std@@@std@@YGXPAPAVDviSubscription@Net@OpenHome@@0AAV?$allocator@PAVDviSubscription@Net@OpenHome@@@0@@Z 0043d730 f i libohNetCore:DviService.obj
 0001:0003c780       ??$?0PAVDviSubscription@Net@OpenHome@@@?$allocator@U_Container_proxy@std@@@std@@QAE@ABV?$allocator@PAVDviSubscription@Net@OpenHome@@@1@@Z 0043d780 f i libohNetCore:DviService.obj
 0001:0003c7a0       ??$_Umove@PAVDvAction@Net@OpenHome@@@?$vector@VDvAction@Net@OpenHome@@V?$allocator@VDvAction@Net@OpenHome@@@std@@@std@@IAEPAVDvAction@Net@OpenHome@@PAV234@00@Z 0043d7a0 f i libohNetCore:DviService.obj
 0001:0003c7e0       ??$_Destroy_range@V?$allocator@VDvAction@Net@OpenHome@@@std@@@std@@YGXPAVDvAction@Net@OpenHome@@0AAV?$allocator@VDvAction@Net@OpenHome@@@0@@Z 0043d7e0 f i libohNetCore:DviService.obj
 0001:0003c830       ??$_Umove@PAPAVProperty@Net@OpenHome@@@?$vector@PAVProperty@Net@OpenHome@@V?$allocator@PAVProperty@Net@OpenHome@@@std@@@std@@IAEPAPAVProperty@Net@OpenHome@@PAPAV234@00@Z 0043d830 f i libohNetCore:DviService.obj
 0001:0003c870       ??$_Destroy_range@V?$allocator@PAVProperty@Net@OpenHome@@@std@@@std@@YGXPAPAVProperty@Net@OpenHome@@0AAV?$allocator@PAVProperty@Net@OpenHome@@@0@@Z 0043d870 f i libohNetCore:DviService.obj
 0001:0003c8c0       ??$_Umove@PAPAVDviSubscription@Net@OpenHome@@@?$vector@PAVDviSubscription@Net@OpenHome@@V?$allocator@PAVDviSubscription@Net@OpenHome@@@std@@@std@@IAEPAPAVDviSubscription@Net@OpenHome@@PAPAV234@00@Z 0043d8c0 f i libohNetCore:DviService.obj
 0001:0003c900       ??$_Allocate@PAVDviSubscription@Net@OpenHome@@@std@@YGPAPAVDviSubscription@Net@OpenHome@@IPAPAV123@@Z 0043d900 f i libohNetCore:DviService.obj
 0001:0003c980       ??$_Allocate@VDvAction@Net@OpenHome@@@std@@YGPAVDvAction@Net@OpenHome@@IPAV123@@Z 0043d980 f i libohNetCore:DviService.obj
 0001:0003ca00       ??$_Allocate@PAVProperty@Net@OpenHome@@@std@@YGPAPAVProperty@Net@OpenHome@@IPAPAV123@@Z 0043da00 f i libohNetCore:DviService.obj
 0001:0003ca80       ?construct@?$allocator@PAVDviSubscription@Net@OpenHome@@@std@@QAEXPAPAVDviSubscription@Net@OpenHome@@ABQAV345@@Z 0043da80 f i libohNetCore:DviService.obj
 0001:0003cab0       ?construct@?$allocator@VDvAction@Net@OpenHome@@@std@@QAEXPAVDvAction@Net@OpenHome@@ABV345@@Z 0043dab0 f i libohNetCore:DviService.obj
 0001:0003cae0       ?construct@?$allocator@PAVProperty@Net@OpenHome@@@std@@QAEXPAPAVProperty@Net@OpenHome@@ABQAV345@@Z 0043dae0 f i libohNetCore:DviService.obj
 0001:0003cb10       ??$forward@AAVDvAction@Net@OpenHome@@@std@@YGAAVDvAction@Net@OpenHome@@AAV123@@Z 0043db10 f i libohNetCore:DviService.obj
 0001:0003cb20       ??$construct@AAVDvAction@Net@OpenHome@@@?$allocator@VDvAction@Net@OpenHome@@@std@@QAEXPAVDvAction@Net@OpenHome@@AAV234@@Z 0043db20 f i libohNetCore:DviService.obj
 0001:0003cbe0       ??$forward@ABVDvAction@Net@OpenHome@@@std@@YGABVDvAction@Net@OpenHome@@ABV123@@Z 0043dbe0 f i libohNetCore:DviService.obj
 0001:0003cbf0       ??$construct@AAPAVProperty@Net@OpenHome@@@?$allocator@PAVProperty@Net@OpenHome@@@std@@QAEXPAPAVProperty@Net@OpenHome@@AAPAV234@@Z 0043dbf0 f i libohNetCore:DviService.obj
 0001:0003cc90       ??$forward@ABQAVProperty@Net@OpenHome@@@std@@YGABQAVProperty@Net@OpenHome@@ABQAV123@@Z 0043dc90 f i libohNetCore:DviService.obj
 0001:0003cca0       ??$forward@AAPAVDviSubscription@Net@OpenHome@@@std@@YGAAPAVDviSubscription@Net@OpenHome@@AAPAV123@@Z 0043dca0 f i libohNetCore:DviService.obj
 0001:0003ccb0       ??$construct@AAPAVDviSubscription@Net@OpenHome@@@?$allocator@PAVDviSubscription@Net@OpenHome@@@std@@QAEXPAPAVDviSubscription@Net@OpenHome@@AAPAV234@@Z 0043dcb0 f i libohNetCore:DviService.obj
 0001:0003cd50       ??$forward@ABQAVDviSubscription@Net@OpenHome@@@std@@YGABQAVDviSubscription@Net@OpenHome@@ABQAV123@@Z 0043dd50 f i libohNetCore:DviService.obj
 0001:0003cd60       ??$_Ptr_cat@PAVDviSubscription@Net@OpenHome@@PAV123@@std@@YG?AU_Scalar_ptr_iterator_tag@0@PAPAVDviSubscription@Net@OpenHome@@0@Z 0043dd60 f i libohNetCore:DviService.obj
 0001:0003cdc0       ??$_Move@PAPAVDviSubscription@Net@OpenHome@@PAPAV123@@std@@YGPAPAVDviSubscription@Net@OpenHome@@PAPAV123@00U_Scalar_ptr_iterator_tag@0@@Z 0043ddc0 f i libohNetCore:DviService.obj
 0001:0003ce10       ??$_Destroy_range@V?$allocator@PAVDviSubscription@Net@OpenHome@@@std@@@std@@YGXPAPAVDviSubscription@Net@OpenHome@@0AAV?$allocator@PAVDviSubscription@Net@OpenHome@@@0@U_Scalar_ptr_iterator_tag@0@@Z 0043de10 f i libohNetCore:DviService.obj
 0001:0003ce20       ??$_Uninitialized_move@PAVDvAction@Net@OpenHome@@PAV123@V?$allocator@VDvAction@Net@OpenHome@@@std@@@std@@YGPAVDvAction@Net@OpenHome@@PAV123@00AAV?$allocator@VDvAction@Net@OpenHome@@@0@@Z 0043de20 f i libohNetCore:DviService.obj
 0001:0003ce70       ??$_Ptr_cat@VDvAction@Net@OpenHome@@V123@@std@@YG?AU_Nonscalar_ptr_iterator_tag@0@PAVDvAction@Net@OpenHome@@0@Z 0043de70 f i libohNetCore:DviService.obj
 0001:0003ced0       ??$_Destroy_range@V?$allocator@VDvAction@Net@OpenHome@@@std@@@std@@YGXPAVDvAction@Net@OpenHome@@0AAV?$allocator@VDvAction@Net@OpenHome@@@0@U_Nonscalar_ptr_iterator_tag@0@@Z 0043ded0 f i libohNetCore:DviService.obj
 0001:0003cf00       ??$_Uninitialized_move@PAPAVProperty@Net@OpenHome@@PAPAV123@V?$allocator@PAVProperty@Net@OpenHome@@@std@@@std@@YGPAPAVProperty@Net@OpenHome@@PAPAV123@00AAV?$allocator@PAVProperty@Net@OpenHome@@@0@@Z 0043df00 f i libohNetCore:DviService.obj
 0001:0003cf50       ??$_Ptr_cat@PAVProperty@Net@OpenHome@@PAV123@@std@@YG?AU_Scalar_ptr_iterator_tag@0@PAPAVProperty@Net@OpenHome@@0@Z 0043df50 f i libohNetCore:DviService.obj
 0001:0003cfb0       ??$_Destroy_range@V?$allocator@PAVProperty@Net@OpenHome@@@std@@@std@@YGXPAPAVProperty@Net@OpenHome@@0AAV?$allocator@PAVProperty@Net@OpenHome@@@0@U_Scalar_ptr_iterator_tag@0@@Z 0043dfb0 f i libohNetCore:DviService.obj
 0001:0003cfc0       ??$_Uninitialized_move@PAPAVDviSubscription@Net@OpenHome@@PAPAV123@V?$allocator@PAVDviSubscription@Net@OpenHome@@@std@@@std@@YGPAPAVDviSubscription@Net@OpenHome@@PAPAV123@00AAV?$allocator@PAVDviSubscription@Net@OpenHome@@@0@@Z 0043dfc0 f i libohNetCore:DviService.obj
 0001:0003d010       ??$_Construct@PAVDviSubscription@Net@OpenHome@@ABQAV123@@std@@YGXPAPAVDviSubscription@Net@OpenHome@@ABQAV123@@Z 0043e010 f i libohNetCore:DviService.obj
 0001:0003d0c0       ??$_Construct@VDvAction@Net@OpenHome@@ABV123@@std@@YGXPAVDvAction@Net@OpenHome@@ABV123@@Z 0043e0c0 f i libohNetCore:DviService.obj
 0001:0003d180       ??$_Construct@PAVProperty@Net@OpenHome@@ABQAV123@@std@@YGXPAPAVProperty@Net@OpenHome@@ABQAV123@@Z 0043e180 f i libohNetCore:DviService.obj
 0001:0003d230       ??$_Val_type@PAVDvAction@Net@OpenHome@@@std@@YGPAVDvAction@Net@OpenHome@@PAV123@@Z 0043e230 f i libohNetCore:DviService.obj
 0001:0003d240       ??$_Uninit_move@PAVDvAction@Net@OpenHome@@PAV123@V?$allocator@VDvAction@Net@OpenHome@@@std@@V123@@std@@YGPAVDvAction@Net@OpenHome@@PAV123@00AAV?$allocator@VDvAction@Net@OpenHome@@@0@0U_Nonscalar_ptr_iterator_tag@0@@Z 0043e240 f i libohNetCore:DviService.obj
 0001:0003d340       ??$_Dest_val@V?$allocator@VDvAction@Net@OpenHome@@@std@@VDvAction@Net@OpenHome@@@std@@YGXAAV?$allocator@VDvAction@Net@OpenHome@@@0@PAVDvAction@Net@OpenHome@@@Z 0043e340 f i libohNetCore:DviService.obj
 0001:0003d360       ??$_Val_type@PAPAVProperty@Net@OpenHome@@@std@@YGPAPAVProperty@Net@OpenHome@@PAPAV123@@Z 0043e360 f i libohNetCore:DviService.obj
 0001:0003d370       ??$_Uninit_move@PAVProperty@Net@OpenHome@@PAV123@PAV123@@std@@YGPAPAVProperty@Net@OpenHome@@PAPAV123@00AAV?$allocator@PAVProperty@Net@OpenHome@@@0@0U_Scalar_ptr_iterator_tag@0@@Z 0043e370 f i libohNetCore:DviService.obj
 0001:0003d3e0       ??$_Val_type@PAPAVDviSubscription@Net@OpenHome@@@std@@YGPAPAVDviSubscription@Net@OpenHome@@PAPAV123@@Z 0043e3e0 f i libohNetCore:DviService.obj
 0001:0003d3f0       ??$_Uninit_move@PAVDviSubscription@Net@OpenHome@@PAV123@PAV123@@std@@YGPAPAVDviSubscription@Net@OpenHome@@PAPAV123@00AAV?$allocator@PAVDviSubscription@Net@OpenHome@@@0@0U_Scalar_ptr_iterator_tag@0@@Z 0043e3f0 f i libohNetCore:DviService.obj
 0001:0003d460       ?destroy@?$allocator@VDvAction@Net@OpenHome@@@std@@QAEXPAVDvAction@Net@OpenHome@@@Z 0043e460 f i libohNetCore:DviService.obj
 0001:0003d490       ??$_Debug_range@PAVDvAction@Net@OpenHome@@@std@@YGXPAVDvAction@Net@OpenHome@@0PB_WI@Z 0043e490 f i libohNetCore:DviService.obj
 0001:0003d4e0       ??$_Debug_pointer@VDvAction@Net@OpenHome@@@std@@YGXPAVDvAction@Net@OpenHome@@PB_WI@Z 0043e4e0 f i libohNetCore:DviService.obj
 0001:0003d510       ??$_Cons_val@V?$allocator@VDvAction@Net@OpenHome@@@std@@VDvAction@Net@OpenHome@@V345@@std@@YGXAAV?$allocator@VDvAction@Net@OpenHome@@@0@PAVDvAction@Net@OpenHome@@$$QAV234@@Z 0043e510 f i libohNetCore:DviService.obj
 0001:0003d540       ??$_Debug_range@PAPAVProperty@Net@OpenHome@@@std@@YGXPAPAVProperty@Net@OpenHome@@0PB_WI@Z 0043e540 f i libohNetCore:DviService.obj
 0001:0003d590       ??$_Debug_pointer@PAVProperty@Net@OpenHome@@@std@@YGXPAPAVProperty@Net@OpenHome@@PB_WI@Z 0043e590 f i libohNetCore:DviService.obj
 0001:0003d5c0       ??$_Debug_range@PAPAVDviSubscription@Net@OpenHome@@@std@@YGXPAPAVDviSubscription@Net@OpenHome@@0PB_WI@Z 0043e5c0 f i libohNetCore:DviService.obj
 0001:0003d610       ??$_Debug_pointer@PAVDviSubscription@Net@OpenHome@@@std@@YGXPAPAVDviSubscription@Net@OpenHome@@PB_WI@Z 0043e610 f i libohNetCore:DviService.obj
 0001:0003d640       ??$_Destroy@VDvAction@Net@OpenHome@@@std@@YGXPAVDvAction@Net@OpenHome@@@Z 0043e640 f i libohNetCore:DviService.obj
 0001:0003d650       ?construct@?$allocator@VDvAction@Net@OpenHome@@@std@@QAEXPAVDvAction@Net@OpenHome@@$$QAV345@@Z 0043e650 f i libohNetCore:DviService.obj
 0001:0003d710       ??$_Iter_cat@PAVDvAction@Net@OpenHome@@@std@@YG?AUrandom_access_iterator_tag@0@ABQAVDvAction@Net@OpenHome@@@Z 0043e710 f i libohNetCore:DviService.obj
 0001:0003d770       ??$_Debug_range2@PAVDvAction@Net@OpenHome@@@std@@YGXPAVDvAction@Net@OpenHome@@0PB_WIUrandom_access_iterator_tag@0@@Z 0043e770 f i libohNetCore:DviService.obj
 0001:0003d7d0       ??$forward@VDvAction@Net@OpenHome@@@std@@YG$$QAVDvAction@Net@OpenHome@@AAV123@@Z 0043e7d0 f i libohNetCore:DviService.obj
 0001:0003d7e0       ??$_Iter_cat@PAPAVProperty@Net@OpenHome@@@std@@YG?AUrandom_access_iterator_tag@0@ABQAPAVProperty@Net@OpenHome@@@Z 0043e7e0 f i libohNetCore:DviService.obj
 0001:0003d840       ??$_Debug_range2@PAPAVProperty@Net@OpenHome@@@std@@YGXPAPAVProperty@Net@OpenHome@@0PB_WIUrandom_access_iterator_tag@0@@Z 0043e840 f i libohNetCore:DviService.obj
 0001:0003d8a0       ??$_Iter_cat@PAPAVDviSubscription@Net@OpenHome@@@std@@YG?AUrandom_access_iterator_tag@0@ABQAPAVDviSubscription@Net@OpenHome@@@Z 0043e8a0 f i libohNetCore:DviService.obj
 0001:0003d900       ??$_Debug_range2@PAPAVDviSubscription@Net@OpenHome@@@std@@YGXPAPAVDviSubscription@Net@OpenHome@@0PB_WIUrandom_access_iterator_tag@0@@Z 0043e900 f i libohNetCore:DviService.obj
 0001:0003d960       ?Functor@SyncProxyAction@Net@OpenHome@@QAEAAVFunctorAsync@23@XZ 0043e960 f   libohNetCore:AsyncPrivate.obj
 0001:0003d980       ?Wait@SyncProxyAction@Net@OpenHome@@QAEXXZ 0043e980 f   libohNetCore:AsyncPrivate.obj
 0001:0003da50       ??0SyncProxyAction@Net@OpenHome@@IAE@XZ 0043ea50 f   libohNetCore:AsyncPrivate.obj
 0001:0003db20       ??1SyncProxyAction@Net@OpenHome@@IAE@XZ 0043eb20 f   libohNetCore:AsyncPrivate.obj
 0001:0003db50       ?Completed@SyncProxyAction@Net@OpenHome@@AAEXAAVIAsync@23@@Z 0043eb50 f   libohNetCore:AsyncPrivate.obj
 0001:0003dc60       ??$MakeFunctorAsync@VSyncProxyAction@Net@OpenHome@@V123@@Net@OpenHome@@YG?AV?$MemberTranslatorAsync@VSyncProxyAction@Net@OpenHome@@P8123@AEXAAVIAsync@23@@Z@01@AAVSyncProxyAction@01@ABQ8301@AEXAAVIAsync@01@@Z@Z 0043ec60 f i libohNetCore:AsyncPrivate.obj
 0001:0003dc90       ??0?$MemberTranslatorAsync@VSyncProxyAction@Net@OpenHome@@P8123@AEXAAVIAsync@23@@Z@Net@OpenHome@@QAE@AAVSyncProxyAction@12@ABQ8312@AEXAAVIAsync@12@@Z@Z 0043ec90 f i libohNetCore:AsyncPrivate.obj
 0001:0003dcd0       ?Thunk@?$MemberTranslatorAsync@VSyncProxyAction@Net@OpenHome@@P8123@AEXAAVIAsync@23@@Z@Net@OpenHome@@SGXABVFunctorAsync@23@AAVIAsync@23@@Z 0043ecd0 f i libohNetCore:AsyncPrivate.obj
 0001:0003dd20       ??0CpiService@Net@OpenHome@@QAE@PBD0IAAVCpiDevice@12@@Z 0043ed20 f   libohNetCore:CpiService.obj
 0001:0003de00       ??1CpiService@Net@OpenHome@@QAE@XZ 0043ee00 f   libohNetCore:CpiService.obj
 0001:0003df20       ?Invocation@CpiService@Net@OpenHome@@QAEPAV023@ABVAction@23@AAVFunctorAsync@23@@Z 0043ef20 f   libohNetCore:CpiService.obj
 0001:0003dfa0       ?Subscribe@CpiService@Net@OpenHome@@QAEXAAVIEventProcessor@23@@Z 0043efa0 f   libohNetCore:CpiService.obj
 0001:0003e000       ?Unsubscribe@CpiService@Net@OpenHome@@QAEXXZ 0043f000 f   libohNetCore:CpiService.obj
 0001:0003e060       ?InvocationCompleted@CpiService@Net@OpenHome@@QAEXXZ 0043f060 f   libohNetCore:CpiService.obj
 0001:0003e0e0       ?Interrupt@CpiService@Net@OpenHome@@QBE_NXZ 0043f0e0 f   libohNetCore:CpiService.obj
 0001:0003e100       ?Device@CpiService@Net@OpenHome@@QAEAAVCpiDevice@23@XZ 0043f100 f   libohNetCore:CpiService.obj
 0001:0003e120       ?Parameter@Argument@Net@OpenHome@@QBEABV023@XZ 0043f120 f   libohNetCore:CpiService.obj
 0001:0003e140       ??0Argument@Net@OpenHome@@IAE@ABVParameter@12@@Z 0043f140 f   libohNetCore:CpiService.obj
 0001:0003e180       ??1Argument@Net@OpenHome@@UAE@XZ 0043f180 f   libohNetCore:CpiService.obj
 0001:0003e1a0       ?ValidationFailed@Argument@Net@OpenHome@@IAEXABVParameter@23@@Z 0043f1a0 f   libohNetCore:CpiService.obj
 0001:0003e200       ??0ArgumentString@Net@OpenHome@@QAE@ABVParameter@12@@Z 0043f200 f   libohNetCore:CpiService.obj
 0001:0003e280       ??0ArgumentString@Net@OpenHome@@QAE@ABVParameter@12@ABVBrx@2@@Z 0043f280 f   libohNetCore:CpiService.obj
 0001:0003e370       ??1ArgumentString@Net@OpenHome@@UAE@XZ 0043f370 f   libohNetCore:CpiService.obj
 0001:0003e3e0       ?Value@ArgumentString@Net@OpenHome@@QBEABVBrx@3@XZ 0043f3e0 f   libohNetCore:CpiService.obj
 0001:0003e400       ?TransferTo@ArgumentString@Net@OpenHome@@QAEXAAVBrh@3@@Z 0043f400 f   libohNetCore:CpiService.obj
 0001:0003e430       ?ProcessInput@ArgumentString@Net@OpenHome@@UAEXAAVIInputArgumentProcessor@23@@Z 0043f430 f   libohNetCore:CpiService.obj
 0001:0003e470       ?ProcessOutput@ArgumentString@Net@OpenHome@@UAEXAAVIOutputProcessor@23@ABVBrx@3@@Z 0043f470 f   libohNetCore:CpiService.obj
 0001:0003e4e0       ??0ArgumentInt@Net@OpenHome@@QAE@ABVParameter@12@@Z 0043f4e0 f   libohNetCore:CpiService.obj
 0001:0003e520       ??0ArgumentInt@Net@OpenHome@@QAE@ABVParameter@12@H@Z 0043f520 f   libohNetCore:CpiService.obj
 0001:0003e5f0       ??1ArgumentInt@Net@OpenHome@@UAE@XZ 0043f5f0 f   libohNetCore:CpiService.obj
 0001:0003e620       ?Value@ArgumentInt@Net@OpenHome@@QBEHXZ 0043f620 f   libohNetCore:CpiService.obj
 0001:0003e640       ?ProcessInput@ArgumentInt@Net@OpenHome@@UAEXAAVIInputArgumentProcessor@23@@Z 0043f640 f   libohNetCore:CpiService.obj
 0001:0003e680       ?ProcessOutput@ArgumentInt@Net@OpenHome@@UAEXAAVIOutputProcessor@23@ABVBrx@3@@Z 0043f680 f   libohNetCore:CpiService.obj
 0001:0003e6f0       ??0ArgumentUint@Net@OpenHome@@QAE@ABVParameter@12@@Z 0043f6f0 f   libohNetCore:CpiService.obj
 0001:0003e730       ??0ArgumentUint@Net@OpenHome@@QAE@ABVParameter@12@I@Z 0043f730 f   libohNetCore:CpiService.obj
 0001:0003e800       ??1ArgumentUint@Net@OpenHome@@UAE@XZ 0043f800 f   libohNetCore:CpiService.obj
 0001:0003e830       ?Value@ArgumentUint@Net@OpenHome@@QBEIXZ 0043f830 f   libohNetCore:CpiService.obj
 0001:0003e850       ?ProcessInput@ArgumentUint@Net@OpenHome@@UAEXAAVIInputArgumentProcessor@23@@Z 0043f850 f   libohNetCore:CpiService.obj
 0001:0003e890       ?ProcessOutput@ArgumentUint@Net@OpenHome@@UAEXAAVIOutputProcessor@23@ABVBrx@3@@Z 0043f890 f   libohNetCore:CpiService.obj
 0001:0003e900       ??0ArgumentBool@Net@OpenHome@@QAE@ABVParameter@12@@Z 0043f900 f   libohNetCore:CpiService.obj
 0001:0003e940       ??0ArgumentBool@Net@OpenHome@@QAE@ABVParameter@12@_N@Z 0043f940 f   libohNetCore:CpiService.obj
 0001:0003ea10       ??1ArgumentBool@Net@OpenHome@@UAE@XZ 0043fa10 f   libohNetCore:CpiService.obj
 0001:0003ea40       ?Value@ArgumentBool@Net@OpenHome@@QBE_NXZ 0043fa40 f   libohNetCore:CpiService.obj
 0001:0003ea60       ?ProcessInput@ArgumentBool@Net@OpenHome@@UAEXAAVIInputArgumentProcessor@23@@Z 0043fa60 f   libohNetCore:CpiService.obj
 0001:0003eaa0       ?ProcessOutput@ArgumentBool@Net@OpenHome@@UAEXAAVIOutputProcessor@23@ABVBrx@3@@Z 0043faa0 f   libohNetCore:CpiService.obj
 0001:0003eb10       ??0ArgumentBinary@Net@OpenHome@@QAE@ABVParameter@12@@Z 0043fb10 f   libohNetCore:CpiService.obj
 0001:0003eb90       ??0ArgumentBinary@Net@OpenHome@@QAE@ABVParameter@12@ABVBrx@2@@Z 0043fb90 f   libohNetCore:CpiService.obj
 0001:0003ec80       ??1ArgumentBinary@Net@OpenHome@@UAE@XZ 0043fc80 f   libohNetCore:CpiService.obj
 0001:0003ecf0       ?Value@ArgumentBinary@Net@OpenHome@@QBEABVBrx@3@XZ 0043fcf0 f   libohNetCore:CpiService.obj
 0001:0003ed10       ?TransferTo@ArgumentBinary@Net@OpenHome@@QAEXAAVBrh@3@@Z 0043fd10 f   libohNetCore:CpiService.obj
 0001:0003ed40       ?ProcessInput@ArgumentBinary@Net@OpenHome@@UAEXAAVIInputArgumentProcessor@23@@Z 0043fd40 f   libohNetCore:CpiService.obj
 0001:0003ed80       ?ProcessOutput@ArgumentBinary@Net@OpenHome@@UAEXAAVIOutputProcessor@23@ABVBrx@3@@Z 0043fd80 f   libohNetCore:CpiService.obj
 0001:0003edf0       ?SignalCompleted@Invocation@Net@OpenHome@@QAEXXZ 0043fdf0 f   libohNetCore:CpiService.obj
 0001:0003ef30       ?Error@Invocation@Net@OpenHome@@QBE_NXZ 0043ff30 f   libohNetCore:CpiService.obj
 0001:0003ef60       ?Interrupt@Invocation@Net@OpenHome@@QBE_NXZ 0043ff60 f   libohNetCore:CpiService.obj
 0001:0003ef90       ?Set@Invocation@Net@OpenHome@@QAEXAAVCpiService@23@ABVAction@23@AAVCpiDevice@23@AAVFunctorAsync@23@@Z 0043ff90 f   libohNetCore:CpiService.obj
 0001:0003f000       ?AddInput@Invocation@Net@OpenHome@@QAEXPAVArgument@23@@Z 00440000 f   libohNetCore:CpiService.obj
 0001:0003f030       ?AddOutput@Invocation@Net@OpenHome@@QAEXPAVArgument@23@@Z 00440030 f   libohNetCore:CpiService.obj
 0001:0003f060       ?SetError@Invocation@Net@OpenHome@@QAEXW4ELevel@Error@23@IABVBrx@3@@Z 00440060 f   libohNetCore:CpiService.obj
 0001:0003f0b0       ?SetInterruptHandler@Invocation@Net@OpenHome@@QAEXPAVIInterruptHandler@23@@Z 004400b0 f   libohNetCore:CpiService.obj
 0001:0003f1a0       ?Interrupt@Invocation@Net@OpenHome@@QAEXABVService@23@@Z 004401a0 f   libohNetCore:CpiService.obj
 0001:0003f290       ?ServiceType@Invocation@Net@OpenHome@@QBEABV023@XZ 00440290 f   libohNetCore:CpiService.obj
 0001:0003f2d0       ?Action@Invocation@Net@OpenHome@@QBEABV023@XZ 004402d0 f   libohNetCore:CpiService.obj
 0001:0003f310       ?Device@Invocation@Net@OpenHome@@QAEAAVCpiDevice@23@XZ 00440310 f   libohNetCore:CpiService.obj
 0001:0003f330       ?Output@Invocation@Net@OpenHome@@UAEXAAVIAsyncOutput@23@@Z 00440330 f   libohNetCore:CpiService.obj
 0001:0003f590       ?OutputArgument@Invocation@Net@OpenHome@@CGXAAVIAsyncOutput@23@PBDABVArgument@23@@Z 00440590 f   libohNetCore:CpiService.obj
 0001:0003f990       ?InputArguments@Invocation@Net@OpenHome@@QBEABV?$vector@PAVArgument@Net@OpenHome@@V?$allocator@PAVArgument@Net@OpenHome@@@std@@@std@@XZ 00440990 f   libohNetCore:CpiService.obj
 0001:0003f9b0       ?OutputArguments@Invocation@Net@OpenHome@@QAEAAV?$vector@PAVArgument@Net@OpenHome@@V?$allocator@PAVArgument@Net@OpenHome@@@std@@@std@@XZ 004409b0 f   libohNetCore:CpiService.obj
 0001:0003f9d0       ?SetInvoker@Invocation@Net@OpenHome@@QAEXAAVIInvocable@23@@Z 004409d0 f   libohNetCore:CpiService.obj
 0001:0003f9f0       ?Invoker@Invocation@Net@OpenHome@@QAEAAVIInvocable@23@XZ 004409f0 f   libohNetCore:CpiService.obj
 0001:0003fa30       ?Type@Invocation@Net@OpenHome@@EBEIXZ 00440a30 f   libohNetCore:CpiService.obj
 0001:0003fa50       ??0Invocation@Net@OpenHome@@AAE@AAV?$Fifo@PAVInvocation@Net@OpenHome@@@2@@Z 00440a50 f   libohNetCore:CpiService.obj
 0001:0003fb40       ??1Invocation@Net@OpenHome@@AAE@XZ 00440b40 f   libohNetCore:CpiService.obj
 0001:0003fbe0       ?Clear@Invocation@Net@OpenHome@@AAEXXZ 00440be0 f   libohNetCore:CpiService.obj
 0001:0003fd90       ??0Invoker@Net@OpenHome@@QAE@PBDAAV?$Fifo@PAVInvoker@Net@OpenHome@@@2@@Z 00440d90 f   libohNetCore:CpiService.obj
 0001:0003fe30       ??1Invoker@Net@OpenHome@@UAE@XZ 00440e30 f   libohNetCore:CpiService.obj
 0001:0003fec0       ?Invoke@Invoker@Net@OpenHome@@QAEXPAVInvocation@23@@Z 00440ec0 f   libohNetCore:CpiService.obj
 0001:0003ff10       ?Interrupt@Invoker@Net@OpenHome@@QAEXABVService@23@@Z 00440f10 f   libohNetCore:CpiService.obj
 0001:0003ffd0       ?LogError@Invoker@Net@OpenHome@@AAEXPBD@Z 00440fd0 f   libohNetCore:CpiService.obj
 0001:00040060       ?Run@Invoker@Net@OpenHome@@EAEXXZ 00441060 f   libohNetCore:CpiService.obj
 0001:00040310       ??0InvocationManager@Net@OpenHome@@QAE@XZ 00441310 f   libohNetCore:CpiService.obj
 0001:000405b0       ??1InvocationManager@Net@OpenHome@@UAE@XZ 004415b0 f   libohNetCore:CpiService.obj
 0001:00040790       ?Invocation@InvocationManager@Net@OpenHome@@CGPAV023@XZ 00441790 f   libohNetCore:CpiService.obj
 0001:00040880       ?Invoke@InvocationManager@Net@OpenHome@@SGXPAVInvocation@23@@Z 00441880 f   libohNetCore:CpiService.obj
 0001:000408f0       ?Interrupt@InvocationManager@Net@OpenHome@@SGXABVService@23@@Z 004418f0 f   libohNetCore:CpiService.obj
 0001:00040960       ?Self@InvocationManager@Net@OpenHome@@CGAAV123@XZ 00441960 f   libohNetCore:CpiService.obj
 0001:00040980       ?Run@InvocationManager@Net@OpenHome@@EAEXXZ 00441980 f   libohNetCore:CpiService.obj
 0001:00040ab0       ??_EArgument@Net@OpenHome@@UAEPAXI@Z 00441ab0 f i libohNetCore:CpiService.obj
 0001:00040ab0       ??_GArgument@Net@OpenHome@@UAEPAXI@Z 00441ab0 f i libohNetCore:CpiService.obj
 0001:00040af0       ??_EArgumentString@Net@OpenHome@@UAEPAXI@Z 00441af0 f i libohNetCore:CpiService.obj
 0001:00040b70       ??_EArgumentInt@Net@OpenHome@@UAEPAXI@Z 00441b70 f i libohNetCore:CpiService.obj
 0001:00040bf0       ??_EArgumentUint@Net@OpenHome@@UAEPAXI@Z 00441bf0 f i libohNetCore:CpiService.obj
 0001:00040c70       ??_EArgumentBool@Net@OpenHome@@UAEPAXI@Z 00441c70 f i libohNetCore:CpiService.obj
 0001:00040cf0       ??_EArgumentBinary@Net@OpenHome@@UAEPAXI@Z 00441cf0 f i libohNetCore:CpiService.obj
 0001:00040d70       ??RFunctorAsync@Net@OpenHome@@QBEXAAVIAsync@12@@Z 00441d70 f i libohNetCore:CpiService.obj
 0001:00040db0       ??BFunctorAsync@Net@OpenHome@@QBE_NXZ 00441db0 f i libohNetCore:CpiService.obj
 0001:00040df0       ?Level@Error@Net@OpenHome@@QBE?AW4ELevel@123@XZ 00441df0 f i libohNetCore:CpiService.obj
 0001:00040e10       ??0Async@Net@OpenHome@@QAE@XZ 00441e10 f i libohNetCore:CpiService.obj
 0001:00040e40       ??1Error@Net@OpenHome@@QAE@XZ 00441e40 f i libohNetCore:CpiService.obj
 0001:00040e70       ??0IAsync@Net@OpenHome@@QAE@XZ 00441e70 f i libohNetCore:CpiService.obj
 0001:00040e90       ??_EInvoker@Net@OpenHome@@UAEPAXI@Z 00441e90 f i libohNetCore:CpiService.obj
 0001:00040e90       ??_GInvoker@Net@OpenHome@@UAEPAXI@Z 00441e90 f i libohNetCore:CpiService.obj
 0001:00040ed0       ??_EInvocationManager@Net@OpenHome@@UAEPAXI@Z 00441ed0 f i libohNetCore:CpiService.obj
 0001:00040ed0       ??_GInvocationManager@Net@OpenHome@@UAEPAXI@Z 00441ed0 f i libohNetCore:CpiService.obj
 0001:00040f10       ??_GInvocation@Net@OpenHome@@AAEPAXI@Z 00441f10 f i libohNetCore:CpiService.obj
 0001:00040f50       ??0?$vector@PAVArgument@Net@OpenHome@@V?$allocator@PAVArgument@Net@OpenHome@@@std@@@std@@QAE@XZ 00441f50 f i libohNetCore:CpiService.obj
 0001:00040f90       ??1?$vector@PAVArgument@Net@OpenHome@@V?$allocator@PAVArgument@Net@OpenHome@@@std@@@std@@QAE@XZ 00441f90 f i libohNetCore:CpiService.obj
 0001:00041000       ?push_back@?$vector@PAVArgument@Net@OpenHome@@V?$allocator@PAVArgument@Net@OpenHome@@@std@@@std@@QAEXABQAVArgument@Net@OpenHome@@@Z 00442000 f i libohNetCore:CpiService.obj
 0001:00041110       ?clear@?$vector@PAVArgument@Net@OpenHome@@V?$allocator@PAVArgument@Net@OpenHome@@@std@@@std@@QAEXXZ 00442110 f i libohNetCore:CpiService.obj
 0001:00041210       ??0?$Fifo@PAVInvocation@Net@OpenHome@@@OpenHome@@QAE@I@Z 00442210 f i libohNetCore:CpiService.obj
 0001:000412b0       ??1?$Fifo@PAVInvocation@Net@OpenHome@@@OpenHome@@QAE@XZ 004422b0 f i libohNetCore:CpiService.obj
 0001:00041300       ??0?$Fifo@PAVInvoker@Net@OpenHome@@@OpenHome@@QAE@I@Z 00442300 f i libohNetCore:CpiService.obj
 0001:000413a0       ??1?$Fifo@PAVInvoker@Net@OpenHome@@@OpenHome@@QAE@XZ 004423a0 f i libohNetCore:CpiService.obj
 0001:000413f0       ??1?$_Vector_iterator@V?$_Vector_val@PAVArgument@Net@OpenHome@@V?$allocator@PAVArgument@Net@OpenHome@@@std@@@std@@@std@@QAE@XZ 004423f0 f i libohNetCore:CpiService.obj
 0001:00041420       ??0?$_Vector_const_iterator@V?$_Vector_val@PAVArgument@Net@OpenHome@@V?$allocator@PAVArgument@Net@OpenHome@@@std@@@std@@@std@@QAE@ABV01@@Z 00442420 f i libohNetCore:CpiService.obj
 0001:00041460       ??1?$_Vector_const_iterator@V?$_Vector_val@PAVArgument@Net@OpenHome@@V?$allocator@PAVArgument@Net@OpenHome@@@std@@@std@@@std@@QAE@XZ 00442460 f i libohNetCore:CpiService.obj
 0001:00041490       ??1FifoBase@OpenHome@@QAE@XZ 00442490 f i libohNetCore:CpiService.obj
 0001:00041510       ??0?$_Iterator012@Urandom_access_iterator_tag@std@@PAVArgument@Net@OpenHome@@HPBQAV345@ABQAV345@U_Iterator_base12@2@@std@@QAE@ABU01@@Z 00442510 f i libohNetCore:CpiService.obj
 0001:00041540       ??1?$_Iterator012@Urandom_access_iterator_tag@std@@PAVArgument@Net@OpenHome@@HPBQAV345@ABQAV345@U_Iterator_base12@2@@std@@QAE@XZ 00442540 f i libohNetCore:CpiService.obj
 0001:00041570       ?begin@?$vector@PAVArgument@Net@OpenHome@@V?$allocator@PAVArgument@Net@OpenHome@@@std@@@std@@QAE?AV?$_Vector_iterator@V?$_Vector_val@PAVArgument@Net@OpenHome@@V?$allocator@PAVArgument@Net@OpenHome@@@std@@@std@@@2@XZ 00442570 f i libohNetCore:CpiService.obj
 0001:000415c0       ?end@?$vector@PAVArgument@Net@OpenHome@@V?$allocator@PAVArgument@Net@OpenHome@@@std@@@std@@QAE?AV?$_Vector_iterator@V?$_Vector_val@PAVArgument@Net@OpenHome@@V?$allocator@PAVArgument@Net@OpenHome@@@std@@@std@@@2@XZ 004425c0 f i libohNetCore:CpiService.obj
 0001:00041610       ?erase@?$vector@PAVArgument@Net@OpenHome@@V?$allocator@PAVArgument@Net@OpenHome@@@std@@@std@@QAE?AV?$_Vector_iterator@V?$_Vector_val@PAVArgument@Net@OpenHome@@V?$allocator@PAVArgument@Net@OpenHome@@@std@@@std@@@2@V?$_Vector_const_iterator@V?$_Vector_val@PAVArgument@Net@OpenHome@@V?$allocator@PAVArgument@Net@OpenHome@@@std@@@std@@@2@0@Z 00442610 f i libohNetCore:CpiService.obj
 0001:00041800       ?_Inside@?$vector@PAVArgument@Net@OpenHome@@V?$allocator@PAVArgument@Net@OpenHome@@@std@@@std@@IBE_NPBQAVArgument@Net@OpenHome@@@Z 00442800 f i libohNetCore:CpiService.obj
 0001:00041850       ?_Reserve@?$vector@PAVArgument@Net@OpenHome@@V?$allocator@PAVArgument@Net@OpenHome@@@std@@@std@@IAEXI@Z 00442850 f i libohNetCore:CpiService.obj
 0001:000418d0       ?_Tidy@?$vector@PAVArgument@Net@OpenHome@@V?$allocator@PAVArgument@Net@OpenHome@@@std@@@std@@IAEXXZ 004428d0 f i libohNetCore:CpiService.obj
 0001:00041960       ?_Orphan_range@?$vector@PAVArgument@Net@OpenHome@@V?$allocator@PAVArgument@Net@OpenHome@@@std@@@std@@IBEXPAPAVArgument@Net@OpenHome@@0@Z 00442960 f i libohNetCore:CpiService.obj
 0001:00041a70       ??0?$_Vector_val@PAVArgument@Net@OpenHome@@V?$allocator@PAVArgument@Net@OpenHome@@@std@@@std@@QAE@V?$allocator@PAVArgument@Net@OpenHome@@@1@@Z 00442a70 f i libohNetCore:CpiService.obj
 0001:00041b90       ??1?$_Vector_val@PAVArgument@Net@OpenHome@@V?$allocator@PAVArgument@Net@OpenHome@@@std@@@std@@QAE@XZ 00442b90 f i libohNetCore:CpiService.obj
 0001:00041c70       ??0?$allocator@PAVArgument@Net@OpenHome@@@std@@QAE@XZ 00442c70 f i libohNetCore:CpiService.obj
 0001:00041c90       ??0?$_Vector_iterator@V?$_Vector_val@PAVArgument@Net@OpenHome@@V?$allocator@PAVArgument@Net@OpenHome@@@std@@@std@@@std@@QAE@ABV01@@Z 00442c90 f i libohNetCore:CpiService.obj
 0001:00041cc0       ?reserve@?$vector@PAVArgument@Net@OpenHome@@V?$allocator@PAVArgument@Net@OpenHome@@@std@@@std@@QAEXI@Z 00442cc0 f i libohNetCore:CpiService.obj
 0001:00041e30       ?capacity@?$vector@PAVArgument@Net@OpenHome@@V?$allocator@PAVArgument@Net@OpenHome@@@std@@@std@@QBEIXZ 00442e30 f i libohNetCore:CpiService.obj
 0001:00041e60       ?_Make_iter@?$vector@PAVArgument@Net@OpenHome@@V?$allocator@PAVArgument@Net@OpenHome@@@std@@@std@@QBE?AV?$_Vector_iterator@V?$_Vector_val@PAVArgument@Net@OpenHome@@V?$allocator@PAVArgument@Net@OpenHome@@@std@@@std@@@2@V?$_Vector_const_iterator@V?$_Vector_val@PAVArgument@Net@OpenHome@@V?$allocator@PAVArgument@Net@OpenHome@@@std@@@std@@@2@@Z 00442e60 f i libohNetCore:CpiService.obj
 0001:00041ef0       ?max_size@?$vector@PAVArgument@Net@OpenHome@@V?$allocator@PAVArgument@Net@OpenHome@@@std@@@std@@QBEIXZ 00442ef0 f i libohNetCore:CpiService.obj
 0001:00041f20       ?_Destroy@?$vector@PAVArgument@Net@OpenHome@@V?$allocator@PAVArgument@Net@OpenHome@@@std@@@std@@IAEXPAPAVArgument@Net@OpenHome@@0@Z 00442f20 f i libohNetCore:CpiService.obj
 0001:00041f60       ?_Grow_to@?$vector@PAVArgument@Net@OpenHome@@V?$allocator@PAVArgument@Net@OpenHome@@@std@@@std@@IBEII@Z 00442f60 f i libohNetCore:CpiService.obj
 0001:00041fe0       ?_Xlen@?$vector@PAVArgument@Net@OpenHome@@V?$allocator@PAVArgument@Net@OpenHome@@@std@@@std@@IBEXXZ 00442fe0 f i libohNetCore:CpiService.obj
 0001:00042010       ??0?$allocator@PAVArgument@Net@OpenHome@@@std@@QAE@ABV01@@Z 00443010 f i libohNetCore:CpiService.obj
 0001:00042030       ?deallocate@?$allocator@PAVArgument@Net@OpenHome@@@std@@QAEXPAPAVArgument@Net@OpenHome@@I@Z 00443030 f i libohNetCore:CpiService.obj
 0001:00042060       ??0?$_Vector_iterator@V?$_Vector_val@PAVArgument@Net@OpenHome@@V?$allocator@PAVArgument@Net@OpenHome@@@std@@@std@@@std@@QAE@PAPAVArgument@Net@OpenHome@@PBU_Container_base12@1@@Z 00443060 f i libohNetCore:CpiService.obj
 0001:000420a0       ??9?$_Vector_const_iterator@V?$_Vector_val@PAVArgument@Net@OpenHome@@V?$allocator@PAVArgument@Net@OpenHome@@@std@@@std@@@std@@QBE_NABV01@@Z 004430a0 f i libohNetCore:CpiService.obj
 0001:000420e0       ??M?$_Vector_const_iterator@V?$_Vector_val@PAVArgument@Net@OpenHome@@V?$allocator@PAVArgument@Net@OpenHome@@@std@@@std@@@std@@QBE_NABV01@@Z 004430e0 f i libohNetCore:CpiService.obj
 0001:00042120       ?allocate@?$allocator@PAVArgument@Net@OpenHome@@@std@@QAEPAPAVArgument@Net@OpenHome@@I@Z 00443120 f i libohNetCore:CpiService.obj
 0001:00042150       ?max_size@?$allocator@PAVArgument@Net@OpenHome@@@std@@QBEIXZ 00443150 f i libohNetCore:CpiService.obj
 0001:000421a0       ??0?$_Vector_const_iterator@V?$_Vector_val@PAVArgument@Net@OpenHome@@V?$allocator@PAVArgument@Net@OpenHome@@@std@@@std@@@std@@QAE@PAPAVArgument@Net@OpenHome@@PBU_Container_base12@1@@Z 004431a0 f i libohNetCore:CpiService.obj
 0001:00042220       ??8?$_Vector_const_iterator@V?$_Vector_val@PAVArgument@Net@OpenHome@@V?$allocator@PAVArgument@Net@OpenHome@@@std@@@std@@@std@@QBE_NABV01@@Z 00443220 f i libohNetCore:CpiService.obj
 0001:00042260       ?_Compat@?$_Vector_const_iterator@V?$_Vector_val@PAVArgument@Net@OpenHome@@V?$allocator@PAVArgument@Net@OpenHome@@@std@@@std@@@std@@QBEXABV12@@Z 00443260 f i libohNetCore:CpiService.obj
 0001:00042310       ??0?$_Iterator012@Urandom_access_iterator_tag@std@@PAVArgument@Net@OpenHome@@HPBQAV345@ABQAV345@U_Iterator_base12@2@@std@@QAE@XZ 00443310 f i libohNetCore:CpiService.obj
 0001:00042340       ?Write@?$Fifo@PAVInvocation@Net@OpenHome@@@OpenHome@@QAEXPAVInvocation@Net@2@@Z 00443340 f i libohNetCore:CpiService.obj
 0001:00042370       ?Read@?$Fifo@PAVInvocation@Net@OpenHome@@@OpenHome@@QAEPAVInvocation@Net@2@XZ 00443370 f i libohNetCore:CpiService.obj
 0001:000423a0       ?Write@?$Fifo@PAVInvoker@Net@OpenHome@@@OpenHome@@QAEXPAVInvoker@Net@2@@Z 004433a0 f i libohNetCore:CpiService.obj
 0001:000423d0       ?Read@?$Fifo@PAVInvoker@Net@OpenHome@@@OpenHome@@QAEPAVInvoker@Net@2@XZ 004433d0 f i libohNetCore:CpiService.obj
 0001:00042400       ??$addressof@QAVArgument@Net@OpenHome@@@std@@YGPBQAVArgument@Net@OpenHome@@ABQAV123@@Z 00443400 f i libohNetCore:CpiService.obj
 0001:00042410       ??$_Cons_val@V?$allocator@PAVArgument@Net@OpenHome@@@std@@PAVArgument@Net@OpenHome@@AAPAV345@@std@@YGXAAV?$allocator@PAVArgument@Net@OpenHome@@@0@PAPAVArgument@Net@OpenHome@@AAPAV234@@Z 00443410 f i libohNetCore:CpiService.obj
 0001:00042440       ??$_Cons_val@V?$allocator@PAVArgument@Net@OpenHome@@@std@@PAVArgument@Net@OpenHome@@ABQAV345@@std@@YGXAAV?$allocator@PAVArgument@Net@OpenHome@@@0@PAPAVArgument@Net@OpenHome@@ABQAV234@@Z 00443440 f i libohNetCore:CpiService.obj
 0001:00042470       ??$_Move@PAPAVArgument@Net@OpenHome@@PAPAV123@@std@@YGPAPAVArgument@Net@OpenHome@@PAPAV123@00@Z 00443470 f i libohNetCore:CpiService.obj
 0001:000424c0       ??$?0PAVArgument@Net@OpenHome@@@?$allocator@U_Container_proxy@std@@@std@@QAE@ABV?$allocator@PAVArgument@Net@OpenHome@@@1@@Z 004434c0 f i libohNetCore:CpiService.obj
 0001:000424e0       ??$_Umove@PAPAVArgument@Net@OpenHome@@@?$vector@PAVArgument@Net@OpenHome@@V?$allocator@PAVArgument@Net@OpenHome@@@std@@@std@@IAEPAPAVArgument@Net@OpenHome@@PAPAV234@00@Z 004434e0 f i libohNetCore:CpiService.obj
 0001:00042520       ??$_Destroy_range@V?$allocator@PAVArgument@Net@OpenHome@@@std@@@std@@YGXPAPAVArgument@Net@OpenHome@@0AAV?$allocator@PAVArgument@Net@OpenHome@@@0@@Z 00443520 f i libohNetCore:CpiService.obj
 0001:00042570       ??$_Allocate@PAVArgument@Net@OpenHome@@@std@@YGPAPAVArgument@Net@OpenHome@@IPAPAV123@@Z 00443570 f i libohNetCore:CpiService.obj
 0001:000425f0       ?construct@?$allocator@PAVArgument@Net@OpenHome@@@std@@QAEXPAPAVArgument@Net@OpenHome@@ABQAV345@@Z 004435f0 f i libohNetCore:CpiService.obj
 0001:00042620       ?Write@?$Fifo@PAVInvocation@Net@OpenHome@@@OpenHome@@QAEXPAVInvocation@Net@2@I@Z 00443620 f i libohNetCore:CpiService.obj
 0001:00042660       ?Read@?$Fifo@PAVInvocation@Net@OpenHome@@@OpenHome@@QAEPAVInvocation@Net@2@I@Z 00443660 f i libohNetCore:CpiService.obj
 0001:000426b0       ?Write@?$Fifo@PAVInvoker@Net@OpenHome@@@OpenHome@@QAEXPAVInvoker@Net@2@I@Z 004436b0 f i libohNetCore:CpiService.obj
 0001:000426f0       ?Read@?$Fifo@PAVInvoker@Net@OpenHome@@@OpenHome@@QAEPAVInvoker@Net@2@I@Z 004436f0 f i libohNetCore:CpiService.obj
 0001:00042740       ??$forward@AAPAVArgument@Net@OpenHome@@@std@@YGAAPAVArgument@Net@OpenHome@@AAPAV123@@Z 00443740 f i libohNetCore:CpiService.obj
 0001:00042750       ??$construct@AAPAVArgument@Net@OpenHome@@@?$allocator@PAVArgument@Net@OpenHome@@@std@@QAEXPAPAVArgument@Net@OpenHome@@AAPAV234@@Z 00443750 f i libohNetCore:CpiService.obj
 0001:000427f0       ??$forward@ABQAVArgument@Net@OpenHome@@@std@@YGABQAVArgument@Net@OpenHome@@ABQAV123@@Z 004437f0 f i libohNetCore:CpiService.obj
 0001:00042800       ??$_Ptr_cat@PAVArgument@Net@OpenHome@@PAV123@@std@@YG?AU_Scalar_ptr_iterator_tag@0@PAPAVArgument@Net@OpenHome@@0@Z 00443800 f i libohNetCore:CpiService.obj
 0001:00042860       ??$_Move@PAPAVArgument@Net@OpenHome@@PAPAV123@@std@@YGPAPAVArgument@Net@OpenHome@@PAPAV123@00U_Scalar_ptr_iterator_tag@0@@Z 00443860 f i libohNetCore:CpiService.obj
 0001:000428b0       ??$_Uninitialized_move@PAPAVArgument@Net@OpenHome@@PAPAV123@V?$allocator@PAVArgument@Net@OpenHome@@@std@@@std@@YGPAPAVArgument@Net@OpenHome@@PAPAV123@00AAV?$allocator@PAVArgument@Net@OpenHome@@@0@@Z 004438b0 f i libohNetCore:CpiService.obj
 0001:00042900       ??$_Destroy_range@V?$allocator@PAVArgument@Net@OpenHome@@@std@@@std@@YGXPAPAVArgument@Net@OpenHome@@0AAV?$allocator@PAVArgument@Net@OpenHome@@@0@U_Scalar_ptr_iterator_tag@0@@Z 00443900 f i libohNetCore:CpiService.obj
 0001:00042910       ??$_Construct@PAVArgument@Net@OpenHome@@ABQAV123@@std@@YGXPAPAVArgument@Net@OpenHome@@ABQAV123@@Z 00443910 f i libohNetCore:CpiService.obj
 0001:000429c0       ??$_Val_type@PAPAVArgument@Net@OpenHome@@@std@@YGPAPAVArgument@Net@OpenHome@@PAPAV123@@Z 004439c0 f i libohNetCore:CpiService.obj
 0001:000429d0       ??$_Uninit_move@PAVArgument@Net@OpenHome@@PAV123@PAV123@@std@@YGPAPAVArgument@Net@OpenHome@@PAPAV123@00AAV?$allocator@PAVArgument@Net@OpenHome@@@0@0U_Scalar_ptr_iterator_tag@0@@Z 004439d0 f i libohNetCore:CpiService.obj
 0001:00042a40       ??$_Debug_range@PAPAVArgument@Net@OpenHome@@@std@@YGXPAPAVArgument@Net@OpenHome@@0PB_WI@Z 00443a40 f i libohNetCore:CpiService.obj
 0001:00042a90       ??$_Debug_pointer@PAVArgument@Net@OpenHome@@@std@@YGXPAPAVArgument@Net@OpenHome@@PB_WI@Z 00443a90 f i libohNetCore:CpiService.obj
 0001:00042ac0       ??$_Iter_cat@PAPAVArgument@Net@OpenHome@@@std@@YG?AUrandom_access_iterator_tag@0@ABQAPAVArgument@Net@OpenHome@@@Z 00443ac0 f i libohNetCore:CpiService.obj
 0001:00042b20       ??$_Debug_range2@PAPAVArgument@Net@OpenHome@@@std@@YGXPAPAVArgument@Net@OpenHome@@0PB_WIUrandom_access_iterator_tag@0@@Z 00443b20 f i libohNetCore:CpiService.obj
 0001:00042b80       _OsCreate@0                00443b80 f   libohNetCore:Os.obj
 0001:00042d50       _OsDestroy@0               00443d50 f   libohNetCore:Os.obj
 0001:00042e60       _OsQuit@0                  00443e60 f   libohNetCore:Os.obj
 0001:00042e80       _OsTimeInUs@0              00443e80 f   libohNetCore:Os.obj
 0001:00042f60       _OsConsoleWrite@4          00443f60 f   libohNetCore:Os.obj
 0001:00042fa0       _OsGetPlatformNameAndVersion@12 00443fa0 f   libohNetCore:Os.obj
 0001:00043070       _OsSemaphoreCreate@8       00444070 f   libohNetCore:Os.obj
 0001:000430b0       _OsSemaphoreDestroy@4      004440b0 f   libohNetCore:Os.obj
 0001:000430e0       _OsSemaphoreWait@4         004440e0 f   libohNetCore:Os.obj
 0001:00043120       _OsSemaphoreTimedWait@8    00444120 f   libohNetCore:Os.obj
 0001:00043180       _OsSemaphoreClear@4        00444180 f   libohNetCore:Os.obj
 0001:000431d0       _OsSemaphoreSignal@4       004441d0 f   libohNetCore:Os.obj
 0001:00043220       _OsMutexCreate@4           00444220 f   libohNetCore:Os.obj
 0001:00043280       _OsMutexDestroy@4          00444280 f   libohNetCore:Os.obj
 0001:000432d0       _OsMutexLock@4             004442d0 f   libohNetCore:Os.obj
 0001:00043340       _OsMutexUnlock@4           00444340 f   libohNetCore:Os.obj
 0001:000433a0       _threadEntrypoint@4        004443a0 f   libohNetCore:Os.obj
 0001:000434a0       _OsThreadCreate@20         004444a0 f   libohNetCore:Os.obj
 0001:00043580       _OsThreadTls@0             00444580 f   libohNetCore:Os.obj
 0001:000435b0       _OsThreadDestroy@4         004445b0 f   libohNetCore:Os.obj
 0001:000435d0       _OsThreadSupportsPriorities@0 004445d0 f   libohNetCore:Os.obj
 0001:000435e0       _OsNetworkCreate@4         004445e0 f   libohNetCore:Os.obj
 0001:000436e0       _OsNetworkBind@12          004446e0 f   libohNetCore:Os.obj
 0001:000437e0       _OsNetworkPort@8           004447e0 f   libohNetCore:Os.obj
 0001:000438b0       _OsNetworkConnect@16       004448b0 f   libohNetCore:Os.obj
 0001:00043b40       _OsNetworkSend@12          00444b40 f   libohNetCore:Os.obj
 0001:00043be0       _OsNetworkSendTo@20        00444be0 f   libohNetCore:Os.obj
 0001:00043cd0       _OsNetworkReceive@12       00444cd0 f   libohNetCore:Os.obj
 0001:00043e60       _OsNetworkReceiveFrom@20   00444e60 f   libohNetCore:Os.obj
 0001:00044060       _OsNetworkInterrupt@8      00445060 f   libohNetCore:Os.obj
 0001:000440f0       _OsNetworkClose@4          004450f0 f   libohNetCore:Os.obj
 0001:00044160       _OsNetworkListen@8         00445160 f   libohNetCore:Os.obj
 0001:000441c0       _OsNetworkAccept@4         004451c0 f   libohNetCore:Os.obj
 0001:00044360       _OsNetworkGetHostByName@8  00445360 f   libohNetCore:Os.obj
 0001:000443d0       _OsNetworkSocketSetSendBufBytes@8 004453d0 f   libohNetCore:Os.obj
 0001:00044430       _OsNetworkSocketSetRecvBufBytes@8 00445430 f   libohNetCore:Os.obj
 0001:00044490       _OsNetworkSocketSetReceiveTimeout@8 00445490 f   libohNetCore:Os.obj
 0001:00044540       _OsNetworkTcpSetNoDelay@4  00445540 f   libohNetCore:Os.obj
 0001:000445d0       _OsNetworkSocketSetReuseAddress@4 004455d0 f   libohNetCore:Os.obj
 0001:00044670       _OsNetworkSocketSetMulticastTtl@8 00445670 f   libohNetCore:Os.obj
 0001:000446d0       _OsNetworkSocketMulticastAddMembership@12 004456d0 f   libohNetCore:Os.obj
 0001:000447b0       _OsNetworkSocketMulticastDropMembership@12 004457b0 f   libohNetCore:Os.obj
 0001:00044850       _OsNetworkListAdapters@8   00445850 f   libohNetCore:Os.obj
 0001:00044c70       _OsNetworkFreeInterfaces@4 00445c70 f   libohNetCore:Os.obj
 0001:00044cc0       _interfaceChangeThread@4   00445cc0 f   libohNetCore:Os.obj
 0001:00044e20       _OsNetworkSetInterfaceChangedObserver@8 00445e20 f   libohNetCore:Os.obj
 0001:00044f40       _OsNetworkSetTestInterfaceIndex@4 00445f40 f   libohNetCore:Os.obj
 0001:00044f80       ?hexChar@@YGDE@Z           00445f80 f   libohNetCore:Printer.obj
 0001:00044fc0       ?RegisterOutput@Log@OpenHome@@SGXAAVFunctorMsg@2@@Z 00445fc0 f   libohNetCore:Printer.obj
 0001:00044ff0       ?Print@Log@OpenHome@@SGHABVBrx@2@@Z 00445ff0 f   libohNetCore:Printer.obj
 0001:00045010       ?PrintHex@Log@OpenHome@@SGHABVBrx@2@@Z 00446010 f   libohNetCore:Printer.obj
 0001:00045030       ?Print@Log@OpenHome@@SAHPBDZZ 00446030 f   libohNetCore:Printer.obj
 0001:00045080       ?Print@Log@OpenHome@@SGHPBDPAD@Z 00446080 f   libohNetCore:Printer.obj
 0001:000450a0       ?PrintHex@Log@OpenHome@@SGHAAVFunctorMsg@2@ABVBrx@2@@Z 004460a0 f   libohNetCore:Printer.obj
 0001:00045400       ?Print@Log@OpenHome@@SGHAAVFunctorMsg@2@ABVBrx@2@@Z 00446400 f   libohNetCore:Printer.obj
 0001:00045590       ?Print@Log@OpenHome@@SGHAAVFunctorMsg@2@PBDPAD@Z 00446590 f   libohNetCore:Printer.obj
 0001:000456e0       ?DoPrint@Log@OpenHome@@CGHAAVFunctorMsg@2@PBE@Z 004466e0 f   libohNetCore:Printer.obj
 0001:00045720       ??1?$Bws@$0EAB@@OpenHome@@UAE@XZ 00446720 f i libohNetCore:Printer.obj
 0001:00045750       ??0?$Bws@$0EAB@@OpenHome@@QAE@I@Z 00446750 f i libohNetCore:Printer.obj
 0001:00045790       ?Ptr@?$Bws@$0EAB@@OpenHome@@UBEPBEXZ 00446790 f i libohNetCore:Printer.obj
 0001:000457b0       ??_E?$Bws@$0EAB@@OpenHome@@UAEPAXI@Z 004467b0 f i libohNetCore:Printer.obj
 0001:000457b0       ??_G?$Bws@$0EAB@@OpenHome@@UAEPAXI@Z 004467b0 f i libohNetCore:Printer.obj
 0001:000457f0       ?Now@Time@OpenHome@@SGIXZ  004467f0 f   libohNetCore:Timer.obj
 0001:00045810       ?IsBeforeOrAt@Time@OpenHome@@SG_NII@Z 00446810 f   libohNetCore:Timer.obj
 0001:00045840       ?IsAfter@Time@OpenHome@@SG_NII@Z 00446840 f   libohNetCore:Timer.obj
 0001:00045870       ?IsInPastOrNow@Time@OpenHome@@SG_NI@Z 00446870 f   libohNetCore:Timer.obj
 0001:00045890       ?IsInFuture@Time@OpenHome@@SG_NI@Z 00446890 f   libohNetCore:Timer.obj
 0001:000458b0       ?TimeToWaitFor@Time@OpenHome@@SGHI@Z 004468b0 f   libohNetCore:Timer.obj
 0001:000458d0       ??0Timer@OpenHome@@QAE@VFunctor@1@@Z 004468d0 f   libohNetCore:Timer.obj
 0001:00045920       ?FireIn@Timer@OpenHome@@QAEXI@Z 00446920 f   libohNetCore:Timer.obj
 0001:00045990       ?FireAt@Timer@OpenHome@@QAEXI@Z 00446990 f   libohNetCore:Timer.obj
 0001:00045a20       ?Cancel@Timer@OpenHome@@QAEXXZ 00446a20 f   libohNetCore:Timer.obj
 0001:00045a70       ?DoCancel@Timer@OpenHome@@AAEXXZ 00446a70 f   libohNetCore:Timer.obj
 0001:00045ae0       ??1Timer@OpenHome@@QAE@XZ  00446ae0 f   libohNetCore:Timer.obj
 0001:00045b60       ??0TimerManager@OpenHome@@QAE@XZ 00446b60 f   libohNetCore:Timer.obj
 0001:00045d50       ??1TimerManager@OpenHome@@UAE@XZ 00446d50 f   libohNetCore:Timer.obj
 0001:00045e90       ?Stop@TimerManager@OpenHome@@QAEXXZ 00446e90 f   libohNetCore:Timer.obj
 0001:00045f70       ?CallbackLock@TimerManager@OpenHome@@QAEXXZ 00446f70 f   libohNetCore:Timer.obj
 0001:00045fa0       ?CallbackUnlock@TimerManager@OpenHome@@QAEXXZ 00446fa0 f   libohNetCore:Timer.obj
 0001:00045fd0       ?HeadChanged@TimerManager@OpenHome@@EAEXAAVQueueSortedEntry@2@@Z 00446fd0 f   libohNetCore:Timer.obj
 0001:000460f0       ?Fire@TimerManager@OpenHome@@AAEXXZ 004470f0 f   libohNetCore:Timer.obj
 0001:000461f0       ?Thread@TimerManager@OpenHome@@ABEPAV02@XZ 004471f0 f   libohNetCore:Timer.obj
 0001:00046210       ?Compare@TimerManager@OpenHome@@EAEHAAVQueueSortedEntry@2@0@Z 00447210 f   libohNetCore:Timer.obj
 0001:00046260       ?Run@TimerManager@OpenHome@@AAEXXZ 00447260 f   libohNetCore:Timer.obj
 0001:00046370       ??0QueueSortedEntryTimer@OpenHome@@QAE@XZ 00447370 f i libohNetCore:Timer.obj
 0001:000463a0       ??_GTimerManager@OpenHome@@UAEPAXI@Z 004473a0 f i libohNetCore:Timer.obj
 0001:000463a0       ??_ETimerManager@OpenHome@@UAEPAXI@Z 004473a0 f i libohNetCore:Timer.obj
 0001:000463e0       ??0?$QueueSorted@VTimer@OpenHome@@@OpenHome@@QAE@XZ 004473e0 f i libohNetCore:Timer.obj
 0001:00046410       ??1?$QueueSorted@VTimer@OpenHome@@@OpenHome@@UAE@XZ 00447410 f i libohNetCore:Timer.obj
 0001:00046440       ??_G?$QueueSorted@VTimer@OpenHome@@@OpenHome@@UAEPAXI@Z 00447440 f i libohNetCore:Timer.obj
 0001:00046440       ??_E?$QueueSorted@VTimer@OpenHome@@@OpenHome@@UAEPAXI@Z 00447440 f i libohNetCore:Timer.obj
 0001:00046480       ?Add@?$QueueSorted@VTimer@OpenHome@@@OpenHome@@QAEXAAVTimer@2@@Z 00447480 f i libohNetCore:Timer.obj
 0001:000464b0       ?Remove@?$QueueSorted@VTimer@OpenHome@@@OpenHome@@QAEXAAVTimer@2@@Z 004474b0 f i libohNetCore:Timer.obj
 0001:000464e0       ?RemoveHead@?$QueueSorted@VTimer@OpenHome@@@OpenHome@@QAEAAVTimer@2@XZ 004474e0 f i libohNetCore:Timer.obj
 0001:00046510       ?Entry@?$QueueSorted@VTimer@OpenHome@@@OpenHome@@IAEAAVTimer@2@AAVQueueSortedEntry@2@@Z 00447510 f i libohNetCore:Timer.obj
 0001:00046530       ??$MakeFunctor@VTimerManager@OpenHome@@XV12@@OpenHome@@YG?AV?$MemberTranslator@VTimerManager@OpenHome@@P812@AEXXZ@0@AAVTimerManager@0@ABQ820@AEXXZ@Z 00447530 f i libohNetCore:Timer.obj
 0001:00046560       ??0?$MemberTranslator@VTimerManager@OpenHome@@P812@AEXXZ@OpenHome@@QAE@AAVTimerManager@1@ABQ821@AEXXZ@Z 00447560 f i libohNetCore:Timer.obj
 0001:000465a0       ?Thunk@?$MemberTranslator@VTimerManager@OpenHome@@P812@AEXXZ@OpenHome@@SGXABVFunctor@2@@Z 004475a0 f i libohNetCore:Timer.obj
 0001:000465f0       ??0Endpoint@OpenHome@@QAE@XZ 004475f0 f   libohNetCore:Network.obj
 0001:00046620       ??0Endpoint@OpenHome@@QAE@IABVBrx@1@@Z 00447620 f   libohNetCore:Network.obj
 0001:00046660       ??0Endpoint@OpenHome@@QAE@II@Z 00447660 f   libohNetCore:Network.obj
 0001:00046690       ?SetPort@Endpoint@OpenHome@@QAEXI@Z 00447690 f   libohNetCore:Network.obj
 0001:000466b0       ?SetPort@Endpoint@OpenHome@@QAEXABV12@@Z 004476b0 f   libohNetCore:Network.obj
 0001:000466e0       ?SetAddress@Endpoint@OpenHome@@QAEXABVBrx@2@@Z 004476e0 f   libohNetCore:Network.obj
 0001:00046730       ?SetAddress@Endpoint@OpenHome@@QAEXI@Z 00447730 f   libohNetCore:Network.obj
 0001:00046750       ?SetAddress@Endpoint@OpenHome@@QAEXABV12@@Z 00447750 f   libohNetCore:Network.obj
 0001:00046770       ?Address@Endpoint@OpenHome@@QBEIXZ 00447770 f   libohNetCore:Network.obj
 0001:00046790       ?Port@Endpoint@OpenHome@@QBEGXZ 00447790 f   libohNetCore:Network.obj
 0001:000467b0       ?AppendAddress@Endpoint@OpenHome@@QBEXAAVBwx@2@@Z 004477b0 f   libohNetCore:Network.obj
 0001:00046880       ?AppendEndpoint@Endpoint@OpenHome@@QBEXAAVBwx@2@@Z 00447880 f   libohNetCore:Network.obj
 0001:00046900       ?GetAddressOctets@Endpoint@OpenHome@@QBEXAAY03E@Z 00447900 f   libohNetCore:Network.obj
 0001:00046960       ?Replace@Endpoint@OpenHome@@QAEXABV12@@Z 00447960 f   libohNetCore:Network.obj
 0001:000469a0       ?Equals@Endpoint@OpenHome@@QBE_NABV12@@Z 004479a0 f   libohNetCore:Network.obj
 0001:000469f0       ??0Socket@OpenHome@@IAE@XZ 004479f0 f   libohNetCore:Network.obj
 0001:00046a30       ?Interrupt@Socket@OpenHome@@QAEX_N@Z 00447a30 f   libohNetCore:Network.obj
 0001:00046b00       ?Close@Socket@OpenHome@@QAEXXZ 00447b00 f   libohNetCore:Network.obj
 0001:00046bc0       ?SetSendBufBytes@Socket@OpenHome@@QAEXI@Z 00447bc0 f   libohNetCore:Network.obj
 0001:00046bf0       ?SetRecvBufBytes@Socket@OpenHome@@QAEXI@Z 00447bf0 f   libohNetCore:Network.obj
 0001:00046c20       ?SetRecvTimeout@Socket@OpenHome@@QAEXI@Z 00447c20 f   libohNetCore:Network.obj
 0001:00046c50       ?LogVerbose@Socket@OpenHome@@QAEX_N0@Z 00447c50 f   libohNetCore:Network.obj
 0001:00046cc0       ?Send@Socket@OpenHome@@IAEXABVBrx@2@@Z 00447cc0 f   libohNetCore:Network.obj
 0001:00046ec0       ?SendTo@Socket@OpenHome@@IAEXABVBrx@2@ABVEndpoint@2@@Z 00447ec0 f   libohNetCore:Network.obj
 0001:000470d0       ?Receive@Socket@OpenHome@@IAEXAAVBwx@2@@Z 004480d0 f   libohNetCore:Network.obj
 0001:00047280       ?Receive@Socket@OpenHome@@IAEXAAVBwx@2@I@Z 00448280 f   libohNetCore:Network.obj
 0001:00047520       ?ReceiveFrom@Socket@OpenHome@@IAEXAAVBwx@2@AAVEndpoint@2@@Z 00448520 f   libohNetCore:Network.obj
 0001:000476c0       ?Bind@Socket@OpenHome@@IAEXABVEndpoint@2@@Z 004486c0 f   libohNetCore:Network.obj
 0001:00047800       ?GetPort@Socket@OpenHome@@IAEXAAI@Z 00448800 f   libohNetCore:Network.obj
 0001:00047940       ?Listen@Socket@OpenHome@@IAEXI@Z 00448940 f   libohNetCore:Network.obj
 0001:00047a80       ?Accept@Socket@OpenHome@@IAEPAXXZ 00448a80 f   libohNetCore:Network.obj
 0001:00047bf0       ?Log@Socket@OpenHome@@AAEXPBDABVBrx@2@@Z 00448bf0 f   libohNetCore:Network.obj
 0001:00047e90       ??0AutoSocket@OpenHome@@QAE@AAVSocket@1@@Z 00448e90 f   libohNetCore:Network.obj
 0001:00047ed0       ??1AutoSocket@OpenHome@@QAE@XZ 00448ed0 f   libohNetCore:Network.obj
 0001:00047f00       ??0SocketTcp@OpenHome@@IAE@XZ 00448f00 f   libohNetCore:Network.obj
 0001:00047fd0       ?Receive@SocketTcp@OpenHome@@QAEXAAVBwx@2@I@Z 00448fd0 f   libohNetCore:Network.obj
 0001:00048040       ?Write@SocketTcp@OpenHome@@UAEXE@Z 00449040 f   libohNetCore:Network.obj
 0001:00048110       ?Write@SocketTcp@OpenHome@@UAEXABVBrx@2@@Z 00449110 f   libohNetCore:Network.obj
 0001:00048230       ?WriteFlush@SocketTcp@OpenHome@@UAEXXZ 00449230 f   libohNetCore:Network.obj
 0001:00048250       ?Read@SocketTcp@OpenHome@@UAEXAAVBwx@2@@Z 00449250 f   libohNetCore:Network.obj
 0001:000483f0       ?ReadFlush@SocketTcp@OpenHome@@UAEXXZ 004493f0 f   libohNetCore:Network.obj
 0001:00048410       ?ReadInterrupt@SocketTcp@OpenHome@@UAEXXZ 00449410 f   libohNetCore:Network.obj
 0001:00048440       ?Open@SocketTcpClient@OpenHome@@QAEXXZ 00449440 f   libohNetCore:Network.obj
 0001:00048540       ?Connect@SocketTcpClient@OpenHome@@QAEXABVEndpoint@2@I@Z 00449540 f   libohNetCore:Network.obj
 0001:000485b0       ??0SocketTcpServer@OpenHome@@QAE@PBDIIIII@Z 004495b0 f   libohNetCore:Network.obj
 0001:00048700       ?Add@SocketTcpServer@OpenHome@@QAEXPBDPAVSocketTcpSession@2@H@Z 00449700 f   libohNetCore:Network.obj
 0001:00048830       ?Accept@SocketTcpServer@OpenHome@@AAEPAXXZ 00449830 f   libohNetCore:Network.obj
 0001:000489d0       ?Terminating@SocketTcpServer@OpenHome@@AAE_NXZ 004499d0 f   libohNetCore:Network.obj
 0001:00048a30       ??1SocketTcpServer@OpenHome@@UAE@XZ 00449a30 f   libohNetCore:Network.obj
 0001:00048bc0       ??0SocketTcpSession@OpenHome@@IAE@XZ 00449bc0 f   libohNetCore:Network.obj
 0001:00048c60       ?Add@SocketTcpSession@OpenHome@@AAEXAAVSocketTcpServer@2@PBDII@Z 00449c60 f   libohNetCore:Network.obj
 0001:00048d70       ?Start@SocketTcpSession@OpenHome@@AAEXXZ 00449d70 f   libohNetCore:Network.obj
 0001:00048fb0       ?Open@SocketTcpSession@OpenHome@@AAEXPAX@Z 00449fb0 f   libohNetCore:Network.obj
 0001:00049100       ?Close@SocketTcpSession@OpenHome@@AAEXXZ 0044a100 f   libohNetCore:Network.obj
 0001:00049210       ??1SocketTcpSession@OpenHome@@MAE@XZ 0044a210 f   libohNetCore:Network.obj
 0001:00049370       ??0SocketUdp@OpenHome@@QAE@XZ 0044a370 f   libohNetCore:Network.obj
 0001:000494a0       ??0SocketUdp@OpenHome@@QAE@I@Z 0044a4a0 f   libohNetCore:Network.obj
 0001:000495d0       ??0SocketUdp@OpenHome@@QAE@II@Z 0044a5d0 f   libohNetCore:Network.obj
 0001:00049710       ?SetTtl@SocketUdp@OpenHome@@QAEXI@Z 0044a710 f   libohNetCore:Network.obj
 0001:000497b0       ??1SocketUdp@OpenHome@@UAE@XZ 0044a7b0 f   libohNetCore:Network.obj
 0001:00049820       ?Port@SocketUdp@OpenHome@@QBEIXZ 0044a820 f   libohNetCore:Network.obj
 0001:00049840       ?Send@SocketUdp@OpenHome@@QAEXABVBrx@2@ABVEndpoint@2@@Z 0044a840 f   libohNetCore:Network.obj
 0001:000498a0       ?Receive@SocketUdp@OpenHome@@QAE?AVEndpoint@2@AAVBwx@2@@Z 0044a8a0 f   libohNetCore:Network.obj
 0001:00049990       ??0SocketUdpMulticast@OpenHome@@QAE@IABVEndpoint@1@@Z 0044a990 f   libohNetCore:Network.obj
 0001:00049ad0       ??1SocketUdpMulticast@OpenHome@@UAE@XZ 0044aad0 f   libohNetCore:Network.obj
 0001:00049bc0       ??0UdpReader@OpenHome@@QAE@AAVSocketUdp@1@@Z 0044abc0 f   libohNetCore:Network.obj
 0001:00049c50       ?Sender@UdpReader@OpenHome@@QBE?AVEndpoint@2@XZ 0044ac50 f   libohNetCore:Network.obj
 0001:00049c80       ?Read@UdpReader@OpenHome@@UAEXAAVBwx@2@@Z 0044ac80 f   libohNetCore:Network.obj
 0001:00049de0       ?ReadFlush@UdpReader@OpenHome@@UAEXXZ 0044ade0 f   libohNetCore:Network.obj
 0001:00049e00       ?ReadInterrupt@UdpReader@OpenHome@@UAEXXZ 0044ae00 f   libohNetCore:Network.obj
 0001:00049e30       ??0UdpWriter@OpenHome@@QAE@AAVSocketUdp@1@ABVEndpoint@1@@Z 0044ae30 f   libohNetCore:Network.obj
 0001:00049ed0       ?Write@UdpWriter@OpenHome@@UAEXE@Z 0044aed0 f   libohNetCore:Network.obj
 0001:00049f00       ?Write@UdpWriter@OpenHome@@UAEXABVBrx@2@@Z 0044af00 f   libohNetCore:Network.obj
 0001:0004a050       ?WriteFlush@UdpWriter@OpenHome@@UAEXXZ 0044b050 f   libohNetCore:Network.obj
 0001:0004a070       ??_GSocket@OpenHome@@MAEPAXI@Z 0044b070 f i libohNetCore:Network.obj
 0001:0004a070       ??_ESocket@OpenHome@@MAEPAXI@Z 0044b070 f i libohNetCore:Network.obj
 0001:0004a0b0       ??1Socket@OpenHome@@MAE@XZ 0044b0b0 f i libohNetCore:Network.obj
 0001:0004a0d0       ?NetworkInterrupt@Os@OpenHome@@SGHPAX_N@Z 0044b0d0 f i libohNetCore:Network.obj
 0001:0004a100       ?NetworkClose@Os@OpenHome@@SGHPAX@Z 0044b100 f i libohNetCore:Network.obj
 0001:0004a120       ??0NetworkError@OpenHome@@QAE@PBDI@Z 0044b120 f i libohNetCore:Network.obj
 0001:0004a160       ?NetworkSend@Os@OpenHome@@SGHPAXABVBrx@2@@Z 0044b160 f i libohNetCore:Network.obj
 0001:0004a1a0       ??1NetworkError@OpenHome@@QAE@XZ 0044b1a0 f i libohNetCore:Network.obj
 0001:0004a1d0       ?NetworkSendTo@Os@OpenHome@@SGHPAXABVBrx@2@ABVEndpoint@2@@Z 0044b1d0 f i libohNetCore:Network.obj
 0001:0004a220       ?NetworkReceive@Os@OpenHome@@SGHPAXAAVBwx@2@@Z 0044b220 f i libohNetCore:Network.obj
 0001:0004a260       ?NetworkListen@Os@OpenHome@@SGHPAXI@Z 0044b260 f i libohNetCore:Network.obj
 0001:0004a280       ?NetworkAccept@Os@OpenHome@@SGPAXPAX@Z 0044b280 f i libohNetCore:Network.obj
 0001:0004a2a0       ??1IReaderSource@OpenHome@@UAE@XZ 0044b2a0 f i libohNetCore:Network.obj
 0001:0004a2c0       ??_GIReaderSource@OpenHome@@UAEPAXI@Z 0044b2c0 f i libohNetCore:Network.obj
 0001:0004a2c0       ??_EIReaderSource@OpenHome@@UAEPAXI@Z 0044b2c0 f i libohNetCore:Network.obj
 0001:0004a300       ??_GSocketTcp@OpenHome@@UAEPAXI@Z 0044b300 f i libohNetCore:Network.obj
 0001:0004a300       ??_ESocketTcp@OpenHome@@UAEPAXI@Z 0044b300 f i libohNetCore:Network.obj
 0001:0004a340       ??0IReaderSource@OpenHome@@QAE@XZ 0044b340 f i libohNetCore:Network.obj
 0001:0004a360       ??1SocketTcp@OpenHome@@UAE@XZ 0044b360 f i libohNetCore:Network.obj
 0001:0004a3e0       ??0WriterError@OpenHome@@QAE@PBDI@Z 0044b3e0 f i libohNetCore:Network.obj
 0001:0004a420       ??1WriterError@OpenHome@@QAE@XZ 0044b420 f i libohNetCore:Network.obj
 0001:0004a450       ??_GSocketTcpServer@OpenHome@@UAEPAXI@Z 0044b450 f i libohNetCore:Network.obj
 0001:0004a450       ??_ESocketTcpServer@OpenHome@@UAEPAXI@Z 0044b450 f i libohNetCore:Network.obj
 0001:0004a490       ??_GSocketTcpSession@OpenHome@@MAEPAXI@Z 0044b490 f i libohNetCore:Network.obj
 0001:0004a490       ??_ESocketTcpSession@OpenHome@@MAEPAXI@Z 0044b490 f i libohNetCore:Network.obj
 0001:0004a4d0       ??_ESocketUdp@OpenHome@@UAEPAXI@Z 0044b4d0 f i libohNetCore:Network.obj
 0001:0004a4d0       ??_GSocketUdp@OpenHome@@UAEPAXI@Z 0044b4d0 f i libohNetCore:Network.obj
 0001:0004a510       ??_GSocketUdpMulticast@OpenHome@@UAEPAXI@Z 0044b510 f i libohNetCore:Network.obj
 0001:0004a510       ??_ESocketUdpMulticast@OpenHome@@UAEPAXI@Z 0044b510 f i libohNetCore:Network.obj
 0001:0004a550       ??_EUdpReader@OpenHome@@UAEPAXI@Z 0044b550 f i libohNetCore:Network.obj
 0001:0004a550       ??_GUdpReader@OpenHome@@UAEPAXI@Z 0044b550 f i libohNetCore:Network.obj
 0001:0004a590       ??1UdpReader@OpenHome@@UAE@XZ 0044b590 f i libohNetCore:Network.obj
 0001:0004a5c0       ??_EUdpWriter@OpenHome@@UAEPAXI@Z 0044b5c0 f i libohNetCore:Network.obj
 0001:0004a5c0       ??_GUdpWriter@OpenHome@@UAEPAXI@Z 0044b5c0 f i libohNetCore:Network.obj
 0001:0004a600       ??1UdpWriter@OpenHome@@UAE@XZ 0044b600 f i libohNetCore:Network.obj
 0001:0004a630       ??0?$vector@PAVSocketTcpSession@OpenHome@@V?$allocator@PAVSocketTcpSession@OpenHome@@@std@@@std@@QAE@XZ 0044b630 f i libohNetCore:Network.obj
 0001:0004a670       ??1?$vector@PAVSocketTcpSession@OpenHome@@V?$allocator@PAVSocketTcpSession@OpenHome@@@std@@@std@@QAE@XZ 0044b670 f i libohNetCore:Network.obj
 0001:0004a6e0       ?size@?$vector@PAVSocketTcpSession@OpenHome@@V?$allocator@PAVSocketTcpSession@OpenHome@@@std@@@std@@QBEIXZ 0044b6e0 f i libohNetCore:Network.obj
 0001:0004a710       ??A?$vector@PAVSocketTcpSession@OpenHome@@V?$allocator@PAVSocketTcpSession@OpenHome@@@std@@@std@@QAEAAPAVSocketTcpSession@OpenHome@@I@Z 0044b710 f i libohNetCore:Network.obj
 0001:0004a7b0       ?push_back@?$vector@PAVSocketTcpSession@OpenHome@@V?$allocator@PAVSocketTcpSession@OpenHome@@@std@@@std@@QAEXABQAVSocketTcpSession@OpenHome@@@Z 0044b7b0 f i libohNetCore:Network.obj
 0001:0004a8c0       ?pop_back@?$vector@PAVSocketTcpSession@OpenHome@@V?$allocator@PAVSocketTcpSession@OpenHome@@@std@@@std@@QAEXXZ 0044b8c0 f i libohNetCore:Network.obj
 0001:0004a950       ?empty@?$vector@PAVSocketTcpSession@OpenHome@@V?$allocator@PAVSocketTcpSession@OpenHome@@@std@@@std@@QBE_NXZ 0044b950 f i libohNetCore:Network.obj
 0001:0004a980       ?_Inside@?$vector@PAVSocketTcpSession@OpenHome@@V?$allocator@PAVSocketTcpSession@OpenHome@@@std@@@std@@IBE_NPBQAVSocketTcpSession@OpenHome@@@Z 0044b980 f i libohNetCore:Network.obj
 0001:0004a9d0       ?_Reserve@?$vector@PAVSocketTcpSession@OpenHome@@V?$allocator@PAVSocketTcpSession@OpenHome@@@std@@@std@@IAEXI@Z 0044b9d0 f i libohNetCore:Network.obj
 0001:0004aa50       ?_Tidy@?$vector@PAVSocketTcpSession@OpenHome@@V?$allocator@PAVSocketTcpSession@OpenHome@@@std@@@std@@IAEXXZ 0044ba50 f i libohNetCore:Network.obj
 0001:0004aae0       ?_Orphan_range@?$vector@PAVSocketTcpSession@OpenHome@@V?$allocator@PAVSocketTcpSession@OpenHome@@@std@@@std@@IBEXPAPAVSocketTcpSession@OpenHome@@0@Z 0044bae0 f i libohNetCore:Network.obj
 0001:0004abf0       ??0?$_Vector_val@PAVSocketTcpSession@OpenHome@@V?$allocator@PAVSocketTcpSession@OpenHome@@@std@@@std@@QAE@V?$allocator@PAVSocketTcpSession@OpenHome@@@1@@Z 0044bbf0 f i libohNetCore:Network.obj
 0001:0004ad10       ??1?$_Vector_val@PAVSocketTcpSession@OpenHome@@V?$allocator@PAVSocketTcpSession@OpenHome@@@std@@@std@@QAE@XZ 0044bd10 f i libohNetCore:Network.obj
 0001:0004adf0       ??0?$allocator@PAVSocketTcpSession@OpenHome@@@std@@QAE@XZ 0044bdf0 f i libohNetCore:Network.obj
 0001:0004ae10       ?reserve@?$vector@PAVSocketTcpSession@OpenHome@@V?$allocator@PAVSocketTcpSession@OpenHome@@@std@@@std@@QAEXI@Z 0044be10 f i libohNetCore:Network.obj
 0001:0004af80       ?capacity@?$vector@PAVSocketTcpSession@OpenHome@@V?$allocator@PAVSocketTcpSession@OpenHome@@@std@@@std@@QBEIXZ 0044bf80 f i libohNetCore:Network.obj
 0001:0004afb0       ?max_size@?$vector@PAVSocketTcpSession@OpenHome@@V?$allocator@PAVSocketTcpSession@OpenHome@@@std@@@std@@QBEIXZ 0044bfb0 f i libohNetCore:Network.obj
 0001:0004afe0       ?_Destroy@?$vector@PAVSocketTcpSession@OpenHome@@V?$allocator@PAVSocketTcpSession@OpenHome@@@std@@@std@@IAEXPAPAVSocketTcpSession@OpenHome@@0@Z 0044bfe0 f i libohNetCore:Network.obj
 0001:0004b020       ?_Grow_to@?$vector@PAVSocketTcpSession@OpenHome@@V?$allocator@PAVSocketTcpSession@OpenHome@@@std@@@std@@IBEII@Z 0044c020 f i libohNetCore:Network.obj
 0001:0004b0a0       ?_Xlen@?$vector@PAVSocketTcpSession@OpenHome@@V?$allocator@PAVSocketTcpSession@OpenHome@@@std@@@std@@IBEXXZ 0044c0a0 f i libohNetCore:Network.obj
 0001:0004b0d0       ??0?$allocator@PAVSocketTcpSession@OpenHome@@@std@@QAE@ABV01@@Z 0044c0d0 f i libohNetCore:Network.obj
 0001:0004b0f0       ?deallocate@?$allocator@PAVSocketTcpSession@OpenHome@@@std@@QAEXPAPAVSocketTcpSession@OpenHome@@I@Z 0044c0f0 f i libohNetCore:Network.obj
 0001:0004b120       ?allocate@?$allocator@PAVSocketTcpSession@OpenHome@@@std@@QAEPAPAVSocketTcpSession@OpenHome@@I@Z 0044c120 f i libohNetCore:Network.obj
 0001:0004b150       ?max_size@?$allocator@PAVSocketTcpSession@OpenHome@@@std@@QBEIXZ 0044c150 f i libohNetCore:Network.obj
 0001:0004b1a0       ??$MakeFunctor@VSocketTcpSession@OpenHome@@XV12@@OpenHome@@YG?AV?$MemberTranslator@VSocketTcpSession@OpenHome@@P812@AEXXZ@0@AAVSocketTcpSession@0@ABQ820@AEXXZ@Z 0044c1a0 f i libohNetCore:Network.obj
 0001:0004b1d0       ??$addressof@QAVSocketTcpSession@OpenHome@@@std@@YGPBQAVSocketTcpSession@OpenHome@@ABQAV12@@Z 0044c1d0 f i libohNetCore:Network.obj
 0001:0004b1e0       ??$_Cons_val@V?$allocator@PAVSocketTcpSession@OpenHome@@@std@@PAVSocketTcpSession@OpenHome@@AAPAV34@@std@@YGXAAV?$allocator@PAVSocketTcpSession@OpenHome@@@0@PAPAVSocketTcpSession@OpenHome@@AAPAV23@@Z 0044c1e0 f i libohNetCore:Network.obj
 0001:0004b210       ??$_Cons_val@V?$allocator@PAVSocketTcpSession@OpenHome@@@std@@PAVSocketTcpSession@OpenHome@@ABQAV34@@std@@YGXAAV?$allocator@PAVSocketTcpSession@OpenHome@@@0@PAPAVSocketTcpSession@OpenHome@@ABQAV23@@Z 0044c210 f i libohNetCore:Network.obj
 0001:0004b240       ??$_Dest_val@V?$allocator@PAVSocketTcpSession@OpenHome@@@std@@PAVSocketTcpSession@OpenHome@@@std@@YGXAAV?$allocator@PAVSocketTcpSession@OpenHome@@@0@PAPAVSocketTcpSession@OpenHome@@@Z 0044c240 f i libohNetCore:Network.obj
 0001:0004b260       ??$?0PAVSocketTcpSession@OpenHome@@@?$allocator@U_Container_proxy@std@@@std@@QAE@ABV?$allocator@PAVSocketTcpSession@OpenHome@@@1@@Z 0044c260 f i libohNetCore:Network.obj
 0001:0004b280       ??$_Umove@PAPAVSocketTcpSession@OpenHome@@@?$vector@PAVSocketTcpSession@OpenHome@@V?$allocator@PAVSocketTcpSession@OpenHome@@@std@@@std@@IAEPAPAVSocketTcpSession@OpenHome@@PAPAV23@00@Z 0044c280 f i libohNetCore:Network.obj
 0001:0004b2c0       ??$_Destroy_range@V?$allocator@PAVSocketTcpSession@OpenHome@@@std@@@std@@YGXPAPAVSocketTcpSession@OpenHome@@0AAV?$allocator@PAVSocketTcpSession@OpenHome@@@0@@Z 0044c2c0 f i libohNetCore:Network.obj
 0001:0004b310       ??$_Allocate@PAVSocketTcpSession@OpenHome@@@std@@YGPAPAVSocketTcpSession@OpenHome@@IPAPAV12@@Z 0044c310 f i libohNetCore:Network.obj
 0001:0004b390       ?construct@?$allocator@PAVSocketTcpSession@OpenHome@@@std@@QAEXPAPAVSocketTcpSession@OpenHome@@ABQAV34@@Z 0044c390 f i libohNetCore:Network.obj
 0001:0004b3c0       ?destroy@?$allocator@PAVSocketTcpSession@OpenHome@@@std@@QAEXPAPAVSocketTcpSession@OpenHome@@@Z 0044c3c0 f i libohNetCore:Network.obj
 0001:0004b3f0       ??0?$MemberTranslator@VSocketTcpSession@OpenHome@@P812@AEXXZ@OpenHome@@QAE@AAVSocketTcpSession@1@ABQ821@AEXXZ@Z 0044c3f0 f i libohNetCore:Network.obj
 0001:0004b430       ?Thunk@?$MemberTranslator@VSocketTcpSession@OpenHome@@P812@AEXXZ@OpenHome@@SGXABVFunctor@2@@Z 0044c430 f i libohNetCore:Network.obj
 0001:0004b480       ??$forward@AAPAVSocketTcpSession@OpenHome@@@std@@YGAAPAVSocketTcpSession@OpenHome@@AAPAV12@@Z 0044c480 f i libohNetCore:Network.obj
 0001:0004b490       ??$construct@AAPAVSocketTcpSession@OpenHome@@@?$allocator@PAVSocketTcpSession@OpenHome@@@std@@QAEXPAPAVSocketTcpSession@OpenHome@@AAPAV23@@Z 0044c490 f i libohNetCore:Network.obj
 0001:0004b530       ??$forward@ABQAVSocketTcpSession@OpenHome@@@std@@YGABQAVSocketTcpSession@OpenHome@@ABQAV12@@Z 0044c530 f i libohNetCore:Network.obj
 0001:0004b540       ??$_Uninitialized_move@PAPAVSocketTcpSession@OpenHome@@PAPAV12@V?$allocator@PAVSocketTcpSession@OpenHome@@@std@@@std@@YGPAPAVSocketTcpSession@OpenHome@@PAPAV12@00AAV?$allocator@PAVSocketTcpSession@OpenHome@@@0@@Z 0044c540 f i libohNetCore:Network.obj
 0001:0004b590       ??$_Ptr_cat@PAVSocketTcpSession@OpenHome@@PAV12@@std@@YG?AU_Scalar_ptr_iterator_tag@0@PAPAVSocketTcpSession@OpenHome@@0@Z 0044c590 f i libohNetCore:Network.obj
 0001:0004b5f0       ??$_Destroy_range@V?$allocator@PAVSocketTcpSession@OpenHome@@@std@@@std@@YGXPAPAVSocketTcpSession@OpenHome@@0AAV?$allocator@PAVSocketTcpSession@OpenHome@@@0@U_Scalar_ptr_iterator_tag@0@@Z 0044c5f0 f i libohNetCore:Network.obj
 0001:0004b600       ??$_Construct@PAVSocketTcpSession@OpenHome@@ABQAV12@@std@@YGXPAPAVSocketTcpSession@OpenHome@@ABQAV12@@Z 0044c600 f i libohNetCore:Network.obj
 0001:0004b6b0       ??$_Destroy@PAVSocketTcpSession@OpenHome@@@std@@YGXPAPAVSocketTcpSession@OpenHome@@@Z 0044c6b0 f i libohNetCore:Network.obj
 0001:0004b6c0       ??$_Val_type@PAPAVSocketTcpSession@OpenHome@@@std@@YGPAPAVSocketTcpSession@OpenHome@@PAPAV12@@Z 0044c6c0 f i libohNetCore:Network.obj
 0001:0004b6d0       ??$_Uninit_move@PAVSocketTcpSession@OpenHome@@PAV12@PAV12@@std@@YGPAPAVSocketTcpSession@OpenHome@@PAPAV12@00AAV?$allocator@PAVSocketTcpSession@OpenHome@@@0@0U_Scalar_ptr_iterator_tag@0@@Z 0044c6d0 f i libohNetCore:Network.obj
 0001:0004b740       ??$_Debug_range@PAPAVSocketTcpSession@OpenHome@@@std@@YGXPAPAVSocketTcpSession@OpenHome@@0PB_WI@Z 0044c740 f i libohNetCore:Network.obj
 0001:0004b790       ??$_Debug_pointer@PAVSocketTcpSession@OpenHome@@@std@@YGXPAPAVSocketTcpSession@OpenHome@@PB_WI@Z 0044c790 f i libohNetCore:Network.obj
 0001:0004b7c0       ??$_Iter_cat@PAPAVSocketTcpSession@OpenHome@@@std@@YG?AUrandom_access_iterator_tag@0@ABQAPAVSocketTcpSession@OpenHome@@@Z 0044c7c0 f i libohNetCore:Network.obj
 0001:0004b820       ??$_Debug_range2@PAPAVSocketTcpSession@OpenHome@@@std@@YGXPAPAVSocketTcpSession@OpenHome@@0PB_WIUrandom_access_iterator_tag@0@@Z 0044c820 f i libohNetCore:Network.obj
 0001:0004b880       ??_ESocketTcpSession@OpenHome@@OBA@AEPAXI@Z 0044c880 f i libohNetCore:Network.obj
 0001:0004b890       ??_ESocketTcp@OpenHome@@WM@AEPAXI@Z 0044c890 f i libohNetCore:Network.obj
 0001:0004b8a0       ??_ESocketTcp@OpenHome@@WBA@AEPAXI@Z 0044c8a0 f i libohNetCore:Network.obj
 0001:0004b8b0       ??_ESocketTcpSession@OpenHome@@OM@AEPAXI@Z 0044c8b0 f i libohNetCore:Network.obj
 0001:0004b8c0       ??0CpiDevice@Net@OpenHome@@QAE@ABVBrx@2@AAVICpiProtocol@12@AAVICpiDeviceObserver@12@PAX@Z 0044c8c0 f   libohNetCore:CpiDevice.obj
 0001:0004b990       ?Udn@CpiDevice@Net@OpenHome@@QBEABVBrx@3@XZ 0044c990 f   libohNetCore:CpiDevice.obj
 0001:0004b9b0       ?UdnAsCString@CpiDevice@Net@OpenHome@@QBEPBDXZ 0044c9b0 f   libohNetCore:CpiDevice.obj
 0001:0004b9e0       ??8CpiDevice@Net@OpenHome@@QBE_NABV012@@Z 0044c9e0 f   libohNetCore:CpiDevice.obj
 0001:0004ba10       ??9CpiDevice@Net@OpenHome@@QBE_NABV012@@Z 0044ca10 f   libohNetCore:CpiDevice.obj
 0001:0004ba40       ?OwnerData@CpiDevice@Net@OpenHome@@QAEPAXXZ 0044ca40 f   libohNetCore:CpiDevice.obj
 0001:0004ba60       ?AddRef@CpiDevice@Net@OpenHome@@QAEXXZ 0044ca60 f   libohNetCore:CpiDevice.obj
 0001:0004bab0       ?RemoveRef@CpiDevice@Net@OpenHome@@QAEXXZ 0044cab0 f   libohNetCore:CpiDevice.obj
 0001:0004bb80       ?GetAttribute@CpiDevice@Net@OpenHome@@UBE_NPBDAAVBrh@3@@Z 0044cb80 f   libohNetCore:CpiDevice.obj
 0001:0004bbd0       ?InvokeAction@CpiDevice@Net@OpenHome@@UAEXAAVInvocation@23@@Z 0044cbd0 f   libohNetCore:CpiDevice.obj
 0001:0004bc10       ?Subscribe@CpiDevice@Net@OpenHome@@UAEIAAVCpiSubscription@23@ABVUri@3@@Z 0044cc10 f   libohNetCore:CpiDevice.obj
 0001:0004bc60       ?Renew@CpiDevice@Net@OpenHome@@UAEIAAVCpiSubscription@23@@Z 0044cc60 f   libohNetCore:CpiDevice.obj
 0001:0004bca0       ?Unsubscribe@CpiDevice@Net@OpenHome@@UAEXAAVCpiSubscription@23@ABVBrx@3@@Z 0044cca0 f   libohNetCore:CpiDevice.obj
 0001:0004bcf0       ?NotifyRemovedBeforeReady@CpiDevice@Net@OpenHome@@UAEXXZ 0044ccf0 f   libohNetCore:CpiDevice.obj
 0001:0004bd30       ?SetReady@CpiDevice@Net@OpenHome@@QAEXXZ 0044cd30 f   libohNetCore:CpiDevice.obj
 0001:0004bd50       ?IsReady@CpiDevice@Net@OpenHome@@QBE_NXZ 0044cd50 f   libohNetCore:CpiDevice.obj
 0001:0004bd70       ?SetExpired@CpiDevice@Net@OpenHome@@QAEX_N@Z 0044cd70 f   libohNetCore:CpiDevice.obj
 0001:0004bd90       ?HasExpired@CpiDevice@Net@OpenHome@@QBE_NXZ 0044cd90 f   libohNetCore:CpiDevice.obj
 0001:0004bdb0       ??1CpiDevice@Net@OpenHome@@EAE@XZ 0044cdb0 f   libohNetCore:CpiDevice.obj
 0001:0004beb0       ?Refresh@CpiDeviceList@Net@OpenHome@@UAEXXZ 0044ceb0 f   libohNetCore:CpiDevice.obj
 0001:0004bed0       ?RefDevice@CpiDeviceList@Net@OpenHome@@QAEPAVCpiDevice@23@ABVBrx@3@@Z 0044ced0 f   libohNetCore:CpiDevice.obj
 0001:0004bf90       ?RefDeviceLocked@CpiDeviceList@Net@OpenHome@@IAEPAVCpiDevice@23@ABVBrx@3@@Z 0044cf90 f   libohNetCore:CpiDevice.obj
 0001:0004c0f0       ??0CpiDeviceList@Net@OpenHome@@IAE@VFunctorCpiDevice@12@0@Z 0044d0f0 f   libohNetCore:CpiDevice.obj
 0001:0004c260       ??1CpiDeviceList@Net@OpenHome@@UAE@XZ 0044d260 f   libohNetCore:CpiDevice.obj
 0001:0004c380       ?Add@CpiDeviceList@Net@OpenHome@@IAEXPAVCpiDevice@23@@Z 0044d380 f   libohNetCore:CpiDevice.obj
 0001:0004c700       ?Remove@CpiDeviceList@Net@OpenHome@@MAEXABVBrx@3@@Z 0044d700 f   libohNetCore:CpiDevice.obj
 0001:0004c750       ?IsDeviceReady@CpiDeviceList@Net@OpenHome@@MAE_NAAVCpiDevice@23@@Z 0044d750 f   libohNetCore:CpiDevice.obj
 0001:0004c770       ?StartRefresh@CpiDeviceList@Net@OpenHome@@IAE_NXZ 0044d770 f   libohNetCore:CpiDevice.obj
 0001:0004c7c0       ?RefreshComplete@CpiDeviceList@Net@OpenHome@@IAEXXZ 0044d7c0 f   libohNetCore:CpiDevice.obj
 0001:0004c810       ?SetDeviceReady@CpiDeviceList@Net@OpenHome@@IAEXAAVCpiDevice@23@@Z 0044d810 f   libohNetCore:CpiDevice.obj
 0001:0004c870       ?ClearMap@CpiDeviceList@Net@OpenHome@@KGXAAV?$map@VBrn@OpenHome@@PAVCpiDevice@Net@2@VBufferCmp@2@V?$allocator@U?$pair@$$CBVBrn@OpenHome@@PAVCpiDevice@Net@2@@std@@@std@@@std@@@Z 0044d870 f   libohNetCore:CpiDevice.obj
 0001:0004c990       ?AddRef@CpiDeviceList@Net@OpenHome@@EAEXXZ 0044d990 f   libohNetCore:CpiDevice.obj
 0001:0004c9e0       ?RemoveRef@CpiDeviceList@Net@OpenHome@@EAEXXZ 0044d9e0 f   libohNetCore:CpiDevice.obj
 0001:0004ca50       ?NotifyAdded@CpiDeviceList@Net@OpenHome@@EAEXAAVCpiDevice@23@@Z 0044da50 f   libohNetCore:CpiDevice.obj
 0001:0004cb10       ?NotifyRemoved@CpiDeviceList@Net@OpenHome@@EAEXABVBrx@3@@Z 0044db10 f   libohNetCore:CpiDevice.obj
 0001:0004cb40       ?DoRemove@CpiDeviceList@Net@OpenHome@@AAEXABVBrx@3@@Z 0044db40 f   libohNetCore:CpiDevice.obj
 0001:0004cdd0       ?NotifyRefreshed@CpiDeviceList@Net@OpenHome@@EAEXXZ 0044ddd0 f   libohNetCore:CpiDevice.obj
 0001:0004d060       ??0CpiDeviceListUpdater@Net@OpenHome@@QAE@XZ 0044e060 f   libohNetCore:CpiDevice.obj
 0001:0004d100       ??1CpiDeviceListUpdater@Net@OpenHome@@UAE@XZ 0044e100 f   libohNetCore:CpiDevice.obj
 0001:0004d220       ?QueueAdded@CpiDeviceListUpdater@Net@OpenHome@@SGXAAVIDeviceListUpdater@23@AAVCpiDevice@23@@Z 0044e220 f   libohNetCore:CpiDevice.obj
 0001:0004d2d0       ?QueueRemoved@CpiDeviceListUpdater@Net@OpenHome@@SGXAAVIDeviceListUpdater@23@ABVBrx@3@@Z 0044e2d0 f   libohNetCore:CpiDevice.obj
 0001:0004d380       ?QueueRefreshed@CpiDeviceListUpdater@Net@OpenHome@@SGXAAVIDeviceListUpdater@23@@Z 0044e380 f   libohNetCore:CpiDevice.obj
 0001:0004d420       ?Queue@CpiDeviceListUpdater@Net@OpenHome@@CGXPAVUpdateBase@123@@Z 0044e420 f   libohNetCore:CpiDevice.obj
 0001:0004d470       ?Run@CpiDeviceListUpdater@Net@OpenHome@@EAEXXZ 0044e470 f   libohNetCore:CpiDevice.obj
 0001:0004d530       ??1UpdateBase@CpiDeviceListUpdater@Net@OpenHome@@UAE@XZ 0044e530 f   libohNetCore:CpiDevice.obj
 0001:0004d580       ??0UpdateBase@CpiDeviceListUpdater@Net@OpenHome@@IAE@AAVIDeviceListUpdater@23@@Z 0044e580 f   libohNetCore:CpiDevice.obj
 0001:0004d5e0       ??0UpdateAdded@CpiDeviceListUpdater@Net@OpenHome@@QAE@AAVIDeviceListUpdater@23@AAVCpiDevice@23@@Z 0044e5e0 f   libohNetCore:CpiDevice.obj
 0001:0004d670       ??1UpdateAdded@CpiDeviceListUpdater@Net@OpenHome@@UAE@XZ 0044e670 f   libohNetCore:CpiDevice.obj
 0001:0004d6e0       ?Update@UpdateAdded@CpiDeviceListUpdater@Net@OpenHome@@EAEXXZ 0044e6e0 f   libohNetCore:CpiDevice.obj
 0001:0004d730       ??0UpdateRemoved@CpiDeviceListUpdater@Net@OpenHome@@QAE@AAVIDeviceListUpdater@23@ABVBrx@3@@Z 0044e730 f   libohNetCore:CpiDevice.obj
 0001:0004d7b0       ?Update@UpdateRemoved@CpiDeviceListUpdater@Net@OpenHome@@EAEXXZ 0044e7b0 f   libohNetCore:CpiDevice.obj
 0001:0004d800       ??0UpdateRefresh@CpiDeviceListUpdater@Net@OpenHome@@QAE@AAVIDeviceListUpdater@23@@Z 0044e800 f   libohNetCore:CpiDevice.obj
 0001:0004d840       ?Update@UpdateRefresh@CpiDeviceListUpdater@Net@OpenHome@@EAEXXZ 0044e840 f   libohNetCore:CpiDevice.obj
 0001:0004d880       ??_ECpiDevice@Net@OpenHome@@EAEPAXI@Z 0044e880 f i libohNetCore:CpiDevice.obj
 0001:0004d880       ??_GCpiDevice@Net@OpenHome@@EAEPAXI@Z 0044e880 f i libohNetCore:CpiDevice.obj
 0001:0004d8c0       ??0ICpiProtocol@Net@OpenHome@@QAE@XZ 0044e8c0 f i libohNetCore:CpiDevice.obj
 0001:0004d8f0       ??0IInvocable@Net@OpenHome@@QAE@XZ 0044e8f0 f i libohNetCore:CpiDevice.obj
 0001:0004d910       ?CString@Brhz@OpenHome@@QBEPBDXZ 0044e910 f i libohNetCore:CpiDevice.obj
 0001:0004d930       ??1?$_Tree_iterator@V?$_Tree_val@V?$_Tmap_traits@VBrn@OpenHome@@PAVCpiDevice@Net@2@VBufferCmp@2@V?$allocator@U?$pair@$$CBVBrn@OpenHome@@PAVCpiDevice@Net@2@@std@@@std@@$0A@@std@@@std@@@std@@QAE@XZ 0044e930 f i libohNetCore:CpiDevice.obj
 0001:0004d960       ??1?$_Tree_const_iterator@V?$_Tree_val@V?$_Tmap_traits@VBrn@OpenHome@@PAVCpiDevice@Net@2@VBufferCmp@2@V?$allocator@U?$pair@$$CBVBrn@OpenHome@@PAVCpiDevice@Net@2@@std@@@std@@$0A@@std@@@std@@@std@@QAE@XZ 0044e960 f i libohNetCore:CpiDevice.obj
 0001:0004d990       ??1?$_Tree_unchecked_const_iterator@V?$_Tree_val@V?$_Tmap_traits@VBrn@OpenHome@@PAVCpiDevice@Net@2@VBufferCmp@2@V?$allocator@U?$pair@$$CBVBrn@OpenHome@@PAVCpiDevice@Net@2@@std@@@std@@$0A@@std@@@std@@U_Iterator_base12@2@@std@@QAE@XZ 0044e990 f i libohNetCore:CpiDevice.obj
 0001:0004d9c0       ??1?$_Iterator012@Ubidirectional_iterator_tag@std@@U?$pair@$$CBVBrn@OpenHome@@PAVCpiDevice@Net@2@@2@HPBU32@ABU32@U_Iterator_base12@2@@std@@QAE@XZ 0044e9c0 f i libohNetCore:CpiDevice.obj
 0001:0004d9f0       ??BFunctorCpiDevice@Net@OpenHome@@QBE_NXZ 0044e9f0 f i libohNetCore:CpiDevice.obj
 0001:0004da30       ??_ECpiDeviceList@Net@OpenHome@@UAEPAXI@Z 0044ea30 f i libohNetCore:CpiDevice.obj
 0001:0004da30       ??_GCpiDeviceList@Net@OpenHome@@UAEPAXI@Z 0044ea30 f i libohNetCore:CpiDevice.obj
 0001:0004da70       ??0IDeviceRemover@Net@OpenHome@@QAE@XZ 0044ea70 f i libohNetCore:CpiDevice.obj
 0001:0004da90       ??0IDeviceListUpdater@Net@OpenHome@@QAE@XZ 0044ea90 f i libohNetCore:CpiDevice.obj
 0001:0004dab0       ??1?$map@VBrn@OpenHome@@PAVCpiDevice@Net@2@VBufferCmp@2@V?$allocator@U?$pair@$$CBVBrn@OpenHome@@PAVCpiDevice@Net@2@@std@@@std@@@std@@QAE@XZ 0044eab0 f i libohNetCore:CpiDevice.obj
 0001:0004dae0       ??1?$pair@VBrn@OpenHome@@PAVCpiDevice@Net@2@@std@@QAE@XZ 0044eae0 f i libohNetCore:CpiDevice.obj
 0001:0004db10       ??1?$pair@V?$_Tree_iterator@V?$_Tree_val@V?$_Tmap_traits@VBrn@OpenHome@@PAVCpiDevice@Net@2@VBufferCmp@2@V?$allocator@U?$pair@$$CBVBrn@OpenHome@@PAVCpiDevice@Net@2@@std@@@std@@$0A@@std@@@std@@@std@@_N@std@@QAE@XZ 0044eb10 f i libohNetCore:CpiDevice.obj
 0001:0004db40       ??1?$_Pair_base@VBrn@OpenHome@@PAVCpiDevice@Net@2@@std@@QAE@XZ 0044eb40 f i libohNetCore:CpiDevice.obj
 0001:0004db70       ??1?$_Pair_base@V?$_Tree_iterator@V?$_Tree_val@V?$_Tmap_traits@VBrn@OpenHome@@PAVCpiDevice@Net@2@VBufferCmp@2@V?$allocator@U?$pair@$$CBVBrn@OpenHome@@PAVCpiDevice@Net@2@@std@@@std@@$0A@@std@@@std@@@std@@_N@std@@QAE@XZ 0044eb70 f i libohNetCore:CpiDevice.obj
 0001:0004dba0       ??RFunctorCpiDevice@Net@OpenHome@@QBEXAAVCpiDevice@12@@Z 0044eba0 f i libohNetCore:CpiDevice.obj
 0001:0004dbe0       ??0?$_Tree_const_iterator@V?$_Tree_val@V?$_Tmap_traits@VBrn@OpenHome@@PAVCpiDevice@Net@2@VBufferCmp@2@V?$allocator@U?$pair@$$CBVBrn@OpenHome@@PAVCpiDevice@Net@2@@std@@@std@@$0A@@std@@@std@@@std@@QAE@ABV01@@Z 0044ebe0 f i libohNetCore:CpiDevice.obj
 0001:0004dc10       ??0?$_Tree_unchecked_const_iterator@V?$_Tree_val@V?$_Tmap_traits@VBrn@OpenHome@@PAVCpiDevice@Net@2@VBufferCmp@2@V?$allocator@U?$pair@$$CBVBrn@OpenHome@@PAVCpiDevice@Net@2@@std@@@std@@$0A@@std@@@std@@U_Iterator_base12@2@@std@@QAE@ABV01@@Z 0044ec10 f i libohNetCore:CpiDevice.obj
 0001:0004dc50       ??0?$_Iterator012@Ubidirectional_iterator_tag@std@@U?$pair@$$CBVBrn@OpenHome@@PAVCpiDevice@Net@2@@2@HPBU32@ABU32@U_Iterator_base12@2@@std@@QAE@ABU01@@Z 0044ec50 f i libohNetCore:CpiDevice.obj
 0001:0004dc80       ??4?$_Tree_iterator@V?$_Tree_val@V?$_Tmap_traits@VBrn@OpenHome@@PAVCpiDevice@Net@2@VBufferCmp@2@V?$allocator@U?$pair@$$CBVBrn@OpenHome@@PAVCpiDevice@Net@2@@std@@@std@@$0A@@std@@@std@@@std@@QAEAAV01@ABV01@@Z 0044ec80 f i libohNetCore:CpiDevice.obj
 0001:0004dcb0       ??4?$_Tree_const_iterator@V?$_Tree_val@V?$_Tmap_traits@VBrn@OpenHome@@PAVCpiDevice@Net@2@VBufferCmp@2@V?$allocator@U?$pair@$$CBVBrn@OpenHome@@PAVCpiDevice@Net@2@@std@@@std@@$0A@@std@@@std@@@std@@QAEAAV01@ABV01@@Z 0044ecb0 f i libohNetCore:CpiDevice.obj
 0001:0004dce0       ??4?$_Tree_unchecked_const_iterator@V?$_Tree_val@V?$_Tmap_traits@VBrn@OpenHome@@PAVCpiDevice@Net@2@VBufferCmp@2@V?$allocator@U?$pair@$$CBVBrn@OpenHome@@PAVCpiDevice@Net@2@@std@@@std@@$0A@@std@@@std@@U_Iterator_base12@2@@std@@QAEAAV01@ABV01@@Z 0044ece0 f i libohNetCore:CpiDevice.obj
 0001:0004dd20       ??4?$_Iterator012@Ubidirectional_iterator_tag@std@@U?$pair@$$CBVBrn@OpenHome@@PAVCpiDevice@Net@2@@2@HPBU32@ABU32@U_Iterator_base12@2@@std@@QAEAAU01@ABU01@@Z 0044ed20 f i libohNetCore:CpiDevice.obj
 0001:0004dd50       ??_ECpiDeviceListUpdater@Net@OpenHome@@UAEPAXI@Z 0044ed50 f i libohNetCore:CpiDevice.obj
 0001:0004dd50       ??_GCpiDeviceListUpdater@Net@OpenHome@@UAEPAXI@Z 0044ed50 f i libohNetCore:CpiDevice.obj
 0001:0004dd90       ??_GUpdateBase@CpiDeviceListUpdater@Net@OpenHome@@UAEPAXI@Z 0044ed90 f i libohNetCore:CpiDevice.obj
 0001:0004dd90       ??_EUpdateBase@CpiDeviceListUpdater@Net@OpenHome@@UAEPAXI@Z 0044ed90 f i libohNetCore:CpiDevice.obj
 0001:0004ddd0       ??_GUpdateAdded@CpiDeviceListUpdater@Net@OpenHome@@UAEPAXI@Z 0044edd0 f i libohNetCore:CpiDevice.obj
 0001:0004ddd0       ??_EUpdateAdded@CpiDeviceListUpdater@Net@OpenHome@@UAEPAXI@Z 0044edd0 f i libohNetCore:CpiDevice.obj
 0001:0004de10       ??_GUpdateRemoved@CpiDeviceListUpdater@Net@OpenHome@@UAEPAXI@Z 0044ee10 f i libohNetCore:CpiDevice.obj
 0001:0004de10       ??_EUpdateRemoved@CpiDeviceListUpdater@Net@OpenHome@@UAEPAXI@Z 0044ee10 f i libohNetCore:CpiDevice.obj
 0001:0004de50       ??1UpdateRemoved@CpiDeviceListUpdater@Net@OpenHome@@UAE@XZ 0044ee50 f i libohNetCore:CpiDevice.obj
 0001:0004dec0       ??_EUpdateRefresh@CpiDeviceListUpdater@Net@OpenHome@@UAEPAXI@Z 0044eec0 f i libohNetCore:CpiDevice.obj
 0001:0004dec0       ??_GUpdateRefresh@CpiDeviceListUpdater@Net@OpenHome@@UAEPAXI@Z 0044eec0 f i libohNetCore:CpiDevice.obj
 0001:0004df00       ??1UpdateRefresh@CpiDeviceListUpdater@Net@OpenHome@@UAE@XZ 0044ef00 f i libohNetCore:CpiDevice.obj
 0001:0004df30       ??0?$map@VBrn@OpenHome@@PAVCpiDevice@Net@2@VBufferCmp@2@V?$allocator@U?$pair@$$CBVBrn@OpenHome@@PAVCpiDevice@Net@2@@std@@@std@@@std@@QAE@XZ 0044ef30 f i libohNetCore:CpiDevice.obj
 0001:0004df80       ??1?$_Tree@V?$_Tmap_traits@VBrn@OpenHome@@PAVCpiDevice@Net@2@VBufferCmp@2@V?$allocator@U?$pair@$$CBVBrn@OpenHome@@PAVCpiDevice@Net@2@@std@@@std@@$0A@@std@@@std@@QAE@XZ 0044ef80 f i libohNetCore:CpiDevice.obj
 0001:0004dff0       ?begin@?$_Tree@V?$_Tmap_traits@VBrn@OpenHome@@PAVCpiDevice@Net@2@VBufferCmp@2@V?$allocator@U?$pair@$$CBVBrn@OpenHome@@PAVCpiDevice@Net@2@@std@@@std@@$0A@@std@@@std@@QAE?AV?$_Tree_iterator@V?$_Tree_val@V?$_Tmap_traits@VBrn@OpenHome@@PAVCpiDevice@Net@2@VBufferCmp@2@V?$allocator@U?$pair@$$CBVBrn@OpenHome@@PAVCpiDevice@Net@2@@std@@@std@@$0A@@std@@@std@@@2@XZ 0044eff0 f i libohNetCore:CpiDevice.obj
 0001:0004e050       ?end@?$_Tree@V?$_Tmap_traits@VBrn@OpenHome@@PAVCpiDevice@Net@2@VBufferCmp@2@V?$allocator@U?$pair@$$CBVBrn@OpenHome@@PAVCpiDevice@Net@2@@std@@@std@@$0A@@std@@@std@@QAE?AV?$_Tree_iterator@V?$_Tree_val@V?$_Tmap_traits@VBrn@OpenHome@@PAVCpiDevice@Net@2@VBufferCmp@2@V?$allocator@U?$pair@$$CBVBrn@OpenHome@@PAVCpiDevice@Net@2@@std@@@std@@$0A@@std@@@std@@@2@XZ 0044f050 f i libohNetCore:CpiDevice.obj
 0001:0004e0a0       ?erase@?$_Tree@V?$_Tmap_traits@VBrn@OpenHome@@PAVCpiDevice@Net@2@VBufferCmp@2@V?$allocator@U?$pair@$$CBVBrn@OpenHome@@PAVCpiDevice@Net@2@@std@@@std@@$0A@@std@@@std@@QAE?AV?$_Tree_iterator@V?$_Tree_val@V?$_Tmap_traits@VBrn@OpenHome@@PAVCpiDevice@Net@2@VBufferCmp@2@V?$allocator@U?$pair@$$CBVBrn@OpenHome@@PAVCpiDevice@Net@2@@std@@@std@@$0A@@std@@@std@@@2@V?$_Tree_const_iterator@V?$_Tree_val@V?$_Tmap_traits@VBrn@OpenHome@@PAVCpiDevice@Net@2@VBufferCmp@2@V?$allocator@U?$pair@$$CBVBrn@OpenHome@@PAVCpiDevice@Net@2@@std@@@std@@$0A@@std@@@std@@@2@@Z 0044f0a0 f i libohNetCore:CpiDevice.obj
 0001:0004e7b0       ?clear@?$_Tree@V?$_Tmap_traits@VBrn@OpenHome@@PAVCpiDevice@Net@2@VBufferCmp@2@V?$allocator@U?$pair@$$CBVBrn@OpenHome@@PAVCpiDevice@Net@2@@std@@@std@@$0A@@std@@@std@@QAEXXZ 0044f7b0 f i libohNetCore:CpiDevice.obj
 0001:0004e830       ?find@?$_Tree@V?$_Tmap_traits@VBrn@OpenHome@@PAVCpiDevice@Net@2@VBufferCmp@2@V?$allocator@U?$pair@$$CBVBrn@OpenHome@@PAVCpiDevice@Net@2@@std@@@std@@$0A@@std@@@std@@QAE?AV?$_Tree_iterator@V?$_Tree_val@V?$_Tmap_traits@VBrn@OpenHome@@PAVCpiDevice@Net@2@VBufferCmp@2@V?$allocator@U?$pair@$$CBVBrn@OpenHome@@PAVCpiDevice@Net@2@@std@@@std@@$0A@@std@@@std@@@2@ABVBrn@OpenHome@@@Z 0044f830 f i libohNetCore:CpiDevice.obj
 0001:0004ea10       ??0?$list@PAVUpdateBase@CpiDeviceListUpdater@Net@OpenHome@@V?$allocator@PAVUpdateBase@CpiDeviceListUpdater@Net@OpenHome@@@std@@@std@@QAE@XZ 0044fa10 f i libohNetCore:CpiDevice.obj
 0001:0004ea50       ??1?$list@PAVUpdateBase@CpiDeviceListUpdater@Net@OpenHome@@V?$allocator@PAVUpdateBase@CpiDeviceListUpdater@Net@OpenHome@@@std@@@std@@QAE@XZ 0044fa50 f i libohNetCore:CpiDevice.obj
 0001:0004eac0       ?size@?$list@PAVUpdateBase@CpiDeviceListUpdater@Net@OpenHome@@V?$allocator@PAVUpdateBase@CpiDeviceListUpdater@Net@OpenHome@@@std@@@std@@QBEIXZ 0044fac0 f i libohNetCore:CpiDevice.obj
 0001:0004eae0       ?front@?$list@PAVUpdateBase@CpiDeviceListUpdater@Net@OpenHome@@V?$allocator@PAVUpdateBase@CpiDeviceListUpdater@Net@OpenHome@@@std@@@std@@QAEAAPAVUpdateBase@CpiDeviceListUpdater@Net@OpenHome@@XZ 0044fae0 f i libohNetCore:CpiDevice.obj
 0001:0004eb80       ?pop_front@?$list@PAVUpdateBase@CpiDeviceListUpdater@Net@OpenHome@@V?$allocator@PAVUpdateBase@CpiDeviceListUpdater@Net@OpenHome@@@std@@@std@@QAEXXZ 0044fb80 f i libohNetCore:CpiDevice.obj
 0001:0004ec30       ?push_back@?$list@PAVUpdateBase@CpiDeviceListUpdater@Net@OpenHome@@V?$allocator@PAVUpdateBase@CpiDeviceListUpdater@Net@OpenHome@@@std@@@std@@QAEXABQAVUpdateBase@CpiDeviceListUpdater@Net@OpenHome@@@Z 0044fc30 f i libohNetCore:CpiDevice.obj
 0001:0004ece0       ??C?$_Tree_iterator@V?$_Tree_val@V?$_Tmap_traits@VBrn@OpenHome@@PAVCpiDevice@Net@2@VBufferCmp@2@V?$allocator@U?$pair@$$CBVBrn@OpenHome@@PAVCpiDevice@Net@2@@std@@@std@@$0A@@std@@@std@@@std@@QBEPAU?$pair@$$CBVBrn@OpenHome@@PAVCpiDevice@Net@2@@1@XZ 0044fce0 f i libohNetCore:CpiDevice.obj
 0001:0004ed10       ??E?$_Tree_iterator@V?$_Tree_val@V?$_Tmap_traits@VBrn@OpenHome@@PAVCpiDevice@Net@2@VBufferCmp@2@V?$allocator@U?$pair@$$CBVBrn@OpenHome@@PAVCpiDevice@Net@2@@std@@@std@@$0A@@std@@@std@@@std@@QAE?AV01@H@Z 0044fd10 f i libohNetCore:CpiDevice.obj
 0001:0004ede0       ??8?$_Tree_const_iterator@V?$_Tree_val@V?$_Tmap_traits@VBrn@OpenHome@@PAVCpiDevice@Net@2@VBufferCmp@2@V?$allocator@U?$pair@$$CBVBrn@OpenHome@@PAVCpiDevice@Net@2@@std@@@std@@$0A@@std@@@std@@@std@@QBE_NABV01@@Z 0044fde0 f i libohNetCore:CpiDevice.obj
 0001:0004eea0       ??9?$_Tree_const_iterator@V?$_Tree_val@V?$_Tmap_traits@VBrn@OpenHome@@PAVCpiDevice@Net@2@VBufferCmp@2@V?$allocator@U?$pair@$$CBVBrn@OpenHome@@PAVCpiDevice@Net@2@@std@@@std@@$0A@@std@@@std@@@std@@QBE_NABV01@@Z 0044fea0 f i libohNetCore:CpiDevice.obj
 0001:0004eee0       ??0?$_Tree_iterator@V?$_Tree_val@V?$_Tmap_traits@VBrn@OpenHome@@PAVCpiDevice@Net@2@VBufferCmp@2@V?$allocator@U?$pair@$$CBVBrn@OpenHome@@PAVCpiDevice@Net@2@@std@@@std@@$0A@@std@@@std@@@std@@QAE@ABV01@@Z 0044fee0 f i libohNetCore:CpiDevice.obj
 0001:0004ef10       ??1?$_List_iterator@V?$_List_val@PAVUpdateBase@CpiDeviceListUpdater@Net@OpenHome@@V?$allocator@PAVUpdateBase@CpiDeviceListUpdater@Net@OpenHome@@@std@@@std@@@std@@QAE@XZ 0044ff10 f i libohNetCore:CpiDevice.obj
 0001:0004ef40       ??0?$_List_const_iterator@V?$_List_val@PAVUpdateBase@CpiDeviceListUpdater@Net@OpenHome@@V?$allocator@PAVUpdateBase@CpiDeviceListUpdater@Net@OpenHome@@@std@@@std@@@std@@QAE@ABV01@@Z 0044ff40 f i libohNetCore:CpiDevice.obj
 0001:0004ef70       ??1?$_List_const_iterator@V?$_List_val@PAVUpdateBase@CpiDeviceListUpdater@Net@OpenHome@@V?$allocator@PAVUpdateBase@CpiDeviceListUpdater@Net@OpenHome@@@std@@@std@@@std@@QAE@XZ 0044ff70 f i libohNetCore:CpiDevice.obj
 0001:0004efa0       ??0?$_List_unchecked_const_iterator@V?$_List_val@PAVUpdateBase@CpiDeviceListUpdater@Net@OpenHome@@V?$allocator@PAVUpdateBase@CpiDeviceListUpdater@Net@OpenHome@@@std@@@std@@U_Iterator_base12@2@@std@@QAE@ABV01@@Z 0044ffa0 f i libohNetCore:CpiDevice.obj
 0001:0004efe0       ??1?$_List_unchecked_const_iterator@V?$_List_val@PAVUpdateBase@CpiDeviceListUpdater@Net@OpenHome@@V?$allocator@PAVUpdateBase@CpiDeviceListUpdater@Net@OpenHome@@@std@@@std@@U_Iterator_base12@2@@std@@QAE@XZ 0044ffe0 f i libohNetCore:CpiDevice.obj
 0001:0004f010       ??0?$_Iterator012@Ubidirectional_iterator_tag@std@@PAVUpdateBase@CpiDeviceListUpdater@Net@OpenHome@@HPBQAV3456@ABQAV3456@U_Iterator_base12@2@@std@@QAE@ABU01@@Z 00450010 f i libohNetCore:CpiDevice.obj
 0001:0004f040       ??1?$_Iterator012@Ubidirectional_iterator_tag@std@@PAVUpdateBase@CpiDeviceListUpdater@Net@OpenHome@@HPBQAV3456@ABQAV3456@U_Iterator_base12@2@@std@@QAE@XZ 00450040 f i libohNetCore:CpiDevice.obj
 0001:0004f070       ??0?$_Tree@V?$_Tmap_traits@VBrn@OpenHome@@PAVCpiDevice@Net@2@VBufferCmp@2@V?$allocator@U?$pair@$$CBVBrn@OpenHome@@PAVCpiDevice@Net@2@@std@@@std@@$0A@@std@@@std@@QAE@ABVBufferCmp@OpenHome@@ABV?$allocator@U?$pair@$$CBVBrn@OpenHome@@PAVCpiDevice@Net@2@@std@@@1@@Z 00450070 f i libohNetCore:CpiDevice.obj
 0001:0004f0c0       ?lower_bound@?$_Tree@V?$_Tmap_traits@VBrn@OpenHome@@PAVCpiDevice@Net@2@VBufferCmp@2@V?$allocator@U?$pair@$$CBVBrn@OpenHome@@PAVCpiDevice@Net@2@@std@@@std@@$0A@@std@@@std@@QAE?AV?$_Tree_iterator@V?$_Tree_val@V?$_Tmap_traits@VBrn@OpenHome@@PAVCpiDevice@Net@2@VBufferCmp@2@V?$allocator@U?$pair@$$CBVBrn@OpenHome@@PAVCpiDevice@Net@2@@std@@@std@@$0A@@std@@@std@@@2@ABVBrn@OpenHome@@@Z 004500c0 f i libohNetCore:CpiDevice.obj
 0001:0004f120       ?_Erase@?$_Tree@V?$_Tmap_traits@VBrn@OpenHome@@PAVCpiDevice@Net@2@VBufferCmp@2@V?$allocator@U?$pair@$$CBVBrn@OpenHome@@PAVCpiDevice@Net@2@@std@@@std@@$0A@@std@@@std@@IAEXPAU_Node@?$_Tree_nod@V?$_Tmap_traits@VBrn@OpenHome@@PAVCpiDevice@Net@2@VBufferCmp@2@V?$allocator@U?$pair@$$CBVBrn@OpenHome@@PAVCpiDevice@Net@2@@std@@@std@@$0A@@std@@@2@@Z 00450120 f i libohNetCore:CpiDevice.obj
 0001:0004f1c0       ?_Lmost@?$_Tree@V?$_Tmap_traits@VBrn@OpenHome@@PAVCpiDevice@Net@2@VBufferCmp@2@V?$allocator@U?$pair@$$CBVBrn@OpenHome@@PAVCpiDevice@Net@2@@std@@@std@@$0A@@std@@@std@@IBEAAPAU_Node@?$_Tree_nod@V?$_Tmap_traits@VBrn@OpenHome@@PAVCpiDevice@Net@2@VBufferCmp@2@V?$allocator@U?$pair@$$CBVBrn@OpenHome@@PAVCpiDevice@Net@2@@std@@@std@@$0A@@std@@@2@XZ 004501c0 f i libohNetCore:CpiDevice.obj
 0001:0004f1f0       ?_Lrotate@?$_Tree@V?$_Tmap_traits@VBrn@OpenHome@@PAVCpiDevice@Net@2@VBufferCmp@2@V?$allocator@U?$pair@$$CBVBrn@OpenHome@@PAVCpiDevice@Net@2@@std@@@std@@$0A@@std@@@std@@IAEXPAU_Node@?$_Tree_nod@V?$_Tmap_traits@VBrn@OpenHome@@PAVCpiDevice@Net@2@VBufferCmp@2@V?$allocator@U?$pair@$$CBVBrn@OpenHome@@PAVCpiDevice@Net@2@@std@@@std@@$0A@@std@@@2@@Z 004501f0 f i libohNetCore:CpiDevice.obj
 0001:0004f310       ?_Rmost@?$_Tree@V?$_Tmap_traits@VBrn@OpenHome@@PAVCpiDevice@Net@2@VBufferCmp@2@V?$allocator@U?$pair@$$CBVBrn@OpenHome@@PAVCpiDevice@Net@2@@std@@@std@@$0A@@std@@@std@@IBEAAPAU_Node@?$_Tree_nod@V?$_Tmap_traits@VBrn@OpenHome@@PAVCpiDevice@Net@2@VBufferCmp@2@V?$allocator@U?$pair@$$CBVBrn@OpenHome@@PAVCpiDevice@Net@2@@std@@@std@@$0A@@std@@@2@XZ 00450310 f i libohNetCore:CpiDevice.obj
 0001:0004f340       ?_Root@?$_Tree@V?$_Tmap_traits@VBrn@OpenHome@@PAVCpiDevice@Net@2@VBufferCmp@2@V?$allocator@U?$pair@$$CBVBrn@OpenHome@@PAVCpiDevice@Net@2@@std@@@std@@$0A@@std@@@std@@IBEAAPAU_Node@?$_Tree_nod@V?$_Tmap_traits@VBrn@OpenHome@@PAVCpiDevice@Net@2@VBufferCmp@2@V?$allocator@U?$pair@$$CBVBrn@OpenHome@@PAVCpiDevice@Net@2@@std@@@std@@$0A@@std@@@2@XZ 00450340 f i libohNetCore:CpiDevice.obj
 0001:0004f370       ?_Rrotate@?$_Tree@V?$_Tmap_traits@VBrn@OpenHome@@PAVCpiDevice@Net@2@VBufferCmp@2@V?$allocator@U?$pair@$$CBVBrn@OpenHome@@PAVCpiDevice@Net@2@@std@@@std@@$0A@@std@@@std@@IAEXPAU_Node@?$_Tree_nod@V?$_Tmap_traits@VBrn@OpenHome@@PAVCpiDevice@Net@2@VBufferCmp@2@V?$allocator@U?$pair@$$CBVBrn@OpenHome@@PAVCpiDevice@Net@2@@std@@@std@@$0A@@std@@@2@@Z 00450370 f i libohNetCore:CpiDevice.obj
 0001:0004f490       ?_Orphan_ptr@?$_Tree@V?$_Tmap_traits@VBrn@OpenHome@@PAVCpiDevice@Net@2@VBufferCmp@2@V?$allocator@U?$pair@$$CBVBrn@OpenHome@@PAVCpiDevice@Net@2@@std@@@std@@$0A@@std@@@std@@IBEXAAV12@PAU_Node@?$_Tree_nod@V?$_Tmap_traits@VBrn@OpenHome@@PAVCpiDevice@Net@2@VBufferCmp@2@V?$allocator@U?$pair@$$CBVBrn@OpenHome@@PAVCpiDevice@Net@2@@std@@@std@@$0A@@std@@@2@@Z 00450490 f i libohNetCore:CpiDevice.obj
 0001:0004f5a0       ?_Tidy@?$_Tree@V?$_Tmap_traits@VBrn@OpenHome@@PAVCpiDevice@Net@2@VBufferCmp@2@V?$allocator@U?$pair@$$CBVBrn@OpenHome@@PAVCpiDevice@Net@2@@std@@@std@@$0A@@std@@@std@@IAEXXZ 004505a0 f i libohNetCore:CpiDevice.obj
 0001:0004f6a0       ??1?$_Tree_val@V?$_Tmap_traits@VBrn@OpenHome@@PAVCpiDevice@Net@2@VBufferCmp@2@V?$allocator@U?$pair@$$CBVBrn@OpenHome@@PAVCpiDevice@Net@2@@std@@@std@@$0A@@std@@@std@@QAE@XZ 004506a0 f i libohNetCore:CpiDevice.obj
 0001:0004f710       ?_Color@?$_Tree_val@V?$_Tmap_traits@VBrn@OpenHome@@PAVCpiDevice@Net@2@VBufferCmp@2@V?$allocator@U?$pair@$$CBVBrn@OpenHome@@PAVCpiDevice@Net@2@@std@@@std@@$0A@@std@@@std@@SGAADPAU_Node@?$_Tree_nod@V?$_Tmap_traits@VBrn@OpenHome@@PAVCpiDevice@Net@2@VBufferCmp@2@V?$allocator@U?$pair@$$CBVBrn@OpenHome@@PAVCpiDevice@Net@2@@std@@@std@@$0A@@std@@@2@@Z 00450710 f i libohNetCore:CpiDevice.obj
 0001:0004f720       ?_Isnil@?$_Tree_val@V?$_Tmap_traits@VBrn@OpenHome@@PAVCpiDevice@Net@2@VBufferCmp@2@V?$allocator@U?$pair@$$CBVBrn@OpenHome@@PAVCpiDevice@Net@2@@std@@@std@@$0A@@std@@@std@@SGAADPAU_Node@?$_Tree_nod@V?$_Tmap_traits@VBrn@OpenHome@@PAVCpiDevice@Net@2@VBufferCmp@2@V?$allocator@U?$pair@$$CBVBrn@OpenHome@@PAVCpiDevice@Net@2@@std@@@std@@$0A@@std@@@2@@Z 00450720 f i libohNetCore:CpiDevice.obj
 0001:0004f730       ?_Key@?$_Tree_val@V?$_Tmap_traits@VBrn@OpenHome@@PAVCpiDevice@Net@2@VBufferCmp@2@V?$allocator@U?$pair@$$CBVBrn@OpenHome@@PAVCpiDevice@Net@2@@std@@@std@@$0A@@std@@@std@@SGAAVBrn@OpenHome@@PAU_Node@?$_Tree_nod@V?$_Tmap_traits@VBrn@OpenHome@@PAVCpiDevice@Net@2@VBufferCmp@2@V?$allocator@U?$pair@$$CBVBrn@OpenHome@@PAVCpiDevice@Net@2@@std@@@std@@$0A@@std@@@2@@Z 00450730 f i libohNetCore:CpiDevice.obj
 0001:0004f750       ?_Left@?$_Tree_val@V?$_Tmap_traits@VBrn@OpenHome@@PAVCpiDevice@Net@2@VBufferCmp@2@V?$allocator@U?$pair@$$CBVBrn@OpenHome@@PAVCpiDevice@Net@2@@std@@@std@@$0A@@std@@@std@@SGAAPAU_Node@?$_Tree_nod@V?$_Tmap_traits@VBrn@OpenHome@@PAVCpiDevice@Net@2@VBufferCmp@2@V?$allocator@U?$pair@$$CBVBrn@OpenHome@@PAVCpiDevice@Net@2@@std@@@std@@$0A@@std@@@2@PAU342@@Z 00450750 f i libohNetCore:CpiDevice.obj
 0001:0004f760       ?_Parent@?$_Tree_val@V?$_Tmap_traits@VBrn@OpenHome@@PAVCpiDevice@Net@2@VBufferCmp@2@V?$allocator@U?$pair@$$CBVBrn@OpenHome@@PAVCpiDevice@Net@2@@std@@@std@@$0A@@std@@@std@@SGAAPAU_Node@?$_Tree_nod@V?$_Tmap_traits@VBrn@OpenHome@@PAVCpiDevice@Net@2@VBufferCmp@2@V?$allocator@U?$pair@$$CBVBrn@OpenHome@@PAVCpiDevice@Net@2@@std@@@std@@$0A@@std@@@2@PAU342@@Z 00450760 f i libohNetCore:CpiDevice.obj
 0001:0004f770       ?_Right@?$_Tree_val@V?$_Tmap_traits@VBrn@OpenHome@@PAVCpiDevice@Net@2@VBufferCmp@2@V?$allocator@U?$pair@$$CBVBrn@OpenHome@@PAVCpiDevice@Net@2@@std@@@std@@$0A@@std@@@std@@SGAAPAU_Node@?$_Tree_nod@V?$_Tmap_traits@VBrn@OpenHome@@PAVCpiDevice@Net@2@VBufferCmp@2@V?$allocator@U?$pair@$$CBVBrn@OpenHome@@PAVCpiDevice@Net@2@@std@@@std@@$0A@@std@@@2@PAU342@@Z 00450770 f i libohNetCore:CpiDevice.obj
 0001:0004f780       ?_Myval@?$_Tree_val@V?$_Tmap_traits@VBrn@OpenHome@@PAVCpiDevice@Net@2@VBufferCmp@2@V?$allocator@U?$pair@$$CBVBrn@OpenHome@@PAVCpiDevice@Net@2@@std@@@std@@$0A@@std@@@std@@SGAAU?$pair@$$CBVBrn@OpenHome@@PAVCpiDevice@Net@2@@2@PAU_Node@?$_Tree_nod@V?$_Tmap_traits@VBrn@OpenHome@@PAVCpiDevice@Net@2@VBufferCmp@2@V?$allocator@U?$pair@$$CBVBrn@OpenHome@@PAVCpiDevice@Net@2@@std@@@std@@$0A@@std@@@2@@Z 00450780 f i libohNetCore:CpiDevice.obj
 0001:0004f790       ?_Max@?$_Tree_val@V?$_Tmap_traits@VBrn@OpenHome@@PAVCpiDevice@Net@2@VBufferCmp@2@V?$allocator@U?$pair@$$CBVBrn@OpenHome@@PAVCpiDevice@Net@2@@std@@@std@@$0A@@std@@@std@@SGPAU_Node@?$_Tree_nod@V?$_Tmap_traits@VBrn@OpenHome@@PAVCpiDevice@Net@2@VBufferCmp@2@V?$allocator@U?$pair@$$CBVBrn@OpenHome@@PAVCpiDevice@Net@2@@std@@@std@@$0A@@std@@@2@PAU342@@Z 00450790 f i libohNetCore:CpiDevice.obj
 0001:0004f7d0       ?_Min@?$_Tree_val@V?$_Tmap_traits@VBrn@OpenHome@@PAVCpiDevice@Net@2@VBufferCmp@2@V?$allocator@U?$pair@$$CBVBrn@OpenHome@@PAVCpiDevice@Net@2@@std@@@std@@$0A@@std@@@std@@SGPAU_Node@?$_Tree_nod@V?$_Tmap_traits@VBrn@OpenHome@@PAVCpiDevice@Net@2@VBufferCmp@2@V?$allocator@U?$pair@$$CBVBrn@OpenHome@@PAVCpiDevice@Net@2@@std@@@std@@$0A@@std@@@2@PAU342@@Z 004507d0 f i libohNetCore:CpiDevice.obj
 0001:0004f810       ??0?$allocator@U?$pair@$$CBVBrn@OpenHome@@PAVCpiDevice@Net@2@@std@@@std@@QAE@XZ 00450810 f i libohNetCore:CpiDevice.obj
 0001:0004f830       ?deallocate@?$allocator@U_Node@?$_Tree_nod@V?$_Tmap_traits@VBrn@OpenHome@@PAVCpiDevice@Net@2@VBufferCmp@2@V?$allocator@U?$pair@$$CBVBrn@OpenHome@@PAVCpiDevice@Net@2@@std@@@std@@$0A@@std@@@std@@@std@@QAEXPAU_Node@?$_Tree_nod@V?$_Tmap_traits@VBrn@OpenHome@@PAVCpiDevice@Net@2@VBufferCmp@2@V?$allocator@U?$pair@$$CBVBrn@OpenHome@@PAVCpiDevice@Net@2@@std@@@std@@$0A@@std@@@2@I@Z 00450830 f i libohNetCore:CpiDevice.obj
 0001:0004f860       ?begin@?$list@PAVUpdateBase@CpiDeviceListUpdater@Net@OpenHome@@V?$allocator@PAVUpdateBase@CpiDeviceListUpdater@Net@OpenHome@@@std@@@std@@QAE?AV?$_List_iterator@V?$_List_val@PAVUpdateBase@CpiDeviceListUpdater@Net@OpenHome@@V?$allocator@PAVUpdateBase@CpiDeviceListUpdater@Net@OpenHome@@@std@@@std@@@2@XZ 00450860 f i libohNetCore:CpiDevice.obj
 0001:0004f8c0       ?end@?$list@PAVUpdateBase@CpiDeviceListUpdater@Net@OpenHome@@V?$allocator@PAVUpdateBase@CpiDeviceListUpdater@Net@OpenHome@@@std@@@std@@QAE?AV?$_List_iterator@V?$_List_val@PAVUpdateBase@CpiDeviceListUpdater@Net@OpenHome@@V?$allocator@PAVUpdateBase@CpiDeviceListUpdater@Net@OpenHome@@@std@@@std@@@2@XZ 004508c0 f i libohNetCore:CpiDevice.obj
 0001:0004f910       ?_Insert@?$list@PAVUpdateBase@CpiDeviceListUpdater@Net@OpenHome@@V?$allocator@PAVUpdateBase@CpiDeviceListUpdater@Net@OpenHome@@@std@@@std@@QAEXV?$_List_const_iterator@V?$_List_val@PAVUpdateBase@CpiDeviceListUpdater@Net@OpenHome@@V?$allocator@PAVUpdateBase@CpiDeviceListUpdater@Net@OpenHome@@@std@@@std@@@2@ABQAVUpdateBase@CpiDeviceListUpdater@Net@OpenHome@@@Z 00450910 f i libohNetCore:CpiDevice.obj
 0001:0004fa00       ?erase@?$list@PAVUpdateBase@CpiDeviceListUpdater@Net@OpenHome@@V?$allocator@PAVUpdateBase@CpiDeviceListUpdater@Net@OpenHome@@@std@@@std@@QAE?AV?$_List_iterator@V?$_List_val@PAVUpdateBase@CpiDeviceListUpdater@Net@OpenHome@@V?$allocator@PAVUpdateBase@CpiDeviceListUpdater@Net@OpenHome@@@std@@@std@@@2@V?$_List_const_iterator@V?$_List_val@PAVUpdateBase@CpiDeviceListUpdater@Net@OpenHome@@V?$allocator@PAVUpdateBase@CpiDeviceListUpdater@Net@OpenHome@@@std@@@std@@@2@@Z 00450a00 f i libohNetCore:CpiDevice.obj
 0001:0004fb90       ?_Tidy@?$list@PAVUpdateBase@CpiDeviceListUpdater@Net@OpenHome@@V?$allocator@PAVUpdateBase@CpiDeviceListUpdater@Net@OpenHome@@@std@@@std@@QAEXXZ 00450b90 f i libohNetCore:CpiDevice.obj
 0001:0004fbc0       ??0?$_List_val@PAVUpdateBase@CpiDeviceListUpdater@Net@OpenHome@@V?$allocator@PAVUpdateBase@CpiDeviceListUpdater@Net@OpenHome@@@std@@@std@@QAE@V?$allocator@PAVUpdateBase@CpiDeviceListUpdater@Net@OpenHome@@@1@@Z 00450bc0 f i libohNetCore:CpiDevice.obj
 0001:0004fc80       ??1?$_List_val@PAVUpdateBase@CpiDeviceListUpdater@Net@OpenHome@@V?$allocator@PAVUpdateBase@CpiDeviceListUpdater@Net@OpenHome@@@std@@@std@@QAE@XZ 00450c80 f i libohNetCore:CpiDevice.obj
 0001:0004fcf0       ??0?$allocator@PAVUpdateBase@CpiDeviceListUpdater@Net@OpenHome@@@std@@QAE@XZ 00450cf0 f i libohNetCore:CpiDevice.obj
 0001:0004fd10       ??0?$_Tree_iterator@V?$_Tree_val@V?$_Tmap_traits@VBrn@OpenHome@@PAVCpiDevice@Net@2@VBufferCmp@2@V?$allocator@U?$pair@$$CBVBrn@OpenHome@@PAVCpiDevice@Net@2@@std@@@std@@$0A@@std@@@std@@@std@@QAE@PAU_Node@?$_Tree_nod@V?$_Tmap_traits@VBrn@OpenHome@@PAVCpiDevice@Net@2@VBufferCmp@2@V?$allocator@U?$pair@$$CBVBrn@OpenHome@@PAVCpiDevice@Net@2@@std@@@std@@$0A@@std@@@1@PBV?$_Tree_val@V?$_Tmap_traits@VBrn@OpenHome@@PAVCpiDevice@Net@2@VBufferCmp@2@V?$allocator@U?$pair@$$CBVBrn@OpenHome@@PAVCpiDevice@Net@2@@std@@@std@@$0A@@std@@@1@@Z 00450d10 f i libohNetCore:CpiDevice.obj
 0001:0004fd50       ??D?$_Tree_iterator@V?$_Tree_val@V?$_Tmap_traits@VBrn@OpenHome@@PAVCpiDevice@Net@2@VBufferCmp@2@V?$allocator@U?$pair@$$CBVBrn@OpenHome@@PAVCpiDevice@Net@2@@std@@@std@@$0A@@std@@@std@@@std@@QBEAAU?$pair@$$CBVBrn@OpenHome@@PAVCpiDevice@Net@2@@1@XZ 00450d50 f i libohNetCore:CpiDevice.obj
 0001:0004fd80       ??E?$_Tree_iterator@V?$_Tree_val@V?$_Tmap_traits@VBrn@OpenHome@@PAVCpiDevice@Net@2@VBufferCmp@2@V?$allocator@U?$pair@$$CBVBrn@OpenHome@@PAVCpiDevice@Net@2@@std@@@std@@$0A@@std@@@std@@@std@@QAEAAV01@XZ 00450d80 f i libohNetCore:CpiDevice.obj
 0001:0004fdb0       ??E?$_Tree_const_iterator@V?$_Tree_val@V?$_Tmap_traits@VBrn@OpenHome@@PAVCpiDevice@Net@2@VBufferCmp@2@V?$allocator@U?$pair@$$CBVBrn@OpenHome@@PAVCpiDevice@Net@2@@std@@@std@@$0A@@std@@@std@@@std@@QAEAAV01@XZ 00450db0 f i libohNetCore:CpiDevice.obj
 0001:0004fe70       ?_Mynode@?$_Tree_unchecked_const_iterator@V?$_Tree_val@V?$_Tmap_traits@VBrn@OpenHome@@PAVCpiDevice@Net@2@VBufferCmp@2@V?$allocator@U?$pair@$$CBVBrn@OpenHome@@PAVCpiDevice@Net@2@@std@@@std@@$0A@@std@@@std@@U_Iterator_base12@2@@std@@QBEPAU_Node@?$_Tree_nod@V?$_Tmap_traits@VBrn@OpenHome@@PAVCpiDevice@Net@2@VBufferCmp@2@V?$allocator@U?$pair@$$CBVBrn@OpenHome@@PAVCpiDevice@Net@2@@std@@@std@@$0A@@std@@@2@XZ 00450e70 f i libohNetCore:CpiDevice.obj
 0001:0004fe90       ??D?$_List_iterator@V?$_List_val@PAVUpdateBase@CpiDeviceListUpdater@Net@OpenHome@@V?$allocator@PAVUpdateBase@CpiDeviceListUpdater@Net@OpenHome@@@std@@@std@@@std@@QBEAAPAVUpdateBase@CpiDeviceListUpdater@Net@OpenHome@@XZ 00450e90 f i libohNetCore:CpiDevice.obj
 0001:0004fec0       ?erase@?$_Tree@V?$_Tmap_traits@VBrn@OpenHome@@PAVCpiDevice@Net@2@VBufferCmp@2@V?$allocator@U?$pair@$$CBVBrn@OpenHome@@PAVCpiDevice@Net@2@@std@@@std@@$0A@@std@@@std@@QAE?AV?$_Tree_iterator@V?$_Tree_val@V?$_Tmap_traits@VBrn@OpenHome@@PAVCpiDevice@Net@2@VBufferCmp@2@V?$allocator@U?$pair@$$CBVBrn@OpenHome@@PAVCpiDevice@Net@2@@std@@@std@@$0A@@std@@@std@@@2@V?$_Tree_const_iterator@V?$_Tree_val@V?$_Tmap_traits@VBrn@OpenHome@@PAVCpiDevice@Net@2@VBufferCmp@2@V?$allocator@U?$pair@$$CBVBrn@OpenHome@@PAVCpiDevice@Net@2@@std@@@std@@$0A@@std@@@std@@@2@0@Z 00450ec0 f i libohNetCore:CpiDevice.obj
 0001:000500c0       ?_Lbound@?$_Tree@V?$_Tmap_traits@VBrn@OpenHome@@PAVCpiDevice@Net@2@VBufferCmp@2@V?$allocator@U?$pair@$$CBVBrn@OpenHome@@PAVCpiDevice@Net@2@@std@@@std@@$0A@@std@@@std@@IAEPAU_Node@?$_Tree_nod@V?$_Tmap_traits@VBrn@OpenHome@@PAVCpiDevice@Net@2@VBufferCmp@2@V?$allocator@U?$pair@$$CBVBrn@OpenHome@@PAVCpiDevice@Net@2@@std@@@std@@$0A@@std@@@2@ABVBrn@OpenHome@@@Z 004510c0 f i libohNetCore:CpiDevice.obj
 0001:00050170       ??0?$_Tree_val@V?$_Tmap_traits@VBrn@OpenHome@@PAVCpiDevice@Net@2@VBufferCmp@2@V?$allocator@U?$pair@$$CBVBrn@OpenHome@@PAVCpiDevice@Net@2@@std@@@std@@$0A@@std@@@std@@QAE@ABVBufferCmp@OpenHome@@V?$allocator@U?$pair@$$CBVBrn@OpenHome@@PAVCpiDevice@Net@2@@std@@@1@@Z 00451170 f i libohNetCore:CpiDevice.obj
 0001:00050270       ??1?$_Tree_nod@V?$_Tmap_traits@VBrn@OpenHome@@PAVCpiDevice@Net@2@VBufferCmp@2@V?$allocator@U?$pair@$$CBVBrn@OpenHome@@PAVCpiDevice@Net@2@@std@@@std@@$0A@@std@@@std@@QAE@XZ 00451270 f i libohNetCore:CpiDevice.obj
 0001:00050350       ??0?$allocator@U?$pair@$$CBVBrn@OpenHome@@PAVCpiDevice@Net@2@@std@@@std@@QAE@ABV01@@Z 00451350 f i libohNetCore:CpiDevice.obj
 0001:00050370       ?_Make_iter@?$list@PAVUpdateBase@CpiDeviceListUpdater@Net@OpenHome@@V?$allocator@PAVUpdateBase@CpiDeviceListUpdater@Net@OpenHome@@@std@@@std@@QBE?AV?$_List_iterator@V?$_List_val@PAVUpdateBase@CpiDeviceListUpdater@Net@OpenHome@@V?$allocator@PAVUpdateBase@CpiDeviceListUpdater@Net@OpenHome@@@std@@@std@@@2@V?$_List_const_iterator@V?$_List_val@PAVUpdateBase@CpiDeviceListUpdater@Net@OpenHome@@V?$allocator@PAVUpdateBase@CpiDeviceListUpdater@Net@OpenHome@@@std@@@std@@@2@@Z 00451370 f i libohNetCore:CpiDevice.obj
 0001:00050400       ?clear@?$list@PAVUpdateBase@CpiDeviceListUpdater@Net@OpenHome@@V?$allocator@PAVUpdateBase@CpiDeviceListUpdater@Net@OpenHome@@@std@@@std@@QAEXXZ 00451400 f i libohNetCore:CpiDevice.obj
 0001:000504d0       ?_Incsize@?$list@PAVUpdateBase@CpiDeviceListUpdater@Net@OpenHome@@V?$allocator@PAVUpdateBase@CpiDeviceListUpdater@Net@OpenHome@@@std@@@std@@QAEXI@Z 004514d0 f i libohNetCore:CpiDevice.obj
 0001:00050520       ?_Orphan_ptr@?$list@PAVUpdateBase@CpiDeviceListUpdater@Net@OpenHome@@V?$allocator@PAVUpdateBase@CpiDeviceListUpdater@Net@OpenHome@@@std@@@std@@QBEXAAV12@PAU_Node@?$_List_nod@PAVUpdateBase@CpiDeviceListUpdater@Net@OpenHome@@V?$allocator@PAVUpdateBase@CpiDeviceListUpdater@Net@OpenHome@@@std@@@2@@Z 00451520 f i libohNetCore:CpiDevice.obj
 0001:00050630       ?_Buynode@?$_List_val@PAVUpdateBase@CpiDeviceListUpdater@Net@OpenHome@@V?$allocator@PAVUpdateBase@CpiDeviceListUpdater@Net@OpenHome@@@std@@@std@@QAEPAU_Node@?$_List_nod@PAVUpdateBase@CpiDeviceListUpdater@Net@OpenHome@@V?$allocator@PAVUpdateBase@CpiDeviceListUpdater@Net@OpenHome@@@std@@@2@PAU342@0ABQAVUpdateBase@CpiDeviceListUpdater@Net@OpenHome@@@Z 00451630 f i libohNetCore:CpiDevice.obj
 0001:00050740       ?_Nextnode@?$_List_val@PAVUpdateBase@CpiDeviceListUpdater@Net@OpenHome@@V?$allocator@PAVUpdateBase@CpiDeviceListUpdater@Net@OpenHome@@@std@@@std@@SGAAPAU_Node@?$_List_nod@PAVUpdateBase@CpiDeviceListUpdater@Net@OpenHome@@V?$allocator@PAVUpdateBase@CpiDeviceListUpdater@Net@OpenHome@@@std@@@2@PAU342@@Z 00451740 f i libohNetCore:CpiDevice.obj
 0001:00050750       ?_Prevnode@?$_List_val@PAVUpdateBase@CpiDeviceListUpdater@Net@OpenHome@@V?$allocator@PAVUpdateBase@CpiDeviceListUpdater@Net@OpenHome@@@std@@@std@@SGAAPAU_Node@?$_List_nod@PAVUpdateBase@CpiDeviceListUpdater@Net@OpenHome@@V?$allocator@PAVUpdateBase@CpiDeviceListUpdater@Net@OpenHome@@@std@@@2@PAU342@@Z 00451750 f i libohNetCore:CpiDevice.obj
 0001:00050760       ??0?$_List_nod@PAVUpdateBase@CpiDeviceListUpdater@Net@OpenHome@@V?$allocator@PAVUpdateBase@CpiDeviceListUpdater@Net@OpenHome@@@std@@@std@@QAE@V?$allocator@PAVUpdateBase@CpiDeviceListUpdater@Net@OpenHome@@@1@@Z 00451760 f i libohNetCore:CpiDevice.obj
 0001:00050870       ??1?$_List_nod@PAVUpdateBase@CpiDeviceListUpdater@Net@OpenHome@@V?$allocator@PAVUpdateBase@CpiDeviceListUpdater@Net@OpenHome@@@std@@@std@@QAE@XZ 00451870 f i libohNetCore:CpiDevice.obj
 0001:00050950       ??0?$allocator@PAVUpdateBase@CpiDeviceListUpdater@Net@OpenHome@@@std@@QAE@ABV01@@Z 00451950 f i libohNetCore:CpiDevice.obj
 0001:00050970       ?deallocate@?$allocator@U_Node@?$_List_nod@PAVUpdateBase@CpiDeviceListUpdater@Net@OpenHome@@V?$allocator@PAVUpdateBase@CpiDeviceListUpdater@Net@OpenHome@@@std@@@std@@@std@@QAEXPAU_Node@?$_List_nod@PAVUpdateBase@CpiDeviceListUpdater@Net@OpenHome@@V?$allocator@PAVUpdateBase@CpiDeviceListUpdater@Net@OpenHome@@@std@@@2@I@Z 00451970 f i libohNetCore:CpiDevice.obj
 0001:000509a0       ?allocate@?$allocator@U_Node@?$_List_nod@PAVUpdateBase@CpiDeviceListUpdater@Net@OpenHome@@V?$allocator@PAVUpdateBase@CpiDeviceListUpdater@Net@OpenHome@@@std@@@std@@@std@@QAEPAU_Node@?$_List_nod@PAVUpdateBase@CpiDeviceListUpdater@Net@OpenHome@@V?$allocator@PAVUpdateBase@CpiDeviceListUpdater@Net@OpenHome@@@std@@@2@I@Z 004519a0 f i libohNetCore:CpiDevice.obj
 0001:000509d0       ??0?$_Tree_const_iterator@V?$_Tree_val@V?$_Tmap_traits@VBrn@OpenHome@@PAVCpiDevice@Net@2@VBufferCmp@2@V?$allocator@U?$pair@$$CBVBrn@OpenHome@@PAVCpiDevice@Net@2@@std@@@std@@$0A@@std@@@std@@@std@@QAE@PAU_Node@?$_Tree_nod@V?$_Tmap_traits@VBrn@OpenHome@@PAVCpiDevice@Net@2@VBufferCmp@2@V?$allocator@U?$pair@$$CBVBrn@OpenHome@@PAVCpiDevice@Net@2@@std@@@std@@$0A@@std@@@1@PBV?$_Tree_val@V?$_Tmap_traits@VBrn@OpenHome@@PAVCpiDevice@Net@2@VBufferCmp@2@V?$allocator@U?$pair@$$CBVBrn@OpenHome@@PAVCpiDevice@Net@2@@std@@@std@@$0A@@std@@@1@@Z 004519d0 f i libohNetCore:CpiDevice.obj
 0001:00050a10       ??D?$_Tree_const_iterator@V?$_Tree_val@V?$_Tmap_traits@VBrn@OpenHome@@PAVCpiDevice@Net@2@VBufferCmp@2@V?$allocator@U?$pair@$$CBVBrn@OpenHome@@PAVCpiDevice@Net@2@@std@@@std@@$0A@@std@@@std@@@std@@QBEABU?$pair@$$CBVBrn@OpenHome@@PAVCpiDevice@Net@2@@1@XZ 00451a10 f i libohNetCore:CpiDevice.obj
 0001:00050ad0       ??E?$_Tree_unchecked_const_iterator@V?$_Tree_val@V?$_Tmap_traits@VBrn@OpenHome@@PAVCpiDevice@Net@2@VBufferCmp@2@V?$allocator@U?$pair@$$CBVBrn@OpenHome@@PAVCpiDevice@Net@2@@std@@@std@@$0A@@std@@@std@@U_Iterator_base12@2@@std@@QAEAAV01@XZ 00451ad0 f i libohNetCore:CpiDevice.obj
 0001:00050b90       ??0?$_List_iterator@V?$_List_val@PAVUpdateBase@CpiDeviceListUpdater@Net@OpenHome@@V?$allocator@PAVUpdateBase@CpiDeviceListUpdater@Net@OpenHome@@@std@@@std@@@std@@QAE@PAU_Node@?$_List_nod@PAVUpdateBase@CpiDeviceListUpdater@Net@OpenHome@@V?$allocator@PAVUpdateBase@CpiDeviceListUpdater@Net@OpenHome@@@std@@@1@PBV?$_List_val@PAVUpdateBase@CpiDeviceListUpdater@Net@OpenHome@@V?$allocator@PAVUpdateBase@CpiDeviceListUpdater@Net@OpenHome@@@std@@@1@@Z 00451b90 f i libohNetCore:CpiDevice.obj
 0001:00050bd0       ??D?$_List_const_iterator@V?$_List_val@PAVUpdateBase@CpiDeviceListUpdater@Net@OpenHome@@V?$allocator@PAVUpdateBase@CpiDeviceListUpdater@Net@OpenHome@@@std@@@std@@@std@@QBEABQAVUpdateBase@CpiDeviceListUpdater@Net@OpenHome@@XZ 00451bd0 f i libohNetCore:CpiDevice.obj
 0001:00050c90       ??E?$_List_const_iterator@V?$_List_val@PAVUpdateBase@CpiDeviceListUpdater@Net@OpenHome@@V?$allocator@PAVUpdateBase@CpiDeviceListUpdater@Net@OpenHome@@@std@@@std@@@std@@QAE?AV01@H@Z 00451c90 f i libohNetCore:CpiDevice.obj
 0001:00050d60       ?_Mynode@?$_List_unchecked_const_iterator@V?$_List_val@PAVUpdateBase@CpiDeviceListUpdater@Net@OpenHome@@V?$allocator@PAVUpdateBase@CpiDeviceListUpdater@Net@OpenHome@@@std@@@std@@U_Iterator_base12@2@@std@@QBEPAU_Node@?$_List_nod@PAVUpdateBase@CpiDeviceListUpdater@Net@OpenHome@@V?$allocator@PAVUpdateBase@CpiDeviceListUpdater@Net@OpenHome@@@std@@@2@XZ 00451d60 f i libohNetCore:CpiDevice.obj
 0001:00050d80       ??1?$_Tmap_traits@VBrn@OpenHome@@PAVCpiDevice@Net@2@VBufferCmp@2@V?$allocator@U?$pair@$$CBVBrn@OpenHome@@PAVCpiDevice@Net@2@@std@@@std@@$0A@@std@@QAE@XZ 00451d80 f i libohNetCore:CpiDevice.obj
 0001:00050db0       ??0?$_Tree_nod@V?$_Tmap_traits@VBrn@OpenHome@@PAVCpiDevice@Net@2@VBufferCmp@2@V?$allocator@U?$pair@$$CBVBrn@OpenHome@@PAVCpiDevice@Net@2@@std@@@std@@$0A@@std@@@std@@QAE@ABVBufferCmp@OpenHome@@V?$allocator@U?$pair@$$CBVBrn@OpenHome@@PAVCpiDevice@Net@2@@std@@@1@@Z 00451db0 f i libohNetCore:CpiDevice.obj
 0001:00050ec0       ?allocate@?$allocator@U_Node@?$_Tree_nod@V?$_Tmap_traits@VBrn@OpenHome@@PAVCpiDevice@Net@2@VBufferCmp@2@V?$allocator@U?$pair@$$CBVBrn@OpenHome@@PAVCpiDevice@Net@2@@std@@@std@@$0A@@std@@@std@@@std@@QAEPAU_Node@?$_Tree_nod@V?$_Tmap_traits@VBrn@OpenHome@@PAVCpiDevice@Net@2@VBufferCmp@2@V?$allocator@U?$pair@$$CBVBrn@OpenHome@@PAVCpiDevice@Net@2@@std@@@std@@$0A@@std@@@2@I@Z 00451ec0 f i libohNetCore:CpiDevice.obj
 0001:00050ef0       ?max_size@?$list@PAVUpdateBase@CpiDeviceListUpdater@Net@OpenHome@@V?$allocator@PAVUpdateBase@CpiDeviceListUpdater@Net@OpenHome@@@std@@@std@@QBEIXZ 00451ef0 f i libohNetCore:CpiDevice.obj
 0001:00050f20       ?_Myval@?$_List_val@PAVUpdateBase@CpiDeviceListUpdater@Net@OpenHome@@V?$allocator@PAVUpdateBase@CpiDeviceListUpdater@Net@OpenHome@@@std@@@std@@SGAAPAVUpdateBase@CpiDeviceListUpdater@Net@OpenHome@@PAU_Node@?$_List_nod@PAVUpdateBase@CpiDeviceListUpdater@Net@OpenHome@@V?$allocator@PAVUpdateBase@CpiDeviceListUpdater@Net@OpenHome@@@std@@@2@@Z 00451f20 f i libohNetCore:CpiDevice.obj
 0001:00050f30       ??E?$_Tree_const_iterator@V?$_Tree_val@V?$_Tmap_traits@VBrn@OpenHome@@PAVCpiDevice@Net@2@VBufferCmp@2@V?$allocator@U?$pair@$$CBVBrn@OpenHome@@PAVCpiDevice@Net@2@@std@@@std@@$0A@@std@@@std@@@std@@QAE?AV01@H@Z 00451f30 f i libohNetCore:CpiDevice.obj
 0001:00051000       ??0?$_Tree_unchecked_const_iterator@V?$_Tree_val@V?$_Tmap_traits@VBrn@OpenHome@@PAVCpiDevice@Net@2@VBufferCmp@2@V?$allocator@U?$pair@$$CBVBrn@OpenHome@@PAVCpiDevice@Net@2@@std@@@std@@$0A@@std@@@std@@U_Iterator_base12@2@@std@@QAE@PAU_Node@?$_Tree_nod@V?$_Tmap_traits@VBrn@OpenHome@@PAVCpiDevice@Net@2@VBufferCmp@2@V?$allocator@U?$pair@$$CBVBrn@OpenHome@@PAVCpiDevice@Net@2@@std@@@std@@$0A@@std@@@1@PBV?$_Tree_val@V?$_Tmap_traits@VBrn@OpenHome@@PAVCpiDevice@Net@2@VBufferCmp@2@V?$allocator@U?$pair@$$CBVBrn@OpenHome@@PAVCpiDevice@Net@2@@std@@@std@@$0A@@std@@@1@@Z 00452000 f i libohNetCore:CpiDevice.obj
 0001:00051080       ??0?$_List_const_iterator@V?$_List_val@PAVUpdateBase@CpiDeviceListUpdater@Net@OpenHome@@V?$allocator@PAVUpdateBase@CpiDeviceListUpdater@Net@OpenHome@@@std@@@std@@@std@@QAE@PAU_Node@?$_List_nod@PAVUpdateBase@CpiDeviceListUpdater@Net@OpenHome@@V?$allocator@PAVUpdateBase@CpiDeviceListUpdater@Net@OpenHome@@@std@@@1@PBV?$_List_val@PAVUpdateBase@CpiDeviceListUpdater@Net@OpenHome@@V?$allocator@PAVUpdateBase@CpiDeviceListUpdater@Net@OpenHome@@@std@@@1@@Z 00452080 f i libohNetCore:CpiDevice.obj
 0001:000510c0       ??E?$_List_const_iterator@V?$_List_val@PAVUpdateBase@CpiDeviceListUpdater@Net@OpenHome@@V?$allocator@PAVUpdateBase@CpiDeviceListUpdater@Net@OpenHome@@@std@@@std@@@std@@QAEAAV01@XZ 004520c0 f i libohNetCore:CpiDevice.obj
 0001:00051180       ??0?$_Iterator012@Ubidirectional_iterator_tag@std@@U?$pair@$$CBVBrn@OpenHome@@PAVCpiDevice@Net@2@@2@HPBU32@ABU32@U_Iterator_base12@2@@std@@QAE@XZ 00452180 f i libohNetCore:CpiDevice.obj
 0001:000511b0       ??0?$_Tmap_traits@VBrn@OpenHome@@PAVCpiDevice@Net@2@VBufferCmp@2@V?$allocator@U?$pair@$$CBVBrn@OpenHome@@PAVCpiDevice@Net@2@@std@@@std@@$0A@@std@@QAE@VBufferCmp@OpenHome@@@Z 004521b0 f i libohNetCore:CpiDevice.obj
 0001:000511e0       ?max_size@?$allocator@PAVUpdateBase@CpiDeviceListUpdater@Net@OpenHome@@@std@@QBEIXZ 004521e0 f i libohNetCore:CpiDevice.obj
 0001:00051230       ??0?$_List_unchecked_const_iterator@V?$_List_val@PAVUpdateBase@CpiDeviceListUpdater@Net@OpenHome@@V?$allocator@PAVUpdateBase@CpiDeviceListUpdater@Net@OpenHome@@@std@@@std@@U_Iterator_base12@2@@std@@QAE@PAU_Node@?$_List_nod@PAVUpdateBase@CpiDeviceListUpdater@Net@OpenHome@@V?$allocator@PAVUpdateBase@CpiDeviceListUpdater@Net@OpenHome@@@std@@@1@PBV?$_List_val@PAVUpdateBase@CpiDeviceListUpdater@Net@OpenHome@@V?$allocator@PAVUpdateBase@CpiDeviceListUpdater@Net@OpenHome@@@std@@@1@@Z 00452230 f i libohNetCore:CpiDevice.obj
 0001:000512b0       ??0?$_Iterator012@Ubidirectional_iterator_tag@std@@PAVUpdateBase@CpiDeviceListUpdater@Net@OpenHome@@HPBQAV3456@ABQAV3456@U_Iterator_base12@2@@std@@QAE@XZ 004522b0 f i libohNetCore:CpiDevice.obj
 0001:000512e0       ??$?0AAVBrn@OpenHome@@AAPAVCpiDevice@Net@1@@?$pair@VBrn@OpenHome@@PAVCpiDevice@Net@2@@std@@QAE@AAVBrn@OpenHome@@AAPAVCpiDevice@Net@3@@Z 004522e0 f i libohNetCore:CpiDevice.obj
 0001:00051320       ??$insert@U?$pair@VBrn@OpenHome@@PAVCpiDevice@Net@2@@std@@@?$_Tree@V?$_Tmap_traits@VBrn@OpenHome@@PAVCpiDevice@Net@2@VBufferCmp@2@V?$allocator@U?$pair@$$CBVBrn@OpenHome@@PAVCpiDevice@Net@2@@std@@@std@@$0A@@std@@@std@@QAE?AU?$pair@V?$_Tree_iterator@V?$_Tree_val@V?$_Tmap_traits@VBrn@OpenHome@@PAVCpiDevice@Net@2@VBufferCmp@2@V?$allocator@U?$pair@$$CBVBrn@OpenHome@@PAVCpiDevice@Net@2@@std@@@std@@$0A@@std@@@std@@@std@@_N@1@$$QAU?$pair@VBrn@OpenHome@@PAVCpiDevice@Net@2@@1@@Z 00452320 f i libohNetCore:CpiDevice.obj
 0001:00051380       ??$addressof@U?$pair@$$CBVBrn@OpenHome@@PAVCpiDevice@Net@2@@std@@@std@@YGPAU?$pair@$$CBVBrn@OpenHome@@PAVCpiDevice@Net@2@@0@AAU10@@Z 00452380 f i libohNetCore:CpiDevice.obj
 0001:00051390       ??$_Dest_val@V?$allocator@U?$pair@$$CBVBrn@OpenHome@@PAVCpiDevice@Net@2@@std@@@std@@U?$pair@$$CBVBrn@OpenHome@@PAVCpiDevice@Net@2@@2@@std@@YGXAAV?$allocator@U?$pair@$$CBVBrn@OpenHome@@PAVCpiDevice@Net@2@@std@@@0@PAU?$pair@$$CBVBrn@OpenHome@@PAVCpiDevice@Net@2@@0@@Z 00452390 f i libohNetCore:CpiDevice.obj
 0001:000513b0       ??$_Kfn@$$CBVBrn@OpenHome@@PAVCpiDevice@Net@2@@?$_Tmap_traits@VBrn@OpenHome@@PAVCpiDevice@Net@2@VBufferCmp@2@V?$allocator@U?$pair@$$CBVBrn@OpenHome@@PAVCpiDevice@Net@2@@std@@@std@@$0A@@std@@SGABVBrn@OpenHome@@ABU?$pair@$$CBVBrn@OpenHome@@PAVCpiDevice@Net@2@@1@@Z 004523b0 f i libohNetCore:CpiDevice.obj
 0001:000513c0       ??$_Dest_val@V?$allocator@U_Node@?$_List_nod@PAVUpdateBase@CpiDeviceListUpdater@Net@OpenHome@@V?$allocator@PAVUpdateBase@CpiDeviceListUpdater@Net@OpenHome@@@std@@@std@@@std@@U_Node@?$_List_nod@PAVUpdateBase@CpiDeviceListUpdater@Net@OpenHome@@V?$allocator@PAVUpdateBase@CpiDeviceListUpdater@Net@OpenHome@@@std@@@2@@std@@YGXAAV?$allocator@U_Node@?$_List_nod@PAVUpdateBase@CpiDeviceListUpdater@Net@OpenHome@@V?$allocator@PAVUpdateBase@CpiDeviceListUpdater@Net@OpenHome@@@std@@@std@@@0@PAU_Node@?$_List_nod@PAVUpdateBase@CpiDeviceListUpdater@Net@OpenHome@@V?$allocator@PAVUpdateBase@CpiDeviceListUpdater@Net@OpenHome@@@std@@@0@@Z 004523c0 f i libohNetCore:CpiDevice.obj
 0001:000513e0       ??$?0U_Node@?$_Tree_nod@V?$_Tmap_traits@VBrn@OpenHome@@PAVCpiDevice@Net@2@VBufferCmp@2@V?$allocator@U?$pair@$$CBVBrn@OpenHome@@PAVCpiDevice@Net@2@@std@@@std@@$0A@@std@@@std@@@?$allocator@U_Container_proxy@std@@@std@@QAE@ABV?$allocator@U_Node@?$_Tree_nod@V?$_Tmap_traits@VBrn@OpenHome@@PAVCpiDevice@Net@2@VBufferCmp@2@V?$allocator@U?$pair@$$CBVBrn@OpenHome@@PAVCpiDevice@Net@2@@std@@@std@@$0A@@std@@@std@@@1@@Z 004523e0 f i libohNetCore:CpiDevice.obj
 0001:00051400       ??$addressof@PAVUpdateBase@CpiDeviceListUpdater@Net@OpenHome@@@std@@YGPAPAVUpdateBase@CpiDeviceListUpdater@Net@OpenHome@@AAPAV1234@@Z 00452400 f i libohNetCore:CpiDevice.obj
 0001:00051410       ??$_Cons_val@V?$allocator@PAVUpdateBase@CpiDeviceListUpdater@Net@OpenHome@@@std@@PAVUpdateBase@CpiDeviceListUpdater@Net@OpenHome@@ABQAV3456@@std@@YGXAAV?$allocator@PAVUpdateBase@CpiDeviceListUpdater@Net@OpenHome@@@0@PAPAVUpdateBase@CpiDeviceListUpdater@Net@OpenHome@@ABQAV2345@@Z 00452410 f i libohNetCore:CpiDevice.obj
 0001:00051440       ??$?0PAVUpdateBase@CpiDeviceListUpdater@Net@OpenHome@@@?$allocator@U_Node@?$_List_nod@PAVUpdateBase@CpiDeviceListUpdater@Net@OpenHome@@V?$allocator@PAVUpdateBase@CpiDeviceListUpdater@Net@OpenHome@@@std@@@std@@@std@@QAE@ABV?$allocator@PAVUpdateBase@CpiDeviceListUpdater@Net@OpenHome@@@1@@Z 00452440 f i libohNetCore:CpiDevice.obj
 0001:00051460       ??$?0U_Node@?$_List_nod@PAVUpdateBase@CpiDeviceListUpdater@Net@OpenHome@@V?$allocator@PAVUpdateBase@CpiDeviceListUpdater@Net@OpenHome@@@std@@@std@@@?$allocator@U_Container_proxy@std@@@std@@QAE@ABV?$allocator@U_Node@?$_List_nod@PAVUpdateBase@CpiDeviceListUpdater@Net@OpenHome@@V?$allocator@PAVUpdateBase@CpiDeviceListUpdater@Net@OpenHome@@@std@@@std@@@1@@Z 00452460 f i libohNetCore:CpiDevice.obj
 0001:00051480       ??$_Allocate@U_Node@?$_List_nod@PAVUpdateBase@CpiDeviceListUpdater@Net@OpenHome@@V?$allocator@PAVUpdateBase@CpiDeviceListUpdater@Net@OpenHome@@@std@@@std@@@std@@YGPAU_Node@?$_List_nod@PAVUpdateBase@CpiDeviceListUpdater@Net@OpenHome@@V?$allocator@PAVUpdateBase@CpiDeviceListUpdater@Net@OpenHome@@@std@@@0@IPAU120@@Z 00452480 f i libohNetCore:CpiDevice.obj
 0001:00051500       ??$?0U?$pair@$$CBVBrn@OpenHome@@PAVCpiDevice@Net@2@@std@@@?$allocator@U_Node@?$_Tree_nod@V?$_Tmap_traits@VBrn@OpenHome@@PAVCpiDevice@Net@2@VBufferCmp@2@V?$allocator@U?$pair@$$CBVBrn@OpenHome@@PAVCpiDevice@Net@2@@std@@@std@@$0A@@std@@@std@@@std@@QAE@ABV?$allocator@U?$pair@$$CBVBrn@OpenHome@@PAVCpiDevice@Net@2@@std@@@1@@Z 00452500 f i libohNetCore:CpiDevice.obj
 0001:00051520       ??$_Allocate@U_Node@?$_Tree_nod@V?$_Tmap_traits@VBrn@OpenHome@@PAVCpiDevice@Net@2@VBufferCmp@2@V?$allocator@U?$pair@$$CBVBrn@OpenHome@@PAVCpiDevice@Net@2@@std@@@std@@$0A@@std@@@std@@@std@@YGPAU_Node@?$_Tree_nod@V?$_Tmap_traits@VBrn@OpenHome@@PAVCpiDevice@Net@2@VBufferCmp@2@V?$allocator@U?$pair@$$CBVBrn@OpenHome@@PAVCpiDevice@Net@2@@std@@@std@@$0A@@std@@@0@IPAU120@@Z 00452520 f i libohNetCore:CpiDevice.obj
 0001:000515a0       ?_Linsert@?$_Tree@V?$_Tmap_traits@VBrn@OpenHome@@PAVCpiDevice@Net@2@VBufferCmp@2@V?$allocator@U?$pair@$$CBVBrn@OpenHome@@PAVCpiDevice@Net@2@@std@@@std@@$0A@@std@@@std@@QAE?AU?$pair@V?$_Tree_iterator@V?$_Tree_val@V?$_Tmap_traits@VBrn@OpenHome@@PAVCpiDevice@Net@2@VBufferCmp@2@V?$allocator@U?$pair@$$CBVBrn@OpenHome@@PAVCpiDevice@Net@2@@std@@@std@@$0A@@std@@@std@@@std@@_N@2@PAU_Node@?$_Tree_nod@V?$_Tmap_traits@VBrn@OpenHome@@PAVCpiDevice@Net@2@VBufferCmp@2@V?$allocator@U?$pair@$$CBVBrn@OpenHome@@PAVCpiDevice@Net@2@@std@@@std@@$0A@@std@@@2@_N@Z 004525a0 f i libohNetCore:CpiDevice.obj
 0001:00051980       ?destroy@?$allocator@U?$pair@$$CBVBrn@OpenHome@@PAVCpiDevice@Net@2@@std@@@std@@QAEXPAU?$pair@$$CBVBrn@OpenHome@@PAVCpiDevice@Net@2@@2@@Z 00452980 f i libohNetCore:CpiDevice.obj
 0001:000519b0       ?construct@?$allocator@PAVUpdateBase@CpiDeviceListUpdater@Net@OpenHome@@@std@@QAEXPAPAVUpdateBase@CpiDeviceListUpdater@Net@OpenHome@@ABQAV3456@@Z 004529b0 f i libohNetCore:CpiDevice.obj
 0001:000519e0       ?destroy@?$allocator@U_Node@?$_List_nod@PAVUpdateBase@CpiDeviceListUpdater@Net@OpenHome@@V?$allocator@PAVUpdateBase@CpiDeviceListUpdater@Net@OpenHome@@@std@@@std@@@std@@QAEXPAU_Node@?$_List_nod@PAVUpdateBase@CpiDeviceListUpdater@Net@OpenHome@@V?$allocator@PAVUpdateBase@CpiDeviceListUpdater@Net@OpenHome@@@std@@@2@@Z 004529e0 f i libohNetCore:CpiDevice.obj
 0001:00051a10       ?_Insert@?$_Tree@V?$_Tmap_traits@VBrn@OpenHome@@PAVCpiDevice@Net@2@VBufferCmp@2@V?$allocator@U?$pair@$$CBVBrn@OpenHome@@PAVCpiDevice@Net@2@@std@@@std@@$0A@@std@@@std@@IAE?AV?$_Tree_iterator@V?$_Tree_val@V?$_Tmap_traits@VBrn@OpenHome@@PAVCpiDevice@Net@2@VBufferCmp@2@V?$allocator@U?$pair@$$CBVBrn@OpenHome@@PAVCpiDevice@Net@2@@std@@@std@@$0A@@std@@@std@@@2@_NPAU_Node@?$_Tree_nod@V?$_Tmap_traits@VBrn@OpenHome@@PAVCpiDevice@Net@2@VBufferCmp@2@V?$allocator@U?$pair@$$CBVBrn@OpenHome@@PAVCpiDevice@Net@2@@std@@@std@@$0A@@std@@@2@1@Z 00452a10 f i libohNetCore:CpiDevice.obj
 0001:00051dd0       ??F?$_Tree_iterator@V?$_Tree_val@V?$_Tmap_traits@VBrn@OpenHome@@PAVCpiDevice@Net@2@VBufferCmp@2@V?$allocator@U?$pair@$$CBVBrn@OpenHome@@PAVCpiDevice@Net@2@@std@@@std@@$0A@@std@@@std@@@std@@QAEAAV01@XZ 00452dd0 f i libohNetCore:CpiDevice.obj
 0001:00051e00       ??0?$pair@V?$_Tree_iterator@V?$_Tree_val@V?$_Tmap_traits@VBrn@OpenHome@@PAVCpiDevice@Net@2@VBufferCmp@2@V?$allocator@U?$pair@$$CBVBrn@OpenHome@@PAVCpiDevice@Net@2@@std@@@std@@$0A@@std@@@std@@@std@@_N@std@@QAE@$$QAV?$_Tree_iterator@V?$_Tree_val@V?$_Tmap_traits@VBrn@OpenHome@@PAVCpiDevice@Net@2@VBufferCmp@2@V?$allocator@U?$pair@$$CBVBrn@OpenHome@@PAVCpiDevice@Net@2@@std@@@std@@$0A@@std@@@std@@@1@$$QA_N@Z 00452e00 f i libohNetCore:CpiDevice.obj
 0001:00051e40       ?max_size@?$_Tree@V?$_Tmap_traits@VBrn@OpenHome@@PAVCpiDevice@Net@2@VBufferCmp@2@V?$allocator@U?$pair@$$CBVBrn@OpenHome@@PAVCpiDevice@Net@2@@std@@@std@@$0A@@std@@@std@@QBEIXZ 00452e40 f i libohNetCore:CpiDevice.obj
 0001:00051e70       ??F?$_Tree_const_iterator@V?$_Tree_val@V?$_Tmap_traits@VBrn@OpenHome@@PAVCpiDevice@Net@2@VBufferCmp@2@V?$allocator@U?$pair@$$CBVBrn@OpenHome@@PAVCpiDevice@Net@2@@std@@@std@@$0A@@std@@@std@@@std@@QAEAAV01@XZ 00452e70 f i libohNetCore:CpiDevice.obj
 0001:00051f90       ??0?$_Pair_base@V?$_Tree_iterator@V?$_Tree_val@V?$_Tmap_traits@VBrn@OpenHome@@PAVCpiDevice@Net@2@VBufferCmp@2@V?$allocator@U?$pair@$$CBVBrn@OpenHome@@PAVCpiDevice@Net@2@@std@@@std@@$0A@@std@@@std@@@std@@_N@std@@QAE@$$QAV?$_Tree_iterator@V?$_Tree_val@V?$_Tmap_traits@VBrn@OpenHome@@PAVCpiDevice@Net@2@VBufferCmp@2@V?$allocator@U?$pair@$$CBVBrn@OpenHome@@PAVCpiDevice@Net@2@@std@@@std@@$0A@@std@@@std@@@1@$$QA_N@Z 00452f90 f i libohNetCore:CpiDevice.obj
 0001:00052010       ?max_size@?$allocator@U?$pair@$$CBVBrn@OpenHome@@PAVCpiDevice@Net@2@@std@@@std@@QBEIXZ 00453010 f i libohNetCore:CpiDevice.obj
 0001:00052060       ??F?$_Tree_unchecked_const_iterator@V?$_Tree_val@V?$_Tmap_traits@VBrn@OpenHome@@PAVCpiDevice@Net@2@VBufferCmp@2@V?$allocator@U?$pair@$$CBVBrn@OpenHome@@PAVCpiDevice@Net@2@@std@@@std@@$0A@@std@@@std@@U_Iterator_base12@2@@std@@QAEAAV01@XZ 00453060 f i libohNetCore:CpiDevice.obj
 0001:00052150       ??$forward@AAPAVCpiDevice@Net@OpenHome@@@std@@YGAAPAVCpiDevice@Net@OpenHome@@AAPAV123@@Z 00453150 f i libohNetCore:CpiDevice.obj
 0001:00052160       ??$?0AAVBrn@OpenHome@@AAPAVCpiDevice@Net@1@@?$_Pair_base@VBrn@OpenHome@@PAVCpiDevice@Net@2@@std@@QAE@AAVBrn@OpenHome@@AAPAVCpiDevice@Net@3@@Z 00453160 f i libohNetCore:CpiDevice.obj
 0001:000521e0       ??$forward@U?$pair@VBrn@OpenHome@@PAVCpiDevice@Net@2@@std@@@std@@YG$$QAU?$pair@VBrn@OpenHome@@PAVCpiDevice@Net@2@@0@AAU10@@Z 004531e0 f i libohNetCore:CpiDevice.obj
 0001:000521f0       ??$_Buynode@U?$pair@VBrn@OpenHome@@PAVCpiDevice@Net@2@@std@@@?$_Tree_val@V?$_Tmap_traits@VBrn@OpenHome@@PAVCpiDevice@Net@2@VBufferCmp@2@V?$allocator@U?$pair@$$CBVBrn@OpenHome@@PAVCpiDevice@Net@2@@std@@@std@@$0A@@std@@@std@@QAEPAU_Node@?$_Tree_nod@V?$_Tmap_traits@VBrn@OpenHome@@PAVCpiDevice@Net@2@VBufferCmp@2@V?$allocator@U?$pair@$$CBVBrn@OpenHome@@PAVCpiDevice@Net@2@@std@@@std@@$0A@@std@@@1@$$QAU?$pair@VBrn@OpenHome@@PAVCpiDevice@Net@2@@1@@Z 004531f0 f i libohNetCore:CpiDevice.obj
 0001:000522d0       ??$forward@ABQAVUpdateBase@CpiDeviceListUpdater@Net@OpenHome@@@std@@YGABQAVUpdateBase@CpiDeviceListUpdater@Net@OpenHome@@ABQAV1234@@Z 004532d0 f i libohNetCore:CpiDevice.obj
 0001:000522e0       ??$?0AAV?$_Tree_iterator@V?$_Tree_val@V?$_Tmap_traits@VBrn@OpenHome@@PAVCpiDevice@Net@2@VBufferCmp@2@V?$allocator@U?$pair@$$CBVBrn@OpenHome@@PAVCpiDevice@Net@2@@std@@@std@@$0A@@std@@@std@@@std@@_N@?$pair@V?$_Tree_iterator@V?$_Tree_val@V?$_Tmap_traits@VBrn@OpenHome@@PAVCpiDevice@Net@2@VBufferCmp@2@V?$allocator@U?$pair@$$CBVBrn@OpenHome@@PAVCpiDevice@Net@2@@std@@@std@@$0A@@std@@@std@@@std@@_N@std@@QAE@AAV?$_Tree_iterator@V?$_Tree_val@V?$_Tmap_traits@VBrn@OpenHome@@PAVCpiDevice@Net@2@VBufferCmp@2@V?$allocator@U?$pair@$$CBVBrn@OpenHome@@PAVCpiDevice@Net@2@@std@@@std@@$0A@@std@@@std@@@1@$$QA_N@Z 004532e0 f i libohNetCore:CpiDevice.obj
 0001:00052320       ??$_Destroy@U?$pair@$$CBVBrn@OpenHome@@PAVCpiDevice@Net@2@@std@@@std@@YGXPAU?$pair@$$CBVBrn@OpenHome@@PAVCpiDevice@Net@2@@0@@Z 00453320 f i libohNetCore:CpiDevice.obj
 0001:00052340       ??$_Construct@PAVUpdateBase@CpiDeviceListUpdater@Net@OpenHome@@ABQAV1234@@std@@YGXPAPAVUpdateBase@CpiDeviceListUpdater@Net@OpenHome@@ABQAV1234@@Z 00453340 f i libohNetCore:CpiDevice.obj
 0001:000523f0       ??$_Destroy@U_Node@?$_List_nod@PAVUpdateBase@CpiDeviceListUpdater@Net@OpenHome@@V?$allocator@PAVUpdateBase@CpiDeviceListUpdater@Net@OpenHome@@@std@@@std@@@std@@YGXPAU_Node@?$_List_nod@PAVUpdateBase@CpiDeviceListUpdater@Net@OpenHome@@V?$allocator@PAVUpdateBase@CpiDeviceListUpdater@Net@OpenHome@@@std@@@0@@Z 004533f0 f i libohNetCore:CpiDevice.obj
 0001:00052400       ??$move@AAV?$_Tree_iterator@V?$_Tree_val@V?$_Tmap_traits@VBrn@OpenHome@@PAVCpiDevice@Net@2@VBufferCmp@2@V?$allocator@U?$pair@$$CBVBrn@OpenHome@@PAVCpiDevice@Net@2@@std@@@std@@$0A@@std@@@std@@@std@@@std@@YG$$QAV?$_Tree_iterator@V?$_Tree_val@V?$_Tmap_traits@VBrn@OpenHome@@PAVCpiDevice@Net@2@VBufferCmp@2@V?$allocator@U?$pair@$$CBVBrn@OpenHome@@PAVCpiDevice@Net@2@@std@@@std@@$0A@@std@@@std@@@0@AAV10@@Z 00453400 f i libohNetCore:CpiDevice.obj
