 TestSubscription

 Timestamp is 4e1c1b8e (Tue Jul 12 11:01:50 2011)

 Preferred load address is 00400000

 Start         Length     Name                   Class
 0001:00000000 000b598cH .text                   CODE
 0001:000b5990 0000b7c3H .text$x                 CODE
 0001:000c1160 0000378eH .text$yc                CODE
 0001:000c48f0 00001691H .text$yd                CODE
 0002:00000000 000001e4H .idata$5                DATA
 0002:000001e4 00000004H .CRT$XCA                DATA
 0002:000001e8 00000004H .CRT$XCC                DATA
 0002:000001ec 000002c0H .CRT$XCU                DATA
 0002:000004ac 00000004H .CRT$XCZ                DATA
 0002:000004b0 00000004H .CRT$XIA                DATA
 0002:000004b4 00000010H .CRT$XIC                DATA
 0002:000004c4 00000004H .CRT$XIY                DATA
 0002:000004c8 00000004H .CRT$XIZ                DATA
 0002:000004cc 00000004H .CRT$XPA                DATA
 0002:000004d0 00000008H .CRT$XPX                DATA
 0002:000004d8 00000004H .CRT$XPXA               DATA
 0002:000004dc 00000004H .CRT$XPZ                DATA
 0002:000004e0 00000004H .CRT$XTA                DATA
 0002:000004e4 00000004H .CRT$XTZ                DATA
 0002:000004f0 00019df8H .rdata                  DATA
 0002:0001a2e8 00000057H .rdata$debug            DATA
 0002:0001a340 00003d64H .rdata$r                DATA
 0002:0001e0b0 00000d3cH .rdata$sxdata           DATA
 0002:0001edec 00000004H .rtc$IAA                DATA
 0002:0001edf0 000000b4H .rtc$IMZ                DATA
 0002:0001eea4 00000004H .rtc$IZZ                DATA
 0002:0001eea8 00000004H .rtc$TAA                DATA
 0002:0001eeac 000000b4H .rtc$TMZ                DATA
 0002:0001ef60 00000004H .rtc$TZZ                DATA
 0002:0001ef68 0000d2fcH .xdata$x                DATA
 0002:0002c264 0000003cH .idata$2                DATA
 0002:0002c2a0 00000014H .idata$3                DATA
 0002:0002c2b4 000001e4H .idata$4                DATA
 0002:0002c498 00000776H .idata$6                DATA
 0002:0002cc10 00001d3aH .edata                  DATA
 0003:00000000 00002f40H .data                   DATA
 0003:00002f40 000032acH .bss                    DATA

  Address         Publics by Value              Rva+Base       Lib:Object

 0000:00000000       __except_list              00000000     <absolute>
 0000:0000034f       ___safe_se_handler_count   0000034f     <absolute>
 0000:00000000       ___ImageBase               00400000     <linker-defined>
 0001:00000000       ??0SyncGetProtocolInfoUpnpOrgConnectionManager1@@QAE@AAVCpProxyUpnpOrgConnectionManager1@Net@OpenHome@@AAVBrh@3@1@Z 00401000 f   CpUpnpOrgConnectionManager1.obj
 0001:00000050       ?CompleteRequest@SyncGetProtocolInfoUpnpOrgConnectionManager1@@UAEXAAVIAsync@Net@OpenHome@@@Z 00401050 f   CpUpnpOrgConnectionManager1.obj
 0001:00000090       ??0SyncPrepareForConnectionUpnpOrgConnectionManager1@@QAE@AAVCpProxyUpnpOrgConnectionManager1@Net@OpenHome@@AAH11@Z 00401090 f   CpUpnpOrgConnectionManager1.obj
 0001:000000f0       ?CompleteRequest@SyncPrepareForConnectionUpnpOrgConnectionManager1@@UAEXAAVIAsync@Net@OpenHome@@@Z 004010f0 f   CpUpnpOrgConnectionManager1.obj
 0001:00000140       ??0SyncConnectionCompleteUpnpOrgConnectionManager1@@QAE@AAVCpProxyUpnpOrgConnectionManager1@Net@OpenHome@@@Z 00401140 f   CpUpnpOrgConnectionManager1.obj
 0001:00000180       ?CompleteRequest@SyncConnectionCompleteUpnpOrgConnectionManager1@@UAEXAAVIAsync@Net@OpenHome@@@Z 00401180 f   CpUpnpOrgConnectionManager1.obj
 0001:000001b0       ??0SyncGetCurrentConnectionIDsUpnpOrgConnectionManager1@@QAE@AAVCpProxyUpnpOrgConnectionManager1@Net@OpenHome@@AAVBrh@3@@Z 004011b0 f   CpUpnpOrgConnectionManager1.obj
 0001:00000200       ?CompleteRequest@SyncGetCurrentConnectionIDsUpnpOrgConnectionManager1@@UAEXAAVIAsync@Net@OpenHome@@@Z 00401200 f   CpUpnpOrgConnectionManager1.obj
 0001:00000240       ??0SyncGetCurrentConnectionInfoUpnpOrgConnectionManager1@@QAE@AAVCpProxyUpnpOrgConnectionManager1@Net@OpenHome@@AAH1AAVBrh@3@2122@Z 00401240 f   CpUpnpOrgConnectionManager1.obj
 0001:000002c0       ?CompleteRequest@SyncGetCurrentConnectionInfoUpnpOrgConnectionManager1@@UAEXAAVIAsync@Net@OpenHome@@@Z 004012c0 f   CpUpnpOrgConnectionManager1.obj
 0001:00000320       ??0CpProxyUpnpOrgConnectionManager1@Net@OpenHome@@QAE@AAVCpDevice@12@@Z 00401320 f   CpUpnpOrgConnectionManager1.obj
 0001:000010e0       ??1CpProxyUpnpOrgConnectionManager1@Net@OpenHome@@UAE@XZ 004020e0 f   CpUpnpOrgConnectionManager1.obj
 0001:00001240       ?SyncGetProtocolInfo@CpProxyUpnpOrgConnectionManager1@Net@OpenHome@@QAEXAAVBrh@3@0@Z 00402240 f   CpUpnpOrgConnectionManager1.obj
 0001:00001310       ?BeginGetProtocolInfo@CpProxyUpnpOrgConnectionManager1@Net@OpenHome@@QAEXAAVFunctorAsync@23@@Z 00402310 f   CpUpnpOrgConnectionManager1.obj
 0001:00001490       ?EndGetProtocolInfo@CpProxyUpnpOrgConnectionManager1@Net@OpenHome@@QAEXAAVIAsync@23@AAVBrh@3@1@Z 00402490 f   CpUpnpOrgConnectionManager1.obj
 0001:00001650       ?SyncPrepareForConnection@CpProxyUpnpOrgConnectionManager1@Net@OpenHome@@QAEXABVBrx@3@0H0AAH11@Z 00402650 f   CpUpnpOrgConnectionManager1.obj
 0001:00001730       ?BeginPrepareForConnection@CpProxyUpnpOrgConnectionManager1@Net@OpenHome@@QAEXABVBrx@3@0H0AAVFunctorAsync@23@@Z 00402730 f   CpUpnpOrgConnectionManager1.obj
 0001:00001af0       ?EndPrepareForConnection@CpProxyUpnpOrgConnectionManager1@Net@OpenHome@@QAEXAAVIAsync@23@AAH11@Z 00402af0 f   CpUpnpOrgConnectionManager1.obj
 0001:00001ce0       ?SyncConnectionComplete@CpProxyUpnpOrgConnectionManager1@Net@OpenHome@@QAEXH@Z 00402ce0 f   CpUpnpOrgConnectionManager1.obj
 0001:00001db0       ?BeginConnectionComplete@CpProxyUpnpOrgConnectionManager1@Net@OpenHome@@QAEXHAAVFunctorAsync@23@@Z 00402db0 f   CpUpnpOrgConnectionManager1.obj
 0001:00001ed0       ?EndConnectionComplete@CpProxyUpnpOrgConnectionManager1@Net@OpenHome@@QAEXAAVIAsync@23@@Z 00402ed0 f   CpUpnpOrgConnectionManager1.obj
 0001:00002030       ?SyncGetCurrentConnectionIDs@CpProxyUpnpOrgConnectionManager1@Net@OpenHome@@QAEXAAVBrh@3@@Z 00403030 f   CpUpnpOrgConnectionManager1.obj
 0001:00002100       ?BeginGetCurrentConnectionIDs@CpProxyUpnpOrgConnectionManager1@Net@OpenHome@@QAEXAAVFunctorAsync@23@@Z 00403100 f   CpUpnpOrgConnectionManager1.obj
 0001:00002220       ?EndGetCurrentConnectionIDs@CpProxyUpnpOrgConnectionManager1@Net@OpenHome@@QAEXAAVIAsync@23@AAVBrh@3@@Z 00403220 f   CpUpnpOrgConnectionManager1.obj
 0001:000023b0       ?SyncGetCurrentConnectionInfo@CpProxyUpnpOrgConnectionManager1@Net@OpenHome@@QAEXHAAH0AAVBrh@3@1011@Z 004033b0 f   CpUpnpOrgConnectionManager1.obj
 0001:00002490       ?BeginGetCurrentConnectionInfo@CpProxyUpnpOrgConnectionManager1@Net@OpenHome@@QAEXHAAVFunctorAsync@23@@Z 00403490 f   CpUpnpOrgConnectionManager1.obj
 0001:000028d0       ?EndGetCurrentConnectionInfo@CpProxyUpnpOrgConnectionManager1@Net@OpenHome@@QAEXAAVIAsync@23@AAH1AAVBrh@3@2122@Z 004038d0 f   CpUpnpOrgConnectionManager1.obj
 0001:00002b70       ?SetPropertySourceProtocolInfoChanged@CpProxyUpnpOrgConnectionManager1@Net@OpenHome@@QAEXAAVFunctor@3@@Z 00403b70 f   CpUpnpOrgConnectionManager1.obj
 0001:00002bd0       ?SetPropertySinkProtocolInfoChanged@CpProxyUpnpOrgConnectionManager1@Net@OpenHome@@QAEXAAVFunctor@3@@Z 00403bd0 f   CpUpnpOrgConnectionManager1.obj
 0001:00002c30       ?SetPropertyCurrentConnectionIDsChanged@CpProxyUpnpOrgConnectionManager1@Net@OpenHome@@QAEXAAVFunctor@3@@Z 00403c30 f   CpUpnpOrgConnectionManager1.obj
 0001:00002c90       ?PropertySourceProtocolInfo@CpProxyUpnpOrgConnectionManager1@Net@OpenHome@@QBEXAAVBrhz@3@@Z 00403c90 f   CpUpnpOrgConnectionManager1.obj
 0001:00002cf0       ?PropertySinkProtocolInfo@CpProxyUpnpOrgConnectionManager1@Net@OpenHome@@QBEXAAVBrhz@3@@Z 00403cf0 f   CpUpnpOrgConnectionManager1.obj
 0001:00002d50       ?PropertyCurrentConnectionIDs@CpProxyUpnpOrgConnectionManager1@Net@OpenHome@@QBEXAAVBrhz@3@@Z 00403d50 f   CpUpnpOrgConnectionManager1.obj
 0001:00002db0       ?SourceProtocolInfoPropertyChanged@CpProxyUpnpOrgConnectionManager1@Net@OpenHome@@AAEXXZ 00403db0 f   CpUpnpOrgConnectionManager1.obj
 0001:00002e00       ?SinkProtocolInfoPropertyChanged@CpProxyUpnpOrgConnectionManager1@Net@OpenHome@@AAEXXZ 00403e00 f   CpUpnpOrgConnectionManager1.obj
 0001:00002e50       ?CurrentConnectionIDsPropertyChanged@CpProxyUpnpOrgConnectionManager1@Net@OpenHome@@AAEXXZ 00403e50 f   CpUpnpOrgConnectionManager1.obj
 0001:00002ea0       ??0Functor@OpenHome@@QAE@XZ 00403ea0 f i CpUpnpOrgConnectionManager1.obj
 0001:00002ed0       ??_GCpProxyUpnpOrgConnectionManager1@Net@OpenHome@@UAEPAXI@Z 00403ed0 f i CpUpnpOrgConnectionManager1.obj
 0001:00002ed0       ??_ECpProxyUpnpOrgConnectionManager1@Net@OpenHome@@UAEPAXI@Z 00403ed0 f i CpUpnpOrgConnectionManager1.obj
 0001:00002f10       ??_GAction@Net@OpenHome@@QAEPAXI@Z 00403f10 f i CpUpnpOrgConnectionManager1.obj
 0001:00002f50       ??1SyncGetProtocolInfoUpnpOrgConnectionManager1@@QAE@XZ 00403f50 f i CpUpnpOrgConnectionManager1.obj
 0001:00002f80       ??8Brx@OpenHome@@QBE_NABV01@@Z 00403f80 f i CpUpnpOrgConnectionManager1.obj
 0001:00002fb0       ??1Brn@OpenHome@@UAE@XZ    00403fb0 f i CpUpnpOrgConnectionManager1.obj
 0001:00002fe0       ??1Brx@OpenHome@@UAE@XZ    00403fe0 f i CpUpnpOrgConnectionManager1.obj
 0001:00003000       ??_EBrx@OpenHome@@UAEPAXI@Z 00404000 f i CpUpnpOrgConnectionManager1.obj
 0001:00003000       ??_GBrx@OpenHome@@UAEPAXI@Z 00404000 f i CpUpnpOrgConnectionManager1.obj
 0001:00003040       ??0ProxyError@OpenHome@@QAE@PBDI@Z 00404040 f i CpUpnpOrgConnectionManager1.obj
 0001:00003080       ??1ProxyError@OpenHome@@QAE@XZ 00404080 f i CpUpnpOrgConnectionManager1.obj
 0001:000030b0       ??1SyncPrepareForConnectionUpnpOrgConnectionManager1@@QAE@XZ 004040b0 f i CpUpnpOrgConnectionManager1.obj
 0001:000030e0       ??1SyncConnectionCompleteUpnpOrgConnectionManager1@@QAE@XZ 004040e0 f i CpUpnpOrgConnectionManager1.obj
 0001:00003110       ??1SyncGetCurrentConnectionIDsUpnpOrgConnectionManager1@@QAE@XZ 00404110 f i CpUpnpOrgConnectionManager1.obj
 0001:00003140       ??1SyncGetCurrentConnectionInfoUpnpOrgConnectionManager1@@QAE@XZ 00404140 f i CpUpnpOrgConnectionManager1.obj
 0001:00003170       ?Set@Brhz@OpenHome@@QAEXABVBrx@2@@Z 00404170 f i CpUpnpOrgConnectionManager1.obj
 0001:000031c0       ?Bytes@Brx@OpenHome@@QBEIXZ 004041c0 f i CpUpnpOrgConnectionManager1.obj
 0001:000031e0       ??A?$vector@PAVParameter@Net@OpenHome@@V?$allocator@PAVParameter@Net@OpenHome@@@std@@@std@@QBEABQAVParameter@Net@OpenHome@@I@Z 004041e0 f i CpUpnpOrgConnectionManager1.obj
 0001:00003280       ??A?$vector@PAVArgument@Net@OpenHome@@V?$allocator@PAVArgument@Net@OpenHome@@@std@@@std@@QAEAAPAVArgument@Net@OpenHome@@I@Z 00404280 f i CpUpnpOrgConnectionManager1.obj
 0001:00003320       ?size@?$vector@PAVParameter@Net@OpenHome@@V?$allocator@PAVParameter@Net@OpenHome@@@std@@@std@@QBEIXZ 00404320 f i CpUpnpOrgConnectionManager1.obj
 0001:00003350       ?size@?$vector@PAVArgument@Net@OpenHome@@V?$allocator@PAVArgument@Net@OpenHome@@@std@@@std@@QBEIXZ 00404350 f i CpUpnpOrgConnectionManager1.obj
 0001:00003380       ??$MakeFunctor@VCpProxyUpnpOrgConnectionManager1@Net@OpenHome@@XV123@@OpenHome@@YG?AV?$MemberTranslator@VCpProxyUpnpOrgConnectionManager1@Net@OpenHome@@P8123@AEXXZ@0@AAVCpProxyUpnpOrgConnectionManager1@Net@0@ABQ8230@AEXXZ@Z 00404380 f i CpUpnpOrgConnectionManager1.obj
 0001:000033b0       ??0?$MemberTranslator@VCpProxyUpnpOrgConnectionManager1@Net@OpenHome@@P8123@AEXXZ@OpenHome@@QAE@AAVCpProxyUpnpOrgConnectionManager1@Net@1@ABQ8231@AEXXZ@Z 004043b0 f i CpUpnpOrgConnectionManager1.obj
 0001:000033f0       ??0Functor@OpenHome@@IAE@P6GXABV01@@ZPBX2I@Z 004043f0 f i CpUpnpOrgConnectionManager1.obj
 0001:00003440       ?Thunk@?$MemberTranslator@VCpProxyUpnpOrgConnectionManager1@Net@OpenHome@@P8123@AEXXZ@OpenHome@@SGXABVFunctor@2@@Z 00404440 f i CpUpnpOrgConnectionManager1.obj
 0001:00003490       ??0DeviceList@@QAE@XZ      00404490 f   TestSubscription.obj
 0001:00003520       ??1DeviceList@@QAE@XZ      00404520 f   TestSubscription.obj
 0001:00003600       ?Stop@DeviceList@@QAEXXZ   00404600 f   TestSubscription.obj
 0001:00003620       ?Poll@DeviceList@@QAEXXZ   00404620 f   TestSubscription.obj
 0001:00003870       ?Count@DeviceList@@QBEIXZ  00404870 f   TestSubscription.obj
 0001:000038a0       ?InitialNotificationComplete@DeviceList@@AAEXXZ 004048a0 f   TestSubscription.obj
 0001:000038d0       ?Added@DeviceList@@QAEXAAVCpDevice@Net@OpenHome@@@Z 004048d0 f   TestSubscription.obj
 0001:000039a0       ?Removed@DeviceList@@QAEXAAVCpDevice@Net@OpenHome@@@Z 004049a0 f   TestSubscription.obj
 0001:00003b60       ?Main@Runner@TestFramework@OpenHome@@SGXHQAPADPAVInitialisationParams@Net@3@@Z 00404b60 f   TestSubscription.obj
 0001:00003fe0       ?TimeInMs@Os@OpenHome@@SGIXZ 00404fe0 f i TestSubscription.obj
 0001:00004000       ?TimeInUs@Os@OpenHome@@SG_KXZ 00405000 f i TestSubscription.obj
 0001:00004020       ??1?$_Vector_iterator@V?$_Vector_val@PAVCpDevice@Net@OpenHome@@V?$allocator@PAVCpDevice@Net@OpenHome@@@std@@@std@@@std@@QAE@XZ 00405020 f i TestSubscription.obj
 0001:00004050       ??0?$_Vector_const_iterator@V?$_Vector_val@PAVCpDevice@Net@OpenHome@@V?$allocator@PAVCpDevice@Net@OpenHome@@@std@@@std@@@std@@QAE@ABV01@@Z 00405050 f i TestSubscription.obj
 0001:00004090       ??1?$_Vector_const_iterator@V?$_Vector_val@PAVCpDevice@Net@OpenHome@@V?$allocator@PAVCpDevice@Net@OpenHome@@@std@@@std@@@std@@QAE@XZ 00405090 f i TestSubscription.obj
 0001:000040c0       ??0?$_Iterator012@Urandom_access_iterator_tag@std@@PAVCpDevice@Net@OpenHome@@HPBQAV345@ABQAV345@U_Iterator_base12@2@@std@@QAE@ABU01@@Z 004050c0 f i TestSubscription.obj
 0001:000040f0       ??0_Iterator_base12@std@@QAE@ABU01@@Z 004050f0 f i TestSubscription.obj
 0001:00004130       ??4_Iterator_base12@std@@QAEAAU01@ABU01@@Z 00405130 f i TestSubscription.obj
 0001:00004170       ?_Adopt@_Iterator_base12@std@@QAEXPBU_Container_base12@2@@Z 00405170 f i TestSubscription.obj
 0001:00004260       ?_Orphan_me@_Iterator_base12@std@@QAEXXZ 00405260 f i TestSubscription.obj
 0001:000042f0       ??1?$_Iterator012@Urandom_access_iterator_tag@std@@PAVCpDevice@Net@OpenHome@@HPBQAV345@ABQAV345@U_Iterator_base12@2@@std@@QAE@XZ 004052f0 f i TestSubscription.obj
 0001:00004320       ??1_Iterator_base12@std@@QAE@XZ 00405320 f i TestSubscription.obj
 0001:000043d0       ??_GBlocker@TestFramework@OpenHome@@QAEPAXI@Z 004053d0 f i TestSubscription.obj
 0001:00004410       ??_GCpDeviceListUpnpServiceType@Net@OpenHome@@QAEPAXI@Z 00405410 f i TestSubscription.obj
 0001:00004450       ??_GDeviceList@@QAEPAXI@Z  00405450 f i TestSubscription.obj
 0001:00004490       ??1CpDeviceListUpnpServiceType@Net@OpenHome@@QAE@XZ 00405490 f i TestSubscription.obj
 0001:000044c0       ??0?$vector@PAVCpDevice@Net@OpenHome@@V?$allocator@PAVCpDevice@Net@OpenHome@@@std@@@std@@QAE@XZ 004054c0 f i TestSubscription.obj
 0001:00004500       ?push_back@?$vector@PAVCpDevice@Net@OpenHome@@V?$allocator@PAVCpDevice@Net@OpenHome@@@std@@@std@@QAEX$$QAPAVCpDevice@Net@OpenHome@@@Z 00405500 f i TestSubscription.obj
 0001:00004620       ??1?$vector@PAVCpDevice@Net@OpenHome@@V?$allocator@PAVCpDevice@Net@OpenHome@@@std@@@std@@QAE@XZ 00405620 f i TestSubscription.obj
 0001:00004690       ?begin@?$vector@PAVCpDevice@Net@OpenHome@@V?$allocator@PAVCpDevice@Net@OpenHome@@@std@@@std@@QAE?AV?$_Vector_iterator@V?$_Vector_val@PAVCpDevice@Net@OpenHome@@V?$allocator@PAVCpDevice@Net@OpenHome@@@std@@@std@@@2@XZ 00405690 f i TestSubscription.obj
 0001:000046e0       ?size@?$vector@PAVCpDevice@Net@OpenHome@@V?$allocator@PAVCpDevice@Net@OpenHome@@@std@@@std@@QBEIXZ 004056e0 f i TestSubscription.obj
 0001:00004710       ??A?$vector@PAVCpDevice@Net@OpenHome@@V?$allocator@PAVCpDevice@Net@OpenHome@@@std@@@std@@QAEAAPAVCpDevice@Net@OpenHome@@I@Z 00405710 f i TestSubscription.obj
 0001:000047b0       ?erase@?$vector@PAVCpDevice@Net@OpenHome@@V?$allocator@PAVCpDevice@Net@OpenHome@@@std@@@std@@QAE?AV?$_Vector_iterator@V?$_Vector_val@PAVCpDevice@Net@OpenHome@@V?$allocator@PAVCpDevice@Net@OpenHome@@@std@@@std@@@2@V?$_Vector_const_iterator@V?$_Vector_val@PAVCpDevice@Net@OpenHome@@V?$allocator@PAVCpDevice@Net@OpenHome@@@std@@@std@@@2@@Z 004057b0 f i TestSubscription.obj
 0001:000048e0       ?_Getcont@_Iterator_base12@std@@QBEPBU_Container_base12@2@XZ 004058e0 f i TestSubscription.obj
 0001:00004920       ??H?$_Vector_iterator@V?$_Vector_val@PAVCpDevice@Net@OpenHome@@V?$allocator@PAVCpDevice@Net@OpenHome@@@std@@@std@@@std@@QBE?AV01@H@Z 00405920 f i TestSubscription.obj
 0001:00004a00       ??A?$vector@PAVNetworkAdapter@OpenHome@@V?$allocator@PAVNetworkAdapter@OpenHome@@@std@@@std@@QAEAAPAVNetworkAdapter@OpenHome@@I@Z 00405a00 f i TestSubscription.obj
 0001:00004aa0       ??0?$_Vector_iterator@V?$_Vector_val@PAVCpDevice@Net@OpenHome@@V?$allocator@PAVCpDevice@Net@OpenHome@@@std@@@std@@@std@@QAE@ABV01@@Z 00405aa0 f i TestSubscription.obj
 0001:00004ad0       ?_Make_iter@?$vector@PAVCpDevice@Net@OpenHome@@V?$allocator@PAVCpDevice@Net@OpenHome@@@std@@@std@@QBE?AV?$_Vector_iterator@V?$_Vector_val@PAVCpDevice@Net@OpenHome@@V?$allocator@PAVCpDevice@Net@OpenHome@@@std@@@std@@@2@V?$_Vector_const_iterator@V?$_Vector_val@PAVCpDevice@Net@OpenHome@@V?$allocator@PAVCpDevice@Net@OpenHome@@@std@@@std@@@2@@Z 00405ad0 f i TestSubscription.obj
 0001:00004b60       ?_Destroy@?$vector@PAVCpDevice@Net@OpenHome@@V?$allocator@PAVCpDevice@Net@OpenHome@@@std@@@std@@IAEXPAPAVCpDevice@Net@OpenHome@@0@Z 00405b60 f i TestSubscription.obj
 0001:00004ba0       ?_Inside@?$vector@PAVCpDevice@Net@OpenHome@@V?$allocator@PAVCpDevice@Net@OpenHome@@@std@@@std@@IBE_NPBQAVCpDevice@Net@OpenHome@@@Z 00405ba0 f i TestSubscription.obj
 0001:00004bf0       ?_Reserve@?$vector@PAVCpDevice@Net@OpenHome@@V?$allocator@PAVCpDevice@Net@OpenHome@@@std@@@std@@IAEXI@Z 00405bf0 f i TestSubscription.obj
 0001:00004c70       ?_Tidy@?$vector@PAVCpDevice@Net@OpenHome@@V?$allocator@PAVCpDevice@Net@OpenHome@@@std@@@std@@IAEXXZ 00405c70 f i TestSubscription.obj
 0001:00004d00       ?_Orphan_all@_Container_base12@std@@QAEXXZ 00405d00 f i TestSubscription.obj
 0001:00004db0       ?_Orphan_range@?$vector@PAVCpDevice@Net@OpenHome@@V?$allocator@PAVCpDevice@Net@OpenHome@@@std@@@std@@IBEXPAPAVCpDevice@Net@OpenHome@@0@Z 00405db0 f i TestSubscription.obj
 0001:00004ec0       ?_Getpfirst@_Container_base12@std@@QBEPAPAU_Iterator_base12@2@XZ 00405ec0 f i TestSubscription.obj
 0001:00004f00       ?_Clrcont@_Iterator_base12@std@@QAEXXZ 00405f00 f i TestSubscription.obj
 0001:00004f20       ?_Getpnext@_Iterator_base12@std@@QAEPAPAU12@XZ 00405f20 f i TestSubscription.obj
 0001:00004f40       ??0?$_Vector_val@PAVCpDevice@Net@OpenHome@@V?$allocator@PAVCpDevice@Net@OpenHome@@@std@@@std@@QAE@V?$allocator@PAVCpDevice@Net@OpenHome@@@1@@Z 00405f40 f i TestSubscription.obj
 0001:00005060       ??0_Container_proxy@std@@QAE@XZ 00406060 f i TestSubscription.obj
 0001:00005090       ??0_Container_base12@std@@QAE@XZ 00406090 f i TestSubscription.obj
 0001:000050b0       ??1_Container_base12@std@@QAE@XZ 004060b0 f i TestSubscription.obj
 0001:000050e0       ??1?$_Vector_val@PAVCpDevice@Net@OpenHome@@V?$allocator@PAVCpDevice@Net@OpenHome@@@std@@@std@@QAE@XZ 004060e0 f i TestSubscription.obj
 0001:000051c0       ??0?$allocator@PAVCpDevice@Net@OpenHome@@@std@@QAE@XZ 004061c0 f i TestSubscription.obj
 0001:000051e0       ??0?$_Vector_iterator@V?$_Vector_val@PAVCpDevice@Net@OpenHome@@V?$allocator@PAVCpDevice@Net@OpenHome@@@std@@@std@@@std@@QAE@PAPAVCpDevice@Net@OpenHome@@PBU_Container_base12@1@@Z 004061e0 f i TestSubscription.obj
 0001:00005220       ??Y?$_Vector_iterator@V?$_Vector_val@PAVCpDevice@Net@OpenHome@@V?$allocator@PAVCpDevice@Net@OpenHome@@@std@@@std@@@std@@QAEAAV01@H@Z 00406220 f i TestSubscription.obj
 0001:00005250       ?size@?$vector@PAVNetworkAdapter@OpenHome@@V?$allocator@PAVNetworkAdapter@OpenHome@@@std@@@std@@QBEIXZ 00406250 f i TestSubscription.obj
 0001:00005280       ?reserve@?$vector@PAVCpDevice@Net@OpenHome@@V?$allocator@PAVCpDevice@Net@OpenHome@@@std@@@std@@QAEXI@Z 00406280 f i TestSubscription.obj
 0001:000053f0       ?capacity@?$vector@PAVCpDevice@Net@OpenHome@@V?$allocator@PAVCpDevice@Net@OpenHome@@@std@@@std@@QBEIXZ 004063f0 f i TestSubscription.obj
 0001:00005420       ?max_size@?$vector@PAVCpDevice@Net@OpenHome@@V?$allocator@PAVCpDevice@Net@OpenHome@@@std@@@std@@QBEIXZ 00406420 f i TestSubscription.obj
 0001:00005450       ?_Grow_to@?$vector@PAVCpDevice@Net@OpenHome@@V?$allocator@PAVCpDevice@Net@OpenHome@@@std@@@std@@IBEII@Z 00406450 f i TestSubscription.obj
 0001:000054d0       ?_Xlen@?$vector@PAVCpDevice@Net@OpenHome@@V?$allocator@PAVCpDevice@Net@OpenHome@@@std@@@std@@IBEXXZ 004064d0 f i TestSubscription.obj
 0001:00005500       ??0?$allocator@PAVCpDevice@Net@OpenHome@@@std@@QAE@ABV01@@Z 00406500 f i TestSubscription.obj
 0001:00005520       ?deallocate@?$allocator@PAVCpDevice@Net@OpenHome@@@std@@QAEXPAPAVCpDevice@Net@OpenHome@@I@Z 00406520 f i TestSubscription.obj
 0001:00005550       ??0?$_Vector_const_iterator@V?$_Vector_val@PAVCpDevice@Net@OpenHome@@V?$allocator@PAVCpDevice@Net@OpenHome@@@std@@@std@@@std@@QAE@PAPAVCpDevice@Net@OpenHome@@PBU_Container_base12@1@@Z 00406550 f i TestSubscription.obj
 0001:000055d0       ??Y?$_Vector_const_iterator@V?$_Vector_val@PAVCpDevice@Net@OpenHome@@V?$allocator@PAVCpDevice@Net@OpenHome@@@std@@@std@@@std@@QAEAAV01@H@Z 004065d0 f i TestSubscription.obj
 0001:000056b0       ?deallocate@?$allocator@U_Container_proxy@std@@@std@@QAEXPAU_Container_proxy@2@I@Z 004066b0 f i TestSubscription.obj
 0001:000056e0       ?allocate@?$allocator@U_Container_proxy@std@@@std@@QAEPAU_Container_proxy@2@I@Z 004066e0 f i TestSubscription.obj
 0001:00005710       ??0?$_Iterator012@Urandom_access_iterator_tag@std@@PAVCpDevice@Net@OpenHome@@HPBQAV345@ABQAV345@U_Iterator_base12@2@@std@@QAE@XZ 00406710 f i TestSubscription.obj
 0001:00005740       ??0_Iterator_base12@std@@QAE@XZ 00406740 f i TestSubscription.obj
 0001:00005770       ?allocate@?$allocator@PAVCpDevice@Net@OpenHome@@@std@@QAEPAPAVCpDevice@Net@OpenHome@@I@Z 00406770 f i TestSubscription.obj
 0001:000057a0       ?max_size@?$allocator@PAVCpDevice@Net@OpenHome@@@std@@QBEIXZ 004067a0 f i TestSubscription.obj
 0001:000057f0       ??$MakeFunctor@VDeviceList@@XV1@@OpenHome@@YG?AV?$MemberTranslator@VDeviceList@@P81@AEXXZ@0@AAVDeviceList@@ABQ82@AEXXZ@Z 004067f0 f i TestSubscription.obj
 0001:00005820       ??$MakeFunctorCpDevice@VDeviceList@@V1@@Net@OpenHome@@YG?AV?$MemberTranslatorCpDevice@VDeviceList@@P81@AEXAAVCpDevice@Net@OpenHome@@@Z@01@AAVDeviceList@@ABQ83@AEXAAVCpDevice@01@@Z@Z 00406820 f i TestSubscription.obj
 0001:00005850       ??$addressof@PAVCpDevice@Net@OpenHome@@@std@@YGPAPAVCpDevice@Net@OpenHome@@AAPAV123@@Z 00406850 f i TestSubscription.obj
 0001:00005860       ??$forward@PAVCpDevice@Net@OpenHome@@@std@@YG$$QAPAVCpDevice@Net@OpenHome@@AAPAV123@@Z 00406860 f i TestSubscription.obj
 0001:00005870       ??$_Cons_val@V?$allocator@PAVCpDevice@Net@OpenHome@@@std@@PAVCpDevice@Net@OpenHome@@PAV345@@std@@YGXAAV?$allocator@PAVCpDevice@Net@OpenHome@@@0@PAPAVCpDevice@Net@OpenHome@@$$QAPAV234@@Z 00406870 f i TestSubscription.obj
 0001:000058a0       ??$_Move@PAPAVCpDevice@Net@OpenHome@@PAPAV123@@std@@YGPAPAVCpDevice@Net@OpenHome@@PAPAV123@00@Z 004068a0 f i TestSubscription.obj
 0001:000058f0       ??$_Destroy_range@V?$allocator@PAVCpDevice@Net@OpenHome@@@std@@@std@@YGXPAPAVCpDevice@Net@OpenHome@@0AAV?$allocator@PAVCpDevice@Net@OpenHome@@@0@@Z 004068f0 f i TestSubscription.obj
 0001:00005940       ??$?0PAVCpDevice@Net@OpenHome@@@?$allocator@U_Container_proxy@std@@@std@@QAE@ABV?$allocator@PAVCpDevice@Net@OpenHome@@@1@@Z 00406940 f i TestSubscription.obj
 0001:00005960       ??$_Cons_val@V?$allocator@U_Container_proxy@std@@@std@@U_Container_proxy@2@U32@@std@@YGXAAV?$allocator@U_Container_proxy@std@@@0@PAU_Container_proxy@0@$$QAU20@@Z 00406960 f i TestSubscription.obj
 0001:00005990       ??$_Dest_val@V?$allocator@U_Container_proxy@std@@@std@@U_Container_proxy@2@@std@@YGXAAV?$allocator@U_Container_proxy@std@@@0@PAU_Container_proxy@0@@Z 00406990 f i TestSubscription.obj
 0001:000059b0       ??$_Umove@PAPAVCpDevice@Net@OpenHome@@@?$vector@PAVCpDevice@Net@OpenHome@@V?$allocator@PAVCpDevice@Net@OpenHome@@@std@@@std@@IAEPAPAVCpDevice@Net@OpenHome@@PAPAV234@00@Z 004069b0 f i TestSubscription.obj
 0001:000059f0       ??$_Allocate@U_Container_proxy@std@@@std@@YGPAU_Container_proxy@0@IPAU10@@Z 004069f0 f i TestSubscription.obj
 0001:00005a70       ??0bad_alloc@std@@QAE@PBD@Z 00406a70 f i TestSubscription.obj
 0001:00005ab0       ??1bad_alloc@std@@UAE@XZ   00406ab0 f i TestSubscription.obj
 0001:00005ae0       ??_Ebad_alloc@std@@UAEPAXI@Z 00406ae0 f i TestSubscription.obj
 0001:00005ae0       ??_Gbad_alloc@std@@UAEPAXI@Z 00406ae0 f i TestSubscription.obj
 0001:00005b20       ??$_Allocate@PAVCpDevice@Net@OpenHome@@@std@@YGPAPAVCpDevice@Net@OpenHome@@IPAPAV123@@Z 00406b20 f i TestSubscription.obj
 0001:00005ba0       ??0bad_alloc@std@@QAE@ABV01@@Z 00406ba0 f i TestSubscription.obj
 0001:00005be0       ?construct@?$allocator@PAVCpDevice@Net@OpenHome@@@std@@QAEXPAPAVCpDevice@Net@OpenHome@@$$QAPAV345@@Z 00406be0 f i TestSubscription.obj
 0001:00005c80       ??2@YAPAXIPAX@Z            00406c80 f i TestSubscription.obj
 0001:00005c90       ??3@YAXPAX0@Z              00406c90 f i TestSubscription.obj
 0001:00005ca0       ??0?$MemberTranslator@VDeviceList@@P81@AEXXZ@OpenHome@@QAE@AAVDeviceList@@ABQ82@AEXXZ@Z 00406ca0 f i TestSubscription.obj
 0001:00005ce0       ??0?$MemberTranslatorCpDevice@VDeviceList@@P81@AEXAAVCpDevice@Net@OpenHome@@@Z@Net@OpenHome@@QAE@AAVDeviceList@@ABQ83@AEXAAVCpDevice@12@@Z@Z 00406ce0 f i TestSubscription.obj
 0001:00005d20       ??0FunctorCpDevice@Net@OpenHome@@IAE@P6GXABV012@AAVCpDevice@12@@ZPBX3I@Z 00406d20 f i TestSubscription.obj
 0001:00005d70       ?construct@?$allocator@U_Container_proxy@std@@@std@@QAEXPAU_Container_proxy@2@$$QAU32@@Z 00406d70 f i TestSubscription.obj
 0001:00005e20       ?destroy@?$allocator@U_Container_proxy@std@@@std@@QAEXPAU_Container_proxy@2@@Z 00406e20 f i TestSubscription.obj
 0001:00005e50       ?Thunk@?$MemberTranslator@VDeviceList@@P81@AEXXZ@OpenHome@@SGXABVFunctor@2@@Z 00406e50 f i TestSubscription.obj
 0001:00005ea0       ?Thunk@?$MemberTranslatorCpDevice@VDeviceList@@P81@AEXAAVCpDevice@Net@OpenHome@@@Z@Net@OpenHome@@SGXABVFunctorCpDevice@23@AAVCpDevice@23@@Z 00406ea0 f i TestSubscription.obj
 0001:00005ef0       ??$_Ptr_cat@PAVCpDevice@Net@OpenHome@@PAV123@@std@@YG?AU_Scalar_ptr_iterator_tag@0@PAPAVCpDevice@Net@OpenHome@@0@Z 00406ef0 f i TestSubscription.obj
 0001:00005f50       ??$_Move@PAPAVCpDevice@Net@OpenHome@@PAPAV123@@std@@YGPAPAVCpDevice@Net@OpenHome@@PAPAV123@00U_Scalar_ptr_iterator_tag@0@@Z 00406f50 f i TestSubscription.obj
 0001:00005fa0       ??$_Destroy_range@V?$allocator@PAVCpDevice@Net@OpenHome@@@std@@@std@@YGXPAPAVCpDevice@Net@OpenHome@@0AAV?$allocator@PAVCpDevice@Net@OpenHome@@@0@U_Scalar_ptr_iterator_tag@0@@Z 00406fa0 f i TestSubscription.obj
 0001:00005fb0       ??$forward@U_Container_proxy@std@@@std@@YG$$QAU_Container_proxy@0@AAU10@@Z 00406fb0 f i TestSubscription.obj
 0001:00005fc0       ??$_Uninitialized_move@PAPAVCpDevice@Net@OpenHome@@PAPAV123@V?$allocator@PAVCpDevice@Net@OpenHome@@@std@@@std@@YGPAPAVCpDevice@Net@OpenHome@@PAPAV123@00AAV?$allocator@PAVCpDevice@Net@OpenHome@@@0@@Z 00406fc0 f i TestSubscription.obj
 0001:00006010       ??$_Destroy@U_Container_proxy@std@@@std@@YGXPAU_Container_proxy@0@@Z 00407010 f i TestSubscription.obj
 0001:00006020       ??$_Val_type@PAPAVCpDevice@Net@OpenHome@@@std@@YGPAPAVCpDevice@Net@OpenHome@@PAPAV123@@Z 00407020 f i TestSubscription.obj
 0001:00006030       ??$_Uninit_move@PAVCpDevice@Net@OpenHome@@PAV123@PAV123@@std@@YGPAPAVCpDevice@Net@OpenHome@@PAPAV123@00AAV?$allocator@PAVCpDevice@Net@OpenHome@@@0@0U_Scalar_ptr_iterator_tag@0@@Z 00407030 f i TestSubscription.obj
 0001:000060a0       ??$_Debug_range@PAPAVCpDevice@Net@OpenHome@@@std@@YGXPAPAVCpDevice@Net@OpenHome@@0PB_WI@Z 004070a0 f i TestSubscription.obj
 0001:000060f0       ??$_Debug_pointer@PAVCpDevice@Net@OpenHome@@@std@@YGXPAPAVCpDevice@Net@OpenHome@@PB_WI@Z 004070f0 f i TestSubscription.obj
 0001:00006120       ??$_Iter_cat@PAPAVCpDevice@Net@OpenHome@@@std@@YG?AUrandom_access_iterator_tag@0@ABQAPAVCpDevice@Net@OpenHome@@@Z 00407120 f i TestSubscription.obj
 0001:00006180       ??$_Debug_range2@PAPAVCpDevice@Net@OpenHome@@@std@@YGXPAPAVCpDevice@Net@OpenHome@@0PB_WIUrandom_access_iterator_tag@0@@Z 00407180 f i TestSubscription.obj
 0001:000061e0       ?Log@TestConsole@@QAEXPBD@Z 004071e0 f   libTestFramework:TestFramework.obj
 0001:00006210       ?AssertHandlerTest@TestFramework@OpenHome@@YGXPBDI@Z 00407210 f   libTestFramework:TestFramework.obj
 0001:000062c0       ??0Suite@TestFramework@OpenHome@@IAE@PBD@Z 004072c0 f   libTestFramework:TestFramework.obj
 0001:00006300       ??1Suite@TestFramework@OpenHome@@MAE@XZ 00407300 f   libTestFramework:TestFramework.obj
 0001:00006320       ?Description@Suite@TestFramework@OpenHome@@QBEPBDXZ 00407320 f   libTestFramework:TestFramework.obj
 0001:00006340       ??0Runner@TestFramework@OpenHome@@QAE@PBD@Z 00407340 f   libTestFramework:TestFramework.obj
 0001:00006380       ??1Runner@TestFramework@OpenHome@@QAE@XZ 00407380 f   libTestFramework:TestFramework.obj
 0001:000063a0       ?Add@Runner@TestFramework@OpenHome@@QAEXPAVSuite@23@@Z 004073a0 f   libTestFramework:TestFramework.obj
 0001:00006420       ?Run@Runner@TestFramework@OpenHome@@QAEXXZ 00407420 f   libTestFramework:TestFramework.obj
 0001:000066d0       ?Fail@TestFramework@OpenHome@@YGXPBDI00@Z 004076d0 f   libTestFramework:TestFramework.obj
 0001:00006730       ?Succeed@TestFramework@OpenHome@@YGXPBDI@Z 00407730 f   libTestFramework:TestFramework.obj
 0001:00006760       ?SucceedQuietly@TestFramework@OpenHome@@YGXPBDI@Z 00407760 f   libTestFramework:TestFramework.obj
 0001:00006790       ?TimeStart@TestFramework@OpenHome@@YGIXZ 00407790 f   libTestFramework:TestFramework.obj
 0001:000067b0       ?TimeStop@TestFramework@OpenHome@@YGII@Z 004077b0 f   libTestFramework:TestFramework.obj
 0001:000067e0       ?Print@TestFramework@OpenHome@@YAHPBDZZ 004077e0 f   libTestFramework:TestFramework.obj
 0001:000068a0       ?Print@TestFramework@OpenHome@@YGHPBDPAD@Z 004078a0 f   libTestFramework:TestFramework.obj
 0001:00006950       ?Print@TestFramework@OpenHome@@YGHABVBrx@2@@Z 00407950 f   libTestFramework:TestFramework.obj
 0001:00006a00       ?PrintHex@TestFramework@OpenHome@@YGHABVBrx@2@@Z 00407a00 f   libTestFramework:TestFramework.obj
 0001:00006ab0       ??0Blocker@TestFramework@OpenHome@@QAE@XZ 00407ab0 f   libTestFramework:TestFramework.obj
 0001:00006bb0       ??1Blocker@TestFramework@OpenHome@@QAE@XZ 00407bb0 f   libTestFramework:TestFramework.obj
 0001:00006c50       ?Wait@Blocker@TestFramework@OpenHome@@QAEXI@Z 00407c50 f   libTestFramework:TestFramework.obj
 0001:00006c90       ?TimerExpired@Blocker@TestFramework@OpenHome@@AAEXXZ 00407c90 f   libTestFramework:TestFramework.obj
 0001:00006cc0       ?ConsoleWrite@Os@OpenHome@@SGXPBD@Z 00407cc0 f i libTestFramework:TestFramework.obj
 0001:00006ce0       ??0AssertionFailed@OpenHome@@QAE@PBDI@Z 00407ce0 f i libTestFramework:TestFramework.obj
 0001:00006d20       ??1AssertionFailed@OpenHome@@QAE@XZ 00407d20 f i libTestFramework:TestFramework.obj
 0001:00006d50       ??_GSuite@TestFramework@OpenHome@@MAEPAXI@Z 00407d50 f i libTestFramework:TestFramework.obj
 0001:00006d50       ??_ESuite@TestFramework@OpenHome@@MAEPAXI@Z 00407d50 f i libTestFramework:TestFramework.obj
 0001:00006d90       ??_GTimer@OpenHome@@QAEPAXI@Z 00407d90 f i libTestFramework:TestFramework.obj
 0001:00006dd0       ??$MakeFunctorMsg@VTestConsole@@V1@@OpenHome@@YG?AV?$MemberTranslatorMsg@VTestConsole@@P81@AEXPBD@Z@0@AAVTestConsole@@ABQ82@AEXPBD@Z@Z 00407dd0 f i libTestFramework:TestFramework.obj
 0001:00006e00       ??$MakeFunctor@VBlocker@TestFramework@OpenHome@@XV123@@OpenHome@@YG?AV?$MemberTranslator@VBlocker@TestFramework@OpenHome@@P8123@AEXXZ@0@AAVBlocker@TestFramework@0@ABQ8230@AEXXZ@Z 00407e00 f i libTestFramework:TestFramework.obj
 0001:00006e30       ??0?$MemberTranslatorMsg@VTestConsole@@P81@AEXPBD@Z@OpenHome@@QAE@AAVTestConsole@@ABQ82@AEXPBD@Z@Z 00407e30 f i libTestFramework:TestFramework.obj
 0001:00006e70       ??0FunctorMsg@OpenHome@@IAE@P6GXABV01@PBD@ZPBX3I@Z 00407e70 f i libTestFramework:TestFramework.obj
 0001:00006ec0       ??0?$MemberTranslator@VBlocker@TestFramework@OpenHome@@P8123@AEXXZ@OpenHome@@QAE@AAVBlocker@TestFramework@1@ABQ8231@AEXXZ@Z 00407ec0 f i libTestFramework:TestFramework.obj
 0001:00006f00       ?Thunk@?$MemberTranslatorMsg@VTestConsole@@P81@AEXPBD@Z@OpenHome@@SGXABVFunctorMsg@2@PBD@Z 00407f00 f i libTestFramework:TestFramework.obj
 0001:00006f50       ?Thunk@?$MemberTranslator@VBlocker@TestFramework@OpenHome@@P8123@AEXXZ@OpenHome@@SGXABVFunctor@2@@Z 00407f50 f i libTestFramework:TestFramework.obj
 0001:00006fa0       ?Functor@SyncProxyAction@Net@OpenHome@@QAEAAVFunctorAsync@23@XZ 00407fa0 f   libohNetCore:AsyncPrivate.obj
 0001:00006fc0       ?Wait@SyncProxyAction@Net@OpenHome@@QAEXXZ 00407fc0 f   libohNetCore:AsyncPrivate.obj
 0001:00007090       ??0SyncProxyAction@Net@OpenHome@@IAE@XZ 00408090 f   libohNetCore:AsyncPrivate.obj
 0001:00007160       ??1SyncProxyAction@Net@OpenHome@@IAE@XZ 00408160 f   libohNetCore:AsyncPrivate.obj
 0001:00007190       ?Completed@SyncProxyAction@Net@OpenHome@@AAEXAAVIAsync@23@@Z 00408190 f   libohNetCore:AsyncPrivate.obj
 0001:000072a0       ??0FunctorAsync@Net@OpenHome@@QAE@XZ 004082a0 f i libohNetCore:AsyncPrivate.obj
 0001:000072d0       ??$MakeFunctorAsync@VSyncProxyAction@Net@OpenHome@@V123@@Net@OpenHome@@YG?AV?$MemberTranslatorAsync@VSyncProxyAction@Net@OpenHome@@P8123@AEXAAVIAsync@23@@Z@01@AAVSyncProxyAction@01@ABQ8301@AEXAAVIAsync@01@@Z@Z 004082d0 f i libohNetCore:AsyncPrivate.obj
 0001:00007300       ??0?$MemberTranslatorAsync@VSyncProxyAction@Net@OpenHome@@P8123@AEXAAVIAsync@23@@Z@Net@OpenHome@@QAE@AAVSyncProxyAction@12@ABQ8312@AEXAAVIAsync@12@@Z@Z 00408300 f i libohNetCore:AsyncPrivate.obj
 0001:00007340       ??0FunctorAsync@Net@OpenHome@@IAE@P6GXABV012@AAVIAsync@12@@ZPBX3I@Z 00408340 f i libohNetCore:AsyncPrivate.obj
 0001:00007390       ?Thunk@?$MemberTranslatorAsync@VSyncProxyAction@Net@OpenHome@@P8123@AEXAAVIAsync@23@@Z@Net@OpenHome@@SGXABVFunctorAsync@23@AAVIAsync@23@@Z 00408390 f i libohNetCore:AsyncPrivate.obj
 0001:000073e0       ?Subscribe@CpProxy@Net@OpenHome@@QAEXXZ 004083e0 f   libohNetCore:CpProxy.obj
 0001:000074c0       ?Unsubscribe@CpProxy@Net@OpenHome@@QAEXXZ 004084c0 f   libohNetCore:CpProxy.obj
 0001:00007530       ??0CpProxy@Net@OpenHome@@IAE@PBD0IAAVCpiDevice@12@@Z 00408530 f   libohNetCore:CpProxy.obj
 0001:00007710       ??1CpProxy@Net@OpenHome@@MAE@XZ 00408710 f   libohNetCore:CpProxy.obj
 0001:000079a0       ?AddProperty@CpProxy@Net@OpenHome@@IAEXPAVProperty@23@@Z 004089a0 f   libohNetCore:CpProxy.obj
 0001:00007ab0       ?DestroyService@CpProxy@Net@OpenHome@@IAEXXZ 00408ab0 f   libohNetCore:CpProxy.obj
 0001:00007b10       ?SetPropertyChanged@CpProxy@Net@OpenHome@@QAEXAAVFunctor@3@@Z 00408b10 f   libohNetCore:CpProxy.obj
 0001:00007b70       ?SetPropertyInitialEvent@CpProxy@Net@OpenHome@@QAEXAAVFunctor@3@@Z 00408b70 f   libohNetCore:CpProxy.obj
 0001:00007bf0       ?PropertyReadLock@CpProxy@Net@OpenHome@@IBEXXZ 00408bf0 f   libohNetCore:CpProxy.obj
 0001:00007c20       ?PropertyReadUnlock@CpProxy@Net@OpenHome@@IBEXXZ 00408c20 f   libohNetCore:CpProxy.obj
 0001:00007c50       ?ReportEvent@CpProxy@Net@OpenHome@@IAEXVFunctor@3@@Z 00408c50 f   libohNetCore:CpProxy.obj
 0001:00007cc0       ?EventUpdateStart@CpProxy@Net@OpenHome@@EAEXXZ 00408cc0 f   libohNetCore:CpProxy.obj
 0001:00007cf0       ?EventUpdate@CpProxy@Net@OpenHome@@EAEXABVBrx@3@0AAVIOutputProcessor@23@@Z 00408cf0 f   libohNetCore:CpProxy.obj
 0001:00007e40       ?EventUpdateEnd@CpProxy@Net@OpenHome@@EAEXXZ 00408e40 f   libohNetCore:CpProxy.obj
 0001:00008050       ??_ECpProxy@Net@OpenHome@@MAEPAXI@Z 00409050 f i libohNetCore:CpProxy.obj
 0001:000080d0       ??0IEventProcessor@Net@OpenHome@@QAE@XZ 004090d0 f i libohNetCore:CpProxy.obj
 0001:000080f0       ??1?$map@VBrn@OpenHome@@PAVProperty@Net@2@VBufferCmp@2@V?$allocator@U?$pair@$$CBVBrn@OpenHome@@PAVProperty@Net@2@@std@@@std@@@std@@QAE@XZ 004090f0 f i libohNetCore:CpProxy.obj
 0001:00008120       ??_GCpiService@Net@OpenHome@@QAEPAXI@Z 00409120 f i libohNetCore:CpProxy.obj
 0001:00008160       ??1?$_Tree_iterator@V?$_Tree_val@V?$_Tmap_traits@VBrn@OpenHome@@PAVProperty@Net@2@VBufferCmp@2@V?$allocator@U?$pair@$$CBVBrn@OpenHome@@PAVProperty@Net@2@@std@@@std@@$0A@@std@@@std@@@std@@QAE@XZ 00409160 f i libohNetCore:CpProxy.obj
 0001:00008190       ??1?$_Tree_const_iterator@V?$_Tree_val@V?$_Tmap_traits@VBrn@OpenHome@@PAVProperty@Net@2@VBufferCmp@2@V?$allocator@U?$pair@$$CBVBrn@OpenHome@@PAVProperty@Net@2@@std@@@std@@$0A@@std@@@std@@@std@@QAE@XZ 00409190 f i libohNetCore:CpProxy.obj
 0001:000081c0       ??1?$_Tree_unchecked_const_iterator@V?$_Tree_val@V?$_Tmap_traits@VBrn@OpenHome@@PAVProperty@Net@2@VBufferCmp@2@V?$allocator@U?$pair@$$CBVBrn@OpenHome@@PAVProperty@Net@2@@std@@@std@@$0A@@std@@@std@@U_Iterator_base12@2@@std@@QAE@XZ 004091c0 f i libohNetCore:CpProxy.obj
 0001:000081f0       ??1?$_Iterator012@Ubidirectional_iterator_tag@std@@U?$pair@$$CBVBrn@OpenHome@@PAVProperty@Net@2@@2@HPBU32@ABU32@U_Iterator_base12@2@@std@@QAE@XZ 004091f0 f i libohNetCore:CpProxy.obj
 0001:00008220       ??0Brn@OpenHome@@QAE@ABVBrx@1@@Z 00409220 f i libohNetCore:CpProxy.obj
 0001:000082b0       ??0Brx@OpenHome@@IAE@ABV01@@Z 004092b0 f i libohNetCore:CpProxy.obj
 0001:000082f0       ??_EBrn@OpenHome@@UAEPAXI@Z 004092f0 f i libohNetCore:CpProxy.obj
 0001:000082f0       ??_GBrn@OpenHome@@UAEPAXI@Z 004092f0 f i libohNetCore:CpProxy.obj
 0001:00008330       ??1?$pair@VBrn@OpenHome@@PAVProperty@Net@2@@std@@QAE@XZ 00409330 f i libohNetCore:CpProxy.obj
 0001:00008360       ??1?$pair@V?$_Tree_iterator@V?$_Tree_val@V?$_Tmap_traits@VBrn@OpenHome@@PAVProperty@Net@2@VBufferCmp@2@V?$allocator@U?$pair@$$CBVBrn@OpenHome@@PAVProperty@Net@2@@std@@@std@@$0A@@std@@@std@@@std@@_N@std@@QAE@XZ 00409360 f i libohNetCore:CpProxy.obj
 0001:00008390       ??1?$_Pair_base@VBrn@OpenHome@@PAVProperty@Net@2@@std@@QAE@XZ 00409390 f i libohNetCore:CpProxy.obj
 0001:000083c0       ??1?$_Pair_base@V?$_Tree_iterator@V?$_Tree_val@V?$_Tmap_traits@VBrn@OpenHome@@PAVProperty@Net@2@VBufferCmp@2@V?$allocator@U?$pair@$$CBVBrn@OpenHome@@PAVProperty@Net@2@@std@@@std@@$0A@@std@@@std@@@std@@_N@std@@QAE@XZ 004093c0 f i libohNetCore:CpProxy.obj
 0001:000083f0       ??RFunctor@OpenHome@@QBEXXZ 004093f0 f i libohNetCore:CpProxy.obj
 0001:00008430       ??BFunctor@OpenHome@@QBE_NXZ 00409430 f i libohNetCore:CpProxy.obj
 0001:00008470       ??0?$map@VBrn@OpenHome@@PAVProperty@Net@2@VBufferCmp@2@V?$allocator@U?$pair@$$CBVBrn@OpenHome@@PAVProperty@Net@2@@std@@@std@@@std@@QAE@XZ 00409470 f i libohNetCore:CpProxy.obj
 0001:000084c0       ??1?$_Tree@V?$_Tmap_traits@VBrn@OpenHome@@PAVProperty@Net@2@VBufferCmp@2@V?$allocator@U?$pair@$$CBVBrn@OpenHome@@PAVProperty@Net@2@@std@@@std@@$0A@@std@@@std@@QAE@XZ 004094c0 f i libohNetCore:CpProxy.obj
 0001:00008530       ?begin@?$_Tree@V?$_Tmap_traits@VBrn@OpenHome@@PAVProperty@Net@2@VBufferCmp@2@V?$allocator@U?$pair@$$CBVBrn@OpenHome@@PAVProperty@Net@2@@std@@@std@@$0A@@std@@@std@@QAE?AV?$_Tree_iterator@V?$_Tree_val@V?$_Tmap_traits@VBrn@OpenHome@@PAVProperty@Net@2@VBufferCmp@2@V?$allocator@U?$pair@$$CBVBrn@OpenHome@@PAVProperty@Net@2@@std@@@std@@$0A@@std@@@std@@@2@XZ 00409530 f i libohNetCore:CpProxy.obj
 0001:00008590       ?end@?$_Tree@V?$_Tmap_traits@VBrn@OpenHome@@PAVProperty@Net@2@VBufferCmp@2@V?$allocator@U?$pair@$$CBVBrn@OpenHome@@PAVProperty@Net@2@@std@@@std@@$0A@@std@@@std@@QAE?AV?$_Tree_iterator@V?$_Tree_val@V?$_Tmap_traits@VBrn@OpenHome@@PAVProperty@Net@2@VBufferCmp@2@V?$allocator@U?$pair@$$CBVBrn@OpenHome@@PAVProperty@Net@2@@std@@@std@@$0A@@std@@@std@@@2@XZ 00409590 f i libohNetCore:CpProxy.obj
 0001:000085e0       ?find@?$_Tree@V?$_Tmap_traits@VBrn@OpenHome@@PAVProperty@Net@2@VBufferCmp@2@V?$allocator@U?$pair@$$CBVBrn@OpenHome@@PAVProperty@Net@2@@std@@@std@@$0A@@std@@@std@@QAE?AV?$_Tree_iterator@V?$_Tree_val@V?$_Tmap_traits@VBrn@OpenHome@@PAVProperty@Net@2@VBufferCmp@2@V?$allocator@U?$pair@$$CBVBrn@OpenHome@@PAVProperty@Net@2@@std@@@std@@$0A@@std@@@std@@@2@ABVBrn@OpenHome@@@Z 004095e0 f i libohNetCore:CpProxy.obj
 0001:000087c0       ??C?$_Tree_iterator@V?$_Tree_val@V?$_Tmap_traits@VBrn@OpenHome@@PAVProperty@Net@2@VBufferCmp@2@V?$allocator@U?$pair@$$CBVBrn@OpenHome@@PAVProperty@Net@2@@std@@@std@@$0A@@std@@@std@@@std@@QBEPAU?$pair@$$CBVBrn@OpenHome@@PAVProperty@Net@2@@1@XZ 004097c0 f i libohNetCore:CpProxy.obj
 0001:000087f0       ??E?$_Tree_iterator@V?$_Tree_val@V?$_Tmap_traits@VBrn@OpenHome@@PAVProperty@Net@2@VBufferCmp@2@V?$allocator@U?$pair@$$CBVBrn@OpenHome@@PAVProperty@Net@2@@std@@@std@@$0A@@std@@@std@@@std@@QAE?AV01@H@Z 004097f0 f i libohNetCore:CpProxy.obj
 0001:000088c0       ??9?$_Tree_const_iterator@V?$_Tree_val@V?$_Tmap_traits@VBrn@OpenHome@@PAVProperty@Net@2@VBufferCmp@2@V?$allocator@U?$pair@$$CBVBrn@OpenHome@@PAVProperty@Net@2@@std@@@std@@$0A@@std@@@std@@@std@@QBE_NABV01@@Z 004098c0 f i libohNetCore:CpProxy.obj
 0001:00008900       ??0?$_Tree_iterator@V?$_Tree_val@V?$_Tmap_traits@VBrn@OpenHome@@PAVProperty@Net@2@VBufferCmp@2@V?$allocator@U?$pair@$$CBVBrn@OpenHome@@PAVProperty@Net@2@@std@@@std@@$0A@@std@@@std@@@std@@QAE@ABV01@@Z 00409900 f i libohNetCore:CpProxy.obj
 0001:00008930       ??0?$_Tree_const_iterator@V?$_Tree_val@V?$_Tmap_traits@VBrn@OpenHome@@PAVProperty@Net@2@VBufferCmp@2@V?$allocator@U?$pair@$$CBVBrn@OpenHome@@PAVProperty@Net@2@@std@@@std@@$0A@@std@@@std@@@std@@QAE@ABV01@@Z 00409930 f i libohNetCore:CpProxy.obj
 0001:00008960       ??0?$_Tree_unchecked_const_iterator@V?$_Tree_val@V?$_Tmap_traits@VBrn@OpenHome@@PAVProperty@Net@2@VBufferCmp@2@V?$allocator@U?$pair@$$CBVBrn@OpenHome@@PAVProperty@Net@2@@std@@@std@@$0A@@std@@@std@@U_Iterator_base12@2@@std@@QAE@ABV01@@Z 00409960 f i libohNetCore:CpProxy.obj
 0001:000089a0       ??0?$_Iterator012@Ubidirectional_iterator_tag@std@@U?$pair@$$CBVBrn@OpenHome@@PAVProperty@Net@2@@2@HPBU32@ABU32@U_Iterator_base12@2@@std@@QAE@ABU01@@Z 004099a0 f i libohNetCore:CpProxy.obj
 0001:000089d0       ??0?$_Tree@V?$_Tmap_traits@VBrn@OpenHome@@PAVProperty@Net@2@VBufferCmp@2@V?$allocator@U?$pair@$$CBVBrn@OpenHome@@PAVProperty@Net@2@@std@@@std@@$0A@@std@@@std@@QAE@ABVBufferCmp@OpenHome@@ABV?$allocator@U?$pair@$$CBVBrn@OpenHome@@PAVProperty@Net@2@@std@@@1@@Z 004099d0 f i libohNetCore:CpProxy.obj
 0001:00008a20       ?lower_bound@?$_Tree@V?$_Tmap_traits@VBrn@OpenHome@@PAVProperty@Net@2@VBufferCmp@2@V?$allocator@U?$pair@$$CBVBrn@OpenHome@@PAVProperty@Net@2@@std@@@std@@$0A@@std@@@std@@QAE?AV?$_Tree_iterator@V?$_Tree_val@V?$_Tmap_traits@VBrn@OpenHome@@PAVProperty@Net@2@VBufferCmp@2@V?$allocator@U?$pair@$$CBVBrn@OpenHome@@PAVProperty@Net@2@@std@@@std@@$0A@@std@@@std@@@2@ABVBrn@OpenHome@@@Z 00409a20 f i libohNetCore:CpProxy.obj
 0001:00008a80       ?_Lmost@?$_Tree@V?$_Tmap_traits@VBrn@OpenHome@@PAVProperty@Net@2@VBufferCmp@2@V?$allocator@U?$pair@$$CBVBrn@OpenHome@@PAVProperty@Net@2@@std@@@std@@$0A@@std@@@std@@IBEAAPAU_Node@?$_Tree_nod@V?$_Tmap_traits@VBrn@OpenHome@@PAVProperty@Net@2@VBufferCmp@2@V?$allocator@U?$pair@$$CBVBrn@OpenHome@@PAVProperty@Net@2@@std@@@std@@$0A@@std@@@2@XZ 00409a80 f i libohNetCore:CpProxy.obj
 0001:00008ab0       ?_Tidy@?$_Tree@V?$_Tmap_traits@VBrn@OpenHome@@PAVProperty@Net@2@VBufferCmp@2@V?$allocator@U?$pair@$$CBVBrn@OpenHome@@PAVProperty@Net@2@@std@@@std@@$0A@@std@@@std@@IAEXXZ 00409ab0 f i libohNetCore:CpProxy.obj
 0001:00008bb0       ??1?$_Tree_val@V?$_Tmap_traits@VBrn@OpenHome@@PAVProperty@Net@2@VBufferCmp@2@V?$allocator@U?$pair@$$CBVBrn@OpenHome@@PAVProperty@Net@2@@std@@@std@@$0A@@std@@@std@@QAE@XZ 00409bb0 f i libohNetCore:CpProxy.obj
 0001:00008c20       ?_Key@?$_Tree_val@V?$_Tmap_traits@VBrn@OpenHome@@PAVProperty@Net@2@VBufferCmp@2@V?$allocator@U?$pair@$$CBVBrn@OpenHome@@PAVProperty@Net@2@@std@@@std@@$0A@@std@@@std@@SGAAVBrn@OpenHome@@PAU_Node@?$_Tree_nod@V?$_Tmap_traits@VBrn@OpenHome@@PAVProperty@Net@2@VBufferCmp@2@V?$allocator@U?$pair@$$CBVBrn@OpenHome@@PAVProperty@Net@2@@std@@@std@@$0A@@std@@@2@@Z 00409c20 f i libohNetCore:CpProxy.obj
 0001:00008c40       ??0?$allocator@U?$pair@$$CBVBrn@OpenHome@@PAVProperty@Net@2@@std@@@std@@QAE@XZ 00409c40 f i libohNetCore:CpProxy.obj
 0001:00008c60       ??0?$_Tree_iterator@V?$_Tree_val@V?$_Tmap_traits@VBrn@OpenHome@@PAVProperty@Net@2@VBufferCmp@2@V?$allocator@U?$pair@$$CBVBrn@OpenHome@@PAVProperty@Net@2@@std@@@std@@$0A@@std@@@std@@@std@@QAE@PAU_Node@?$_Tree_nod@V?$_Tmap_traits@VBrn@OpenHome@@PAVProperty@Net@2@VBufferCmp@2@V?$allocator@U?$pair@$$CBVBrn@OpenHome@@PAVProperty@Net@2@@std@@@std@@$0A@@std@@@1@PBV?$_Tree_val@V?$_Tmap_traits@VBrn@OpenHome@@PAVProperty@Net@2@VBufferCmp@2@V?$allocator@U?$pair@$$CBVBrn@OpenHome@@PAVProperty@Net@2@@std@@@std@@$0A@@std@@@1@@Z 00409c60 f i libohNetCore:CpProxy.obj
 0001:00008ca0       ??D?$_Tree_iterator@V?$_Tree_val@V?$_Tmap_traits@VBrn@OpenHome@@PAVProperty@Net@2@VBufferCmp@2@V?$allocator@U?$pair@$$CBVBrn@OpenHome@@PAVProperty@Net@2@@std@@@std@@$0A@@std@@@std@@@std@@QBEAAU?$pair@$$CBVBrn@OpenHome@@PAVProperty@Net@2@@1@XZ 00409ca0 f i libohNetCore:CpProxy.obj
 0001:00008cd0       ??E?$_Tree_iterator@V?$_Tree_val@V?$_Tmap_traits@VBrn@OpenHome@@PAVProperty@Net@2@VBufferCmp@2@V?$allocator@U?$pair@$$CBVBrn@OpenHome@@PAVProperty@Net@2@@std@@@std@@$0A@@std@@@std@@@std@@QAEAAV01@XZ 00409cd0 f i libohNetCore:CpProxy.obj
 0001:00008d00       ??8?$_Tree_const_iterator@V?$_Tree_val@V?$_Tmap_traits@VBrn@OpenHome@@PAVProperty@Net@2@VBufferCmp@2@V?$allocator@U?$pair@$$CBVBrn@OpenHome@@PAVProperty@Net@2@@std@@@std@@$0A@@std@@@std@@@std@@QBE_NABV01@@Z 00409d00 f i libohNetCore:CpProxy.obj
 0001:00008dc0       ?_Mynode@?$_Tree_unchecked_const_iterator@V?$_Tree_val@V?$_Tmap_traits@VBrn@OpenHome@@PAVProperty@Net@2@VBufferCmp@2@V?$allocator@U?$pair@$$CBVBrn@OpenHome@@PAVProperty@Net@2@@std@@@std@@$0A@@std@@@std@@U_Iterator_base12@2@@std@@QBEPAU_Node@?$_Tree_nod@V?$_Tmap_traits@VBrn@OpenHome@@PAVProperty@Net@2@VBufferCmp@2@V?$allocator@U?$pair@$$CBVBrn@OpenHome@@PAVProperty@Net@2@@std@@@std@@$0A@@std@@@2@XZ 00409dc0 f i libohNetCore:CpProxy.obj
 0001:00008de0       ?erase@?$_Tree@V?$_Tmap_traits@VBrn@OpenHome@@PAVProperty@Net@2@VBufferCmp@2@V?$allocator@U?$pair@$$CBVBrn@OpenHome@@PAVProperty@Net@2@@std@@@std@@$0A@@std@@@std@@QAE?AV?$_Tree_iterator@V?$_Tree_val@V?$_Tmap_traits@VBrn@OpenHome@@PAVProperty@Net@2@VBufferCmp@2@V?$allocator@U?$pair@$$CBVBrn@OpenHome@@PAVProperty@Net@2@@std@@@std@@$0A@@std@@@std@@@2@V?$_Tree_const_iterator@V?$_Tree_val@V?$_Tmap_traits@VBrn@OpenHome@@PAVProperty@Net@2@VBufferCmp@2@V?$allocator@U?$pair@$$CBVBrn@OpenHome@@PAVProperty@Net@2@@std@@@std@@$0A@@std@@@std@@@2@0@Z 00409de0 f i libohNetCore:CpProxy.obj
 0001:00008fe0       ?_Lbound@?$_Tree@V?$_Tmap_traits@VBrn@OpenHome@@PAVProperty@Net@2@VBufferCmp@2@V?$allocator@U?$pair@$$CBVBrn@OpenHome@@PAVProperty@Net@2@@std@@@std@@$0A@@std@@@std@@IAEPAU_Node@?$_Tree_nod@V?$_Tmap_traits@VBrn@OpenHome@@PAVProperty@Net@2@VBufferCmp@2@V?$allocator@U?$pair@$$CBVBrn@OpenHome@@PAVProperty@Net@2@@std@@@std@@$0A@@std@@@2@ABVBrn@OpenHome@@@Z 00409fe0 f i libohNetCore:CpProxy.obj
 0001:00009090       ??0?$_Tree_val@V?$_Tmap_traits@VBrn@OpenHome@@PAVProperty@Net@2@VBufferCmp@2@V?$allocator@U?$pair@$$CBVBrn@OpenHome@@PAVProperty@Net@2@@std@@@std@@$0A@@std@@@std@@QAE@ABVBufferCmp@OpenHome@@V?$allocator@U?$pair@$$CBVBrn@OpenHome@@PAVProperty@Net@2@@std@@@1@@Z 0040a090 f i libohNetCore:CpProxy.obj
 0001:00009190       ?_Left@?$_Tree_val@V?$_Tmap_traits@VBrn@OpenHome@@PAVProperty@Net@2@VBufferCmp@2@V?$allocator@U?$pair@$$CBVBrn@OpenHome@@PAVProperty@Net@2@@std@@@std@@$0A@@std@@@std@@SGAAPAU_Node@?$_Tree_nod@V?$_Tmap_traits@VBrn@OpenHome@@PAVProperty@Net@2@VBufferCmp@2@V?$allocator@U?$pair@$$CBVBrn@OpenHome@@PAVProperty@Net@2@@std@@@std@@$0A@@std@@@2@PAU342@@Z 0040a190 f i libohNetCore:CpProxy.obj
 0001:000091a0       ?_Myval@?$_Tree_val@V?$_Tmap_traits@VBrn@OpenHome@@PAVProperty@Net@2@VBufferCmp@2@V?$allocator@U?$pair@$$CBVBrn@OpenHome@@PAVProperty@Net@2@@std@@@std@@$0A@@std@@@std@@SGAAU?$pair@$$CBVBrn@OpenHome@@PAVProperty@Net@2@@2@PAU_Node@?$_Tree_nod@V?$_Tmap_traits@VBrn@OpenHome@@PAVProperty@Net@2@VBufferCmp@2@V?$allocator@U?$pair@$$CBVBrn@OpenHome@@PAVProperty@Net@2@@std@@@std@@$0A@@std@@@2@@Z 0040a1a0 f i libohNetCore:CpProxy.obj
 0001:000091b0       ??1?$_Tree_nod@V?$_Tmap_traits@VBrn@OpenHome@@PAVProperty@Net@2@VBufferCmp@2@V?$allocator@U?$pair@$$CBVBrn@OpenHome@@PAVProperty@Net@2@@std@@@std@@$0A@@std@@@std@@QAE@XZ 0040a1b0 f i libohNetCore:CpProxy.obj
 0001:00009290       ??0?$allocator@U?$pair@$$CBVBrn@OpenHome@@PAVProperty@Net@2@@std@@@std@@QAE@ABV01@@Z 0040a290 f i libohNetCore:CpProxy.obj
 0001:000092b0       ?deallocate@?$allocator@U_Node@?$_Tree_nod@V?$_Tmap_traits@VBrn@OpenHome@@PAVProperty@Net@2@VBufferCmp@2@V?$allocator@U?$pair@$$CBVBrn@OpenHome@@PAVProperty@Net@2@@std@@@std@@$0A@@std@@@std@@@std@@QAEXPAU_Node@?$_Tree_nod@V?$_Tmap_traits@VBrn@OpenHome@@PAVProperty@Net@2@VBufferCmp@2@V?$allocator@U?$pair@$$CBVBrn@OpenHome@@PAVProperty@Net@2@@std@@@std@@$0A@@std@@@2@I@Z 0040a2b0 f i libohNetCore:CpProxy.obj
 0001:000092e0       ??0?$_Tree_const_iterator@V?$_Tree_val@V?$_Tmap_traits@VBrn@OpenHome@@PAVProperty@Net@2@VBufferCmp@2@V?$allocator@U?$pair@$$CBVBrn@OpenHome@@PAVProperty@Net@2@@std@@@std@@$0A@@std@@@std@@@std@@QAE@PAU_Node@?$_Tree_nod@V?$_Tmap_traits@VBrn@OpenHome@@PAVProperty@Net@2@VBufferCmp@2@V?$allocator@U?$pair@$$CBVBrn@OpenHome@@PAVProperty@Net@2@@std@@@std@@$0A@@std@@@1@PBV?$_Tree_val@V?$_Tmap_traits@VBrn@OpenHome@@PAVProperty@Net@2@VBufferCmp@2@V?$allocator@U?$pair@$$CBVBrn@OpenHome@@PAVProperty@Net@2@@std@@@std@@$0A@@std@@@1@@Z 0040a2e0 f i libohNetCore:CpProxy.obj
 0001:00009320       ??D?$_Tree_const_iterator@V?$_Tree_val@V?$_Tmap_traits@VBrn@OpenHome@@PAVProperty@Net@2@VBufferCmp@2@V?$allocator@U?$pair@$$CBVBrn@OpenHome@@PAVProperty@Net@2@@std@@@std@@$0A@@std@@@std@@@std@@QBEABU?$pair@$$CBVBrn@OpenHome@@PAVProperty@Net@2@@1@XZ 0040a320 f i libohNetCore:CpProxy.obj
 0001:000093e0       ??E?$_Tree_const_iterator@V?$_Tree_val@V?$_Tmap_traits@VBrn@OpenHome@@PAVProperty@Net@2@VBufferCmp@2@V?$allocator@U?$pair@$$CBVBrn@OpenHome@@PAVProperty@Net@2@@std@@@std@@$0A@@std@@@std@@@std@@QAEAAV01@XZ 0040a3e0 f i libohNetCore:CpProxy.obj
 0001:000094a0       ??1?$_Tmap_traits@VBrn@OpenHome@@PAVProperty@Net@2@VBufferCmp@2@V?$allocator@U?$pair@$$CBVBrn@OpenHome@@PAVProperty@Net@2@@std@@@std@@$0A@@std@@QAE@XZ 0040a4a0 f i libohNetCore:CpProxy.obj
 0001:000094d0       ?erase@?$_Tree@V?$_Tmap_traits@VBrn@OpenHome@@PAVProperty@Net@2@VBufferCmp@2@V?$allocator@U?$pair@$$CBVBrn@OpenHome@@PAVProperty@Net@2@@std@@@std@@$0A@@std@@@std@@QAE?AV?$_Tree_iterator@V?$_Tree_val@V?$_Tmap_traits@VBrn@OpenHome@@PAVProperty@Net@2@VBufferCmp@2@V?$allocator@U?$pair@$$CBVBrn@OpenHome@@PAVProperty@Net@2@@std@@@std@@$0A@@std@@@std@@@2@V?$_Tree_const_iterator@V?$_Tree_val@V?$_Tmap_traits@VBrn@OpenHome@@PAVProperty@Net@2@VBufferCmp@2@V?$allocator@U?$pair@$$CBVBrn@OpenHome@@PAVProperty@Net@2@@std@@@std@@$0A@@std@@@std@@@2@@Z 0040a4d0 f i libohNetCore:CpProxy.obj
 0001:00009be0       ?clear@?$_Tree@V?$_Tmap_traits@VBrn@OpenHome@@PAVProperty@Net@2@VBufferCmp@2@V?$allocator@U?$pair@$$CBVBrn@OpenHome@@PAVProperty@Net@2@@std@@@std@@$0A@@std@@@std@@QAEXXZ 0040abe0 f i libohNetCore:CpProxy.obj
 0001:00009c60       ?_Root@?$_Tree@V?$_Tmap_traits@VBrn@OpenHome@@PAVProperty@Net@2@VBufferCmp@2@V?$allocator@U?$pair@$$CBVBrn@OpenHome@@PAVProperty@Net@2@@std@@@std@@$0A@@std@@@std@@IBEAAPAU_Node@?$_Tree_nod@V?$_Tmap_traits@VBrn@OpenHome@@PAVProperty@Net@2@VBufferCmp@2@V?$allocator@U?$pair@$$CBVBrn@OpenHome@@PAVProperty@Net@2@@std@@@std@@$0A@@std@@@2@XZ 0040ac60 f i libohNetCore:CpProxy.obj
 0001:00009c90       ?_Color@?$_Tree_val@V?$_Tmap_traits@VBrn@OpenHome@@PAVProperty@Net@2@VBufferCmp@2@V?$allocator@U?$pair@$$CBVBrn@OpenHome@@PAVProperty@Net@2@@std@@@std@@$0A@@std@@@std@@SGAADPAU_Node@?$_Tree_nod@V?$_Tmap_traits@VBrn@OpenHome@@PAVProperty@Net@2@VBufferCmp@2@V?$allocator@U?$pair@$$CBVBrn@OpenHome@@PAVProperty@Net@2@@std@@@std@@$0A@@std@@@2@@Z 0040ac90 f i libohNetCore:CpProxy.obj
 0001:00009ca0       ?_Isnil@?$_Tree_val@V?$_Tmap_traits@VBrn@OpenHome@@PAVProperty@Net@2@VBufferCmp@2@V?$allocator@U?$pair@$$CBVBrn@OpenHome@@PAVProperty@Net@2@@std@@@std@@$0A@@std@@@std@@SGAADPAU_Node@?$_Tree_nod@V?$_Tmap_traits@VBrn@OpenHome@@PAVProperty@Net@2@VBufferCmp@2@V?$allocator@U?$pair@$$CBVBrn@OpenHome@@PAVProperty@Net@2@@std@@@std@@$0A@@std@@@2@@Z 0040aca0 f i libohNetCore:CpProxy.obj
 0001:00009cb0       ?_Parent@?$_Tree_val@V?$_Tmap_traits@VBrn@OpenHome@@PAVProperty@Net@2@VBufferCmp@2@V?$allocator@U?$pair@$$CBVBrn@OpenHome@@PAVProperty@Net@2@@std@@@std@@$0A@@std@@@std@@SGAAPAU_Node@?$_Tree_nod@V?$_Tmap_traits@VBrn@OpenHome@@PAVProperty@Net@2@VBufferCmp@2@V?$allocator@U?$pair@$$CBVBrn@OpenHome@@PAVProperty@Net@2@@std@@@std@@$0A@@std@@@2@PAU342@@Z 0040acb0 f i libohNetCore:CpProxy.obj
 0001:00009cc0       ?_Right@?$_Tree_val@V?$_Tmap_traits@VBrn@OpenHome@@PAVProperty@Net@2@VBufferCmp@2@V?$allocator@U?$pair@$$CBVBrn@OpenHome@@PAVProperty@Net@2@@std@@@std@@$0A@@std@@@std@@SGAAPAU_Node@?$_Tree_nod@V?$_Tmap_traits@VBrn@OpenHome@@PAVProperty@Net@2@VBufferCmp@2@V?$allocator@U?$pair@$$CBVBrn@OpenHome@@PAVProperty@Net@2@@std@@@std@@$0A@@std@@@2@PAU342@@Z 0040acc0 f i libohNetCore:CpProxy.obj
 0001:00009cd0       ??0?$_Tree_nod@V?$_Tmap_traits@VBrn@OpenHome@@PAVProperty@Net@2@VBufferCmp@2@V?$allocator@U?$pair@$$CBVBrn@OpenHome@@PAVProperty@Net@2@@std@@@std@@$0A@@std@@@std@@QAE@ABVBufferCmp@OpenHome@@V?$allocator@U?$pair@$$CBVBrn@OpenHome@@PAVProperty@Net@2@@std@@@1@@Z 0040acd0 f i libohNetCore:CpProxy.obj
 0001:00009de0       ?allocate@?$allocator@U_Node@?$_Tree_nod@V?$_Tmap_traits@VBrn@OpenHome@@PAVProperty@Net@2@VBufferCmp@2@V?$allocator@U?$pair@$$CBVBrn@OpenHome@@PAVProperty@Net@2@@std@@@std@@$0A@@std@@@std@@@std@@QAEPAU_Node@?$_Tree_nod@V?$_Tmap_traits@VBrn@OpenHome@@PAVProperty@Net@2@VBufferCmp@2@V?$allocator@U?$pair@$$CBVBrn@OpenHome@@PAVProperty@Net@2@@std@@@std@@$0A@@std@@@2@I@Z 0040ade0 f i libohNetCore:CpProxy.obj
 0001:00009e10       ??E?$_Tree_const_iterator@V?$_Tree_val@V?$_Tmap_traits@VBrn@OpenHome@@PAVProperty@Net@2@VBufferCmp@2@V?$allocator@U?$pair@$$CBVBrn@OpenHome@@PAVProperty@Net@2@@std@@@std@@$0A@@std@@@std@@@std@@QAE?AV01@H@Z 0040ae10 f i libohNetCore:CpProxy.obj
 0001:00009ee0       ??0?$_Tree_unchecked_const_iterator@V?$_Tree_val@V?$_Tmap_traits@VBrn@OpenHome@@PAVProperty@Net@2@VBufferCmp@2@V?$allocator@U?$pair@$$CBVBrn@OpenHome@@PAVProperty@Net@2@@std@@@std@@$0A@@std@@@std@@U_Iterator_base12@2@@std@@QAE@PAU_Node@?$_Tree_nod@V?$_Tmap_traits@VBrn@OpenHome@@PAVProperty@Net@2@VBufferCmp@2@V?$allocator@U?$pair@$$CBVBrn@OpenHome@@PAVProperty@Net@2@@std@@@std@@$0A@@std@@@1@PBV?$_Tree_val@V?$_Tmap_traits@VBrn@OpenHome@@PAVProperty@Net@2@VBufferCmp@2@V?$allocator@U?$pair@$$CBVBrn@OpenHome@@PAVProperty@Net@2@@std@@@std@@$0A@@std@@@1@@Z 0040aee0 f i libohNetCore:CpProxy.obj
 0001:00009f60       ??E?$_Tree_unchecked_const_iterator@V?$_Tree_val@V?$_Tmap_traits@VBrn@OpenHome@@PAVProperty@Net@2@VBufferCmp@2@V?$allocator@U?$pair@$$CBVBrn@OpenHome@@PAVProperty@Net@2@@std@@@std@@$0A@@std@@@std@@U_Iterator_base12@2@@std@@QAEAAV01@XZ 0040af60 f i libohNetCore:CpProxy.obj
 0001:0000a020       ??0?$_Iterator012@Ubidirectional_iterator_tag@std@@U?$pair@$$CBVBrn@OpenHome@@PAVProperty@Net@2@@2@HPBU32@ABU32@U_Iterator_base12@2@@std@@QAE@XZ 0040b020 f i libohNetCore:CpProxy.obj
 0001:0000a050       ?_Erase@?$_Tree@V?$_Tmap_traits@VBrn@OpenHome@@PAVProperty@Net@2@VBufferCmp@2@V?$allocator@U?$pair@$$CBVBrn@OpenHome@@PAVProperty@Net@2@@std@@@std@@$0A@@std@@@std@@IAEXPAU_Node@?$_Tree_nod@V?$_Tmap_traits@VBrn@OpenHome@@PAVProperty@Net@2@VBufferCmp@2@V?$allocator@U?$pair@$$CBVBrn@OpenHome@@PAVProperty@Net@2@@std@@@std@@$0A@@std@@@2@@Z 0040b050 f i libohNetCore:CpProxy.obj
 0001:0000a0f0       ?_Lrotate@?$_Tree@V?$_Tmap_traits@VBrn@OpenHome@@PAVProperty@Net@2@VBufferCmp@2@V?$allocator@U?$pair@$$CBVBrn@OpenHome@@PAVProperty@Net@2@@std@@@std@@$0A@@std@@@std@@IAEXPAU_Node@?$_Tree_nod@V?$_Tmap_traits@VBrn@OpenHome@@PAVProperty@Net@2@VBufferCmp@2@V?$allocator@U?$pair@$$CBVBrn@OpenHome@@PAVProperty@Net@2@@std@@@std@@$0A@@std@@@2@@Z 0040b0f0 f i libohNetCore:CpProxy.obj
 0001:0000a210       ?_Rmost@?$_Tree@V?$_Tmap_traits@VBrn@OpenHome@@PAVProperty@Net@2@VBufferCmp@2@V?$allocator@U?$pair@$$CBVBrn@OpenHome@@PAVProperty@Net@2@@std@@@std@@$0A@@std@@@std@@IBEAAPAU_Node@?$_Tree_nod@V?$_Tmap_traits@VBrn@OpenHome@@PAVProperty@Net@2@VBufferCmp@2@V?$allocator@U?$pair@$$CBVBrn@OpenHome@@PAVProperty@Net@2@@std@@@std@@$0A@@std@@@2@XZ 0040b210 f i libohNetCore:CpProxy.obj
 0001:0000a240       ?_Rrotate@?$_Tree@V?$_Tmap_traits@VBrn@OpenHome@@PAVProperty@Net@2@VBufferCmp@2@V?$allocator@U?$pair@$$CBVBrn@OpenHome@@PAVProperty@Net@2@@std@@@std@@$0A@@std@@@std@@IAEXPAU_Node@?$_Tree_nod@V?$_Tmap_traits@VBrn@OpenHome@@PAVProperty@Net@2@VBufferCmp@2@V?$allocator@U?$pair@$$CBVBrn@OpenHome@@PAVProperty@Net@2@@std@@@std@@$0A@@std@@@2@@Z 0040b240 f i libohNetCore:CpProxy.obj
 0001:0000a360       ?_Orphan_ptr@?$_Tree@V?$_Tmap_traits@VBrn@OpenHome@@PAVProperty@Net@2@VBufferCmp@2@V?$allocator@U?$pair@$$CBVBrn@OpenHome@@PAVProperty@Net@2@@std@@@std@@$0A@@std@@@std@@IBEXAAV12@PAU_Node@?$_Tree_nod@V?$_Tmap_traits@VBrn@OpenHome@@PAVProperty@Net@2@VBufferCmp@2@V?$allocator@U?$pair@$$CBVBrn@OpenHome@@PAVProperty@Net@2@@std@@@std@@$0A@@std@@@2@@Z 0040b360 f i libohNetCore:CpProxy.obj
 0001:0000a470       ?_Max@?$_Tree_val@V?$_Tmap_traits@VBrn@OpenHome@@PAVProperty@Net@2@VBufferCmp@2@V?$allocator@U?$pair@$$CBVBrn@OpenHome@@PAVProperty@Net@2@@std@@@std@@$0A@@std@@@std@@SGPAU_Node@?$_Tree_nod@V?$_Tmap_traits@VBrn@OpenHome@@PAVProperty@Net@2@VBufferCmp@2@V?$allocator@U?$pair@$$CBVBrn@OpenHome@@PAVProperty@Net@2@@std@@@std@@$0A@@std@@@2@PAU342@@Z 0040b470 f i libohNetCore:CpProxy.obj
 0001:0000a4b0       ?_Min@?$_Tree_val@V?$_Tmap_traits@VBrn@OpenHome@@PAVProperty@Net@2@VBufferCmp@2@V?$allocator@U?$pair@$$CBVBrn@OpenHome@@PAVProperty@Net@2@@std@@@std@@$0A@@std@@@std@@SGPAU_Node@?$_Tree_nod@V?$_Tmap_traits@VBrn@OpenHome@@PAVProperty@Net@2@VBufferCmp@2@V?$allocator@U?$pair@$$CBVBrn@OpenHome@@PAVProperty@Net@2@@std@@@std@@$0A@@std@@@2@PAU342@@Z 0040b4b0 f i libohNetCore:CpProxy.obj
 0001:0000a4f0       ??0?$_Tmap_traits@VBrn@OpenHome@@PAVProperty@Net@2@VBufferCmp@2@V?$allocator@U?$pair@$$CBVBrn@OpenHome@@PAVProperty@Net@2@@std@@@std@@$0A@@std@@QAE@VBufferCmp@OpenHome@@@Z 0040b4f0 f i libohNetCore:CpProxy.obj
 0001:0000a520       ??$?0AAVBrn@OpenHome@@AAPAVProperty@Net@1@@?$pair@VBrn@OpenHome@@PAVProperty@Net@2@@std@@QAE@AAVBrn@OpenHome@@AAPAVProperty@Net@3@@Z 0040b520 f i libohNetCore:CpProxy.obj
 0001:0000a560       ??$insert@U?$pair@VBrn@OpenHome@@PAVProperty@Net@2@@std@@@?$_Tree@V?$_Tmap_traits@VBrn@OpenHome@@PAVProperty@Net@2@VBufferCmp@2@V?$allocator@U?$pair@$$CBVBrn@OpenHome@@PAVProperty@Net@2@@std@@@std@@$0A@@std@@@std@@QAE?AU?$pair@V?$_Tree_iterator@V?$_Tree_val@V?$_Tmap_traits@VBrn@OpenHome@@PAVProperty@Net@2@VBufferCmp@2@V?$allocator@U?$pair@$$CBVBrn@OpenHome@@PAVProperty@Net@2@@std@@@std@@$0A@@std@@@std@@@std@@_N@1@$$QAU?$pair@VBrn@OpenHome@@PAVProperty@Net@2@@1@@Z 0040b560 f i libohNetCore:CpProxy.obj
 0001:0000a5c0       ??$_Debug_lt_pred@VBufferCmp@OpenHome@@VBrn@2@V32@@std@@YG_NVBufferCmp@OpenHome@@ABVBrn@2@AAV32@PB_WI@Z 0040b5c0 f i libohNetCore:CpProxy.obj
 0001:0000a620       ??$_Kfn@$$CBVBrn@OpenHome@@PAVProperty@Net@2@@?$_Tmap_traits@VBrn@OpenHome@@PAVProperty@Net@2@VBufferCmp@2@V?$allocator@U?$pair@$$CBVBrn@OpenHome@@PAVProperty@Net@2@@std@@@std@@$0A@@std@@SGABVBrn@OpenHome@@ABU?$pair@$$CBVBrn@OpenHome@@PAVProperty@Net@2@@1@@Z 0040b620 f i libohNetCore:CpProxy.obj
 0001:0000a630       ??$_Debug_lt_pred@VBufferCmp@OpenHome@@VBrn@2@V32@@std@@YG_NVBufferCmp@OpenHome@@AAVBrn@2@ABV32@PB_WI@Z 0040b630 f i libohNetCore:CpProxy.obj
 0001:0000a690       ??$?0U_Node@?$_Tree_nod@V?$_Tmap_traits@VBrn@OpenHome@@PAVProperty@Net@2@VBufferCmp@2@V?$allocator@U?$pair@$$CBVBrn@OpenHome@@PAVProperty@Net@2@@std@@@std@@$0A@@std@@@std@@@?$allocator@U_Container_proxy@std@@@std@@QAE@ABV?$allocator@U_Node@?$_Tree_nod@V?$_Tmap_traits@VBrn@OpenHome@@PAVProperty@Net@2@VBufferCmp@2@V?$allocator@U?$pair@$$CBVBrn@OpenHome@@PAVProperty@Net@2@@std@@@std@@$0A@@std@@@std@@@1@@Z 0040b690 f i libohNetCore:CpProxy.obj
 0001:0000a6b0       ??$swap@D@std@@YGXAAD0@Z   0040b6b0 f i libohNetCore:CpProxy.obj
 0001:0000a740       ??$addressof@U?$pair@$$CBVBrn@OpenHome@@PAVProperty@Net@2@@std@@@std@@YGPAU?$pair@$$CBVBrn@OpenHome@@PAVProperty@Net@2@@0@AAU10@@Z 0040b740 f i libohNetCore:CpProxy.obj
 0001:0000a750       ??$_Dest_val@V?$allocator@U?$pair@$$CBVBrn@OpenHome@@PAVProperty@Net@2@@std@@@std@@U?$pair@$$CBVBrn@OpenHome@@PAVProperty@Net@2@@2@@std@@YGXAAV?$allocator@U?$pair@$$CBVBrn@OpenHome@@PAVProperty@Net@2@@std@@@0@PAU?$pair@$$CBVBrn@OpenHome@@PAVProperty@Net@2@@0@@Z 0040b750 f i libohNetCore:CpProxy.obj
 0001:0000a770       ??$?0U?$pair@$$CBVBrn@OpenHome@@PAVProperty@Net@2@@std@@@?$allocator@U_Node@?$_Tree_nod@V?$_Tmap_traits@VBrn@OpenHome@@PAVProperty@Net@2@VBufferCmp@2@V?$allocator@U?$pair@$$CBVBrn@OpenHome@@PAVProperty@Net@2@@std@@@std@@$0A@@std@@@std@@@std@@QAE@ABV?$allocator@U?$pair@$$CBVBrn@OpenHome@@PAVProperty@Net@2@@std@@@1@@Z 0040b770 f i libohNetCore:CpProxy.obj
 0001:0000a790       ??$_Allocate@U_Node@?$_Tree_nod@V?$_Tmap_traits@VBrn@OpenHome@@PAVProperty@Net@2@VBufferCmp@2@V?$allocator@U?$pair@$$CBVBrn@OpenHome@@PAVProperty@Net@2@@std@@@std@@$0A@@std@@@std@@@std@@YGPAU_Node@?$_Tree_nod@V?$_Tmap_traits@VBrn@OpenHome@@PAVProperty@Net@2@VBufferCmp@2@V?$allocator@U?$pair@$$CBVBrn@OpenHome@@PAVProperty@Net@2@@std@@@std@@$0A@@std@@@0@IPAU120@@Z 0040b790 f i libohNetCore:CpProxy.obj
 0001:0000a810       ?_Linsert@?$_Tree@V?$_Tmap_traits@VBrn@OpenHome@@PAVProperty@Net@2@VBufferCmp@2@V?$allocator@U?$pair@$$CBVBrn@OpenHome@@PAVProperty@Net@2@@std@@@std@@$0A@@std@@@std@@QAE?AU?$pair@V?$_Tree_iterator@V?$_Tree_val@V?$_Tmap_traits@VBrn@OpenHome@@PAVProperty@Net@2@VBufferCmp@2@V?$allocator@U?$pair@$$CBVBrn@OpenHome@@PAVProperty@Net@2@@std@@@std@@$0A@@std@@@std@@@std@@_N@2@PAU_Node@?$_Tree_nod@V?$_Tmap_traits@VBrn@OpenHome@@PAVProperty@Net@2@VBufferCmp@2@V?$allocator@U?$pair@$$CBVBrn@OpenHome@@PAVProperty@Net@2@@std@@@std@@$0A@@std@@@2@_N@Z 0040b810 f i libohNetCore:CpProxy.obj
 0001:0000abf0       ?destroy@?$allocator@U?$pair@$$CBVBrn@OpenHome@@PAVProperty@Net@2@@std@@@std@@QAEXPAU?$pair@$$CBVBrn@OpenHome@@PAVProperty@Net@2@@2@@Z 0040bbf0 f i libohNetCore:CpProxy.obj
 0001:0000ac20       ?_Insert@?$_Tree@V?$_Tmap_traits@VBrn@OpenHome@@PAVProperty@Net@2@VBufferCmp@2@V?$allocator@U?$pair@$$CBVBrn@OpenHome@@PAVProperty@Net@2@@std@@@std@@$0A@@std@@@std@@IAE?AV?$_Tree_iterator@V?$_Tree_val@V?$_Tmap_traits@VBrn@OpenHome@@PAVProperty@Net@2@VBufferCmp@2@V?$allocator@U?$pair@$$CBVBrn@OpenHome@@PAVProperty@Net@2@@std@@@std@@$0A@@std@@@std@@@2@_NPAU_Node@?$_Tree_nod@V?$_Tmap_traits@VBrn@OpenHome@@PAVProperty@Net@2@VBufferCmp@2@V?$allocator@U?$pair@$$CBVBrn@OpenHome@@PAVProperty@Net@2@@std@@@std@@$0A@@std@@@2@1@Z 0040bc20 f i libohNetCore:CpProxy.obj
 0001:0000afe0       ??F?$_Tree_iterator@V?$_Tree_val@V?$_Tmap_traits@VBrn@OpenHome@@PAVProperty@Net@2@VBufferCmp@2@V?$allocator@U?$pair@$$CBVBrn@OpenHome@@PAVProperty@Net@2@@std@@@std@@$0A@@std@@@std@@@std@@QAEAAV01@XZ 0040bfe0 f i libohNetCore:CpProxy.obj
 0001:0000b010       ??0?$pair@V?$_Tree_iterator@V?$_Tree_val@V?$_Tmap_traits@VBrn@OpenHome@@PAVProperty@Net@2@VBufferCmp@2@V?$allocator@U?$pair@$$CBVBrn@OpenHome@@PAVProperty@Net@2@@std@@@std@@$0A@@std@@@std@@@std@@_N@std@@QAE@$$QAV?$_Tree_iterator@V?$_Tree_val@V?$_Tmap_traits@VBrn@OpenHome@@PAVProperty@Net@2@VBufferCmp@2@V?$allocator@U?$pair@$$CBVBrn@OpenHome@@PAVProperty@Net@2@@std@@@std@@$0A@@std@@@std@@@1@$$QA_N@Z 0040c010 f i libohNetCore:CpProxy.obj
 0001:0000b050       ?max_size@?$_Tree@V?$_Tmap_traits@VBrn@OpenHome@@PAVProperty@Net@2@VBufferCmp@2@V?$allocator@U?$pair@$$CBVBrn@OpenHome@@PAVProperty@Net@2@@std@@@std@@$0A@@std@@@std@@QBEIXZ 0040c050 f i libohNetCore:CpProxy.obj
 0001:0000b080       ??F?$_Tree_const_iterator@V?$_Tree_val@V?$_Tmap_traits@VBrn@OpenHome@@PAVProperty@Net@2@VBufferCmp@2@V?$allocator@U?$pair@$$CBVBrn@OpenHome@@PAVProperty@Net@2@@std@@@std@@$0A@@std@@@std@@@std@@QAEAAV01@XZ 0040c080 f i libohNetCore:CpProxy.obj
 0001:0000b1a0       ??0?$_Pair_base@V?$_Tree_iterator@V?$_Tree_val@V?$_Tmap_traits@VBrn@OpenHome@@PAVProperty@Net@2@VBufferCmp@2@V?$allocator@U?$pair@$$CBVBrn@OpenHome@@PAVProperty@Net@2@@std@@@std@@$0A@@std@@@std@@@std@@_N@std@@QAE@$$QAV?$_Tree_iterator@V?$_Tree_val@V?$_Tmap_traits@VBrn@OpenHome@@PAVProperty@Net@2@VBufferCmp@2@V?$allocator@U?$pair@$$CBVBrn@OpenHome@@PAVProperty@Net@2@@std@@@std@@$0A@@std@@@std@@@1@$$QA_N@Z 0040c1a0 f i libohNetCore:CpProxy.obj
 0001:0000b220       ?max_size@?$allocator@U?$pair@$$CBVBrn@OpenHome@@PAVProperty@Net@2@@std@@@std@@QBEIXZ 0040c220 f i libohNetCore:CpProxy.obj
 0001:0000b270       ??F?$_Tree_unchecked_const_iterator@V?$_Tree_val@V?$_Tmap_traits@VBrn@OpenHome@@PAVProperty@Net@2@VBufferCmp@2@V?$allocator@U?$pair@$$CBVBrn@OpenHome@@PAVProperty@Net@2@@std@@@std@@$0A@@std@@@std@@U_Iterator_base12@2@@std@@QAEAAV01@XZ 0040c270 f i libohNetCore:CpProxy.obj
 0001:0000b360       ??$forward@AAVBrn@OpenHome@@@std@@YGAAVBrn@OpenHome@@AAV12@@Z 0040c360 f i libohNetCore:CpProxy.obj
 0001:0000b370       ??$forward@AAPAVProperty@Net@OpenHome@@@std@@YGAAPAVProperty@Net@OpenHome@@AAPAV123@@Z 0040c370 f i libohNetCore:CpProxy.obj
 0001:0000b380       ??$?0AAVBrn@OpenHome@@AAPAVProperty@Net@1@@?$_Pair_base@VBrn@OpenHome@@PAVProperty@Net@2@@std@@QAE@AAVBrn@OpenHome@@AAPAVProperty@Net@3@@Z 0040c380 f i libohNetCore:CpProxy.obj
 0001:0000b400       ??0Brn@OpenHome@@QAE@ABV01@@Z 0040c400 f i libohNetCore:CpProxy.obj
 0001:0000b490       ??$forward@U?$pair@VBrn@OpenHome@@PAVProperty@Net@2@@std@@@std@@YG$$QAU?$pair@VBrn@OpenHome@@PAVProperty@Net@2@@0@AAU10@@Z 0040c490 f i libohNetCore:CpProxy.obj
 0001:0000b4a0       ??$_Buynode@U?$pair@VBrn@OpenHome@@PAVProperty@Net@2@@std@@@?$_Tree_val@V?$_Tmap_traits@VBrn@OpenHome@@PAVProperty@Net@2@VBufferCmp@2@V?$allocator@U?$pair@$$CBVBrn@OpenHome@@PAVProperty@Net@2@@std@@@std@@$0A@@std@@@std@@QAEPAU_Node@?$_Tree_nod@V?$_Tmap_traits@VBrn@OpenHome@@PAVProperty@Net@2@VBufferCmp@2@V?$allocator@U?$pair@$$CBVBrn@OpenHome@@PAVProperty@Net@2@@std@@@std@@$0A@@std@@@1@$$QAU?$pair@VBrn@OpenHome@@PAVProperty@Net@2@@1@@Z 0040c4a0 f i libohNetCore:CpProxy.obj
 0001:0000b580       ??$_Move@AAD@std@@YG$$QADAAD@Z 0040c580 f i libohNetCore:CpProxy.obj
 0001:0000b590       ??$?0AAV?$_Tree_iterator@V?$_Tree_val@V?$_Tmap_traits@VBrn@OpenHome@@PAVProperty@Net@2@VBufferCmp@2@V?$allocator@U?$pair@$$CBVBrn@OpenHome@@PAVProperty@Net@2@@std@@@std@@$0A@@std@@@std@@@std@@_N@?$pair@V?$_Tree_iterator@V?$_Tree_val@V?$_Tmap_traits@VBrn@OpenHome@@PAVProperty@Net@2@VBufferCmp@2@V?$allocator@U?$pair@$$CBVBrn@OpenHome@@PAVProperty@Net@2@@std@@@std@@$0A@@std@@@std@@@std@@_N@std@@QAE@AAV?$_Tree_iterator@V?$_Tree_val@V?$_Tmap_traits@VBrn@OpenHome@@PAVProperty@Net@2@VBufferCmp@2@V?$allocator@U?$pair@$$CBVBrn@OpenHome@@PAVProperty@Net@2@@std@@@std@@$0A@@std@@@std@@@1@$$QA_N@Z 0040c590 f i libohNetCore:CpProxy.obj
 0001:0000b5d0       ??$_Destroy@U?$pair@$$CBVBrn@OpenHome@@PAVProperty@Net@2@@std@@@std@@YGXPAU?$pair@$$CBVBrn@OpenHome@@PAVProperty@Net@2@@0@@Z 0040c5d0 f i libohNetCore:CpProxy.obj
 0001:0000b5f0       ??$move@AAV?$_Tree_iterator@V?$_Tree_val@V?$_Tmap_traits@VBrn@OpenHome@@PAVProperty@Net@2@VBufferCmp@2@V?$allocator@U?$pair@$$CBVBrn@OpenHome@@PAVProperty@Net@2@@std@@@std@@$0A@@std@@@std@@@std@@@std@@YG$$QAV?$_Tree_iterator@V?$_Tree_val@V?$_Tmap_traits@VBrn@OpenHome@@PAVProperty@Net@2@VBufferCmp@2@V?$allocator@U?$pair@$$CBVBrn@OpenHome@@PAVProperty@Net@2@@std@@@std@@$0A@@std@@@std@@@0@AAV10@@Z 0040c5f0 f i libohNetCore:CpProxy.obj
 0001:0000b600       ??$move@AA_N@std@@YG$$QA_NAA_N@Z 0040c600 f i libohNetCore:CpProxy.obj
 0001:0000b610       ??_G?$pair@$$CBVBrn@OpenHome@@PAVProperty@Net@2@@std@@QAEPAXI@Z 0040c610 f i libohNetCore:CpProxy.obj
 0001:0000b650       ??1?$pair@$$CBVBrn@OpenHome@@PAVProperty@Net@2@@std@@QAE@XZ 0040c650 f i libohNetCore:CpProxy.obj
 0001:0000b680       ??1?$_Pair_base@$$CBVBrn@OpenHome@@PAVProperty@Net@2@@std@@QAE@XZ 0040c680 f i libohNetCore:CpProxy.obj
 0001:0000b6b0       ?_Buynode@?$_Tree_val@V?$_Tmap_traits@VBrn@OpenHome@@PAVProperty@Net@2@VBufferCmp@2@V?$allocator@U?$pair@$$CBVBrn@OpenHome@@PAVProperty@Net@2@@std@@@std@@$0A@@std@@@std@@QAEPAU_Node@?$_Tree_nod@V?$_Tmap_traits@VBrn@OpenHome@@PAVProperty@Net@2@VBufferCmp@2@V?$allocator@U?$pair@$$CBVBrn@OpenHome@@PAVProperty@Net@2@@std@@@std@@$0A@@std@@@2@XZ 0040c6b0 f i libohNetCore:CpProxy.obj
 0001:0000b740       ??$_Cons_val@V?$allocator@U?$pair@$$CBVBrn@OpenHome@@PAVProperty@Net@2@@std@@@std@@U?$pair@$$CBVBrn@OpenHome@@PAVProperty@Net@2@@2@U?$pair@VBrn@OpenHome@@PAVProperty@Net@2@@2@@std@@YGXAAV?$allocator@U?$pair@$$CBVBrn@OpenHome@@PAVProperty@Net@2@@std@@@0@PAU?$pair@$$CBVBrn@OpenHome@@PAVProperty@Net@2@@0@$$QAU?$pair@VBrn@OpenHome@@PAVProperty@Net@2@@0@@Z 0040c740 f i libohNetCore:CpProxy.obj
 0001:0000b770       ??$forward@AAV?$_Tree_iterator@V?$_Tree_val@V?$_Tmap_traits@VBrn@OpenHome@@PAVProperty@Net@2@VBufferCmp@2@V?$allocator@U?$pair@$$CBVBrn@OpenHome@@PAVProperty@Net@2@@std@@@std@@$0A@@std@@@std@@@std@@@std@@YGAAV?$_Tree_iterator@V?$_Tree_val@V?$_Tmap_traits@VBrn@OpenHome@@PAVProperty@Net@2@VBufferCmp@2@V?$allocator@U?$pair@$$CBVBrn@OpenHome@@PAVProperty@Net@2@@std@@@std@@$0A@@std@@@std@@@0@AAV10@@Z 0040c770 f i libohNetCore:CpProxy.obj
 0001:0000b780       ??$forward@_N@std@@YG$$QA_NAA_N@Z 0040c780 f i libohNetCore:CpProxy.obj
 0001:0000b790       ??$?0AAV?$_Tree_iterator@V?$_Tree_val@V?$_Tmap_traits@VBrn@OpenHome@@PAVProperty@Net@2@VBufferCmp@2@V?$allocator@U?$pair@$$CBVBrn@OpenHome@@PAVProperty@Net@2@@std@@@std@@$0A@@std@@@std@@@std@@_N@?$_Pair_base@V?$_Tree_iterator@V?$_Tree_val@V?$_Tmap_traits@VBrn@OpenHome@@PAVProperty@Net@2@VBufferCmp@2@V?$allocator@U?$pair@$$CBVBrn@OpenHome@@PAVProperty@Net@2@@std@@@std@@$0A@@std@@@std@@@std@@_N@std@@QAE@AAV?$_Tree_iterator@V?$_Tree_val@V?$_Tmap_traits@VBrn@OpenHome@@PAVProperty@Net@2@VBufferCmp@2@V?$allocator@U?$pair@$$CBVBrn@OpenHome@@PAVProperty@Net@2@@std@@@std@@$0A@@std@@@std@@@1@$$QA_N@Z 0040c790 f i libohNetCore:CpProxy.obj
 0001:0000b810       ??$construct@U?$pair@VBrn@OpenHome@@PAVProperty@Net@2@@std@@@?$allocator@U?$pair@$$CBVBrn@OpenHome@@PAVProperty@Net@2@@std@@@std@@QAEXPAU?$pair@$$CBVBrn@OpenHome@@PAVProperty@Net@2@@1@$$QAU?$pair@VBrn@OpenHome@@PAVProperty@Net@2@@1@@Z 0040c810 f i libohNetCore:CpProxy.obj
 0001:0000b8b0       ??$?0VBrn@OpenHome@@PAVProperty@Net@1@@?$pair@$$CBVBrn@OpenHome@@PAVProperty@Net@2@@std@@QAE@$$QAU?$pair@VBrn@OpenHome@@PAVProperty@Net@2@@1@@Z 0040c8b0 f i libohNetCore:CpProxy.obj
 0001:0000b8f0       ??$forward@VBrn@OpenHome@@@std@@YG$$QAVBrn@OpenHome@@AAV12@@Z 0040c8f0 f i libohNetCore:CpProxy.obj
 0001:0000b900       ??$forward@PAVProperty@Net@OpenHome@@@std@@YG$$QAPAVProperty@Net@OpenHome@@AAPAV123@@Z 0040c900 f i libohNetCore:CpProxy.obj
 0001:0000b910       ??$?0VBrn@OpenHome@@PAVProperty@Net@1@@?$_Pair_base@$$CBVBrn@OpenHome@@PAVProperty@Net@2@@std@@QAE@$$QAVBrn@OpenHome@@$$QAPAVProperty@Net@3@@Z 0040c910 f i libohNetCore:CpProxy.obj
 0001:0000b990       ??0Parameter@Net@OpenHome@@IAE@PBDW4EType@012@@Z 0040c990 f   libohNetCore:Service.obj
 0001:0000b9e0       ??1Parameter@Net@OpenHome@@UAE@XZ 0040c9e0 f   libohNetCore:Service.obj
 0001:0000ba10       ?Name@Parameter@Net@OpenHome@@QBEABVBrx@3@XZ 0040ca10 f   libohNetCore:Service.obj
 0001:0000ba30       ?Type@Parameter@Net@OpenHome@@QBE?AW4EType@123@XZ 0040ca30 f   libohNetCore:Service.obj
 0001:0000ba50       ?ValidateBool@Parameter@Net@OpenHome@@UBEX_N@Z 0040ca50 f   libohNetCore:Service.obj
 0001:0000ba80       ?ValidateInt@Parameter@Net@OpenHome@@UBEXH@Z 0040ca80 f   libohNetCore:Service.obj
 0001:0000bab0       ?ValidateUint@Parameter@Net@OpenHome@@UBEXI@Z 0040cab0 f   libohNetCore:Service.obj
 0001:0000bae0       ?ValidateString@Parameter@Net@OpenHome@@UBEXABVBrx@3@@Z 0040cae0 f   libohNetCore:Service.obj
 0001:0000bb10       ?ValidateBinary@Parameter@Net@OpenHome@@UBEXABVBrx@3@@Z 0040cb10 f   libohNetCore:Service.obj
 0001:0000bb40       ??0ParameterBool@Net@OpenHome@@QAE@PBD@Z 0040cb40 f   libohNetCore:Service.obj
 0001:0000bb80       ??1ParameterBool@Net@OpenHome@@UAE@XZ 0040cb80 f   libohNetCore:Service.obj
 0001:0000bbb0       ?ValidateBool@ParameterBool@Net@OpenHome@@UBEX_N@Z 0040cbb0 f   libohNetCore:Service.obj
 0001:0000bbd0       ??0ParameterInt@Net@OpenHome@@QAE@PBDHHH@Z 0040cbd0 f   libohNetCore:Service.obj
 0001:0000bca0       ??1ParameterInt@Net@OpenHome@@UAE@XZ 0040cca0 f   libohNetCore:Service.obj
 0001:0000bcd0       ?ValidateInt@ParameterInt@Net@OpenHome@@UBEXH@Z 0040ccd0 f   libohNetCore:Service.obj
 0001:0000bdb0       ?MinValue@ParameterInt@Net@OpenHome@@QBEHXZ 0040cdb0 f   libohNetCore:Service.obj
 0001:0000bdd0       ?MaxValue@ParameterInt@Net@OpenHome@@QBEHXZ 0040cdd0 f   libohNetCore:Service.obj
 0001:0000bdf0       ?Step@ParameterInt@Net@OpenHome@@QBEHXZ 0040cdf0 f   libohNetCore:Service.obj
 0001:0000be10       ??0ParameterUint@Net@OpenHome@@QAE@PBDIII@Z 0040ce10 f   libohNetCore:Service.obj
 0001:0000bee0       ??1ParameterUint@Net@OpenHome@@UAE@XZ 0040cee0 f   libohNetCore:Service.obj
 0001:0000bf10       ?ValidateUint@ParameterUint@Net@OpenHome@@UBEXI@Z 0040cf10 f   libohNetCore:Service.obj
 0001:0000c000       ?MinValue@ParameterUint@Net@OpenHome@@QBEIXZ 0040d000 f   libohNetCore:Service.obj
 0001:0000c020       ?MaxValue@ParameterUint@Net@OpenHome@@QBEIXZ 0040d020 f   libohNetCore:Service.obj
 0001:0000c040       ?Step@ParameterUint@Net@OpenHome@@QBEIXZ 0040d040 f   libohNetCore:Service.obj
 0001:0000c060       ??0ParameterString@Net@OpenHome@@QAE@PBD@Z 0040d060 f   libohNetCore:Service.obj
 0001:0000c0e0       ??0ParameterString@Net@OpenHome@@QAE@PBDPAPADI@Z 0040d0e0 f   libohNetCore:Service.obj
 0001:0000c270       ??1ParameterString@Net@OpenHome@@UAE@XZ 0040d270 f   libohNetCore:Service.obj
 0001:0000c3f0       ?ValidateString@ParameterString@Net@OpenHome@@UBEXABVBrx@3@@Z 0040d3f0 f   libohNetCore:Service.obj
 0001:0000c570       ?AllowedValues@ParameterString@Net@OpenHome@@QBEABV?$map@VBrn@OpenHome@@PAVBrh@2@VBufferCmp@2@V?$allocator@U?$pair@$$CBVBrn@OpenHome@@PAVBrh@2@@std@@@std@@@std@@XZ 0040d570 f   libohNetCore:Service.obj
 0001:0000c590       ??0ParameterBinary@Net@OpenHome@@QAE@PBD@Z 0040d590 f   libohNetCore:Service.obj
 0001:0000c5d0       ??1ParameterBinary@Net@OpenHome@@UAE@XZ 0040d5d0 f   libohNetCore:Service.obj
 0001:0000c600       ?ValidateBinary@ParameterBinary@Net@OpenHome@@UBEXABVBrx@3@@Z 0040d600 f   libohNetCore:Service.obj
 0001:0000c620       ??0ParameterRelated@Net@OpenHome@@QAE@PBDABVProperty@12@@Z 0040d620 f   libohNetCore:Service.obj
 0001:0000c670       ??1ParameterRelated@Net@OpenHome@@UAE@XZ 0040d670 f   libohNetCore:Service.obj
 0001:0000c6a0       ?Related@ParameterRelated@Net@OpenHome@@QBEABVProperty@23@XZ 0040d6a0 f   libohNetCore:Service.obj
 0001:0000c6c0       ?Parameter@Property@Net@OpenHome@@QBEABV023@XZ 0040d6c0 f   libohNetCore:Service.obj
 0001:0000c6e0       ?SequenceNumber@Property@Net@OpenHome@@QBEIXZ 0040d6e0 f   libohNetCore:Service.obj
 0001:0000c700       ?ReportChanged@Property@Net@OpenHome@@QAE_NXZ 0040d700 f   libohNetCore:Service.obj
 0001:0000c740       ??0Property@Net@OpenHome@@IAE@PAVParameter@12@AAVFunctor@2@@Z 0040d740 f   libohNetCore:Service.obj
 0001:0000c7e0       ??0Property@Net@OpenHome@@IAE@PAVParameter@12@@Z 0040d7e0 f   libohNetCore:Service.obj
 0001:0000c870       ?Construct@Property@Net@OpenHome@@AAEXPAVParameter@23@@Z 0040d870 f   libohNetCore:Service.obj
 0001:0000c8e0       ??1Property@Net@OpenHome@@UAE@XZ 0040d8e0 f   libohNetCore:Service.obj
 0001:0000c950       ??0PropertyString@Net@OpenHome@@QAE@PBDAAVFunctor@2@@Z 0040d950 f   libohNetCore:Service.obj
 0001:0000ca20       ??0PropertyString@Net@OpenHome@@QAE@PAVParameter@12@@Z 0040da20 f   libohNetCore:Service.obj
 0001:0000caa0       ??1PropertyString@Net@OpenHome@@UAE@XZ 0040daa0 f   libohNetCore:Service.obj
 0001:0000cb10       ?Value@PropertyString@Net@OpenHome@@QBEABVBrx@3@XZ 0040db10 f   libohNetCore:Service.obj
 0001:0000cbe0       ?Process@PropertyString@Net@OpenHome@@UAEXAAVIOutputProcessor@23@ABVBrx@3@@Z 0040dbe0 f   libohNetCore:Service.obj
 0001:0000cd20       ?SetValue@PropertyString@Net@OpenHome@@QAE_NABVBrx@3@@Z 0040dd20 f   libohNetCore:Service.obj
 0001:0000ce20       ?Write@PropertyString@Net@OpenHome@@UAEXAAVIPropertyWriter@23@@Z 0040de20 f   libohNetCore:Service.obj
 0001:0000ce70       ??0PropertyInt@Net@OpenHome@@QAE@PBDAAVFunctor@2@@Z 0040de70 f   libohNetCore:Service.obj
 0001:0000cf30       ??0PropertyInt@Net@OpenHome@@QAE@PAVParameter@12@@Z 0040df30 f   libohNetCore:Service.obj
 0001:0000cf70       ??1PropertyInt@Net@OpenHome@@UAE@XZ 0040df70 f   libohNetCore:Service.obj
 0001:0000cfa0       ?Value@PropertyInt@Net@OpenHome@@QBEHXZ 0040dfa0 f   libohNetCore:Service.obj
 0001:0000d010       ?Process@PropertyInt@Net@OpenHome@@UAEXAAVIOutputProcessor@23@ABVBrx@3@@Z 0040e010 f   libohNetCore:Service.obj
 0001:0000d110       ?SetValue@PropertyInt@Net@OpenHome@@QAE_NH@Z 0040e110 f   libohNetCore:Service.obj
 0001:0000d200       ?Write@PropertyInt@Net@OpenHome@@UAEXAAVIPropertyWriter@23@@Z 0040e200 f   libohNetCore:Service.obj
 0001:0000d250       ??0PropertyUint@Net@OpenHome@@QAE@PBDAAVFunctor@2@@Z 0040e250 f   libohNetCore:Service.obj
 0001:0000d310       ??0PropertyUint@Net@OpenHome@@QAE@PAVParameter@12@@Z 0040e310 f   libohNetCore:Service.obj
 0001:0000d350       ??1PropertyUint@Net@OpenHome@@UAE@XZ 0040e350 f   libohNetCore:Service.obj
 0001:0000d380       ?Value@PropertyUint@Net@OpenHome@@QBEIXZ 0040e380 f   libohNetCore:Service.obj
 0001:0000d3f0       ?Process@PropertyUint@Net@OpenHome@@UAEXAAVIOutputProcessor@23@ABVBrx@3@@Z 0040e3f0 f   libohNetCore:Service.obj
 0001:0000d4f0       ?SetValue@PropertyUint@Net@OpenHome@@QAE_NI@Z 0040e4f0 f   libohNetCore:Service.obj
 0001:0000d5e0       ?Write@PropertyUint@Net@OpenHome@@UAEXAAVIPropertyWriter@23@@Z 0040e5e0 f   libohNetCore:Service.obj
 0001:0000d630       ??0PropertyBool@Net@OpenHome@@QAE@PBDAAVFunctor@2@@Z 0040e630 f   libohNetCore:Service.obj
 0001:0000d6e0       ??0PropertyBool@Net@OpenHome@@QAE@PAVParameter@12@@Z 0040e6e0 f   libohNetCore:Service.obj
 0001:0000d720       ??1PropertyBool@Net@OpenHome@@UAE@XZ 0040e720 f   libohNetCore:Service.obj
 0001:0000d750       ?Value@PropertyBool@Net@OpenHome@@QBE_NXZ 0040e750 f   libohNetCore:Service.obj
 0001:0000d7c0       ?Process@PropertyBool@Net@OpenHome@@UAEXAAVIOutputProcessor@23@ABVBrx@3@@Z 0040e7c0 f   libohNetCore:Service.obj
 0001:0000d8c0       ?SetValue@PropertyBool@Net@OpenHome@@QAE_N_N@Z 0040e8c0 f   libohNetCore:Service.obj
 0001:0000d9c0       ?Write@PropertyBool@Net@OpenHome@@UAEXAAVIPropertyWriter@23@@Z 0040e9c0 f   libohNetCore:Service.obj
 0001:0000da10       ??0PropertyBinary@Net@OpenHome@@QAE@PBDAAVFunctor@2@@Z 0040ea10 f   libohNetCore:Service.obj
 0001:0000dae0       ??0PropertyBinary@Net@OpenHome@@QAE@PAVParameter@12@@Z 0040eae0 f   libohNetCore:Service.obj
 0001:0000db60       ??1PropertyBinary@Net@OpenHome@@UAE@XZ 0040eb60 f   libohNetCore:Service.obj
 0001:0000dbd0       ?Value@PropertyBinary@Net@OpenHome@@QBEABVBrx@3@XZ 0040ebd0 f   libohNetCore:Service.obj
 0001:0000dca0       ?Process@PropertyBinary@Net@OpenHome@@UAEXAAVIOutputProcessor@23@ABVBrx@3@@Z 0040eca0 f   libohNetCore:Service.obj
 0001:0000ddf0       ?SetValue@PropertyBinary@Net@OpenHome@@QAE_NABVBrx@3@@Z 0040edf0 f   libohNetCore:Service.obj
 0001:0000def0       ?Write@PropertyBinary@Net@OpenHome@@UAEXAAVIPropertyWriter@23@@Z 0040eef0 f   libohNetCore:Service.obj
 0001:0000df40       ??0Action@Net@OpenHome@@QAE@PBD@Z 0040ef40 f   libohNetCore:Service.obj
 0001:0000dfc0       ??1Action@Net@OpenHome@@QAE@XZ 0040efc0 f   libohNetCore:Service.obj
 0001:0000e130       ?AddInputParameter@Action@Net@OpenHome@@QAEXPAVParameter@23@@Z 0040f130 f   libohNetCore:Service.obj
 0001:0000e160       ?AddOutputParameter@Action@Net@OpenHome@@QAEXPAVParameter@23@@Z 0040f160 f   libohNetCore:Service.obj
 0001:0000e190       ?Name@Action@Net@OpenHome@@QBEABVBrx@3@XZ 0040f190 f   libohNetCore:Service.obj
 0001:0000e1b0       ?InputParameters@Action@Net@OpenHome@@QBEABV?$vector@PAVParameter@Net@OpenHome@@V?$allocator@PAVParameter@Net@OpenHome@@@std@@@std@@XZ 0040f1b0 f   libohNetCore:Service.obj
 0001:0000e1d0       ?OutputParameters@Action@Net@OpenHome@@QBEABV?$vector@PAVParameter@Net@OpenHome@@V?$allocator@PAVParameter@Net@OpenHome@@@std@@@std@@XZ 0040f1d0 f   libohNetCore:Service.obj
 0001:0000e1f0       ??0ServiceType@Net@OpenHome@@QAE@PBD0I@Z 0040f1f0 f   libohNetCore:Service.obj
 0001:0000e2b0       ??0ServiceType@Net@OpenHome@@QAE@ABV012@@Z 0040f2b0 f   libohNetCore:Service.obj
 0001:0000e390       ??1ServiceType@Net@OpenHome@@QAE@XZ 0040f390 f   libohNetCore:Service.obj
 0001:0000e440       ?Domain@ServiceType@Net@OpenHome@@QBEABVBrx@3@XZ 0040f440 f   libohNetCore:Service.obj
 0001:0000e460       ?Name@ServiceType@Net@OpenHome@@QBEABVBrx@3@XZ 0040f460 f   libohNetCore:Service.obj
 0001:0000e480       ?Version@ServiceType@Net@OpenHome@@QBEIXZ 0040f480 f   libohNetCore:Service.obj
 0001:0000e4a0       ?FullName@ServiceType@Net@OpenHome@@QBEABVBrx@3@XZ 0040f4a0 f   libohNetCore:Service.obj
 0001:0000e5b0       ?FullNameUpnp@ServiceType@Net@OpenHome@@QBEABVBrx@3@XZ 0040f5b0 f   libohNetCore:Service.obj
 0001:0000e760       ?PathUpnp@ServiceType@Net@OpenHome@@QBEABVBrx@3@XZ 0040f760 f   libohNetCore:Service.obj
 0001:0000e840       ?ServiceId@ServiceType@Net@OpenHome@@QBEABVBrx@3@XZ 0040f840 f   libohNetCore:Service.obj
 0001:0000ea00       ??0Service@Net@OpenHome@@IAE@PBD0I@Z 0040fa00 f   libohNetCore:Service.obj
 0001:0000ea40       ?ServiceType@Service@Net@OpenHome@@QBEABV023@XZ 0040fa40 f   libohNetCore:Service.obj
 0001:0000ea60       ??_GParameter@Net@OpenHome@@UAEPAXI@Z 0040fa60 f i libohNetCore:Service.obj
 0001:0000ea60       ??_EParameter@Net@OpenHome@@UAEPAXI@Z 0040fa60 f i libohNetCore:Service.obj
 0001:0000eaa0       ??1Brhz@OpenHome@@UAE@XZ   0040faa0 f i libohNetCore:Service.obj
 0001:0000ead0       ??_EParameterBool@Net@OpenHome@@UAEPAXI@Z 0040fad0 f i libohNetCore:Service.obj
 0001:0000eb50       ??_EParameterInt@Net@OpenHome@@UAEPAXI@Z 0040fb50 f i libohNetCore:Service.obj
 0001:0000ebd0       ??0ParameterValidationError@OpenHome@@QAE@PBDI@Z 0040fbd0 f i libohNetCore:Service.obj
 0001:0000ec10       ??1ParameterValidationError@OpenHome@@QAE@XZ 0040fc10 f i libohNetCore:Service.obj
 0001:0000ec40       ??_EParameterUint@Net@OpenHome@@UAEPAXI@Z 0040fc40 f i libohNetCore:Service.obj
 0001:0000ecc0       ??_EParameterString@Net@OpenHome@@UAEPAXI@Z 0040fcc0 f i libohNetCore:Service.obj
 0001:0000ed40       ??1?$map@VBrn@OpenHome@@PAVBrh@2@VBufferCmp@2@V?$allocator@U?$pair@$$CBVBrn@OpenHome@@PAVBrh@2@@std@@@std@@@std@@QAE@XZ 0040fd40 f i libohNetCore:Service.obj
 0001:0000ed70       ??1?$pair@VBrn@OpenHome@@PAVBrh@2@@std@@QAE@XZ 0040fd70 f i libohNetCore:Service.obj
 0001:0000eda0       ??1?$pair@V?$_Tree_iterator@V?$_Tree_val@V?$_Tmap_traits@VBrn@OpenHome@@PAVBrh@2@VBufferCmp@2@V?$allocator@U?$pair@$$CBVBrn@OpenHome@@PAVBrh@2@@std@@@std@@$0A@@std@@@std@@@std@@_N@std@@QAE@XZ 0040fda0 f i libohNetCore:Service.obj
 0001:0000edd0       ??1?$_Pair_base@VBrn@OpenHome@@PAVBrh@2@@std@@QAE@XZ 0040fdd0 f i libohNetCore:Service.obj
 0001:0000ee00       ??1?$_Pair_base@V?$_Tree_iterator@V?$_Tree_val@V?$_Tmap_traits@VBrn@OpenHome@@PAVBrh@2@VBufferCmp@2@V?$allocator@U?$pair@$$CBVBrn@OpenHome@@PAVBrh@2@@std@@@std@@$0A@@std@@@std@@@std@@_N@std@@QAE@XZ 0040fe00 f i libohNetCore:Service.obj
 0001:0000ee30       ??1?$_Tree_iterator@V?$_Tree_val@V?$_Tmap_traits@VBrn@OpenHome@@PAVBrh@2@VBufferCmp@2@V?$allocator@U?$pair@$$CBVBrn@OpenHome@@PAVBrh@2@@std@@@std@@$0A@@std@@@std@@@std@@QAE@XZ 0040fe30 f i libohNetCore:Service.obj
 0001:0000ee60       ??1?$_Tree_const_iterator@V?$_Tree_val@V?$_Tmap_traits@VBrn@OpenHome@@PAVBrh@2@VBufferCmp@2@V?$allocator@U?$pair@$$CBVBrn@OpenHome@@PAVBrh@2@@std@@@std@@$0A@@std@@@std@@@std@@QAE@XZ 0040fe60 f i libohNetCore:Service.obj
 0001:0000ee90       ??1?$_Tree_unchecked_const_iterator@V?$_Tree_val@V?$_Tmap_traits@VBrn@OpenHome@@PAVBrh@2@VBufferCmp@2@V?$allocator@U?$pair@$$CBVBrn@OpenHome@@PAVBrh@2@@std@@@std@@$0A@@std@@@std@@U_Iterator_base12@2@@std@@QAE@XZ 0040fe90 f i libohNetCore:Service.obj
 0001:0000eec0       ??1?$_Iterator012@Ubidirectional_iterator_tag@std@@U?$pair@$$CBVBrn@OpenHome@@PAVBrh@2@@2@HPBU32@ABU32@U_Iterator_base12@2@@std@@QAE@XZ 0040fec0 f i libohNetCore:Service.obj
 0001:0000eef0       ??_EParameterBinary@Net@OpenHome@@UAEPAXI@Z 0040fef0 f i libohNetCore:Service.obj
 0001:0000ef70       ??_EParameterRelated@Net@OpenHome@@UAEPAXI@Z 0040ff70 f i libohNetCore:Service.obj
 0001:0000eff0       ??_EProperty@Net@OpenHome@@UAEPAXI@Z 0040fff0 f i libohNetCore:Service.obj
 0001:0000eff0       ??_GProperty@Net@OpenHome@@UAEPAXI@Z 0040fff0 f i libohNetCore:Service.obj
 0001:0000f030       ??0Brhz@OpenHome@@QAE@XZ   00410030 f i libohNetCore:Service.obj
 0001:0000f060       ??0Brv@OpenHome@@IAE@XZ    00410060 f i libohNetCore:Service.obj
 0001:0000f0e0       ??0INonCopyable@OpenHome@@IAE@XZ 004100e0 f i libohNetCore:Service.obj
 0001:0000f100       ??_EBrv@OpenHome@@UAEPAXI@Z 00410100 f i libohNetCore:Service.obj
 0001:0000f180       ??0Brx@OpenHome@@IAE@I@Z   00410180 f i libohNetCore:Service.obj
 0001:0000f1b0       ??_EBrhz@OpenHome@@UAEPAXI@Z 004101b0 f i libohNetCore:Service.obj
 0001:0000f1b0       ??_GBrhz@OpenHome@@UAEPAXI@Z 004101b0 f i libohNetCore:Service.obj
 0001:0000f1f0       ??_EPropertyString@Net@OpenHome@@UAEPAXI@Z 004101f0 f i libohNetCore:Service.obj
 0001:0000f270       ??9Brx@OpenHome@@QBE_NABV01@@Z 00410270 f i libohNetCore:Service.obj
 0001:0000f2b0       ??_EPropertyInt@Net@OpenHome@@UAEPAXI@Z 004102b0 f i libohNetCore:Service.obj
 0001:0000f330       ??_EPropertyUint@Net@OpenHome@@UAEPAXI@Z 00410330 f i libohNetCore:Service.obj
 0001:0000f3b0       ??_EPropertyBool@Net@OpenHome@@UAEPAXI@Z 004103b0 f i libohNetCore:Service.obj
 0001:0000f430       ??0Brh@OpenHome@@QAE@XZ    00410430 f i libohNetCore:Service.obj
 0001:0000f460       ??_EBrh@OpenHome@@UAEPAXI@Z 00410460 f i libohNetCore:Service.obj
 0001:0000f460       ??_GBrh@OpenHome@@UAEPAXI@Z 00410460 f i libohNetCore:Service.obj
 0001:0000f4a0       ??1Brh@OpenHome@@UAE@XZ    004104a0 f i libohNetCore:Service.obj
 0001:0000f4d0       ??_EPropertyBinary@Net@OpenHome@@UAEPAXI@Z 004104d0 f i libohNetCore:Service.obj
 0001:0000f550       ?Set@Brh@OpenHome@@QAEXABVBrx@2@@Z 00410550 f i libohNetCore:Service.obj
 0001:0000f5a0       ?Append@Bwx@OpenHome@@QAEXD@Z 004105a0 f i libohNetCore:Service.obj
 0001:0000f5d0       ??ABwx@OpenHome@@QAEAAEI@Z 004105d0 f i libohNetCore:Service.obj
 0001:0000f600       ??0?$map@VBrn@OpenHome@@PAVBrh@2@VBufferCmp@2@V?$allocator@U?$pair@$$CBVBrn@OpenHome@@PAVBrh@2@@std@@@std@@@std@@QAE@XZ 00410600 f i libohNetCore:Service.obj
 0001:0000f650       ??1?$_Tree@V?$_Tmap_traits@VBrn@OpenHome@@PAVBrh@2@VBufferCmp@2@V?$allocator@U?$pair@$$CBVBrn@OpenHome@@PAVBrh@2@@std@@@std@@$0A@@std@@@std@@QAE@XZ 00410650 f i libohNetCore:Service.obj
 0001:0000f6c0       ?begin@?$_Tree@V?$_Tmap_traits@VBrn@OpenHome@@PAVBrh@2@VBufferCmp@2@V?$allocator@U?$pair@$$CBVBrn@OpenHome@@PAVBrh@2@@std@@@std@@$0A@@std@@@std@@QAE?AV?$_Tree_iterator@V?$_Tree_val@V?$_Tmap_traits@VBrn@OpenHome@@PAVBrh@2@VBufferCmp@2@V?$allocator@U?$pair@$$CBVBrn@OpenHome@@PAVBrh@2@@std@@@std@@$0A@@std@@@std@@@2@XZ 004106c0 f i libohNetCore:Service.obj
 0001:0000f720       ?end@?$_Tree@V?$_Tmap_traits@VBrn@OpenHome@@PAVBrh@2@VBufferCmp@2@V?$allocator@U?$pair@$$CBVBrn@OpenHome@@PAVBrh@2@@std@@@std@@$0A@@std@@@std@@QAE?AV?$_Tree_iterator@V?$_Tree_val@V?$_Tmap_traits@VBrn@OpenHome@@PAVBrh@2@VBufferCmp@2@V?$allocator@U?$pair@$$CBVBrn@OpenHome@@PAVBrh@2@@std@@@std@@$0A@@std@@@std@@@2@XZ 00410720 f i libohNetCore:Service.obj
 0001:0000f770       ?end@?$_Tree@V?$_Tmap_traits@VBrn@OpenHome@@PAVBrh@2@VBufferCmp@2@V?$allocator@U?$pair@$$CBVBrn@OpenHome@@PAVBrh@2@@std@@@std@@$0A@@std@@@std@@QBE?AV?$_Tree_const_iterator@V?$_Tree_val@V?$_Tmap_traits@VBrn@OpenHome@@PAVBrh@2@VBufferCmp@2@V?$allocator@U?$pair@$$CBVBrn@OpenHome@@PAVBrh@2@@std@@@std@@$0A@@std@@@std@@@2@XZ 00410770 f i libohNetCore:Service.obj
 0001:0000f7c0       ?size@?$_Tree@V?$_Tmap_traits@VBrn@OpenHome@@PAVBrh@2@VBufferCmp@2@V?$allocator@U?$pair@$$CBVBrn@OpenHome@@PAVBrh@2@@std@@@std@@$0A@@std@@@std@@QBEIXZ 004107c0 f i libohNetCore:Service.obj
 0001:0000f7e0       ?find@?$_Tree@V?$_Tmap_traits@VBrn@OpenHome@@PAVBrh@2@VBufferCmp@2@V?$allocator@U?$pair@$$CBVBrn@OpenHome@@PAVBrh@2@@std@@@std@@$0A@@std@@@std@@QBE?AV?$_Tree_const_iterator@V?$_Tree_val@V?$_Tmap_traits@VBrn@OpenHome@@PAVBrh@2@VBufferCmp@2@V?$allocator@U?$pair@$$CBVBrn@OpenHome@@PAVBrh@2@@std@@@std@@$0A@@std@@@std@@@2@ABVBrn@OpenHome@@@Z 004107e0 f i libohNetCore:Service.obj
 0001:0000f9c0       ??0?$vector@PAVParameter@Net@OpenHome@@V?$allocator@PAVParameter@Net@OpenHome@@@std@@@std@@QAE@XZ 004109c0 f i libohNetCore:Service.obj
 0001:0000fa00       ??1?$vector@PAVParameter@Net@OpenHome@@V?$allocator@PAVParameter@Net@OpenHome@@@std@@@std@@QAE@XZ 00410a00 f i libohNetCore:Service.obj
 0001:0000fa70       ??A?$vector@PAVParameter@Net@OpenHome@@V?$allocator@PAVParameter@Net@OpenHome@@@std@@@std@@QAEAAPAVParameter@Net@OpenHome@@I@Z 00410a70 f i libohNetCore:Service.obj
 0001:0000fb10       ?push_back@?$vector@PAVParameter@Net@OpenHome@@V?$allocator@PAVParameter@Net@OpenHome@@@std@@@std@@QAEXABQAVParameter@Net@OpenHome@@@Z 00410b10 f i libohNetCore:Service.obj
 0001:0000fc20       ??C?$_Tree_iterator@V?$_Tree_val@V?$_Tmap_traits@VBrn@OpenHome@@PAVBrh@2@VBufferCmp@2@V?$allocator@U?$pair@$$CBVBrn@OpenHome@@PAVBrh@2@@std@@@std@@$0A@@std@@@std@@@std@@QBEPAU?$pair@$$CBVBrn@OpenHome@@PAVBrh@2@@1@XZ 00410c20 f i libohNetCore:Service.obj
 0001:0000fc50       ??E?$_Tree_iterator@V?$_Tree_val@V?$_Tmap_traits@VBrn@OpenHome@@PAVBrh@2@VBufferCmp@2@V?$allocator@U?$pair@$$CBVBrn@OpenHome@@PAVBrh@2@@std@@@std@@$0A@@std@@@std@@@std@@QAE?AV01@H@Z 00410c50 f i libohNetCore:Service.obj
 0001:0000fd20       ??8?$_Tree_const_iterator@V?$_Tree_val@V?$_Tmap_traits@VBrn@OpenHome@@PAVBrh@2@VBufferCmp@2@V?$allocator@U?$pair@$$CBVBrn@OpenHome@@PAVBrh@2@@std@@@std@@$0A@@std@@@std@@@std@@QBE_NABV01@@Z 00410d20 f i libohNetCore:Service.obj
 0001:0000fde0       ??9?$_Tree_const_iterator@V?$_Tree_val@V?$_Tmap_traits@VBrn@OpenHome@@PAVBrh@2@VBufferCmp@2@V?$allocator@U?$pair@$$CBVBrn@OpenHome@@PAVBrh@2@@std@@@std@@$0A@@std@@@std@@@std@@QBE_NABV01@@Z 00410de0 f i libohNetCore:Service.obj
 0001:0000fe20       ??0?$_Tree_const_iterator@V?$_Tree_val@V?$_Tmap_traits@VBrn@OpenHome@@PAVBrh@2@VBufferCmp@2@V?$allocator@U?$pair@$$CBVBrn@OpenHome@@PAVBrh@2@@std@@@std@@$0A@@std@@@std@@@std@@QAE@ABV01@@Z 00410e20 f i libohNetCore:Service.obj
 0001:0000fe50       ??0?$_Tree_iterator@V?$_Tree_val@V?$_Tmap_traits@VBrn@OpenHome@@PAVBrh@2@VBufferCmp@2@V?$allocator@U?$pair@$$CBVBrn@OpenHome@@PAVBrh@2@@std@@@std@@$0A@@std@@@std@@@std@@QAE@ABV01@@Z 00410e50 f i libohNetCore:Service.obj
 0001:0000fe80       ??0?$_Tree_unchecked_const_iterator@V?$_Tree_val@V?$_Tmap_traits@VBrn@OpenHome@@PAVBrh@2@VBufferCmp@2@V?$allocator@U?$pair@$$CBVBrn@OpenHome@@PAVBrh@2@@std@@@std@@$0A@@std@@@std@@U_Iterator_base12@2@@std@@QAE@ABV01@@Z 00410e80 f i libohNetCore:Service.obj
 0001:0000fec0       ??0?$_Iterator012@Ubidirectional_iterator_tag@std@@U?$pair@$$CBVBrn@OpenHome@@PAVBrh@2@@2@HPBU32@ABU32@U_Iterator_base12@2@@std@@QAE@ABU01@@Z 00410ec0 f i libohNetCore:Service.obj
 0001:0000fef0       ??0?$_Tree@V?$_Tmap_traits@VBrn@OpenHome@@PAVBrh@2@VBufferCmp@2@V?$allocator@U?$pair@$$CBVBrn@OpenHome@@PAVBrh@2@@std@@@std@@$0A@@std@@@std@@QAE@ABVBufferCmp@OpenHome@@ABV?$allocator@U?$pair@$$CBVBrn@OpenHome@@PAVBrh@2@@std@@@1@@Z 00410ef0 f i libohNetCore:Service.obj
 0001:0000ff40       ?lower_bound@?$_Tree@V?$_Tmap_traits@VBrn@OpenHome@@PAVBrh@2@VBufferCmp@2@V?$allocator@U?$pair@$$CBVBrn@OpenHome@@PAVBrh@2@@std@@@std@@$0A@@std@@@std@@QBE?AV?$_Tree_const_iterator@V?$_Tree_val@V?$_Tmap_traits@VBrn@OpenHome@@PAVBrh@2@VBufferCmp@2@V?$allocator@U?$pair@$$CBVBrn@OpenHome@@PAVBrh@2@@std@@@std@@$0A@@std@@@std@@@2@ABVBrn@OpenHome@@@Z 00410f40 f i libohNetCore:Service.obj
 0001:0000ffa0       ?_Lmost@?$_Tree@V?$_Tmap_traits@VBrn@OpenHome@@PAVBrh@2@VBufferCmp@2@V?$allocator@U?$pair@$$CBVBrn@OpenHome@@PAVBrh@2@@std@@@std@@$0A@@std@@@std@@IBEAAPAU_Node@?$_Tree_nod@V?$_Tmap_traits@VBrn@OpenHome@@PAVBrh@2@VBufferCmp@2@V?$allocator@U?$pair@$$CBVBrn@OpenHome@@PAVBrh@2@@std@@@std@@$0A@@std@@@2@XZ 00410fa0 f i libohNetCore:Service.obj
 0001:0000ffd0       ?_Tidy@?$_Tree@V?$_Tmap_traits@VBrn@OpenHome@@PAVBrh@2@VBufferCmp@2@V?$allocator@U?$pair@$$CBVBrn@OpenHome@@PAVBrh@2@@std@@@std@@$0A@@std@@@std@@IAEXXZ 00410fd0 f i libohNetCore:Service.obj
 0001:000100d0       ??1?$_Tree_val@V?$_Tmap_traits@VBrn@OpenHome@@PAVBrh@2@VBufferCmp@2@V?$allocator@U?$pair@$$CBVBrn@OpenHome@@PAVBrh@2@@std@@@std@@$0A@@std@@@std@@QAE@XZ 004110d0 f i libohNetCore:Service.obj
 0001:00010140       ?_Key@?$_Tree_val@V?$_Tmap_traits@VBrn@OpenHome@@PAVBrh@2@VBufferCmp@2@V?$allocator@U?$pair@$$CBVBrn@OpenHome@@PAVBrh@2@@std@@@std@@$0A@@std@@@std@@SGAAVBrn@OpenHome@@PAU_Node@?$_Tree_nod@V?$_Tmap_traits@VBrn@OpenHome@@PAVBrh@2@VBufferCmp@2@V?$allocator@U?$pair@$$CBVBrn@OpenHome@@PAVBrh@2@@std@@@std@@$0A@@std@@@2@@Z 00411140 f i libohNetCore:Service.obj
 0001:00010160       ??0?$allocator@U?$pair@$$CBVBrn@OpenHome@@PAVBrh@2@@std@@@std@@QAE@XZ 00411160 f i libohNetCore:Service.obj
 0001:00010180       ?_Inside@?$vector@PAVParameter@Net@OpenHome@@V?$allocator@PAVParameter@Net@OpenHome@@@std@@@std@@IBE_NPBQAVParameter@Net@OpenHome@@@Z 00411180 f i libohNetCore:Service.obj
 0001:000101d0       ?_Reserve@?$vector@PAVParameter@Net@OpenHome@@V?$allocator@PAVParameter@Net@OpenHome@@@std@@@std@@IAEXI@Z 004111d0 f i libohNetCore:Service.obj
 0001:00010250       ?_Tidy@?$vector@PAVParameter@Net@OpenHome@@V?$allocator@PAVParameter@Net@OpenHome@@@std@@@std@@IAEXXZ 00411250 f i libohNetCore:Service.obj
 0001:000102e0       ?_Orphan_range@?$vector@PAVParameter@Net@OpenHome@@V?$allocator@PAVParameter@Net@OpenHome@@@std@@@std@@IBEXPAPAVParameter@Net@OpenHome@@0@Z 004112e0 f i libohNetCore:Service.obj
 0001:000103f0       ??0?$_Vector_val@PAVParameter@Net@OpenHome@@V?$allocator@PAVParameter@Net@OpenHome@@@std@@@std@@QAE@V?$allocator@PAVParameter@Net@OpenHome@@@1@@Z 004113f0 f i libohNetCore:Service.obj
 0001:00010510       ??1?$_Vector_val@PAVParameter@Net@OpenHome@@V?$allocator@PAVParameter@Net@OpenHome@@@std@@@std@@QAE@XZ 00411510 f i libohNetCore:Service.obj
 0001:000105f0       ??0?$allocator@PAVParameter@Net@OpenHome@@@std@@QAE@XZ 004115f0 f i libohNetCore:Service.obj
 0001:00010610       ??0?$_Tree_iterator@V?$_Tree_val@V?$_Tmap_traits@VBrn@OpenHome@@PAVBrh@2@VBufferCmp@2@V?$allocator@U?$pair@$$CBVBrn@OpenHome@@PAVBrh@2@@std@@@std@@$0A@@std@@@std@@@std@@QAE@PAU_Node@?$_Tree_nod@V?$_Tmap_traits@VBrn@OpenHome@@PAVBrh@2@VBufferCmp@2@V?$allocator@U?$pair@$$CBVBrn@OpenHome@@PAVBrh@2@@std@@@std@@$0A@@std@@@1@PBV?$_Tree_val@V?$_Tmap_traits@VBrn@OpenHome@@PAVBrh@2@VBufferCmp@2@V?$allocator@U?$pair@$$CBVBrn@OpenHome@@PAVBrh@2@@std@@@std@@$0A@@std@@@1@@Z 00411610 f i libohNetCore:Service.obj
 0001:00010650       ??D?$_Tree_iterator@V?$_Tree_val@V?$_Tmap_traits@VBrn@OpenHome@@PAVBrh@2@VBufferCmp@2@V?$allocator@U?$pair@$$CBVBrn@OpenHome@@PAVBrh@2@@std@@@std@@$0A@@std@@@std@@@std@@QBEAAU?$pair@$$CBVBrn@OpenHome@@PAVBrh@2@@1@XZ 00411650 f i libohNetCore:Service.obj
 0001:00010680       ??E?$_Tree_iterator@V?$_Tree_val@V?$_Tmap_traits@VBrn@OpenHome@@PAVBrh@2@VBufferCmp@2@V?$allocator@U?$pair@$$CBVBrn@OpenHome@@PAVBrh@2@@std@@@std@@$0A@@std@@@std@@@std@@QAEAAV01@XZ 00411680 f i libohNetCore:Service.obj
 0001:000106b0       ??0?$_Tree_const_iterator@V?$_Tree_val@V?$_Tmap_traits@VBrn@OpenHome@@PAVBrh@2@VBufferCmp@2@V?$allocator@U?$pair@$$CBVBrn@OpenHome@@PAVBrh@2@@std@@@std@@$0A@@std@@@std@@@std@@QAE@PAU_Node@?$_Tree_nod@V?$_Tmap_traits@VBrn@OpenHome@@PAVBrh@2@VBufferCmp@2@V?$allocator@U?$pair@$$CBVBrn@OpenHome@@PAVBrh@2@@std@@@std@@$0A@@std@@@1@PBV?$_Tree_val@V?$_Tmap_traits@VBrn@OpenHome@@PAVBrh@2@VBufferCmp@2@V?$allocator@U?$pair@$$CBVBrn@OpenHome@@PAVBrh@2@@std@@@std@@$0A@@std@@@1@@Z 004116b0 f i libohNetCore:Service.obj
 0001:000106f0       ?_Mynode@?$_Tree_unchecked_const_iterator@V?$_Tree_val@V?$_Tmap_traits@VBrn@OpenHome@@PAVBrh@2@VBufferCmp@2@V?$allocator@U?$pair@$$CBVBrn@OpenHome@@PAVBrh@2@@std@@@std@@$0A@@std@@@std@@U_Iterator_base12@2@@std@@QBEPAU_Node@?$_Tree_nod@V?$_Tmap_traits@VBrn@OpenHome@@PAVBrh@2@VBufferCmp@2@V?$allocator@U?$pair@$$CBVBrn@OpenHome@@PAVBrh@2@@std@@@std@@$0A@@std@@@2@XZ 004116f0 f i libohNetCore:Service.obj
 0001:00010710       ?erase@?$_Tree@V?$_Tmap_traits@VBrn@OpenHome@@PAVBrh@2@VBufferCmp@2@V?$allocator@U?$pair@$$CBVBrn@OpenHome@@PAVBrh@2@@std@@@std@@$0A@@std@@@std@@QAE?AV?$_Tree_iterator@V?$_Tree_val@V?$_Tmap_traits@VBrn@OpenHome@@PAVBrh@2@VBufferCmp@2@V?$allocator@U?$pair@$$CBVBrn@OpenHome@@PAVBrh@2@@std@@@std@@$0A@@std@@@std@@@2@V?$_Tree_const_iterator@V?$_Tree_val@V?$_Tmap_traits@VBrn@OpenHome@@PAVBrh@2@VBufferCmp@2@V?$allocator@U?$pair@$$CBVBrn@OpenHome@@PAVBrh@2@@std@@@std@@$0A@@std@@@std@@@2@0@Z 00411710 f i libohNetCore:Service.obj
 0001:00010910       ?_Lbound@?$_Tree@V?$_Tmap_traits@VBrn@OpenHome@@PAVBrh@2@VBufferCmp@2@V?$allocator@U?$pair@$$CBVBrn@OpenHome@@PAVBrh@2@@std@@@std@@$0A@@std@@@std@@IBEPAU_Node@?$_Tree_nod@V?$_Tmap_traits@VBrn@OpenHome@@PAVBrh@2@VBufferCmp@2@V?$allocator@U?$pair@$$CBVBrn@OpenHome@@PAVBrh@2@@std@@@std@@$0A@@std@@@2@ABVBrn@OpenHome@@@Z 00411910 f i libohNetCore:Service.obj
 0001:000109c0       ??0?$_Tree_val@V?$_Tmap_traits@VBrn@OpenHome@@PAVBrh@2@VBufferCmp@2@V?$allocator@U?$pair@$$CBVBrn@OpenHome@@PAVBrh@2@@std@@@std@@$0A@@std@@@std@@QAE@ABVBufferCmp@OpenHome@@V?$allocator@U?$pair@$$CBVBrn@OpenHome@@PAVBrh@2@@std@@@1@@Z 004119c0 f i libohNetCore:Service.obj
 0001:00010ac0       ?_Left@?$_Tree_val@V?$_Tmap_traits@VBrn@OpenHome@@PAVBrh@2@VBufferCmp@2@V?$allocator@U?$pair@$$CBVBrn@OpenHome@@PAVBrh@2@@std@@@std@@$0A@@std@@@std@@SGAAPAU_Node@?$_Tree_nod@V?$_Tmap_traits@VBrn@OpenHome@@PAVBrh@2@VBufferCmp@2@V?$allocator@U?$pair@$$CBVBrn@OpenHome@@PAVBrh@2@@std@@@std@@$0A@@std@@@2@PAU342@@Z 00411ac0 f i libohNetCore:Service.obj
 0001:00010ad0       ?_Myval@?$_Tree_val@V?$_Tmap_traits@VBrn@OpenHome@@PAVBrh@2@VBufferCmp@2@V?$allocator@U?$pair@$$CBVBrn@OpenHome@@PAVBrh@2@@std@@@std@@$0A@@std@@@std@@SGAAU?$pair@$$CBVBrn@OpenHome@@PAVBrh@2@@2@PAU_Node@?$_Tree_nod@V?$_Tmap_traits@VBrn@OpenHome@@PAVBrh@2@VBufferCmp@2@V?$allocator@U?$pair@$$CBVBrn@OpenHome@@PAVBrh@2@@std@@@std@@$0A@@std@@@2@@Z 00411ad0 f i libohNetCore:Service.obj
 0001:00010ae0       ??1?$_Tree_nod@V?$_Tmap_traits@VBrn@OpenHome@@PAVBrh@2@VBufferCmp@2@V?$allocator@U?$pair@$$CBVBrn@OpenHome@@PAVBrh@2@@std@@@std@@$0A@@std@@@std@@QAE@XZ 00411ae0 f i libohNetCore:Service.obj
 0001:00010bc0       ??0?$allocator@U?$pair@$$CBVBrn@OpenHome@@PAVBrh@2@@std@@@std@@QAE@ABV01@@Z 00411bc0 f i libohNetCore:Service.obj
 0001:00010be0       ?deallocate@?$allocator@U_Node@?$_Tree_nod@V?$_Tmap_traits@VBrn@OpenHome@@PAVBrh@2@VBufferCmp@2@V?$allocator@U?$pair@$$CBVBrn@OpenHome@@PAVBrh@2@@std@@@std@@$0A@@std@@@std@@@std@@QAEXPAU_Node@?$_Tree_nod@V?$_Tmap_traits@VBrn@OpenHome@@PAVBrh@2@VBufferCmp@2@V?$allocator@U?$pair@$$CBVBrn@OpenHome@@PAVBrh@2@@std@@@std@@$0A@@std@@@2@I@Z 00411be0 f i libohNetCore:Service.obj
 0001:00010c10       ?reserve@?$vector@PAVParameter@Net@OpenHome@@V?$allocator@PAVParameter@Net@OpenHome@@@std@@@std@@QAEXI@Z 00411c10 f i libohNetCore:Service.obj
 0001:00010d80       ?capacity@?$vector@PAVParameter@Net@OpenHome@@V?$allocator@PAVParameter@Net@OpenHome@@@std@@@std@@QBEIXZ 00411d80 f i libohNetCore:Service.obj
 0001:00010db0       ?max_size@?$vector@PAVParameter@Net@OpenHome@@V?$allocator@PAVParameter@Net@OpenHome@@@std@@@std@@QBEIXZ 00411db0 f i libohNetCore:Service.obj
 0001:00010de0       ?_Destroy@?$vector@PAVParameter@Net@OpenHome@@V?$allocator@PAVParameter@Net@OpenHome@@@std@@@std@@IAEXPAPAVParameter@Net@OpenHome@@0@Z 00411de0 f i libohNetCore:Service.obj
 0001:00010e20       ?_Grow_to@?$vector@PAVParameter@Net@OpenHome@@V?$allocator@PAVParameter@Net@OpenHome@@@std@@@std@@IBEII@Z 00411e20 f i libohNetCore:Service.obj
 0001:00010ea0       ?_Xlen@?$vector@PAVParameter@Net@OpenHome@@V?$allocator@PAVParameter@Net@OpenHome@@@std@@@std@@IBEXXZ 00411ea0 f i libohNetCore:Service.obj
 0001:00010ed0       ??0?$allocator@PAVParameter@Net@OpenHome@@@std@@QAE@ABV01@@Z 00411ed0 f i libohNetCore:Service.obj
 0001:00010ef0       ?deallocate@?$allocator@PAVParameter@Net@OpenHome@@@std@@QAEXPAPAVParameter@Net@OpenHome@@I@Z 00411ef0 f i libohNetCore:Service.obj
 0001:00010f20       ??D?$_Tree_const_iterator@V?$_Tree_val@V?$_Tmap_traits@VBrn@OpenHome@@PAVBrh@2@VBufferCmp@2@V?$allocator@U?$pair@$$CBVBrn@OpenHome@@PAVBrh@2@@std@@@std@@$0A@@std@@@std@@@std@@QBEABU?$pair@$$CBVBrn@OpenHome@@PAVBrh@2@@1@XZ 00411f20 f i libohNetCore:Service.obj
 0001:00010fe0       ??E?$_Tree_const_iterator@V?$_Tree_val@V?$_Tmap_traits@VBrn@OpenHome@@PAVBrh@2@VBufferCmp@2@V?$allocator@U?$pair@$$CBVBrn@OpenHome@@PAVBrh@2@@std@@@std@@$0A@@std@@@std@@@std@@QAEAAV01@XZ 00411fe0 f i libohNetCore:Service.obj
 0001:000110a0       ??0?$_Tree_unchecked_const_iterator@V?$_Tree_val@V?$_Tmap_traits@VBrn@OpenHome@@PAVBrh@2@VBufferCmp@2@V?$allocator@U?$pair@$$CBVBrn@OpenHome@@PAVBrh@2@@std@@@std@@$0A@@std@@@std@@U_Iterator_base12@2@@std@@QAE@PAU_Node@?$_Tree_nod@V?$_Tmap_traits@VBrn@OpenHome@@PAVBrh@2@VBufferCmp@2@V?$allocator@U?$pair@$$CBVBrn@OpenHome@@PAVBrh@2@@std@@@std@@$0A@@std@@@1@PBV?$_Tree_val@V?$_Tmap_traits@VBrn@OpenHome@@PAVBrh@2@VBufferCmp@2@V?$allocator@U?$pair@$$CBVBrn@OpenHome@@PAVBrh@2@@std@@@std@@$0A@@std@@@1@@Z 004120a0 f i libohNetCore:Service.obj
 0001:00011120       ??1?$_Tmap_traits@VBrn@OpenHome@@PAVBrh@2@VBufferCmp@2@V?$allocator@U?$pair@$$CBVBrn@OpenHome@@PAVBrh@2@@std@@@std@@$0A@@std@@QAE@XZ 00412120 f i libohNetCore:Service.obj
 0001:00011150       ??0?$_Iterator012@Ubidirectional_iterator_tag@std@@U?$pair@$$CBVBrn@OpenHome@@PAVBrh@2@@2@HPBU32@ABU32@U_Iterator_base12@2@@std@@QAE@XZ 00412150 f i libohNetCore:Service.obj
 0001:00011180       ?erase@?$_Tree@V?$_Tmap_traits@VBrn@OpenHome@@PAVBrh@2@VBufferCmp@2@V?$allocator@U?$pair@$$CBVBrn@OpenHome@@PAVBrh@2@@std@@@std@@$0A@@std@@@std@@QAE?AV?$_Tree_iterator@V?$_Tree_val@V?$_Tmap_traits@VBrn@OpenHome@@PAVBrh@2@VBufferCmp@2@V?$allocator@U?$pair@$$CBVBrn@OpenHome@@PAVBrh@2@@std@@@std@@$0A@@std@@@std@@@2@V?$_Tree_const_iterator@V?$_Tree_val@V?$_Tmap_traits@VBrn@OpenHome@@PAVBrh@2@VBufferCmp@2@V?$allocator@U?$pair@$$CBVBrn@OpenHome@@PAVBrh@2@@std@@@std@@$0A@@std@@@std@@@2@@Z 00412180 f i libohNetCore:Service.obj
 0001:00011890       ?clear@?$_Tree@V?$_Tmap_traits@VBrn@OpenHome@@PAVBrh@2@VBufferCmp@2@V?$allocator@U?$pair@$$CBVBrn@OpenHome@@PAVBrh@2@@std@@@std@@$0A@@std@@@std@@QAEXXZ 00412890 f i libohNetCore:Service.obj
 0001:00011910       ?_Root@?$_Tree@V?$_Tmap_traits@VBrn@OpenHome@@PAVBrh@2@VBufferCmp@2@V?$allocator@U?$pair@$$CBVBrn@OpenHome@@PAVBrh@2@@std@@@std@@$0A@@std@@@std@@IBEAAPAU_Node@?$_Tree_nod@V?$_Tmap_traits@VBrn@OpenHome@@PAVBrh@2@VBufferCmp@2@V?$allocator@U?$pair@$$CBVBrn@OpenHome@@PAVBrh@2@@std@@@std@@$0A@@std@@@2@XZ 00412910 f i libohNetCore:Service.obj
 0001:00011940       ?_Color@?$_Tree_val@V?$_Tmap_traits@VBrn@OpenHome@@PAVBrh@2@VBufferCmp@2@V?$allocator@U?$pair@$$CBVBrn@OpenHome@@PAVBrh@2@@std@@@std@@$0A@@std@@@std@@SGAADPAU_Node@?$_Tree_nod@V?$_Tmap_traits@VBrn@OpenHome@@PAVBrh@2@VBufferCmp@2@V?$allocator@U?$pair@$$CBVBrn@OpenHome@@PAVBrh@2@@std@@@std@@$0A@@std@@@2@@Z 00412940 f i libohNetCore:Service.obj
 0001:00011950       ?_Isnil@?$_Tree_val@V?$_Tmap_traits@VBrn@OpenHome@@PAVBrh@2@VBufferCmp@2@V?$allocator@U?$pair@$$CBVBrn@OpenHome@@PAVBrh@2@@std@@@std@@$0A@@std@@@std@@SGAADPAU_Node@?$_Tree_nod@V?$_Tmap_traits@VBrn@OpenHome@@PAVBrh@2@VBufferCmp@2@V?$allocator@U?$pair@$$CBVBrn@OpenHome@@PAVBrh@2@@std@@@std@@$0A@@std@@@2@@Z 00412950 f i libohNetCore:Service.obj
 0001:00011960       ?_Parent@?$_Tree_val@V?$_Tmap_traits@VBrn@OpenHome@@PAVBrh@2@VBufferCmp@2@V?$allocator@U?$pair@$$CBVBrn@OpenHome@@PAVBrh@2@@std@@@std@@$0A@@std@@@std@@SGAAPAU_Node@?$_Tree_nod@V?$_Tmap_traits@VBrn@OpenHome@@PAVBrh@2@VBufferCmp@2@V?$allocator@U?$pair@$$CBVBrn@OpenHome@@PAVBrh@2@@std@@@std@@$0A@@std@@@2@PAU342@@Z 00412960 f i libohNetCore:Service.obj
 0001:00011970       ?_Right@?$_Tree_val@V?$_Tmap_traits@VBrn@OpenHome@@PAVBrh@2@VBufferCmp@2@V?$allocator@U?$pair@$$CBVBrn@OpenHome@@PAVBrh@2@@std@@@std@@$0A@@std@@@std@@SGAAPAU_Node@?$_Tree_nod@V?$_Tmap_traits@VBrn@OpenHome@@PAVBrh@2@VBufferCmp@2@V?$allocator@U?$pair@$$CBVBrn@OpenHome@@PAVBrh@2@@std@@@std@@$0A@@std@@@2@PAU342@@Z 00412970 f i libohNetCore:Service.obj
 0001:00011980       ??0?$_Tree_nod@V?$_Tmap_traits@VBrn@OpenHome@@PAVBrh@2@VBufferCmp@2@V?$allocator@U?$pair@$$CBVBrn@OpenHome@@PAVBrh@2@@std@@@std@@$0A@@std@@@std@@QAE@ABVBufferCmp@OpenHome@@V?$allocator@U?$pair@$$CBVBrn@OpenHome@@PAVBrh@2@@std@@@1@@Z 00412980 f i libohNetCore:Service.obj
 0001:00011a90       ?allocate@?$allocator@U_Node@?$_Tree_nod@V?$_Tmap_traits@VBrn@OpenHome@@PAVBrh@2@VBufferCmp@2@V?$allocator@U?$pair@$$CBVBrn@OpenHome@@PAVBrh@2@@std@@@std@@$0A@@std@@@std@@@std@@QAEPAU_Node@?$_Tree_nod@V?$_Tmap_traits@VBrn@OpenHome@@PAVBrh@2@VBufferCmp@2@V?$allocator@U?$pair@$$CBVBrn@OpenHome@@PAVBrh@2@@std@@@std@@$0A@@std@@@2@I@Z 00412a90 f i libohNetCore:Service.obj
 0001:00011ac0       ?allocate@?$allocator@PAVParameter@Net@OpenHome@@@std@@QAEPAPAVParameter@Net@OpenHome@@I@Z 00412ac0 f i libohNetCore:Service.obj
 0001:00011af0       ?max_size@?$allocator@PAVParameter@Net@OpenHome@@@std@@QBEIXZ 00412af0 f i libohNetCore:Service.obj
 0001:00011b40       ??E?$_Tree_const_iterator@V?$_Tree_val@V?$_Tmap_traits@VBrn@OpenHome@@PAVBrh@2@VBufferCmp@2@V?$allocator@U?$pair@$$CBVBrn@OpenHome@@PAVBrh@2@@std@@@std@@$0A@@std@@@std@@@std@@QAE?AV01@H@Z 00412b40 f i libohNetCore:Service.obj
 0001:00011c10       ??E?$_Tree_unchecked_const_iterator@V?$_Tree_val@V?$_Tmap_traits@VBrn@OpenHome@@PAVBrh@2@VBufferCmp@2@V?$allocator@U?$pair@$$CBVBrn@OpenHome@@PAVBrh@2@@std@@@std@@$0A@@std@@@std@@U_Iterator_base12@2@@std@@QAEAAV01@XZ 00412c10 f i libohNetCore:Service.obj
 0001:00011cd0       ?_Erase@?$_Tree@V?$_Tmap_traits@VBrn@OpenHome@@PAVBrh@2@VBufferCmp@2@V?$allocator@U?$pair@$$CBVBrn@OpenHome@@PAVBrh@2@@std@@@std@@$0A@@std@@@std@@IAEXPAU_Node@?$_Tree_nod@V?$_Tmap_traits@VBrn@OpenHome@@PAVBrh@2@VBufferCmp@2@V?$allocator@U?$pair@$$CBVBrn@OpenHome@@PAVBrh@2@@std@@@std@@$0A@@std@@@2@@Z 00412cd0 f i libohNetCore:Service.obj
 0001:00011d70       ?_Lrotate@?$_Tree@V?$_Tmap_traits@VBrn@OpenHome@@PAVBrh@2@VBufferCmp@2@V?$allocator@U?$pair@$$CBVBrn@OpenHome@@PAVBrh@2@@std@@@std@@$0A@@std@@@std@@IAEXPAU_Node@?$_Tree_nod@V?$_Tmap_traits@VBrn@OpenHome@@PAVBrh@2@VBufferCmp@2@V?$allocator@U?$pair@$$CBVBrn@OpenHome@@PAVBrh@2@@std@@@std@@$0A@@std@@@2@@Z 00412d70 f i libohNetCore:Service.obj
 0001:00011e90       ?_Rmost@?$_Tree@V?$_Tmap_traits@VBrn@OpenHome@@PAVBrh@2@VBufferCmp@2@V?$allocator@U?$pair@$$CBVBrn@OpenHome@@PAVBrh@2@@std@@@std@@$0A@@std@@@std@@IBEAAPAU_Node@?$_Tree_nod@V?$_Tmap_traits@VBrn@OpenHome@@PAVBrh@2@VBufferCmp@2@V?$allocator@U?$pair@$$CBVBrn@OpenHome@@PAVBrh@2@@std@@@std@@$0A@@std@@@2@XZ 00412e90 f i libohNetCore:Service.obj
 0001:00011ec0       ?_Rrotate@?$_Tree@V?$_Tmap_traits@VBrn@OpenHome@@PAVBrh@2@VBufferCmp@2@V?$allocator@U?$pair@$$CBVBrn@OpenHome@@PAVBrh@2@@std@@@std@@$0A@@std@@@std@@IAEXPAU_Node@?$_Tree_nod@V?$_Tmap_traits@VBrn@OpenHome@@PAVBrh@2@VBufferCmp@2@V?$allocator@U?$pair@$$CBVBrn@OpenHome@@PAVBrh@2@@std@@@std@@$0A@@std@@@2@@Z 00412ec0 f i libohNetCore:Service.obj
 0001:00011fe0       ?_Orphan_ptr@?$_Tree@V?$_Tmap_traits@VBrn@OpenHome@@PAVBrh@2@VBufferCmp@2@V?$allocator@U?$pair@$$CBVBrn@OpenHome@@PAVBrh@2@@std@@@std@@$0A@@std@@@std@@IBEXAAV12@PAU_Node@?$_Tree_nod@V?$_Tmap_traits@VBrn@OpenHome@@PAVBrh@2@VBufferCmp@2@V?$allocator@U?$pair@$$CBVBrn@OpenHome@@PAVBrh@2@@std@@@std@@$0A@@std@@@2@@Z 00412fe0 f i libohNetCore:Service.obj
 0001:000120f0       ?_Max@?$_Tree_val@V?$_Tmap_traits@VBrn@OpenHome@@PAVBrh@2@VBufferCmp@2@V?$allocator@U?$pair@$$CBVBrn@OpenHome@@PAVBrh@2@@std@@@std@@$0A@@std@@@std@@SGPAU_Node@?$_Tree_nod@V?$_Tmap_traits@VBrn@OpenHome@@PAVBrh@2@VBufferCmp@2@V?$allocator@U?$pair@$$CBVBrn@OpenHome@@PAVBrh@2@@std@@@std@@$0A@@std@@@2@PAU342@@Z 004130f0 f i libohNetCore:Service.obj
 0001:00012130       ?_Min@?$_Tree_val@V?$_Tmap_traits@VBrn@OpenHome@@PAVBrh@2@VBufferCmp@2@V?$allocator@U?$pair@$$CBVBrn@OpenHome@@PAVBrh@2@@std@@@std@@$0A@@std@@@std@@SGPAU_Node@?$_Tree_nod@V?$_Tmap_traits@VBrn@OpenHome@@PAVBrh@2@VBufferCmp@2@V?$allocator@U?$pair@$$CBVBrn@OpenHome@@PAVBrh@2@@std@@@std@@$0A@@std@@@2@PAU342@@Z 00413130 f i libohNetCore:Service.obj
 0001:00012170       ??0?$_Tmap_traits@VBrn@OpenHome@@PAVBrh@2@VBufferCmp@2@V?$allocator@U?$pair@$$CBVBrn@OpenHome@@PAVBrh@2@@std@@@std@@$0A@@std@@QAE@VBufferCmp@OpenHome@@@Z 00413170 f i libohNetCore:Service.obj
 0001:000121a0       ??$?0AAVBrn@OpenHome@@AAPAVBrh@1@@?$pair@VBrn@OpenHome@@PAVBrh@2@@std@@QAE@AAVBrn@OpenHome@@AAPAVBrh@3@@Z 004131a0 f i libohNetCore:Service.obj
 0001:000121e0       ??$insert@U?$pair@VBrn@OpenHome@@PAVBrh@2@@std@@@?$_Tree@V?$_Tmap_traits@VBrn@OpenHome@@PAVBrh@2@VBufferCmp@2@V?$allocator@U?$pair@$$CBVBrn@OpenHome@@PAVBrh@2@@std@@@std@@$0A@@std@@@std@@QAE?AU?$pair@V?$_Tree_iterator@V?$_Tree_val@V?$_Tmap_traits@VBrn@OpenHome@@PAVBrh@2@VBufferCmp@2@V?$allocator@U?$pair@$$CBVBrn@OpenHome@@PAVBrh@2@@std@@@std@@$0A@@std@@@std@@@std@@_N@1@$$QAU?$pair@VBrn@OpenHome@@PAVBrh@2@@1@@Z 004131e0 f i libohNetCore:Service.obj
 0001:00012240       ??$addressof@QAVParameter@Net@OpenHome@@@std@@YGPBQAVParameter@Net@OpenHome@@ABQAV123@@Z 00413240 f i libohNetCore:Service.obj
 0001:00012250       ??$_Cons_val@V?$allocator@PAVParameter@Net@OpenHome@@@std@@PAVParameter@Net@OpenHome@@AAPAV345@@std@@YGXAAV?$allocator@PAVParameter@Net@OpenHome@@@0@PAPAVParameter@Net@OpenHome@@AAPAV234@@Z 00413250 f i libohNetCore:Service.obj
 0001:00012280       ??$_Cons_val@V?$allocator@PAVParameter@Net@OpenHome@@@std@@PAVParameter@Net@OpenHome@@ABQAV345@@std@@YGXAAV?$allocator@PAVParameter@Net@OpenHome@@@0@PAPAVParameter@Net@OpenHome@@ABQAV234@@Z 00413280 f i libohNetCore:Service.obj
 0001:000122b0       ??$_Kfn@$$CBVBrn@OpenHome@@PAVBrh@2@@?$_Tmap_traits@VBrn@OpenHome@@PAVBrh@2@VBufferCmp@2@V?$allocator@U?$pair@$$CBVBrn@OpenHome@@PAVBrh@2@@std@@@std@@$0A@@std@@SGABVBrn@OpenHome@@ABU?$pair@$$CBVBrn@OpenHome@@PAVBrh@2@@1@@Z 004132b0 f i libohNetCore:Service.obj
 0001:000122c0       ??$?0PAVParameter@Net@OpenHome@@@?$allocator@U_Container_proxy@std@@@std@@QAE@ABV?$allocator@PAVParameter@Net@OpenHome@@@1@@Z 004132c0 f i libohNetCore:Service.obj
 0001:000122e0       ??$?0U_Node@?$_Tree_nod@V?$_Tmap_traits@VBrn@OpenHome@@PAVBrh@2@VBufferCmp@2@V?$allocator@U?$pair@$$CBVBrn@OpenHome@@PAVBrh@2@@std@@@std@@$0A@@std@@@std@@@?$allocator@U_Container_proxy@std@@@std@@QAE@ABV?$allocator@U_Node@?$_Tree_nod@V?$_Tmap_traits@VBrn@OpenHome@@PAVBrh@2@VBufferCmp@2@V?$allocator@U?$pair@$$CBVBrn@OpenHome@@PAVBrh@2@@std@@@std@@$0A@@std@@@std@@@1@@Z 004132e0 f i libohNetCore:Service.obj
 0001:00012300       ??$_Umove@PAPAVParameter@Net@OpenHome@@@?$vector@PAVParameter@Net@OpenHome@@V?$allocator@PAVParameter@Net@OpenHome@@@std@@@std@@IAEPAPAVParameter@Net@OpenHome@@PAPAV234@00@Z 00413300 f i libohNetCore:Service.obj
 0001:00012340       ??$_Destroy_range@V?$allocator@PAVParameter@Net@OpenHome@@@std@@@std@@YGXPAPAVParameter@Net@OpenHome@@0AAV?$allocator@PAVParameter@Net@OpenHome@@@0@@Z 00413340 f i libohNetCore:Service.obj
 0001:00012390       ??$addressof@U?$pair@$$CBVBrn@OpenHome@@PAVBrh@2@@std@@@std@@YGPAU?$pair@$$CBVBrn@OpenHome@@PAVBrh@2@@0@AAU10@@Z 00413390 f i libohNetCore:Service.obj
 0001:000123a0       ??$_Dest_val@V?$allocator@U?$pair@$$CBVBrn@OpenHome@@PAVBrh@2@@std@@@std@@U?$pair@$$CBVBrn@OpenHome@@PAVBrh@2@@2@@std@@YGXAAV?$allocator@U?$pair@$$CBVBrn@OpenHome@@PAVBrh@2@@std@@@0@PAU?$pair@$$CBVBrn@OpenHome@@PAVBrh@2@@0@@Z 004133a0 f i libohNetCore:Service.obj
 0001:000123c0       ??$?0U?$pair@$$CBVBrn@OpenHome@@PAVBrh@2@@std@@@?$allocator@U_Node@?$_Tree_nod@V?$_Tmap_traits@VBrn@OpenHome@@PAVBrh@2@VBufferCmp@2@V?$allocator@U?$pair@$$CBVBrn@OpenHome@@PAVBrh@2@@std@@@std@@$0A@@std@@@std@@@std@@QAE@ABV?$allocator@U?$pair@$$CBVBrn@OpenHome@@PAVBrh@2@@std@@@1@@Z 004133c0 f i libohNetCore:Service.obj
 0001:000123e0       ??$_Allocate@U_Node@?$_Tree_nod@V?$_Tmap_traits@VBrn@OpenHome@@PAVBrh@2@VBufferCmp@2@V?$allocator@U?$pair@$$CBVBrn@OpenHome@@PAVBrh@2@@std@@@std@@$0A@@std@@@std@@@std@@YGPAU_Node@?$_Tree_nod@V?$_Tmap_traits@VBrn@OpenHome@@PAVBrh@2@VBufferCmp@2@V?$allocator@U?$pair@$$CBVBrn@OpenHome@@PAVBrh@2@@std@@@std@@$0A@@std@@@0@IPAU120@@Z 004133e0 f i libohNetCore:Service.obj
 0001:00012460       ??$_Allocate@PAVParameter@Net@OpenHome@@@std@@YGPAPAVParameter@Net@OpenHome@@IPAPAV123@@Z 00413460 f i libohNetCore:Service.obj
 0001:000124e0       ?_Linsert@?$_Tree@V?$_Tmap_traits@VBrn@OpenHome@@PAVBrh@2@VBufferCmp@2@V?$allocator@U?$pair@$$CBVBrn@OpenHome@@PAVBrh@2@@std@@@std@@$0A@@std@@@std@@QAE?AU?$pair@V?$_Tree_iterator@V?$_Tree_val@V?$_Tmap_traits@VBrn@OpenHome@@PAVBrh@2@VBufferCmp@2@V?$allocator@U?$pair@$$CBVBrn@OpenHome@@PAVBrh@2@@std@@@std@@$0A@@std@@@std@@@std@@_N@2@PAU_Node@?$_Tree_nod@V?$_Tmap_traits@VBrn@OpenHome@@PAVBrh@2@VBufferCmp@2@V?$allocator@U?$pair@$$CBVBrn@OpenHome@@PAVBrh@2@@std@@@std@@$0A@@std@@@2@_N@Z 004134e0 f i libohNetCore:Service.obj
 0001:000128c0       ?destroy@?$allocator@U?$pair@$$CBVBrn@OpenHome@@PAVBrh@2@@std@@@std@@QAEXPAU?$pair@$$CBVBrn@OpenHome@@PAVBrh@2@@2@@Z 004138c0 f i libohNetCore:Service.obj
 0001:000128f0       ?construct@?$allocator@PAVParameter@Net@OpenHome@@@std@@QAEXPAPAVParameter@Net@OpenHome@@ABQAV345@@Z 004138f0 f i libohNetCore:Service.obj
 0001:00012920       ?_Insert@?$_Tree@V?$_Tmap_traits@VBrn@OpenHome@@PAVBrh@2@VBufferCmp@2@V?$allocator@U?$pair@$$CBVBrn@OpenHome@@PAVBrh@2@@std@@@std@@$0A@@std@@@std@@IAE?AV?$_Tree_iterator@V?$_Tree_val@V?$_Tmap_traits@VBrn@OpenHome@@PAVBrh@2@VBufferCmp@2@V?$allocator@U?$pair@$$CBVBrn@OpenHome@@PAVBrh@2@@std@@@std@@$0A@@std@@@std@@@2@_NPAU_Node@?$_Tree_nod@V?$_Tmap_traits@VBrn@OpenHome@@PAVBrh@2@VBufferCmp@2@V?$allocator@U?$pair@$$CBVBrn@OpenHome@@PAVBrh@2@@std@@@std@@$0A@@std@@@2@1@Z 00413920 f i libohNetCore:Service.obj
 0001:00012ce0       ??0?$pair@V?$_Tree_iterator@V?$_Tree_val@V?$_Tmap_traits@VBrn@OpenHome@@PAVBrh@2@VBufferCmp@2@V?$allocator@U?$pair@$$CBVBrn@OpenHome@@PAVBrh@2@@std@@@std@@$0A@@std@@@std@@@std@@_N@std@@QAE@$$QAV?$_Tree_iterator@V?$_Tree_val@V?$_Tmap_traits@VBrn@OpenHome@@PAVBrh@2@VBufferCmp@2@V?$allocator@U?$pair@$$CBVBrn@OpenHome@@PAVBrh@2@@std@@@std@@$0A@@std@@@std@@@1@$$QA_N@Z 00413ce0 f i libohNetCore:Service.obj
 0001:00012d20       ??F?$_Tree_iterator@V?$_Tree_val@V?$_Tmap_traits@VBrn@OpenHome@@PAVBrh@2@VBufferCmp@2@V?$allocator@U?$pair@$$CBVBrn@OpenHome@@PAVBrh@2@@std@@@std@@$0A@@std@@@std@@@std@@QAEAAV01@XZ 00413d20 f i libohNetCore:Service.obj
 0001:00012d50       ?max_size@?$_Tree@V?$_Tmap_traits@VBrn@OpenHome@@PAVBrh@2@VBufferCmp@2@V?$allocator@U?$pair@$$CBVBrn@OpenHome@@PAVBrh@2@@std@@@std@@$0A@@std@@@std@@QBEIXZ 00413d50 f i libohNetCore:Service.obj
 0001:00012d80       ??0?$_Pair_base@V?$_Tree_iterator@V?$_Tree_val@V?$_Tmap_traits@VBrn@OpenHome@@PAVBrh@2@VBufferCmp@2@V?$allocator@U?$pair@$$CBVBrn@OpenHome@@PAVBrh@2@@std@@@std@@$0A@@std@@@std@@@std@@_N@std@@QAE@$$QAV?$_Tree_iterator@V?$_Tree_val@V?$_Tmap_traits@VBrn@OpenHome@@PAVBrh@2@VBufferCmp@2@V?$allocator@U?$pair@$$CBVBrn@OpenHome@@PAVBrh@2@@std@@@std@@$0A@@std@@@std@@@1@$$QA_N@Z 00413d80 f i libohNetCore:Service.obj
 0001:00012e00       ??F?$_Tree_const_iterator@V?$_Tree_val@V?$_Tmap_traits@VBrn@OpenHome@@PAVBrh@2@VBufferCmp@2@V?$allocator@U?$pair@$$CBVBrn@OpenHome@@PAVBrh@2@@std@@@std@@$0A@@std@@@std@@@std@@QAEAAV01@XZ 00413e00 f i libohNetCore:Service.obj
 0001:00012f20       ?max_size@?$allocator@U?$pair@$$CBVBrn@OpenHome@@PAVBrh@2@@std@@@std@@QBEIXZ 00413f20 f i libohNetCore:Service.obj
 0001:00012f70       ??F?$_Tree_unchecked_const_iterator@V?$_Tree_val@V?$_Tmap_traits@VBrn@OpenHome@@PAVBrh@2@VBufferCmp@2@V?$allocator@U?$pair@$$CBVBrn@OpenHome@@PAVBrh@2@@std@@@std@@$0A@@std@@@std@@U_Iterator_base12@2@@std@@QAEAAV01@XZ 00413f70 f i libohNetCore:Service.obj
 0001:00013060       ??$forward@AAPAVBrh@OpenHome@@@std@@YGAAPAVBrh@OpenHome@@AAPAV12@@Z 00414060 f i libohNetCore:Service.obj
 0001:00013070       ??$?0AAVBrn@OpenHome@@AAPAVBrh@1@@?$_Pair_base@VBrn@OpenHome@@PAVBrh@2@@std@@QAE@AAVBrn@OpenHome@@AAPAVBrh@3@@Z 00414070 f i libohNetCore:Service.obj
 0001:000130f0       ??$forward@U?$pair@VBrn@OpenHome@@PAVBrh@2@@std@@@std@@YG$$QAU?$pair@VBrn@OpenHome@@PAVBrh@2@@0@AAU10@@Z 004140f0 f i libohNetCore:Service.obj
 0001:00013100       ??$_Buynode@U?$pair@VBrn@OpenHome@@PAVBrh@2@@std@@@?$_Tree_val@V?$_Tmap_traits@VBrn@OpenHome@@PAVBrh@2@VBufferCmp@2@V?$allocator@U?$pair@$$CBVBrn@OpenHome@@PAVBrh@2@@std@@@std@@$0A@@std@@@std@@QAEPAU_Node@?$_Tree_nod@V?$_Tmap_traits@VBrn@OpenHome@@PAVBrh@2@VBufferCmp@2@V?$allocator@U?$pair@$$CBVBrn@OpenHome@@PAVBrh@2@@std@@@std@@$0A@@std@@@1@$$QAU?$pair@VBrn@OpenHome@@PAVBrh@2@@1@@Z 00414100 f i libohNetCore:Service.obj
 0001:000131e0       ??$forward@AAPAVParameter@Net@OpenHome@@@std@@YGAAPAVParameter@Net@OpenHome@@AAPAV123@@Z 004141e0 f i libohNetCore:Service.obj
 0001:000131f0       ??$construct@AAPAVParameter@Net@OpenHome@@@?$allocator@PAVParameter@Net@OpenHome@@@std@@QAEXPAPAVParameter@Net@OpenHome@@AAPAV234@@Z 004141f0 f i libohNetCore:Service.obj
 0001:00013290       ??$forward@ABQAVParameter@Net@OpenHome@@@std@@YGABQAVParameter@Net@OpenHome@@ABQAV123@@Z 00414290 f i libohNetCore:Service.obj
 0001:000132a0       ??$_Uninitialized_move@PAPAVParameter@Net@OpenHome@@PAPAV123@V?$allocator@PAVParameter@Net@OpenHome@@@std@@@std@@YGPAPAVParameter@Net@OpenHome@@PAPAV123@00AAV?$allocator@PAVParameter@Net@OpenHome@@@0@@Z 004142a0 f i libohNetCore:Service.obj
 0001:000132f0       ??$_Ptr_cat@PAVParameter@Net@OpenHome@@PAV123@@std@@YG?AU_Scalar_ptr_iterator_tag@0@PAPAVParameter@Net@OpenHome@@0@Z 004142f0 f i libohNetCore:Service.obj
 0001:00013350       ??$_Destroy_range@V?$allocator@PAVParameter@Net@OpenHome@@@std@@@std@@YGXPAPAVParameter@Net@OpenHome@@0AAV?$allocator@PAVParameter@Net@OpenHome@@@0@U_Scalar_ptr_iterator_tag@0@@Z 00414350 f i libohNetCore:Service.obj
 0001:00013360       ??$?0AAV?$_Tree_iterator@V?$_Tree_val@V?$_Tmap_traits@VBrn@OpenHome@@PAVBrh@2@VBufferCmp@2@V?$allocator@U?$pair@$$CBVBrn@OpenHome@@PAVBrh@2@@std@@@std@@$0A@@std@@@std@@@std@@_N@?$pair@V?$_Tree_iterator@V?$_Tree_val@V?$_Tmap_traits@VBrn@OpenHome@@PAVBrh@2@VBufferCmp@2@V?$allocator@U?$pair@$$CBVBrn@OpenHome@@PAVBrh@2@@std@@@std@@$0A@@std@@@std@@@std@@_N@std@@QAE@AAV?$_Tree_iterator@V?$_Tree_val@V?$_Tmap_traits@VBrn@OpenHome@@PAVBrh@2@VBufferCmp@2@V?$allocator@U?$pair@$$CBVBrn@OpenHome@@PAVBrh@2@@std@@@std@@$0A@@std@@@std@@@1@$$QA_N@Z 00414360 f i libohNetCore:Service.obj
 0001:000133a0       ??$_Destroy@U?$pair@$$CBVBrn@OpenHome@@PAVBrh@2@@std@@@std@@YGXPAU?$pair@$$CBVBrn@OpenHome@@PAVBrh@2@@0@@Z 004143a0 f i libohNetCore:Service.obj
 0001:000133c0       ??$_Construct@PAVParameter@Net@OpenHome@@ABQAV123@@std@@YGXPAPAVParameter@Net@OpenHome@@ABQAV123@@Z 004143c0 f i libohNetCore:Service.obj
 0001:00013470       ??$move@AAV?$_Tree_iterator@V?$_Tree_val@V?$_Tmap_traits@VBrn@OpenHome@@PAVBrh@2@VBufferCmp@2@V?$allocator@U?$pair@$$CBVBrn@OpenHome@@PAVBrh@2@@std@@@std@@$0A@@std@@@std@@@std@@@std@@YG$$QAV?$_Tree_iterator@V?$_Tree_val@V?$_Tmap_traits@VBrn@OpenHome@@PAVBrh@2@VBufferCmp@2@V?$allocator@U?$pair@$$CBVBrn@OpenHome@@PAVBrh@2@@std@@@std@@$0A@@std@@@std@@@0@AAV10@@Z 00414470 f i libohNetCore:Service.obj
 0001:00013480       ??_G?$pair@$$CBVBrn@OpenHome@@PAVBrh@2@@std@@QAEPAXI@Z 00414480 f i libohNetCore:Service.obj
 0001:000134c0       ??1?$pair@$$CBVBrn@OpenHome@@PAVBrh@2@@std@@QAE@XZ 004144c0 f i libohNetCore:Service.obj
 0001:000134f0       ??1?$_Pair_base@$$CBVBrn@OpenHome@@PAVBrh@2@@std@@QAE@XZ 004144f0 f i libohNetCore:Service.obj
 0001:00013520       ?_Buynode@?$_Tree_val@V?$_Tmap_traits@VBrn@OpenHome@@PAVBrh@2@VBufferCmp@2@V?$allocator@U?$pair@$$CBVBrn@OpenHome@@PAVBrh@2@@std@@@std@@$0A@@std@@@std@@QAEPAU_Node@?$_Tree_nod@V?$_Tmap_traits@VBrn@OpenHome@@PAVBrh@2@VBufferCmp@2@V?$allocator@U?$pair@$$CBVBrn@OpenHome@@PAVBrh@2@@std@@@std@@$0A@@std@@@2@XZ 00414520 f i libohNetCore:Service.obj
 0001:000135b0       ??$_Cons_val@V?$allocator@U?$pair@$$CBVBrn@OpenHome@@PAVBrh@2@@std@@@std@@U?$pair@$$CBVBrn@OpenHome@@PAVBrh@2@@2@U?$pair@VBrn@OpenHome@@PAVBrh@2@@2@@std@@YGXAAV?$allocator@U?$pair@$$CBVBrn@OpenHome@@PAVBrh@2@@std@@@0@PAU?$pair@$$CBVBrn@OpenHome@@PAVBrh@2@@0@$$QAU?$pair@VBrn@OpenHome@@PAVBrh@2@@0@@Z 004145b0 f i libohNetCore:Service.obj
 0001:000135e0       ??$_Val_type@PAPAVParameter@Net@OpenHome@@@std@@YGPAPAVParameter@Net@OpenHome@@PAPAV123@@Z 004145e0 f i libohNetCore:Service.obj
 0001:000135f0       ??$_Uninit_move@PAVParameter@Net@OpenHome@@PAV123@PAV123@@std@@YGPAPAVParameter@Net@OpenHome@@PAPAV123@00AAV?$allocator@PAVParameter@Net@OpenHome@@@0@0U_Scalar_ptr_iterator_tag@0@@Z 004145f0 f i libohNetCore:Service.obj
 0001:00013660       ??$forward@AAV?$_Tree_iterator@V?$_Tree_val@V?$_Tmap_traits@VBrn@OpenHome@@PAVBrh@2@VBufferCmp@2@V?$allocator@U?$pair@$$CBVBrn@OpenHome@@PAVBrh@2@@std@@@std@@$0A@@std@@@std@@@std@@@std@@YGAAV?$_Tree_iterator@V?$_Tree_val@V?$_Tmap_traits@VBrn@OpenHome@@PAVBrh@2@VBufferCmp@2@V?$allocator@U?$pair@$$CBVBrn@OpenHome@@PAVBrh@2@@std@@@std@@$0A@@std@@@std@@@0@AAV10@@Z 00414660 f i libohNetCore:Service.obj
 0001:00013670       ??$?0AAV?$_Tree_iterator@V?$_Tree_val@V?$_Tmap_traits@VBrn@OpenHome@@PAVBrh@2@VBufferCmp@2@V?$allocator@U?$pair@$$CBVBrn@OpenHome@@PAVBrh@2@@std@@@std@@$0A@@std@@@std@@@std@@_N@?$_Pair_base@V?$_Tree_iterator@V?$_Tree_val@V?$_Tmap_traits@VBrn@OpenHome@@PAVBrh@2@VBufferCmp@2@V?$allocator@U?$pair@$$CBVBrn@OpenHome@@PAVBrh@2@@std@@@std@@$0A@@std@@@std@@@std@@_N@std@@QAE@AAV?$_Tree_iterator@V?$_Tree_val@V?$_Tmap_traits@VBrn@OpenHome@@PAVBrh@2@VBufferCmp@2@V?$allocator@U?$pair@$$CBVBrn@OpenHome@@PAVBrh@2@@std@@@std@@$0A@@std@@@std@@@1@$$QA_N@Z 00414670 f i libohNetCore:Service.obj
 0001:000136f0       ??$construct@U?$pair@VBrn@OpenHome@@PAVBrh@2@@std@@@?$allocator@U?$pair@$$CBVBrn@OpenHome@@PAVBrh@2@@std@@@std@@QAEXPAU?$pair@$$CBVBrn@OpenHome@@PAVBrh@2@@1@$$QAU?$pair@VBrn@OpenHome@@PAVBrh@2@@1@@Z 004146f0 f i libohNetCore:Service.obj
 0001:00013790       ??$_Debug_range@PAPAVParameter@Net@OpenHome@@@std@@YGXPAPAVParameter@Net@OpenHome@@0PB_WI@Z 00414790 f i libohNetCore:Service.obj
 0001:000137e0       ??$_Debug_pointer@PAVParameter@Net@OpenHome@@@std@@YGXPAPAVParameter@Net@OpenHome@@PB_WI@Z 004147e0 f i libohNetCore:Service.obj
 0001:00013810       ??$?0VBrn@OpenHome@@PAVBrh@1@@?$pair@$$CBVBrn@OpenHome@@PAVBrh@2@@std@@QAE@$$QAU?$pair@VBrn@OpenHome@@PAVBrh@2@@1@@Z 00414810 f i libohNetCore:Service.obj
 0001:00013850       ??$_Iter_cat@PAPAVParameter@Net@OpenHome@@@std@@YG?AUrandom_access_iterator_tag@0@ABQAPAVParameter@Net@OpenHome@@@Z 00414850 f i libohNetCore:Service.obj
 0001:000138b0       ??$_Debug_range2@PAPAVParameter@Net@OpenHome@@@std@@YGXPAPAVParameter@Net@OpenHome@@0PB_WIUrandom_access_iterator_tag@0@@Z 004148b0 f i libohNetCore:Service.obj
 0001:00013910       ??$forward@PAVBrh@OpenHome@@@std@@YG$$QAPAVBrh@OpenHome@@AAPAV12@@Z 00414910 f i libohNetCore:Service.obj
 0001:00013920       ??$?0VBrn@OpenHome@@PAVBrh@1@@?$_Pair_base@$$CBVBrn@OpenHome@@PAVBrh@2@@std@@QAE@$$QAVBrn@OpenHome@@$$QAPAVBrh@3@@Z 00414920 f i libohNetCore:Service.obj
 0001:000139a0       ?Udn@CpDevice@Net@OpenHome@@QBEABVBrx@3@XZ 004149a0 f   libohNetCore:CpDeviceCore.obj
 0001:000139d0       ??8CpDevice@Net@OpenHome@@QBE_NABV012@@Z 004149d0 f   libohNetCore:CpDeviceCore.obj
 0001:00013a00       ??9CpDevice@Net@OpenHome@@QBE_NABV012@@Z 00414a00 f   libohNetCore:CpDeviceCore.obj
 0001:00013a30       ?AddRef@CpDevice@Net@OpenHome@@QAEXXZ 00414a30 f   libohNetCore:CpDeviceCore.obj
 0001:00013a70       ?RemoveRef@CpDevice@Net@OpenHome@@QAEXXZ 00414a70 f   libohNetCore:CpDeviceCore.obj
 0001:00013b00       ?GetAttribute@CpDevice@Net@OpenHome@@QBE_NPBDAAVBrh@3@@Z 00414b00 f   libohNetCore:CpDeviceCore.obj
 0001:00013b50       ?Device@CpDevice@Net@OpenHome@@QAEAAVCpiDevice@23@XZ 00414b50 f   libohNetCore:CpDeviceCore.obj
 0001:00013b70       ??0CpDevice@Net@OpenHome@@QAE@AAVCpiDevice@12@@Z 00414b70 f   libohNetCore:CpDeviceCore.obj
 0001:00013bc0       ??1CpDevice@Net@OpenHome@@MAE@XZ 00414bc0 f   libohNetCore:CpDeviceCore.obj
 0001:00013be0       ??1CpDeviceList@Net@OpenHome@@QAE@XZ 00414be0 f   libohNetCore:CpDeviceCore.obj
 0001:00013d50       ?Refresh@CpDeviceList@Net@OpenHome@@QAEXXZ 00414d50 f   libohNetCore:CpDeviceCore.obj
 0001:00013d90       ??0CpDeviceList@Net@OpenHome@@IAE@VFunctorCpDevice@12@0@Z 00414d90 f   libohNetCore:CpDeviceCore.obj
 0001:00013eb0       ?GetAddedFunctor@CpDeviceList@Net@OpenHome@@IAEXAAVFunctorCpiDevice@23@@Z 00414eb0 f   libohNetCore:CpDeviceCore.obj
 0001:00013f20       ?GetRemovedFunctor@CpDeviceList@Net@OpenHome@@IAEXAAVFunctorCpiDevice@23@@Z 00414f20 f   libohNetCore:CpDeviceCore.obj
 0001:00013f90       ?Added@CpDeviceList@Net@OpenHome@@AAEXAAVCpiDevice@23@@Z 00414f90 f   libohNetCore:CpDeviceCore.obj
 0001:000140f0       ?Removed@CpDeviceList@Net@OpenHome@@AAEXAAVCpiDevice@23@@Z 004150f0 f   libohNetCore:CpDeviceCore.obj
 0001:00014260       ??_GCpDevice@Net@OpenHome@@MAEPAXI@Z 00415260 f i libohNetCore:CpDeviceCore.obj
 0001:00014260       ??_ECpDevice@Net@OpenHome@@MAEPAXI@Z 00415260 f i libohNetCore:CpDeviceCore.obj
 0001:000142a0       ??1?$map@VBrn@OpenHome@@PAVCpDevice@Net@2@VBufferCmp@2@V?$allocator@U?$pair@$$CBVBrn@OpenHome@@PAVCpDevice@Net@2@@std@@@std@@@std@@QAE@XZ 004152a0 f i libohNetCore:CpDeviceCore.obj
 0001:000142d0       ??1?$_Tree_iterator@V?$_Tree_val@V?$_Tmap_traits@VBrn@OpenHome@@PAVCpDevice@Net@2@VBufferCmp@2@V?$allocator@U?$pair@$$CBVBrn@OpenHome@@PAVCpDevice@Net@2@@std@@@std@@$0A@@std@@@std@@@std@@QAE@XZ 004152d0 f i libohNetCore:CpDeviceCore.obj
 0001:00014300       ??1?$_Tree_const_iterator@V?$_Tree_val@V?$_Tmap_traits@VBrn@OpenHome@@PAVCpDevice@Net@2@VBufferCmp@2@V?$allocator@U?$pair@$$CBVBrn@OpenHome@@PAVCpDevice@Net@2@@std@@@std@@$0A@@std@@@std@@@std@@QAE@XZ 00415300 f i libohNetCore:CpDeviceCore.obj
 0001:00014330       ??1?$_Tree_unchecked_const_iterator@V?$_Tree_val@V?$_Tmap_traits@VBrn@OpenHome@@PAVCpDevice@Net@2@VBufferCmp@2@V?$allocator@U?$pair@$$CBVBrn@OpenHome@@PAVCpDevice@Net@2@@std@@@std@@$0A@@std@@@std@@U_Iterator_base12@2@@std@@QAE@XZ 00415330 f i libohNetCore:CpDeviceCore.obj
 0001:00014360       ??1?$_Iterator012@Ubidirectional_iterator_tag@std@@U?$pair@$$CBVBrn@OpenHome@@PAVCpDevice@Net@2@@2@HPBU32@ABU32@U_Iterator_base12@2@@std@@QAE@XZ 00415360 f i libohNetCore:CpDeviceCore.obj
 0001:00014390       ??BFunctorCpDevice@Net@OpenHome@@QBE_NXZ 00415390 f i libohNetCore:CpDeviceCore.obj
 0001:000143b0       ??RFunctorCpDevice@Net@OpenHome@@QBEXAAVCpDevice@12@@Z 004153b0 f i libohNetCore:CpDeviceCore.obj
 0001:000143f0       ??1?$pair@VBrn@OpenHome@@PAVCpDevice@Net@2@@std@@QAE@XZ 004153f0 f i libohNetCore:CpDeviceCore.obj
 0001:00014420       ??1?$pair@V?$_Tree_iterator@V?$_Tree_val@V?$_Tmap_traits@VBrn@OpenHome@@PAVCpDevice@Net@2@VBufferCmp@2@V?$allocator@U?$pair@$$CBVBrn@OpenHome@@PAVCpDevice@Net@2@@std@@@std@@$0A@@std@@@std@@@std@@_N@std@@QAE@XZ 00415420 f i libohNetCore:CpDeviceCore.obj
 0001:00014450       ??1?$_Pair_base@VBrn@OpenHome@@PAVCpDevice@Net@2@@std@@QAE@XZ 00415450 f i libohNetCore:CpDeviceCore.obj
 0001:00014480       ??1?$_Pair_base@V?$_Tree_iterator@V?$_Tree_val@V?$_Tmap_traits@VBrn@OpenHome@@PAVCpDevice@Net@2@VBufferCmp@2@V?$allocator@U?$pair@$$CBVBrn@OpenHome@@PAVCpDevice@Net@2@@std@@@std@@$0A@@std@@@std@@@std@@_N@std@@QAE@XZ 00415480 f i libohNetCore:CpDeviceCore.obj
 0001:000144b0       ??0?$_Tree_const_iterator@V?$_Tree_val@V?$_Tmap_traits@VBrn@OpenHome@@PAVCpDevice@Net@2@VBufferCmp@2@V?$allocator@U?$pair@$$CBVBrn@OpenHome@@PAVCpDevice@Net@2@@std@@@std@@$0A@@std@@@std@@@std@@QAE@ABV01@@Z 004154b0 f i libohNetCore:CpDeviceCore.obj
 0001:000144e0       ??0?$_Tree_unchecked_const_iterator@V?$_Tree_val@V?$_Tmap_traits@VBrn@OpenHome@@PAVCpDevice@Net@2@VBufferCmp@2@V?$allocator@U?$pair@$$CBVBrn@OpenHome@@PAVCpDevice@Net@2@@std@@@std@@$0A@@std@@@std@@U_Iterator_base12@2@@std@@QAE@ABV01@@Z 004154e0 f i libohNetCore:CpDeviceCore.obj
 0001:00014520       ??0?$_Iterator012@Ubidirectional_iterator_tag@std@@U?$pair@$$CBVBrn@OpenHome@@PAVCpDevice@Net@2@@2@HPBU32@ABU32@U_Iterator_base12@2@@std@@QAE@ABU01@@Z 00415520 f i libohNetCore:CpDeviceCore.obj
 0001:00014550       ??0?$map@VBrn@OpenHome@@PAVCpDevice@Net@2@VBufferCmp@2@V?$allocator@U?$pair@$$CBVBrn@OpenHome@@PAVCpDevice@Net@2@@std@@@std@@@std@@QAE@XZ 00415550 f i libohNetCore:CpDeviceCore.obj
 0001:000145a0       ??1?$_Tree@V?$_Tmap_traits@VBrn@OpenHome@@PAVCpDevice@Net@2@VBufferCmp@2@V?$allocator@U?$pair@$$CBVBrn@OpenHome@@PAVCpDevice@Net@2@@std@@@std@@$0A@@std@@@std@@QAE@XZ 004155a0 f i libohNetCore:CpDeviceCore.obj
 0001:00014610       ?begin@?$_Tree@V?$_Tmap_traits@VBrn@OpenHome@@PAVCpDevice@Net@2@VBufferCmp@2@V?$allocator@U?$pair@$$CBVBrn@OpenHome@@PAVCpDevice@Net@2@@std@@@std@@$0A@@std@@@std@@QAE?AV?$_Tree_iterator@V?$_Tree_val@V?$_Tmap_traits@VBrn@OpenHome@@PAVCpDevice@Net@2@VBufferCmp@2@V?$allocator@U?$pair@$$CBVBrn@OpenHome@@PAVCpDevice@Net@2@@std@@@std@@$0A@@std@@@std@@@2@XZ 00415610 f i libohNetCore:CpDeviceCore.obj
 0001:00014670       ?end@?$_Tree@V?$_Tmap_traits@VBrn@OpenHome@@PAVCpDevice@Net@2@VBufferCmp@2@V?$allocator@U?$pair@$$CBVBrn@OpenHome@@PAVCpDevice@Net@2@@std@@@std@@$0A@@std@@@std@@QAE?AV?$_Tree_iterator@V?$_Tree_val@V?$_Tmap_traits@VBrn@OpenHome@@PAVCpDevice@Net@2@VBufferCmp@2@V?$allocator@U?$pair@$$CBVBrn@OpenHome@@PAVCpDevice@Net@2@@std@@@std@@$0A@@std@@@std@@@2@XZ 00415670 f i libohNetCore:CpDeviceCore.obj
 0001:000146c0       ?erase@?$_Tree@V?$_Tmap_traits@VBrn@OpenHome@@PAVCpDevice@Net@2@VBufferCmp@2@V?$allocator@U?$pair@$$CBVBrn@OpenHome@@PAVCpDevice@Net@2@@std@@@std@@$0A@@std@@@std@@QAE?AV?$_Tree_iterator@V?$_Tree_val@V?$_Tmap_traits@VBrn@OpenHome@@PAVCpDevice@Net@2@VBufferCmp@2@V?$allocator@U?$pair@$$CBVBrn@OpenHome@@PAVCpDevice@Net@2@@std@@@std@@$0A@@std@@@std@@@2@V?$_Tree_const_iterator@V?$_Tree_val@V?$_Tmap_traits@VBrn@OpenHome@@PAVCpDevice@Net@2@VBufferCmp@2@V?$allocator@U?$pair@$$CBVBrn@OpenHome@@PAVCpDevice@Net@2@@std@@@std@@$0A@@std@@@std@@@2@@Z 004156c0 f i libohNetCore:CpDeviceCore.obj
 0001:00014dd0       ?clear@?$_Tree@V?$_Tmap_traits@VBrn@OpenHome@@PAVCpDevice@Net@2@VBufferCmp@2@V?$allocator@U?$pair@$$CBVBrn@OpenHome@@PAVCpDevice@Net@2@@std@@@std@@$0A@@std@@@std@@QAEXXZ 00415dd0 f i libohNetCore:CpDeviceCore.obj
 0001:00014e50       ?find@?$_Tree@V?$_Tmap_traits@VBrn@OpenHome@@PAVCpDevice@Net@2@VBufferCmp@2@V?$allocator@U?$pair@$$CBVBrn@OpenHome@@PAVCpDevice@Net@2@@std@@@std@@$0A@@std@@@std@@QAE?AV?$_Tree_iterator@V?$_Tree_val@V?$_Tmap_traits@VBrn@OpenHome@@PAVCpDevice@Net@2@VBufferCmp@2@V?$allocator@U?$pair@$$CBVBrn@OpenHome@@PAVCpDevice@Net@2@@std@@@std@@$0A@@std@@@std@@@2@ABVBrn@OpenHome@@@Z 00415e50 f i libohNetCore:CpDeviceCore.obj
 0001:00015030       ??C?$_Tree_iterator@V?$_Tree_val@V?$_Tmap_traits@VBrn@OpenHome@@PAVCpDevice@Net@2@VBufferCmp@2@V?$allocator@U?$pair@$$CBVBrn@OpenHome@@PAVCpDevice@Net@2@@std@@@std@@$0A@@std@@@std@@@std@@QBEPAU?$pair@$$CBVBrn@OpenHome@@PAVCpDevice@Net@2@@1@XZ 00416030 f i libohNetCore:CpDeviceCore.obj
 0001:00015060       ??E?$_Tree_iterator@V?$_Tree_val@V?$_Tmap_traits@VBrn@OpenHome@@PAVCpDevice@Net@2@VBufferCmp@2@V?$allocator@U?$pair@$$CBVBrn@OpenHome@@PAVCpDevice@Net@2@@std@@@std@@$0A@@std@@@std@@@std@@QAE?AV01@H@Z 00416060 f i libohNetCore:CpDeviceCore.obj
 0001:00015130       ??9?$_Tree_const_iterator@V?$_Tree_val@V?$_Tmap_traits@VBrn@OpenHome@@PAVCpDevice@Net@2@VBufferCmp@2@V?$allocator@U?$pair@$$CBVBrn@OpenHome@@PAVCpDevice@Net@2@@std@@@std@@$0A@@std@@@std@@@std@@QBE_NABV01@@Z 00416130 f i libohNetCore:CpDeviceCore.obj
 0001:00015170       ??0?$_Tree_iterator@V?$_Tree_val@V?$_Tmap_traits@VBrn@OpenHome@@PAVCpDevice@Net@2@VBufferCmp@2@V?$allocator@U?$pair@$$CBVBrn@OpenHome@@PAVCpDevice@Net@2@@std@@@std@@$0A@@std@@@std@@@std@@QAE@ABV01@@Z 00416170 f i libohNetCore:CpDeviceCore.obj
 0001:000151a0       ??0?$_Tree@V?$_Tmap_traits@VBrn@OpenHome@@PAVCpDevice@Net@2@VBufferCmp@2@V?$allocator@U?$pair@$$CBVBrn@OpenHome@@PAVCpDevice@Net@2@@std@@@std@@$0A@@std@@@std@@QAE@ABVBufferCmp@OpenHome@@ABV?$allocator@U?$pair@$$CBVBrn@OpenHome@@PAVCpDevice@Net@2@@std@@@1@@Z 004161a0 f i libohNetCore:CpDeviceCore.obj
 0001:000151f0       ?lower_bound@?$_Tree@V?$_Tmap_traits@VBrn@OpenHome@@PAVCpDevice@Net@2@VBufferCmp@2@V?$allocator@U?$pair@$$CBVBrn@OpenHome@@PAVCpDevice@Net@2@@std@@@std@@$0A@@std@@@std@@QAE?AV?$_Tree_iterator@V?$_Tree_val@V?$_Tmap_traits@VBrn@OpenHome@@PAVCpDevice@Net@2@VBufferCmp@2@V?$allocator@U?$pair@$$CBVBrn@OpenHome@@PAVCpDevice@Net@2@@std@@@std@@$0A@@std@@@std@@@2@ABVBrn@OpenHome@@@Z 004161f0 f i libohNetCore:CpDeviceCore.obj
 0001:00015250       ?_Erase@?$_Tree@V?$_Tmap_traits@VBrn@OpenHome@@PAVCpDevice@Net@2@VBufferCmp@2@V?$allocator@U?$pair@$$CBVBrn@OpenHome@@PAVCpDevice@Net@2@@std@@@std@@$0A@@std@@@std@@IAEXPAU_Node@?$_Tree_nod@V?$_Tmap_traits@VBrn@OpenHome@@PAVCpDevice@Net@2@VBufferCmp@2@V?$allocator@U?$pair@$$CBVBrn@OpenHome@@PAVCpDevice@Net@2@@std@@@std@@$0A@@std@@@2@@Z 00416250 f i libohNetCore:CpDeviceCore.obj
 0001:000152f0       ?_Lmost@?$_Tree@V?$_Tmap_traits@VBrn@OpenHome@@PAVCpDevice@Net@2@VBufferCmp@2@V?$allocator@U?$pair@$$CBVBrn@OpenHome@@PAVCpDevice@Net@2@@std@@@std@@$0A@@std@@@std@@IBEAAPAU_Node@?$_Tree_nod@V?$_Tmap_traits@VBrn@OpenHome@@PAVCpDevice@Net@2@VBufferCmp@2@V?$allocator@U?$pair@$$CBVBrn@OpenHome@@PAVCpDevice@Net@2@@std@@@std@@$0A@@std@@@2@XZ 004162f0 f i libohNetCore:CpDeviceCore.obj
 0001:00015320       ?_Lrotate@?$_Tree@V?$_Tmap_traits@VBrn@OpenHome@@PAVCpDevice@Net@2@VBufferCmp@2@V?$allocator@U?$pair@$$CBVBrn@OpenHome@@PAVCpDevice@Net@2@@std@@@std@@$0A@@std@@@std@@IAEXPAU_Node@?$_Tree_nod@V?$_Tmap_traits@VBrn@OpenHome@@PAVCpDevice@Net@2@VBufferCmp@2@V?$allocator@U?$pair@$$CBVBrn@OpenHome@@PAVCpDevice@Net@2@@std@@@std@@$0A@@std@@@2@@Z 00416320 f i libohNetCore:CpDeviceCore.obj
 0001:00015440       ?_Rmost@?$_Tree@V?$_Tmap_traits@VBrn@OpenHome@@PAVCpDevice@Net@2@VBufferCmp@2@V?$allocator@U?$pair@$$CBVBrn@OpenHome@@PAVCpDevice@Net@2@@std@@@std@@$0A@@std@@@std@@IBEAAPAU_Node@?$_Tree_nod@V?$_Tmap_traits@VBrn@OpenHome@@PAVCpDevice@Net@2@VBufferCmp@2@V?$allocator@U?$pair@$$CBVBrn@OpenHome@@PAVCpDevice@Net@2@@std@@@std@@$0A@@std@@@2@XZ 00416440 f i libohNetCore:CpDeviceCore.obj
 0001:00015470       ?_Root@?$_Tree@V?$_Tmap_traits@VBrn@OpenHome@@PAVCpDevice@Net@2@VBufferCmp@2@V?$allocator@U?$pair@$$CBVBrn@OpenHome@@PAVCpDevice@Net@2@@std@@@std@@$0A@@std@@@std@@IBEAAPAU_Node@?$_Tree_nod@V?$_Tmap_traits@VBrn@OpenHome@@PAVCpDevice@Net@2@VBufferCmp@2@V?$allocator@U?$pair@$$CBVBrn@OpenHome@@PAVCpDevice@Net@2@@std@@@std@@$0A@@std@@@2@XZ 00416470 f i libohNetCore:CpDeviceCore.obj
 0001:000154a0       ?_Rrotate@?$_Tree@V?$_Tmap_traits@VBrn@OpenHome@@PAVCpDevice@Net@2@VBufferCmp@2@V?$allocator@U?$pair@$$CBVBrn@OpenHome@@PAVCpDevice@Net@2@@std@@@std@@$0A@@std@@@std@@IAEXPAU_Node@?$_Tree_nod@V?$_Tmap_traits@VBrn@OpenHome@@PAVCpDevice@Net@2@VBufferCmp@2@V?$allocator@U?$pair@$$CBVBrn@OpenHome@@PAVCpDevice@Net@2@@std@@@std@@$0A@@std@@@2@@Z 004164a0 f i libohNetCore:CpDeviceCore.obj
 0001:000155c0       ?_Orphan_ptr@?$_Tree@V?$_Tmap_traits@VBrn@OpenHome@@PAVCpDevice@Net@2@VBufferCmp@2@V?$allocator@U?$pair@$$CBVBrn@OpenHome@@PAVCpDevice@Net@2@@std@@@std@@$0A@@std@@@std@@IBEXAAV12@PAU_Node@?$_Tree_nod@V?$_Tmap_traits@VBrn@OpenHome@@PAVCpDevice@Net@2@VBufferCmp@2@V?$allocator@U?$pair@$$CBVBrn@OpenHome@@PAVCpDevice@Net@2@@std@@@std@@$0A@@std@@@2@@Z 004165c0 f i libohNetCore:CpDeviceCore.obj
 0001:000156d0       ?_Tidy@?$_Tree@V?$_Tmap_traits@VBrn@OpenHome@@PAVCpDevice@Net@2@VBufferCmp@2@V?$allocator@U?$pair@$$CBVBrn@OpenHome@@PAVCpDevice@Net@2@@std@@@std@@$0A@@std@@@std@@IAEXXZ 004166d0 f i libohNetCore:CpDeviceCore.obj
 0001:000157d0       ??1?$_Tree_val@V?$_Tmap_traits@VBrn@OpenHome@@PAVCpDevice@Net@2@VBufferCmp@2@V?$allocator@U?$pair@$$CBVBrn@OpenHome@@PAVCpDevice@Net@2@@std@@@std@@$0A@@std@@@std@@QAE@XZ 004167d0 f i libohNetCore:CpDeviceCore.obj
 0001:00015840       ?_Color@?$_Tree_val@V?$_Tmap_traits@VBrn@OpenHome@@PAVCpDevice@Net@2@VBufferCmp@2@V?$allocator@U?$pair@$$CBVBrn@OpenHome@@PAVCpDevice@Net@2@@std@@@std@@$0A@@std@@@std@@SGAADPAU_Node@?$_Tree_nod@V?$_Tmap_traits@VBrn@OpenHome@@PAVCpDevice@Net@2@VBufferCmp@2@V?$allocator@U?$pair@$$CBVBrn@OpenHome@@PAVCpDevice@Net@2@@std@@@std@@$0A@@std@@@2@@Z 00416840 f i libohNetCore:CpDeviceCore.obj
 0001:00015850       ?_Isnil@?$_Tree_val@V?$_Tmap_traits@VBrn@OpenHome@@PAVCpDevice@Net@2@VBufferCmp@2@V?$allocator@U?$pair@$$CBVBrn@OpenHome@@PAVCpDevice@Net@2@@std@@@std@@$0A@@std@@@std@@SGAADPAU_Node@?$_Tree_nod@V?$_Tmap_traits@VBrn@OpenHome@@PAVCpDevice@Net@2@VBufferCmp@2@V?$allocator@U?$pair@$$CBVBrn@OpenHome@@PAVCpDevice@Net@2@@std@@@std@@$0A@@std@@@2@@Z 00416850 f i libohNetCore:CpDeviceCore.obj
 0001:00015860       ?_Key@?$_Tree_val@V?$_Tmap_traits@VBrn@OpenHome@@PAVCpDevice@Net@2@VBufferCmp@2@V?$allocator@U?$pair@$$CBVBrn@OpenHome@@PAVCpDevice@Net@2@@std@@@std@@$0A@@std@@@std@@SGAAVBrn@OpenHome@@PAU_Node@?$_Tree_nod@V?$_Tmap_traits@VBrn@OpenHome@@PAVCpDevice@Net@2@VBufferCmp@2@V?$allocator@U?$pair@$$CBVBrn@OpenHome@@PAVCpDevice@Net@2@@std@@@std@@$0A@@std@@@2@@Z 00416860 f i libohNetCore:CpDeviceCore.obj
 0001:00015880       ?_Left@?$_Tree_val@V?$_Tmap_traits@VBrn@OpenHome@@PAVCpDevice@Net@2@VBufferCmp@2@V?$allocator@U?$pair@$$CBVBrn@OpenHome@@PAVCpDevice@Net@2@@std@@@std@@$0A@@std@@@std@@SGAAPAU_Node@?$_Tree_nod@V?$_Tmap_traits@VBrn@OpenHome@@PAVCpDevice@Net@2@VBufferCmp@2@V?$allocator@U?$pair@$$CBVBrn@OpenHome@@PAVCpDevice@Net@2@@std@@@std@@$0A@@std@@@2@PAU342@@Z 00416880 f i libohNetCore:CpDeviceCore.obj
 0001:00015890       ?_Parent@?$_Tree_val@V?$_Tmap_traits@VBrn@OpenHome@@PAVCpDevice@Net@2@VBufferCmp@2@V?$allocator@U?$pair@$$CBVBrn@OpenHome@@PAVCpDevice@Net@2@@std@@@std@@$0A@@std@@@std@@SGAAPAU_Node@?$_Tree_nod@V?$_Tmap_traits@VBrn@OpenHome@@PAVCpDevice@Net@2@VBufferCmp@2@V?$allocator@U?$pair@$$CBVBrn@OpenHome@@PAVCpDevice@Net@2@@std@@@std@@$0A@@std@@@2@PAU342@@Z 00416890 f i libohNetCore:CpDeviceCore.obj
 0001:000158a0       ?_Right@?$_Tree_val@V?$_Tmap_traits@VBrn@OpenHome@@PAVCpDevice@Net@2@VBufferCmp@2@V?$allocator@U?$pair@$$CBVBrn@OpenHome@@PAVCpDevice@Net@2@@std@@@std@@$0A@@std@@@std@@SGAAPAU_Node@?$_Tree_nod@V?$_Tmap_traits@VBrn@OpenHome@@PAVCpDevice@Net@2@VBufferCmp@2@V?$allocator@U?$pair@$$CBVBrn@OpenHome@@PAVCpDevice@Net@2@@std@@@std@@$0A@@std@@@2@PAU342@@Z 004168a0 f i libohNetCore:CpDeviceCore.obj
 0001:000158b0       ?_Myval@?$_Tree_val@V?$_Tmap_traits@VBrn@OpenHome@@PAVCpDevice@Net@2@VBufferCmp@2@V?$allocator@U?$pair@$$CBVBrn@OpenHome@@PAVCpDevice@Net@2@@std@@@std@@$0A@@std@@@std@@SGAAU?$pair@$$CBVBrn@OpenHome@@PAVCpDevice@Net@2@@2@PAU_Node@?$_Tree_nod@V?$_Tmap_traits@VBrn@OpenHome@@PAVCpDevice@Net@2@VBufferCmp@2@V?$allocator@U?$pair@$$CBVBrn@OpenHome@@PAVCpDevice@Net@2@@std@@@std@@$0A@@std@@@2@@Z 004168b0 f i libohNetCore:CpDeviceCore.obj
 0001:000158c0       ?_Max@?$_Tree_val@V?$_Tmap_traits@VBrn@OpenHome@@PAVCpDevice@Net@2@VBufferCmp@2@V?$allocator@U?$pair@$$CBVBrn@OpenHome@@PAVCpDevice@Net@2@@std@@@std@@$0A@@std@@@std@@SGPAU_Node@?$_Tree_nod@V?$_Tmap_traits@VBrn@OpenHome@@PAVCpDevice@Net@2@VBufferCmp@2@V?$allocator@U?$pair@$$CBVBrn@OpenHome@@PAVCpDevice@Net@2@@std@@@std@@$0A@@std@@@2@PAU342@@Z 004168c0 f i libohNetCore:CpDeviceCore.obj
 0001:00015900       ?_Min@?$_Tree_val@V?$_Tmap_traits@VBrn@OpenHome@@PAVCpDevice@Net@2@VBufferCmp@2@V?$allocator@U?$pair@$$CBVBrn@OpenHome@@PAVCpDevice@Net@2@@std@@@std@@$0A@@std@@@std@@SGPAU_Node@?$_Tree_nod@V?$_Tmap_traits@VBrn@OpenHome@@PAVCpDevice@Net@2@VBufferCmp@2@V?$allocator@U?$pair@$$CBVBrn@OpenHome@@PAVCpDevice@Net@2@@std@@@std@@$0A@@std@@@2@PAU342@@Z 00416900 f i libohNetCore:CpDeviceCore.obj
 0001:00015940       ??0?$allocator@U?$pair@$$CBVBrn@OpenHome@@PAVCpDevice@Net@2@@std@@@std@@QAE@XZ 00416940 f i libohNetCore:CpDeviceCore.obj
 0001:00015960       ?deallocate@?$allocator@U_Node@?$_Tree_nod@V?$_Tmap_traits@VBrn@OpenHome@@PAVCpDevice@Net@2@VBufferCmp@2@V?$allocator@U?$pair@$$CBVBrn@OpenHome@@PAVCpDevice@Net@2@@std@@@std@@$0A@@std@@@std@@@std@@QAEXPAU_Node@?$_Tree_nod@V?$_Tmap_traits@VBrn@OpenHome@@PAVCpDevice@Net@2@VBufferCmp@2@V?$allocator@U?$pair@$$CBVBrn@OpenHome@@PAVCpDevice@Net@2@@std@@@std@@$0A@@std@@@2@I@Z 00416960 f i libohNetCore:CpDeviceCore.obj
 0001:00015990       ??0?$_Tree_iterator@V?$_Tree_val@V?$_Tmap_traits@VBrn@OpenHome@@PAVCpDevice@Net@2@VBufferCmp@2@V?$allocator@U?$pair@$$CBVBrn@OpenHome@@PAVCpDevice@Net@2@@std@@@std@@$0A@@std@@@std@@@std@@QAE@PAU_Node@?$_Tree_nod@V?$_Tmap_traits@VBrn@OpenHome@@PAVCpDevice@Net@2@VBufferCmp@2@V?$allocator@U?$pair@$$CBVBrn@OpenHome@@PAVCpDevice@Net@2@@std@@@std@@$0A@@std@@@1@PBV?$_Tree_val@V?$_Tmap_traits@VBrn@OpenHome@@PAVCpDevice@Net@2@VBufferCmp@2@V?$allocator@U?$pair@$$CBVBrn@OpenHome@@PAVCpDevice@Net@2@@std@@@std@@$0A@@std@@@1@@Z 00416990 f i libohNetCore:CpDeviceCore.obj
 0001:000159d0       ??D?$_Tree_iterator@V?$_Tree_val@V?$_Tmap_traits@VBrn@OpenHome@@PAVCpDevice@Net@2@VBufferCmp@2@V?$allocator@U?$pair@$$CBVBrn@OpenHome@@PAVCpDevice@Net@2@@std@@@std@@$0A@@std@@@std@@@std@@QBEAAU?$pair@$$CBVBrn@OpenHome@@PAVCpDevice@Net@2@@1@XZ 004169d0 f i libohNetCore:CpDeviceCore.obj
 0001:00015a00       ??E?$_Tree_iterator@V?$_Tree_val@V?$_Tmap_traits@VBrn@OpenHome@@PAVCpDevice@Net@2@VBufferCmp@2@V?$allocator@U?$pair@$$CBVBrn@OpenHome@@PAVCpDevice@Net@2@@std@@@std@@$0A@@std@@@std@@@std@@QAEAAV01@XZ 00416a00 f i libohNetCore:CpDeviceCore.obj
 0001:00015a30       ??E?$_Tree_const_iterator@V?$_Tree_val@V?$_Tmap_traits@VBrn@OpenHome@@PAVCpDevice@Net@2@VBufferCmp@2@V?$allocator@U?$pair@$$CBVBrn@OpenHome@@PAVCpDevice@Net@2@@std@@@std@@$0A@@std@@@std@@@std@@QAEAAV01@XZ 00416a30 f i libohNetCore:CpDeviceCore.obj
 0001:00015af0       ??8?$_Tree_const_iterator@V?$_Tree_val@V?$_Tmap_traits@VBrn@OpenHome@@PAVCpDevice@Net@2@VBufferCmp@2@V?$allocator@U?$pair@$$CBVBrn@OpenHome@@PAVCpDevice@Net@2@@std@@@std@@$0A@@std@@@std@@@std@@QBE_NABV01@@Z 00416af0 f i libohNetCore:CpDeviceCore.obj
 0001:00015bb0       ?_Mynode@?$_Tree_unchecked_const_iterator@V?$_Tree_val@V?$_Tmap_traits@VBrn@OpenHome@@PAVCpDevice@Net@2@VBufferCmp@2@V?$allocator@U?$pair@$$CBVBrn@OpenHome@@PAVCpDevice@Net@2@@std@@@std@@$0A@@std@@@std@@U_Iterator_base12@2@@std@@QBEPAU_Node@?$_Tree_nod@V?$_Tmap_traits@VBrn@OpenHome@@PAVCpDevice@Net@2@VBufferCmp@2@V?$allocator@U?$pair@$$CBVBrn@OpenHome@@PAVCpDevice@Net@2@@std@@@std@@$0A@@std@@@2@XZ 00416bb0 f i libohNetCore:CpDeviceCore.obj
 0001:00015bd0       ?erase@?$_Tree@V?$_Tmap_traits@VBrn@OpenHome@@PAVCpDevice@Net@2@VBufferCmp@2@V?$allocator@U?$pair@$$CBVBrn@OpenHome@@PAVCpDevice@Net@2@@std@@@std@@$0A@@std@@@std@@QAE?AV?$_Tree_iterator@V?$_Tree_val@V?$_Tmap_traits@VBrn@OpenHome@@PAVCpDevice@Net@2@VBufferCmp@2@V?$allocator@U?$pair@$$CBVBrn@OpenHome@@PAVCpDevice@Net@2@@std@@@std@@$0A@@std@@@std@@@2@V?$_Tree_const_iterator@V?$_Tree_val@V?$_Tmap_traits@VBrn@OpenHome@@PAVCpDevice@Net@2@VBufferCmp@2@V?$allocator@U?$pair@$$CBVBrn@OpenHome@@PAVCpDevice@Net@2@@std@@@std@@$0A@@std@@@std@@@2@0@Z 00416bd0 f i libohNetCore:CpDeviceCore.obj
 0001:00015dd0       ?_Lbound@?$_Tree@V?$_Tmap_traits@VBrn@OpenHome@@PAVCpDevice@Net@2@VBufferCmp@2@V?$allocator@U?$pair@$$CBVBrn@OpenHome@@PAVCpDevice@Net@2@@std@@@std@@$0A@@std@@@std@@IAEPAU_Node@?$_Tree_nod@V?$_Tmap_traits@VBrn@OpenHome@@PAVCpDevice@Net@2@VBufferCmp@2@V?$allocator@U?$pair@$$CBVBrn@OpenHome@@PAVCpDevice@Net@2@@std@@@std@@$0A@@std@@@2@ABVBrn@OpenHome@@@Z 00416dd0 f i libohNetCore:CpDeviceCore.obj
 0001:00015e80       ??0?$_Tree_val@V?$_Tmap_traits@VBrn@OpenHome@@PAVCpDevice@Net@2@VBufferCmp@2@V?$allocator@U?$pair@$$CBVBrn@OpenHome@@PAVCpDevice@Net@2@@std@@@std@@$0A@@std@@@std@@QAE@ABVBufferCmp@OpenHome@@V?$allocator@U?$pair@$$CBVBrn@OpenHome@@PAVCpDevice@Net@2@@std@@@1@@Z 00416e80 f i libohNetCore:CpDeviceCore.obj
 0001:00015f80       ??1?$_Tree_nod@V?$_Tmap_traits@VBrn@OpenHome@@PAVCpDevice@Net@2@VBufferCmp@2@V?$allocator@U?$pair@$$CBVBrn@OpenHome@@PAVCpDevice@Net@2@@std@@@std@@$0A@@std@@@std@@QAE@XZ 00416f80 f i libohNetCore:CpDeviceCore.obj
 0001:00016060       ??0?$allocator@U?$pair@$$CBVBrn@OpenHome@@PAVCpDevice@Net@2@@std@@@std@@QAE@ABV01@@Z 00417060 f i libohNetCore:CpDeviceCore.obj
 0001:00016080       ??0?$_Tree_const_iterator@V?$_Tree_val@V?$_Tmap_traits@VBrn@OpenHome@@PAVCpDevice@Net@2@VBufferCmp@2@V?$allocator@U?$pair@$$CBVBrn@OpenHome@@PAVCpDevice@Net@2@@std@@@std@@$0A@@std@@@std@@@std@@QAE@PAU_Node@?$_Tree_nod@V?$_Tmap_traits@VBrn@OpenHome@@PAVCpDevice@Net@2@VBufferCmp@2@V?$allocator@U?$pair@$$CBVBrn@OpenHome@@PAVCpDevice@Net@2@@std@@@std@@$0A@@std@@@1@PBV?$_Tree_val@V?$_Tmap_traits@VBrn@OpenHome@@PAVCpDevice@Net@2@VBufferCmp@2@V?$allocator@U?$pair@$$CBVBrn@OpenHome@@PAVCpDevice@Net@2@@std@@@std@@$0A@@std@@@1@@Z 00417080 f i libohNetCore:CpDeviceCore.obj
 0001:000160c0       ??D?$_Tree_const_iterator@V?$_Tree_val@V?$_Tmap_traits@VBrn@OpenHome@@PAVCpDevice@Net@2@VBufferCmp@2@V?$allocator@U?$pair@$$CBVBrn@OpenHome@@PAVCpDevice@Net@2@@std@@@std@@$0A@@std@@@std@@@std@@QBEABU?$pair@$$CBVBrn@OpenHome@@PAVCpDevice@Net@2@@1@XZ 004170c0 f i libohNetCore:CpDeviceCore.obj
 0001:00016180       ??E?$_Tree_unchecked_const_iterator@V?$_Tree_val@V?$_Tmap_traits@VBrn@OpenHome@@PAVCpDevice@Net@2@VBufferCmp@2@V?$allocator@U?$pair@$$CBVBrn@OpenHome@@PAVCpDevice@Net@2@@std@@@std@@$0A@@std@@@std@@U_Iterator_base12@2@@std@@QAEAAV01@XZ 00417180 f i libohNetCore:CpDeviceCore.obj
 0001:00016240       ??1?$_Tmap_traits@VBrn@OpenHome@@PAVCpDevice@Net@2@VBufferCmp@2@V?$allocator@U?$pair@$$CBVBrn@OpenHome@@PAVCpDevice@Net@2@@std@@@std@@$0A@@std@@QAE@XZ 00417240 f i libohNetCore:CpDeviceCore.obj
 0001:00016270       ??0?$_Tree_nod@V?$_Tmap_traits@VBrn@OpenHome@@PAVCpDevice@Net@2@VBufferCmp@2@V?$allocator@U?$pair@$$CBVBrn@OpenHome@@PAVCpDevice@Net@2@@std@@@std@@$0A@@std@@@std@@QAE@ABVBufferCmp@OpenHome@@V?$allocator@U?$pair@$$CBVBrn@OpenHome@@PAVCpDevice@Net@2@@std@@@1@@Z 00417270 f i libohNetCore:CpDeviceCore.obj
 0001:00016380       ?allocate@?$allocator@U_Node@?$_Tree_nod@V?$_Tmap_traits@VBrn@OpenHome@@PAVCpDevice@Net@2@VBufferCmp@2@V?$allocator@U?$pair@$$CBVBrn@OpenHome@@PAVCpDevice@Net@2@@std@@@std@@$0A@@std@@@std@@@std@@QAEPAU_Node@?$_Tree_nod@V?$_Tmap_traits@VBrn@OpenHome@@PAVCpDevice@Net@2@VBufferCmp@2@V?$allocator@U?$pair@$$CBVBrn@OpenHome@@PAVCpDevice@Net@2@@std@@@std@@$0A@@std@@@2@I@Z 00417380 f i libohNetCore:CpDeviceCore.obj
 0001:000163b0       ??E?$_Tree_const_iterator@V?$_Tree_val@V?$_Tmap_traits@VBrn@OpenHome@@PAVCpDevice@Net@2@VBufferCmp@2@V?$allocator@U?$pair@$$CBVBrn@OpenHome@@PAVCpDevice@Net@2@@std@@@std@@$0A@@std@@@std@@@std@@QAE?AV01@H@Z 004173b0 f i libohNetCore:CpDeviceCore.obj
 0001:00016480       ??0?$_Tree_unchecked_const_iterator@V?$_Tree_val@V?$_Tmap_traits@VBrn@OpenHome@@PAVCpDevice@Net@2@VBufferCmp@2@V?$allocator@U?$pair@$$CBVBrn@OpenHome@@PAVCpDevice@Net@2@@std@@@std@@$0A@@std@@@std@@U_Iterator_base12@2@@std@@QAE@PAU_Node@?$_Tree_nod@V?$_Tmap_traits@VBrn@OpenHome@@PAVCpDevice@Net@2@VBufferCmp@2@V?$allocator@U?$pair@$$CBVBrn@OpenHome@@PAVCpDevice@Net@2@@std@@@std@@$0A@@std@@@1@PBV?$_Tree_val@V?$_Tmap_traits@VBrn@OpenHome@@PAVCpDevice@Net@2@VBufferCmp@2@V?$allocator@U?$pair@$$CBVBrn@OpenHome@@PAVCpDevice@Net@2@@std@@@std@@$0A@@std@@@1@@Z 00417480 f i libohNetCore:CpDeviceCore.obj
 0001:00016500       ??0?$_Iterator012@Ubidirectional_iterator_tag@std@@U?$pair@$$CBVBrn@OpenHome@@PAVCpDevice@Net@2@@2@HPBU32@ABU32@U_Iterator_base12@2@@std@@QAE@XZ 00417500 f i libohNetCore:CpDeviceCore.obj
 0001:00016530       ??0?$_Tmap_traits@VBrn@OpenHome@@PAVCpDevice@Net@2@VBufferCmp@2@V?$allocator@U?$pair@$$CBVBrn@OpenHome@@PAVCpDevice@Net@2@@std@@@std@@$0A@@std@@QAE@VBufferCmp@OpenHome@@@Z 00417530 f i libohNetCore:CpDeviceCore.obj
 0001:00016560       ??$MakeFunctorCpiDevice@VCpDeviceList@Net@OpenHome@@V123@@Net@OpenHome@@YG?AV?$MemberTranslatorCpiDevice@VCpDeviceList@Net@OpenHome@@P8123@AEXAAVCpiDevice@23@@Z@01@AAVCpDeviceList@01@ABQ8301@AEXAAVCpiDevice@01@@Z@Z 00417560 f i libohNetCore:CpDeviceCore.obj
 0001:00016590       ??$?0AAVBrn@OpenHome@@AAPAVCpDevice@Net@1@@?$pair@VBrn@OpenHome@@PAVCpDevice@Net@2@@std@@QAE@AAVBrn@OpenHome@@AAPAVCpDevice@Net@3@@Z 00417590 f i libohNetCore:CpDeviceCore.obj
 0001:000165d0       ??$insert@U?$pair@VBrn@OpenHome@@PAVCpDevice@Net@2@@std@@@?$_Tree@V?$_Tmap_traits@VBrn@OpenHome@@PAVCpDevice@Net@2@VBufferCmp@2@V?$allocator@U?$pair@$$CBVBrn@OpenHome@@PAVCpDevice@Net@2@@std@@@std@@$0A@@std@@@std@@QAE?AU?$pair@V?$_Tree_iterator@V?$_Tree_val@V?$_Tmap_traits@VBrn@OpenHome@@PAVCpDevice@Net@2@VBufferCmp@2@V?$allocator@U?$pair@$$CBVBrn@OpenHome@@PAVCpDevice@Net@2@@std@@@std@@$0A@@std@@@std@@@std@@_N@1@$$QAU?$pair@VBrn@OpenHome@@PAVCpDevice@Net@2@@1@@Z 004175d0 f i libohNetCore:CpDeviceCore.obj
 0001:00016630       ??$addressof@U?$pair@$$CBVBrn@OpenHome@@PAVCpDevice@Net@2@@std@@@std@@YGPAU?$pair@$$CBVBrn@OpenHome@@PAVCpDevice@Net@2@@0@AAU10@@Z 00417630 f i libohNetCore:CpDeviceCore.obj
 0001:00016640       ??$_Dest_val@V?$allocator@U?$pair@$$CBVBrn@OpenHome@@PAVCpDevice@Net@2@@std@@@std@@U?$pair@$$CBVBrn@OpenHome@@PAVCpDevice@Net@2@@2@@std@@YGXAAV?$allocator@U?$pair@$$CBVBrn@OpenHome@@PAVCpDevice@Net@2@@std@@@0@PAU?$pair@$$CBVBrn@OpenHome@@PAVCpDevice@Net@2@@0@@Z 00417640 f i libohNetCore:CpDeviceCore.obj
 0001:00016660       ??$_Kfn@$$CBVBrn@OpenHome@@PAVCpDevice@Net@2@@?$_Tmap_traits@VBrn@OpenHome@@PAVCpDevice@Net@2@VBufferCmp@2@V?$allocator@U?$pair@$$CBVBrn@OpenHome@@PAVCpDevice@Net@2@@std@@@std@@$0A@@std@@SGABVBrn@OpenHome@@ABU?$pair@$$CBVBrn@OpenHome@@PAVCpDevice@Net@2@@1@@Z 00417660 f i libohNetCore:CpDeviceCore.obj
 0001:00016670       ??$?0U_Node@?$_Tree_nod@V?$_Tmap_traits@VBrn@OpenHome@@PAVCpDevice@Net@2@VBufferCmp@2@V?$allocator@U?$pair@$$CBVBrn@OpenHome@@PAVCpDevice@Net@2@@std@@@std@@$0A@@std@@@std@@@?$allocator@U_Container_proxy@std@@@std@@QAE@ABV?$allocator@U_Node@?$_Tree_nod@V?$_Tmap_traits@VBrn@OpenHome@@PAVCpDevice@Net@2@VBufferCmp@2@V?$allocator@U?$pair@$$CBVBrn@OpenHome@@PAVCpDevice@Net@2@@std@@@std@@$0A@@std@@@std@@@1@@Z 00417670 f i libohNetCore:CpDeviceCore.obj
 0001:00016690       ??$?0U?$pair@$$CBVBrn@OpenHome@@PAVCpDevice@Net@2@@std@@@?$allocator@U_Node@?$_Tree_nod@V?$_Tmap_traits@VBrn@OpenHome@@PAVCpDevice@Net@2@VBufferCmp@2@V?$allocator@U?$pair@$$CBVBrn@OpenHome@@PAVCpDevice@Net@2@@std@@@std@@$0A@@std@@@std@@@std@@QAE@ABV?$allocator@U?$pair@$$CBVBrn@OpenHome@@PAVCpDevice@Net@2@@std@@@1@@Z 00417690 f i libohNetCore:CpDeviceCore.obj
 0001:000166b0       ??$_Allocate@U_Node@?$_Tree_nod@V?$_Tmap_traits@VBrn@OpenHome@@PAVCpDevice@Net@2@VBufferCmp@2@V?$allocator@U?$pair@$$CBVBrn@OpenHome@@PAVCpDevice@Net@2@@std@@@std@@$0A@@std@@@std@@@std@@YGPAU_Node@?$_Tree_nod@V?$_Tmap_traits@VBrn@OpenHome@@PAVCpDevice@Net@2@VBufferCmp@2@V?$allocator@U?$pair@$$CBVBrn@OpenHome@@PAVCpDevice@Net@2@@std@@@std@@$0A@@std@@@0@IPAU120@@Z 004176b0 f i libohNetCore:CpDeviceCore.obj
 0001:00016730       ?_Linsert@?$_Tree@V?$_Tmap_traits@VBrn@OpenHome@@PAVCpDevice@Net@2@VBufferCmp@2@V?$allocator@U?$pair@$$CBVBrn@OpenHome@@PAVCpDevice@Net@2@@std@@@std@@$0A@@std@@@std@@QAE?AU?$pair@V?$_Tree_iterator@V?$_Tree_val@V?$_Tmap_traits@VBrn@OpenHome@@PAVCpDevice@Net@2@VBufferCmp@2@V?$allocator@U?$pair@$$CBVBrn@OpenHome@@PAVCpDevice@Net@2@@std@@@std@@$0A@@std@@@std@@@std@@_N@2@PAU_Node@?$_Tree_nod@V?$_Tmap_traits@VBrn@OpenHome@@PAVCpDevice@Net@2@VBufferCmp@2@V?$allocator@U?$pair@$$CBVBrn@OpenHome@@PAVCpDevice@Net@2@@std@@@std@@$0A@@std@@@2@_N@Z 00417730 f i libohNetCore:CpDeviceCore.obj
 0001:00016b10       ?destroy@?$allocator@U?$pair@$$CBVBrn@OpenHome@@PAVCpDevice@Net@2@@std@@@std@@QAEXPAU?$pair@$$CBVBrn@OpenHome@@PAVCpDevice@Net@2@@2@@Z 00417b10 f i libohNetCore:CpDeviceCore.obj
 0001:00016b40       ??0?$MemberTranslatorCpiDevice@VCpDeviceList@Net@OpenHome@@P8123@AEXAAVCpiDevice@23@@Z@Net@OpenHome@@QAE@AAVCpDeviceList@12@ABQ8312@AEXAAVCpiDevice@12@@Z@Z 00417b40 f i libohNetCore:CpDeviceCore.obj
 0001:00016b80       ??0FunctorCpiDevice@Net@OpenHome@@IAE@P6GXABV012@AAVCpiDevice@12@@ZPBX3I@Z 00417b80 f i libohNetCore:CpDeviceCore.obj
 0001:00016bd0       ?_Insert@?$_Tree@V?$_Tmap_traits@VBrn@OpenHome@@PAVCpDevice@Net@2@VBufferCmp@2@V?$allocator@U?$pair@$$CBVBrn@OpenHome@@PAVCpDevice@Net@2@@std@@@std@@$0A@@std@@@std@@IAE?AV?$_Tree_iterator@V?$_Tree_val@V?$_Tmap_traits@VBrn@OpenHome@@PAVCpDevice@Net@2@VBufferCmp@2@V?$allocator@U?$pair@$$CBVBrn@OpenHome@@PAVCpDevice@Net@2@@std@@@std@@$0A@@std@@@std@@@2@_NPAU_Node@?$_Tree_nod@V?$_Tmap_traits@VBrn@OpenHome@@PAVCpDevice@Net@2@VBufferCmp@2@V?$allocator@U?$pair@$$CBVBrn@OpenHome@@PAVCpDevice@Net@2@@std@@@std@@$0A@@std@@@2@1@Z 00417bd0 f i libohNetCore:CpDeviceCore.obj
 0001:00016f90       ??F?$_Tree_iterator@V?$_Tree_val@V?$_Tmap_traits@VBrn@OpenHome@@PAVCpDevice@Net@2@VBufferCmp@2@V?$allocator@U?$pair@$$CBVBrn@OpenHome@@PAVCpDevice@Net@2@@std@@@std@@$0A@@std@@@std@@@std@@QAEAAV01@XZ 00417f90 f i libohNetCore:CpDeviceCore.obj
 0001:00016fc0       ?Thunk@?$MemberTranslatorCpiDevice@VCpDeviceList@Net@OpenHome@@P8123@AEXAAVCpiDevice@23@@Z@Net@OpenHome@@SGXABVFunctorCpiDevice@23@AAVCpiDevice@23@@Z 00417fc0 f i libohNetCore:CpDeviceCore.obj
 0001:00017010       ??0?$pair@V?$_Tree_iterator@V?$_Tree_val@V?$_Tmap_traits@VBrn@OpenHome@@PAVCpDevice@Net@2@VBufferCmp@2@V?$allocator@U?$pair@$$CBVBrn@OpenHome@@PAVCpDevice@Net@2@@std@@@std@@$0A@@std@@@std@@@std@@_N@std@@QAE@$$QAV?$_Tree_iterator@V?$_Tree_val@V?$_Tmap_traits@VBrn@OpenHome@@PAVCpDevice@Net@2@VBufferCmp@2@V?$allocator@U?$pair@$$CBVBrn@OpenHome@@PAVCpDevice@Net@2@@std@@@std@@$0A@@std@@@std@@@1@$$QA_N@Z 00418010 f i libohNetCore:CpDeviceCore.obj
 0001:00017050       ?max_size@?$_Tree@V?$_Tmap_traits@VBrn@OpenHome@@PAVCpDevice@Net@2@VBufferCmp@2@V?$allocator@U?$pair@$$CBVBrn@OpenHome@@PAVCpDevice@Net@2@@std@@@std@@$0A@@std@@@std@@QBEIXZ 00418050 f i libohNetCore:CpDeviceCore.obj
 0001:00017080       ??F?$_Tree_const_iterator@V?$_Tree_val@V?$_Tmap_traits@VBrn@OpenHome@@PAVCpDevice@Net@2@VBufferCmp@2@V?$allocator@U?$pair@$$CBVBrn@OpenHome@@PAVCpDevice@Net@2@@std@@@std@@$0A@@std@@@std@@@std@@QAEAAV01@XZ 00418080 f i libohNetCore:CpDeviceCore.obj
 0001:000171a0       ??0?$_Pair_base@V?$_Tree_iterator@V?$_Tree_val@V?$_Tmap_traits@VBrn@OpenHome@@PAVCpDevice@Net@2@VBufferCmp@2@V?$allocator@U?$pair@$$CBVBrn@OpenHome@@PAVCpDevice@Net@2@@std@@@std@@$0A@@std@@@std@@@std@@_N@std@@QAE@$$QAV?$_Tree_iterator@V?$_Tree_val@V?$_Tmap_traits@VBrn@OpenHome@@PAVCpDevice@Net@2@VBufferCmp@2@V?$allocator@U?$pair@$$CBVBrn@OpenHome@@PAVCpDevice@Net@2@@std@@@std@@$0A@@std@@@std@@@1@$$QA_N@Z 004181a0 f i libohNetCore:CpDeviceCore.obj
 0001:00017220       ?max_size@?$allocator@U?$pair@$$CBVBrn@OpenHome@@PAVCpDevice@Net@2@@std@@@std@@QBEIXZ 00418220 f i libohNetCore:CpDeviceCore.obj
 0001:00017270       ??F?$_Tree_unchecked_const_iterator@V?$_Tree_val@V?$_Tmap_traits@VBrn@OpenHome@@PAVCpDevice@Net@2@VBufferCmp@2@V?$allocator@U?$pair@$$CBVBrn@OpenHome@@PAVCpDevice@Net@2@@std@@@std@@$0A@@std@@@std@@U_Iterator_base12@2@@std@@QAEAAV01@XZ 00418270 f i libohNetCore:CpDeviceCore.obj
 0001:00017360       ??$forward@AAPAVCpDevice@Net@OpenHome@@@std@@YGAAPAVCpDevice@Net@OpenHome@@AAPAV123@@Z 00418360 f i libohNetCore:CpDeviceCore.obj
 0001:00017370       ??$?0AAVBrn@OpenHome@@AAPAVCpDevice@Net@1@@?$_Pair_base@VBrn@OpenHome@@PAVCpDevice@Net@2@@std@@QAE@AAVBrn@OpenHome@@AAPAVCpDevice@Net@3@@Z 00418370 f i libohNetCore:CpDeviceCore.obj
 0001:000173f0       ??$forward@U?$pair@VBrn@OpenHome@@PAVCpDevice@Net@2@@std@@@std@@YG$$QAU?$pair@VBrn@OpenHome@@PAVCpDevice@Net@2@@0@AAU10@@Z 004183f0 f i libohNetCore:CpDeviceCore.obj
 0001:00017400       ??$_Buynode@U?$pair@VBrn@OpenHome@@PAVCpDevice@Net@2@@std@@@?$_Tree_val@V?$_Tmap_traits@VBrn@OpenHome@@PAVCpDevice@Net@2@VBufferCmp@2@V?$allocator@U?$pair@$$CBVBrn@OpenHome@@PAVCpDevice@Net@2@@std@@@std@@$0A@@std@@@std@@QAEPAU_Node@?$_Tree_nod@V?$_Tmap_traits@VBrn@OpenHome@@PAVCpDevice@Net@2@VBufferCmp@2@V?$allocator@U?$pair@$$CBVBrn@OpenHome@@PAVCpDevice@Net@2@@std@@@std@@$0A@@std@@@1@$$QAU?$pair@VBrn@OpenHome@@PAVCpDevice@Net@2@@1@@Z 00418400 f i libohNetCore:CpDeviceCore.obj
 0001:000174e0       ??$?0AAV?$_Tree_iterator@V?$_Tree_val@V?$_Tmap_traits@VBrn@OpenHome@@PAVCpDevice@Net@2@VBufferCmp@2@V?$allocator@U?$pair@$$CBVBrn@OpenHome@@PAVCpDevice@Net@2@@std@@@std@@$0A@@std@@@std@@@std@@_N@?$pair@V?$_Tree_iterator@V?$_Tree_val@V?$_Tmap_traits@VBrn@OpenHome@@PAVCpDevice@Net@2@VBufferCmp@2@V?$allocator@U?$pair@$$CBVBrn@OpenHome@@PAVCpDevice@Net@2@@std@@@std@@$0A@@std@@@std@@@std@@_N@std@@QAE@AAV?$_Tree_iterator@V?$_Tree_val@V?$_Tmap_traits@VBrn@OpenHome@@PAVCpDevice@Net@2@VBufferCmp@2@V?$allocator@U?$pair@$$CBVBrn@OpenHome@@PAVCpDevice@Net@2@@std@@@std@@$0A@@std@@@std@@@1@$$QA_N@Z 004184e0 f i libohNetCore:CpDeviceCore.obj
 0001:00017520       ??$_Destroy@U?$pair@$$CBVBrn@OpenHome@@PAVCpDevice@Net@2@@std@@@std@@YGXPAU?$pair@$$CBVBrn@OpenHome@@PAVCpDevice@Net@2@@0@@Z 00418520 f i libohNetCore:CpDeviceCore.obj
 0001:00017540       ??$move@AAV?$_Tree_iterator@V?$_Tree_val@V?$_Tmap_traits@VBrn@OpenHome@@PAVCpDevice@Net@2@VBufferCmp@2@V?$allocator@U?$pair@$$CBVBrn@OpenHome@@PAVCpDevice@Net@2@@std@@@std@@$0A@@std@@@std@@@std@@@std@@YG$$QAV?$_Tree_iterator@V?$_Tree_val@V?$_Tmap_traits@VBrn@OpenHome@@PAVCpDevice@Net@2@VBufferCmp@2@V?$allocator@U?$pair@$$CBVBrn@OpenHome@@PAVCpDevice@Net@2@@std@@@std@@$0A@@std@@@std@@@0@AAV10@@Z 00418540 f i libohNetCore:CpDeviceCore.obj
 0001:00017550       ??_G?$pair@$$CBVBrn@OpenHome@@PAVCpDevice@Net@2@@std@@QAEPAXI@Z 00418550 f i libohNetCore:CpDeviceCore.obj
 0001:00017590       ??1?$pair@$$CBVBrn@OpenHome@@PAVCpDevice@Net@2@@std@@QAE@XZ 00418590 f i libohNetCore:CpDeviceCore.obj
 0001:000175c0       ??1?$_Pair_base@$$CBVBrn@OpenHome@@PAVCpDevice@Net@2@@std@@QAE@XZ 004185c0 f i libohNetCore:CpDeviceCore.obj
 0001:000175f0       ?_Buynode@?$_Tree_val@V?$_Tmap_traits@VBrn@OpenHome@@PAVCpDevice@Net@2@VBufferCmp@2@V?$allocator@U?$pair@$$CBVBrn@OpenHome@@PAVCpDevice@Net@2@@std@@@std@@$0A@@std@@@std@@QAEPAU_Node@?$_Tree_nod@V?$_Tmap_traits@VBrn@OpenHome@@PAVCpDevice@Net@2@VBufferCmp@2@V?$allocator@U?$pair@$$CBVBrn@OpenHome@@PAVCpDevice@Net@2@@std@@@std@@$0A@@std@@@2@XZ 004185f0 f i libohNetCore:CpDeviceCore.obj
 0001:00017680       ??$_Cons_val@V?$allocator@U?$pair@$$CBVBrn@OpenHome@@PAVCpDevice@Net@2@@std@@@std@@U?$pair@$$CBVBrn@OpenHome@@PAVCpDevice@Net@2@@2@U?$pair@VBrn@OpenHome@@PAVCpDevice@Net@2@@2@@std@@YGXAAV?$allocator@U?$pair@$$CBVBrn@OpenHome@@PAVCpDevice@Net@2@@std@@@0@PAU?$pair@$$CBVBrn@OpenHome@@PAVCpDevice@Net@2@@0@$$QAU?$pair@VBrn@OpenHome@@PAVCpDevice@Net@2@@0@@Z 00418680 f i libohNetCore:CpDeviceCore.obj
 0001:000176b0       ??$forward@AAV?$_Tree_iterator@V?$_Tree_val@V?$_Tmap_traits@VBrn@OpenHome@@PAVCpDevice@Net@2@VBufferCmp@2@V?$allocator@U?$pair@$$CBVBrn@OpenHome@@PAVCpDevice@Net@2@@std@@@std@@$0A@@std@@@std@@@std@@@std@@YGAAV?$_Tree_iterator@V?$_Tree_val@V?$_Tmap_traits@VBrn@OpenHome@@PAVCpDevice@Net@2@VBufferCmp@2@V?$allocator@U?$pair@$$CBVBrn@OpenHome@@PAVCpDevice@Net@2@@std@@@std@@$0A@@std@@@std@@@0@AAV10@@Z 004186b0 f i libohNetCore:CpDeviceCore.obj
 0001:000176c0       ??$?0AAV?$_Tree_iterator@V?$_Tree_val@V?$_Tmap_traits@VBrn@OpenHome@@PAVCpDevice@Net@2@VBufferCmp@2@V?$allocator@U?$pair@$$CBVBrn@OpenHome@@PAVCpDevice@Net@2@@std@@@std@@$0A@@std@@@std@@@std@@_N@?$_Pair_base@V?$_Tree_iterator@V?$_Tree_val@V?$_Tmap_traits@VBrn@OpenHome@@PAVCpDevice@Net@2@VBufferCmp@2@V?$allocator@U?$pair@$$CBVBrn@OpenHome@@PAVCpDevice@Net@2@@std@@@std@@$0A@@std@@@std@@@std@@_N@std@@QAE@AAV?$_Tree_iterator@V?$_Tree_val@V?$_Tmap_traits@VBrn@OpenHome@@PAVCpDevice@Net@2@VBufferCmp@2@V?$allocator@U?$pair@$$CBVBrn@OpenHome@@PAVCpDevice@Net@2@@std@@@std@@$0A@@std@@@std@@@1@$$QA_N@Z 004186c0 f i libohNetCore:CpDeviceCore.obj
 0001:00017740       ??$construct@U?$pair@VBrn@OpenHome@@PAVCpDevice@Net@2@@std@@@?$allocator@U?$pair@$$CBVBrn@OpenHome@@PAVCpDevice@Net@2@@std@@@std@@QAEXPAU?$pair@$$CBVBrn@OpenHome@@PAVCpDevice@Net@2@@1@$$QAU?$pair@VBrn@OpenHome@@PAVCpDevice@Net@2@@1@@Z 00418740 f i libohNetCore:CpDeviceCore.obj
 0001:000177e0       ??$?0VBrn@OpenHome@@PAVCpDevice@Net@1@@?$pair@$$CBVBrn@OpenHome@@PAVCpDevice@Net@2@@std@@QAE@$$QAU?$pair@VBrn@OpenHome@@PAVCpDevice@Net@2@@1@@Z 004187e0 f i libohNetCore:CpDeviceCore.obj
 0001:00017820       ??$?0VBrn@OpenHome@@PAVCpDevice@Net@1@@?$_Pair_base@$$CBVBrn@OpenHome@@PAVCpDevice@Net@2@@std@@QAE@$$QAVBrn@OpenHome@@$$QAPAVCpDevice@Net@3@@Z 00418820 f i libohNetCore:CpDeviceCore.obj
 0001:000178a0       ??0CpiService@Net@OpenHome@@QAE@PBD0IAAVCpiDevice@12@@Z 004188a0 f   libohNetCore:CpiService.obj
 0001:00017980       ??1CpiService@Net@OpenHome@@QAE@XZ 00418980 f   libohNetCore:CpiService.obj
 0001:00017aa0       ?Invocation@CpiService@Net@OpenHome@@QAEPAV023@ABVAction@23@AAVFunctorAsync@23@@Z 00418aa0 f   libohNetCore:CpiService.obj
 0001:00017b20       ?Subscribe@CpiService@Net@OpenHome@@QAEXAAVIEventProcessor@23@@Z 00418b20 f   libohNetCore:CpiService.obj
 0001:00017b80       ?Unsubscribe@CpiService@Net@OpenHome@@QAEXXZ 00418b80 f   libohNetCore:CpiService.obj
 0001:00017be0       ?InvocationCompleted@CpiService@Net@OpenHome@@QAEXXZ 00418be0 f   libohNetCore:CpiService.obj
 0001:00017c60       ?Interrupt@CpiService@Net@OpenHome@@QBE_NXZ 00418c60 f   libohNetCore:CpiService.obj
 0001:00017c80       ?Device@CpiService@Net@OpenHome@@QAEAAVCpiDevice@23@XZ 00418c80 f   libohNetCore:CpiService.obj
 0001:00017ca0       ?Parameter@Argument@Net@OpenHome@@QBEABV023@XZ 00418ca0 f   libohNetCore:CpiService.obj
 0001:00017cc0       ??0Argument@Net@OpenHome@@IAE@ABVParameter@12@@Z 00418cc0 f   libohNetCore:CpiService.obj
 0001:00017d00       ??1Argument@Net@OpenHome@@UAE@XZ 00418d00 f   libohNetCore:CpiService.obj
 0001:00017d20       ?ValidationFailed@Argument@Net@OpenHome@@IAEXABVParameter@23@@Z 00418d20 f   libohNetCore:CpiService.obj
 0001:00017d80       ??0ArgumentString@Net@OpenHome@@QAE@ABVParameter@12@@Z 00418d80 f   libohNetCore:CpiService.obj
 0001:00017e00       ??0ArgumentString@Net@OpenHome@@QAE@ABVParameter@12@ABVBrx@2@@Z 00418e00 f   libohNetCore:CpiService.obj
 0001:00017ef0       ??1ArgumentString@Net@OpenHome@@UAE@XZ 00418ef0 f   libohNetCore:CpiService.obj
 0001:00017f60       ?Value@ArgumentString@Net@OpenHome@@QBEABVBrx@3@XZ 00418f60 f   libohNetCore:CpiService.obj
 0001:00017f80       ?TransferTo@ArgumentString@Net@OpenHome@@QAEXAAVBrh@3@@Z 00418f80 f   libohNetCore:CpiService.obj
 0001:00017fb0       ?ProcessInput@ArgumentString@Net@OpenHome@@UAEXAAVIInputArgumentProcessor@23@@Z 00418fb0 f   libohNetCore:CpiService.obj
 0001:00017ff0       ?ProcessOutput@ArgumentString@Net@OpenHome@@UAEXAAVIOutputProcessor@23@ABVBrx@3@@Z 00418ff0 f   libohNetCore:CpiService.obj
 0001:00018060       ??0ArgumentInt@Net@OpenHome@@QAE@ABVParameter@12@@Z 00419060 f   libohNetCore:CpiService.obj
 0001:000180a0       ??0ArgumentInt@Net@OpenHome@@QAE@ABVParameter@12@H@Z 004190a0 f   libohNetCore:CpiService.obj
 0001:00018170       ??1ArgumentInt@Net@OpenHome@@UAE@XZ 00419170 f   libohNetCore:CpiService.obj
 0001:000181a0       ?Value@ArgumentInt@Net@OpenHome@@QBEHXZ 004191a0 f   libohNetCore:CpiService.obj
 0001:000181c0       ?ProcessInput@ArgumentInt@Net@OpenHome@@UAEXAAVIInputArgumentProcessor@23@@Z 004191c0 f   libohNetCore:CpiService.obj
 0001:00018200       ?ProcessOutput@ArgumentInt@Net@OpenHome@@UAEXAAVIOutputProcessor@23@ABVBrx@3@@Z 00419200 f   libohNetCore:CpiService.obj
 0001:00018270       ??0ArgumentUint@Net@OpenHome@@QAE@ABVParameter@12@@Z 00419270 f   libohNetCore:CpiService.obj
 0001:000182b0       ??0ArgumentUint@Net@OpenHome@@QAE@ABVParameter@12@I@Z 004192b0 f   libohNetCore:CpiService.obj
 0001:00018380       ??1ArgumentUint@Net@OpenHome@@UAE@XZ 00419380 f   libohNetCore:CpiService.obj
 0001:000183b0       ?Value@ArgumentUint@Net@OpenHome@@QBEIXZ 004193b0 f   libohNetCore:CpiService.obj
 0001:000183d0       ?ProcessInput@ArgumentUint@Net@OpenHome@@UAEXAAVIInputArgumentProcessor@23@@Z 004193d0 f   libohNetCore:CpiService.obj
 0001:00018410       ?ProcessOutput@ArgumentUint@Net@OpenHome@@UAEXAAVIOutputProcessor@23@ABVBrx@3@@Z 00419410 f   libohNetCore:CpiService.obj
 0001:00018480       ??0ArgumentBool@Net@OpenHome@@QAE@ABVParameter@12@@Z 00419480 f   libohNetCore:CpiService.obj
 0001:000184c0       ??0ArgumentBool@Net@OpenHome@@QAE@ABVParameter@12@_N@Z 004194c0 f   libohNetCore:CpiService.obj
 0001:00018590       ??1ArgumentBool@Net@OpenHome@@UAE@XZ 00419590 f   libohNetCore:CpiService.obj
 0001:000185c0       ?Value@ArgumentBool@Net@OpenHome@@QBE_NXZ 004195c0 f   libohNetCore:CpiService.obj
 0001:000185e0       ?ProcessInput@ArgumentBool@Net@OpenHome@@UAEXAAVIInputArgumentProcessor@23@@Z 004195e0 f   libohNetCore:CpiService.obj
 0001:00018620       ?ProcessOutput@ArgumentBool@Net@OpenHome@@UAEXAAVIOutputProcessor@23@ABVBrx@3@@Z 00419620 f   libohNetCore:CpiService.obj
 0001:00018690       ??0ArgumentBinary@Net@OpenHome@@QAE@ABVParameter@12@@Z 00419690 f   libohNetCore:CpiService.obj
 0001:00018710       ??0ArgumentBinary@Net@OpenHome@@QAE@ABVParameter@12@ABVBrx@2@@Z 00419710 f   libohNetCore:CpiService.obj
 0001:00018800       ??1ArgumentBinary@Net@OpenHome@@UAE@XZ 00419800 f   libohNetCore:CpiService.obj
 0001:00018870       ?Value@ArgumentBinary@Net@OpenHome@@QBEABVBrx@3@XZ 00419870 f   libohNetCore:CpiService.obj
 0001:00018890       ?TransferTo@ArgumentBinary@Net@OpenHome@@QAEXAAVBrh@3@@Z 00419890 f   libohNetCore:CpiService.obj
 0001:000188c0       ?ProcessInput@ArgumentBinary@Net@OpenHome@@UAEXAAVIInputArgumentProcessor@23@@Z 004198c0 f   libohNetCore:CpiService.obj
 0001:00018900       ?ProcessOutput@ArgumentBinary@Net@OpenHome@@UAEXAAVIOutputProcessor@23@ABVBrx@3@@Z 00419900 f   libohNetCore:CpiService.obj
 0001:00018970       ?SignalCompleted@Invocation@Net@OpenHome@@QAEXXZ 00419970 f   libohNetCore:CpiService.obj
 0001:00018ab0       ?Error@Invocation@Net@OpenHome@@QBE_NXZ 00419ab0 f   libohNetCore:CpiService.obj
 0001:00018ae0       ?Interrupt@Invocation@Net@OpenHome@@QBE_NXZ 00419ae0 f   libohNetCore:CpiService.obj
 0001:00018b10       ?Set@Invocation@Net@OpenHome@@QAEXAAVCpiService@23@ABVAction@23@AAVCpiDevice@23@AAVFunctorAsync@23@@Z 00419b10 f   libohNetCore:CpiService.obj
 0001:00018b80       ?AddInput@Invocation@Net@OpenHome@@QAEXPAVArgument@23@@Z 00419b80 f   libohNetCore:CpiService.obj
 0001:00018bb0       ?AddOutput@Invocation@Net@OpenHome@@QAEXPAVArgument@23@@Z 00419bb0 f   libohNetCore:CpiService.obj
 0001:00018be0       ?SetError@Invocation@Net@OpenHome@@QAEXW4ELevel@Error@23@IABVBrx@3@@Z 00419be0 f   libohNetCore:CpiService.obj
 0001:00018c30       ?SetInterruptHandler@Invocation@Net@OpenHome@@QAEXPAVIInterruptHandler@23@@Z 00419c30 f   libohNetCore:CpiService.obj
 0001:00018d20       ?Interrupt@Invocation@Net@OpenHome@@QAEXABVService@23@@Z 00419d20 f   libohNetCore:CpiService.obj
 0001:00018e10       ?ServiceType@Invocation@Net@OpenHome@@QBEABV023@XZ 00419e10 f   libohNetCore:CpiService.obj
 0001:00018e50       ?Action@Invocation@Net@OpenHome@@QBEABV023@XZ 00419e50 f   libohNetCore:CpiService.obj
 0001:00018e90       ?Device@Invocation@Net@OpenHome@@QAEAAVCpiDevice@23@XZ 00419e90 f   libohNetCore:CpiService.obj
 0001:00018eb0       ?Output@Invocation@Net@OpenHome@@UAEXAAVIAsyncOutput@23@@Z 00419eb0 f   libohNetCore:CpiService.obj
 0001:00019110       ?OutputArgument@Invocation@Net@OpenHome@@CGXAAVIAsyncOutput@23@PBDABVArgument@23@@Z 0041a110 f   libohNetCore:CpiService.obj
 0001:00019510       ?InputArguments@Invocation@Net@OpenHome@@QBEABV?$vector@PAVArgument@Net@OpenHome@@V?$allocator@PAVArgument@Net@OpenHome@@@std@@@std@@XZ 0041a510 f   libohNetCore:CpiService.obj
 0001:00019530       ?OutputArguments@Invocation@Net@OpenHome@@QAEAAV?$vector@PAVArgument@Net@OpenHome@@V?$allocator@PAVArgument@Net@OpenHome@@@std@@@std@@XZ 0041a530 f   libohNetCore:CpiService.obj
 0001:00019550       ?SetInvoker@Invocation@Net@OpenHome@@QAEXAAVIInvocable@23@@Z 0041a550 f   libohNetCore:CpiService.obj
 0001:00019570       ?Invoker@Invocation@Net@OpenHome@@QAEAAVIInvocable@23@XZ 0041a570 f   libohNetCore:CpiService.obj
 0001:000195b0       ?Type@Invocation@Net@OpenHome@@EBEIXZ 0041a5b0 f   libohNetCore:CpiService.obj
 0001:000195d0       ??0Invocation@Net@OpenHome@@AAE@AAV?$Fifo@PAVInvocation@Net@OpenHome@@@2@@Z 0041a5d0 f   libohNetCore:CpiService.obj
 0001:000196c0       ??1Invocation@Net@OpenHome@@AAE@XZ 0041a6c0 f   libohNetCore:CpiService.obj
 0001:00019760       ?Clear@Invocation@Net@OpenHome@@AAEXXZ 0041a760 f   libohNetCore:CpiService.obj
 0001:00019910       ??0Invoker@Net@OpenHome@@QAE@PBDAAV?$Fifo@PAVInvoker@Net@OpenHome@@@2@@Z 0041a910 f   libohNetCore:CpiService.obj
 0001:000199b0       ??1Invoker@Net@OpenHome@@UAE@XZ 0041a9b0 f   libohNetCore:CpiService.obj
 0001:00019a40       ?Invoke@Invoker@Net@OpenHome@@QAEXPAVInvocation@23@@Z 0041aa40 f   libohNetCore:CpiService.obj
 0001:00019a90       ?Interrupt@Invoker@Net@OpenHome@@QAEXABVService@23@@Z 0041aa90 f   libohNetCore:CpiService.obj
 0001:00019b50       ?LogError@Invoker@Net@OpenHome@@AAEXPBD@Z 0041ab50 f   libohNetCore:CpiService.obj
 0001:00019be0       ?Run@Invoker@Net@OpenHome@@EAEXXZ 0041abe0 f   libohNetCore:CpiService.obj
 0001:00019e90       ??0InvocationManager@Net@OpenHome@@QAE@XZ 0041ae90 f   libohNetCore:CpiService.obj
 0001:0001a130       ??1InvocationManager@Net@OpenHome@@UAE@XZ 0041b130 f   libohNetCore:CpiService.obj
 0001:0001a310       ?Invocation@InvocationManager@Net@OpenHome@@CGPAV023@XZ 0041b310 f   libohNetCore:CpiService.obj
 0001:0001a400       ?Invoke@InvocationManager@Net@OpenHome@@SGXPAVInvocation@23@@Z 0041b400 f   libohNetCore:CpiService.obj
 0001:0001a470       ?Interrupt@InvocationManager@Net@OpenHome@@SGXABVService@23@@Z 0041b470 f   libohNetCore:CpiService.obj
 0001:0001a4e0       ?Self@InvocationManager@Net@OpenHome@@CGAAV123@XZ 0041b4e0 f   libohNetCore:CpiService.obj
 0001:0001a500       ?Run@InvocationManager@Net@OpenHome@@EAEXXZ 0041b500 f   libohNetCore:CpiService.obj
 0001:0001a630       ??1Service@Net@OpenHome@@IAE@XZ 0041b630 f i libohNetCore:CpiService.obj
 0001:0001a660       ??_GArgument@Net@OpenHome@@UAEPAXI@Z 0041b660 f i libohNetCore:CpiService.obj
 0001:0001a660       ??_EArgument@Net@OpenHome@@UAEPAXI@Z 0041b660 f i libohNetCore:CpiService.obj
 0001:0001a6a0       ??_EArgumentString@Net@OpenHome@@UAEPAXI@Z 0041b6a0 f i libohNetCore:CpiService.obj
 0001:0001a720       ??_EArgumentInt@Net@OpenHome@@UAEPAXI@Z 0041b720 f i libohNetCore:CpiService.obj
 0001:0001a7a0       ??_EArgumentUint@Net@OpenHome@@UAEPAXI@Z 0041b7a0 f i libohNetCore:CpiService.obj
 0001:0001a820       ??_EArgumentBool@Net@OpenHome@@UAEPAXI@Z 0041b820 f i libohNetCore:CpiService.obj
 0001:0001a8a0       ??_EArgumentBinary@Net@OpenHome@@UAEPAXI@Z 0041b8a0 f i libohNetCore:CpiService.obj
 0001:0001a920       ??RFunctorAsync@Net@OpenHome@@QBEXAAVIAsync@12@@Z 0041b920 f i libohNetCore:CpiService.obj
 0001:0001a960       ??BFunctorAsync@Net@OpenHome@@QBE_NXZ 0041b960 f i libohNetCore:CpiService.obj
 0001:0001a9a0       ?Level@Error@Net@OpenHome@@QBE?AW4ELevel@123@XZ 0041b9a0 f i libohNetCore:CpiService.obj
 0001:0001a9c0       ??1?$Bws@$0L@@OpenHome@@UAE@XZ 0041b9c0 f i libohNetCore:CpiService.obj
 0001:0001a9f0       ??1Bwx@OpenHome@@UAE@XZ    0041b9f0 f i libohNetCore:CpiService.obj
 0001:0001aa20       ??0Async@Net@OpenHome@@QAE@XZ 0041ba20 f i libohNetCore:CpiService.obj
 0001:0001aa50       ??1Error@Net@OpenHome@@QAE@XZ 0041ba50 f i libohNetCore:CpiService.obj
 0001:0001aa80       ??0IAsync@Net@OpenHome@@QAE@XZ 0041ba80 f i libohNetCore:CpiService.obj
 0001:0001aaa0       ??_EInvoker@Net@OpenHome@@UAEPAXI@Z 0041baa0 f i libohNetCore:CpiService.obj
 0001:0001aaa0       ??_GInvoker@Net@OpenHome@@UAEPAXI@Z 0041baa0 f i libohNetCore:CpiService.obj
 0001:0001aae0       ??_GInvocationManager@Net@OpenHome@@UAEPAXI@Z 0041bae0 f i libohNetCore:CpiService.obj
 0001:0001aae0       ??_EInvocationManager@Net@OpenHome@@UAEPAXI@Z 0041bae0 f i libohNetCore:CpiService.obj
 0001:0001ab20       ??_GInvocation@Net@OpenHome@@AAEPAXI@Z 0041bb20 f i libohNetCore:CpiService.obj
 0001:0001ab60       ??0?$vector@PAVArgument@Net@OpenHome@@V?$allocator@PAVArgument@Net@OpenHome@@@std@@@std@@QAE@XZ 0041bb60 f i libohNetCore:CpiService.obj
 0001:0001aba0       ??1?$vector@PAVArgument@Net@OpenHome@@V?$allocator@PAVArgument@Net@OpenHome@@@std@@@std@@QAE@XZ 0041bba0 f i libohNetCore:CpiService.obj
 0001:0001ac10       ?push_back@?$vector@PAVArgument@Net@OpenHome@@V?$allocator@PAVArgument@Net@OpenHome@@@std@@@std@@QAEXABQAVArgument@Net@OpenHome@@@Z 0041bc10 f i libohNetCore:CpiService.obj
 0001:0001ad20       ?clear@?$vector@PAVArgument@Net@OpenHome@@V?$allocator@PAVArgument@Net@OpenHome@@@std@@@std@@QAEXXZ 0041bd20 f i libohNetCore:CpiService.obj
 0001:0001ae20       ??0?$Fifo@PAVInvocation@Net@OpenHome@@@OpenHome@@QAE@I@Z 0041be20 f i libohNetCore:CpiService.obj
 0001:0001aec0       ??1?$Fifo@PAVInvocation@Net@OpenHome@@@OpenHome@@QAE@XZ 0041bec0 f i libohNetCore:CpiService.obj
 0001:0001af10       ??0?$Fifo@PAVInvoker@Net@OpenHome@@@OpenHome@@QAE@I@Z 0041bf10 f i libohNetCore:CpiService.obj
 0001:0001afb0       ??1?$Fifo@PAVInvoker@Net@OpenHome@@@OpenHome@@QAE@XZ 0041bfb0 f i libohNetCore:CpiService.obj
 0001:0001b000       ??1?$_Vector_iterator@V?$_Vector_val@PAVArgument@Net@OpenHome@@V?$allocator@PAVArgument@Net@OpenHome@@@std@@@std@@@std@@QAE@XZ 0041c000 f i libohNetCore:CpiService.obj
 0001:0001b030       ??0?$_Vector_const_iterator@V?$_Vector_val@PAVArgument@Net@OpenHome@@V?$allocator@PAVArgument@Net@OpenHome@@@std@@@std@@@std@@QAE@ABV01@@Z 0041c030 f i libohNetCore:CpiService.obj
 0001:0001b070       ??1?$_Vector_const_iterator@V?$_Vector_val@PAVArgument@Net@OpenHome@@V?$allocator@PAVArgument@Net@OpenHome@@@std@@@std@@@std@@QAE@XZ 0041c070 f i libohNetCore:CpiService.obj
 0001:0001b0a0       ??1FifoBase@OpenHome@@QAE@XZ 0041c0a0 f i libohNetCore:CpiService.obj
 0001:0001b120       ??0?$_Iterator012@Urandom_access_iterator_tag@std@@PAVArgument@Net@OpenHome@@HPBQAV345@ABQAV345@U_Iterator_base12@2@@std@@QAE@ABU01@@Z 0041c120 f i libohNetCore:CpiService.obj
 0001:0001b150       ??1?$_Iterator012@Urandom_access_iterator_tag@std@@PAVArgument@Net@OpenHome@@HPBQAV345@ABQAV345@U_Iterator_base12@2@@std@@QAE@XZ 0041c150 f i libohNetCore:CpiService.obj
 0001:0001b180       ?begin@?$vector@PAVArgument@Net@OpenHome@@V?$allocator@PAVArgument@Net@OpenHome@@@std@@@std@@QAE?AV?$_Vector_iterator@V?$_Vector_val@PAVArgument@Net@OpenHome@@V?$allocator@PAVArgument@Net@OpenHome@@@std@@@std@@@2@XZ 0041c180 f i libohNetCore:CpiService.obj
 0001:0001b1d0       ?end@?$vector@PAVArgument@Net@OpenHome@@V?$allocator@PAVArgument@Net@OpenHome@@@std@@@std@@QAE?AV?$_Vector_iterator@V?$_Vector_val@PAVArgument@Net@OpenHome@@V?$allocator@PAVArgument@Net@OpenHome@@@std@@@std@@@2@XZ 0041c1d0 f i libohNetCore:CpiService.obj
 0001:0001b220       ?erase@?$vector@PAVArgument@Net@OpenHome@@V?$allocator@PAVArgument@Net@OpenHome@@@std@@@std@@QAE?AV?$_Vector_iterator@V?$_Vector_val@PAVArgument@Net@OpenHome@@V?$allocator@PAVArgument@Net@OpenHome@@@std@@@std@@@2@V?$_Vector_const_iterator@V?$_Vector_val@PAVArgument@Net@OpenHome@@V?$allocator@PAVArgument@Net@OpenHome@@@std@@@std@@@2@0@Z 0041c220 f i libohNetCore:CpiService.obj
 0001:0001b410       ?_Inside@?$vector@PAVArgument@Net@OpenHome@@V?$allocator@PAVArgument@Net@OpenHome@@@std@@@std@@IBE_NPBQAVArgument@Net@OpenHome@@@Z 0041c410 f i libohNetCore:CpiService.obj
 0001:0001b460       ?_Reserve@?$vector@PAVArgument@Net@OpenHome@@V?$allocator@PAVArgument@Net@OpenHome@@@std@@@std@@IAEXI@Z 0041c460 f i libohNetCore:CpiService.obj
 0001:0001b4e0       ?_Tidy@?$vector@PAVArgument@Net@OpenHome@@V?$allocator@PAVArgument@Net@OpenHome@@@std@@@std@@IAEXXZ 0041c4e0 f i libohNetCore:CpiService.obj
 0001:0001b570       ?_Orphan_range@?$vector@PAVArgument@Net@OpenHome@@V?$allocator@PAVArgument@Net@OpenHome@@@std@@@std@@IBEXPAPAVArgument@Net@OpenHome@@0@Z 0041c570 f i libohNetCore:CpiService.obj
 0001:0001b680       ??0?$_Vector_val@PAVArgument@Net@OpenHome@@V?$allocator@PAVArgument@Net@OpenHome@@@std@@@std@@QAE@V?$allocator@PAVArgument@Net@OpenHome@@@1@@Z 0041c680 f i libohNetCore:CpiService.obj
 0001:0001b7a0       ??1?$_Vector_val@PAVArgument@Net@OpenHome@@V?$allocator@PAVArgument@Net@OpenHome@@@std@@@std@@QAE@XZ 0041c7a0 f i libohNetCore:CpiService.obj
 0001:0001b880       ??0?$allocator@PAVArgument@Net@OpenHome@@@std@@QAE@XZ 0041c880 f i libohNetCore:CpiService.obj
 0001:0001b8a0       ??0?$_Vector_iterator@V?$_Vector_val@PAVArgument@Net@OpenHome@@V?$allocator@PAVArgument@Net@OpenHome@@@std@@@std@@@std@@QAE@ABV01@@Z 0041c8a0 f i libohNetCore:CpiService.obj
 0001:0001b8d0       ?reserve@?$vector@PAVArgument@Net@OpenHome@@V?$allocator@PAVArgument@Net@OpenHome@@@std@@@std@@QAEXI@Z 0041c8d0 f i libohNetCore:CpiService.obj
 0001:0001ba40       ?capacity@?$vector@PAVArgument@Net@OpenHome@@V?$allocator@PAVArgument@Net@OpenHome@@@std@@@std@@QBEIXZ 0041ca40 f i libohNetCore:CpiService.obj
 0001:0001ba70       ?_Make_iter@?$vector@PAVArgument@Net@OpenHome@@V?$allocator@PAVArgument@Net@OpenHome@@@std@@@std@@QBE?AV?$_Vector_iterator@V?$_Vector_val@PAVArgument@Net@OpenHome@@V?$allocator@PAVArgument@Net@OpenHome@@@std@@@std@@@2@V?$_Vector_const_iterator@V?$_Vector_val@PAVArgument@Net@OpenHome@@V?$allocator@PAVArgument@Net@OpenHome@@@std@@@std@@@2@@Z 0041ca70 f i libohNetCore:CpiService.obj
 0001:0001bb00       ?max_size@?$vector@PAVArgument@Net@OpenHome@@V?$allocator@PAVArgument@Net@OpenHome@@@std@@@std@@QBEIXZ 0041cb00 f i libohNetCore:CpiService.obj
 0001:0001bb30       ?_Destroy@?$vector@PAVArgument@Net@OpenHome@@V?$allocator@PAVArgument@Net@OpenHome@@@std@@@std@@IAEXPAPAVArgument@Net@OpenHome@@0@Z 0041cb30 f i libohNetCore:CpiService.obj
 0001:0001bb70       ?_Grow_to@?$vector@PAVArgument@Net@OpenHome@@V?$allocator@PAVArgument@Net@OpenHome@@@std@@@std@@IBEII@Z 0041cb70 f i libohNetCore:CpiService.obj
 0001:0001bbf0       ?_Xlen@?$vector@PAVArgument@Net@OpenHome@@V?$allocator@PAVArgument@Net@OpenHome@@@std@@@std@@IBEXXZ 0041cbf0 f i libohNetCore:CpiService.obj
 0001:0001bc20       ??0?$allocator@PAVArgument@Net@OpenHome@@@std@@QAE@ABV01@@Z 0041cc20 f i libohNetCore:CpiService.obj
 0001:0001bc40       ?deallocate@?$allocator@PAVArgument@Net@OpenHome@@@std@@QAEXPAPAVArgument@Net@OpenHome@@I@Z 0041cc40 f i libohNetCore:CpiService.obj
 0001:0001bc70       ??0?$_Vector_iterator@V?$_Vector_val@PAVArgument@Net@OpenHome@@V?$allocator@PAVArgument@Net@OpenHome@@@std@@@std@@@std@@QAE@PAPAVArgument@Net@OpenHome@@PBU_Container_base12@1@@Z 0041cc70 f i libohNetCore:CpiService.obj
 0001:0001bcb0       ??9?$_Vector_const_iterator@V?$_Vector_val@PAVArgument@Net@OpenHome@@V?$allocator@PAVArgument@Net@OpenHome@@@std@@@std@@@std@@QBE_NABV01@@Z 0041ccb0 f i libohNetCore:CpiService.obj
 0001:0001bcf0       ??M?$_Vector_const_iterator@V?$_Vector_val@PAVArgument@Net@OpenHome@@V?$allocator@PAVArgument@Net@OpenHome@@@std@@@std@@@std@@QBE_NABV01@@Z 0041ccf0 f i libohNetCore:CpiService.obj
 0001:0001bd30       ?allocate@?$allocator@PAVArgument@Net@OpenHome@@@std@@QAEPAPAVArgument@Net@OpenHome@@I@Z 0041cd30 f i libohNetCore:CpiService.obj
 0001:0001bd60       ?max_size@?$allocator@PAVArgument@Net@OpenHome@@@std@@QBEIXZ 0041cd60 f i libohNetCore:CpiService.obj
 0001:0001bdb0       ??0?$_Vector_const_iterator@V?$_Vector_val@PAVArgument@Net@OpenHome@@V?$allocator@PAVArgument@Net@OpenHome@@@std@@@std@@@std@@QAE@PAPAVArgument@Net@OpenHome@@PBU_Container_base12@1@@Z 0041cdb0 f i libohNetCore:CpiService.obj
 0001:0001be30       ??8?$_Vector_const_iterator@V?$_Vector_val@PAVArgument@Net@OpenHome@@V?$allocator@PAVArgument@Net@OpenHome@@@std@@@std@@@std@@QBE_NABV01@@Z 0041ce30 f i libohNetCore:CpiService.obj
 0001:0001be70       ?_Compat@?$_Vector_const_iterator@V?$_Vector_val@PAVArgument@Net@OpenHome@@V?$allocator@PAVArgument@Net@OpenHome@@@std@@@std@@@std@@QBEXABV12@@Z 0041ce70 f i libohNetCore:CpiService.obj
 0001:0001bf20       ??0?$_Iterator012@Urandom_access_iterator_tag@std@@PAVArgument@Net@OpenHome@@HPBQAV345@ABQAV345@U_Iterator_base12@2@@std@@QAE@XZ 0041cf20 f i libohNetCore:CpiService.obj
 0001:0001bf50       ?Write@?$Fifo@PAVInvocation@Net@OpenHome@@@OpenHome@@QAEXPAVInvocation@Net@2@@Z 0041cf50 f i libohNetCore:CpiService.obj
 0001:0001bf80       ?Read@?$Fifo@PAVInvocation@Net@OpenHome@@@OpenHome@@QAEPAVInvocation@Net@2@XZ 0041cf80 f i libohNetCore:CpiService.obj
 0001:0001bfb0       ?Write@?$Fifo@PAVInvoker@Net@OpenHome@@@OpenHome@@QAEXPAVInvoker@Net@2@@Z 0041cfb0 f i libohNetCore:CpiService.obj
 0001:0001bfe0       ?Read@?$Fifo@PAVInvoker@Net@OpenHome@@@OpenHome@@QAEPAVInvoker@Net@2@XZ 0041cfe0 f i libohNetCore:CpiService.obj
 0001:0001c010       ??0?$Bws@$0L@@OpenHome@@QAE@XZ 0041d010 f i libohNetCore:CpiService.obj
 0001:0001c050       ?Ptr@?$Bws@$0L@@OpenHome@@UBEPBEXZ 0041d050 f i libohNetCore:CpiService.obj
 0001:0001c070       ??$addressof@QAVArgument@Net@OpenHome@@@std@@YGPBQAVArgument@Net@OpenHome@@ABQAV123@@Z 0041d070 f i libohNetCore:CpiService.obj
 0001:0001c080       ??$_Cons_val@V?$allocator@PAVArgument@Net@OpenHome@@@std@@PAVArgument@Net@OpenHome@@AAPAV345@@std@@YGXAAV?$allocator@PAVArgument@Net@OpenHome@@@0@PAPAVArgument@Net@OpenHome@@AAPAV234@@Z 0041d080 f i libohNetCore:CpiService.obj
 0001:0001c0b0       ??$_Cons_val@V?$allocator@PAVArgument@Net@OpenHome@@@std@@PAVArgument@Net@OpenHome@@ABQAV345@@std@@YGXAAV?$allocator@PAVArgument@Net@OpenHome@@@0@PAPAVArgument@Net@OpenHome@@ABQAV234@@Z 0041d0b0 f i libohNetCore:CpiService.obj
 0001:0001c0e0       ??$_Move@PAPAVArgument@Net@OpenHome@@PAPAV123@@std@@YGPAPAVArgument@Net@OpenHome@@PAPAV123@00@Z 0041d0e0 f i libohNetCore:CpiService.obj
 0001:0001c130       ??$?0PAVArgument@Net@OpenHome@@@?$allocator@U_Container_proxy@std@@@std@@QAE@ABV?$allocator@PAVArgument@Net@OpenHome@@@1@@Z 0041d130 f i libohNetCore:CpiService.obj
 0001:0001c150       ??$_Umove@PAPAVArgument@Net@OpenHome@@@?$vector@PAVArgument@Net@OpenHome@@V?$allocator@PAVArgument@Net@OpenHome@@@std@@@std@@IAEPAPAVArgument@Net@OpenHome@@PAPAV234@00@Z 0041d150 f i libohNetCore:CpiService.obj
 0001:0001c190       ??$_Destroy_range@V?$allocator@PAVArgument@Net@OpenHome@@@std@@@std@@YGXPAPAVArgument@Net@OpenHome@@0AAV?$allocator@PAVArgument@Net@OpenHome@@@0@@Z 0041d190 f i libohNetCore:CpiService.obj
 0001:0001c1e0       ??$_Allocate@PAVArgument@Net@OpenHome@@@std@@YGPAPAVArgument@Net@OpenHome@@IPAPAV123@@Z 0041d1e0 f i libohNetCore:CpiService.obj
 0001:0001c260       ??_G?$Bws@$0L@@OpenHome@@UAEPAXI@Z 0041d260 f i libohNetCore:CpiService.obj
 0001:0001c260       ??_E?$Bws@$0L@@OpenHome@@UAEPAXI@Z 0041d260 f i libohNetCore:CpiService.obj
 0001:0001c2a0       ?construct@?$allocator@PAVArgument@Net@OpenHome@@@std@@QAEXPAPAVArgument@Net@OpenHome@@ABQAV345@@Z 0041d2a0 f i libohNetCore:CpiService.obj
 0001:0001c2d0       ?Write@?$Fifo@PAVInvocation@Net@OpenHome@@@OpenHome@@QAEXPAVInvocation@Net@2@I@Z 0041d2d0 f i libohNetCore:CpiService.obj
 0001:0001c310       ?Read@?$Fifo@PAVInvocation@Net@OpenHome@@@OpenHome@@QAEPAVInvocation@Net@2@I@Z 0041d310 f i libohNetCore:CpiService.obj
 0001:0001c360       ?Write@?$Fifo@PAVInvoker@Net@OpenHome@@@OpenHome@@QAEXPAVInvoker@Net@2@I@Z 0041d360 f i libohNetCore:CpiService.obj
 0001:0001c3a0       ?Read@?$Fifo@PAVInvoker@Net@OpenHome@@@OpenHome@@QAEPAVInvoker@Net@2@I@Z 0041d3a0 f i libohNetCore:CpiService.obj
 0001:0001c3f0       ??$forward@AAPAVArgument@Net@OpenHome@@@std@@YGAAPAVArgument@Net@OpenHome@@AAPAV123@@Z 0041d3f0 f i libohNetCore:CpiService.obj
 0001:0001c400       ??$construct@AAPAVArgument@Net@OpenHome@@@?$allocator@PAVArgument@Net@OpenHome@@@std@@QAEXPAPAVArgument@Net@OpenHome@@AAPAV234@@Z 0041d400 f i libohNetCore:CpiService.obj
 0001:0001c4a0       ??$forward@ABQAVArgument@Net@OpenHome@@@std@@YGABQAVArgument@Net@OpenHome@@ABQAV123@@Z 0041d4a0 f i libohNetCore:CpiService.obj
 0001:0001c4b0       ??$_Ptr_cat@PAVArgument@Net@OpenHome@@PAV123@@std@@YG?AU_Scalar_ptr_iterator_tag@0@PAPAVArgument@Net@OpenHome@@0@Z 0041d4b0 f i libohNetCore:CpiService.obj
 0001:0001c510       ??$_Move@PAPAVArgument@Net@OpenHome@@PAPAV123@@std@@YGPAPAVArgument@Net@OpenHome@@PAPAV123@00U_Scalar_ptr_iterator_tag@0@@Z 0041d510 f i libohNetCore:CpiService.obj
 0001:0001c560       ??$_Uninitialized_move@PAPAVArgument@Net@OpenHome@@PAPAV123@V?$allocator@PAVArgument@Net@OpenHome@@@std@@@std@@YGPAPAVArgument@Net@OpenHome@@PAPAV123@00AAV?$allocator@PAVArgument@Net@OpenHome@@@0@@Z 0041d560 f i libohNetCore:CpiService.obj
 0001:0001c5b0       ??$_Destroy_range@V?$allocator@PAVArgument@Net@OpenHome@@@std@@@std@@YGXPAPAVArgument@Net@OpenHome@@0AAV?$allocator@PAVArgument@Net@OpenHome@@@0@U_Scalar_ptr_iterator_tag@0@@Z 0041d5b0 f i libohNetCore:CpiService.obj
 0001:0001c5c0       ??$_Construct@PAVArgument@Net@OpenHome@@ABQAV123@@std@@YGXPAPAVArgument@Net@OpenHome@@ABQAV123@@Z 0041d5c0 f i libohNetCore:CpiService.obj
 0001:0001c670       ??$_Val_type@PAPAVArgument@Net@OpenHome@@@std@@YGPAPAVArgument@Net@OpenHome@@PAPAV123@@Z 0041d670 f i libohNetCore:CpiService.obj
 0001:0001c680       ??$_Uninit_move@PAVArgument@Net@OpenHome@@PAV123@PAV123@@std@@YGPAPAVArgument@Net@OpenHome@@PAPAV123@00AAV?$allocator@PAVArgument@Net@OpenHome@@@0@0U_Scalar_ptr_iterator_tag@0@@Z 0041d680 f i libohNetCore:CpiService.obj
 0001:0001c6f0       ??$_Debug_range@PAPAVArgument@Net@OpenHome@@@std@@YGXPAPAVArgument@Net@OpenHome@@0PB_WI@Z 0041d6f0 f i libohNetCore:CpiService.obj
 0001:0001c740       ??$_Debug_pointer@PAVArgument@Net@OpenHome@@@std@@YGXPAPAVArgument@Net@OpenHome@@PB_WI@Z 0041d740 f i libohNetCore:CpiService.obj
 0001:0001c770       ??$_Iter_cat@PAPAVArgument@Net@OpenHome@@@std@@YG?AUrandom_access_iterator_tag@0@ABQAPAVArgument@Net@OpenHome@@@Z 0041d770 f i libohNetCore:CpiService.obj
 0001:0001c7d0       ??$_Debug_range2@PAPAVArgument@Net@OpenHome@@@std@@YGXPAPAVArgument@Net@OpenHome@@0PB_WIUrandom_access_iterator_tag@0@@Z 0041d7d0 f i libohNetCore:CpiService.obj
 0001:0001c830       ?Empty@Brx@OpenHome@@SGABVBrn@2@XZ 0041d830 f   libohNetCore:Buffer.obj
 0001:0001c840       ?Equals@Brx@OpenHome@@QBE_NABV12@@Z 0041d840 f   libohNetCore:Buffer.obj
 0001:0001c8c0       ?At@Brx@OpenHome@@QBEABEI@Z 0041d8c0 f   libohNetCore:Buffer.obj
 0001:0001c920       ?Split@Brx@OpenHome@@QBE?AVBrn@2@I@Z 0041d920 f   libohNetCore:Buffer.obj
 0001:0001c9b0       ?Split@Brx@OpenHome@@QBE?AVBrn@2@II@Z 0041d9b0 f   libohNetCore:Buffer.obj
 0001:0001ca30       ?BeginsWith@Brx@OpenHome@@QBE_NABV12@@Z 0041da30 f   libohNetCore:Buffer.obj
 0001:0001cab0       ??0Brn@OpenHome@@QAE@PBD@Z 0041dab0 f   libohNetCore:Buffer.obj
 0001:0001cb00       ?Set@Brn@OpenHome@@QAEXPBD@Z 0041db00 f   libohNetCore:Buffer.obj
 0001:0001cb40       ?Ptr@Brn@OpenHome@@UBEPBEXZ 0041db40 f   libohNetCore:Buffer.obj
 0001:0001cb80       ??1Brv@OpenHome@@UAE@XZ    0041db80 f   libohNetCore:Buffer.obj
 0001:0001cbc0       ?Ptr@Brv@OpenHome@@UBEPBEXZ 0041dbc0 f   libohNetCore:Buffer.obj
 0001:0001cbe0       ??0Brh@OpenHome@@QAE@ABVBrx@1@@Z 0041dbe0 f   libohNetCore:Buffer.obj
 0001:0001cc60       ??0Brh@OpenHome@@QAE@PBD@Z 0041dc60 f   libohNetCore:Buffer.obj
 0001:0001cce0       ?Set@Brh@OpenHome@@QAEXPBEI@Z 0041dce0 f   libohNetCore:Buffer.obj
 0001:0001cd40       ?Set@Brh@OpenHome@@QAEXPBD@Z 0041dd40 f   libohNetCore:Buffer.obj
 0001:0001cd80       ?TransferTo@Brh@OpenHome@@QAEXAAV12@@Z 0041dd80 f   libohNetCore:Buffer.obj
 0001:0001cde0       ?Extract@Brh@OpenHome@@QAEPADXZ 0041dde0 f   libohNetCore:Buffer.obj
 0001:0001ce20       ??0Brhz@OpenHome@@QAE@ABVBrx@1@@Z 0041de20 f   libohNetCore:Buffer.obj
 0001:0001cea0       ??0Brhz@OpenHome@@QAE@PBD@Z 0041dea0 f   libohNetCore:Buffer.obj
 0001:0001cf20       ?Set@Brhz@OpenHome@@QAEXPBEI@Z 0041df20 f   libohNetCore:Buffer.obj
 0001:0001cfe0       ?Set@Brhz@OpenHome@@QAEXPBD@Z 0041dfe0 f   libohNetCore:Buffer.obj
 0001:0001d020       ?Shrink@Brhz@OpenHome@@QAEXI@Z 0041e020 f   libohNetCore:Buffer.obj
 0001:0001d0c0       ?TransferTo@Brhz@OpenHome@@QAEXAAVBrh@2@@Z 0041e0c0 f   libohNetCore:Buffer.obj
 0001:0001d120       ?TransferTo@Brhz@OpenHome@@QAEXAAV12@@Z 0041e120 f   libohNetCore:Buffer.obj
 0001:0001d180       ?Transfer@Brhz@OpenHome@@QAEPADXZ 0041e180 f   libohNetCore:Buffer.obj
 0001:0001d1c0       ??0Bwx@OpenHome@@IAE@II@Z  0041e1c0 f   libohNetCore:Buffer.obj
 0001:0001d260       ?Replace@Bwx@OpenHome@@QAEXABVBrx@2@@Z 0041e260 f   libohNetCore:Buffer.obj
 0001:0001d2f0       ?ReplaceThrow@Bwx@OpenHome@@QAEXABVBrx@2@@Z 0041e2f0 f   libohNetCore:Buffer.obj
 0001:0001d410       ?Replace@Bwx@OpenHome@@QAEXPBEI@Z 0041e410 f   libohNetCore:Buffer.obj
 0001:0001d480       ?Replace@Bwx@OpenHome@@QAEXPBD@Z 0041e480 f   libohNetCore:Buffer.obj
 0001:0001d510       ?Append@Bwx@OpenHome@@QAEXPBD@Z 0041e510 f   libohNetCore:Buffer.obj
 0001:0001d550       ?Append@Bwx@OpenHome@@QAEXABVBrx@2@@Z 0041e550 f   libohNetCore:Buffer.obj
 0001:0001d5a0       ?Append@Bwx@OpenHome@@QAEXPBEI@Z 0041e5a0 f   libohNetCore:Buffer.obj
 0001:0001d630       ?AppendPrintf@Bwx@OpenHome@@QAAXPBDZZ 0041e630 f   libohNetCore:Buffer.obj
 0001:0001d770       ?PtrZ@Bwx@OpenHome@@QBEPBDXZ 0041e770 f   libohNetCore:Buffer.obj
 0001:0001d7f0       ?Fill@Bwx@OpenHome@@QAEXE@Z 0041e7f0 f   libohNetCore:Buffer.obj
 0001:0001d840       ?SetBytes@Bwx@OpenHome@@QAEXI@Z 0041e840 f   libohNetCore:Buffer.obj
 0001:0001d890       ?At@Bwx@OpenHome@@QAEAAEI@Z 0041e890 f   libohNetCore:Buffer.obj
 0001:0001d8f0       ??0Bwn@OpenHome@@QAE@XZ    0041e8f0 f   libohNetCore:Buffer.obj
 0001:0001d930       ??0Bwn@OpenHome@@QAE@ABVBwx@1@@Z 0041e930 f   libohNetCore:Buffer.obj
 0001:0001d9d0       ??0Bwn@OpenHome@@QAE@ABV01@@Z 0041e9d0 f   libohNetCore:Buffer.obj
 0001:0001da70       ??0Bwn@OpenHome@@QAE@PBEI@Z 0041ea70 f   libohNetCore:Buffer.obj
 0001:0001dac0       ??0Bwn@OpenHome@@QAE@PBEII@Z 0041eac0 f   libohNetCore:Buffer.obj
 0001:0001db10       ??0Bwn@OpenHome@@QAE@PBDI@Z 0041eb10 f   libohNetCore:Buffer.obj
 0001:0001db60       ??0Bwn@OpenHome@@QAE@PBDII@Z 0041eb60 f   libohNetCore:Buffer.obj
 0001:0001dbb0       ?Set@Bwn@OpenHome@@QAEXABVBwx@2@@Z 0041ebb0 f   libohNetCore:Buffer.obj
 0001:0001dc10       ?Set@Bwn@OpenHome@@QAEXPBEI@Z 0041ec10 f   libohNetCore:Buffer.obj
 0001:0001dc40       ?Set@Bwn@OpenHome@@QAEXPBEII@Z 0041ec40 f   libohNetCore:Buffer.obj
 0001:0001dc90       ?Ptr@Bwn@OpenHome@@UBEPBEXZ 0041ec90 f   libohNetCore:Buffer.obj
 0001:0001dcb0       ??0Bwh@OpenHome@@QAE@XZ    0041ecb0 f   libohNetCore:Buffer.obj
 0001:0001dcf0       ??0Bwh@OpenHome@@QAE@I@Z   0041ecf0 f   libohNetCore:Buffer.obj
 0001:0001dd40       ??0Bwh@OpenHome@@QAE@II@Z  0041ed40 f   libohNetCore:Buffer.obj
 0001:0001dd90       ??1Bwh@OpenHome@@UAE@XZ    0041ed90 f   libohNetCore:Buffer.obj
 0001:0001ddd0       ?Ptr@Bwh@OpenHome@@UBEPBEXZ 0041edd0 f   libohNetCore:Buffer.obj
 0001:0001de10       ??0Bwh@OpenHome@@QAE@PBD@Z 0041ee10 f   libohNetCore:Buffer.obj
 0001:0001deb0       ??0Bwh@OpenHome@@QAE@PBEI@Z 0041eeb0 f   libohNetCore:Buffer.obj
 0001:0001df50       ??0Bwh@OpenHome@@QAE@ABVBrx@1@@Z 0041ef50 f   libohNetCore:Buffer.obj
 0001:0001dff0       ??0Bwh@OpenHome@@QAE@ABV01@@Z 0041eff0 f   libohNetCore:Buffer.obj
 0001:0001e090       ?Grow@Bwh@OpenHome@@QAEXI@Z 0041f090 f   libohNetCore:Buffer.obj
 0001:0001e140       ?TransferTo@Bwh@OpenHome@@QAEXAAVBrh@2@@Z 0041f140 f   libohNetCore:Buffer.obj
 0001:0001e1a0       ?TransferTo@Bwh@OpenHome@@QAEXAAVBrhz@2@@Z 0041f1a0 f   libohNetCore:Buffer.obj
 0001:0001e200       ?TransferTo@Bwh@OpenHome@@QAEXAAV12@@Z 0041f200 f   libohNetCore:Buffer.obj
 0001:0001e260       ??RBufferCmp@OpenHome@@QBE_NABVBrx@1@0@Z 0041f260 f   libohNetCore:Buffer.obj
 0001:0001e360       ??0Brn@OpenHome@@QAE@PBEI@Z 0041f360 f i libohNetCore:Buffer.obj
 0001:0001e3a0       ?MaxBytes@Bwx@OpenHome@@QBEIXZ 0041f3a0 f i libohNetCore:Buffer.obj
 0001:0001e3c0       ??_GBwx@OpenHome@@UAEPAXI@Z 0041f3c0 f i libohNetCore:Buffer.obj
 0001:0001e3c0       ??_EBwx@OpenHome@@UAEPAXI@Z 0041f3c0 f i libohNetCore:Buffer.obj
 0001:0001e400       ??0BufferOverflow@OpenHome@@QAE@PBDI@Z 0041f400 f i libohNetCore:Buffer.obj
 0001:0001e440       ??1BufferOverflow@OpenHome@@QAE@XZ 0041f440 f i libohNetCore:Buffer.obj
 0001:0001e470       ??0BufferFull@OpenHome@@QAE@PBDI@Z 0041f470 f i libohNetCore:Buffer.obj
 0001:0001e4b0       ??1BufferFull@OpenHome@@QAE@XZ 0041f4b0 f i libohNetCore:Buffer.obj
 0001:0001e4e0       ??_EBwn@OpenHome@@UAEPAXI@Z 0041f4e0 f i libohNetCore:Buffer.obj
 0001:0001e4e0       ??_GBwn@OpenHome@@UAEPAXI@Z 0041f4e0 f i libohNetCore:Buffer.obj
 0001:0001e520       ??1Bwn@OpenHome@@UAE@XZ    0041f520 f i libohNetCore:Buffer.obj
 0001:0001e550       ??_EBwh@OpenHome@@UAEPAXI@Z 0041f550 f i libohNetCore:Buffer.obj
 0001:0001e550       ??_GBwh@OpenHome@@UAEPAXI@Z 0041f550 f i libohNetCore:Buffer.obj
 0001:0001e590       ?SetAssertHandler@OpenHome@@YGP6GXPBDI@ZP6GX0I@Z@Z 0041f590 f   libohNetCore:Exception.obj
 0001:0001e5c0       ?CallAssertHandler@OpenHome@@YGXPBDI@Z 0041f5c0 f   libohNetCore:Exception.obj
 0001:0001e5f0       ?AssertHandlerDefault@OpenHome@@YGXPBDI@Z 0041f5f0 f   libohNetCore:Exception.obj
 0001:0001e6e0       ?UnhandledExceptionHandler@OpenHome@@YGXPBD0I@Z 0041f6e0 f   libohNetCore:Exception.obj
 0001:0001e780       ?UnhandledExceptionHandler@OpenHome@@YGXAAVException@1@@Z 0041f780 f   libohNetCore:Exception.obj
 0001:0001e830       ?UnhandledExceptionHandler@OpenHome@@YGXAAVexception@std@@@Z 0041f830 f   libohNetCore:Exception.obj
 0001:0001e8e0       ??0Exception@OpenHome@@QAE@PBD0I@Z 0041f8e0 f   libohNetCore:Exception.obj
 0001:0001e920       ??0Exception@OpenHome@@QAE@PBD@Z 0041f920 f   libohNetCore:Exception.obj
 0001:0001e960       ??1Exception@OpenHome@@QAE@XZ 0041f960 f   libohNetCore:Exception.obj
 0001:0001e980       ?Message@Exception@OpenHome@@QAEPBDXZ 0041f980 f   libohNetCore:Exception.obj
 0001:0001e9a0       ?File@Exception@OpenHome@@QAEPBDXZ 0041f9a0 f   libohNetCore:Exception.obj
 0001:0001e9c0       ?Line@Exception@OpenHome@@QAEIXZ 0041f9c0 f   libohNetCore:Exception.obj
 0001:0001e9e0       ?Quit@Os@OpenHome@@SGXXZ   0041f9e0 f i libohNetCore:Exception.obj
 0001:0001ea00       ??RFunctorMsg@OpenHome@@QBEXPBD@Z 0041fa00 f i libohNetCore:Exception.obj
 0001:0001ea40       ??0Semaphore@OpenHome@@QAE@PBDI@Z 0041fa40 f   libohNetCore:Thread.obj
 0001:0001eac0       ??1Semaphore@OpenHome@@UAE@XZ 0041fac0 f   libohNetCore:Thread.obj
 0001:0001eb00       ?Wait@Semaphore@OpenHome@@QAEXXZ 0041fb00 f   libohNetCore:Thread.obj
 0001:0001eb30       ?Wait@Semaphore@OpenHome@@QAEXI@Z 0041fb30 f   libohNetCore:Thread.obj
 0001:0001ec20       ?Clear@Semaphore@OpenHome@@QAE_NXZ 0041fc20 f   libohNetCore:Thread.obj
 0001:0001ec60       ?Signal@Semaphore@OpenHome@@QAEXXZ 0041fc60 f   libohNetCore:Thread.obj
 0001:0001ec90       ??0Mutex@OpenHome@@QAE@PBD@Z 0041fc90 f   libohNetCore:Thread.obj
 0001:0001ed20       ??1Mutex@OpenHome@@UAE@XZ  0041fd20 f   libohNetCore:Thread.obj
 0001:0001ed60       ?Wait@Mutex@OpenHome@@QAEXXZ 0041fd60 f   libohNetCore:Thread.obj
 0001:0001ee90       ?Signal@Mutex@OpenHome@@QAEXXZ 0041fe90 f   libohNetCore:Thread.obj
 0001:0001eec0       ??0SemaphoreActive@OpenHome@@QAE@AAVSemaphore@1@@Z 0041fec0 f   libohNetCore:Thread.obj
 0001:0001ef10       ??0SemaphoreActive@OpenHome@@QAE@AAVThread@1@@Z 0041ff10 f   libohNetCore:Thread.obj
 0001:0001ef60       ?Signal@SemaphoreActive@OpenHome@@QAEXXZ 0041ff60 f   libohNetCore:Thread.obj
 0001:0001efb0       ?Signalled@SemaphoreActive@OpenHome@@QAE_NXZ 0041ffb0 f   libohNetCore:Thread.obj
 0001:0001f030       ?ConsumeOne@SemaphoreActive@OpenHome@@QAEXXZ 00420030 f   libohNetCore:Thread.obj
 0001:0001f090       ?ConsumeAll@SemaphoreActive@OpenHome@@QAEXXZ 00420090 f   libohNetCore:Thread.obj
 0001:0001f0e0       ??0Thread@OpenHome@@IAE@PBDII@Z 004200e0 f   libohNetCore:Thread.obj
 0001:0001f200       ??1Thread@OpenHome@@UAE@XZ 00420200 f   libohNetCore:Thread.obj
 0001:0001f2e0       ?Start@Thread@OpenHome@@QAEXXZ 004202e0 f   libohNetCore:Thread.obj
 0001:0001f340       ?EntryPoint@Thread@OpenHome@@CGXPAX@Z 00420340 f   libohNetCore:Thread.obj
 0001:0001f4e0       ?Wait@Thread@OpenHome@@QAEXXZ 004204e0 f   libohNetCore:Thread.obj
 0001:0001f510       ?Signal@Thread@OpenHome@@QAEXXZ 00420510 f   libohNetCore:Thread.obj
 0001:0001f540       ?TryWait@Thread@OpenHome@@QAE_NXZ 00420540 f   libohNetCore:Thread.obj
 0001:0001f570       ?Sleep@Thread@OpenHome@@SGXI@Z 00420570 f   libohNetCore:Thread.obj
 0001:0001f640       ?Current@Thread@OpenHome@@SGPAV12@XZ 00420640 f   libohNetCore:Thread.obj
 0001:0001f660       ?SupportsPriorities@Thread@OpenHome@@SG_NXZ 00420660 f   libohNetCore:Thread.obj
 0001:0001f680       ?CheckForKill@Thread@OpenHome@@IBEXXZ 00420680 f   libohNetCore:Thread.obj
 0001:0001f750       ?Kill@Thread@OpenHome@@QAEXXZ 00420750 f   libohNetCore:Thread.obj
 0001:0001f7c0       ?Name@Thread@OpenHome@@QBEABVBrx@2@XZ 004207c0 f   libohNetCore:Thread.obj
 0001:0001f7e0       ??8Thread@OpenHome@@QBE_NABV01@@Z 004207e0 f   libohNetCore:Thread.obj
 0001:0001f810       ??9Thread@OpenHome@@QBE_NABV01@@Z 00420810 f   libohNetCore:Thread.obj
 0001:0001f850       ?Join@Thread@OpenHome@@IAEXXZ 00420850 f   libohNetCore:Thread.obj
 0001:0001f8b0       ??0ThreadFunctor@OpenHome@@QAE@PBDVFunctor@1@II@Z 004208b0 f   libohNetCore:Thread.obj
 0001:0001f960       ??1ThreadFunctor@OpenHome@@UAE@XZ 00420960 f   libohNetCore:Thread.obj
 0001:0001f9e0       ?Run@ThreadFunctor@OpenHome@@EAEXXZ 004209e0 f   libohNetCore:Thread.obj
 0001:0001fa20       ??0AutoMutex@OpenHome@@QAE@AAVMutex@1@@Z 00420a20 f   libohNetCore:Thread.obj
 0001:0001fa60       ??1AutoMutex@OpenHome@@QAE@XZ 00420a60 f   libohNetCore:Thread.obj
 0001:0001fa90       ??0AtomicInt@OpenHome@@QAE@H@Z 00420a90 f   libohNetCore:Thread.obj
 0001:0001fad0       ??0AtomicInt@OpenHome@@QAE@XZ 00420ad0 f   libohNetCore:Thread.obj
 0001:0001fb00       ?Inc@AtomicInt@OpenHome@@QAEHXZ 00420b00 f   libohNetCore:Thread.obj
 0001:0001fb60       ?Dec@AtomicInt@OpenHome@@QAEHXZ 00420b60 f   libohNetCore:Thread.obj
 0001:0001fbc0       ??0bad_alloc@std@@QAE@XZ   00420bc0 f i libohNetCore:Thread.obj
 0001:0001fc10       ?SemaphoreCreate@Os@OpenHome@@SGPAXPBDI@Z 00420c10 f i libohNetCore:Thread.obj
 0001:0001fc30       ??_ESemaphore@OpenHome@@UAEPAXI@Z 00420c30 f i libohNetCore:Thread.obj
 0001:0001fc30       ??_GSemaphore@OpenHome@@UAEPAXI@Z 00420c30 f i libohNetCore:Thread.obj
 0001:0001fc70       ?SemaphoreDestroy@Os@OpenHome@@SGXPAX@Z 00420c70 f i libohNetCore:Thread.obj
 0001:0001fc90       ?SemaphoreWait@Os@OpenHome@@SGXPAX@Z 00420c90 f i libohNetCore:Thread.obj
 0001:0001fce0       ??0Timeout@OpenHome@@QAE@PBDI@Z 00420ce0 f i libohNetCore:Thread.obj
 0001:0001fd20       ?SemaphoreTimedWait@Os@OpenHome@@SG_NPAXI@Z 00420d20 f i libohNetCore:Thread.obj
 0001:0001fd70       ??1Timeout@OpenHome@@QAE@XZ 00420d70 f i libohNetCore:Thread.obj
 0001:0001fda0       ?SemaphoreClear@Os@OpenHome@@SG_NPAX@Z 00420da0 f i libohNetCore:Thread.obj
 0001:0001fdd0       ?SemaphoreSignal@Os@OpenHome@@SGXPAX@Z 00420dd0 f i libohNetCore:Thread.obj
 0001:0001fe20       ??_EMutex@OpenHome@@UAEPAXI@Z 00420e20 f i libohNetCore:Thread.obj
 0001:0001fea0       ?MutexCreate@Os@OpenHome@@SGPAXPBD@Z 00420ea0 f i libohNetCore:Thread.obj
 0001:0001fec0       ?MutexDestroy@Os@OpenHome@@SGXPAX@Z 00420ec0 f i libohNetCore:Thread.obj
 0001:0001fee0       ?MutexLock@Os@OpenHome@@SGHPAX@Z 00420ee0 f i libohNetCore:Thread.obj
 0001:0001ff10       ?MutexUnlock@Os@OpenHome@@SGXPAX@Z 00420f10 f i libohNetCore:Thread.obj
 0001:0001ff60       ??_EThread@OpenHome@@UAEPAXI@Z 00420f60 f i libohNetCore:Thread.obj
 0001:0001ff60       ??_GThread@OpenHome@@UAEPAXI@Z 00420f60 f i libohNetCore:Thread.obj
 0001:0001ffa0       ??1?$Bws@$04@OpenHome@@UAE@XZ 00420fa0 f i libohNetCore:Thread.obj
 0001:0001ffd0       ?ThreadDestroy@Os@OpenHome@@SGXPAX@Z 00420fd0 f i libohNetCore:Thread.obj
 0001:0001fff0       ?ThreadCreate@Os@OpenHome@@SGPAXPBDIIP6GXPAX@Z1@Z 00420ff0 f i libohNetCore:Thread.obj
 0001:00020020       ?ThreadTls@Os@OpenHome@@SGPAXXZ 00421020 f i libohNetCore:Thread.obj
 0001:00020040       ?ThreadSupportsPriorities@Os@OpenHome@@SG_NXZ 00421040 f i libohNetCore:Thread.obj
 0001:00020060       ??0ThreadKill@OpenHome@@QAE@PBDI@Z 00421060 f i libohNetCore:Thread.obj
 0001:000200a0       ??1ThreadKill@OpenHome@@QAE@XZ 004210a0 f i libohNetCore:Thread.obj
 0001:000200d0       ??_GThreadFunctor@OpenHome@@UAEPAXI@Z 004210d0 f i libohNetCore:Thread.obj
 0001:000200d0       ??_EThreadFunctor@OpenHome@@UAEPAXI@Z 004210d0 f i libohNetCore:Thread.obj
 0001:00020110       ??0?$Bws@$04@OpenHome@@QAE@XZ 00421110 f i libohNetCore:Thread.obj
 0001:00020150       ?Ptr@?$Bws@$04@OpenHome@@UBEPBEXZ 00421150 f i libohNetCore:Thread.obj
 0001:00020170       ??_E?$Bws@$04@OpenHome@@UAEPAXI@Z 00421170 f i libohNetCore:Thread.obj
 0001:00020170       ??_G?$Bws@$04@OpenHome@@UAEPAXI@Z 00421170 f i libohNetCore:Thread.obj
 0001:000201b0       _OsCreate@0                004211b0 f   libohNetCore:Os.obj
 0001:00020380       _OsDestroy@0               00421380 f   libohNetCore:Os.obj
 0001:00020490       _OsQuit@0                  00421490 f   libohNetCore:Os.obj
 0001:000204b0       _OsTimeInUs@0              004214b0 f   libohNetCore:Os.obj
 0001:00020590       _OsConsoleWrite@4          00421590 f   libohNetCore:Os.obj
 0001:000205d0       _OsGetPlatformNameAndVersion@12 004215d0 f   libohNetCore:Os.obj
 0001:000206a0       _OsSemaphoreCreate@8       004216a0 f   libohNetCore:Os.obj
 0001:000206e0       _OsSemaphoreDestroy@4      004216e0 f   libohNetCore:Os.obj
 0001:00020710       _OsSemaphoreWait@4         00421710 f   libohNetCore:Os.obj
 0001:00020750       _OsSemaphoreTimedWait@8    00421750 f   libohNetCore:Os.obj
 0001:000207b0       _OsSemaphoreClear@4        004217b0 f   libohNetCore:Os.obj
 0001:00020800       _OsSemaphoreSignal@4       00421800 f   libohNetCore:Os.obj
 0001:00020850       _OsMutexCreate@4           00421850 f   libohNetCore:Os.obj
 0001:000208b0       _OsMutexDestroy@4          004218b0 f   libohNetCore:Os.obj
 0001:00020900       _OsMutexLock@4             00421900 f   libohNetCore:Os.obj
 0001:00020970       _OsMutexUnlock@4           00421970 f   libohNetCore:Os.obj
 0001:000209d0       _threadEntrypoint@4        004219d0 f   libohNetCore:Os.obj
 0001:00020ad0       _OsThreadCreate@20         00421ad0 f   libohNetCore:Os.obj
 0001:00020bb0       _OsThreadTls@0             00421bb0 f   libohNetCore:Os.obj
 0001:00020be0       _OsThreadDestroy@4         00421be0 f   libohNetCore:Os.obj
 0001:00020c00       _OsThreadSupportsPriorities@0 00421c00 f   libohNetCore:Os.obj
 0001:00020c10       _OsNetworkCreate@4         00421c10 f   libohNetCore:Os.obj
 0001:00020d10       _OsNetworkBind@12          00421d10 f   libohNetCore:Os.obj
 0001:00020e10       _OsNetworkPort@8           00421e10 f   libohNetCore:Os.obj
 0001:00020ee0       _OsNetworkConnect@16       00421ee0 f   libohNetCore:Os.obj
 0001:00021170       _OsNetworkSend@12          00422170 f   libohNetCore:Os.obj
 0001:00021210       _OsNetworkSendTo@20        00422210 f   libohNetCore:Os.obj
 0001:00021300       _OsNetworkReceive@12       00422300 f   libohNetCore:Os.obj
 0001:00021490       _OsNetworkReceiveFrom@20   00422490 f   libohNetCore:Os.obj
 0001:00021690       _OsNetworkInterrupt@8      00422690 f   libohNetCore:Os.obj
 0001:00021720       _OsNetworkClose@4          00422720 f   libohNetCore:Os.obj
 0001:00021790       _OsNetworkListen@8         00422790 f   libohNetCore:Os.obj
 0001:000217f0       _OsNetworkAccept@4         004227f0 f   libohNetCore:Os.obj
 0001:00021990       _OsNetworkGetHostByName@8  00422990 f   libohNetCore:Os.obj
 0001:00021a00       _OsNetworkSocketSetSendBufBytes@8 00422a00 f   libohNetCore:Os.obj
 0001:00021a60       _OsNetworkSocketSetRecvBufBytes@8 00422a60 f   libohNetCore:Os.obj
 0001:00021ac0       _OsNetworkSocketSetReceiveTimeout@8 00422ac0 f   libohNetCore:Os.obj
 0001:00021b70       _OsNetworkTcpSetNoDelay@4  00422b70 f   libohNetCore:Os.obj
 0001:00021c00       _OsNetworkSocketSetReuseAddress@4 00422c00 f   libohNetCore:Os.obj
 0001:00021ca0       _OsNetworkSocketSetMulticastTtl@8 00422ca0 f   libohNetCore:Os.obj
 0001:00021d00       _OsNetworkSocketMulticastAddMembership@12 00422d00 f   libohNetCore:Os.obj
 0001:00021de0       _OsNetworkSocketMulticastDropMembership@12 00422de0 f   libohNetCore:Os.obj
 0001:00021e80       _OsNetworkListAdapters@8   00422e80 f   libohNetCore:Os.obj
 0001:000222a0       _OsNetworkFreeInterfaces@4 004232a0 f   libohNetCore:Os.obj
 0001:000222f0       _interfaceChangeThread@4   004232f0 f   libohNetCore:Os.obj
 0001:00022450       _OsNetworkSetInterfaceChangedObserver@8 00423450 f   libohNetCore:Os.obj
 0001:00022570       _OsNetworkSetTestInterfaceIndex@4 00423570 f   libohNetCore:Os.obj
 0001:000225b0       ??0NetworkAdapter@OpenHome@@QAE@IIPBD@Z 004235b0 f   libohNetCore:OhNet.obj
 0001:00022650       ??1NetworkAdapter@OpenHome@@AAE@XZ 00423650 f   libohNetCore:OhNet.obj
 0001:000226c0       ?AddRef@NetworkAdapter@OpenHome@@QAEXXZ 004236c0 f   libohNetCore:OhNet.obj
 0001:00022710       ?RemoveRef@NetworkAdapter@OpenHome@@QAEXXZ 00423710 f   libohNetCore:OhNet.obj
 0001:000227a0       ?Address@NetworkAdapter@OpenHome@@QBEIXZ 004237a0 f   libohNetCore:OhNet.obj
 0001:000227c0       ?Subnet@NetworkAdapter@OpenHome@@QBEIXZ 004237c0 f   libohNetCore:OhNet.obj
 0001:000227e0       ?Mask@NetworkAdapter@OpenHome@@QBEIXZ 004237e0 f   libohNetCore:OhNet.obj
 0001:00022800       ?ContainsAddress@NetworkAdapter@OpenHome@@QAE_NI@Z 00423800 f   libohNetCore:OhNet.obj
 0001:00022840       ?Name@NetworkAdapter@OpenHome@@QBEPBDXZ 00423840 f   libohNetCore:OhNet.obj
 0001:00022880       ?FullName@NetworkAdapter@OpenHome@@QBEPADXZ 00423880 f   libohNetCore:OhNet.obj
 0001:000229e0       ?Log@DefaultLogger@Net@OpenHome@@QAEXPBD@Z 004239e0 f   libohNetCore:OhNet.obj
 0001:00022a30       ?LogError@DefaultAsyncHandler@Net@OpenHome@@QAEXAAVIAsync@23@@Z 00423a30 f   libohNetCore:OhNet.obj
 0001:00022a90       ?Output@DefaultAsyncHandler@Net@OpenHome@@EAEXPBD0@Z 00423a90 f   libohNetCore:OhNet.obj
 0001:00022ad0       ?Create@InitialisationParams@Net@OpenHome@@SGPAV123@XZ 00423ad0 f   libohNetCore:OhNet.obj
 0001:00022b70       ??1InitialisationParams@Net@OpenHome@@QAE@XZ 00423b70 f   libohNetCore:OhNet.obj
 0001:00022bd0       ?SetLogOutput@InitialisationParams@Net@OpenHome@@QAEXVFunctorMsg@3@@Z 00423bd0 f   libohNetCore:OhNet.obj
 0001:00022c00       ?SetFatalErrorHandler@InitialisationParams@Net@OpenHome@@QAEXVFunctorMsg@3@@Z 00423c00 f   libohNetCore:OhNet.obj
 0001:00022c60       ?SetAsyncBeginHandler@InitialisationParams@Net@OpenHome@@QAEXVFunctorAsync@23@@Z 00423c60 f   libohNetCore:OhNet.obj
 0001:00022ca0       ?SetAsyncEndHandler@InitialisationParams@Net@OpenHome@@QAEXVFunctorAsync@23@@Z 00423ca0 f   libohNetCore:OhNet.obj
 0001:00022ce0       ?SetAsyncErrorHandler@InitialisationParams@Net@OpenHome@@QAEXVFunctorAsync@23@@Z 00423ce0 f   libohNetCore:OhNet.obj
 0001:00022d20       ?SetSubnetListChangedListener@InitialisationParams@Net@OpenHome@@QAEXVFunctor@3@@Z 00423d20 f   libohNetCore:OhNet.obj
 0001:00022d60       ?SetTcpConnectTimeout@InitialisationParams@Net@OpenHome@@QAEXI@Z 00423d60 f   libohNetCore:OhNet.obj
 0001:00022da0       ?SetMsearchTime@InitialisationParams@Net@OpenHome@@QAEXI@Z 00423da0 f   libohNetCore:OhNet.obj
 0001:00022df0       ?SetMsearchTtl@InitialisationParams@Net@OpenHome@@QAEXI@Z 00423df0 f   libohNetCore:OhNet.obj
 0001:00022e30       ?SetNumEventSessionThreads@InitialisationParams@Net@OpenHome@@QAEXI@Z 00423e30 f   libohNetCore:OhNet.obj
 0001:00022e80       ?SetNumXmlFetcherThreads@InitialisationParams@Net@OpenHome@@QAEXI@Z 00423e80 f   libohNetCore:OhNet.obj
 0001:00022ed0       ?SetNumActionInvokerThreads@InitialisationParams@Net@OpenHome@@QAEXI@Z 00423ed0 f   libohNetCore:OhNet.obj
 0001:00022f20       ?SetNumInvocations@InitialisationParams@Net@OpenHome@@QAEXI@Z 00423f20 f   libohNetCore:OhNet.obj
 0001:00022f60       ?SetNumSubscriberThreads@InitialisationParams@Net@OpenHome@@QAEXI@Z 00423f60 f   libohNetCore:OhNet.obj
 0001:00022fb0       ?SetPendingSubscriptionTimeout@InitialisationParams@Net@OpenHome@@QAEXI@Z 00423fb0 f   libohNetCore:OhNet.obj
 0001:00022ff0       ?SetFreeExternalCallback@InitialisationParams@Net@OpenHome@@QAEXP6GXPAX@Z@Z 00423ff0 f   libohNetCore:OhNet.obj
 0001:00023010       ?SetUseLoopbackNetworkAdapter@InitialisationParams@Net@OpenHome@@QAEXXZ 00424010 f   libohNetCore:OhNet.obj
 0001:00023030       ?SetDvMaxUpdateTime@InitialisationParams@Net@OpenHome@@QAEXI@Z 00424030 f   libohNetCore:OhNet.obj
 0001:00023050       ?SetDvNumServerThreads@InitialisationParams@Net@OpenHome@@QAEXI@Z 00424050 f   libohNetCore:OhNet.obj
 0001:000230a0       ?SetDvNumPublisherThreads@InitialisationParams@Net@OpenHome@@QAEXI@Z 004240a0 f   libohNetCore:OhNet.obj
 0001:000230f0       ?SetDvNumWebSocketThreads@InitialisationParams@Net@OpenHome@@QAEXI@Z 004240f0 f   libohNetCore:OhNet.obj
 0001:00023140       ?SetDvWebSocketPort@InitialisationParams@Net@OpenHome@@QAEXI@Z 00424140 f   libohNetCore:OhNet.obj
 0001:00023160       ?SetDvEnableBonjour@InitialisationParams@Net@OpenHome@@QAEXXZ 00424160 f   libohNetCore:OhNet.obj
 0001:00023180       ?LogOutput@InitialisationParams@Net@OpenHome@@QAEAAVFunctorMsg@3@XZ 00424180 f   libohNetCore:OhNet.obj
 0001:000231a0       ?FatalErrorHandler@InitialisationParams@Net@OpenHome@@QAEAAVFunctorMsg@3@XZ 004241a0 f   libohNetCore:OhNet.obj
 0001:000231c0       ?AsyncBeginHandler@InitialisationParams@Net@OpenHome@@QAEAAVFunctorAsync@23@XZ 004241c0 f   libohNetCore:OhNet.obj
 0001:000231e0       ?AsyncEndHandler@InitialisationParams@Net@OpenHome@@QAEAAVFunctorAsync@23@XZ 004241e0 f   libohNetCore:OhNet.obj
 0001:00023200       ?AsyncErrorHandler@InitialisationParams@Net@OpenHome@@QAEAAVFunctorAsync@23@XZ 00424200 f   libohNetCore:OhNet.obj
 0001:00023220       ?SubnetListChangedListener@InitialisationParams@Net@OpenHome@@QAEAAVFunctor@3@XZ 00424220 f   libohNetCore:OhNet.obj
 0001:00023240       ?TcpConnectTimeoutMs@InitialisationParams@Net@OpenHome@@QBEIXZ 00424240 f   libohNetCore:OhNet.obj
 0001:00023260       ?MsearchTimeSecs@InitialisationParams@Net@OpenHome@@QBEIXZ 00424260 f   libohNetCore:OhNet.obj
 0001:00023280       ?MsearchTtl@InitialisationParams@Net@OpenHome@@QBEIXZ 00424280 f   libohNetCore:OhNet.obj
 0001:000232a0       ?NumEventSessionThreads@InitialisationParams@Net@OpenHome@@QBEIXZ 004242a0 f   libohNetCore:OhNet.obj
 0001:000232c0       ?NumXmlFetcherThreads@InitialisationParams@Net@OpenHome@@QBEIXZ 004242c0 f   libohNetCore:OhNet.obj
 0001:000232e0       ?NumActionInvokerThreads@InitialisationParams@Net@OpenHome@@QBEIXZ 004242e0 f   libohNetCore:OhNet.obj
 0001:00023300       ?NumInvocations@InitialisationParams@Net@OpenHome@@QBEIXZ 00424300 f   libohNetCore:OhNet.obj
 0001:00023320       ?NumSubscriberThreads@InitialisationParams@Net@OpenHome@@QBEIXZ 00424320 f   libohNetCore:OhNet.obj
 0001:00023340       ?PendingSubscriptionTimeoutMs@InitialisationParams@Net@OpenHome@@QBEIXZ 00424340 f   libohNetCore:OhNet.obj
 0001:00023360       ?FreeExternal@InitialisationParams@Net@OpenHome@@QBEP6GXPAX@ZXZ 00424360 f   libohNetCore:OhNet.obj
 0001:00023380       ?UseLoopbackNetworkAdapter@InitialisationParams@Net@OpenHome@@QBE_NXZ 00424380 f   libohNetCore:OhNet.obj
 0001:000233a0       ?DvMaxUpdateTimeSecs@InitialisationParams@Net@OpenHome@@QBEIXZ 004243a0 f   libohNetCore:OhNet.obj
 0001:000233c0       ?DvNumServerThreads@InitialisationParams@Net@OpenHome@@QBEIXZ 004243c0 f   libohNetCore:OhNet.obj
 0001:000233e0       ?DvNumPublisherThreads@InitialisationParams@Net@OpenHome@@QBEIXZ 004243e0 f   libohNetCore:OhNet.obj
 0001:00023400       ?DvNumWebSocketThreads@InitialisationParams@Net@OpenHome@@QBEIXZ 00424400 f   libohNetCore:OhNet.obj
 0001:00023420       ?DvWebSocketPort@InitialisationParams@Net@OpenHome@@QBEIXZ 00424420 f   libohNetCore:OhNet.obj
 0001:00023440       ?DvIsBonjourEnabled@InitialisationParams@Net@OpenHome@@QBE_NXZ 00424440 f   libohNetCore:OhNet.obj
 0001:00023460       ??0InitialisationParams@Net@OpenHome@@AAE@XZ 00424460 f   libohNetCore:OhNet.obj
 0001:000236d0       ?FatalErrorHandlerDefault@InitialisationParams@Net@OpenHome@@AAEXPBD@Z 004246d0 f   libohNetCore:OhNet.obj
 0001:00023700       ?Initialise@UpnpLibrary@Net@OpenHome@@SGXPAVInitialisationParams@23@@Z 00424700 f   libohNetCore:OhNet.obj
 0001:00023800       ?InitialiseMinimal@UpnpLibrary@Net@OpenHome@@SGXPAVInitialisationParams@23@@Z 00424800 f   libohNetCore:OhNet.obj
 0001:000238a0       ?Close@UpnpLibrary@Net@OpenHome@@SGXXZ 004248a0 f   libohNetCore:OhNet.obj
 0001:000238c0       ?CreateSubnetList@UpnpLibrary@Net@OpenHome@@SGPAV?$vector@PAVNetworkAdapter@OpenHome@@V?$allocator@PAVNetworkAdapter@OpenHome@@@std@@@std@@XZ 004248c0 f   libohNetCore:OhNet.obj
 0001:000238e0       ?DestroySubnetList@UpnpLibrary@Net@OpenHome@@SGXPAV?$vector@PAVNetworkAdapter@OpenHome@@V?$allocator@PAVNetworkAdapter@OpenHome@@@std@@@std@@@Z 004248e0 f   libohNetCore:OhNet.obj
 0001:00023970       ?SetCurrentSubnet@UpnpLibrary@Net@OpenHome@@SGXI@Z 00424970 f   libohNetCore:OhNet.obj
 0001:00023990       ?CurrentSubnetAdapter@UpnpLibrary@Net@OpenHome@@SGPAVNetworkAdapter@3@XZ 00424990 f   libohNetCore:OhNet.obj
 0001:000239b0       ??_GNetworkAdapter@OpenHome@@AAEPAXI@Z 004249b0 f i libohNetCore:OhNet.obj
 0001:000239f0       ??BFunctorMsg@OpenHome@@QBE_NXZ 004249f0 f i libohNetCore:OhNet.obj
 0001:00023a30       ??0FunctorMsg@OpenHome@@QAE@XZ 00424a30 f i libohNetCore:OhNet.obj
 0001:00023a60       ??0DefaultAsyncHandler@Net@OpenHome@@QAE@XZ 00424a60 f i libohNetCore:OhNet.obj
 0001:00023a90       ??0IAsyncOutput@Net@OpenHome@@QAE@XZ 00424a90 f i libohNetCore:OhNet.obj
 0001:00023ab0       ?Create@Os@OpenHome@@SGHXZ 00424ab0 f i libohNetCore:OhNet.obj
 0001:00023ad0       ?Destroy@Os@OpenHome@@SGXXZ 00424ad0 f i libohNetCore:OhNet.obj
 0001:00023af0       ??_G?$vector@PAVNetworkAdapter@OpenHome@@V?$allocator@PAVNetworkAdapter@OpenHome@@@std@@@std@@QAEPAXI@Z 00424af0 f i libohNetCore:OhNet.obj
 0001:00023b30       ??1?$vector@PAVNetworkAdapter@OpenHome@@V?$allocator@PAVNetworkAdapter@OpenHome@@@std@@@std@@QAE@XZ 00424b30 f i libohNetCore:OhNet.obj
 0001:00023ba0       ?_Tidy@?$vector@PAVNetworkAdapter@OpenHome@@V?$allocator@PAVNetworkAdapter@OpenHome@@@std@@@std@@IAEXXZ 00424ba0 f i libohNetCore:OhNet.obj
 0001:00023c30       ??1?$_Vector_val@PAVNetworkAdapter@OpenHome@@V?$allocator@PAVNetworkAdapter@OpenHome@@@std@@@std@@QAE@XZ 00424c30 f i libohNetCore:OhNet.obj
 0001:00023d10       ?_Destroy@?$vector@PAVNetworkAdapter@OpenHome@@V?$allocator@PAVNetworkAdapter@OpenHome@@@std@@@std@@IAEXPAPAVNetworkAdapter@OpenHome@@0@Z 00424d10 f i libohNetCore:OhNet.obj
 0001:00023d50       ?deallocate@?$allocator@PAVNetworkAdapter@OpenHome@@@std@@QAEXPAPAVNetworkAdapter@OpenHome@@I@Z 00424d50 f i libohNetCore:OhNet.obj
 0001:00023d80       ??$MakeFunctorMsg@VDefaultLogger@Net@OpenHome@@V123@@OpenHome@@YG?AV?$MemberTranslatorMsg@VDefaultLogger@Net@OpenHome@@P8123@AEXPBD@Z@0@AAVDefaultLogger@Net@0@ABQ8230@AEXPBD@Z@Z 00424d80 f i libohNetCore:OhNet.obj
 0001:00023db0       ??$MakeFunctorAsync@VDefaultAsyncHandler@Net@OpenHome@@V123@@Net@OpenHome@@YG?AV?$MemberTranslatorAsync@VDefaultAsyncHandler@Net@OpenHome@@P8123@AEXAAVIAsync@23@@Z@01@AAVDefaultAsyncHandler@01@ABQ8301@AEXAAVIAsync@01@@Z@Z 00424db0 f i libohNetCore:OhNet.obj
 0001:00023de0       ??$MakeFunctorMsg@VInitialisationParams@Net@OpenHome@@V123@@OpenHome@@YG?AV?$MemberTranslatorMsg@VInitialisationParams@Net@OpenHome@@P8123@AEXPBD@Z@0@AAVInitialisationParams@Net@0@ABQ8230@AEXPBD@Z@Z 00424de0 f i libohNetCore:OhNet.obj
 0001:00023e10       ??$?0PAVNetworkAdapter@OpenHome@@@?$allocator@U_Container_proxy@std@@@std@@QAE@ABV?$allocator@PAVNetworkAdapter@OpenHome@@@1@@Z 00424e10 f i libohNetCore:OhNet.obj
 0001:00023e30       ??$_Destroy_range@V?$allocator@PAVNetworkAdapter@OpenHome@@@std@@@std@@YGXPAPAVNetworkAdapter@OpenHome@@0AAV?$allocator@PAVNetworkAdapter@OpenHome@@@0@@Z 00424e30 f i libohNetCore:OhNet.obj
 0001:00023e80       ??0?$MemberTranslatorMsg@VDefaultLogger@Net@OpenHome@@P8123@AEXPBD@Z@OpenHome@@QAE@AAVDefaultLogger@Net@1@ABQ8231@AEXPBD@Z@Z 00424e80 f i libohNetCore:OhNet.obj
 0001:00023ec0       ??0?$MemberTranslatorAsync@VDefaultAsyncHandler@Net@OpenHome@@P8123@AEXAAVIAsync@23@@Z@Net@OpenHome@@QAE@AAVDefaultAsyncHandler@12@ABQ8312@AEXAAVIAsync@12@@Z@Z 00424ec0 f i libohNetCore:OhNet.obj
 0001:00023f00       ??0?$MemberTranslatorMsg@VInitialisationParams@Net@OpenHome@@P8123@AEXPBD@Z@OpenHome@@QAE@AAVInitialisationParams@Net@1@ABQ8231@AEXPBD@Z@Z 00424f00 f i libohNetCore:OhNet.obj
 0001:00023f40       ?Thunk@?$MemberTranslatorMsg@VDefaultLogger@Net@OpenHome@@P8123@AEXPBD@Z@OpenHome@@SGXABVFunctorMsg@2@PBD@Z 00424f40 f i libohNetCore:OhNet.obj
 0001:00023f90       ?Thunk@?$MemberTranslatorAsync@VDefaultAsyncHandler@Net@OpenHome@@P8123@AEXAAVIAsync@23@@Z@Net@OpenHome@@SGXABVFunctorAsync@23@AAVIAsync@23@@Z 00424f90 f i libohNetCore:OhNet.obj
 0001:00023fe0       ?Thunk@?$MemberTranslatorMsg@VInitialisationParams@Net@OpenHome@@P8123@AEXPBD@Z@OpenHome@@SGXABVFunctorMsg@2@PBD@Z 00424fe0 f i libohNetCore:OhNet.obj
 0001:00024030       ??$_Ptr_cat@PAVNetworkAdapter@OpenHome@@PAV12@@std@@YG?AU_Scalar_ptr_iterator_tag@0@PAPAVNetworkAdapter@OpenHome@@0@Z 00425030 f i libohNetCore:OhNet.obj
 0001:00024090       ??$_Destroy_range@V?$allocator@PAVNetworkAdapter@OpenHome@@@std@@@std@@YGXPAPAVNetworkAdapter@OpenHome@@0AAV?$allocator@PAVNetworkAdapter@OpenHome@@@0@U_Scalar_ptr_iterator_tag@0@@Z 00425090 f i libohNetCore:OhNet.obj
 0001:000240a0       ??0CpDeviceListUpnpAll@Net@OpenHome@@QAE@VFunctorCpDevice@12@0@Z 004250a0 f   libohNetCore:CpDeviceUpnpCore.obj
 0001:00024260       ??0CpDeviceListUpnpRoot@Net@OpenHome@@QAE@VFunctorCpDevice@12@0@Z 00425260 f   libohNetCore:CpDeviceUpnpCore.obj
 0001:00024420       ??0CpDeviceListUpnpUuid@Net@OpenHome@@QAE@ABVBrx@2@VFunctorCpDevice@12@1@Z 00425420 f   libohNetCore:CpDeviceUpnpCore.obj
 0001:000245f0       ??0CpDeviceListUpnpDeviceType@Net@OpenHome@@QAE@ABVBrx@2@0IVFunctorCpDevice@12@1@Z 004255f0 f   libohNetCore:CpDeviceUpnpCore.obj
 0001:000247c0       ??0CpDeviceListUpnpServiceType@Net@OpenHome@@QAE@ABVBrx@2@0IVFunctorCpDevice@12@1@Z 004257c0 f   libohNetCore:CpDeviceUpnpCore.obj
 0001:00024990       ??0FunctorCpiDevice@Net@OpenHome@@QAE@XZ 00425990 f i libohNetCore:CpDeviceUpnpCore.obj
 0001:000249c0       ?Level@Debug@OpenHome@@SGIXZ 004259c0 f   libohNetCore:Debug.obj
 0001:000249d0       ?SetLevel@Debug@OpenHome@@SGXI@Z 004259d0 f   libohNetCore:Debug.obj
 0001:000249e0       ?TestLevel@Debug@OpenHome@@SG_NI@Z 004259e0 f   libohNetCore:Debug.obj
 0001:00024a00       ?BreakBeforeThrow@Debug@OpenHome@@SG_NXZ 00425a00 f   libohNetCore:Debug.obj
 0001:00024a10       ?SetBreakBeforeThrow@Debug@OpenHome@@SGX_N@Z 00425a10 f   libohNetCore:Debug.obj
 0001:00024a20       ??0AutoLog@@QAE@IPBD@Z     00425a20 f   libohNetCore:Debug.obj
 0001:00024a80       ??1AutoLog@@QAE@XZ         00425a80 f   libohNetCore:Debug.obj
 0001:00024ad0       ?StartCp@UpnpLibrary@Net@OpenHome@@SGXI@Z 00425ad0 f   libohNetCore:OhNetCp.obj
 0001:00024b70       ?hexChar@@YGDE@Z           00425b70 f   libohNetCore:Printer.obj
 0001:00024bb0       ?RegisterOutput@Log@OpenHome@@SGXAAVFunctorMsg@2@@Z 00425bb0 f   libohNetCore:Printer.obj
 0001:00024be0       ?Print@Log@OpenHome@@SGHABVBrx@2@@Z 00425be0 f   libohNetCore:Printer.obj
 0001:00024c00       ?PrintHex@Log@OpenHome@@SGHABVBrx@2@@Z 00425c00 f   libohNetCore:Printer.obj
 0001:00024c20       ?Print@Log@OpenHome@@SAHPBDZZ 00425c20 f   libohNetCore:Printer.obj
 0001:00024c70       ?Print@Log@OpenHome@@SGHPBDPAD@Z 00425c70 f   libohNetCore:Printer.obj
 0001:00024c90       ?PrintHex@Log@OpenHome@@SGHAAVFunctorMsg@2@ABVBrx@2@@Z 00425c90 f   libohNetCore:Printer.obj
 0001:00024ff0       ?Print@Log@OpenHome@@SGHAAVFunctorMsg@2@ABVBrx@2@@Z 00425ff0 f   libohNetCore:Printer.obj
 0001:00025180       ?Print@Log@OpenHome@@SGHAAVFunctorMsg@2@PBDPAD@Z 00426180 f   libohNetCore:Printer.obj
 0001:000252d0       ?DoPrint@Log@OpenHome@@CGHAAVFunctorMsg@2@PBE@Z 004262d0 f   libohNetCore:Printer.obj
 0001:00025310       ??ABrx@OpenHome@@QBEABEI@Z 00426310 f i libohNetCore:Printer.obj
 0001:00025340       ??1?$Bws@$0EAB@@OpenHome@@UAE@XZ 00426340 f i libohNetCore:Printer.obj
 0001:00025370       ??0?$Bws@$0EAB@@OpenHome@@QAE@I@Z 00426370 f i libohNetCore:Printer.obj
 0001:000253b0       ?Ptr@?$Bws@$0EAB@@OpenHome@@UBEPBEXZ 004263b0 f i libohNetCore:Printer.obj
 0001:000253d0       ??_E?$Bws@$0EAB@@OpenHome@@UAEPAXI@Z 004263d0 f i libohNetCore:Printer.obj
 0001:000253d0       ??_G?$Bws@$0EAB@@OpenHome@@UAEPAXI@Z 004263d0 f i libohNetCore:Printer.obj
 0001:00025410       ?Now@Time@OpenHome@@SGIXZ  00426410 f   libohNetCore:Timer.obj
 0001:00025430       ?IsBeforeOrAt@Time@OpenHome@@SG_NII@Z 00426430 f   libohNetCore:Timer.obj
 0001:00025460       ?IsAfter@Time@OpenHome@@SG_NII@Z 00426460 f   libohNetCore:Timer.obj
 0001:00025490       ?IsInPastOrNow@Time@OpenHome@@SG_NI@Z 00426490 f   libohNetCore:Timer.obj
 0001:000254b0       ?IsInFuture@Time@OpenHome@@SG_NI@Z 004264b0 f   libohNetCore:Timer.obj
 0001:000254d0       ?TimeToWaitFor@Time@OpenHome@@SGHI@Z 004264d0 f   libohNetCore:Timer.obj
 0001:000254f0       ??0Timer@OpenHome@@QAE@VFunctor@1@@Z 004264f0 f   libohNetCore:Timer.obj
 0001:00025540       ?FireIn@Timer@OpenHome@@QAEXI@Z 00426540 f   libohNetCore:Timer.obj
 0001:000255b0       ?FireAt@Timer@OpenHome@@QAEXI@Z 004265b0 f   libohNetCore:Timer.obj
 0001:00025640       ?Cancel@Timer@OpenHome@@QAEXXZ 00426640 f   libohNetCore:Timer.obj
 0001:00025690       ?DoCancel@Timer@OpenHome@@AAEXXZ 00426690 f   libohNetCore:Timer.obj
 0001:00025700       ??1Timer@OpenHome@@QAE@XZ  00426700 f   libohNetCore:Timer.obj
 0001:00025780       ??0TimerManager@OpenHome@@QAE@XZ 00426780 f   libohNetCore:Timer.obj
 0001:00025970       ??1TimerManager@OpenHome@@UAE@XZ 00426970 f   libohNetCore:Timer.obj
 0001:00025ab0       ?Stop@TimerManager@OpenHome@@QAEXXZ 00426ab0 f   libohNetCore:Timer.obj
 0001:00025b90       ?CallbackLock@TimerManager@OpenHome@@QAEXXZ 00426b90 f   libohNetCore:Timer.obj
 0001:00025bc0       ?CallbackUnlock@TimerManager@OpenHome@@QAEXXZ 00426bc0 f   libohNetCore:Timer.obj
 0001:00025bf0       ?HeadChanged@TimerManager@OpenHome@@EAEXAAVQueueSortedEntry@2@@Z 00426bf0 f   libohNetCore:Timer.obj
 0001:00025d10       ?Fire@TimerManager@OpenHome@@AAEXXZ 00426d10 f   libohNetCore:Timer.obj
 0001:00025e10       ?Thread@TimerManager@OpenHome@@ABEPAV02@XZ 00426e10 f   libohNetCore:Timer.obj
 0001:00025e30       ?Compare@TimerManager@OpenHome@@EAEHAAVQueueSortedEntry@2@0@Z 00426e30 f   libohNetCore:Timer.obj
 0001:00025e80       ?Run@TimerManager@OpenHome@@AAEXXZ 00426e80 f   libohNetCore:Timer.obj
 0001:00025f90       ??0QueueSortedEntryTimer@OpenHome@@QAE@XZ 00426f90 f i libohNetCore:Timer.obj
 0001:00025fc0       ??_ETimerManager@OpenHome@@UAEPAXI@Z 00426fc0 f i libohNetCore:Timer.obj
 0001:00025fc0       ??_GTimerManager@OpenHome@@UAEPAXI@Z 00426fc0 f i libohNetCore:Timer.obj
 0001:00026000       ??0?$QueueSorted@VTimer@OpenHome@@@OpenHome@@QAE@XZ 00427000 f i libohNetCore:Timer.obj
 0001:00026030       ??1?$QueueSorted@VTimer@OpenHome@@@OpenHome@@UAE@XZ 00427030 f i libohNetCore:Timer.obj
 0001:00026060       ??_E?$QueueSorted@VTimer@OpenHome@@@OpenHome@@UAEPAXI@Z 00427060 f i libohNetCore:Timer.obj
 0001:00026060       ??_G?$QueueSorted@VTimer@OpenHome@@@OpenHome@@UAEPAXI@Z 00427060 f i libohNetCore:Timer.obj
 0001:000260a0       ?Add@?$QueueSorted@VTimer@OpenHome@@@OpenHome@@QAEXAAVTimer@2@@Z 004270a0 f i libohNetCore:Timer.obj
 0001:000260d0       ?Remove@?$QueueSorted@VTimer@OpenHome@@@OpenHome@@QAEXAAVTimer@2@@Z 004270d0 f i libohNetCore:Timer.obj
 0001:00026100       ?RemoveHead@?$QueueSorted@VTimer@OpenHome@@@OpenHome@@QAEAAVTimer@2@XZ 00427100 f i libohNetCore:Timer.obj
 0001:00026130       ?Entry@?$QueueSorted@VTimer@OpenHome@@@OpenHome@@IAEAAVTimer@2@AAVQueueSortedEntry@2@@Z 00427130 f i libohNetCore:Timer.obj
 0001:00026150       ??$MakeFunctor@VTimerManager@OpenHome@@XV12@@OpenHome@@YG?AV?$MemberTranslator@VTimerManager@OpenHome@@P812@AEXXZ@0@AAVTimerManager@0@ABQ820@AEXXZ@Z 00427150 f i libohNetCore:Timer.obj
 0001:00026180       ??0?$MemberTranslator@VTimerManager@OpenHome@@P812@AEXXZ@OpenHome@@QAE@AAVTimerManager@1@ABQ821@AEXXZ@Z 00427180 f i libohNetCore:Timer.obj
 0001:000261c0       ?Thunk@?$MemberTranslator@VTimerManager@OpenHome@@P812@AEXXZ@OpenHome@@SGXABVFunctor@2@@Z 004271c0 f i libohNetCore:Timer.obj
 0001:00026210       ??0Stack@Net@OpenHome@@QAE@XZ 00427210 f   libohNetCore:Stack.obj
 0001:00026310       ??0Stack@Net@OpenHome@@QAE@PAVInitialisationParams@12@@Z 00427310 f   libohNetCore:Stack.obj
 0001:00026530       ?Destroy@Stack@Net@OpenHome@@SGXXZ 00427530 f   libohNetCore:Stack.obj
 0001:00026590       ??1Stack@Net@OpenHome@@AAE@XZ 00427590 f   libohNetCore:Stack.obj
 0001:000267a0       ?IsInitialised@Stack@Net@OpenHome@@SG_NXZ 004277a0 f   libohNetCore:Stack.obj
 0001:000267c0       ?GetVersion@Stack@Net@OpenHome@@SGXAAI0@Z 004277c0 f   libohNetCore:Stack.obj
 0001:000267e0       ?TimerManager@Stack@Net@OpenHome@@SGAAV03@XZ 004277e0 f   libohNetCore:Stack.obj
 0001:000267f0       ?Mutex@Stack@Net@OpenHome@@SGAAV03@XZ 004277f0 f   libohNetCore:Stack.obj
 0001:00026800       ?NetworkAdapterList@Stack@Net@OpenHome@@SGAAV03@XZ 00427800 f   libohNetCore:Stack.obj
 0001:00026810       ?MulticastListenerClaim@Stack@Net@OpenHome@@SGAAVSsdpListenerMulticast@23@I@Z 00427810 f   libohNetCore:Stack.obj
 0001:000269c0       ?MulticastListenerRelease@Stack@Net@OpenHome@@SGXI@Z 004279c0 f   libohNetCore:Stack.obj
 0001:00026b60       ?SequenceNumber@Stack@Net@OpenHome@@SGIXZ 00427b60 f   libohNetCore:Stack.obj
 0001:00026bc0       ?InitParams@Stack@Net@OpenHome@@SGAAVInitialisationParams@23@XZ 00427bc0 f   libohNetCore:Stack.obj
 0001:00026bd0       ?AddObject@Stack@Net@OpenHome@@SGXPAXPBD@Z 00427bd0 f   libohNetCore:Stack.obj
 0001:00026c00       ?RemoveObject@Stack@Net@OpenHome@@SGXPAXPBD@Z 00427c00 f   libohNetCore:Stack.obj
 0001:00026c30       ?ListObjects@Stack@Net@OpenHome@@SGXXZ 00427c30 f   libohNetCore:Stack.obj
 0001:00026c50       ?DoAddObject@Stack@Net@OpenHome@@AAEXPAXPBD@Z 00427c50 f   libohNetCore:Stack.obj
 0001:00026eb0       ?DoRemoveObject@Stack@Net@OpenHome@@AAEXPAXPBD@Z 00427eb0 f   libohNetCore:Stack.obj
 0001:00027150       ?DoListObjects@Stack@Net@OpenHome@@AAEXXZ 00428150 f   libohNetCore:Stack.obj
 0001:00027360       ?SetCpiStack@Stack@Net@OpenHome@@CGXPAVIStack@23@@Z 00428360 f   libohNetCore:Stack.obj
 0001:00027380       ?SetDviStack@Stack@Net@OpenHome@@CGXPAVIStack@23@@Z 00428380 f   libohNetCore:Stack.obj
 0001:000273a0       ?CpiStack@Stack@Net@OpenHome@@CGPAVIStack@23@XZ 004283a0 f   libohNetCore:Stack.obj
 0001:000273b0       ?DviStack@Stack@Net@OpenHome@@CGPAVIStack@23@XZ 004283b0 f   libohNetCore:Stack.obj
 0001:000273c0       ??0MListener@Stack@Net@OpenHome@@QAE@I@Z 004283c0 f   libohNetCore:Stack.obj
 0001:00027400       ?Listener@MListener@Stack@Net@OpenHome@@QAEAAVSsdpListenerMulticast@34@XZ 00428400 f   libohNetCore:Stack.obj
 0001:00027420       ?Interface@MListener@Stack@Net@OpenHome@@QBEIXZ 00428420 f   libohNetCore:Stack.obj
 0001:00027450       ?AddRef@MListener@Stack@Net@OpenHome@@QAEXXZ 00428450 f   libohNetCore:Stack.obj
 0001:00027480       ?RemoveRef@MListener@Stack@Net@OpenHome@@QAE_NXZ 00428480 f   libohNetCore:Stack.obj
 0001:000274c0       ??0ObjectType@Stack@Net@OpenHome@@QAE@PBD@Z 004284c0 f   libohNetCore:Stack.obj
 0001:00027530       ??1ObjectType@Stack@Net@OpenHome@@QAE@XZ 00428530 f   libohNetCore:Stack.obj
 0001:000275c0       ??1?$map@VBrn@OpenHome@@PAVObjectType@Stack@Net@2@VBufferCmp@2@V?$allocator@U?$pair@$$CBVBrn@OpenHome@@PAVObjectType@Stack@Net@2@@std@@@std@@@std@@QAE@XZ 004285c0 f i libohNetCore:Stack.obj
 0001:000275f0       ??_GStack@Net@OpenHome@@AAEPAXI@Z 004285f0 f i libohNetCore:Stack.obj
 0001:00027630       ??_GNetworkAdapterList@OpenHome@@QAEPAXI@Z 00428630 f i libohNetCore:Stack.obj
 0001:00027670       ??_GInitialisationParams@Net@OpenHome@@QAEPAXI@Z 00428670 f i libohNetCore:Stack.obj
 0001:000276b0       ??_GMListener@Stack@Net@OpenHome@@QAEPAXI@Z 004286b0 f i libohNetCore:Stack.obj
 0001:000276f0       ??1?$_Vector_iterator@V?$_Vector_val@PAVMListener@Stack@Net@OpenHome@@V?$allocator@PAVMListener@Stack@Net@OpenHome@@@std@@@std@@@std@@QAE@XZ 004286f0 f i libohNetCore:Stack.obj
 0001:00027720       ??0?$_Vector_const_iterator@V?$_Vector_val@PAVMListener@Stack@Net@OpenHome@@V?$allocator@PAVMListener@Stack@Net@OpenHome@@@std@@@std@@@std@@QAE@ABV01@@Z 00428720 f i libohNetCore:Stack.obj
 0001:00027760       ??1?$_Vector_const_iterator@V?$_Vector_val@PAVMListener@Stack@Net@OpenHome@@V?$allocator@PAVMListener@Stack@Net@OpenHome@@@std@@@std@@@std@@QAE@XZ 00428760 f i libohNetCore:Stack.obj
 0001:00027790       ??1MListener@Stack@Net@OpenHome@@QAE@XZ 00428790 f i libohNetCore:Stack.obj
 0001:000277c0       ??0?$_Iterator012@Urandom_access_iterator_tag@std@@PAVMListener@Stack@Net@OpenHome@@HPBQAV3456@ABQAV3456@U_Iterator_base12@2@@std@@QAE@ABU01@@Z 004287c0 f i libohNetCore:Stack.obj
 0001:000277f0       ??1?$_Iterator012@Urandom_access_iterator_tag@std@@PAVMListener@Stack@Net@OpenHome@@HPBQAV3456@ABQAV3456@U_Iterator_base12@2@@std@@QAE@XZ 004287f0 f i libohNetCore:Stack.obj
 0001:00027820       ?Set@Brn@OpenHome@@QAEXABVBrx@2@@Z 00428820 f i libohNetCore:Stack.obj
 0001:00027870       ?Name@ObjectType@Stack@Net@OpenHome@@QAEABVBrx@4@XZ 00428870 f i libohNetCore:Stack.obj
 0001:00027890       ?Map@ObjectType@Stack@Net@OpenHome@@QAEAAV?$map@PAXPAXU?$less@PAX@std@@V?$allocator@U?$pair@QAXPAX@std@@@2@@std@@XZ 00428890 f i libohNetCore:Stack.obj
 0001:000278b0       ??1?$_Tree_iterator@V?$_Tree_val@V?$_Tmap_traits@VBrn@OpenHome@@PAVObjectType@Stack@Net@2@VBufferCmp@2@V?$allocator@U?$pair@$$CBVBrn@OpenHome@@PAVObjectType@Stack@Net@2@@std@@@std@@$0A@@std@@@std@@@std@@QAE@XZ 004288b0 f i libohNetCore:Stack.obj
 0001:000278e0       ??1?$pair@VBrn@OpenHome@@PAVObjectType@Stack@Net@2@@std@@QAE@XZ 004288e0 f i libohNetCore:Stack.obj
 0001:00027910       ??1?$pair@V?$_Tree_iterator@V?$_Tree_val@V?$_Tmap_traits@VBrn@OpenHome@@PAVObjectType@Stack@Net@2@VBufferCmp@2@V?$allocator@U?$pair@$$CBVBrn@OpenHome@@PAVObjectType@Stack@Net@2@@std@@@std@@$0A@@std@@@std@@@std@@_N@std@@QAE@XZ 00428910 f i libohNetCore:Stack.obj
 0001:00027940       ??1?$pair@V?$_Tree_iterator@V?$_Tree_val@V?$_Tmap_traits@PAXPAXU?$less@PAX@std@@V?$allocator@U?$pair@QAXPAX@std@@@2@$0A@@std@@@std@@@std@@_N@std@@QAE@XZ 00428940 f i libohNetCore:Stack.obj
 0001:00027970       ??1?$_Tree_const_iterator@V?$_Tree_val@V?$_Tmap_traits@VBrn@OpenHome@@PAVObjectType@Stack@Net@2@VBufferCmp@2@V?$allocator@U?$pair@$$CBVBrn@OpenHome@@PAVObjectType@Stack@Net@2@@std@@@std@@$0A@@std@@@std@@@std@@QAE@XZ 00428970 f i libohNetCore:Stack.obj
 0001:000279a0       ??1?$_Pair_base@VBrn@OpenHome@@PAVObjectType@Stack@Net@2@@std@@QAE@XZ 004289a0 f i libohNetCore:Stack.obj
 0001:000279d0       ??1?$_Pair_base@V?$_Tree_iterator@V?$_Tree_val@V?$_Tmap_traits@VBrn@OpenHome@@PAVObjectType@Stack@Net@2@VBufferCmp@2@V?$allocator@U?$pair@$$CBVBrn@OpenHome@@PAVObjectType@Stack@Net@2@@std@@@std@@$0A@@std@@@std@@@std@@_N@std@@QAE@XZ 004289d0 f i libohNetCore:Stack.obj
 0001:00027a00       ??1?$_Pair_base@V?$_Tree_iterator@V?$_Tree_val@V?$_Tmap_traits@PAXPAXU?$less@PAX@std@@V?$allocator@U?$pair@QAXPAX@std@@@2@$0A@@std@@@std@@@std@@_N@std@@QAE@XZ 00428a00 f i libohNetCore:Stack.obj
 0001:00027a30       ??1?$_Tree_unchecked_const_iterator@V?$_Tree_val@V?$_Tmap_traits@VBrn@OpenHome@@PAVObjectType@Stack@Net@2@VBufferCmp@2@V?$allocator@U?$pair@$$CBVBrn@OpenHome@@PAVObjectType@Stack@Net@2@@std@@@std@@$0A@@std@@@std@@U_Iterator_base12@2@@std@@QAE@XZ 00428a30 f i libohNetCore:Stack.obj
 0001:00027a60       ??1?$_Tree_iterator@V?$_Tree_val@V?$_Tmap_traits@PAXPAXU?$less@PAX@std@@V?$allocator@U?$pair@QAXPAX@std@@@2@$0A@@std@@@std@@@std@@QAE@XZ 00428a60 f i libohNetCore:Stack.obj
 0001:00027a90       ??1?$_Iterator012@Ubidirectional_iterator_tag@std@@U?$pair@$$CBVBrn@OpenHome@@PAVObjectType@Stack@Net@2@@2@HPBU32@ABU32@U_Iterator_base12@2@@std@@QAE@XZ 00428a90 f i libohNetCore:Stack.obj
 0001:00027ac0       ??1?$_Tree_const_iterator@V?$_Tree_val@V?$_Tmap_traits@PAXPAXU?$less@PAX@std@@V?$allocator@U?$pair@QAXPAX@std@@@2@$0A@@std@@@std@@@std@@QAE@XZ 00428ac0 f i libohNetCore:Stack.obj
 0001:00027af0       ??1?$_Tree_unchecked_const_iterator@V?$_Tree_val@V?$_Tmap_traits@PAXPAXU?$less@PAX@std@@V?$allocator@U?$pair@QAXPAX@std@@@2@$0A@@std@@@std@@U_Iterator_base12@2@@std@@QAE@XZ 00428af0 f i libohNetCore:Stack.obj
 0001:00027b20       ??1?$_Iterator012@Ubidirectional_iterator_tag@std@@U?$pair@QAXPAX@2@HPBU32@ABU32@U_Iterator_base12@2@@std@@QAE@XZ 00428b20 f i libohNetCore:Stack.obj
 0001:00027b50       ??0?$_Tree_const_iterator@V?$_Tree_val@V?$_Tmap_traits@PAXPAXU?$less@PAX@std@@V?$allocator@U?$pair@QAXPAX@std@@@2@$0A@@std@@@std@@@std@@QAE@ABV01@@Z 00428b50 f i libohNetCore:Stack.obj
 0001:00027b80       ??_GObjectType@Stack@Net@OpenHome@@QAEPAXI@Z 00428b80 f i libohNetCore:Stack.obj
 0001:00027bc0       ??0?$_Tree_const_iterator@V?$_Tree_val@V?$_Tmap_traits@VBrn@OpenHome@@PAVObjectType@Stack@Net@2@VBufferCmp@2@V?$allocator@U?$pair@$$CBVBrn@OpenHome@@PAVObjectType@Stack@Net@2@@std@@@std@@$0A@@std@@@std@@@std@@QAE@ABV01@@Z 00428bc0 f i libohNetCore:Stack.obj
 0001:00027bf0       ??0?$_Tree_unchecked_const_iterator@V?$_Tree_val@V?$_Tmap_traits@PAXPAXU?$less@PAX@std@@V?$allocator@U?$pair@QAXPAX@std@@@2@$0A@@std@@@std@@U_Iterator_base12@2@@std@@QAE@ABV01@@Z 00428bf0 f i libohNetCore:Stack.obj
 0001:00027c30       ??0?$_Tree_unchecked_const_iterator@V?$_Tree_val@V?$_Tmap_traits@VBrn@OpenHome@@PAVObjectType@Stack@Net@2@VBufferCmp@2@V?$allocator@U?$pair@$$CBVBrn@OpenHome@@PAVObjectType@Stack@Net@2@@std@@@std@@$0A@@std@@@std@@U_Iterator_base12@2@@std@@QAE@ABV01@@Z 00428c30 f i libohNetCore:Stack.obj
 0001:00027c70       ??0?$_Iterator012@Ubidirectional_iterator_tag@std@@U?$pair@QAXPAX@2@HPBU32@ABU32@U_Iterator_base12@2@@std@@QAE@ABU01@@Z 00428c70 f i libohNetCore:Stack.obj
 0001:00027ca0       ??0?$_Iterator012@Ubidirectional_iterator_tag@std@@U?$pair@$$CBVBrn@OpenHome@@PAVObjectType@Stack@Net@2@@2@HPBU32@ABU32@U_Iterator_base12@2@@std@@QAE@ABU01@@Z 00428ca0 f i libohNetCore:Stack.obj
 0001:00027cd0       ??1?$map@PAXPAXU?$less@PAX@std@@V?$allocator@U?$pair@QAXPAX@std@@@2@@std@@QAE@XZ 00428cd0 f i libohNetCore:Stack.obj
 0001:00027d00       ??0?$map@PAXPAXU?$less@PAX@std@@V?$allocator@U?$pair@QAXPAX@std@@@2@@std@@QAE@XZ 00428d00 f i libohNetCore:Stack.obj
 0001:00027d40       ??1?$_Tree@V?$_Tmap_traits@PAXPAXU?$less@PAX@std@@V?$allocator@U?$pair@QAXPAX@std@@@2@$0A@@std@@@std@@QAE@XZ 00428d40 f i libohNetCore:Stack.obj
 0001:00027db0       ?begin@?$_Tree@V?$_Tmap_traits@PAXPAXU?$less@PAX@std@@V?$allocator@U?$pair@QAXPAX@std@@@2@$0A@@std@@@std@@QAE?AV?$_Tree_iterator@V?$_Tree_val@V?$_Tmap_traits@PAXPAXU?$less@PAX@std@@V?$allocator@U?$pair@QAXPAX@std@@@2@$0A@@std@@@std@@@2@XZ 00428db0 f i libohNetCore:Stack.obj
 0001:00027e10       ?end@?$_Tree@V?$_Tmap_traits@PAXPAXU?$less@PAX@std@@V?$allocator@U?$pair@QAXPAX@std@@@2@$0A@@std@@@std@@QAE?AV?$_Tree_iterator@V?$_Tree_val@V?$_Tmap_traits@PAXPAXU?$less@PAX@std@@V?$allocator@U?$pair@QAXPAX@std@@@2@$0A@@std@@@std@@@2@XZ 00428e10 f i libohNetCore:Stack.obj
 0001:00027e60       ?size@?$_Tree@V?$_Tmap_traits@PAXPAXU?$less@PAX@std@@V?$allocator@U?$pair@QAXPAX@std@@@2@$0A@@std@@@std@@QBEIXZ 00428e60 f i libohNetCore:Stack.obj
 0001:00027e80       ?erase@?$_Tree@V?$_Tmap_traits@PAXPAXU?$less@PAX@std@@V?$allocator@U?$pair@QAXPAX@std@@@2@$0A@@std@@@std@@QAE?AV?$_Tree_iterator@V?$_Tree_val@V?$_Tmap_traits@PAXPAXU?$less@PAX@std@@V?$allocator@U?$pair@QAXPAX@std@@@2@$0A@@std@@@std@@@2@V?$_Tree_const_iterator@V?$_Tree_val@V?$_Tmap_traits@PAXPAXU?$less@PAX@std@@V?$allocator@U?$pair@QAXPAX@std@@@2@$0A@@std@@@std@@@2@@Z 00428e80 f i libohNetCore:Stack.obj
 0001:00028590       ?find@?$_Tree@V?$_Tmap_traits@PAXPAXU?$less@PAX@std@@V?$allocator@U?$pair@QAXPAX@std@@@2@$0A@@std@@@std@@QAE?AV?$_Tree_iterator@V?$_Tree_val@V?$_Tmap_traits@PAXPAXU?$less@PAX@std@@V?$allocator@U?$pair@QAXPAX@std@@@2@$0A@@std@@@std@@@2@ABQAX@Z 00429590 f i libohNetCore:Stack.obj
 0001:00028770       ??0?$vector@PAVMListener@Stack@Net@OpenHome@@V?$allocator@PAVMListener@Stack@Net@OpenHome@@@std@@@std@@QAE@XZ 00429770 f i libohNetCore:Stack.obj
 0001:000287b0       ??1?$vector@PAVMListener@Stack@Net@OpenHome@@V?$allocator@PAVMListener@Stack@Net@OpenHome@@@std@@@std@@QAE@XZ 004297b0 f i libohNetCore:Stack.obj
 0001:00028820       ?begin@?$vector@PAVMListener@Stack@Net@OpenHome@@V?$allocator@PAVMListener@Stack@Net@OpenHome@@@std@@@std@@QAE?AV?$_Vector_iterator@V?$_Vector_val@PAVMListener@Stack@Net@OpenHome@@V?$allocator@PAVMListener@Stack@Net@OpenHome@@@std@@@std@@@2@XZ 00429820 f i libohNetCore:Stack.obj
 0001:00028870       ?size@?$vector@PAVMListener@Stack@Net@OpenHome@@V?$allocator@PAVMListener@Stack@Net@OpenHome@@@std@@@std@@QBEIXZ 00429870 f i libohNetCore:Stack.obj
 0001:000288a0       ??A?$vector@PAVMListener@Stack@Net@OpenHome@@V?$allocator@PAVMListener@Stack@Net@OpenHome@@@std@@@std@@QAEAAPAVMListener@Stack@Net@OpenHome@@I@Z 004298a0 f i libohNetCore:Stack.obj
 0001:00028940       ?push_back@?$vector@PAVMListener@Stack@Net@OpenHome@@V?$allocator@PAVMListener@Stack@Net@OpenHome@@@std@@@std@@QAEXABQAVMListener@Stack@Net@OpenHome@@@Z 00429940 f i libohNetCore:Stack.obj
 0001:00028a50       ?erase@?$vector@PAVMListener@Stack@Net@OpenHome@@V?$allocator@PAVMListener@Stack@Net@OpenHome@@@std@@@std@@QAE?AV?$_Vector_iterator@V?$_Vector_val@PAVMListener@Stack@Net@OpenHome@@V?$allocator@PAVMListener@Stack@Net@OpenHome@@@std@@@std@@@2@V?$_Vector_const_iterator@V?$_Vector_val@PAVMListener@Stack@Net@OpenHome@@V?$allocator@PAVMListener@Stack@Net@OpenHome@@@std@@@std@@@2@@Z 00429a50 f i libohNetCore:Stack.obj
 0001:00028b80       ??0?$map@VBrn@OpenHome@@PAVObjectType@Stack@Net@2@VBufferCmp@2@V?$allocator@U?$pair@$$CBVBrn@OpenHome@@PAVObjectType@Stack@Net@2@@std@@@std@@@std@@QAE@XZ 00429b80 f i libohNetCore:Stack.obj
 0001:00028bd0       ??1?$_Tree@V?$_Tmap_traits@VBrn@OpenHome@@PAVObjectType@Stack@Net@2@VBufferCmp@2@V?$allocator@U?$pair@$$CBVBrn@OpenHome@@PAVObjectType@Stack@Net@2@@std@@@std@@$0A@@std@@@std@@QAE@XZ 00429bd0 f i libohNetCore:Stack.obj
 0001:00028c40       ?begin@?$_Tree@V?$_Tmap_traits@VBrn@OpenHome@@PAVObjectType@Stack@Net@2@VBufferCmp@2@V?$allocator@U?$pair@$$CBVBrn@OpenHome@@PAVObjectType@Stack@Net@2@@std@@@std@@$0A@@std@@@std@@QAE?AV?$_Tree_iterator@V?$_Tree_val@V?$_Tmap_traits@VBrn@OpenHome@@PAVObjectType@Stack@Net@2@VBufferCmp@2@V?$allocator@U?$pair@$$CBVBrn@OpenHome@@PAVObjectType@Stack@Net@2@@std@@@std@@$0A@@std@@@std@@@2@XZ 00429c40 f i libohNetCore:Stack.obj
 0001:00028ca0       ?end@?$_Tree@V?$_Tmap_traits@VBrn@OpenHome@@PAVObjectType@Stack@Net@2@VBufferCmp@2@V?$allocator@U?$pair@$$CBVBrn@OpenHome@@PAVObjectType@Stack@Net@2@@std@@@std@@$0A@@std@@@std@@QAE?AV?$_Tree_iterator@V?$_Tree_val@V?$_Tmap_traits@VBrn@OpenHome@@PAVObjectType@Stack@Net@2@VBufferCmp@2@V?$allocator@U?$pair@$$CBVBrn@OpenHome@@PAVObjectType@Stack@Net@2@@std@@@std@@$0A@@std@@@std@@@2@XZ 00429ca0 f i libohNetCore:Stack.obj
 0001:00028cf0       ?size@?$_Tree@V?$_Tmap_traits@VBrn@OpenHome@@PAVObjectType@Stack@Net@2@VBufferCmp@2@V?$allocator@U?$pair@$$CBVBrn@OpenHome@@PAVObjectType@Stack@Net@2@@std@@@std@@$0A@@std@@@std@@QBEIXZ 00429cf0 f i libohNetCore:Stack.obj
 0001:00028d10       ?erase@?$_Tree@V?$_Tmap_traits@VBrn@OpenHome@@PAVObjectType@Stack@Net@2@VBufferCmp@2@V?$allocator@U?$pair@$$CBVBrn@OpenHome@@PAVObjectType@Stack@Net@2@@std@@@std@@$0A@@std@@@std@@QAE?AV?$_Tree_iterator@V?$_Tree_val@V?$_Tmap_traits@VBrn@OpenHome@@PAVObjectType@Stack@Net@2@VBufferCmp@2@V?$allocator@U?$pair@$$CBVBrn@OpenHome@@PAVObjectType@Stack@Net@2@@std@@@std@@$0A@@std@@@std@@@2@V?$_Tree_const_iterator@V?$_Tree_val@V?$_Tmap_traits@VBrn@OpenHome@@PAVObjectType@Stack@Net@2@VBufferCmp@2@V?$allocator@U?$pair@$$CBVBrn@OpenHome@@PAVObjectType@Stack@Net@2@@std@@@std@@$0A@@std@@@std@@@2@@Z 00429d10 f i libohNetCore:Stack.obj
 0001:00029420       ?find@?$_Tree@V?$_Tmap_traits@VBrn@OpenHome@@PAVObjectType@Stack@Net@2@VBufferCmp@2@V?$allocator@U?$pair@$$CBVBrn@OpenHome@@PAVObjectType@Stack@Net@2@@std@@@std@@$0A@@std@@@std@@QAE?AV?$_Tree_iterator@V?$_Tree_val@V?$_Tmap_traits@VBrn@OpenHome@@PAVObjectType@Stack@Net@2@VBufferCmp@2@V?$allocator@U?$pair@$$CBVBrn@OpenHome@@PAVObjectType@Stack@Net@2@@std@@@std@@$0A@@std@@@std@@@2@ABVBrn@OpenHome@@@Z 0042a420 f i libohNetCore:Stack.obj
 0001:00029600       ??H?$_Vector_iterator@V?$_Vector_val@PAVMListener@Stack@Net@OpenHome@@V?$allocator@PAVMListener@Stack@Net@OpenHome@@@std@@@std@@@std@@QBE?AV01@H@Z 0042a600 f i libohNetCore:Stack.obj
 0001:000296e0       ??C?$_Tree_iterator@V?$_Tree_val@V?$_Tmap_traits@VBrn@OpenHome@@PAVObjectType@Stack@Net@2@VBufferCmp@2@V?$allocator@U?$pair@$$CBVBrn@OpenHome@@PAVObjectType@Stack@Net@2@@std@@@std@@$0A@@std@@@std@@@std@@QBEPAU?$pair@$$CBVBrn@OpenHome@@PAVObjectType@Stack@Net@2@@1@XZ 0042a6e0 f i libohNetCore:Stack.obj
 0001:00029710       ??E?$_Tree_iterator@V?$_Tree_val@V?$_Tmap_traits@VBrn@OpenHome@@PAVObjectType@Stack@Net@2@VBufferCmp@2@V?$allocator@U?$pair@$$CBVBrn@OpenHome@@PAVObjectType@Stack@Net@2@@std@@@std@@$0A@@std@@@std@@@std@@QAE?AV01@H@Z 0042a710 f i libohNetCore:Stack.obj
 0001:000297e0       ??9?$_Tree_const_iterator@V?$_Tree_val@V?$_Tmap_traits@VBrn@OpenHome@@PAVObjectType@Stack@Net@2@VBufferCmp@2@V?$allocator@U?$pair@$$CBVBrn@OpenHome@@PAVObjectType@Stack@Net@2@@std@@@std@@$0A@@std@@@std@@@std@@QBE_NABV01@@Z 0042a7e0 f i libohNetCore:Stack.obj
 0001:00029820       ??C?$_Tree_iterator@V?$_Tree_val@V?$_Tmap_traits@PAXPAXU?$less@PAX@std@@V?$allocator@U?$pair@QAXPAX@std@@@2@$0A@@std@@@std@@@std@@QBEPAU?$pair@QAXPAX@1@XZ 0042a820 f i libohNetCore:Stack.obj
 0001:00029850       ??E?$_Tree_iterator@V?$_Tree_val@V?$_Tmap_traits@PAXPAXU?$less@PAX@std@@V?$allocator@U?$pair@QAXPAX@std@@@2@$0A@@std@@@std@@@std@@QAE?AV01@H@Z 0042a850 f i libohNetCore:Stack.obj
 0001:00029920       ??9?$_Tree_const_iterator@V?$_Tree_val@V?$_Tmap_traits@PAXPAXU?$less@PAX@std@@V?$allocator@U?$pair@QAXPAX@std@@@2@$0A@@std@@@std@@@std@@QBE_NABV01@@Z 0042a920 f i libohNetCore:Stack.obj
 0001:00029960       ??0?$_Tree_iterator@V?$_Tree_val@V?$_Tmap_traits@PAXPAXU?$less@PAX@std@@V?$allocator@U?$pair@QAXPAX@std@@@2@$0A@@std@@@std@@@std@@QAE@ABV01@@Z 0042a960 f i libohNetCore:Stack.obj
 0001:00029990       ??0?$_Tree_iterator@V?$_Tree_val@V?$_Tmap_traits@VBrn@OpenHome@@PAVObjectType@Stack@Net@2@VBufferCmp@2@V?$allocator@U?$pair@$$CBVBrn@OpenHome@@PAVObjectType@Stack@Net@2@@std@@@std@@$0A@@std@@@std@@@std@@QAE@ABV01@@Z 0042a990 f i libohNetCore:Stack.obj
 0001:000299c0       ??0?$_Vector_iterator@V?$_Vector_val@PAVMListener@Stack@Net@OpenHome@@V?$allocator@PAVMListener@Stack@Net@OpenHome@@@std@@@std@@@std@@QAE@ABV01@@Z 0042a9c0 f i libohNetCore:Stack.obj
 0001:000299f0       ??0?$_Tree@V?$_Tmap_traits@PAXPAXU?$less@PAX@std@@V?$allocator@U?$pair@QAXPAX@std@@@2@$0A@@std@@@std@@QAE@ABU?$less@PAX@1@ABV?$allocator@U?$pair@QAXPAX@std@@@1@@Z 0042a9f0 f i libohNetCore:Stack.obj
 0001:00029a40       ?lower_bound@?$_Tree@V?$_Tmap_traits@PAXPAXU?$less@PAX@std@@V?$allocator@U?$pair@QAXPAX@std@@@2@$0A@@std@@@std@@QAE?AV?$_Tree_iterator@V?$_Tree_val@V?$_Tmap_traits@PAXPAXU?$less@PAX@std@@V?$allocator@U?$pair@QAXPAX@std@@@2@$0A@@std@@@std@@@2@ABQAX@Z 0042aa40 f i libohNetCore:Stack.obj
 0001:00029aa0       ?_Lmost@?$_Tree@V?$_Tmap_traits@PAXPAXU?$less@PAX@std@@V?$allocator@U?$pair@QAXPAX@std@@@2@$0A@@std@@@std@@IBEAAPAU_Node@?$_Tree_nod@V?$_Tmap_traits@PAXPAXU?$less@PAX@std@@V?$allocator@U?$pair@QAXPAX@std@@@2@$0A@@std@@@2@XZ 0042aaa0 f i libohNetCore:Stack.obj
 0001:00029ad0       ?_Lrotate@?$_Tree@V?$_Tmap_traits@PAXPAXU?$less@PAX@std@@V?$allocator@U?$pair@QAXPAX@std@@@2@$0A@@std@@@std@@IAEXPAU_Node@?$_Tree_nod@V?$_Tmap_traits@PAXPAXU?$less@PAX@std@@V?$allocator@U?$pair@QAXPAX@std@@@2@$0A@@std@@@2@@Z 0042aad0 f i libohNetCore:Stack.obj
 0001:00029bf0       ?_Rmost@?$_Tree@V?$_Tmap_traits@PAXPAXU?$less@PAX@std@@V?$allocator@U?$pair@QAXPAX@std@@@2@$0A@@std@@@std@@IBEAAPAU_Node@?$_Tree_nod@V?$_Tmap_traits@PAXPAXU?$less@PAX@std@@V?$allocator@U?$pair@QAXPAX@std@@@2@$0A@@std@@@2@XZ 0042abf0 f i libohNetCore:Stack.obj
 0001:00029c20       ?_Root@?$_Tree@V?$_Tmap_traits@PAXPAXU?$less@PAX@std@@V?$allocator@U?$pair@QAXPAX@std@@@2@$0A@@std@@@std@@IBEAAPAU_Node@?$_Tree_nod@V?$_Tmap_traits@PAXPAXU?$less@PAX@std@@V?$allocator@U?$pair@QAXPAX@std@@@2@$0A@@std@@@2@XZ 0042ac20 f i libohNetCore:Stack.obj
 0001:00029c50       ?_Rrotate@?$_Tree@V?$_Tmap_traits@PAXPAXU?$less@PAX@std@@V?$allocator@U?$pair@QAXPAX@std@@@2@$0A@@std@@@std@@IAEXPAU_Node@?$_Tree_nod@V?$_Tmap_traits@PAXPAXU?$less@PAX@std@@V?$allocator@U?$pair@QAXPAX@std@@@2@$0A@@std@@@2@@Z 0042ac50 f i libohNetCore:Stack.obj
 0001:00029d70       ?_Orphan_ptr@?$_Tree@V?$_Tmap_traits@PAXPAXU?$less@PAX@std@@V?$allocator@U?$pair@QAXPAX@std@@@2@$0A@@std@@@std@@IBEXAAV12@PAU_Node@?$_Tree_nod@V?$_Tmap_traits@PAXPAXU?$less@PAX@std@@V?$allocator@U?$pair@QAXPAX@std@@@2@$0A@@std@@@2@@Z 0042ad70 f i libohNetCore:Stack.obj
 0001:00029e80       ?_Tidy@?$_Tree@V?$_Tmap_traits@PAXPAXU?$less@PAX@std@@V?$allocator@U?$pair@QAXPAX@std@@@2@$0A@@std@@@std@@IAEXXZ 0042ae80 f i libohNetCore:Stack.obj
 0001:00029f80       ??1?$_Tree_val@V?$_Tmap_traits@PAXPAXU?$less@PAX@std@@V?$allocator@U?$pair@QAXPAX@std@@@2@$0A@@std@@@std@@QAE@XZ 0042af80 f i libohNetCore:Stack.obj
 0001:00029ff0       ?_Color@?$_Tree_val@V?$_Tmap_traits@PAXPAXU?$less@PAX@std@@V?$allocator@U?$pair@QAXPAX@std@@@2@$0A@@std@@@std@@SGAADPAU_Node@?$_Tree_nod@V?$_Tmap_traits@PAXPAXU?$less@PAX@std@@V?$allocator@U?$pair@QAXPAX@std@@@2@$0A@@std@@@2@@Z 0042aff0 f i libohNetCore:Stack.obj
 0001:0002a000       ?_Isnil@?$_Tree_val@V?$_Tmap_traits@PAXPAXU?$less@PAX@std@@V?$allocator@U?$pair@QAXPAX@std@@@2@$0A@@std@@@std@@SGAADPAU_Node@?$_Tree_nod@V?$_Tmap_traits@PAXPAXU?$less@PAX@std@@V?$allocator@U?$pair@QAXPAX@std@@@2@$0A@@std@@@2@@Z 0042b000 f i libohNetCore:Stack.obj
 0001:0002a010       ?_Key@?$_Tree_val@V?$_Tmap_traits@PAXPAXU?$less@PAX@std@@V?$allocator@U?$pair@QAXPAX@std@@@2@$0A@@std@@@std@@SGAAPAXPAU_Node@?$_Tree_nod@V?$_Tmap_traits@PAXPAXU?$less@PAX@std@@V?$allocator@U?$pair@QAXPAX@std@@@2@$0A@@std@@@2@@Z 0042b010 f i libohNetCore:Stack.obj
 0001:0002a030       ?_Left@?$_Tree_val@V?$_Tmap_traits@PAXPAXU?$less@PAX@std@@V?$allocator@U?$pair@QAXPAX@std@@@2@$0A@@std@@@std@@SGAAPAU_Node@?$_Tree_nod@V?$_Tmap_traits@PAXPAXU?$less@PAX@std@@V?$allocator@U?$pair@QAXPAX@std@@@2@$0A@@std@@@2@PAU342@@Z 0042b030 f i libohNetCore:Stack.obj
 0001:0002a040       ?_Parent@?$_Tree_val@V?$_Tmap_traits@PAXPAXU?$less@PAX@std@@V?$allocator@U?$pair@QAXPAX@std@@@2@$0A@@std@@@std@@SGAAPAU_Node@?$_Tree_nod@V?$_Tmap_traits@PAXPAXU?$less@PAX@std@@V?$allocator@U?$pair@QAXPAX@std@@@2@$0A@@std@@@2@PAU342@@Z 0042b040 f i libohNetCore:Stack.obj
 0001:0002a050       ?_Right@?$_Tree_val@V?$_Tmap_traits@PAXPAXU?$less@PAX@std@@V?$allocator@U?$pair@QAXPAX@std@@@2@$0A@@std@@@std@@SGAAPAU_Node@?$_Tree_nod@V?$_Tmap_traits@PAXPAXU?$less@PAX@std@@V?$allocator@U?$pair@QAXPAX@std@@@2@$0A@@std@@@2@PAU342@@Z 0042b050 f i libohNetCore:Stack.obj
 0001:0002a060       ?_Myval@?$_Tree_val@V?$_Tmap_traits@PAXPAXU?$less@PAX@std@@V?$allocator@U?$pair@QAXPAX@std@@@2@$0A@@std@@@std@@SGAAU?$pair@QAXPAX@2@PAU_Node@?$_Tree_nod@V?$_Tmap_traits@PAXPAXU?$less@PAX@std@@V?$allocator@U?$pair@QAXPAX@std@@@2@$0A@@std@@@2@@Z 0042b060 f i libohNetCore:Stack.obj
 0001:0002a070       ?_Max@?$_Tree_val@V?$_Tmap_traits@PAXPAXU?$less@PAX@std@@V?$allocator@U?$pair@QAXPAX@std@@@2@$0A@@std@@@std@@SGPAU_Node@?$_Tree_nod@V?$_Tmap_traits@PAXPAXU?$less@PAX@std@@V?$allocator@U?$pair@QAXPAX@std@@@2@$0A@@std@@@2@PAU342@@Z 0042b070 f i libohNetCore:Stack.obj
 0001:0002a0b0       ?_Min@?$_Tree_val@V?$_Tmap_traits@PAXPAXU?$less@PAX@std@@V?$allocator@U?$pair@QAXPAX@std@@@2@$0A@@std@@@std@@SGPAU_Node@?$_Tree_nod@V?$_Tmap_traits@PAXPAXU?$less@PAX@std@@V?$allocator@U?$pair@QAXPAX@std@@@2@$0A@@std@@@2@PAU342@@Z 0042b0b0 f i libohNetCore:Stack.obj
 0001:0002a0f0       ??0?$allocator@U?$pair@QAXPAX@std@@@std@@QAE@XZ 0042b0f0 f i libohNetCore:Stack.obj
 0001:0002a110       ?deallocate@?$allocator@U_Node@?$_Tree_nod@V?$_Tmap_traits@PAXPAXU?$less@PAX@std@@V?$allocator@U?$pair@QAXPAX@std@@@2@$0A@@std@@@std@@@std@@QAEXPAU_Node@?$_Tree_nod@V?$_Tmap_traits@PAXPAXU?$less@PAX@std@@V?$allocator@U?$pair@QAXPAX@std@@@2@$0A@@std@@@2@I@Z 0042b110 f i libohNetCore:Stack.obj
 0001:0002a140       ?_Make_iter@?$vector@PAVMListener@Stack@Net@OpenHome@@V?$allocator@PAVMListener@Stack@Net@OpenHome@@@std@@@std@@QBE?AV?$_Vector_iterator@V?$_Vector_val@PAVMListener@Stack@Net@OpenHome@@V?$allocator@PAVMListener@Stack@Net@OpenHome@@@std@@@std@@@2@V?$_Vector_const_iterator@V?$_Vector_val@PAVMListener@Stack@Net@OpenHome@@V?$allocator@PAVMListener@Stack@Net@OpenHome@@@std@@@std@@@2@@Z 0042b140 f i libohNetCore:Stack.obj
 0001:0002a1d0       ?_Destroy@?$vector@PAVMListener@Stack@Net@OpenHome@@V?$allocator@PAVMListener@Stack@Net@OpenHome@@@std@@@std@@IAEXPAPAVMListener@Stack@Net@OpenHome@@0@Z 0042b1d0 f i libohNetCore:Stack.obj
 0001:0002a210       ?_Inside@?$vector@PAVMListener@Stack@Net@OpenHome@@V?$allocator@PAVMListener@Stack@Net@OpenHome@@@std@@@std@@IBE_NPBQAVMListener@Stack@Net@OpenHome@@@Z 0042b210 f i libohNetCore:Stack.obj
 0001:0002a260       ?_Reserve@?$vector@PAVMListener@Stack@Net@OpenHome@@V?$allocator@PAVMListener@Stack@Net@OpenHome@@@std@@@std@@IAEXI@Z 0042b260 f i libohNetCore:Stack.obj
 0001:0002a2e0       ?_Tidy@?$vector@PAVMListener@Stack@Net@OpenHome@@V?$allocator@PAVMListener@Stack@Net@OpenHome@@@std@@@std@@IAEXXZ 0042b2e0 f i libohNetCore:Stack.obj
 0001:0002a370       ?_Orphan_range@?$vector@PAVMListener@Stack@Net@OpenHome@@V?$allocator@PAVMListener@Stack@Net@OpenHome@@@std@@@std@@IBEXPAPAVMListener@Stack@Net@OpenHome@@0@Z 0042b370 f i libohNetCore:Stack.obj
 0001:0002a480       ??0?$_Vector_val@PAVMListener@Stack@Net@OpenHome@@V?$allocator@PAVMListener@Stack@Net@OpenHome@@@std@@@std@@QAE@V?$allocator@PAVMListener@Stack@Net@OpenHome@@@1@@Z 0042b480 f i libohNetCore:Stack.obj
 0001:0002a5a0       ??1?$_Vector_val@PAVMListener@Stack@Net@OpenHome@@V?$allocator@PAVMListener@Stack@Net@OpenHome@@@std@@@std@@QAE@XZ 0042b5a0 f i libohNetCore:Stack.obj
 0001:0002a680       ??0?$allocator@PAVMListener@Stack@Net@OpenHome@@@std@@QAE@XZ 0042b680 f i libohNetCore:Stack.obj
 0001:0002a6a0       ??0?$_Tree@V?$_Tmap_traits@VBrn@OpenHome@@PAVObjectType@Stack@Net@2@VBufferCmp@2@V?$allocator@U?$pair@$$CBVBrn@OpenHome@@PAVObjectType@Stack@Net@2@@std@@@std@@$0A@@std@@@std@@QAE@ABVBufferCmp@OpenHome@@ABV?$allocator@U?$pair@$$CBVBrn@OpenHome@@PAVObjectType@Stack@Net@2@@std@@@1@@Z 0042b6a0 f i libohNetCore:Stack.obj
 0001:0002a6f0       ?lower_bound@?$_Tree@V?$_Tmap_traits@VBrn@OpenHome@@PAVObjectType@Stack@Net@2@VBufferCmp@2@V?$allocator@U?$pair@$$CBVBrn@OpenHome@@PAVObjectType@Stack@Net@2@@std@@@std@@$0A@@std@@@std@@QAE?AV?$_Tree_iterator@V?$_Tree_val@V?$_Tmap_traits@VBrn@OpenHome@@PAVObjectType@Stack@Net@2@VBufferCmp@2@V?$allocator@U?$pair@$$CBVBrn@OpenHome@@PAVObjectType@Stack@Net@2@@std@@@std@@$0A@@std@@@std@@@2@ABVBrn@OpenHome@@@Z 0042b6f0 f i libohNetCore:Stack.obj
 0001:0002a750       ?_Lmost@?$_Tree@V?$_Tmap_traits@VBrn@OpenHome@@PAVObjectType@Stack@Net@2@VBufferCmp@2@V?$allocator@U?$pair@$$CBVBrn@OpenHome@@PAVObjectType@Stack@Net@2@@std@@@std@@$0A@@std@@@std@@IBEAAPAU_Node@?$_Tree_nod@V?$_Tmap_traits@VBrn@OpenHome@@PAVObjectType@Stack@Net@2@VBufferCmp@2@V?$allocator@U?$pair@$$CBVBrn@OpenHome@@PAVObjectType@Stack@Net@2@@std@@@std@@$0A@@std@@@2@XZ 0042b750 f i libohNetCore:Stack.obj
 0001:0002a780       ?_Lrotate@?$_Tree@V?$_Tmap_traits@VBrn@OpenHome@@PAVObjectType@Stack@Net@2@VBufferCmp@2@V?$allocator@U?$pair@$$CBVBrn@OpenHome@@PAVObjectType@Stack@Net@2@@std@@@std@@$0A@@std@@@std@@IAEXPAU_Node@?$_Tree_nod@V?$_Tmap_traits@VBrn@OpenHome@@PAVObjectType@Stack@Net@2@VBufferCmp@2@V?$allocator@U?$pair@$$CBVBrn@OpenHome@@PAVObjectType@Stack@Net@2@@std@@@std@@$0A@@std@@@2@@Z 0042b780 f i libohNetCore:Stack.obj
 0001:0002a8a0       ?_Rmost@?$_Tree@V?$_Tmap_traits@VBrn@OpenHome@@PAVObjectType@Stack@Net@2@VBufferCmp@2@V?$allocator@U?$pair@$$CBVBrn@OpenHome@@PAVObjectType@Stack@Net@2@@std@@@std@@$0A@@std@@@std@@IBEAAPAU_Node@?$_Tree_nod@V?$_Tmap_traits@VBrn@OpenHome@@PAVObjectType@Stack@Net@2@VBufferCmp@2@V?$allocator@U?$pair@$$CBVBrn@OpenHome@@PAVObjectType@Stack@Net@2@@std@@@std@@$0A@@std@@@2@XZ 0042b8a0 f i libohNetCore:Stack.obj
 0001:0002a8d0       ?_Root@?$_Tree@V?$_Tmap_traits@VBrn@OpenHome@@PAVObjectType@Stack@Net@2@VBufferCmp@2@V?$allocator@U?$pair@$$CBVBrn@OpenHome@@PAVObjectType@Stack@Net@2@@std@@@std@@$0A@@std@@@std@@IBEAAPAU_Node@?$_Tree_nod@V?$_Tmap_traits@VBrn@OpenHome@@PAVObjectType@Stack@Net@2@VBufferCmp@2@V?$allocator@U?$pair@$$CBVBrn@OpenHome@@PAVObjectType@Stack@Net@2@@std@@@std@@$0A@@std@@@2@XZ 0042b8d0 f i libohNetCore:Stack.obj
 0001:0002a900       ?_Rrotate@?$_Tree@V?$_Tmap_traits@VBrn@OpenHome@@PAVObjectType@Stack@Net@2@VBufferCmp@2@V?$allocator@U?$pair@$$CBVBrn@OpenHome@@PAVObjectType@Stack@Net@2@@std@@@std@@$0A@@std@@@std@@IAEXPAU_Node@?$_Tree_nod@V?$_Tmap_traits@VBrn@OpenHome@@PAVObjectType@Stack@Net@2@VBufferCmp@2@V?$allocator@U?$pair@$$CBVBrn@OpenHome@@PAVObjectType@Stack@Net@2@@std@@@std@@$0A@@std@@@2@@Z 0042b900 f i libohNetCore:Stack.obj
 0001:0002aa20       ?_Orphan_ptr@?$_Tree@V?$_Tmap_traits@VBrn@OpenHome@@PAVObjectType@Stack@Net@2@VBufferCmp@2@V?$allocator@U?$pair@$$CBVBrn@OpenHome@@PAVObjectType@Stack@Net@2@@std@@@std@@$0A@@std@@@std@@IBEXAAV12@PAU_Node@?$_Tree_nod@V?$_Tmap_traits@VBrn@OpenHome@@PAVObjectType@Stack@Net@2@VBufferCmp@2@V?$allocator@U?$pair@$$CBVBrn@OpenHome@@PAVObjectType@Stack@Net@2@@std@@@std@@$0A@@std@@@2@@Z 0042ba20 f i libohNetCore:Stack.obj
 0001:0002ab30       ?_Tidy@?$_Tree@V?$_Tmap_traits@VBrn@OpenHome@@PAVObjectType@Stack@Net@2@VBufferCmp@2@V?$allocator@U?$pair@$$CBVBrn@OpenHome@@PAVObjectType@Stack@Net@2@@std@@@std@@$0A@@std@@@std@@IAEXXZ 0042bb30 f i libohNetCore:Stack.obj
 0001:0002ac30       ??1?$_Tree_val@V?$_Tmap_traits@VBrn@OpenHome@@PAVObjectType@Stack@Net@2@VBufferCmp@2@V?$allocator@U?$pair@$$CBVBrn@OpenHome@@PAVObjectType@Stack@Net@2@@std@@@std@@$0A@@std@@@std@@QAE@XZ 0042bc30 f i libohNetCore:Stack.obj
 0001:0002aca0       ?_Color@?$_Tree_val@V?$_Tmap_traits@VBrn@OpenHome@@PAVObjectType@Stack@Net@2@VBufferCmp@2@V?$allocator@U?$pair@$$CBVBrn@OpenHome@@PAVObjectType@Stack@Net@2@@std@@@std@@$0A@@std@@@std@@SGAADPAU_Node@?$_Tree_nod@V?$_Tmap_traits@VBrn@OpenHome@@PAVObjectType@Stack@Net@2@VBufferCmp@2@V?$allocator@U?$pair@$$CBVBrn@OpenHome@@PAVObjectType@Stack@Net@2@@std@@@std@@$0A@@std@@@2@@Z 0042bca0 f i libohNetCore:Stack.obj
 0001:0002acb0       ?_Isnil@?$_Tree_val@V?$_Tmap_traits@VBrn@OpenHome@@PAVObjectType@Stack@Net@2@VBufferCmp@2@V?$allocator@U?$pair@$$CBVBrn@OpenHome@@PAVObjectType@Stack@Net@2@@std@@@std@@$0A@@std@@@std@@SGAADPAU_Node@?$_Tree_nod@V?$_Tmap_traits@VBrn@OpenHome@@PAVObjectType@Stack@Net@2@VBufferCmp@2@V?$allocator@U?$pair@$$CBVBrn@OpenHome@@PAVObjectType@Stack@Net@2@@std@@@std@@$0A@@std@@@2@@Z 0042bcb0 f i libohNetCore:Stack.obj
 0001:0002acc0       ?_Key@?$_Tree_val@V?$_Tmap_traits@VBrn@OpenHome@@PAVObjectType@Stack@Net@2@VBufferCmp@2@V?$allocator@U?$pair@$$CBVBrn@OpenHome@@PAVObjectType@Stack@Net@2@@std@@@std@@$0A@@std@@@std@@SGAAVBrn@OpenHome@@PAU_Node@?$_Tree_nod@V?$_Tmap_traits@VBrn@OpenHome@@PAVObjectType@Stack@Net@2@VBufferCmp@2@V?$allocator@U?$pair@$$CBVBrn@OpenHome@@PAVObjectType@Stack@Net@2@@std@@@std@@$0A@@std@@@2@@Z 0042bcc0 f i libohNetCore:Stack.obj
 0001:0002ace0       ?_Left@?$_Tree_val@V?$_Tmap_traits@VBrn@OpenHome@@PAVObjectType@Stack@Net@2@VBufferCmp@2@V?$allocator@U?$pair@$$CBVBrn@OpenHome@@PAVObjectType@Stack@Net@2@@std@@@std@@$0A@@std@@@std@@SGAAPAU_Node@?$_Tree_nod@V?$_Tmap_traits@VBrn@OpenHome@@PAVObjectType@Stack@Net@2@VBufferCmp@2@V?$allocator@U?$pair@$$CBVBrn@OpenHome@@PAVObjectType@Stack@Net@2@@std@@@std@@$0A@@std@@@2@PAU342@@Z 0042bce0 f i libohNetCore:Stack.obj
 0001:0002acf0       ?_Parent@?$_Tree_val@V?$_Tmap_traits@VBrn@OpenHome@@PAVObjectType@Stack@Net@2@VBufferCmp@2@V?$allocator@U?$pair@$$CBVBrn@OpenHome@@PAVObjectType@Stack@Net@2@@std@@@std@@$0A@@std@@@std@@SGAAPAU_Node@?$_Tree_nod@V?$_Tmap_traits@VBrn@OpenHome@@PAVObjectType@Stack@Net@2@VBufferCmp@2@V?$allocator@U?$pair@$$CBVBrn@OpenHome@@PAVObjectType@Stack@Net@2@@std@@@std@@$0A@@std@@@2@PAU342@@Z 0042bcf0 f i libohNetCore:Stack.obj
 0001:0002ad00       ?_Right@?$_Tree_val@V?$_Tmap_traits@VBrn@OpenHome@@PAVObjectType@Stack@Net@2@VBufferCmp@2@V?$allocator@U?$pair@$$CBVBrn@OpenHome@@PAVObjectType@Stack@Net@2@@std@@@std@@$0A@@std@@@std@@SGAAPAU_Node@?$_Tree_nod@V?$_Tmap_traits@VBrn@OpenHome@@PAVObjectType@Stack@Net@2@VBufferCmp@2@V?$allocator@U?$pair@$$CBVBrn@OpenHome@@PAVObjectType@Stack@Net@2@@std@@@std@@$0A@@std@@@2@PAU342@@Z 0042bd00 f i libohNetCore:Stack.obj
 0001:0002ad10       ?_Myval@?$_Tree_val@V?$_Tmap_traits@VBrn@OpenHome@@PAVObjectType@Stack@Net@2@VBufferCmp@2@V?$allocator@U?$pair@$$CBVBrn@OpenHome@@PAVObjectType@Stack@Net@2@@std@@@std@@$0A@@std@@@std@@SGAAU?$pair@$$CBVBrn@OpenHome@@PAVObjectType@Stack@Net@2@@2@PAU_Node@?$_Tree_nod@V?$_Tmap_traits@VBrn@OpenHome@@PAVObjectType@Stack@Net@2@VBufferCmp@2@V?$allocator@U?$pair@$$CBVBrn@OpenHome@@PAVObjectType@Stack@Net@2@@std@@@std@@$0A@@std@@@2@@Z 0042bd10 f i libohNetCore:Stack.obj
 0001:0002ad20       ?_Max@?$_Tree_val@V?$_Tmap_traits@VBrn@OpenHome@@PAVObjectType@Stack@Net@2@VBufferCmp@2@V?$allocator@U?$pair@$$CBVBrn@OpenHome@@PAVObjectType@Stack@Net@2@@std@@@std@@$0A@@std@@@std@@SGPAU_Node@?$_Tree_nod@V?$_Tmap_traits@VBrn@OpenHome@@PAVObjectType@Stack@Net@2@VBufferCmp@2@V?$allocator@U?$pair@$$CBVBrn@OpenHome@@PAVObjectType@Stack@Net@2@@std@@@std@@$0A@@std@@@2@PAU342@@Z 0042bd20 f i libohNetCore:Stack.obj
 0001:0002ad60       ?_Min@?$_Tree_val@V?$_Tmap_traits@VBrn@OpenHome@@PAVObjectType@Stack@Net@2@VBufferCmp@2@V?$allocator@U?$pair@$$CBVBrn@OpenHome@@PAVObjectType@Stack@Net@2@@std@@@std@@$0A@@std@@@std@@SGPAU_Node@?$_Tree_nod@V?$_Tmap_traits@VBrn@OpenHome@@PAVObjectType@Stack@Net@2@VBufferCmp@2@V?$allocator@U?$pair@$$CBVBrn@OpenHome@@PAVObjectType@Stack@Net@2@@std@@@std@@$0A@@std@@@2@PAU342@@Z 0042bd60 f i libohNetCore:Stack.obj
 0001:0002ada0       ??0?$allocator@U?$pair@$$CBVBrn@OpenHome@@PAVObjectType@Stack@Net@2@@std@@@std@@QAE@XZ 0042bda0 f i libohNetCore:Stack.obj
 0001:0002adc0       ?deallocate@?$allocator@U_Node@?$_Tree_nod@V?$_Tmap_traits@VBrn@OpenHome@@PAVObjectType@Stack@Net@2@VBufferCmp@2@V?$allocator@U?$pair@$$CBVBrn@OpenHome@@PAVObjectType@Stack@Net@2@@std@@@std@@$0A@@std@@@std@@@std@@QAEXPAU_Node@?$_Tree_nod@V?$_Tmap_traits@VBrn@OpenHome@@PAVObjectType@Stack@Net@2@VBufferCmp@2@V?$allocator@U?$pair@$$CBVBrn@OpenHome@@PAVObjectType@Stack@Net@2@@std@@@std@@$0A@@std@@@2@I@Z 0042bdc0 f i libohNetCore:Stack.obj
 0001:0002adf0       ??0?$_Vector_iterator@V?$_Vector_val@PAVMListener@Stack@Net@OpenHome@@V?$allocator@PAVMListener@Stack@Net@OpenHome@@@std@@@std@@@std@@QAE@PAPAVMListener@Stack@Net@OpenHome@@PBU_Container_base12@1@@Z 0042bdf0 f i libohNetCore:Stack.obj
 0001:0002ae30       ??Y?$_Vector_iterator@V?$_Vector_val@PAVMListener@Stack@Net@OpenHome@@V?$allocator@PAVMListener@Stack@Net@OpenHome@@@std@@@std@@@std@@QAEAAV01@H@Z 0042be30 f i libohNetCore:Stack.obj
 0001:0002ae60       ??0?$_Tree_iterator@V?$_Tree_val@V?$_Tmap_traits@VBrn@OpenHome@@PAVObjectType@Stack@Net@2@VBufferCmp@2@V?$allocator@U?$pair@$$CBVBrn@OpenHome@@PAVObjectType@Stack@Net@2@@std@@@std@@$0A@@std@@@std@@@std@@QAE@PAU_Node@?$_Tree_nod@V?$_Tmap_traits@VBrn@OpenHome@@PAVObjectType@Stack@Net@2@VBufferCmp@2@V?$allocator@U?$pair@$$CBVBrn@OpenHome@@PAVObjectType@Stack@Net@2@@std@@@std@@$0A@@std@@@1@PBV?$_Tree_val@V?$_Tmap_traits@VBrn@OpenHome@@PAVObjectType@Stack@Net@2@VBufferCmp@2@V?$allocator@U?$pair@$$CBVBrn@OpenHome@@PAVObjectType@Stack@Net@2@@std@@@std@@$0A@@std@@@1@@Z 0042be60 f i libohNetCore:Stack.obj
 0001:0002aea0       ??D?$_Tree_iterator@V?$_Tree_val@V?$_Tmap_traits@VBrn@OpenHome@@PAVObjectType@Stack@Net@2@VBufferCmp@2@V?$allocator@U?$pair@$$CBVBrn@OpenHome@@PAVObjectType@Stack@Net@2@@std@@@std@@$0A@@std@@@std@@@std@@QBEAAU?$pair@$$CBVBrn@OpenHome@@PAVObjectType@Stack@Net@2@@1@XZ 0042bea0 f i libohNetCore:Stack.obj
 0001:0002aed0       ??E?$_Tree_iterator@V?$_Tree_val@V?$_Tmap_traits@VBrn@OpenHome@@PAVObjectType@Stack@Net@2@VBufferCmp@2@V?$allocator@U?$pair@$$CBVBrn@OpenHome@@PAVObjectType@Stack@Net@2@@std@@@std@@$0A@@std@@@std@@@std@@QAEAAV01@XZ 0042bed0 f i libohNetCore:Stack.obj
 0001:0002af00       ??E?$_Tree_const_iterator@V?$_Tree_val@V?$_Tmap_traits@VBrn@OpenHome@@PAVObjectType@Stack@Net@2@VBufferCmp@2@V?$allocator@U?$pair@$$CBVBrn@OpenHome@@PAVObjectType@Stack@Net@2@@std@@@std@@$0A@@std@@@std@@@std@@QAEAAV01@XZ 0042bf00 f i libohNetCore:Stack.obj
 0001:0002afc0       ??8?$_Tree_const_iterator@V?$_Tree_val@V?$_Tmap_traits@VBrn@OpenHome@@PAVObjectType@Stack@Net@2@VBufferCmp@2@V?$allocator@U?$pair@$$CBVBrn@OpenHome@@PAVObjectType@Stack@Net@2@@std@@@std@@$0A@@std@@@std@@@std@@QBE_NABV01@@Z 0042bfc0 f i libohNetCore:Stack.obj
 0001:0002b080       ?_Mynode@?$_Tree_unchecked_const_iterator@V?$_Tree_val@V?$_Tmap_traits@VBrn@OpenHome@@PAVObjectType@Stack@Net@2@VBufferCmp@2@V?$allocator@U?$pair@$$CBVBrn@OpenHome@@PAVObjectType@Stack@Net@2@@std@@@std@@$0A@@std@@@std@@U_Iterator_base12@2@@std@@QBEPAU_Node@?$_Tree_nod@V?$_Tmap_traits@VBrn@OpenHome@@PAVObjectType@Stack@Net@2@VBufferCmp@2@V?$allocator@U?$pair@$$CBVBrn@OpenHome@@PAVObjectType@Stack@Net@2@@std@@@std@@$0A@@std@@@2@XZ 0042c080 f i libohNetCore:Stack.obj
 0001:0002b0a0       ??0?$_Tree_iterator@V?$_Tree_val@V?$_Tmap_traits@PAXPAXU?$less@PAX@std@@V?$allocator@U?$pair@QAXPAX@std@@@2@$0A@@std@@@std@@@std@@QAE@PAU_Node@?$_Tree_nod@V?$_Tmap_traits@PAXPAXU?$less@PAX@std@@V?$allocator@U?$pair@QAXPAX@std@@@2@$0A@@std@@@1@PBV?$_Tree_val@V?$_Tmap_traits@PAXPAXU?$less@PAX@std@@V?$allocator@U?$pair@QAXPAX@std@@@2@$0A@@std@@@1@@Z 0042c0a0 f i libohNetCore:Stack.obj
 0001:0002b0e0       ??D?$_Tree_iterator@V?$_Tree_val@V?$_Tmap_traits@PAXPAXU?$less@PAX@std@@V?$allocator@U?$pair@QAXPAX@std@@@2@$0A@@std@@@std@@@std@@QBEAAU?$pair@QAXPAX@1@XZ 0042c0e0 f i libohNetCore:Stack.obj
 0001:0002b110       ??E?$_Tree_iterator@V?$_Tree_val@V?$_Tmap_traits@PAXPAXU?$less@PAX@std@@V?$allocator@U?$pair@QAXPAX@std@@@2@$0A@@std@@@std@@@std@@QAEAAV01@XZ 0042c110 f i libohNetCore:Stack.obj
 0001:0002b140       ??E?$_Tree_const_iterator@V?$_Tree_val@V?$_Tmap_traits@PAXPAXU?$less@PAX@std@@V?$allocator@U?$pair@QAXPAX@std@@@2@$0A@@std@@@std@@@std@@QAEAAV01@XZ 0042c140 f i libohNetCore:Stack.obj
 0001:0002b200       ??8?$_Tree_const_iterator@V?$_Tree_val@V?$_Tmap_traits@PAXPAXU?$less@PAX@std@@V?$allocator@U?$pair@QAXPAX@std@@@2@$0A@@std@@@std@@@std@@QBE_NABV01@@Z 0042c200 f i libohNetCore:Stack.obj
 0001:0002b2c0       ?_Mynode@?$_Tree_unchecked_const_iterator@V?$_Tree_val@V?$_Tmap_traits@PAXPAXU?$less@PAX@std@@V?$allocator@U?$pair@QAXPAX@std@@@2@$0A@@std@@@std@@U_Iterator_base12@2@@std@@QBEPAU_Node@?$_Tree_nod@V?$_Tmap_traits@PAXPAXU?$less@PAX@std@@V?$allocator@U?$pair@QAXPAX@std@@@2@$0A@@std@@@2@XZ 0042c2c0 f i libohNetCore:Stack.obj
 0001:0002b2e0       ?erase@?$_Tree@V?$_Tmap_traits@PAXPAXU?$less@PAX@std@@V?$allocator@U?$pair@QAXPAX@std@@@2@$0A@@std@@@std@@QAE?AV?$_Tree_iterator@V?$_Tree_val@V?$_Tmap_traits@PAXPAXU?$less@PAX@std@@V?$allocator@U?$pair@QAXPAX@std@@@2@$0A@@std@@@std@@@2@V?$_Tree_const_iterator@V?$_Tree_val@V?$_Tmap_traits@PAXPAXU?$less@PAX@std@@V?$allocator@U?$pair@QAXPAX@std@@@2@$0A@@std@@@std@@@2@0@Z 0042c2e0 f i libohNetCore:Stack.obj
 0001:0002b4e0       ?_Lbound@?$_Tree@V?$_Tmap_traits@PAXPAXU?$less@PAX@std@@V?$allocator@U?$pair@QAXPAX@std@@@2@$0A@@std@@@std@@IAEPAU_Node@?$_Tree_nod@V?$_Tmap_traits@PAXPAXU?$less@PAX@std@@V?$allocator@U?$pair@QAXPAX@std@@@2@$0A@@std@@@2@ABQAX@Z 0042c4e0 f i libohNetCore:Stack.obj
 0001:0002b590       ??0?$_Tree_val@V?$_Tmap_traits@PAXPAXU?$less@PAX@std@@V?$allocator@U?$pair@QAXPAX@std@@@2@$0A@@std@@@std@@QAE@ABU?$less@PAX@1@V?$allocator@U?$pair@QAXPAX@std@@@1@@Z 0042c590 f i libohNetCore:Stack.obj
 0001:0002b690       ??1?$_Tree_nod@V?$_Tmap_traits@PAXPAXU?$less@PAX@std@@V?$allocator@U?$pair@QAXPAX@std@@@2@$0A@@std@@@std@@QAE@XZ 0042c690 f i libohNetCore:Stack.obj
 0001:0002b770       ??0?$allocator@U?$pair@QAXPAX@std@@@std@@QAE@ABV01@@Z 0042c770 f i libohNetCore:Stack.obj
 0001:0002b790       ?reserve@?$vector@PAVMListener@Stack@Net@OpenHome@@V?$allocator@PAVMListener@Stack@Net@OpenHome@@@std@@@std@@QAEXI@Z 0042c790 f i libohNetCore:Stack.obj
 0001:0002b900       ?capacity@?$vector@PAVMListener@Stack@Net@OpenHome@@V?$allocator@PAVMListener@Stack@Net@OpenHome@@@std@@@std@@QBEIXZ 0042c900 f i libohNetCore:Stack.obj
 0001:0002b930       ?max_size@?$vector@PAVMListener@Stack@Net@OpenHome@@V?$allocator@PAVMListener@Stack@Net@OpenHome@@@std@@@std@@QBEIXZ 0042c930 f i libohNetCore:Stack.obj
 0001:0002b960       ?_Grow_to@?$vector@PAVMListener@Stack@Net@OpenHome@@V?$allocator@PAVMListener@Stack@Net@OpenHome@@@std@@@std@@IBEII@Z 0042c960 f i libohNetCore:Stack.obj
 0001:0002b9e0       ?_Xlen@?$vector@PAVMListener@Stack@Net@OpenHome@@V?$allocator@PAVMListener@Stack@Net@OpenHome@@@std@@@std@@IBEXXZ 0042c9e0 f i libohNetCore:Stack.obj
 0001:0002ba10       ??0?$allocator@PAVMListener@Stack@Net@OpenHome@@@std@@QAE@ABV01@@Z 0042ca10 f i libohNetCore:Stack.obj
 0001:0002ba30       ?deallocate@?$allocator@PAVMListener@Stack@Net@OpenHome@@@std@@QAEXPAPAVMListener@Stack@Net@OpenHome@@I@Z 0042ca30 f i libohNetCore:Stack.obj
 0001:0002ba60       ?erase@?$_Tree@V?$_Tmap_traits@VBrn@OpenHome@@PAVObjectType@Stack@Net@2@VBufferCmp@2@V?$allocator@U?$pair@$$CBVBrn@OpenHome@@PAVObjectType@Stack@Net@2@@std@@@std@@$0A@@std@@@std@@QAE?AV?$_Tree_iterator@V?$_Tree_val@V?$_Tmap_traits@VBrn@OpenHome@@PAVObjectType@Stack@Net@2@VBufferCmp@2@V?$allocator@U?$pair@$$CBVBrn@OpenHome@@PAVObjectType@Stack@Net@2@@std@@@std@@$0A@@std@@@std@@@2@V?$_Tree_const_iterator@V?$_Tree_val@V?$_Tmap_traits@VBrn@OpenHome@@PAVObjectType@Stack@Net@2@VBufferCmp@2@V?$allocator@U?$pair@$$CBVBrn@OpenHome@@PAVObjectType@Stack@Net@2@@std@@@std@@$0A@@std@@@std@@@2@0@Z 0042ca60 f i libohNetCore:Stack.obj
 0001:0002bc60       ?_Lbound@?$_Tree@V?$_Tmap_traits@VBrn@OpenHome@@PAVObjectType@Stack@Net@2@VBufferCmp@2@V?$allocator@U?$pair@$$CBVBrn@OpenHome@@PAVObjectType@Stack@Net@2@@std@@@std@@$0A@@std@@@std@@IAEPAU_Node@?$_Tree_nod@V?$_Tmap_traits@VBrn@OpenHome@@PAVObjectType@Stack@Net@2@VBufferCmp@2@V?$allocator@U?$pair@$$CBVBrn@OpenHome@@PAVObjectType@Stack@Net@2@@std@@@std@@$0A@@std@@@2@ABVBrn@OpenHome@@@Z 0042cc60 f i libohNetCore:Stack.obj
 0001:0002bd10       ??0?$_Tree_val@V?$_Tmap_traits@VBrn@OpenHome@@PAVObjectType@Stack@Net@2@VBufferCmp@2@V?$allocator@U?$pair@$$CBVBrn@OpenHome@@PAVObjectType@Stack@Net@2@@std@@@std@@$0A@@std@@@std@@QAE@ABVBufferCmp@OpenHome@@V?$allocator@U?$pair@$$CBVBrn@OpenHome@@PAVObjectType@Stack@Net@2@@std@@@1@@Z 0042cd10 f i libohNetCore:Stack.obj
 0001:0002be10       ??1?$_Tree_nod@V?$_Tmap_traits@VBrn@OpenHome@@PAVObjectType@Stack@Net@2@VBufferCmp@2@V?$allocator@U?$pair@$$CBVBrn@OpenHome@@PAVObjectType@Stack@Net@2@@std@@@std@@$0A@@std@@@std@@QAE@XZ 0042ce10 f i libohNetCore:Stack.obj
 0001:0002bef0       ??0?$allocator@U?$pair@$$CBVBrn@OpenHome@@PAVObjectType@Stack@Net@2@@std@@@std@@QAE@ABV01@@Z 0042cef0 f i libohNetCore:Stack.obj
 0001:0002bf10       ??0?$_Vector_const_iterator@V?$_Vector_val@PAVMListener@Stack@Net@OpenHome@@V?$allocator@PAVMListener@Stack@Net@OpenHome@@@std@@@std@@@std@@QAE@PAPAVMListener@Stack@Net@OpenHome@@PBU_Container_base12@1@@Z 0042cf10 f i libohNetCore:Stack.obj
 0001:0002bf90       ??Y?$_Vector_const_iterator@V?$_Vector_val@PAVMListener@Stack@Net@OpenHome@@V?$allocator@PAVMListener@Stack@Net@OpenHome@@@std@@@std@@@std@@QAEAAV01@H@Z 0042cf90 f i libohNetCore:Stack.obj
 0001:0002c070       ??0?$_Tree_const_iterator@V?$_Tree_val@V?$_Tmap_traits@VBrn@OpenHome@@PAVObjectType@Stack@Net@2@VBufferCmp@2@V?$allocator@U?$pair@$$CBVBrn@OpenHome@@PAVObjectType@Stack@Net@2@@std@@@std@@$0A@@std@@@std@@@std@@QAE@PAU_Node@?$_Tree_nod@V?$_Tmap_traits@VBrn@OpenHome@@PAVObjectType@Stack@Net@2@VBufferCmp@2@V?$allocator@U?$pair@$$CBVBrn@OpenHome@@PAVObjectType@Stack@Net@2@@std@@@std@@$0A@@std@@@1@PBV?$_Tree_val@V?$_Tmap_traits@VBrn@OpenHome@@PAVObjectType@Stack@Net@2@VBufferCmp@2@V?$allocator@U?$pair@$$CBVBrn@OpenHome@@PAVObjectType@Stack@Net@2@@std@@@std@@$0A@@std@@@1@@Z 0042d070 f i libohNetCore:Stack.obj
 0001:0002c0b0       ??D?$_Tree_const_iterator@V?$_Tree_val@V?$_Tmap_traits@VBrn@OpenHome@@PAVObjectType@Stack@Net@2@VBufferCmp@2@V?$allocator@U?$pair@$$CBVBrn@OpenHome@@PAVObjectType@Stack@Net@2@@std@@@std@@$0A@@std@@@std@@@std@@QBEABU?$pair@$$CBVBrn@OpenHome@@PAVObjectType@Stack@Net@2@@1@XZ 0042d0b0 f i libohNetCore:Stack.obj
 0001:0002c170       ??E?$_Tree_unchecked_const_iterator@V?$_Tree_val@V?$_Tmap_traits@VBrn@OpenHome@@PAVObjectType@Stack@Net@2@VBufferCmp@2@V?$allocator@U?$pair@$$CBVBrn@OpenHome@@PAVObjectType@Stack@Net@2@@std@@@std@@$0A@@std@@@std@@U_Iterator_base12@2@@std@@QAEAAV01@XZ 0042d170 f i libohNetCore:Stack.obj
 0001:0002c230       ??0?$_Tree_const_iterator@V?$_Tree_val@V?$_Tmap_traits@PAXPAXU?$less@PAX@std@@V?$allocator@U?$pair@QAXPAX@std@@@2@$0A@@std@@@std@@@std@@QAE@PAU_Node@?$_Tree_nod@V?$_Tmap_traits@PAXPAXU?$less@PAX@std@@V?$allocator@U?$pair@QAXPAX@std@@@2@$0A@@std@@@1@PBV?$_Tree_val@V?$_Tmap_traits@PAXPAXU?$less@PAX@std@@V?$allocator@U?$pair@QAXPAX@std@@@2@$0A@@std@@@1@@Z 0042d230 f i libohNetCore:Stack.obj
 0001:0002c270       ??D?$_Tree_const_iterator@V?$_Tree_val@V?$_Tmap_traits@PAXPAXU?$less@PAX@std@@V?$allocator@U?$pair@QAXPAX@std@@@2@$0A@@std@@@std@@@std@@QBEABU?$pair@QAXPAX@1@XZ 0042d270 f i libohNetCore:Stack.obj
 0001:0002c330       ??E?$_Tree_unchecked_const_iterator@V?$_Tree_val@V?$_Tmap_traits@PAXPAXU?$less@PAX@std@@V?$allocator@U?$pair@QAXPAX@std@@@2@$0A@@std@@@std@@U_Iterator_base12@2@@std@@QAEAAV01@XZ 0042d330 f i libohNetCore:Stack.obj
 0001:0002c3f0       ??1?$_Tmap_traits@PAXPAXU?$less@PAX@std@@V?$allocator@U?$pair@QAXPAX@std@@@2@$0A@@std@@QAE@XZ 0042d3f0 f i libohNetCore:Stack.obj
 0001:0002c420       ??1?$_Tmap_traits@VBrn@OpenHome@@PAVObjectType@Stack@Net@2@VBufferCmp@2@V?$allocator@U?$pair@$$CBVBrn@OpenHome@@PAVObjectType@Stack@Net@2@@std@@@std@@$0A@@std@@QAE@XZ 0042d420 f i libohNetCore:Stack.obj
 0001:0002c450       ??0?$_Iterator012@Urandom_access_iterator_tag@std@@PAVMListener@Stack@Net@OpenHome@@HPBQAV3456@ABQAV3456@U_Iterator_base12@2@@std@@QAE@XZ 0042d450 f i libohNetCore:Stack.obj
 0001:0002c480       ?clear@?$_Tree@V?$_Tmap_traits@PAXPAXU?$less@PAX@std@@V?$allocator@U?$pair@QAXPAX@std@@@2@$0A@@std@@@std@@QAEXXZ 0042d480 f i libohNetCore:Stack.obj
 0001:0002c500       ??0?$_Tree_nod@V?$_Tmap_traits@PAXPAXU?$less@PAX@std@@V?$allocator@U?$pair@QAXPAX@std@@@2@$0A@@std@@@std@@QAE@ABU?$less@PAX@1@V?$allocator@U?$pair@QAXPAX@std@@@1@@Z 0042d500 f i libohNetCore:Stack.obj
 0001:0002c610       ?allocate@?$allocator@U_Node@?$_Tree_nod@V?$_Tmap_traits@PAXPAXU?$less@PAX@std@@V?$allocator@U?$pair@QAXPAX@std@@@2@$0A@@std@@@std@@@std@@QAEPAU_Node@?$_Tree_nod@V?$_Tmap_traits@PAXPAXU?$less@PAX@std@@V?$allocator@U?$pair@QAXPAX@std@@@2@$0A@@std@@@2@I@Z 0042d610 f i libohNetCore:Stack.obj
 0001:0002c640       ?allocate@?$allocator@PAVMListener@Stack@Net@OpenHome@@@std@@QAEPAPAVMListener@Stack@Net@OpenHome@@I@Z 0042d640 f i libohNetCore:Stack.obj
 0001:0002c670       ?max_size@?$allocator@PAVMListener@Stack@Net@OpenHome@@@std@@QBEIXZ 0042d670 f i libohNetCore:Stack.obj
 0001:0002c6c0       ?clear@?$_Tree@V?$_Tmap_traits@VBrn@OpenHome@@PAVObjectType@Stack@Net@2@VBufferCmp@2@V?$allocator@U?$pair@$$CBVBrn@OpenHome@@PAVObjectType@Stack@Net@2@@std@@@std@@$0A@@std@@@std@@QAEXXZ 0042d6c0 f i libohNetCore:Stack.obj
 0001:0002c740       ??0?$_Tree_nod@V?$_Tmap_traits@VBrn@OpenHome@@PAVObjectType@Stack@Net@2@VBufferCmp@2@V?$allocator@U?$pair@$$CBVBrn@OpenHome@@PAVObjectType@Stack@Net@2@@std@@@std@@$0A@@std@@@std@@QAE@ABVBufferCmp@OpenHome@@V?$allocator@U?$pair@$$CBVBrn@OpenHome@@PAVObjectType@Stack@Net@2@@std@@@1@@Z 0042d740 f i libohNetCore:Stack.obj
 0001:0002c850       ?allocate@?$allocator@U_Node@?$_Tree_nod@V?$_Tmap_traits@VBrn@OpenHome@@PAVObjectType@Stack@Net@2@VBufferCmp@2@V?$allocator@U?$pair@$$CBVBrn@OpenHome@@PAVObjectType@Stack@Net@2@@std@@@std@@$0A@@std@@@std@@@std@@QAEPAU_Node@?$_Tree_nod@V?$_Tmap_traits@VBrn@OpenHome@@PAVObjectType@Stack@Net@2@VBufferCmp@2@V?$allocator@U?$pair@$$CBVBrn@OpenHome@@PAVObjectType@Stack@Net@2@@std@@@std@@$0A@@std@@@2@I@Z 0042d850 f i libohNetCore:Stack.obj
 0001:0002c880       ??E?$_Tree_const_iterator@V?$_Tree_val@V?$_Tmap_traits@VBrn@OpenHome@@PAVObjectType@Stack@Net@2@VBufferCmp@2@V?$allocator@U?$pair@$$CBVBrn@OpenHome@@PAVObjectType@Stack@Net@2@@std@@@std@@$0A@@std@@@std@@@std@@QAE?AV01@H@Z 0042d880 f i libohNetCore:Stack.obj
 0001:0002c950       ??0?$_Tree_unchecked_const_iterator@V?$_Tree_val@V?$_Tmap_traits@VBrn@OpenHome@@PAVObjectType@Stack@Net@2@VBufferCmp@2@V?$allocator@U?$pair@$$CBVBrn@OpenHome@@PAVObjectType@Stack@Net@2@@std@@@std@@$0A@@std@@@std@@U_Iterator_base12@2@@std@@QAE@PAU_Node@?$_Tree_nod@V?$_Tmap_traits@VBrn@OpenHome@@PAVObjectType@Stack@Net@2@VBufferCmp@2@V?$allocator@U?$pair@$$CBVBrn@OpenHome@@PAVObjectType@Stack@Net@2@@std@@@std@@$0A@@std@@@1@PBV?$_Tree_val@V?$_Tmap_traits@VBrn@OpenHome@@PAVObjectType@Stack@Net@2@VBufferCmp@2@V?$allocator@U?$pair@$$CBVBrn@OpenHome@@PAVObjectType@Stack@Net@2@@std@@@std@@$0A@@std@@@1@@Z 0042d950 f i libohNetCore:Stack.obj
 0001:0002c9d0       ??E?$_Tree_const_iterator@V?$_Tree_val@V?$_Tmap_traits@PAXPAXU?$less@PAX@std@@V?$allocator@U?$pair@QAXPAX@std@@@2@$0A@@std@@@std@@@std@@QAE?AV01@H@Z 0042d9d0 f i libohNetCore:Stack.obj
 0001:0002caa0       ??0?$_Tree_unchecked_const_iterator@V?$_Tree_val@V?$_Tmap_traits@PAXPAXU?$less@PAX@std@@V?$allocator@U?$pair@QAXPAX@std@@@2@$0A@@std@@@std@@U_Iterator_base12@2@@std@@QAE@PAU_Node@?$_Tree_nod@V?$_Tmap_traits@PAXPAXU?$less@PAX@std@@V?$allocator@U?$pair@QAXPAX@std@@@2@$0A@@std@@@1@PBV?$_Tree_val@V?$_Tmap_traits@PAXPAXU?$less@PAX@std@@V?$allocator@U?$pair@QAXPAX@std@@@2@$0A@@std@@@1@@Z 0042daa0 f i libohNetCore:Stack.obj
 0001:0002cb20       ??0?$_Iterator012@Ubidirectional_iterator_tag@std@@U?$pair@$$CBVBrn@OpenHome@@PAVObjectType@Stack@Net@2@@2@HPBU32@ABU32@U_Iterator_base12@2@@std@@QAE@XZ 0042db20 f i libohNetCore:Stack.obj
 0001:0002cb50       ??0?$_Iterator012@Ubidirectional_iterator_tag@std@@U?$pair@QAXPAX@2@HPBU32@ABU32@U_Iterator_base12@2@@std@@QAE@XZ 0042db50 f i libohNetCore:Stack.obj
 0001:0002cb80       ?_Erase@?$_Tree@V?$_Tmap_traits@PAXPAXU?$less@PAX@std@@V?$allocator@U?$pair@QAXPAX@std@@@2@$0A@@std@@@std@@IAEXPAU_Node@?$_Tree_nod@V?$_Tmap_traits@PAXPAXU?$less@PAX@std@@V?$allocator@U?$pair@QAXPAX@std@@@2@$0A@@std@@@2@@Z 0042db80 f i libohNetCore:Stack.obj
 0001:0002cc20       ??0?$_Tmap_traits@PAXPAXU?$less@PAX@std@@V?$allocator@U?$pair@QAXPAX@std@@@2@$0A@@std@@QAE@U?$less@PAX@1@@Z 0042dc20 f i libohNetCore:Stack.obj
 0001:0002cc50       ?_Erase@?$_Tree@V?$_Tmap_traits@VBrn@OpenHome@@PAVObjectType@Stack@Net@2@VBufferCmp@2@V?$allocator@U?$pair@$$CBVBrn@OpenHome@@PAVObjectType@Stack@Net@2@@std@@@std@@$0A@@std@@@std@@IAEXPAU_Node@?$_Tree_nod@V?$_Tmap_traits@VBrn@OpenHome@@PAVObjectType@Stack@Net@2@VBufferCmp@2@V?$allocator@U?$pair@$$CBVBrn@OpenHome@@PAVObjectType@Stack@Net@2@@std@@@std@@$0A@@std@@@2@@Z 0042dc50 f i libohNetCore:Stack.obj
 0001:0002ccf0       ??0?$_Tmap_traits@VBrn@OpenHome@@PAVObjectType@Stack@Net@2@VBufferCmp@2@V?$allocator@U?$pair@$$CBVBrn@OpenHome@@PAVObjectType@Stack@Net@2@@std@@@std@@$0A@@std@@QAE@VBufferCmp@OpenHome@@@Z 0042dcf0 f i libohNetCore:Stack.obj
 0001:0002cd20       ??$?0AAVBrn@OpenHome@@AAPAVObjectType@Stack@Net@1@@?$pair@VBrn@OpenHome@@PAVObjectType@Stack@Net@2@@std@@QAE@AAVBrn@OpenHome@@AAPAVObjectType@Stack@Net@3@@Z 0042dd20 f i libohNetCore:Stack.obj
 0001:0002cd60       ??$insert@U?$pair@VBrn@OpenHome@@PAVObjectType@Stack@Net@2@@std@@@?$_Tree@V?$_Tmap_traits@VBrn@OpenHome@@PAVObjectType@Stack@Net@2@VBufferCmp@2@V?$allocator@U?$pair@$$CBVBrn@OpenHome@@PAVObjectType@Stack@Net@2@@std@@@std@@$0A@@std@@@std@@QAE?AU?$pair@V?$_Tree_iterator@V?$_Tree_val@V?$_Tmap_traits@VBrn@OpenHome@@PAVObjectType@Stack@Net@2@VBufferCmp@2@V?$allocator@U?$pair@$$CBVBrn@OpenHome@@PAVObjectType@Stack@Net@2@@std@@@std@@$0A@@std@@@std@@@std@@_N@1@$$QAU?$pair@VBrn@OpenHome@@PAVObjectType@Stack@Net@2@@1@@Z 0042dd60 f i libohNetCore:Stack.obj
 0001:0002cdc0       ??$?0AAPAXAAPAX@?$pair@PAXPAX@std@@QAE@AAPAX0@Z 0042ddc0 f i libohNetCore:Stack.obj
 0001:0002ce00       ??$insert@U?$pair@PAXPAX@std@@@?$_Tree@V?$_Tmap_traits@PAXPAXU?$less@PAX@std@@V?$allocator@U?$pair@QAXPAX@std@@@2@$0A@@std@@@std@@QAE?AU?$pair@V?$_Tree_iterator@V?$_Tree_val@V?$_Tmap_traits@PAXPAXU?$less@PAX@std@@V?$allocator@U?$pair@QAXPAX@std@@@2@$0A@@std@@@std@@@std@@_N@1@$$QAU?$pair@PAXPAX@1@@Z 0042de00 f i libohNetCore:Stack.obj
 0001:0002ce60       ??$addressof@U?$pair@QAXPAX@std@@@std@@YGPAU?$pair@QAXPAX@0@AAU10@@Z 0042de60 f i libohNetCore:Stack.obj
 0001:0002ce70       ??$_Dest_val@V?$allocator@U?$pair@QAXPAX@std@@@std@@U?$pair@QAXPAX@2@@std@@YGXAAV?$allocator@U?$pair@QAXPAX@std@@@0@PAU?$pair@QAXPAX@0@@Z 0042de70 f i libohNetCore:Stack.obj
 0001:0002ce90       ??$_Debug_lt_pred@U?$less@PAX@std@@PAXPAX@std@@YG_NU?$less@PAX@0@ABQAXAAPAXPB_WI@Z 0042de90 f i libohNetCore:Stack.obj
 0001:0002cef0       ??$addressof@QAVMListener@Stack@Net@OpenHome@@@std@@YGPBQAVMListener@Stack@Net@OpenHome@@ABQAV1234@@Z 0042def0 f i libohNetCore:Stack.obj
 0001:0002cf00       ??$_Cons_val@V?$allocator@PAVMListener@Stack@Net@OpenHome@@@std@@PAVMListener@Stack@Net@OpenHome@@AAPAV3456@@std@@YGXAAV?$allocator@PAVMListener@Stack@Net@OpenHome@@@0@PAPAVMListener@Stack@Net@OpenHome@@AAPAV2345@@Z 0042df00 f i libohNetCore:Stack.obj
 0001:0002cf30       ??$_Cons_val@V?$allocator@PAVMListener@Stack@Net@OpenHome@@@std@@PAVMListener@Stack@Net@OpenHome@@ABQAV3456@@std@@YGXAAV?$allocator@PAVMListener@Stack@Net@OpenHome@@@0@PAPAVMListener@Stack@Net@OpenHome@@ABQAV2345@@Z 0042df30 f i libohNetCore:Stack.obj
 0001:0002cf60       ??$_Move@PAPAVMListener@Stack@Net@OpenHome@@PAPAV1234@@std@@YGPAPAVMListener@Stack@Net@OpenHome@@PAPAV1234@00@Z 0042df60 f i libohNetCore:Stack.obj
 0001:0002cfb0       ??$addressof@U?$pair@$$CBVBrn@OpenHome@@PAVObjectType@Stack@Net@2@@std@@@std@@YGPAU?$pair@$$CBVBrn@OpenHome@@PAVObjectType@Stack@Net@2@@0@AAU10@@Z 0042dfb0 f i libohNetCore:Stack.obj
 0001:0002cfc0       ??$_Dest_val@V?$allocator@U?$pair@$$CBVBrn@OpenHome@@PAVObjectType@Stack@Net@2@@std@@@std@@U?$pair@$$CBVBrn@OpenHome@@PAVObjectType@Stack@Net@2@@2@@std@@YGXAAV?$allocator@U?$pair@$$CBVBrn@OpenHome@@PAVObjectType@Stack@Net@2@@std@@@0@PAU?$pair@$$CBVBrn@OpenHome@@PAVObjectType@Stack@Net@2@@0@@Z 0042dfc0 f i libohNetCore:Stack.obj
 0001:0002cfe0       ??$_Kfn@QAXPAX@?$_Tmap_traits@PAXPAXU?$less@PAX@std@@V?$allocator@U?$pair@QAXPAX@std@@@2@$0A@@std@@SGABQAXABU?$pair@QAXPAX@1@@Z 0042dfe0 f i libohNetCore:Stack.obj
 0001:0002cff0       ??$_Destroy_range@V?$allocator@PAVMListener@Stack@Net@OpenHome@@@std@@@std@@YGXPAPAVMListener@Stack@Net@OpenHome@@0AAV?$allocator@PAVMListener@Stack@Net@OpenHome@@@0@@Z 0042dff0 f i libohNetCore:Stack.obj
 0001:0002d040       ??$?0PAVMListener@Stack@Net@OpenHome@@@?$allocator@U_Container_proxy@std@@@std@@QAE@ABV?$allocator@PAVMListener@Stack@Net@OpenHome@@@1@@Z 0042e040 f i libohNetCore:Stack.obj
 0001:0002d060       ??$_Kfn@$$CBVBrn@OpenHome@@PAVObjectType@Stack@Net@2@@?$_Tmap_traits@VBrn@OpenHome@@PAVObjectType@Stack@Net@2@VBufferCmp@2@V?$allocator@U?$pair@$$CBVBrn@OpenHome@@PAVObjectType@Stack@Net@2@@std@@@std@@$0A@@std@@SGABVBrn@OpenHome@@ABU?$pair@$$CBVBrn@OpenHome@@PAVObjectType@Stack@Net@2@@1@@Z 0042e060 f i libohNetCore:Stack.obj
 0001:0002d070       ??$_Debug_lt_pred@U?$less@PAX@std@@PAXPAX@std@@YG_NU?$less@PAX@0@AAPAXABQAXPB_WI@Z 0042e070 f i libohNetCore:Stack.obj
 0001:0002d0d0       ??$?0U_Node@?$_Tree_nod@V?$_Tmap_traits@PAXPAXU?$less@PAX@std@@V?$allocator@U?$pair@QAXPAX@std@@@2@$0A@@std@@@std@@@?$allocator@U_Container_proxy@std@@@std@@QAE@ABV?$allocator@U_Node@?$_Tree_nod@V?$_Tmap_traits@PAXPAXU?$less@PAX@std@@V?$allocator@U?$pair@QAXPAX@std@@@2@$0A@@std@@@std@@@1@@Z 0042e0d0 f i libohNetCore:Stack.obj
 0001:0002d0f0       ??$_Umove@PAPAVMListener@Stack@Net@OpenHome@@@?$vector@PAVMListener@Stack@Net@OpenHome@@V?$allocator@PAVMListener@Stack@Net@OpenHome@@@std@@@std@@IAEPAPAVMListener@Stack@Net@OpenHome@@PAPAV2345@00@Z 0042e0f0 f i libohNetCore:Stack.obj
 0001:0002d130       ??$?0U_Node@?$_Tree_nod@V?$_Tmap_traits@VBrn@OpenHome@@PAVObjectType@Stack@Net@2@VBufferCmp@2@V?$allocator@U?$pair@$$CBVBrn@OpenHome@@PAVObjectType@Stack@Net@2@@std@@@std@@$0A@@std@@@std@@@?$allocator@U_Container_proxy@std@@@std@@QAE@ABV?$allocator@U_Node@?$_Tree_nod@V?$_Tmap_traits@VBrn@OpenHome@@PAVObjectType@Stack@Net@2@VBufferCmp@2@V?$allocator@U?$pair@$$CBVBrn@OpenHome@@PAVObjectType@Stack@Net@2@@std@@@std@@$0A@@std@@@std@@@1@@Z 0042e130 f i libohNetCore:Stack.obj
 0001:0002d150       ??$?0U?$pair@QAXPAX@std@@@?$allocator@U_Node@?$_Tree_nod@V?$_Tmap_traits@PAXPAXU?$less@PAX@std@@V?$allocator@U?$pair@QAXPAX@std@@@2@$0A@@std@@@std@@@std@@QAE@ABV?$allocator@U?$pair@QAXPAX@std@@@1@@Z 0042e150 f i libohNetCore:Stack.obj
 0001:0002d170       ??$_Allocate@U_Node@?$_Tree_nod@V?$_Tmap_traits@PAXPAXU?$less@PAX@std@@V?$allocator@U?$pair@QAXPAX@std@@@2@$0A@@std@@@std@@@std@@YGPAU_Node@?$_Tree_nod@V?$_Tmap_traits@PAXPAXU?$less@PAX@std@@V?$allocator@U?$pair@QAXPAX@std@@@2@$0A@@std@@@0@IPAU120@@Z 0042e170 f i libohNetCore:Stack.obj
 0001:0002d1f0       ??$_Allocate@PAVMListener@Stack@Net@OpenHome@@@std@@YGPAPAVMListener@Stack@Net@OpenHome@@IPAPAV1234@@Z 0042e1f0 f i libohNetCore:Stack.obj
 0001:0002d270       ??$?0U?$pair@$$CBVBrn@OpenHome@@PAVObjectType@Stack@Net@2@@std@@@?$allocator@U_Node@?$_Tree_nod@V?$_Tmap_traits@VBrn@OpenHome@@PAVObjectType@Stack@Net@2@VBufferCmp@2@V?$allocator@U?$pair@$$CBVBrn@OpenHome@@PAVObjectType@Stack@Net@2@@std@@@std@@$0A@@std@@@std@@@std@@QAE@ABV?$allocator@U?$pair@$$CBVBrn@OpenHome@@PAVObjectType@Stack@Net@2@@std@@@1@@Z 0042e270 f i libohNetCore:Stack.obj
 0001:0002d290       ??$_Allocate@U_Node@?$_Tree_nod@V?$_Tmap_traits@VBrn@OpenHome@@PAVObjectType@Stack@Net@2@VBufferCmp@2@V?$allocator@U?$pair@$$CBVBrn@OpenHome@@PAVObjectType@Stack@Net@2@@std@@@std@@$0A@@std@@@std@@@std@@YGPAU_Node@?$_Tree_nod@V?$_Tmap_traits@VBrn@OpenHome@@PAVObjectType@Stack@Net@2@VBufferCmp@2@V?$allocator@U?$pair@$$CBVBrn@OpenHome@@PAVObjectType@Stack@Net@2@@std@@@std@@$0A@@std@@@0@IPAU120@@Z 0042e290 f i libohNetCore:Stack.obj
 0001:0002d310       ?_Linsert@?$_Tree@V?$_Tmap_traits@PAXPAXU?$less@PAX@std@@V?$allocator@U?$pair@QAXPAX@std@@@2@$0A@@std@@@std@@QAE?AU?$pair@V?$_Tree_iterator@V?$_Tree_val@V?$_Tmap_traits@PAXPAXU?$less@PAX@std@@V?$allocator@U?$pair@QAXPAX@std@@@2@$0A@@std@@@std@@@std@@_N@2@PAU_Node@?$_Tree_nod@V?$_Tmap_traits@PAXPAXU?$less@PAX@std@@V?$allocator@U?$pair@QAXPAX@std@@@2@$0A@@std@@@2@_N@Z 0042e310 f i libohNetCore:Stack.obj
 0001:0002d6f0       ?destroy@?$allocator@U?$pair@QAXPAX@std@@@std@@QAEXPAU?$pair@QAXPAX@2@@Z 0042e6f0 f i libohNetCore:Stack.obj
 0001:0002d720       ??R?$less@PAX@std@@QBE_NABQAX0@Z 0042e720 f i libohNetCore:Stack.obj
 0001:0002d750       ?construct@?$allocator@PAVMListener@Stack@Net@OpenHome@@@std@@QAEXPAPAVMListener@Stack@Net@OpenHome@@ABQAV3456@@Z 0042e750 f i libohNetCore:Stack.obj
 0001:0002d780       ?_Linsert@?$_Tree@V?$_Tmap_traits@VBrn@OpenHome@@PAVObjectType@Stack@Net@2@VBufferCmp@2@V?$allocator@U?$pair@$$CBVBrn@OpenHome@@PAVObjectType@Stack@Net@2@@std@@@std@@$0A@@std@@@std@@QAE?AU?$pair@V?$_Tree_iterator@V?$_Tree_val@V?$_Tmap_traits@VBrn@OpenHome@@PAVObjectType@Stack@Net@2@VBufferCmp@2@V?$allocator@U?$pair@$$CBVBrn@OpenHome@@PAVObjectType@Stack@Net@2@@std@@@std@@$0A@@std@@@std@@@std@@_N@2@PAU_Node@?$_Tree_nod@V?$_Tmap_traits@VBrn@OpenHome@@PAVObjectType@Stack@Net@2@VBufferCmp@2@V?$allocator@U?$pair@$$CBVBrn@OpenHome@@PAVObjectType@Stack@Net@2@@std@@@std@@$0A@@std@@@2@_N@Z 0042e780 f i libohNetCore:Stack.obj
 0001:0002db60       ?destroy@?$allocator@U?$pair@$$CBVBrn@OpenHome@@PAVObjectType@Stack@Net@2@@std@@@std@@QAEXPAU?$pair@$$CBVBrn@OpenHome@@PAVObjectType@Stack@Net@2@@2@@Z 0042eb60 f i libohNetCore:Stack.obj
 0001:0002db90       ?_Insert@?$_Tree@V?$_Tmap_traits@PAXPAXU?$less@PAX@std@@V?$allocator@U?$pair@QAXPAX@std@@@2@$0A@@std@@@std@@IAE?AV?$_Tree_iterator@V?$_Tree_val@V?$_Tmap_traits@PAXPAXU?$less@PAX@std@@V?$allocator@U?$pair@QAXPAX@std@@@2@$0A@@std@@@std@@@2@_NPAU_Node@?$_Tree_nod@V?$_Tmap_traits@PAXPAXU?$less@PAX@std@@V?$allocator@U?$pair@QAXPAX@std@@@2@$0A@@std@@@2@1@Z 0042eb90 f i libohNetCore:Stack.obj
 0001:0002df50       ?_Insert@?$_Tree@V?$_Tmap_traits@VBrn@OpenHome@@PAVObjectType@Stack@Net@2@VBufferCmp@2@V?$allocator@U?$pair@$$CBVBrn@OpenHome@@PAVObjectType@Stack@Net@2@@std@@@std@@$0A@@std@@@std@@IAE?AV?$_Tree_iterator@V?$_Tree_val@V?$_Tmap_traits@VBrn@OpenHome@@PAVObjectType@Stack@Net@2@VBufferCmp@2@V?$allocator@U?$pair@$$CBVBrn@OpenHome@@PAVObjectType@Stack@Net@2@@std@@@std@@$0A@@std@@@std@@@2@_NPAU_Node@?$_Tree_nod@V?$_Tmap_traits@VBrn@OpenHome@@PAVObjectType@Stack@Net@2@VBufferCmp@2@V?$allocator@U?$pair@$$CBVBrn@OpenHome@@PAVObjectType@Stack@Net@2@@std@@@std@@$0A@@std@@@2@1@Z 0042ef50 f i libohNetCore:Stack.obj
 0001:0002e310       ??F?$_Tree_iterator@V?$_Tree_val@V?$_Tmap_traits@VBrn@OpenHome@@PAVObjectType@Stack@Net@2@VBufferCmp@2@V?$allocator@U?$pair@$$CBVBrn@OpenHome@@PAVObjectType@Stack@Net@2@@std@@@std@@$0A@@std@@@std@@@std@@QAEAAV01@XZ 0042f310 f i libohNetCore:Stack.obj
 0001:0002e340       ??0?$pair@V?$_Tree_iterator@V?$_Tree_val@V?$_Tmap_traits@VBrn@OpenHome@@PAVObjectType@Stack@Net@2@VBufferCmp@2@V?$allocator@U?$pair@$$CBVBrn@OpenHome@@PAVObjectType@Stack@Net@2@@std@@@std@@$0A@@std@@@std@@@std@@_N@std@@QAE@$$QAV?$_Tree_iterator@V?$_Tree_val@V?$_Tmap_traits@VBrn@OpenHome@@PAVObjectType@Stack@Net@2@VBufferCmp@2@V?$allocator@U?$pair@$$CBVBrn@OpenHome@@PAVObjectType@Stack@Net@2@@std@@@std@@$0A@@std@@@std@@@1@$$QA_N@Z 0042f340 f i libohNetCore:Stack.obj
 0001:0002e380       ??0?$pair@V?$_Tree_iterator@V?$_Tree_val@V?$_Tmap_traits@PAXPAXU?$less@PAX@std@@V?$allocator@U?$pair@QAXPAX@std@@@2@$0A@@std@@@std@@@std@@_N@std@@QAE@$$QAV?$_Tree_iterator@V?$_Tree_val@V?$_Tmap_traits@PAXPAXU?$less@PAX@std@@V?$allocator@U?$pair@QAXPAX@std@@@2@$0A@@std@@@std@@@1@$$QA_N@Z 0042f380 f i libohNetCore:Stack.obj
 0001:0002e3c0       ??F?$_Tree_iterator@V?$_Tree_val@V?$_Tmap_traits@PAXPAXU?$less@PAX@std@@V?$allocator@U?$pair@QAXPAX@std@@@2@$0A@@std@@@std@@@std@@QAEAAV01@XZ 0042f3c0 f i libohNetCore:Stack.obj
 0001:0002e3f0       ?max_size@?$_Tree@V?$_Tmap_traits@PAXPAXU?$less@PAX@std@@V?$allocator@U?$pair@QAXPAX@std@@@2@$0A@@std@@@std@@QBEIXZ 0042f3f0 f i libohNetCore:Stack.obj
 0001:0002e420       ?max_size@?$_Tree@V?$_Tmap_traits@VBrn@OpenHome@@PAVObjectType@Stack@Net@2@VBufferCmp@2@V?$allocator@U?$pair@$$CBVBrn@OpenHome@@PAVObjectType@Stack@Net@2@@std@@@std@@$0A@@std@@@std@@QBEIXZ 0042f420 f i libohNetCore:Stack.obj
 0001:0002e450       ??F?$_Tree_const_iterator@V?$_Tree_val@V?$_Tmap_traits@VBrn@OpenHome@@PAVObjectType@Stack@Net@2@VBufferCmp@2@V?$allocator@U?$pair@$$CBVBrn@OpenHome@@PAVObjectType@Stack@Net@2@@std@@@std@@$0A@@std@@@std@@@std@@QAEAAV01@XZ 0042f450 f i libohNetCore:Stack.obj
 0001:0002e570       ??0?$_Pair_base@V?$_Tree_iterator@V?$_Tree_val@V?$_Tmap_traits@VBrn@OpenHome@@PAVObjectType@Stack@Net@2@VBufferCmp@2@V?$allocator@U?$pair@$$CBVBrn@OpenHome@@PAVObjectType@Stack@Net@2@@std@@@std@@$0A@@std@@@std@@@std@@_N@std@@QAE@$$QAV?$_Tree_iterator@V?$_Tree_val@V?$_Tmap_traits@VBrn@OpenHome@@PAVObjectType@Stack@Net@2@VBufferCmp@2@V?$allocator@U?$pair@$$CBVBrn@OpenHome@@PAVObjectType@Stack@Net@2@@std@@@std@@$0A@@std@@@std@@@1@$$QA_N@Z 0042f570 f i libohNetCore:Stack.obj
 0001:0002e5f0       ??0?$_Pair_base@V?$_Tree_iterator@V?$_Tree_val@V?$_Tmap_traits@PAXPAXU?$less@PAX@std@@V?$allocator@U?$pair@QAXPAX@std@@@2@$0A@@std@@@std@@@std@@_N@std@@QAE@$$QAV?$_Tree_iterator@V?$_Tree_val@V?$_Tmap_traits@PAXPAXU?$less@PAX@std@@V?$allocator@U?$pair@QAXPAX@std@@@2@$0A@@std@@@std@@@1@$$QA_N@Z 0042f5f0 f i libohNetCore:Stack.obj
 0001:0002e670       ??F?$_Tree_const_iterator@V?$_Tree_val@V?$_Tmap_traits@PAXPAXU?$less@PAX@std@@V?$allocator@U?$pair@QAXPAX@std@@@2@$0A@@std@@@std@@@std@@QAEAAV01@XZ 0042f670 f i libohNetCore:Stack.obj
 0001:0002e790       ?max_size@?$allocator@U?$pair@QAXPAX@std@@@std@@QBEIXZ 0042f790 f i libohNetCore:Stack.obj
 0001:0002e7e0       ?max_size@?$allocator@U?$pair@$$CBVBrn@OpenHome@@PAVObjectType@Stack@Net@2@@std@@@std@@QBEIXZ 0042f7e0 f i libohNetCore:Stack.obj
 0001:0002e830       ??F?$_Tree_unchecked_const_iterator@V?$_Tree_val@V?$_Tmap_traits@VBrn@OpenHome@@PAVObjectType@Stack@Net@2@VBufferCmp@2@V?$allocator@U?$pair@$$CBVBrn@OpenHome@@PAVObjectType@Stack@Net@2@@std@@@std@@$0A@@std@@@std@@U_Iterator_base12@2@@std@@QAEAAV01@XZ 0042f830 f i libohNetCore:Stack.obj
 0001:0002e920       ??F?$_Tree_unchecked_const_iterator@V?$_Tree_val@V?$_Tmap_traits@PAXPAXU?$less@PAX@std@@V?$allocator@U?$pair@QAXPAX@std@@@2@$0A@@std@@@std@@U_Iterator_base12@2@@std@@QAEAAV01@XZ 0042f920 f i libohNetCore:Stack.obj
 0001:0002ea10       ??$forward@AAPAVObjectType@Stack@Net@OpenHome@@@std@@YGAAPAVObjectType@Stack@Net@OpenHome@@AAPAV1234@@Z 0042fa10 f i libohNetCore:Stack.obj
 0001:0002ea20       ??$?0AAVBrn@OpenHome@@AAPAVObjectType@Stack@Net@1@@?$_Pair_base@VBrn@OpenHome@@PAVObjectType@Stack@Net@2@@std@@QAE@AAVBrn@OpenHome@@AAPAVObjectType@Stack@Net@3@@Z 0042fa20 f i libohNetCore:Stack.obj
 0001:0002eaa0       ??$forward@U?$pair@VBrn@OpenHome@@PAVObjectType@Stack@Net@2@@std@@@std@@YG$$QAU?$pair@VBrn@OpenHome@@PAVObjectType@Stack@Net@2@@0@AAU10@@Z 0042faa0 f i libohNetCore:Stack.obj
 0001:0002eab0       ??$_Buynode@U?$pair@VBrn@OpenHome@@PAVObjectType@Stack@Net@2@@std@@@?$_Tree_val@V?$_Tmap_traits@VBrn@OpenHome@@PAVObjectType@Stack@Net@2@VBufferCmp@2@V?$allocator@U?$pair@$$CBVBrn@OpenHome@@PAVObjectType@Stack@Net@2@@std@@@std@@$0A@@std@@@std@@QAEPAU_Node@?$_Tree_nod@V?$_Tmap_traits@VBrn@OpenHome@@PAVObjectType@Stack@Net@2@VBufferCmp@2@V?$allocator@U?$pair@$$CBVBrn@OpenHome@@PAVObjectType@Stack@Net@2@@std@@@std@@$0A@@std@@@1@$$QAU?$pair@VBrn@OpenHome@@PAVObjectType@Stack@Net@2@@1@@Z 0042fab0 f i libohNetCore:Stack.obj
 0001:0002eb90       ??$forward@AAPAX@std@@YGAAPAXAAPAX@Z 0042fb90 f i libohNetCore:Stack.obj
 0001:0002eba0       ??$?0AAPAXAAPAX@?$_Pair_base@PAXPAX@std@@QAE@AAPAX0@Z 0042fba0 f i libohNetCore:Stack.obj
 0001:0002ebf0       ??$forward@U?$pair@PAXPAX@std@@@std@@YG$$QAU?$pair@PAXPAX@0@AAU10@@Z 0042fbf0 f i libohNetCore:Stack.obj
 0001:0002ec00       ??$_Buynode@U?$pair@PAXPAX@std@@@?$_Tree_val@V?$_Tmap_traits@PAXPAXU?$less@PAX@std@@V?$allocator@U?$pair@QAXPAX@std@@@2@$0A@@std@@@std@@QAEPAU_Node@?$_Tree_nod@V?$_Tmap_traits@PAXPAXU?$less@PAX@std@@V?$allocator@U?$pair@QAXPAX@std@@@2@$0A@@std@@@1@$$QAU?$pair@PAXPAX@1@@Z 0042fc00 f i libohNetCore:Stack.obj
 0001:0002ece0       ??$forward@AAPAVMListener@Stack@Net@OpenHome@@@std@@YGAAPAVMListener@Stack@Net@OpenHome@@AAPAV1234@@Z 0042fce0 f i libohNetCore:Stack.obj
 0001:0002ecf0       ??$construct@AAPAVMListener@Stack@Net@OpenHome@@@?$allocator@PAVMListener@Stack@Net@OpenHome@@@std@@QAEXPAPAVMListener@Stack@Net@OpenHome@@AAPAV2345@@Z 0042fcf0 f i libohNetCore:Stack.obj
 0001:0002ed90       ??$forward@ABQAVMListener@Stack@Net@OpenHome@@@std@@YGABQAVMListener@Stack@Net@OpenHome@@ABQAV1234@@Z 0042fd90 f i libohNetCore:Stack.obj
 0001:0002eda0       ??$_Ptr_cat@PAVMListener@Stack@Net@OpenHome@@PAV1234@@std@@YG?AU_Scalar_ptr_iterator_tag@0@PAPAVMListener@Stack@Net@OpenHome@@0@Z 0042fda0 f i libohNetCore:Stack.obj
 0001:0002ee00       ??$_Move@PAPAVMListener@Stack@Net@OpenHome@@PAPAV1234@@std@@YGPAPAVMListener@Stack@Net@OpenHome@@PAPAV1234@00U_Scalar_ptr_iterator_tag@0@@Z 0042fe00 f i libohNetCore:Stack.obj
 0001:0002ee50       ??$_Destroy_range@V?$allocator@PAVMListener@Stack@Net@OpenHome@@@std@@@std@@YGXPAPAVMListener@Stack@Net@OpenHome@@0AAV?$allocator@PAVMListener@Stack@Net@OpenHome@@@0@U_Scalar_ptr_iterator_tag@0@@Z 0042fe50 f i libohNetCore:Stack.obj
 0001:0002ee60       ??$_Uninitialized_move@PAPAVMListener@Stack@Net@OpenHome@@PAPAV1234@V?$allocator@PAVMListener@Stack@Net@OpenHome@@@std@@@std@@YGPAPAVMListener@Stack@Net@OpenHome@@PAPAV1234@00AAV?$allocator@PAVMListener@Stack@Net@OpenHome@@@0@@Z 0042fe60 f i libohNetCore:Stack.obj
 0001:0002eeb0       ??$?0AAV?$_Tree_iterator@V?$_Tree_val@V?$_Tmap_traits@PAXPAXU?$less@PAX@std@@V?$allocator@U?$pair@QAXPAX@std@@@2@$0A@@std@@@std@@@std@@_N@?$pair@V?$_Tree_iterator@V?$_Tree_val@V?$_Tmap_traits@PAXPAXU?$less@PAX@std@@V?$allocator@U?$pair@QAXPAX@std@@@2@$0A@@std@@@std@@@std@@_N@std@@QAE@AAV?$_Tree_iterator@V?$_Tree_val@V?$_Tmap_traits@PAXPAXU?$less@PAX@std@@V?$allocator@U?$pair@QAXPAX@std@@@2@$0A@@std@@@std@@@1@$$QA_N@Z 0042feb0 f i libohNetCore:Stack.obj
 0001:0002eef0       ??$_Destroy@U?$pair@QAXPAX@std@@@std@@YGXPAU?$pair@QAXPAX@0@@Z 0042fef0 f i libohNetCore:Stack.obj
 0001:0002ef00       ??$_Construct@PAVMListener@Stack@Net@OpenHome@@ABQAV1234@@std@@YGXPAPAVMListener@Stack@Net@OpenHome@@ABQAV1234@@Z 0042ff00 f i libohNetCore:Stack.obj
 0001:0002efb0       ??$?0AAV?$_Tree_iterator@V?$_Tree_val@V?$_Tmap_traits@VBrn@OpenHome@@PAVObjectType@Stack@Net@2@VBufferCmp@2@V?$allocator@U?$pair@$$CBVBrn@OpenHome@@PAVObjectType@Stack@Net@2@@std@@@std@@$0A@@std@@@std@@@std@@_N@?$pair@V?$_Tree_iterator@V?$_Tree_val@V?$_Tmap_traits@VBrn@OpenHome@@PAVObjectType@Stack@Net@2@VBufferCmp@2@V?$allocator@U?$pair@$$CBVBrn@OpenHome@@PAVObjectType@Stack@Net@2@@std@@@std@@$0A@@std@@@std@@@std@@_N@std@@QAE@AAV?$_Tree_iterator@V?$_Tree_val@V?$_Tmap_traits@VBrn@OpenHome@@PAVObjectType@Stack@Net@2@VBufferCmp@2@V?$allocator@U?$pair@$$CBVBrn@OpenHome@@PAVObjectType@Stack@Net@2@@std@@@std@@$0A@@std@@@std@@@1@$$QA_N@Z 0042ffb0 f i libohNetCore:Stack.obj
 0001:0002eff0       ??$_Destroy@U?$pair@$$CBVBrn@OpenHome@@PAVObjectType@Stack@Net@2@@std@@@std@@YGXPAU?$pair@$$CBVBrn@OpenHome@@PAVObjectType@Stack@Net@2@@0@@Z 0042fff0 f i libohNetCore:Stack.obj
 0001:0002f010       ??$move@AAV?$_Tree_iterator@V?$_Tree_val@V?$_Tmap_traits@VBrn@OpenHome@@PAVObjectType@Stack@Net@2@VBufferCmp@2@V?$allocator@U?$pair@$$CBVBrn@OpenHome@@PAVObjectType@Stack@Net@2@@std@@@std@@$0A@@std@@@std@@@std@@@std@@YG$$QAV?$_Tree_iterator@V?$_Tree_val@V?$_Tmap_traits@VBrn@OpenHome@@PAVObjectType@Stack@Net@2@VBufferCmp@2@V?$allocator@U?$pair@$$CBVBrn@OpenHome@@PAVObjectType@Stack@Net@2@@std@@@std@@$0A@@std@@@std@@@0@AAV10@@Z 00430010 f i libohNetCore:Stack.obj
 0001:0002f020       ??$move@AAV?$_Tree_iterator@V?$_Tree_val@V?$_Tmap_traits@PAXPAXU?$less@PAX@std@@V?$allocator@U?$pair@QAXPAX@std@@@2@$0A@@std@@@std@@@std@@@std@@YG$$QAV?$_Tree_iterator@V?$_Tree_val@V?$_Tmap_traits@PAXPAXU?$less@PAX@std@@V?$allocator@U?$pair@QAXPAX@std@@@2@$0A@@std@@@std@@@0@AAV10@@Z 00430020 f i libohNetCore:Stack.obj
 0001:0002f030       ??_G?$pair@$$CBVBrn@OpenHome@@PAVObjectType@Stack@Net@2@@std@@QAEPAXI@Z 00430030 f i libohNetCore:Stack.obj
 0001:0002f070       ??1?$pair@$$CBVBrn@OpenHome@@PAVObjectType@Stack@Net@2@@std@@QAE@XZ 00430070 f i libohNetCore:Stack.obj
 0001:0002f0a0       ??1?$_Pair_base@$$CBVBrn@OpenHome@@PAVObjectType@Stack@Net@2@@std@@QAE@XZ 004300a0 f i libohNetCore:Stack.obj
 0001:0002f0d0       ?_Buynode@?$_Tree_val@V?$_Tmap_traits@PAXPAXU?$less@PAX@std@@V?$allocator@U?$pair@QAXPAX@std@@@2@$0A@@std@@@std@@QAEPAU_Node@?$_Tree_nod@V?$_Tmap_traits@PAXPAXU?$less@PAX@std@@V?$allocator@U?$pair@QAXPAX@std@@@2@$0A@@std@@@2@XZ 004300d0 f i libohNetCore:Stack.obj
 0001:0002f160       ?_Buynode@?$_Tree_val@V?$_Tmap_traits@VBrn@OpenHome@@PAVObjectType@Stack@Net@2@VBufferCmp@2@V?$allocator@U?$pair@$$CBVBrn@OpenHome@@PAVObjectType@Stack@Net@2@@std@@@std@@$0A@@std@@@std@@QAEPAU_Node@?$_Tree_nod@V?$_Tmap_traits@VBrn@OpenHome@@PAVObjectType@Stack@Net@2@VBufferCmp@2@V?$allocator@U?$pair@$$CBVBrn@OpenHome@@PAVObjectType@Stack@Net@2@@std@@@std@@$0A@@std@@@2@XZ 00430160 f i libohNetCore:Stack.obj
 0001:0002f1f0       ??$_Cons_val@V?$allocator@U?$pair@$$CBVBrn@OpenHome@@PAVObjectType@Stack@Net@2@@std@@@std@@U?$pair@$$CBVBrn@OpenHome@@PAVObjectType@Stack@Net@2@@2@U?$pair@VBrn@OpenHome@@PAVObjectType@Stack@Net@2@@2@@std@@YGXAAV?$allocator@U?$pair@$$CBVBrn@OpenHome@@PAVObjectType@Stack@Net@2@@std@@@0@PAU?$pair@$$CBVBrn@OpenHome@@PAVObjectType@Stack@Net@2@@0@$$QAU?$pair@VBrn@OpenHome@@PAVObjectType@Stack@Net@2@@0@@Z 004301f0 f i libohNetCore:Stack.obj
 0001:0002f220       ??$_Cons_val@V?$allocator@U?$pair@QAXPAX@std@@@std@@U?$pair@QAXPAX@2@U?$pair@PAXPAX@2@@std@@YGXAAV?$allocator@U?$pair@QAXPAX@std@@@0@PAU?$pair@QAXPAX@0@$$QAU?$pair@PAXPAX@0@@Z 00430220 f i libohNetCore:Stack.obj
 0001:0002f250       ??$_Val_type@PAPAVMListener@Stack@Net@OpenHome@@@std@@YGPAPAVMListener@Stack@Net@OpenHome@@PAPAV1234@@Z 00430250 f i libohNetCore:Stack.obj
 0001:0002f260       ??$_Uninit_move@PAVMListener@Stack@Net@OpenHome@@PAV1234@PAV1234@@std@@YGPAPAVMListener@Stack@Net@OpenHome@@PAPAV1234@00AAV?$allocator@PAVMListener@Stack@Net@OpenHome@@@0@0U_Scalar_ptr_iterator_tag@0@@Z 00430260 f i libohNetCore:Stack.obj
 0001:0002f2d0       ??$forward@AAV?$_Tree_iterator@V?$_Tree_val@V?$_Tmap_traits@PAXPAXU?$less@PAX@std@@V?$allocator@U?$pair@QAXPAX@std@@@2@$0A@@std@@@std@@@std@@@std@@YGAAV?$_Tree_iterator@V?$_Tree_val@V?$_Tmap_traits@PAXPAXU?$less@PAX@std@@V?$allocator@U?$pair@QAXPAX@std@@@2@$0A@@std@@@std@@@0@AAV10@@Z 004302d0 f i libohNetCore:Stack.obj
 0001:0002f2e0       ??$?0AAV?$_Tree_iterator@V?$_Tree_val@V?$_Tmap_traits@PAXPAXU?$less@PAX@std@@V?$allocator@U?$pair@QAXPAX@std@@@2@$0A@@std@@@std@@@std@@_N@?$_Pair_base@V?$_Tree_iterator@V?$_Tree_val@V?$_Tmap_traits@PAXPAXU?$less@PAX@std@@V?$allocator@U?$pair@QAXPAX@std@@@2@$0A@@std@@@std@@@std@@_N@std@@QAE@AAV?$_Tree_iterator@V?$_Tree_val@V?$_Tmap_traits@PAXPAXU?$less@PAX@std@@V?$allocator@U?$pair@QAXPAX@std@@@2@$0A@@std@@@std@@@1@$$QA_N@Z 004302e0 f i libohNetCore:Stack.obj
 0001:0002f360       ??$forward@AAV?$_Tree_iterator@V?$_Tree_val@V?$_Tmap_traits@VBrn@OpenHome@@PAVObjectType@Stack@Net@2@VBufferCmp@2@V?$allocator@U?$pair@$$CBVBrn@OpenHome@@PAVObjectType@Stack@Net@2@@std@@@std@@$0A@@std@@@std@@@std@@@std@@YGAAV?$_Tree_iterator@V?$_Tree_val@V?$_Tmap_traits@VBrn@OpenHome@@PAVObjectType@Stack@Net@2@VBufferCmp@2@V?$allocator@U?$pair@$$CBVBrn@OpenHome@@PAVObjectType@Stack@Net@2@@std@@@std@@$0A@@std@@@std@@@0@AAV10@@Z 00430360 f i libohNetCore:Stack.obj
 0001:0002f370       ??$?0AAV?$_Tree_iterator@V?$_Tree_val@V?$_Tmap_traits@VBrn@OpenHome@@PAVObjectType@Stack@Net@2@VBufferCmp@2@V?$allocator@U?$pair@$$CBVBrn@OpenHome@@PAVObjectType@Stack@Net@2@@std@@@std@@$0A@@std@@@std@@@std@@_N@?$_Pair_base@V?$_Tree_iterator@V?$_Tree_val@V?$_Tmap_traits@VBrn@OpenHome@@PAVObjectType@Stack@Net@2@VBufferCmp@2@V?$allocator@U?$pair@$$CBVBrn@OpenHome@@PAVObjectType@Stack@Net@2@@std@@@std@@$0A@@std@@@std@@@std@@_N@std@@QAE@AAV?$_Tree_iterator@V?$_Tree_val@V?$_Tmap_traits@VBrn@OpenHome@@PAVObjectType@Stack@Net@2@VBufferCmp@2@V?$allocator@U?$pair@$$CBVBrn@OpenHome@@PAVObjectType@Stack@Net@2@@std@@@std@@$0A@@std@@@std@@@1@$$QA_N@Z 00430370 f i libohNetCore:Stack.obj
 0001:0002f3f0       ??$construct@U?$pair@VBrn@OpenHome@@PAVObjectType@Stack@Net@2@@std@@@?$allocator@U?$pair@$$CBVBrn@OpenHome@@PAVObjectType@Stack@Net@2@@std@@@std@@QAEXPAU?$pair@$$CBVBrn@OpenHome@@PAVObjectType@Stack@Net@2@@1@$$QAU?$pair@VBrn@OpenHome@@PAVObjectType@Stack@Net@2@@1@@Z 004303f0 f i libohNetCore:Stack.obj
 0001:0002f490       ??$construct@U?$pair@PAXPAX@std@@@?$allocator@U?$pair@QAXPAX@std@@@std@@QAEXPAU?$pair@QAXPAX@1@$$QAU?$pair@PAXPAX@1@@Z 00430490 f i libohNetCore:Stack.obj
 0001:0002f530       ??$_Debug_range@PAPAVMListener@Stack@Net@OpenHome@@@std@@YGXPAPAVMListener@Stack@Net@OpenHome@@0PB_WI@Z 00430530 f i libohNetCore:Stack.obj
 0001:0002f580       ??$_Debug_pointer@PAVMListener@Stack@Net@OpenHome@@@std@@YGXPAPAVMListener@Stack@Net@OpenHome@@PB_WI@Z 00430580 f i libohNetCore:Stack.obj
 0001:0002f5b0       ??$?0VBrn@OpenHome@@PAVObjectType@Stack@Net@1@@?$pair@$$CBVBrn@OpenHome@@PAVObjectType@Stack@Net@2@@std@@QAE@$$QAU?$pair@VBrn@OpenHome@@PAVObjectType@Stack@Net@2@@1@@Z 004305b0 f i libohNetCore:Stack.obj
 0001:0002f5f0       ??$?0PAXPAX@?$pair@QAXPAX@std@@QAE@$$QAU?$pair@PAXPAX@1@@Z 004305f0 f i libohNetCore:Stack.obj
 0001:0002f630       ??$_Iter_cat@PAPAVMListener@Stack@Net@OpenHome@@@std@@YG?AUrandom_access_iterator_tag@0@ABQAPAVMListener@Stack@Net@OpenHome@@@Z 00430630 f i libohNetCore:Stack.obj
 0001:0002f690       ??$_Debug_range2@PAPAVMListener@Stack@Net@OpenHome@@@std@@YGXPAPAVMListener@Stack@Net@OpenHome@@0PB_WIUrandom_access_iterator_tag@0@@Z 00430690 f i libohNetCore:Stack.obj
 0001:0002f6f0       ??$forward@PAVObjectType@Stack@Net@OpenHome@@@std@@YG$$QAPAVObjectType@Stack@Net@OpenHome@@AAPAV1234@@Z 004306f0 f i libohNetCore:Stack.obj
 0001:0002f700       ??$?0VBrn@OpenHome@@PAVObjectType@Stack@Net@1@@?$_Pair_base@$$CBVBrn@OpenHome@@PAVObjectType@Stack@Net@2@@std@@QAE@$$QAVBrn@OpenHome@@$$QAPAVObjectType@Stack@Net@3@@Z 00430700 f i libohNetCore:Stack.obj
 0001:0002f780       ??$forward@PAX@std@@YG$$QAPAXAAPAX@Z 00430780 f i libohNetCore:Stack.obj
 0001:0002f790       ??$?0PAXPAX@?$_Pair_base@QAXPAX@std@@QAE@$$QAPAX0@Z 00430790 f i libohNetCore:Stack.obj
 0001:0002f7e0       ?IsHex@Ascii@OpenHome@@SG_ND@Z 004307e0 f   libohNetCore:Ascii.obj
 0001:0002f840       ?IsDigit@Ascii@OpenHome@@SG_ND@Z 00430840 f   libohNetCore:Ascii.obj
 0001:0002f880       ?IsWhitespace@Ascii@OpenHome@@SG_ND@Z 00430880 f   libohNetCore:Ascii.obj
 0001:0002f8a0       ?IsLineEnding@Ascii@OpenHome@@SG_ND@Z 004308a0 f   libohNetCore:Ascii.obj
 0001:0002f8e0       ?IsAlphabetic@Ascii@OpenHome@@SG_ND@Z 004308e0 f   libohNetCore:Ascii.obj
 0001:0002f930       ?IsUpperCase@Ascii@OpenHome@@SG_ND@Z 00430930 f   libohNetCore:Ascii.obj
 0001:0002f970       ?IsLowerCase@Ascii@OpenHome@@SG_ND@Z 00430970 f   libohNetCore:Ascii.obj
 0001:0002f9b0       ?ToLowerCase@Ascii@OpenHome@@SGDD@Z 004309b0 f   libohNetCore:Ascii.obj
 0001:0002fa00       ?ToUpperCase@Ascii@OpenHome@@SGDD@Z 00430a00 f   libohNetCore:Ascii.obj
 0001:0002fa50       ?CaseInsensitiveEquals@Ascii@OpenHome@@SG_NDD@Z 00430a50 f   libohNetCore:Ascii.obj
 0001:0002faa0       ?CaseInsensitiveEquals@Ascii@OpenHome@@SG_NABVBrx@2@0@Z 00430aa0 f   libohNetCore:Ascii.obj
 0001:0002fb30       ?RemoveTheFromStart@Ascii@OpenHome@@SG_NABVBrx@2@AAVBwx@2@@Z 00430b30 f   libohNetCore:Ascii.obj
 0001:0002fc70       ?HexChar@Ascii@OpenHome@@SGDI@Z 00430c70 f   libohNetCore:Ascii.obj
 0001:0002fd40       ?HexValue@Ascii@OpenHome@@SGID@Z 00430d40 f   libohNetCore:Ascii.obj
 0001:0002fe40       ?DecChar@Ascii@OpenHome@@SGDI@Z 00430e40 f   libohNetCore:Ascii.obj
 0001:0002ff00       ?DecValue@Ascii@OpenHome@@SGID@Z 00430f00 f   libohNetCore:Ascii.obj
 0001:0002ffd0       ?AppendDec@Ascii@OpenHome@@SGIAAVBwx@2@E@Z 00430fd0 f   libohNetCore:Ascii.obj
 0001:0002fff0       ?AppendDec@Ascii@OpenHome@@SGIAAVBwx@2@C@Z 00430ff0 f   libohNetCore:Ascii.obj
 0001:00030010       ?AppendDec@Ascii@OpenHome@@SGIAAVBwx@2@H@Z 00431010 f   libohNetCore:Ascii.obj
 0001:00030190       ?AppendDec@Ascii@OpenHome@@SGIAAVBwx@2@I@Z 00431190 f   libohNetCore:Ascii.obj
 0001:000302f0       ?AppendDec@Ascii@OpenHome@@SGIAAVBwx@2@_J@Z 004312f0 f   libohNetCore:Ascii.obj
 0001:000304a0       ?AppendDec@Ascii@OpenHome@@SGIAAVBwx@2@_K@Z 004314a0 f   libohNetCore:Ascii.obj
 0001:00030610       ?AppendHex@Ascii@OpenHome@@SGIAAVBwx@2@I@Z 00431610 f   libohNetCore:Ascii.obj
 0001:000306b0       ?AppendHex@Ascii@OpenHome@@SGIAAVBwx@2@E@Z 004316b0 f   libohNetCore:Ascii.obj
 0001:00030700       ?AppendHexPrefix@Ascii@OpenHome@@SGIAAVBwx@2@@Z 00431700 f   libohNetCore:Ascii.obj
 0001:00030720       ?Contains@Ascii@OpenHome@@SG_NABVBrx@2@D@Z 00431720 f   libohNetCore:Ascii.obj
 0001:00030780       ?ContainsWhitespace@Ascii@OpenHome@@SG_NABVBrx@2@@Z 00431780 f   libohNetCore:Ascii.obj
 0001:000307e0       ?IndexOf@Ascii@OpenHome@@SGIABVBrx@2@D@Z 004317e0 f   libohNetCore:Ascii.obj
 0001:00030870       ?Substitute@Ascii@OpenHome@@SGXAAVBwx@2@DD@Z 00431870 f   libohNetCore:Ascii.obj
 0001:00030900       ?Trim@Ascii@OpenHome@@SG?AVBrn@2@ABVBrx@2@@Z 00431900 f   libohNetCore:Ascii.obj
 0001:00030a00       ?Int@Ascii@OpenHome@@SGHABVBrx@2@@Z 00431a00 f   libohNetCore:Ascii.obj
 0001:00030c80       ?Uint@Ascii@OpenHome@@SGIABVBrx@2@@Z 00431c80 f   libohNetCore:Ascii.obj
 0001:00030e40       ?Int64@Ascii@OpenHome@@SG_JABVBrx@2@@Z 00431e40 f   libohNetCore:Ascii.obj
 0001:00031110       ?Uint64@Ascii@OpenHome@@SG_KABVBrx@2@@Z 00432110 f   libohNetCore:Ascii.obj
 0001:000312f0       ?UintHex@Ascii@OpenHome@@SGIABVBrx@2@@Z 004322f0 f   libohNetCore:Ascii.obj
 0001:000314b0       ??0ReaderAscii@OpenHome@@QAE@AAVIReader@1@@Z 004324b0 f   libohNetCore:Ascii.obj
 0001:00031530       ?ReadInt@ReaderAscii@OpenHome@@QAEHE@Z 00432530 f   libohNetCore:Ascii.obj
 0001:000315f0       ?ReadUint@ReaderAscii@OpenHome@@QAEIE@Z 004325f0 f   libohNetCore:Ascii.obj
 0001:000316b0       ?Read@ReaderAscii@OpenHome@@UAE?AVBrn@2@I@Z 004326b0 f   libohNetCore:Ascii.obj
 0001:00031710       ?ReadUntil@ReaderAscii@OpenHome@@UAE?AVBrn@2@E@Z 00432710 f   libohNetCore:Ascii.obj
 0001:00031780       ??0WriterAscii@OpenHome@@QAE@AAVIWriter@1@@Z 00432780 f   libohNetCore:Ascii.obj
 0001:00031800       ?WriteSpace@WriterAscii@OpenHome@@UAEXXZ 00432800 f   libohNetCore:Ascii.obj
 0001:00031840       ?WriteNewline@WriterAscii@OpenHome@@UAEXXZ 00432840 f   libohNetCore:Ascii.obj
 0001:00031880       ?WriteTab@WriterAscii@OpenHome@@UAEXXZ 00432880 f   libohNetCore:Ascii.obj
 0001:000318c0       ?WriteInt@WriterAscii@OpenHome@@UAEXH@Z 004328c0 f   libohNetCore:Ascii.obj
 0001:000319a0       ?WriteIntPadded@WriterAscii@OpenHome@@UAEXH@Z 004329a0 f   libohNetCore:Ascii.obj
 0001:00031aa0       ?WriteUint@WriterAscii@OpenHome@@UAEXI@Z 00432aa0 f   libohNetCore:Ascii.obj
 0001:00031b80       ?WriteUintPadded@WriterAscii@OpenHome@@UAEXI@Z 00432b80 f   libohNetCore:Ascii.obj
 0001:00031c80       ?WriteInt64@WriterAscii@OpenHome@@UAEX_J@Z 00432c80 f   libohNetCore:Ascii.obj
 0001:00031d60       ?WriteUint64@WriterAscii@OpenHome@@UAEX_K@Z 00432d60 f   libohNetCore:Ascii.obj
 0001:00031e40       ?WriteHex@WriterAscii@OpenHome@@UAEXI@Z 00432e40 f   libohNetCore:Ascii.obj
 0001:00031f30       ?WriteHex@WriterAscii@OpenHome@@UAEXE@Z 00432f30 f   libohNetCore:Ascii.obj
 0001:00032020       ?WriteHexPrefix@WriterAscii@OpenHome@@UAEXXZ 00433020 f   libohNetCore:Ascii.obj
 0001:00032060       ?Write@WriterAscii@OpenHome@@UAEXE@Z 00433060 f   libohNetCore:Ascii.obj
 0001:000320b0       ?Write@WriterAscii@OpenHome@@UAEXABVBrx@2@@Z 004330b0 f   libohNetCore:Ascii.obj
 0001:000320f0       ?WriteFlush@WriterAscii@OpenHome@@UAEXXZ 004330f0 f   libohNetCore:Ascii.obj
 0001:00032130       ?StreamWriteUint@Ascii@OpenHome@@SGXAAVIWriter@2@I@Z 00433130 f   libohNetCore:Ascii.obj
 0001:00032210       ?StreamWriteInt@Ascii@OpenHome@@SGXAAVIWriter@2@H@Z 00433210 f   libohNetCore:Ascii.obj
 0001:000322f0       ??0AsciiError@OpenHome@@QAE@PBDI@Z 004332f0 f i libohNetCore:Ascii.obj
 0001:00032330       ??1AsciiError@OpenHome@@QAE@XZ 00433330 f i libohNetCore:Ascii.obj
 0001:00032360       ?Append@Bwx@OpenHome@@QAEXE@Z 00433360 f i libohNetCore:Ascii.obj
 0001:00032390       ??1?$Bws@$09@OpenHome@@UAE@XZ 00433390 f i libohNetCore:Ascii.obj
 0001:000323c0       ??1?$Bws@$0BE@@OpenHome@@UAE@XZ 004333c0 f i libohNetCore:Ascii.obj
 0001:000323f0       ??0ReaderError@OpenHome@@QAE@PBDI@Z 004333f0 f i libohNetCore:Ascii.obj
 0001:00032430       ??1ReaderError@OpenHome@@QAE@XZ 00433430 f i libohNetCore:Ascii.obj
 0001:00032460       ??1IReader@OpenHome@@UAE@XZ 00433460 f i libohNetCore:Ascii.obj
 0001:00032480       ??_EIReader@OpenHome@@UAEPAXI@Z 00433480 f i libohNetCore:Ascii.obj
 0001:00032480       ??_GIReader@OpenHome@@UAEPAXI@Z 00433480 f i libohNetCore:Ascii.obj
 0001:000324c0       ??_GReaderAscii@OpenHome@@UAEPAXI@Z 004334c0 f i libohNetCore:Ascii.obj
 0001:000324c0       ??_EReaderAscii@OpenHome@@UAEPAXI@Z 004334c0 f i libohNetCore:Ascii.obj
 0001:00032500       ??0IReader@OpenHome@@QAE@XZ 00433500 f i libohNetCore:Ascii.obj
 0001:00032520       ??1ReaderAscii@OpenHome@@UAE@XZ 00433520 f i libohNetCore:Ascii.obj
 0001:00032550       ??1IWriterAscii@OpenHome@@UAE@XZ 00433550 f i libohNetCore:Ascii.obj
 0001:00032580       ??1IWriter@OpenHome@@UAE@XZ 00433580 f i libohNetCore:Ascii.obj
 0001:000325a0       ??_GIWriter@OpenHome@@UAEPAXI@Z 004335a0 f i libohNetCore:Ascii.obj
 0001:000325a0       ??_EIWriter@OpenHome@@UAEPAXI@Z 004335a0 f i libohNetCore:Ascii.obj
 0001:000325e0       ??_GIWriterAscii@OpenHome@@UAEPAXI@Z 004335e0 f i libohNetCore:Ascii.obj
 0001:000325e0       ??_EIWriterAscii@OpenHome@@UAEPAXI@Z 004335e0 f i libohNetCore:Ascii.obj
 0001:00032620       ??_EWriterAscii@OpenHome@@UAEPAXI@Z 00433620 f i libohNetCore:Ascii.obj
 0001:00032620       ??_GWriterAscii@OpenHome@@UAEPAXI@Z 00433620 f i libohNetCore:Ascii.obj
 0001:00032660       ??0IWriterAscii@OpenHome@@QAE@XZ 00433660 f i libohNetCore:Ascii.obj
 0001:00032690       ??1WriterAscii@OpenHome@@UAE@XZ 00433690 f i libohNetCore:Ascii.obj
 0001:000326c0       ??0IWriter@OpenHome@@QAE@XZ 004336c0 f i libohNetCore:Ascii.obj
 0001:000326e0       ??1?$Bws@$07@OpenHome@@UAE@XZ 004336e0 f i libohNetCore:Ascii.obj
 0001:00032710       ??1?$Bws@$01@OpenHome@@UAE@XZ 00433710 f i libohNetCore:Ascii.obj
 0001:00032740       ??0?$Bws@$09@OpenHome@@QAE@XZ 00433740 f i libohNetCore:Ascii.obj
 0001:00032780       ?Ptr@?$Bws@$09@OpenHome@@UBEPBEXZ 00433780 f i libohNetCore:Ascii.obj
 0001:000327a0       ??0?$Bws@$0BE@@OpenHome@@QAE@XZ 004337a0 f i libohNetCore:Ascii.obj
 0001:000327e0       ?Ptr@?$Bws@$0BE@@OpenHome@@UBEPBEXZ 004337e0 f i libohNetCore:Ascii.obj
 0001:00032800       ??0?$Bws@$07@OpenHome@@QAE@XZ 00433800 f i libohNetCore:Ascii.obj
 0001:00032840       ?Ptr@?$Bws@$07@OpenHome@@UBEPBEXZ 00433840 f i libohNetCore:Ascii.obj
 0001:00032860       ??0?$Bws@$01@OpenHome@@QAE@XZ 00433860 f i libohNetCore:Ascii.obj
 0001:000328a0       ?Ptr@?$Bws@$01@OpenHome@@UBEPBEXZ 004338a0 f i libohNetCore:Ascii.obj
 0001:000328c0       ??_G?$Bws@$09@OpenHome@@UAEPAXI@Z 004338c0 f i libohNetCore:Ascii.obj
 0001:000328c0       ??_E?$Bws@$09@OpenHome@@UAEPAXI@Z 004338c0 f i libohNetCore:Ascii.obj
 0001:00032900       ??_E?$Bws@$0BE@@OpenHome@@UAEPAXI@Z 00433900 f i libohNetCore:Ascii.obj
 0001:00032900       ??_G?$Bws@$0BE@@OpenHome@@UAEPAXI@Z 00433900 f i libohNetCore:Ascii.obj
 0001:00032940       ??_E?$Bws@$07@OpenHome@@UAEPAXI@Z 00433940 f i libohNetCore:Ascii.obj
 0001:00032940       ??_G?$Bws@$07@OpenHome@@UAEPAXI@Z 00433940 f i libohNetCore:Ascii.obj
 0001:00032980       ??_G?$Bws@$01@OpenHome@@UAEPAXI@Z 00433980 f i libohNetCore:Ascii.obj
 0001:00032980       ??_E?$Bws@$01@OpenHome@@UAEPAXI@Z 00433980 f i libohNetCore:Ascii.obj
 0001:000329c0       ?UpnpDomainToCanonical@Ssdp@Net@OpenHome@@SGXABVBrx@3@AAVBwx@3@@Z 004339c0 f   libohNetCore:Ssdp.obj
 0001:00032a50       ?CanonicalDomainToUpnp@Ssdp@Net@OpenHome@@SGXABVBrx@3@AAVBwx@3@@Z 00433a50 f   libohNetCore:Ssdp.obj
 0001:00032ae0       ?WriteRoot@Ssdp@Net@OpenHome@@SGXAAVIWriter@3@@Z 00433ae0 f   libohNetCore:Ssdp.obj
 0001:00032b10       ?WriteUuid@Ssdp@Net@OpenHome@@SGXAAVIWriter@3@ABVBrx@3@@Z 00433b10 f   libohNetCore:Ssdp.obj
 0001:00032b70       ?WriteDeviceType@Ssdp@Net@OpenHome@@SGXAAVIWriter@3@ABVBrx@3@1I@Z 00433b70 f   libohNetCore:Ssdp.obj
 0001:00032d00       ?WriteServiceType@Ssdp@Net@OpenHome@@SGXAAVIWriter@3@ABVBrx@3@1I@Z 00433d00 f   libohNetCore:Ssdp.obj
 0001:00032e90       ?WriteMethodNotify@Ssdp@Net@OpenHome@@SGXAAVIWriterHttpMethod@3@@Z 00433e90 f   libohNetCore:Ssdp.obj
 0001:00032ed0       ?WriteMethodMsearch@Ssdp@Net@OpenHome@@SGXAAVIWriterHttpMethod@3@@Z 00433ed0 f   libohNetCore:Ssdp.obj
 0001:00032f10       ?WriteHost@Ssdp@Net@OpenHome@@SGXAAVIWriterHttpHeader@3@@Z 00433f10 f   libohNetCore:Ssdp.obj
 0001:00032f40       ?WriteMan@Ssdp@Net@OpenHome@@SGXAAVIWriterHttpHeader@3@@Z 00433f40 f   libohNetCore:Ssdp.obj
 0001:00032f70       ?WriteMx@Ssdp@Net@OpenHome@@SGXAAVIWriterHttpHeader@3@I@Z 00433f70 f   libohNetCore:Ssdp.obj
 0001:00032fe0       ?WriteSearchTypeRoot@Ssdp@Net@OpenHome@@SGXAAVIWriterHttpHeader@3@@Z 00433fe0 f   libohNetCore:Ssdp.obj
 0001:00033040       ?WriteSearchTypeUuid@Ssdp@Net@OpenHome@@SGXAAVIWriterHttpHeader@3@ABVBrx@3@@Z 00434040 f   libohNetCore:Ssdp.obj
 0001:000330a0       ?WriteSearchTypeDeviceType@Ssdp@Net@OpenHome@@SGXAAVIWriterHttpHeader@3@ABVBrx@3@1I@Z 004340a0 f   libohNetCore:Ssdp.obj
 0001:00033110       ?WriteSearchTypeServiceType@Ssdp@Net@OpenHome@@SGXAAVIWriterHttpHeader@3@ABVBrx@3@1I@Z 00434110 f   libohNetCore:Ssdp.obj
 0001:00033180       ?WriteSearchTypeAll@Ssdp@Net@OpenHome@@SGXAAVIWriterHttpHeader@3@@Z 00434180 f   libohNetCore:Ssdp.obj
 0001:000331b0       ?WriteServer@Ssdp@Net@OpenHome@@SGXAAVIWriterHttpHeader@3@@Z 004341b0 f   libohNetCore:Ssdp.obj
 0001:000333d0       ?WriteMaxAge@Ssdp@Net@OpenHome@@SGXAAVIWriterHttpHeader@3@@Z 004343d0 f   libohNetCore:Ssdp.obj
 0001:000334b0       ?WriteLocation@Ssdp@Net@OpenHome@@SGXAAVIWriterHttpHeader@3@ABVBrx@3@@Z 004344b0 f   libohNetCore:Ssdp.obj
 0001:00033520       ?WriteSubTypeAlive@Ssdp@Net@OpenHome@@SGXAAVIWriterHttpHeader@3@@Z 00434520 f   libohNetCore:Ssdp.obj
 0001:00033550       ?WriteSubTypeByeBye@Ssdp@Net@OpenHome@@SGXAAVIWriterHttpHeader@3@@Z 00434550 f   libohNetCore:Ssdp.obj
 0001:00033580       ?WriteStatus@Ssdp@Net@OpenHome@@SGXAAVIWriterHttpStatus@3@@Z 00434580 f   libohNetCore:Ssdp.obj
 0001:000335b0       ?WriteExt@Ssdp@Net@OpenHome@@SGXAAVIWriterHttpHeader@3@@Z 004345b0 f   libohNetCore:Ssdp.obj
 0001:00033610       ?WriteNotificationTypeRoot@Ssdp@Net@OpenHome@@SGXAAVIWriterHttpHeader@3@@Z 00434610 f   libohNetCore:Ssdp.obj
 0001:00033670       ?WriteNotificationTypeUuid@Ssdp@Net@OpenHome@@SGXAAVIWriterHttpHeader@3@ABVBrx@3@@Z 00434670 f   libohNetCore:Ssdp.obj
 0001:000336d0       ?WriteNotificationTypeDeviceType@Ssdp@Net@OpenHome@@SGXAAVIWriterHttpHeader@3@ABVBrx@3@1I@Z 004346d0 f   libohNetCore:Ssdp.obj
 0001:00033740       ?WriteNotificationTypeServiceType@Ssdp@Net@OpenHome@@SGXAAVIWriterHttpHeader@3@ABVBrx@3@1I@Z 00434740 f   libohNetCore:Ssdp.obj
 0001:000337b0       ?WriteUsnRoot@Ssdp@Net@OpenHome@@SGXAAVIWriterHttpHeader@3@ABVBrx@3@@Z 004347b0 f   libohNetCore:Ssdp.obj
 0001:00033840       ?WriteUsnUuid@Ssdp@Net@OpenHome@@SGXAAVIWriterHttpHeader@3@ABVBrx@3@@Z 00434840 f   libohNetCore:Ssdp.obj
 0001:000338a0       ?WriteUsnDeviceType@Ssdp@Net@OpenHome@@SGXAAVIWriterHttpHeader@3@ABVBrx@3@1I1@Z 004348a0 f   libohNetCore:Ssdp.obj
 0001:00033930       ?WriteUsnServiceType@Ssdp@Net@OpenHome@@SGXAAVIWriterHttpHeader@3@ABVBrx@3@1I1@Z 00434930 f   libohNetCore:Ssdp.obj
 0001:000339c0       ?WriteConfigId@Ssdp@Net@OpenHome@@SGXAAVIWriterHttpHeader@3@I@Z 004349c0 f   libohNetCore:Ssdp.obj
 0001:00033a30       ?WriteSearchPort@Ssdp@Net@OpenHome@@SGXAAVIWriterHttpHeader@3@I@Z 00434a30 f   libohNetCore:Ssdp.obj
 0001:00033aa0       ?ParseUrnDevice@Ssdp@Net@OpenHome@@SG_NABVBrx@3@AAVBrn@3@1AAI@Z 00434aa0 f   libohNetCore:Ssdp.obj
 0001:00033ad0       ?ParseUrnService@Ssdp@Net@OpenHome@@SG_NABVBrx@3@AAVBrn@3@1AAI@Z 00434ad0 f   libohNetCore:Ssdp.obj
 0001:00033b00       ?ParseUrn@Ssdp@Net@OpenHome@@CG_NABVBrx@3@0AAVBrn@3@1AAI@Z 00434b00 f   libohNetCore:Ssdp.obj
 0001:00033d10       ?MaxAge@SsdpHeaderCacheControl@Net@OpenHome@@QBEIXZ 00434d10 f   libohNetCore:Ssdp.obj
 0001:00033d60       ?Recognise@SsdpHeaderCacheControl@Net@OpenHome@@EAE_NABVBrx@3@@Z 00434d60 f   libohNetCore:Ssdp.obj
 0001:00033d90       ?Process@SsdpHeaderCacheControl@Net@OpenHome@@EAEXABVBrx@3@@Z 00434d90 f   libohNetCore:Ssdp.obj
 0001:00033f80       ?Recognise@SsdpHeaderServer@Net@OpenHome@@EAE_NABVBrx@3@@Z 00434f80 f   libohNetCore:Ssdp.obj
 0001:00033fb0       ?Process@SsdpHeaderServer@Net@OpenHome@@EAEXABVBrx@3@@Z 00434fb0 f   libohNetCore:Ssdp.obj
 0001:00033fe0       ?Target@SsdpHeaderSt@Net@OpenHome@@QBE?AW4ESsdpTarget@23@XZ 00434fe0 f   libohNetCore:Ssdp.obj
 0001:00034000       ?Uuid@SsdpHeaderSt@Net@OpenHome@@QBEABVBrx@3@XZ 00435000 f   libohNetCore:Ssdp.obj
 0001:00034020       ?Domain@SsdpHeaderSt@Net@OpenHome@@QBEABVBrx@3@XZ 00435020 f   libohNetCore:Ssdp.obj
 0001:00034040       ?Type@SsdpHeaderSt@Net@OpenHome@@QBEABVBrx@3@XZ 00435040 f   libohNetCore:Ssdp.obj
 0001:00034060       ?Version@SsdpHeaderSt@Net@OpenHome@@QBE?BIXZ 00435060 f   libohNetCore:Ssdp.obj
 0001:00034080       ?Recognise@SsdpHeaderSt@Net@OpenHome@@EAE_NABVBrx@3@@Z 00435080 f   libohNetCore:Ssdp.obj
 0001:000340b0       ?Process@SsdpHeaderSt@Net@OpenHome@@EAEXABVBrx@3@@Z 004350b0 f   libohNetCore:Ssdp.obj
 0001:000346b0       ?Target@SsdpHeaderNt@Net@OpenHome@@QBE?AW4ESsdpTarget@23@XZ 004356b0 f   libohNetCore:Ssdp.obj
 0001:000346d0       ?Uuid@SsdpHeaderNt@Net@OpenHome@@QBEABVBrx@3@XZ 004356d0 f   libohNetCore:Ssdp.obj
 0001:000346f0       ?Domain@SsdpHeaderNt@Net@OpenHome@@QBEABVBrx@3@XZ 004356f0 f   libohNetCore:Ssdp.obj
 0001:00034710       ?Type@SsdpHeaderNt@Net@OpenHome@@QBEABVBrx@3@XZ 00435710 f   libohNetCore:Ssdp.obj
 0001:00034730       ?Version@SsdpHeaderNt@Net@OpenHome@@QBE?BIXZ 00435730 f   libohNetCore:Ssdp.obj
 0001:00034750       ?Recognise@SsdpHeaderNt@Net@OpenHome@@EAE_NABVBrx@3@@Z 00435750 f   libohNetCore:Ssdp.obj
 0001:00034780       ?Process@SsdpHeaderNt@Net@OpenHome@@EAEXABVBrx@3@@Z 00435780 f   libohNetCore:Ssdp.obj
 0001:00034d80       ?Target@SsdpHeaderUsn@Net@OpenHome@@QBE?AW4ESsdpTarget@23@XZ 00435d80 f   libohNetCore:Ssdp.obj
 0001:00034da0       ?Uuid@SsdpHeaderUsn@Net@OpenHome@@QBEABVBrx@3@XZ 00435da0 f   libohNetCore:Ssdp.obj
 0001:00034dc0       ?Domain@SsdpHeaderUsn@Net@OpenHome@@QBEABVBrx@3@XZ 00435dc0 f   libohNetCore:Ssdp.obj
 0001:00034de0       ?Type@SsdpHeaderUsn@Net@OpenHome@@QBEABVBrx@3@XZ 00435de0 f   libohNetCore:Ssdp.obj
 0001:00034e00       ?Version@SsdpHeaderUsn@Net@OpenHome@@QBE?BIXZ 00435e00 f   libohNetCore:Ssdp.obj
 0001:00034e20       ?Recognise@SsdpHeaderUsn@Net@OpenHome@@EAE_NABVBrx@3@@Z 00435e20 f   libohNetCore:Ssdp.obj
 0001:00034e50       ?Process@SsdpHeaderUsn@Net@OpenHome@@EAEXABVBrx@3@@Z 00435e50 f   libohNetCore:Ssdp.obj
 0001:00035680       ?Recognise@SsdpHeaderHost@Net@OpenHome@@EAE_NABVBrx@3@@Z 00436680 f   libohNetCore:Ssdp.obj
 0001:000356b0       ?Process@SsdpHeaderHost@Net@OpenHome@@EAEXABVBrx@3@@Z 004366b0 f   libohNetCore:Ssdp.obj
 0001:000357a0       ?Recognise@SsdpHeaderMan@Net@OpenHome@@EAE_NABVBrx@3@@Z 004367a0 f   libohNetCore:Ssdp.obj
 0001:000357d0       ?Process@SsdpHeaderMan@Net@OpenHome@@EAEXABVBrx@3@@Z 004367d0 f   libohNetCore:Ssdp.obj
 0001:000358b0       ?Mx@SsdpHeaderMx@Net@OpenHome@@QBEIXZ 004368b0 f   libohNetCore:Ssdp.obj
 0001:00035900       ?Recognise@SsdpHeaderMx@Net@OpenHome@@EAE_NABVBrx@3@@Z 00436900 f   libohNetCore:Ssdp.obj
 0001:00035930       ?Process@SsdpHeaderMx@Net@OpenHome@@EAEXABVBrx@3@@Z 00436930 f   libohNetCore:Ssdp.obj
 0001:00035a20       ?Alive@SsdpHeaderNts@Net@OpenHome@@QBE_NXZ 00436a20 f   libohNetCore:Ssdp.obj
 0001:00035a40       ?Recognise@SsdpHeaderNts@Net@OpenHome@@EAE_NABVBrx@3@@Z 00436a40 f   libohNetCore:Ssdp.obj
 0001:00035a70       ?Process@SsdpHeaderNts@Net@OpenHome@@EAEXABVBrx@3@@Z 00436a70 f   libohNetCore:Ssdp.obj
 0001:00035b70       ?Recognise@SsdpHeaderExt@Net@OpenHome@@EAE_NABVBrx@3@@Z 00436b70 f   libohNetCore:Ssdp.obj
 0001:00035ba0       ?Process@SsdpHeaderExt@Net@OpenHome@@EAEXABVBrx@3@@Z 00436ba0 f   libohNetCore:Ssdp.obj
 0001:00035c80       ??0SsdpWriterMsearchRequest@Net@OpenHome@@QAE@AAVIWriter@2@@Z 00436c80 f   libohNetCore:Ssdp.obj
 0001:00035cb0       ?MsearchRoot@SsdpWriterMsearchRequest@Net@OpenHome@@QAEXI@Z 00436cb0 f   libohNetCore:Ssdp.obj
 0001:00035d00       ?MsearchUuid@SsdpWriterMsearchRequest@Net@OpenHome@@QAEXABVBrx@3@I@Z 00436d00 f   libohNetCore:Ssdp.obj
 0001:00035d50       ?MsearchDeviceType@SsdpWriterMsearchRequest@Net@OpenHome@@QAEXABVBrx@3@0II@Z 00436d50 f   libohNetCore:Ssdp.obj
 0001:00035db0       ?MsearchServiceType@SsdpWriterMsearchRequest@Net@OpenHome@@QAEXABVBrx@3@0II@Z 00436db0 f   libohNetCore:Ssdp.obj
 0001:00035e10       ?MsearchAll@SsdpWriterMsearchRequest@Net@OpenHome@@QAEXI@Z 00436e10 f   libohNetCore:Ssdp.obj
 0001:00035e60       ?Msearch@SsdpWriterMsearchRequest@Net@OpenHome@@AAEXI@Z 00436e60 f   libohNetCore:Ssdp.obj
 0001:00035f00       ??1?$Bws@$0EA@@OpenHome@@UAE@XZ 00436f00 f i libohNetCore:Ssdp.obj
 0001:00035f30       ??1Parser@OpenHome@@QAE@XZ 00436f30 f i libohNetCore:Ssdp.obj
 0001:00035f60       ??0HttpError@OpenHome@@QAE@PBDI@Z 00436f60 f i libohNetCore:Ssdp.obj
 0001:00035fa0       ??1HttpError@OpenHome@@QAE@XZ 00436fa0 f i libohNetCore:Ssdp.obj
 0001:00035fd0       ??0?$Bws@$0EA@@OpenHome@@QAE@XZ 00436fd0 f i libohNetCore:Ssdp.obj
 0001:00036010       ?Ptr@?$Bws@$0EA@@OpenHome@@UBEPBEXZ 00437010 f i libohNetCore:Ssdp.obj
 0001:00036030       ??_G?$Bws@$0EA@@OpenHome@@UAEPAXI@Z 00437030 f i libohNetCore:Ssdp.obj
 0001:00036030       ??_E?$Bws@$0EA@@OpenHome@@UAEPAXI@Z 00437030 f i libohNetCore:Ssdp.obj
 0001:00036070       ??0CpiDevice@Net@OpenHome@@QAE@ABVBrx@2@AAVICpiProtocol@12@AAVICpiDeviceObserver@12@PAX@Z 00437070 f   libohNetCore:CpiDevice.obj
 0001:00036140       ?Udn@CpiDevice@Net@OpenHome@@QBEABVBrx@3@XZ 00437140 f   libohNetCore:CpiDevice.obj
 0001:00036160       ?UdnAsCString@CpiDevice@Net@OpenHome@@QBEPBDXZ 00437160 f   libohNetCore:CpiDevice.obj
 0001:00036190       ??8CpiDevice@Net@OpenHome@@QBE_NABV012@@Z 00437190 f   libohNetCore:CpiDevice.obj
 0001:000361c0       ??9CpiDevice@Net@OpenHome@@QBE_NABV012@@Z 004371c0 f   libohNetCore:CpiDevice.obj
 0001:000361f0       ?OwnerData@CpiDevice@Net@OpenHome@@QAEPAXXZ 004371f0 f   libohNetCore:CpiDevice.obj
 0001:00036210       ?AddRef@CpiDevice@Net@OpenHome@@QAEXXZ 00437210 f   libohNetCore:CpiDevice.obj
 0001:00036260       ?RemoveRef@CpiDevice@Net@OpenHome@@QAEXXZ 00437260 f   libohNetCore:CpiDevice.obj
 0001:00036330       ?GetAttribute@CpiDevice@Net@OpenHome@@UBE_NPBDAAVBrh@3@@Z 00437330 f   libohNetCore:CpiDevice.obj
 0001:00036380       ?InvokeAction@CpiDevice@Net@OpenHome@@UAEXAAVInvocation@23@@Z 00437380 f   libohNetCore:CpiDevice.obj
 0001:000363c0       ?Subscribe@CpiDevice@Net@OpenHome@@UAEIAAVCpiSubscription@23@ABVUri@3@@Z 004373c0 f   libohNetCore:CpiDevice.obj
 0001:00036410       ?Renew@CpiDevice@Net@OpenHome@@UAEIAAVCpiSubscription@23@@Z 00437410 f   libohNetCore:CpiDevice.obj
 0001:00036450       ?Unsubscribe@CpiDevice@Net@OpenHome@@UAEXAAVCpiSubscription@23@ABVBrx@3@@Z 00437450 f   libohNetCore:CpiDevice.obj
 0001:000364a0       ?NotifyRemovedBeforeReady@CpiDevice@Net@OpenHome@@UAEXXZ 004374a0 f   libohNetCore:CpiDevice.obj
 0001:000364e0       ?SetReady@CpiDevice@Net@OpenHome@@QAEXXZ 004374e0 f   libohNetCore:CpiDevice.obj
 0001:00036500       ?IsReady@CpiDevice@Net@OpenHome@@QBE_NXZ 00437500 f   libohNetCore:CpiDevice.obj
 0001:00036520       ?SetExpired@CpiDevice@Net@OpenHome@@QAEX_N@Z 00437520 f   libohNetCore:CpiDevice.obj
 0001:00036540       ?HasExpired@CpiDevice@Net@OpenHome@@QBE_NXZ 00437540 f   libohNetCore:CpiDevice.obj
 0001:00036560       ??1CpiDevice@Net@OpenHome@@EAE@XZ 00437560 f   libohNetCore:CpiDevice.obj
 0001:00036660       ?Refresh@CpiDeviceList@Net@OpenHome@@UAEXXZ 00437660 f   libohNetCore:CpiDevice.obj
 0001:00036680       ?RefDevice@CpiDeviceList@Net@OpenHome@@QAEPAVCpiDevice@23@ABVBrx@3@@Z 00437680 f   libohNetCore:CpiDevice.obj
 0001:00036740       ?RefDeviceLocked@CpiDeviceList@Net@OpenHome@@IAEPAVCpiDevice@23@ABVBrx@3@@Z 00437740 f   libohNetCore:CpiDevice.obj
 0001:000368a0       ??0CpiDeviceList@Net@OpenHome@@IAE@VFunctorCpiDevice@12@0@Z 004378a0 f   libohNetCore:CpiDevice.obj
 0001:00036a10       ??1CpiDeviceList@Net@OpenHome@@UAE@XZ 00437a10 f   libohNetCore:CpiDevice.obj
 0001:00036b30       ?Add@CpiDeviceList@Net@OpenHome@@IAEXPAVCpiDevice@23@@Z 00437b30 f   libohNetCore:CpiDevice.obj
 0001:00036eb0       ?Remove@CpiDeviceList@Net@OpenHome@@MAEXABVBrx@3@@Z 00437eb0 f   libohNetCore:CpiDevice.obj
 0001:00036f00       ?IsDeviceReady@CpiDeviceList@Net@OpenHome@@MAE_NAAVCpiDevice@23@@Z 00437f00 f   libohNetCore:CpiDevice.obj
 0001:00036f20       ?StartRefresh@CpiDeviceList@Net@OpenHome@@IAE_NXZ 00437f20 f   libohNetCore:CpiDevice.obj
 0001:00036f70       ?RefreshComplete@CpiDeviceList@Net@OpenHome@@IAEXXZ 00437f70 f   libohNetCore:CpiDevice.obj
 0001:00036fc0       ?SetDeviceReady@CpiDeviceList@Net@OpenHome@@IAEXAAVCpiDevice@23@@Z 00437fc0 f   libohNetCore:CpiDevice.obj
 0001:00037020       ?ClearMap@CpiDeviceList@Net@OpenHome@@KGXAAV?$map@VBrn@OpenHome@@PAVCpiDevice@Net@2@VBufferCmp@2@V?$allocator@U?$pair@$$CBVBrn@OpenHome@@PAVCpiDevice@Net@2@@std@@@std@@@std@@@Z 00438020 f   libohNetCore:CpiDevice.obj
 0001:00037140       ?AddRef@CpiDeviceList@Net@OpenHome@@EAEXXZ 00438140 f   libohNetCore:CpiDevice.obj
 0001:00037190       ?RemoveRef@CpiDeviceList@Net@OpenHome@@EAEXXZ 00438190 f   libohNetCore:CpiDevice.obj
 0001:00037200       ?NotifyAdded@CpiDeviceList@Net@OpenHome@@EAEXAAVCpiDevice@23@@Z 00438200 f   libohNetCore:CpiDevice.obj
 0001:000372c0       ?NotifyRemoved@CpiDeviceList@Net@OpenHome@@EAEXABVBrx@3@@Z 004382c0 f   libohNetCore:CpiDevice.obj
 0001:000372f0       ?DoRemove@CpiDeviceList@Net@OpenHome@@AAEXABVBrx@3@@Z 004382f0 f   libohNetCore:CpiDevice.obj
 0001:00037580       ?NotifyRefreshed@CpiDeviceList@Net@OpenHome@@EAEXXZ 00438580 f   libohNetCore:CpiDevice.obj
 0001:00037810       ??0CpiDeviceListUpdater@Net@OpenHome@@QAE@XZ 00438810 f   libohNetCore:CpiDevice.obj
 0001:000378b0       ??1CpiDeviceListUpdater@Net@OpenHome@@UAE@XZ 004388b0 f   libohNetCore:CpiDevice.obj
 0001:000379d0       ?QueueAdded@CpiDeviceListUpdater@Net@OpenHome@@SGXAAVIDeviceListUpdater@23@AAVCpiDevice@23@@Z 004389d0 f   libohNetCore:CpiDevice.obj
 0001:00037a80       ?QueueRemoved@CpiDeviceListUpdater@Net@OpenHome@@SGXAAVIDeviceListUpdater@23@ABVBrx@3@@Z 00438a80 f   libohNetCore:CpiDevice.obj
 0001:00037b30       ?QueueRefreshed@CpiDeviceListUpdater@Net@OpenHome@@SGXAAVIDeviceListUpdater@23@@Z 00438b30 f   libohNetCore:CpiDevice.obj
 0001:00037bd0       ?Queue@CpiDeviceListUpdater@Net@OpenHome@@CGXPAVUpdateBase@123@@Z 00438bd0 f   libohNetCore:CpiDevice.obj
 0001:00037c20       ?Run@CpiDeviceListUpdater@Net@OpenHome@@EAEXXZ 00438c20 f   libohNetCore:CpiDevice.obj
 0001:00037ce0       ??1UpdateBase@CpiDeviceListUpdater@Net@OpenHome@@UAE@XZ 00438ce0 f   libohNetCore:CpiDevice.obj
 0001:00037d30       ??0UpdateBase@CpiDeviceListUpdater@Net@OpenHome@@IAE@AAVIDeviceListUpdater@23@@Z 00438d30 f   libohNetCore:CpiDevice.obj
 0001:00037d90       ??0UpdateAdded@CpiDeviceListUpdater@Net@OpenHome@@QAE@AAVIDeviceListUpdater@23@AAVCpiDevice@23@@Z 00438d90 f   libohNetCore:CpiDevice.obj
 0001:00037e20       ??1UpdateAdded@CpiDeviceListUpdater@Net@OpenHome@@UAE@XZ 00438e20 f   libohNetCore:CpiDevice.obj
 0001:00037e90       ?Update@UpdateAdded@CpiDeviceListUpdater@Net@OpenHome@@EAEXXZ 00438e90 f   libohNetCore:CpiDevice.obj
 0001:00037ee0       ??0UpdateRemoved@CpiDeviceListUpdater@Net@OpenHome@@QAE@AAVIDeviceListUpdater@23@ABVBrx@3@@Z 00438ee0 f   libohNetCore:CpiDevice.obj
 0001:00037f60       ?Update@UpdateRemoved@CpiDeviceListUpdater@Net@OpenHome@@EAEXXZ 00438f60 f   libohNetCore:CpiDevice.obj
 0001:00037fb0       ??0UpdateRefresh@CpiDeviceListUpdater@Net@OpenHome@@QAE@AAVIDeviceListUpdater@23@@Z 00438fb0 f   libohNetCore:CpiDevice.obj
 0001:00037ff0       ?Update@UpdateRefresh@CpiDeviceListUpdater@Net@OpenHome@@EAEXXZ 00438ff0 f   libohNetCore:CpiDevice.obj
 0001:00038030       ??_ECpiDevice@Net@OpenHome@@EAEPAXI@Z 00439030 f i libohNetCore:CpiDevice.obj
 0001:00038030       ??_GCpiDevice@Net@OpenHome@@EAEPAXI@Z 00439030 f i libohNetCore:CpiDevice.obj
 0001:00038070       ??0ICpiProtocol@Net@OpenHome@@QAE@XZ 00439070 f i libohNetCore:CpiDevice.obj
 0001:000380a0       ??0IInvocable@Net@OpenHome@@QAE@XZ 004390a0 f i libohNetCore:CpiDevice.obj
 0001:000380c0       ?CString@Brhz@OpenHome@@QBEPBDXZ 004390c0 f i libohNetCore:CpiDevice.obj
 0001:000380e0       ??1?$_Tree_iterator@V?$_Tree_val@V?$_Tmap_traits@VBrn@OpenHome@@PAVCpiDevice@Net@2@VBufferCmp@2@V?$allocator@U?$pair@$$CBVBrn@OpenHome@@PAVCpiDevice@Net@2@@std@@@std@@$0A@@std@@@std@@@std@@QAE@XZ 004390e0 f i libohNetCore:CpiDevice.obj
 0001:00038110       ??1?$_Tree_const_iterator@V?$_Tree_val@V?$_Tmap_traits@VBrn@OpenHome@@PAVCpiDevice@Net@2@VBufferCmp@2@V?$allocator@U?$pair@$$CBVBrn@OpenHome@@PAVCpiDevice@Net@2@@std@@@std@@$0A@@std@@@std@@@std@@QAE@XZ 00439110 f i libohNetCore:CpiDevice.obj
 0001:00038140       ??1?$_Tree_unchecked_const_iterator@V?$_Tree_val@V?$_Tmap_traits@VBrn@OpenHome@@PAVCpiDevice@Net@2@VBufferCmp@2@V?$allocator@U?$pair@$$CBVBrn@OpenHome@@PAVCpiDevice@Net@2@@std@@@std@@$0A@@std@@@std@@U_Iterator_base12@2@@std@@QAE@XZ 00439140 f i libohNetCore:CpiDevice.obj
 0001:00038170       ??1?$_Iterator012@Ubidirectional_iterator_tag@std@@U?$pair@$$CBVBrn@OpenHome@@PAVCpiDevice@Net@2@@2@HPBU32@ABU32@U_Iterator_base12@2@@std@@QAE@XZ 00439170 f i libohNetCore:CpiDevice.obj
 0001:000381a0       ??BFunctorCpiDevice@Net@OpenHome@@QBE_NXZ 004391a0 f i libohNetCore:CpiDevice.obj
 0001:000381e0       ??_ECpiDeviceList@Net@OpenHome@@UAEPAXI@Z 004391e0 f i libohNetCore:CpiDevice.obj
 0001:000381e0       ??_GCpiDeviceList@Net@OpenHome@@UAEPAXI@Z 004391e0 f i libohNetCore:CpiDevice.obj
 0001:00038220       ??0IDeviceRemover@Net@OpenHome@@QAE@XZ 00439220 f i libohNetCore:CpiDevice.obj
 0001:00038240       ??0IDeviceListUpdater@Net@OpenHome@@QAE@XZ 00439240 f i libohNetCore:CpiDevice.obj
 0001:00038260       ??1?$map@VBrn@OpenHome@@PAVCpiDevice@Net@2@VBufferCmp@2@V?$allocator@U?$pair@$$CBVBrn@OpenHome@@PAVCpiDevice@Net@2@@std@@@std@@@std@@QAE@XZ 00439260 f i libohNetCore:CpiDevice.obj
 0001:00038290       ??1?$pair@VBrn@OpenHome@@PAVCpiDevice@Net@2@@std@@QAE@XZ 00439290 f i libohNetCore:CpiDevice.obj
 0001:000382c0       ??1?$pair@V?$_Tree_iterator@V?$_Tree_val@V?$_Tmap_traits@VBrn@OpenHome@@PAVCpiDevice@Net@2@VBufferCmp@2@V?$allocator@U?$pair@$$CBVBrn@OpenHome@@PAVCpiDevice@Net@2@@std@@@std@@$0A@@std@@@std@@@std@@_N@std@@QAE@XZ 004392c0 f i libohNetCore:CpiDevice.obj
 0001:000382f0       ??1?$_Pair_base@VBrn@OpenHome@@PAVCpiDevice@Net@2@@std@@QAE@XZ 004392f0 f i libohNetCore:CpiDevice.obj
 0001:00038320       ??1?$_Pair_base@V?$_Tree_iterator@V?$_Tree_val@V?$_Tmap_traits@VBrn@OpenHome@@PAVCpiDevice@Net@2@VBufferCmp@2@V?$allocator@U?$pair@$$CBVBrn@OpenHome@@PAVCpiDevice@Net@2@@std@@@std@@$0A@@std@@@std@@@std@@_N@std@@QAE@XZ 00439320 f i libohNetCore:CpiDevice.obj
 0001:00038350       ??RFunctorCpiDevice@Net@OpenHome@@QBEXAAVCpiDevice@12@@Z 00439350 f i libohNetCore:CpiDevice.obj
 0001:00038390       ??0?$_Tree_const_iterator@V?$_Tree_val@V?$_Tmap_traits@VBrn@OpenHome@@PAVCpiDevice@Net@2@VBufferCmp@2@V?$allocator@U?$pair@$$CBVBrn@OpenHome@@PAVCpiDevice@Net@2@@std@@@std@@$0A@@std@@@std@@@std@@QAE@ABV01@@Z 00439390 f i libohNetCore:CpiDevice.obj
 0001:000383c0       ??0?$_Tree_unchecked_const_iterator@V?$_Tree_val@V?$_Tmap_traits@VBrn@OpenHome@@PAVCpiDevice@Net@2@VBufferCmp@2@V?$allocator@U?$pair@$$CBVBrn@OpenHome@@PAVCpiDevice@Net@2@@std@@@std@@$0A@@std@@@std@@U_Iterator_base12@2@@std@@QAE@ABV01@@Z 004393c0 f i libohNetCore:CpiDevice.obj
 0001:00038400       ??0?$_Iterator012@Ubidirectional_iterator_tag@std@@U?$pair@$$CBVBrn@OpenHome@@PAVCpiDevice@Net@2@@2@HPBU32@ABU32@U_Iterator_base12@2@@std@@QAE@ABU01@@Z 00439400 f i libohNetCore:CpiDevice.obj
 0001:00038430       ??4?$_Tree_iterator@V?$_Tree_val@V?$_Tmap_traits@VBrn@OpenHome@@PAVCpiDevice@Net@2@VBufferCmp@2@V?$allocator@U?$pair@$$CBVBrn@OpenHome@@PAVCpiDevice@Net@2@@std@@@std@@$0A@@std@@@std@@@std@@QAEAAV01@ABV01@@Z 00439430 f i libohNetCore:CpiDevice.obj
 0001:00038460       ??4?$_Tree_const_iterator@V?$_Tree_val@V?$_Tmap_traits@VBrn@OpenHome@@PAVCpiDevice@Net@2@VBufferCmp@2@V?$allocator@U?$pair@$$CBVBrn@OpenHome@@PAVCpiDevice@Net@2@@std@@@std@@$0A@@std@@@std@@@std@@QAEAAV01@ABV01@@Z 00439460 f i libohNetCore:CpiDevice.obj
 0001:00038490       ??4?$_Tree_unchecked_const_iterator@V?$_Tree_val@V?$_Tmap_traits@VBrn@OpenHome@@PAVCpiDevice@Net@2@VBufferCmp@2@V?$allocator@U?$pair@$$CBVBrn@OpenHome@@PAVCpiDevice@Net@2@@std@@@std@@$0A@@std@@@std@@U_Iterator_base12@2@@std@@QAEAAV01@ABV01@@Z 00439490 f i libohNetCore:CpiDevice.obj
 0001:000384d0       ??4?$_Iterator012@Ubidirectional_iterator_tag@std@@U?$pair@$$CBVBrn@OpenHome@@PAVCpiDevice@Net@2@@2@HPBU32@ABU32@U_Iterator_base12@2@@std@@QAEAAU01@ABU01@@Z 004394d0 f i libohNetCore:CpiDevice.obj
 0001:00038500       ??_GCpiDeviceListUpdater@Net@OpenHome@@UAEPAXI@Z 00439500 f i libohNetCore:CpiDevice.obj
 0001:00038500       ??_ECpiDeviceListUpdater@Net@OpenHome@@UAEPAXI@Z 00439500 f i libohNetCore:CpiDevice.obj
 0001:00038540       ??_EUpdateBase@CpiDeviceListUpdater@Net@OpenHome@@UAEPAXI@Z 00439540 f i libohNetCore:CpiDevice.obj
 0001:00038540       ??_GUpdateBase@CpiDeviceListUpdater@Net@OpenHome@@UAEPAXI@Z 00439540 f i libohNetCore:CpiDevice.obj
 0001:00038580       ??_EUpdateAdded@CpiDeviceListUpdater@Net@OpenHome@@UAEPAXI@Z 00439580 f i libohNetCore:CpiDevice.obj
 0001:00038580       ??_GUpdateAdded@CpiDeviceListUpdater@Net@OpenHome@@UAEPAXI@Z 00439580 f i libohNetCore:CpiDevice.obj
 0001:000385c0       ??_EUpdateRemoved@CpiDeviceListUpdater@Net@OpenHome@@UAEPAXI@Z 004395c0 f i libohNetCore:CpiDevice.obj
 0001:000385c0       ??_GUpdateRemoved@CpiDeviceListUpdater@Net@OpenHome@@UAEPAXI@Z 004395c0 f i libohNetCore:CpiDevice.obj
 0001:00038600       ??1UpdateRemoved@CpiDeviceListUpdater@Net@OpenHome@@UAE@XZ 00439600 f i libohNetCore:CpiDevice.obj
 0001:00038670       ??_EUpdateRefresh@CpiDeviceListUpdater@Net@OpenHome@@UAEPAXI@Z 00439670 f i libohNetCore:CpiDevice.obj
 0001:00038670       ??_GUpdateRefresh@CpiDeviceListUpdater@Net@OpenHome@@UAEPAXI@Z 00439670 f i libohNetCore:CpiDevice.obj
 0001:000386b0       ??1UpdateRefresh@CpiDeviceListUpdater@Net@OpenHome@@UAE@XZ 004396b0 f i libohNetCore:CpiDevice.obj
 0001:000386e0       ??0?$map@VBrn@OpenHome@@PAVCpiDevice@Net@2@VBufferCmp@2@V?$allocator@U?$pair@$$CBVBrn@OpenHome@@PAVCpiDevice@Net@2@@std@@@std@@@std@@QAE@XZ 004396e0 f i libohNetCore:CpiDevice.obj
 0001:00038730       ??1?$_Tree@V?$_Tmap_traits@VBrn@OpenHome@@PAVCpiDevice@Net@2@VBufferCmp@2@V?$allocator@U?$pair@$$CBVBrn@OpenHome@@PAVCpiDevice@Net@2@@std@@@std@@$0A@@std@@@std@@QAE@XZ 00439730 f i libohNetCore:CpiDevice.obj
 0001:000387a0       ?begin@?$_Tree@V?$_Tmap_traits@VBrn@OpenHome@@PAVCpiDevice@Net@2@VBufferCmp@2@V?$allocator@U?$pair@$$CBVBrn@OpenHome@@PAVCpiDevice@Net@2@@std@@@std@@$0A@@std@@@std@@QAE?AV?$_Tree_iterator@V?$_Tree_val@V?$_Tmap_traits@VBrn@OpenHome@@PAVCpiDevice@Net@2@VBufferCmp@2@V?$allocator@U?$pair@$$CBVBrn@OpenHome@@PAVCpiDevice@Net@2@@std@@@std@@$0A@@std@@@std@@@2@XZ 004397a0 f i libohNetCore:CpiDevice.obj
 0001:00038800       ?end@?$_Tree@V?$_Tmap_traits@VBrn@OpenHome@@PAVCpiDevice@Net@2@VBufferCmp@2@V?$allocator@U?$pair@$$CBVBrn@OpenHome@@PAVCpiDevice@Net@2@@std@@@std@@$0A@@std@@@std@@QAE?AV?$_Tree_iterator@V?$_Tree_val@V?$_Tmap_traits@VBrn@OpenHome@@PAVCpiDevice@Net@2@VBufferCmp@2@V?$allocator@U?$pair@$$CBVBrn@OpenHome@@PAVCpiDevice@Net@2@@std@@@std@@$0A@@std@@@std@@@2@XZ 00439800 f i libohNetCore:CpiDevice.obj
 0001:00038850       ?erase@?$_Tree@V?$_Tmap_traits@VBrn@OpenHome@@PAVCpiDevice@Net@2@VBufferCmp@2@V?$allocator@U?$pair@$$CBVBrn@OpenHome@@PAVCpiDevice@Net@2@@std@@@std@@$0A@@std@@@std@@QAE?AV?$_Tree_iterator@V?$_Tree_val@V?$_Tmap_traits@VBrn@OpenHome@@PAVCpiDevice@Net@2@VBufferCmp@2@V?$allocator@U?$pair@$$CBVBrn@OpenHome@@PAVCpiDevice@Net@2@@std@@@std@@$0A@@std@@@std@@@2@V?$_Tree_const_iterator@V?$_Tree_val@V?$_Tmap_traits@VBrn@OpenHome@@PAVCpiDevice@Net@2@VBufferCmp@2@V?$allocator@U?$pair@$$CBVBrn@OpenHome@@PAVCpiDevice@Net@2@@std@@@std@@$0A@@std@@@std@@@2@@Z 00439850 f i libohNetCore:CpiDevice.obj
 0001:00038f60       ?clear@?$_Tree@V?$_Tmap_traits@VBrn@OpenHome@@PAVCpiDevice@Net@2@VBufferCmp@2@V?$allocator@U?$pair@$$CBVBrn@OpenHome@@PAVCpiDevice@Net@2@@std@@@std@@$0A@@std@@@std@@QAEXXZ 00439f60 f i libohNetCore:CpiDevice.obj
 0001:00038fe0       ?find@?$_Tree@V?$_Tmap_traits@VBrn@OpenHome@@PAVCpiDevice@Net@2@VBufferCmp@2@V?$allocator@U?$pair@$$CBVBrn@OpenHome@@PAVCpiDevice@Net@2@@std@@@std@@$0A@@std@@@std@@QAE?AV?$_Tree_iterator@V?$_Tree_val@V?$_Tmap_traits@VBrn@OpenHome@@PAVCpiDevice@Net@2@VBufferCmp@2@V?$allocator@U?$pair@$$CBVBrn@OpenHome@@PAVCpiDevice@Net@2@@std@@@std@@$0A@@std@@@std@@@2@ABVBrn@OpenHome@@@Z 00439fe0 f i libohNetCore:CpiDevice.obj
 0001:000391c0       ??0?$list@PAVUpdateBase@CpiDeviceListUpdater@Net@OpenHome@@V?$allocator@PAVUpdateBase@CpiDeviceListUpdater@Net@OpenHome@@@std@@@std@@QAE@XZ 0043a1c0 f i libohNetCore:CpiDevice.obj
 0001:00039200       ??1?$list@PAVUpdateBase@CpiDeviceListUpdater@Net@OpenHome@@V?$allocator@PAVUpdateBase@CpiDeviceListUpdater@Net@OpenHome@@@std@@@std@@QAE@XZ 0043a200 f i libohNetCore:CpiDevice.obj
 0001:00039270       ?size@?$list@PAVUpdateBase@CpiDeviceListUpdater@Net@OpenHome@@V?$allocator@PAVUpdateBase@CpiDeviceListUpdater@Net@OpenHome@@@std@@@std@@QBEIXZ 0043a270 f i libohNetCore:CpiDevice.obj
 0001:00039290       ?front@?$list@PAVUpdateBase@CpiDeviceListUpdater@Net@OpenHome@@V?$allocator@PAVUpdateBase@CpiDeviceListUpdater@Net@OpenHome@@@std@@@std@@QAEAAPAVUpdateBase@CpiDeviceListUpdater@Net@OpenHome@@XZ 0043a290 f i libohNetCore:CpiDevice.obj
 0001:00039330       ?pop_front@?$list@PAVUpdateBase@CpiDeviceListUpdater@Net@OpenHome@@V?$allocator@PAVUpdateBase@CpiDeviceListUpdater@Net@OpenHome@@@std@@@std@@QAEXXZ 0043a330 f i libohNetCore:CpiDevice.obj
 0001:000393e0       ?push_back@?$list@PAVUpdateBase@CpiDeviceListUpdater@Net@OpenHome@@V?$allocator@PAVUpdateBase@CpiDeviceListUpdater@Net@OpenHome@@@std@@@std@@QAEXABQAVUpdateBase@CpiDeviceListUpdater@Net@OpenHome@@@Z 0043a3e0 f i libohNetCore:CpiDevice.obj
 0001:00039490       ??C?$_Tree_iterator@V?$_Tree_val@V?$_Tmap_traits@VBrn@OpenHome@@PAVCpiDevice@Net@2@VBufferCmp@2@V?$allocator@U?$pair@$$CBVBrn@OpenHome@@PAVCpiDevice@Net@2@@std@@@std@@$0A@@std@@@std@@@std@@QBEPAU?$pair@$$CBVBrn@OpenHome@@PAVCpiDevice@Net@2@@1@XZ 0043a490 f i libohNetCore:CpiDevice.obj
 0001:000394c0       ??E?$_Tree_iterator@V?$_Tree_val@V?$_Tmap_traits@VBrn@OpenHome@@PAVCpiDevice@Net@2@VBufferCmp@2@V?$allocator@U?$pair@$$CBVBrn@OpenHome@@PAVCpiDevice@Net@2@@std@@@std@@$0A@@std@@@std@@@std@@QAE?AV01@H@Z 0043a4c0 f i libohNetCore:CpiDevice.obj
 0001:00039590       ??8?$_Tree_const_iterator@V?$_Tree_val@V?$_Tmap_traits@VBrn@OpenHome@@PAVCpiDevice@Net@2@VBufferCmp@2@V?$allocator@U?$pair@$$CBVBrn@OpenHome@@PAVCpiDevice@Net@2@@std@@@std@@$0A@@std@@@std@@@std@@QBE_NABV01@@Z 0043a590 f i libohNetCore:CpiDevice.obj
 0001:00039650       ??9?$_Tree_const_iterator@V?$_Tree_val@V?$_Tmap_traits@VBrn@OpenHome@@PAVCpiDevice@Net@2@VBufferCmp@2@V?$allocator@U?$pair@$$CBVBrn@OpenHome@@PAVCpiDevice@Net@2@@std@@@std@@$0A@@std@@@std@@@std@@QBE_NABV01@@Z 0043a650 f i libohNetCore:CpiDevice.obj
 0001:00039690       ??0?$_Tree_iterator@V?$_Tree_val@V?$_Tmap_traits@VBrn@OpenHome@@PAVCpiDevice@Net@2@VBufferCmp@2@V?$allocator@U?$pair@$$CBVBrn@OpenHome@@PAVCpiDevice@Net@2@@std@@@std@@$0A@@std@@@std@@@std@@QAE@ABV01@@Z 0043a690 f i libohNetCore:CpiDevice.obj
 0001:000396c0       ??1?$_List_iterator@V?$_List_val@PAVUpdateBase@CpiDeviceListUpdater@Net@OpenHome@@V?$allocator@PAVUpdateBase@CpiDeviceListUpdater@Net@OpenHome@@@std@@@std@@@std@@QAE@XZ 0043a6c0 f i libohNetCore:CpiDevice.obj
 0001:000396f0       ??0?$_List_const_iterator@V?$_List_val@PAVUpdateBase@CpiDeviceListUpdater@Net@OpenHome@@V?$allocator@PAVUpdateBase@CpiDeviceListUpdater@Net@OpenHome@@@std@@@std@@@std@@QAE@ABV01@@Z 0043a6f0 f i libohNetCore:CpiDevice.obj
 0001:00039720       ??1?$_List_const_iterator@V?$_List_val@PAVUpdateBase@CpiDeviceListUpdater@Net@OpenHome@@V?$allocator@PAVUpdateBase@CpiDeviceListUpdater@Net@OpenHome@@@std@@@std@@@std@@QAE@XZ 0043a720 f i libohNetCore:CpiDevice.obj
 0001:00039750       ??0?$_List_unchecked_const_iterator@V?$_List_val@PAVUpdateBase@CpiDeviceListUpdater@Net@OpenHome@@V?$allocator@PAVUpdateBase@CpiDeviceListUpdater@Net@OpenHome@@@std@@@std@@U_Iterator_base12@2@@std@@QAE@ABV01@@Z 0043a750 f i libohNetCore:CpiDevice.obj
 0001:00039790       ??1?$_List_unchecked_const_iterator@V?$_List_val@PAVUpdateBase@CpiDeviceListUpdater@Net@OpenHome@@V?$allocator@PAVUpdateBase@CpiDeviceListUpdater@Net@OpenHome@@@std@@@std@@U_Iterator_base12@2@@std@@QAE@XZ 0043a790 f i libohNetCore:CpiDevice.obj
 0001:000397c0       ??0?$_Iterator012@Ubidirectional_iterator_tag@std@@PAVUpdateBase@CpiDeviceListUpdater@Net@OpenHome@@HPBQAV3456@ABQAV3456@U_Iterator_base12@2@@std@@QAE@ABU01@@Z 0043a7c0 f i libohNetCore:CpiDevice.obj
 0001:000397f0       ??1?$_Iterator012@Ubidirectional_iterator_tag@std@@PAVUpdateBase@CpiDeviceListUpdater@Net@OpenHome@@HPBQAV3456@ABQAV3456@U_Iterator_base12@2@@std@@QAE@XZ 0043a7f0 f i libohNetCore:CpiDevice.obj
 0001:00039820       ??0?$_Tree@V?$_Tmap_traits@VBrn@OpenHome@@PAVCpiDevice@Net@2@VBufferCmp@2@V?$allocator@U?$pair@$$CBVBrn@OpenHome@@PAVCpiDevice@Net@2@@std@@@std@@$0A@@std@@@std@@QAE@ABVBufferCmp@OpenHome@@ABV?$allocator@U?$pair@$$CBVBrn@OpenHome@@PAVCpiDevice@Net@2@@std@@@1@@Z 0043a820 f i libohNetCore:CpiDevice.obj
 0001:00039870       ?lower_bound@?$_Tree@V?$_Tmap_traits@VBrn@OpenHome@@PAVCpiDevice@Net@2@VBufferCmp@2@V?$allocator@U?$pair@$$CBVBrn@OpenHome@@PAVCpiDevice@Net@2@@std@@@std@@$0A@@std@@@std@@QAE?AV?$_Tree_iterator@V?$_Tree_val@V?$_Tmap_traits@VBrn@OpenHome@@PAVCpiDevice@Net@2@VBufferCmp@2@V?$allocator@U?$pair@$$CBVBrn@OpenHome@@PAVCpiDevice@Net@2@@std@@@std@@$0A@@std@@@std@@@2@ABVBrn@OpenHome@@@Z 0043a870 f i libohNetCore:CpiDevice.obj
 0001:000398d0       ?_Erase@?$_Tree@V?$_Tmap_traits@VBrn@OpenHome@@PAVCpiDevice@Net@2@VBufferCmp@2@V?$allocator@U?$pair@$$CBVBrn@OpenHome@@PAVCpiDevice@Net@2@@std@@@std@@$0A@@std@@@std@@IAEXPAU_Node@?$_Tree_nod@V?$_Tmap_traits@VBrn@OpenHome@@PAVCpiDevice@Net@2@VBufferCmp@2@V?$allocator@U?$pair@$$CBVBrn@OpenHome@@PAVCpiDevice@Net@2@@std@@@std@@$0A@@std@@@2@@Z 0043a8d0 f i libohNetCore:CpiDevice.obj
 0001:00039970       ?_Lmost@?$_Tree@V?$_Tmap_traits@VBrn@OpenHome@@PAVCpiDevice@Net@2@VBufferCmp@2@V?$allocator@U?$pair@$$CBVBrn@OpenHome@@PAVCpiDevice@Net@2@@std@@@std@@$0A@@std@@@std@@IBEAAPAU_Node@?$_Tree_nod@V?$_Tmap_traits@VBrn@OpenHome@@PAVCpiDevice@Net@2@VBufferCmp@2@V?$allocator@U?$pair@$$CBVBrn@OpenHome@@PAVCpiDevice@Net@2@@std@@@std@@$0A@@std@@@2@XZ 0043a970 f i libohNetCore:CpiDevice.obj
 0001:000399a0       ?_Lrotate@?$_Tree@V?$_Tmap_traits@VBrn@OpenHome@@PAVCpiDevice@Net@2@VBufferCmp@2@V?$allocator@U?$pair@$$CBVBrn@OpenHome@@PAVCpiDevice@Net@2@@std@@@std@@$0A@@std@@@std@@IAEXPAU_Node@?$_Tree_nod@V?$_Tmap_traits@VBrn@OpenHome@@PAVCpiDevice@Net@2@VBufferCmp@2@V?$allocator@U?$pair@$$CBVBrn@OpenHome@@PAVCpiDevice@Net@2@@std@@@std@@$0A@@std@@@2@@Z 0043a9a0 f i libohNetCore:CpiDevice.obj
 0001:00039ac0       ?_Rmost@?$_Tree@V?$_Tmap_traits@VBrn@OpenHome@@PAVCpiDevice@Net@2@VBufferCmp@2@V?$allocator@U?$pair@$$CBVBrn@OpenHome@@PAVCpiDevice@Net@2@@std@@@std@@$0A@@std@@@std@@IBEAAPAU_Node@?$_Tree_nod@V?$_Tmap_traits@VBrn@OpenHome@@PAVCpiDevice@Net@2@VBufferCmp@2@V?$allocator@U?$pair@$$CBVBrn@OpenHome@@PAVCpiDevice@Net@2@@std@@@std@@$0A@@std@@@2@XZ 0043aac0 f i libohNetCore:CpiDevice.obj
 0001:00039af0       ?_Root@?$_Tree@V?$_Tmap_traits@VBrn@OpenHome@@PAVCpiDevice@Net@2@VBufferCmp@2@V?$allocator@U?$pair@$$CBVBrn@OpenHome@@PAVCpiDevice@Net@2@@std@@@std@@$0A@@std@@@std@@IBEAAPAU_Node@?$_Tree_nod@V?$_Tmap_traits@VBrn@OpenHome@@PAVCpiDevice@Net@2@VBufferCmp@2@V?$allocator@U?$pair@$$CBVBrn@OpenHome@@PAVCpiDevice@Net@2@@std@@@std@@$0A@@std@@@2@XZ 0043aaf0 f i libohNetCore:CpiDevice.obj
 0001:00039b20       ?_Rrotate@?$_Tree@V?$_Tmap_traits@VBrn@OpenHome@@PAVCpiDevice@Net@2@VBufferCmp@2@V?$allocator@U?$pair@$$CBVBrn@OpenHome@@PAVCpiDevice@Net@2@@std@@@std@@$0A@@std@@@std@@IAEXPAU_Node@?$_Tree_nod@V?$_Tmap_traits@VBrn@OpenHome@@PAVCpiDevice@Net@2@VBufferCmp@2@V?$allocator@U?$pair@$$CBVBrn@OpenHome@@PAVCpiDevice@Net@2@@std@@@std@@$0A@@std@@@2@@Z 0043ab20 f i libohNetCore:CpiDevice.obj
 0001:00039c40       ?_Orphan_ptr@?$_Tree@V?$_Tmap_traits@VBrn@OpenHome@@PAVCpiDevice@Net@2@VBufferCmp@2@V?$allocator@U?$pair@$$CBVBrn@OpenHome@@PAVCpiDevice@Net@2@@std@@@std@@$0A@@std@@@std@@IBEXAAV12@PAU_Node@?$_Tree_nod@V?$_Tmap_traits@VBrn@OpenHome@@PAVCpiDevice@Net@2@VBufferCmp@2@V?$allocator@U?$pair@$$CBVBrn@OpenHome@@PAVCpiDevice@Net@2@@std@@@std@@$0A@@std@@@2@@Z 0043ac40 f i libohNetCore:CpiDevice.obj
 0001:00039d50       ?_Tidy@?$_Tree@V?$_Tmap_traits@VBrn@OpenHome@@PAVCpiDevice@Net@2@VBufferCmp@2@V?$allocator@U?$pair@$$CBVBrn@OpenHome@@PAVCpiDevice@Net@2@@std@@@std@@$0A@@std@@@std@@IAEXXZ 0043ad50 f i libohNetCore:CpiDevice.obj
 0001:00039e50       ??1?$_Tree_val@V?$_Tmap_traits@VBrn@OpenHome@@PAVCpiDevice@Net@2@VBufferCmp@2@V?$allocator@U?$pair@$$CBVBrn@OpenHome@@PAVCpiDevice@Net@2@@std@@@std@@$0A@@std@@@std@@QAE@XZ 0043ae50 f i libohNetCore:CpiDevice.obj
 0001:00039ec0       ?_Color@?$_Tree_val@V?$_Tmap_traits@VBrn@OpenHome@@PAVCpiDevice@Net@2@VBufferCmp@2@V?$allocator@U?$pair@$$CBVBrn@OpenHome@@PAVCpiDevice@Net@2@@std@@@std@@$0A@@std@@@std@@SGAADPAU_Node@?$_Tree_nod@V?$_Tmap_traits@VBrn@OpenHome@@PAVCpiDevice@Net@2@VBufferCmp@2@V?$allocator@U?$pair@$$CBVBrn@OpenHome@@PAVCpiDevice@Net@2@@std@@@std@@$0A@@std@@@2@@Z 0043aec0 f i libohNetCore:CpiDevice.obj
 0001:00039ed0       ?_Isnil@?$_Tree_val@V?$_Tmap_traits@VBrn@OpenHome@@PAVCpiDevice@Net@2@VBufferCmp@2@V?$allocator@U?$pair@$$CBVBrn@OpenHome@@PAVCpiDevice@Net@2@@std@@@std@@$0A@@std@@@std@@SGAADPAU_Node@?$_Tree_nod@V?$_Tmap_traits@VBrn@OpenHome@@PAVCpiDevice@Net@2@VBufferCmp@2@V?$allocator@U?$pair@$$CBVBrn@OpenHome@@PAVCpiDevice@Net@2@@std@@@std@@$0A@@std@@@2@@Z 0043aed0 f i libohNetCore:CpiDevice.obj
 0001:00039ee0       ?_Key@?$_Tree_val@V?$_Tmap_traits@VBrn@OpenHome@@PAVCpiDevice@Net@2@VBufferCmp@2@V?$allocator@U?$pair@$$CBVBrn@OpenHome@@PAVCpiDevice@Net@2@@std@@@std@@$0A@@std@@@std@@SGAAVBrn@OpenHome@@PAU_Node@?$_Tree_nod@V?$_Tmap_traits@VBrn@OpenHome@@PAVCpiDevice@Net@2@VBufferCmp@2@V?$allocator@U?$pair@$$CBVBrn@OpenHome@@PAVCpiDevice@Net@2@@std@@@std@@$0A@@std@@@2@@Z 0043aee0 f i libohNetCore:CpiDevice.obj
 0001:00039f00       ?_Left@?$_Tree_val@V?$_Tmap_traits@VBrn@OpenHome@@PAVCpiDevice@Net@2@VBufferCmp@2@V?$allocator@U?$pair@$$CBVBrn@OpenHome@@PAVCpiDevice@Net@2@@std@@@std@@$0A@@std@@@std@@SGAAPAU_Node@?$_Tree_nod@V?$_Tmap_traits@VBrn@OpenHome@@PAVCpiDevice@Net@2@VBufferCmp@2@V?$allocator@U?$pair@$$CBVBrn@OpenHome@@PAVCpiDevice@Net@2@@std@@@std@@$0A@@std@@@2@PAU342@@Z 0043af00 f i libohNetCore:CpiDevice.obj
 0001:00039f10       ?_Parent@?$_Tree_val@V?$_Tmap_traits@VBrn@OpenHome@@PAVCpiDevice@Net@2@VBufferCmp@2@V?$allocator@U?$pair@$$CBVBrn@OpenHome@@PAVCpiDevice@Net@2@@std@@@std@@$0A@@std@@@std@@SGAAPAU_Node@?$_Tree_nod@V?$_Tmap_traits@VBrn@OpenHome@@PAVCpiDevice@Net@2@VBufferCmp@2@V?$allocator@U?$pair@$$CBVBrn@OpenHome@@PAVCpiDevice@Net@2@@std@@@std@@$0A@@std@@@2@PAU342@@Z 0043af10 f i libohNetCore:CpiDevice.obj
 0001:00039f20       ?_Right@?$_Tree_val@V?$_Tmap_traits@VBrn@OpenHome@@PAVCpiDevice@Net@2@VBufferCmp@2@V?$allocator@U?$pair@$$CBVBrn@OpenHome@@PAVCpiDevice@Net@2@@std@@@std@@$0A@@std@@@std@@SGAAPAU_Node@?$_Tree_nod@V?$_Tmap_traits@VBrn@OpenHome@@PAVCpiDevice@Net@2@VBufferCmp@2@V?$allocator@U?$pair@$$CBVBrn@OpenHome@@PAVCpiDevice@Net@2@@std@@@std@@$0A@@std@@@2@PAU342@@Z 0043af20 f i libohNetCore:CpiDevice.obj
 0001:00039f30       ?_Myval@?$_Tree_val@V?$_Tmap_traits@VBrn@OpenHome@@PAVCpiDevice@Net@2@VBufferCmp@2@V?$allocator@U?$pair@$$CBVBrn@OpenHome@@PAVCpiDevice@Net@2@@std@@@std@@$0A@@std@@@std@@SGAAU?$pair@$$CBVBrn@OpenHome@@PAVCpiDevice@Net@2@@2@PAU_Node@?$_Tree_nod@V?$_Tmap_traits@VBrn@OpenHome@@PAVCpiDevice@Net@2@VBufferCmp@2@V?$allocator@U?$pair@$$CBVBrn@OpenHome@@PAVCpiDevice@Net@2@@std@@@std@@$0A@@std@@@2@@Z 0043af30 f i libohNetCore:CpiDevice.obj
 0001:00039f40       ?_Max@?$_Tree_val@V?$_Tmap_traits@VBrn@OpenHome@@PAVCpiDevice@Net@2@VBufferCmp@2@V?$allocator@U?$pair@$$CBVBrn@OpenHome@@PAVCpiDevice@Net@2@@std@@@std@@$0A@@std@@@std@@SGPAU_Node@?$_Tree_nod@V?$_Tmap_traits@VBrn@OpenHome@@PAVCpiDevice@Net@2@VBufferCmp@2@V?$allocator@U?$pair@$$CBVBrn@OpenHome@@PAVCpiDevice@Net@2@@std@@@std@@$0A@@std@@@2@PAU342@@Z 0043af40 f i libohNetCore:CpiDevice.obj
 0001:00039f80       ?_Min@?$_Tree_val@V?$_Tmap_traits@VBrn@OpenHome@@PAVCpiDevice@Net@2@VBufferCmp@2@V?$allocator@U?$pair@$$CBVBrn@OpenHome@@PAVCpiDevice@Net@2@@std@@@std@@$0A@@std@@@std@@SGPAU_Node@?$_Tree_nod@V?$_Tmap_traits@VBrn@OpenHome@@PAVCpiDevice@Net@2@VBufferCmp@2@V?$allocator@U?$pair@$$CBVBrn@OpenHome@@PAVCpiDevice@Net@2@@std@@@std@@$0A@@std@@@2@PAU342@@Z 0043af80 f i libohNetCore:CpiDevice.obj
 0001:00039fc0       ??0?$allocator@U?$pair@$$CBVBrn@OpenHome@@PAVCpiDevice@Net@2@@std@@@std@@QAE@XZ 0043afc0 f i libohNetCore:CpiDevice.obj
 0001:00039fe0       ?deallocate@?$allocator@U_Node@?$_Tree_nod@V?$_Tmap_traits@VBrn@OpenHome@@PAVCpiDevice@Net@2@VBufferCmp@2@V?$allocator@U?$pair@$$CBVBrn@OpenHome@@PAVCpiDevice@Net@2@@std@@@std@@$0A@@std@@@std@@@std@@QAEXPAU_Node@?$_Tree_nod@V?$_Tmap_traits@VBrn@OpenHome@@PAVCpiDevice@Net@2@VBufferCmp@2@V?$allocator@U?$pair@$$CBVBrn@OpenHome@@PAVCpiDevice@Net@2@@std@@@std@@$0A@@std@@@2@I@Z 0043afe0 f i libohNetCore:CpiDevice.obj
 0001:0003a010       ?begin@?$list@PAVUpdateBase@CpiDeviceListUpdater@Net@OpenHome@@V?$allocator@PAVUpdateBase@CpiDeviceListUpdater@Net@OpenHome@@@std@@@std@@QAE?AV?$_List_iterator@V?$_List_val@PAVUpdateBase@CpiDeviceListUpdater@Net@OpenHome@@V?$allocator@PAVUpdateBase@CpiDeviceListUpdater@Net@OpenHome@@@std@@@std@@@2@XZ 0043b010 f i libohNetCore:CpiDevice.obj
 0001:0003a070       ?end@?$list@PAVUpdateBase@CpiDeviceListUpdater@Net@OpenHome@@V?$allocator@PAVUpdateBase@CpiDeviceListUpdater@Net@OpenHome@@@std@@@std@@QAE?AV?$_List_iterator@V?$_List_val@PAVUpdateBase@CpiDeviceListUpdater@Net@OpenHome@@V?$allocator@PAVUpdateBase@CpiDeviceListUpdater@Net@OpenHome@@@std@@@std@@@2@XZ 0043b070 f i libohNetCore:CpiDevice.obj
 0001:0003a0c0       ?_Insert@?$list@PAVUpdateBase@CpiDeviceListUpdater@Net@OpenHome@@V?$allocator@PAVUpdateBase@CpiDeviceListUpdater@Net@OpenHome@@@std@@@std@@QAEXV?$_List_const_iterator@V?$_List_val@PAVUpdateBase@CpiDeviceListUpdater@Net@OpenHome@@V?$allocator@PAVUpdateBase@CpiDeviceListUpdater@Net@OpenHome@@@std@@@std@@@2@ABQAVUpdateBase@CpiDeviceListUpdater@Net@OpenHome@@@Z 0043b0c0 f i libohNetCore:CpiDevice.obj
 0001:0003a1b0       ?erase@?$list@PAVUpdateBase@CpiDeviceListUpdater@Net@OpenHome@@V?$allocator@PAVUpdateBase@CpiDeviceListUpdater@Net@OpenHome@@@std@@@std@@QAE?AV?$_List_iterator@V?$_List_val@PAVUpdateBase@CpiDeviceListUpdater@Net@OpenHome@@V?$allocator@PAVUpdateBase@CpiDeviceListUpdater@Net@OpenHome@@@std@@@std@@@2@V?$_List_const_iterator@V?$_List_val@PAVUpdateBase@CpiDeviceListUpdater@Net@OpenHome@@V?$allocator@PAVUpdateBase@CpiDeviceListUpdater@Net@OpenHome@@@std@@@std@@@2@@Z 0043b1b0 f i libohNetCore:CpiDevice.obj
 0001:0003a340       ?_Tidy@?$list@PAVUpdateBase@CpiDeviceListUpdater@Net@OpenHome@@V?$allocator@PAVUpdateBase@CpiDeviceListUpdater@Net@OpenHome@@@std@@@std@@QAEXXZ 0043b340 f i libohNetCore:CpiDevice.obj
 0001:0003a370       ??0?$_List_val@PAVUpdateBase@CpiDeviceListUpdater@Net@OpenHome@@V?$allocator@PAVUpdateBase@CpiDeviceListUpdater@Net@OpenHome@@@std@@@std@@QAE@V?$allocator@PAVUpdateBase@CpiDeviceListUpdater@Net@OpenHome@@@1@@Z 0043b370 f i libohNetCore:CpiDevice.obj
 0001:0003a430       ??1?$_List_val@PAVUpdateBase@CpiDeviceListUpdater@Net@OpenHome@@V?$allocator@PAVUpdateBase@CpiDeviceListUpdater@Net@OpenHome@@@std@@@std@@QAE@XZ 0043b430 f i libohNetCore:CpiDevice.obj
 0001:0003a4a0       ??0?$allocator@PAVUpdateBase@CpiDeviceListUpdater@Net@OpenHome@@@std@@QAE@XZ 0043b4a0 f i libohNetCore:CpiDevice.obj
 0001:0003a4c0       ??0?$_Tree_iterator@V?$_Tree_val@V?$_Tmap_traits@VBrn@OpenHome@@PAVCpiDevice@Net@2@VBufferCmp@2@V?$allocator@U?$pair@$$CBVBrn@OpenHome@@PAVCpiDevice@Net@2@@std@@@std@@$0A@@std@@@std@@@std@@QAE@PAU_Node@?$_Tree_nod@V?$_Tmap_traits@VBrn@OpenHome@@PAVCpiDevice@Net@2@VBufferCmp@2@V?$allocator@U?$pair@$$CBVBrn@OpenHome@@PAVCpiDevice@Net@2@@std@@@std@@$0A@@std@@@1@PBV?$_Tree_val@V?$_Tmap_traits@VBrn@OpenHome@@PAVCpiDevice@Net@2@VBufferCmp@2@V?$allocator@U?$pair@$$CBVBrn@OpenHome@@PAVCpiDevice@Net@2@@std@@@std@@$0A@@std@@@1@@Z 0043b4c0 f i libohNetCore:CpiDevice.obj
 0001:0003a500       ??D?$_Tree_iterator@V?$_Tree_val@V?$_Tmap_traits@VBrn@OpenHome@@PAVCpiDevice@Net@2@VBufferCmp@2@V?$allocator@U?$pair@$$CBVBrn@OpenHome@@PAVCpiDevice@Net@2@@std@@@std@@$0A@@std@@@std@@@std@@QBEAAU?$pair@$$CBVBrn@OpenHome@@PAVCpiDevice@Net@2@@1@XZ 0043b500 f i libohNetCore:CpiDevice.obj
 0001:0003a530       ??E?$_Tree_iterator@V?$_Tree_val@V?$_Tmap_traits@VBrn@OpenHome@@PAVCpiDevice@Net@2@VBufferCmp@2@V?$allocator@U?$pair@$$CBVBrn@OpenHome@@PAVCpiDevice@Net@2@@std@@@std@@$0A@@std@@@std@@@std@@QAEAAV01@XZ 0043b530 f i libohNetCore:CpiDevice.obj
 0001:0003a560       ??E?$_Tree_const_iterator@V?$_Tree_val@V?$_Tmap_traits@VBrn@OpenHome@@PAVCpiDevice@Net@2@VBufferCmp@2@V?$allocator@U?$pair@$$CBVBrn@OpenHome@@PAVCpiDevice@Net@2@@std@@@std@@$0A@@std@@@std@@@std@@QAEAAV01@XZ 0043b560 f i libohNetCore:CpiDevice.obj
 0001:0003a620       ?_Mynode@?$_Tree_unchecked_const_iterator@V?$_Tree_val@V?$_Tmap_traits@VBrn@OpenHome@@PAVCpiDevice@Net@2@VBufferCmp@2@V?$allocator@U?$pair@$$CBVBrn@OpenHome@@PAVCpiDevice@Net@2@@std@@@std@@$0A@@std@@@std@@U_Iterator_base12@2@@std@@QBEPAU_Node@?$_Tree_nod@V?$_Tmap_traits@VBrn@OpenHome@@PAVCpiDevice@Net@2@VBufferCmp@2@V?$allocator@U?$pair@$$CBVBrn@OpenHome@@PAVCpiDevice@Net@2@@std@@@std@@$0A@@std@@@2@XZ 0043b620 f i libohNetCore:CpiDevice.obj
 0001:0003a640       ??D?$_List_iterator@V?$_List_val@PAVUpdateBase@CpiDeviceListUpdater@Net@OpenHome@@V?$allocator@PAVUpdateBase@CpiDeviceListUpdater@Net@OpenHome@@@std@@@std@@@std@@QBEAAPAVUpdateBase@CpiDeviceListUpdater@Net@OpenHome@@XZ 0043b640 f i libohNetCore:CpiDevice.obj
 0001:0003a670       ?erase@?$_Tree@V?$_Tmap_traits@VBrn@OpenHome@@PAVCpiDevice@Net@2@VBufferCmp@2@V?$allocator@U?$pair@$$CBVBrn@OpenHome@@PAVCpiDevice@Net@2@@std@@@std@@$0A@@std@@@std@@QAE?AV?$_Tree_iterator@V?$_Tree_val@V?$_Tmap_traits@VBrn@OpenHome@@PAVCpiDevice@Net@2@VBufferCmp@2@V?$allocator@U?$pair@$$CBVBrn@OpenHome@@PAVCpiDevice@Net@2@@std@@@std@@$0A@@std@@@std@@@2@V?$_Tree_const_iterator@V?$_Tree_val@V?$_Tmap_traits@VBrn@OpenHome@@PAVCpiDevice@Net@2@VBufferCmp@2@V?$allocator@U?$pair@$$CBVBrn@OpenHome@@PAVCpiDevice@Net@2@@std@@@std@@$0A@@std@@@std@@@2@0@Z 0043b670 f i libohNetCore:CpiDevice.obj
 0001:0003a870       ?_Lbound@?$_Tree@V?$_Tmap_traits@VBrn@OpenHome@@PAVCpiDevice@Net@2@VBufferCmp@2@V?$allocator@U?$pair@$$CBVBrn@OpenHome@@PAVCpiDevice@Net@2@@std@@@std@@$0A@@std@@@std@@IAEPAU_Node@?$_Tree_nod@V?$_Tmap_traits@VBrn@OpenHome@@PAVCpiDevice@Net@2@VBufferCmp@2@V?$allocator@U?$pair@$$CBVBrn@OpenHome@@PAVCpiDevice@Net@2@@std@@@std@@$0A@@std@@@2@ABVBrn@OpenHome@@@Z 0043b870 f i libohNetCore:CpiDevice.obj
 0001:0003a920       ??0?$_Tree_val@V?$_Tmap_traits@VBrn@OpenHome@@PAVCpiDevice@Net@2@VBufferCmp@2@V?$allocator@U?$pair@$$CBVBrn@OpenHome@@PAVCpiDevice@Net@2@@std@@@std@@$0A@@std@@@std@@QAE@ABVBufferCmp@OpenHome@@V?$allocator@U?$pair@$$CBVBrn@OpenHome@@PAVCpiDevice@Net@2@@std@@@1@@Z 0043b920 f i libohNetCore:CpiDevice.obj
 0001:0003aa20       ??1?$_Tree_nod@V?$_Tmap_traits@VBrn@OpenHome@@PAVCpiDevice@Net@2@VBufferCmp@2@V?$allocator@U?$pair@$$CBVBrn@OpenHome@@PAVCpiDevice@Net@2@@std@@@std@@$0A@@std@@@std@@QAE@XZ 0043ba20 f i libohNetCore:CpiDevice.obj
 0001:0003ab00       ??0?$allocator@U?$pair@$$CBVBrn@OpenHome@@PAVCpiDevice@Net@2@@std@@@std@@QAE@ABV01@@Z 0043bb00 f i libohNetCore:CpiDevice.obj
 0001:0003ab20       ?_Make_iter@?$list@PAVUpdateBase@CpiDeviceListUpdater@Net@OpenHome@@V?$allocator@PAVUpdateBase@CpiDeviceListUpdater@Net@OpenHome@@@std@@@std@@QBE?AV?$_List_iterator@V?$_List_val@PAVUpdateBase@CpiDeviceListUpdater@Net@OpenHome@@V?$allocator@PAVUpdateBase@CpiDeviceListUpdater@Net@OpenHome@@@std@@@std@@@2@V?$_List_const_iterator@V?$_List_val@PAVUpdateBase@CpiDeviceListUpdater@Net@OpenHome@@V?$allocator@PAVUpdateBase@CpiDeviceListUpdater@Net@OpenHome@@@std@@@std@@@2@@Z 0043bb20 f i libohNetCore:CpiDevice.obj
 0001:0003abb0       ?clear@?$list@PAVUpdateBase@CpiDeviceListUpdater@Net@OpenHome@@V?$allocator@PAVUpdateBase@CpiDeviceListUpdater@Net@OpenHome@@@std@@@std@@QAEXXZ 0043bbb0 f i libohNetCore:CpiDevice.obj
 0001:0003ac80       ?_Incsize@?$list@PAVUpdateBase@CpiDeviceListUpdater@Net@OpenHome@@V?$allocator@PAVUpdateBase@CpiDeviceListUpdater@Net@OpenHome@@@std@@@std@@QAEXI@Z 0043bc80 f i libohNetCore:CpiDevice.obj
 0001:0003acd0       ?_Orphan_ptr@?$list@PAVUpdateBase@CpiDeviceListUpdater@Net@OpenHome@@V?$allocator@PAVUpdateBase@CpiDeviceListUpdater@Net@OpenHome@@@std@@@std@@QBEXAAV12@PAU_Node@?$_List_nod@PAVUpdateBase@CpiDeviceListUpdater@Net@OpenHome@@V?$allocator@PAVUpdateBase@CpiDeviceListUpdater@Net@OpenHome@@@std@@@2@@Z 0043bcd0 f i libohNetCore:CpiDevice.obj
 0001:0003ade0       ?_Buynode@?$_List_val@PAVUpdateBase@CpiDeviceListUpdater@Net@OpenHome@@V?$allocator@PAVUpdateBase@CpiDeviceListUpdater@Net@OpenHome@@@std@@@std@@QAEPAU_Node@?$_List_nod@PAVUpdateBase@CpiDeviceListUpdater@Net@OpenHome@@V?$allocator@PAVUpdateBase@CpiDeviceListUpdater@Net@OpenHome@@@std@@@2@PAU342@0ABQAVUpdateBase@CpiDeviceListUpdater@Net@OpenHome@@@Z 0043bde0 f i libohNetCore:CpiDevice.obj
 0001:0003aef0       ?_Nextnode@?$_List_val@PAVUpdateBase@CpiDeviceListUpdater@Net@OpenHome@@V?$allocator@PAVUpdateBase@CpiDeviceListUpdater@Net@OpenHome@@@std@@@std@@SGAAPAU_Node@?$_List_nod@PAVUpdateBase@CpiDeviceListUpdater@Net@OpenHome@@V?$allocator@PAVUpdateBase@CpiDeviceListUpdater@Net@OpenHome@@@std@@@2@PAU342@@Z 0043bef0 f i libohNetCore:CpiDevice.obj
 0001:0003af00       ?_Prevnode@?$_List_val@PAVUpdateBase@CpiDeviceListUpdater@Net@OpenHome@@V?$allocator@PAVUpdateBase@CpiDeviceListUpdater@Net@OpenHome@@@std@@@std@@SGAAPAU_Node@?$_List_nod@PAVUpdateBase@CpiDeviceListUpdater@Net@OpenHome@@V?$allocator@PAVUpdateBase@CpiDeviceListUpdater@Net@OpenHome@@@std@@@2@PAU342@@Z 0043bf00 f i libohNetCore:CpiDevice.obj
 0001:0003af10       ??0?$_List_nod@PAVUpdateBase@CpiDeviceListUpdater@Net@OpenHome@@V?$allocator@PAVUpdateBase@CpiDeviceListUpdater@Net@OpenHome@@@std@@@std@@QAE@V?$allocator@PAVUpdateBase@CpiDeviceListUpdater@Net@OpenHome@@@1@@Z 0043bf10 f i libohNetCore:CpiDevice.obj
 0001:0003b020       ??1?$_List_nod@PAVUpdateBase@CpiDeviceListUpdater@Net@OpenHome@@V?$allocator@PAVUpdateBase@CpiDeviceListUpdater@Net@OpenHome@@@std@@@std@@QAE@XZ 0043c020 f i libohNetCore:CpiDevice.obj
 0001:0003b100       ??0?$allocator@PAVUpdateBase@CpiDeviceListUpdater@Net@OpenHome@@@std@@QAE@ABV01@@Z 0043c100 f i libohNetCore:CpiDevice.obj
 0001:0003b120       ?deallocate@?$allocator@U_Node@?$_List_nod@PAVUpdateBase@CpiDeviceListUpdater@Net@OpenHome@@V?$allocator@PAVUpdateBase@CpiDeviceListUpdater@Net@OpenHome@@@std@@@std@@@std@@QAEXPAU_Node@?$_List_nod@PAVUpdateBase@CpiDeviceListUpdater@Net@OpenHome@@V?$allocator@PAVUpdateBase@CpiDeviceListUpdater@Net@OpenHome@@@std@@@2@I@Z 0043c120 f i libohNetCore:CpiDevice.obj
 0001:0003b150       ?allocate@?$allocator@U_Node@?$_List_nod@PAVUpdateBase@CpiDeviceListUpdater@Net@OpenHome@@V?$allocator@PAVUpdateBase@CpiDeviceListUpdater@Net@OpenHome@@@std@@@std@@@std@@QAEPAU_Node@?$_List_nod@PAVUpdateBase@CpiDeviceListUpdater@Net@OpenHome@@V?$allocator@PAVUpdateBase@CpiDeviceListUpdater@Net@OpenHome@@@std@@@2@I@Z 0043c150 f i libohNetCore:CpiDevice.obj
 0001:0003b180       ??0?$_Tree_const_iterator@V?$_Tree_val@V?$_Tmap_traits@VBrn@OpenHome@@PAVCpiDevice@Net@2@VBufferCmp@2@V?$allocator@U?$pair@$$CBVBrn@OpenHome@@PAVCpiDevice@Net@2@@std@@@std@@$0A@@std@@@std@@@std@@QAE@PAU_Node@?$_Tree_nod@V?$_Tmap_traits@VBrn@OpenHome@@PAVCpiDevice@Net@2@VBufferCmp@2@V?$allocator@U?$pair@$$CBVBrn@OpenHome@@PAVCpiDevice@Net@2@@std@@@std@@$0A@@std@@@1@PBV?$_Tree_val@V?$_Tmap_traits@VBrn@OpenHome@@PAVCpiDevice@Net@2@VBufferCmp@2@V?$allocator@U?$pair@$$CBVBrn@OpenHome@@PAVCpiDevice@Net@2@@std@@@std@@$0A@@std@@@1@@Z 0043c180 f i libohNetCore:CpiDevice.obj
 0001:0003b1c0       ??D?$_Tree_const_iterator@V?$_Tree_val@V?$_Tmap_traits@VBrn@OpenHome@@PAVCpiDevice@Net@2@VBufferCmp@2@V?$allocator@U?$pair@$$CBVBrn@OpenHome@@PAVCpiDevice@Net@2@@std@@@std@@$0A@@std@@@std@@@std@@QBEABU?$pair@$$CBVBrn@OpenHome@@PAVCpiDevice@Net@2@@1@XZ 0043c1c0 f i libohNetCore:CpiDevice.obj
 0001:0003b280       ??E?$_Tree_unchecked_const_iterator@V?$_Tree_val@V?$_Tmap_traits@VBrn@OpenHome@@PAVCpiDevice@Net@2@VBufferCmp@2@V?$allocator@U?$pair@$$CBVBrn@OpenHome@@PAVCpiDevice@Net@2@@std@@@std@@$0A@@std@@@std@@U_Iterator_base12@2@@std@@QAEAAV01@XZ 0043c280 f i libohNetCore:CpiDevice.obj
 0001:0003b340       ??0?$_List_iterator@V?$_List_val@PAVUpdateBase@CpiDeviceListUpdater@Net@OpenHome@@V?$allocator@PAVUpdateBase@CpiDeviceListUpdater@Net@OpenHome@@@std@@@std@@@std@@QAE@PAU_Node@?$_List_nod@PAVUpdateBase@CpiDeviceListUpdater@Net@OpenHome@@V?$allocator@PAVUpdateBase@CpiDeviceListUpdater@Net@OpenHome@@@std@@@1@PBV?$_List_val@PAVUpdateBase@CpiDeviceListUpdater@Net@OpenHome@@V?$allocator@PAVUpdateBase@CpiDeviceListUpdater@Net@OpenHome@@@std@@@1@@Z 0043c340 f i libohNetCore:CpiDevice.obj
 0001:0003b380       ??D?$_List_const_iterator@V?$_List_val@PAVUpdateBase@CpiDeviceListUpdater@Net@OpenHome@@V?$allocator@PAVUpdateBase@CpiDeviceListUpdater@Net@OpenHome@@@std@@@std@@@std@@QBEABQAVUpdateBase@CpiDeviceListUpdater@Net@OpenHome@@XZ 0043c380 f i libohNetCore:CpiDevice.obj
 0001:0003b440       ??E?$_List_const_iterator@V?$_List_val@PAVUpdateBase@CpiDeviceListUpdater@Net@OpenHome@@V?$allocator@PAVUpdateBase@CpiDeviceListUpdater@Net@OpenHome@@@std@@@std@@@std@@QAE?AV01@H@Z 0043c440 f i libohNetCore:CpiDevice.obj
 0001:0003b510       ?_Mynode@?$_List_unchecked_const_iterator@V?$_List_val@PAVUpdateBase@CpiDeviceListUpdater@Net@OpenHome@@V?$allocator@PAVUpdateBase@CpiDeviceListUpdater@Net@OpenHome@@@std@@@std@@U_Iterator_base12@2@@std@@QBEPAU_Node@?$_List_nod@PAVUpdateBase@CpiDeviceListUpdater@Net@OpenHome@@V?$allocator@PAVUpdateBase@CpiDeviceListUpdater@Net@OpenHome@@@std@@@2@XZ 0043c510 f i libohNetCore:CpiDevice.obj
 0001:0003b530       ??1?$_Tmap_traits@VBrn@OpenHome@@PAVCpiDevice@Net@2@VBufferCmp@2@V?$allocator@U?$pair@$$CBVBrn@OpenHome@@PAVCpiDevice@Net@2@@std@@@std@@$0A@@std@@QAE@XZ 0043c530 f i libohNetCore:CpiDevice.obj
 0001:0003b560       ??0?$_Tree_nod@V?$_Tmap_traits@VBrn@OpenHome@@PAVCpiDevice@Net@2@VBufferCmp@2@V?$allocator@U?$pair@$$CBVBrn@OpenHome@@PAVCpiDevice@Net@2@@std@@@std@@$0A@@std@@@std@@QAE@ABVBufferCmp@OpenHome@@V?$allocator@U?$pair@$$CBVBrn@OpenHome@@PAVCpiDevice@Net@2@@std@@@1@@Z 0043c560 f i libohNetCore:CpiDevice.obj
 0001:0003b670       ?allocate@?$allocator@U_Node@?$_Tree_nod@V?$_Tmap_traits@VBrn@OpenHome@@PAVCpiDevice@Net@2@VBufferCmp@2@V?$allocator@U?$pair@$$CBVBrn@OpenHome@@PAVCpiDevice@Net@2@@std@@@std@@$0A@@std@@@std@@@std@@QAEPAU_Node@?$_Tree_nod@V?$_Tmap_traits@VBrn@OpenHome@@PAVCpiDevice@Net@2@VBufferCmp@2@V?$allocator@U?$pair@$$CBVBrn@OpenHome@@PAVCpiDevice@Net@2@@std@@@std@@$0A@@std@@@2@I@Z 0043c670 f i libohNetCore:CpiDevice.obj
 0001:0003b6a0       ?max_size@?$list@PAVUpdateBase@CpiDeviceListUpdater@Net@OpenHome@@V?$allocator@PAVUpdateBase@CpiDeviceListUpdater@Net@OpenHome@@@std@@@std@@QBEIXZ 0043c6a0 f i libohNetCore:CpiDevice.obj
 0001:0003b6d0       ?_Myval@?$_List_val@PAVUpdateBase@CpiDeviceListUpdater@Net@OpenHome@@V?$allocator@PAVUpdateBase@CpiDeviceListUpdater@Net@OpenHome@@@std@@@std@@SGAAPAVUpdateBase@CpiDeviceListUpdater@Net@OpenHome@@PAU_Node@?$_List_nod@PAVUpdateBase@CpiDeviceListUpdater@Net@OpenHome@@V?$allocator@PAVUpdateBase@CpiDeviceListUpdater@Net@OpenHome@@@std@@@2@@Z 0043c6d0 f i libohNetCore:CpiDevice.obj
 0001:0003b6e0       ??E?$_Tree_const_iterator@V?$_Tree_val@V?$_Tmap_traits@VBrn@OpenHome@@PAVCpiDevice@Net@2@VBufferCmp@2@V?$allocator@U?$pair@$$CBVBrn@OpenHome@@PAVCpiDevice@Net@2@@std@@@std@@$0A@@std@@@std@@@std@@QAE?AV01@H@Z 0043c6e0 f i libohNetCore:CpiDevice.obj
 0001:0003b7b0       ??0?$_Tree_unchecked_const_iterator@V?$_Tree_val@V?$_Tmap_traits@VBrn@OpenHome@@PAVCpiDevice@Net@2@VBufferCmp@2@V?$allocator@U?$pair@$$CBVBrn@OpenHome@@PAVCpiDevice@Net@2@@std@@@std@@$0A@@std@@@std@@U_Iterator_base12@2@@std@@QAE@PAU_Node@?$_Tree_nod@V?$_Tmap_traits@VBrn@OpenHome@@PAVCpiDevice@Net@2@VBufferCmp@2@V?$allocator@U?$pair@$$CBVBrn@OpenHome@@PAVCpiDevice@Net@2@@std@@@std@@$0A@@std@@@1@PBV?$_Tree_val@V?$_Tmap_traits@VBrn@OpenHome@@PAVCpiDevice@Net@2@VBufferCmp@2@V?$allocator@U?$pair@$$CBVBrn@OpenHome@@PAVCpiDevice@Net@2@@std@@@std@@$0A@@std@@@1@@Z 0043c7b0 f i libohNetCore:CpiDevice.obj
 0001:0003b830       ??0?$_List_const_iterator@V?$_List_val@PAVUpdateBase@CpiDeviceListUpdater@Net@OpenHome@@V?$allocator@PAVUpdateBase@CpiDeviceListUpdater@Net@OpenHome@@@std@@@std@@@std@@QAE@PAU_Node@?$_List_nod@PAVUpdateBase@CpiDeviceListUpdater@Net@OpenHome@@V?$allocator@PAVUpdateBase@CpiDeviceListUpdater@Net@OpenHome@@@std@@@1@PBV?$_List_val@PAVUpdateBase@CpiDeviceListUpdater@Net@OpenHome@@V?$allocator@PAVUpdateBase@CpiDeviceListUpdater@Net@OpenHome@@@std@@@1@@Z 0043c830 f i libohNetCore:CpiDevice.obj
 0001:0003b870       ??E?$_List_const_iterator@V?$_List_val@PAVUpdateBase@CpiDeviceListUpdater@Net@OpenHome@@V?$allocator@PAVUpdateBase@CpiDeviceListUpdater@Net@OpenHome@@@std@@@std@@@std@@QAEAAV01@XZ 0043c870 f i libohNetCore:CpiDevice.obj
 0001:0003b930       ??0?$_Iterator012@Ubidirectional_iterator_tag@std@@U?$pair@$$CBVBrn@OpenHome@@PAVCpiDevice@Net@2@@2@HPBU32@ABU32@U_Iterator_base12@2@@std@@QAE@XZ 0043c930 f i libohNetCore:CpiDevice.obj
 0001:0003b960       ??0?$_Tmap_traits@VBrn@OpenHome@@PAVCpiDevice@Net@2@VBufferCmp@2@V?$allocator@U?$pair@$$CBVBrn@OpenHome@@PAVCpiDevice@Net@2@@std@@@std@@$0A@@std@@QAE@VBufferCmp@OpenHome@@@Z 0043c960 f i libohNetCore:CpiDevice.obj
 0001:0003b990       ?max_size@?$allocator@PAVUpdateBase@CpiDeviceListUpdater@Net@OpenHome@@@std@@QBEIXZ 0043c990 f i libohNetCore:CpiDevice.obj
 0001:0003b9e0       ??0?$_List_unchecked_const_iterator@V?$_List_val@PAVUpdateBase@CpiDeviceListUpdater@Net@OpenHome@@V?$allocator@PAVUpdateBase@CpiDeviceListUpdater@Net@OpenHome@@@std@@@std@@U_Iterator_base12@2@@std@@QAE@PAU_Node@?$_List_nod@PAVUpdateBase@CpiDeviceListUpdater@Net@OpenHome@@V?$allocator@PAVUpdateBase@CpiDeviceListUpdater@Net@OpenHome@@@std@@@1@PBV?$_List_val@PAVUpdateBase@CpiDeviceListUpdater@Net@OpenHome@@V?$allocator@PAVUpdateBase@CpiDeviceListUpdater@Net@OpenHome@@@std@@@1@@Z 0043c9e0 f i libohNetCore:CpiDevice.obj
 0001:0003ba60       ??0?$_Iterator012@Ubidirectional_iterator_tag@std@@PAVUpdateBase@CpiDeviceListUpdater@Net@OpenHome@@HPBQAV3456@ABQAV3456@U_Iterator_base12@2@@std@@QAE@XZ 0043ca60 f i libohNetCore:CpiDevice.obj
 0001:0003ba90       ??$?0AAVBrn@OpenHome@@AAPAVCpiDevice@Net@1@@?$pair@VBrn@OpenHome@@PAVCpiDevice@Net@2@@std@@QAE@AAVBrn@OpenHome@@AAPAVCpiDevice@Net@3@@Z 0043ca90 f i libohNetCore:CpiDevice.obj
 0001:0003bad0       ??$insert@U?$pair@VBrn@OpenHome@@PAVCpiDevice@Net@2@@std@@@?$_Tree@V?$_Tmap_traits@VBrn@OpenHome@@PAVCpiDevice@Net@2@VBufferCmp@2@V?$allocator@U?$pair@$$CBVBrn@OpenHome@@PAVCpiDevice@Net@2@@std@@@std@@$0A@@std@@@std@@QAE?AU?$pair@V?$_Tree_iterator@V?$_Tree_val@V?$_Tmap_traits@VBrn@OpenHome@@PAVCpiDevice@Net@2@VBufferCmp@2@V?$allocator@U?$pair@$$CBVBrn@OpenHome@@PAVCpiDevice@Net@2@@std@@@std@@$0A@@std@@@std@@@std@@_N@1@$$QAU?$pair@VBrn@OpenHome@@PAVCpiDevice@Net@2@@1@@Z 0043cad0 f i libohNetCore:CpiDevice.obj
 0001:0003bb30       ??$addressof@U?$pair@$$CBVBrn@OpenHome@@PAVCpiDevice@Net@2@@std@@@std@@YGPAU?$pair@$$CBVBrn@OpenHome@@PAVCpiDevice@Net@2@@0@AAU10@@Z 0043cb30 f i libohNetCore:CpiDevice.obj
 0001:0003bb40       ??$_Dest_val@V?$allocator@U?$pair@$$CBVBrn@OpenHome@@PAVCpiDevice@Net@2@@std@@@std@@U?$pair@$$CBVBrn@OpenHome@@PAVCpiDevice@Net@2@@2@@std@@YGXAAV?$allocator@U?$pair@$$CBVBrn@OpenHome@@PAVCpiDevice@Net@2@@std@@@0@PAU?$pair@$$CBVBrn@OpenHome@@PAVCpiDevice@Net@2@@0@@Z 0043cb40 f i libohNetCore:CpiDevice.obj
 0001:0003bb60       ??$_Kfn@$$CBVBrn@OpenHome@@PAVCpiDevice@Net@2@@?$_Tmap_traits@VBrn@OpenHome@@PAVCpiDevice@Net@2@VBufferCmp@2@V?$allocator@U?$pair@$$CBVBrn@OpenHome@@PAVCpiDevice@Net@2@@std@@@std@@$0A@@std@@SGABVBrn@OpenHome@@ABU?$pair@$$CBVBrn@OpenHome@@PAVCpiDevice@Net@2@@1@@Z 0043cb60 f i libohNetCore:CpiDevice.obj
 0001:0003bb70       ??$_Dest_val@V?$allocator@U_Node@?$_List_nod@PAVUpdateBase@CpiDeviceListUpdater@Net@OpenHome@@V?$allocator@PAVUpdateBase@CpiDeviceListUpdater@Net@OpenHome@@@std@@@std@@@std@@U_Node@?$_List_nod@PAVUpdateBase@CpiDeviceListUpdater@Net@OpenHome@@V?$allocator@PAVUpdateBase@CpiDeviceListUpdater@Net@OpenHome@@@std@@@2@@std@@YGXAAV?$allocator@U_Node@?$_List_nod@PAVUpdateBase@CpiDeviceListUpdater@Net@OpenHome@@V?$allocator@PAVUpdateBase@CpiDeviceListUpdater@Net@OpenHome@@@std@@@std@@@0@PAU_Node@?$_List_nod@PAVUpdateBase@CpiDeviceListUpdater@Net@OpenHome@@V?$allocator@PAVUpdateBase@CpiDeviceListUpdater@Net@OpenHome@@@std@@@0@@Z 0043cb70 f i libohNetCore:CpiDevice.obj
 0001:0003bb90       ??$?0U_Node@?$_Tree_nod@V?$_Tmap_traits@VBrn@OpenHome@@PAVCpiDevice@Net@2@VBufferCmp@2@V?$allocator@U?$pair@$$CBVBrn@OpenHome@@PAVCpiDevice@Net@2@@std@@@std@@$0A@@std@@@std@@@?$allocator@U_Container_proxy@std@@@std@@QAE@ABV?$allocator@U_Node@?$_Tree_nod@V?$_Tmap_traits@VBrn@OpenHome@@PAVCpiDevice@Net@2@VBufferCmp@2@V?$allocator@U?$pair@$$CBVBrn@OpenHome@@PAVCpiDevice@Net@2@@std@@@std@@$0A@@std@@@std@@@1@@Z 0043cb90 f i libohNetCore:CpiDevice.obj
 0001:0003bbb0       ??$addressof@PAVUpdateBase@CpiDeviceListUpdater@Net@OpenHome@@@std@@YGPAPAVUpdateBase@CpiDeviceListUpdater@Net@OpenHome@@AAPAV1234@@Z 0043cbb0 f i libohNetCore:CpiDevice.obj
 0001:0003bbc0       ??$_Cons_val@V?$allocator@PAVUpdateBase@CpiDeviceListUpdater@Net@OpenHome@@@std@@PAVUpdateBase@CpiDeviceListUpdater@Net@OpenHome@@ABQAV3456@@std@@YGXAAV?$allocator@PAVUpdateBase@CpiDeviceListUpdater@Net@OpenHome@@@0@PAPAVUpdateBase@CpiDeviceListUpdater@Net@OpenHome@@ABQAV2345@@Z 0043cbc0 f i libohNetCore:CpiDevice.obj
 0001:0003bbf0       ??$?0PAVUpdateBase@CpiDeviceListUpdater@Net@OpenHome@@@?$allocator@U_Node@?$_List_nod@PAVUpdateBase@CpiDeviceListUpdater@Net@OpenHome@@V?$allocator@PAVUpdateBase@CpiDeviceListUpdater@Net@OpenHome@@@std@@@std@@@std@@QAE@ABV?$allocator@PAVUpdateBase@CpiDeviceListUpdater@Net@OpenHome@@@1@@Z 0043cbf0 f i libohNetCore:CpiDevice.obj
 0001:0003bc10       ??$?0U_Node@?$_List_nod@PAVUpdateBase@CpiDeviceListUpdater@Net@OpenHome@@V?$allocator@PAVUpdateBase@CpiDeviceListUpdater@Net@OpenHome@@@std@@@std@@@?$allocator@U_Container_proxy@std@@@std@@QAE@ABV?$allocator@U_Node@?$_List_nod@PAVUpdateBase@CpiDeviceListUpdater@Net@OpenHome@@V?$allocator@PAVUpdateBase@CpiDeviceListUpdater@Net@OpenHome@@@std@@@std@@@1@@Z 0043cc10 f i libohNetCore:CpiDevice.obj
 0001:0003bc30       ??$_Allocate@U_Node@?$_List_nod@PAVUpdateBase@CpiDeviceListUpdater@Net@OpenHome@@V?$allocator@PAVUpdateBase@CpiDeviceListUpdater@Net@OpenHome@@@std@@@std@@@std@@YGPAU_Node@?$_List_nod@PAVUpdateBase@CpiDeviceListUpdater@Net@OpenHome@@V?$allocator@PAVUpdateBase@CpiDeviceListUpdater@Net@OpenHome@@@std@@@0@IPAU120@@Z 0043cc30 f i libohNetCore:CpiDevice.obj
 0001:0003bcb0       ??$?0U?$pair@$$CBVBrn@OpenHome@@PAVCpiDevice@Net@2@@std@@@?$allocator@U_Node@?$_Tree_nod@V?$_Tmap_traits@VBrn@OpenHome@@PAVCpiDevice@Net@2@VBufferCmp@2@V?$allocator@U?$pair@$$CBVBrn@OpenHome@@PAVCpiDevice@Net@2@@std@@@std@@$0A@@std@@@std@@@std@@QAE@ABV?$allocator@U?$pair@$$CBVBrn@OpenHome@@PAVCpiDevice@Net@2@@std@@@1@@Z 0043ccb0 f i libohNetCore:CpiDevice.obj
 0001:0003bcd0       ??$_Allocate@U_Node@?$_Tree_nod@V?$_Tmap_traits@VBrn@OpenHome@@PAVCpiDevice@Net@2@VBufferCmp@2@V?$allocator@U?$pair@$$CBVBrn@OpenHome@@PAVCpiDevice@Net@2@@std@@@std@@$0A@@std@@@std@@@std@@YGPAU_Node@?$_Tree_nod@V?$_Tmap_traits@VBrn@OpenHome@@PAVCpiDevice@Net@2@VBufferCmp@2@V?$allocator@U?$pair@$$CBVBrn@OpenHome@@PAVCpiDevice@Net@2@@std@@@std@@$0A@@std@@@0@IPAU120@@Z 0043ccd0 f i libohNetCore:CpiDevice.obj
 0001:0003bd50       ?_Linsert@?$_Tree@V?$_Tmap_traits@VBrn@OpenHome@@PAVCpiDevice@Net@2@VBufferCmp@2@V?$allocator@U?$pair@$$CBVBrn@OpenHome@@PAVCpiDevice@Net@2@@std@@@std@@$0A@@std@@@std@@QAE?AU?$pair@V?$_Tree_iterator@V?$_Tree_val@V?$_Tmap_traits@VBrn@OpenHome@@PAVCpiDevice@Net@2@VBufferCmp@2@V?$allocator@U?$pair@$$CBVBrn@OpenHome@@PAVCpiDevice@Net@2@@std@@@std@@$0A@@std@@@std@@@std@@_N@2@PAU_Node@?$_Tree_nod@V?$_Tmap_traits@VBrn@OpenHome@@PAVCpiDevice@Net@2@VBufferCmp@2@V?$allocator@U?$pair@$$CBVBrn@OpenHome@@PAVCpiDevice@Net@2@@std@@@std@@$0A@@std@@@2@_N@Z 0043cd50 f i libohNetCore:CpiDevice.obj
 0001:0003c130       ?destroy@?$allocator@U?$pair@$$CBVBrn@OpenHome@@PAVCpiDevice@Net@2@@std@@@std@@QAEXPAU?$pair@$$CBVBrn@OpenHome@@PAVCpiDevice@Net@2@@2@@Z 0043d130 f i libohNetCore:CpiDevice.obj
 0001:0003c160       ?construct@?$allocator@PAVUpdateBase@CpiDeviceListUpdater@Net@OpenHome@@@std@@QAEXPAPAVUpdateBase@CpiDeviceListUpdater@Net@OpenHome@@ABQAV3456@@Z 0043d160 f i libohNetCore:CpiDevice.obj
 0001:0003c190       ?destroy@?$allocator@U_Node@?$_List_nod@PAVUpdateBase@CpiDeviceListUpdater@Net@OpenHome@@V?$allocator@PAVUpdateBase@CpiDeviceListUpdater@Net@OpenHome@@@std@@@std@@@std@@QAEXPAU_Node@?$_List_nod@PAVUpdateBase@CpiDeviceListUpdater@Net@OpenHome@@V?$allocator@PAVUpdateBase@CpiDeviceListUpdater@Net@OpenHome@@@std@@@2@@Z 0043d190 f i libohNetCore:CpiDevice.obj
 0001:0003c1c0       ?_Insert@?$_Tree@V?$_Tmap_traits@VBrn@OpenHome@@PAVCpiDevice@Net@2@VBufferCmp@2@V?$allocator@U?$pair@$$CBVBrn@OpenHome@@PAVCpiDevice@Net@2@@std@@@std@@$0A@@std@@@std@@IAE?AV?$_Tree_iterator@V?$_Tree_val@V?$_Tmap_traits@VBrn@OpenHome@@PAVCpiDevice@Net@2@VBufferCmp@2@V?$allocator@U?$pair@$$CBVBrn@OpenHome@@PAVCpiDevice@Net@2@@std@@@std@@$0A@@std@@@std@@@2@_NPAU_Node@?$_Tree_nod@V?$_Tmap_traits@VBrn@OpenHome@@PAVCpiDevice@Net@2@VBufferCmp@2@V?$allocator@U?$pair@$$CBVBrn@OpenHome@@PAVCpiDevice@Net@2@@std@@@std@@$0A@@std@@@2@1@Z 0043d1c0 f i libohNetCore:CpiDevice.obj
 0001:0003c580       ??F?$_Tree_iterator@V?$_Tree_val@V?$_Tmap_traits@VBrn@OpenHome@@PAVCpiDevice@Net@2@VBufferCmp@2@V?$allocator@U?$pair@$$CBVBrn@OpenHome@@PAVCpiDevice@Net@2@@std@@@std@@$0A@@std@@@std@@@std@@QAEAAV01@XZ 0043d580 f i libohNetCore:CpiDevice.obj
 0001:0003c5b0       ??0?$pair@V?$_Tree_iterator@V?$_Tree_val@V?$_Tmap_traits@VBrn@OpenHome@@PAVCpiDevice@Net@2@VBufferCmp@2@V?$allocator@U?$pair@$$CBVBrn@OpenHome@@PAVCpiDevice@Net@2@@std@@@std@@$0A@@std@@@std@@@std@@_N@std@@QAE@$$QAV?$_Tree_iterator@V?$_Tree_val@V?$_Tmap_traits@VBrn@OpenHome@@PAVCpiDevice@Net@2@VBufferCmp@2@V?$allocator@U?$pair@$$CBVBrn@OpenHome@@PAVCpiDevice@Net@2@@std@@@std@@$0A@@std@@@std@@@1@$$QA_N@Z 0043d5b0 f i libohNetCore:CpiDevice.obj
 0001:0003c5f0       ?max_size@?$_Tree@V?$_Tmap_traits@VBrn@OpenHome@@PAVCpiDevice@Net@2@VBufferCmp@2@V?$allocator@U?$pair@$$CBVBrn@OpenHome@@PAVCpiDevice@Net@2@@std@@@std@@$0A@@std@@@std@@QBEIXZ 0043d5f0 f i libohNetCore:CpiDevice.obj
 0001:0003c620       ??F?$_Tree_const_iterator@V?$_Tree_val@V?$_Tmap_traits@VBrn@OpenHome@@PAVCpiDevice@Net@2@VBufferCmp@2@V?$allocator@U?$pair@$$CBVBrn@OpenHome@@PAVCpiDevice@Net@2@@std@@@std@@$0A@@std@@@std@@@std@@QAEAAV01@XZ 0043d620 f i libohNetCore:CpiDevice.obj
 0001:0003c740       ??0?$_Pair_base@V?$_Tree_iterator@V?$_Tree_val@V?$_Tmap_traits@VBrn@OpenHome@@PAVCpiDevice@Net@2@VBufferCmp@2@V?$allocator@U?$pair@$$CBVBrn@OpenHome@@PAVCpiDevice@Net@2@@std@@@std@@$0A@@std@@@std@@@std@@_N@std@@QAE@$$QAV?$_Tree_iterator@V?$_Tree_val@V?$_Tmap_traits@VBrn@OpenHome@@PAVCpiDevice@Net@2@VBufferCmp@2@V?$allocator@U?$pair@$$CBVBrn@OpenHome@@PAVCpiDevice@Net@2@@std@@@std@@$0A@@std@@@std@@@1@$$QA_N@Z 0043d740 f i libohNetCore:CpiDevice.obj
 0001:0003c7c0       ?max_size@?$allocator@U?$pair@$$CBVBrn@OpenHome@@PAVCpiDevice@Net@2@@std@@@std@@QBEIXZ 0043d7c0 f i libohNetCore:CpiDevice.obj
 0001:0003c810       ??F?$_Tree_unchecked_const_iterator@V?$_Tree_val@V?$_Tmap_traits@VBrn@OpenHome@@PAVCpiDevice@Net@2@VBufferCmp@2@V?$allocator@U?$pair@$$CBVBrn@OpenHome@@PAVCpiDevice@Net@2@@std@@@std@@$0A@@std@@@std@@U_Iterator_base12@2@@std@@QAEAAV01@XZ 0043d810 f i libohNetCore:CpiDevice.obj
 0001:0003c900       ??$forward@AAPAVCpiDevice@Net@OpenHome@@@std@@YGAAPAVCpiDevice@Net@OpenHome@@AAPAV123@@Z 0043d900 f i libohNetCore:CpiDevice.obj
 0001:0003c910       ??$?0AAVBrn@OpenHome@@AAPAVCpiDevice@Net@1@@?$_Pair_base@VBrn@OpenHome@@PAVCpiDevice@Net@2@@std@@QAE@AAVBrn@OpenHome@@AAPAVCpiDevice@Net@3@@Z 0043d910 f i libohNetCore:CpiDevice.obj
 0001:0003c990       ??$forward@U?$pair@VBrn@OpenHome@@PAVCpiDevice@Net@2@@std@@@std@@YG$$QAU?$pair@VBrn@OpenHome@@PAVCpiDevice@Net@2@@0@AAU10@@Z 0043d990 f i libohNetCore:CpiDevice.obj
 0001:0003c9a0       ??$_Buynode@U?$pair@VBrn@OpenHome@@PAVCpiDevice@Net@2@@std@@@?$_Tree_val@V?$_Tmap_traits@VBrn@OpenHome@@PAVCpiDevice@Net@2@VBufferCmp@2@V?$allocator@U?$pair@$$CBVBrn@OpenHome@@PAVCpiDevice@Net@2@@std@@@std@@$0A@@std@@@std@@QAEPAU_Node@?$_Tree_nod@V?$_Tmap_traits@VBrn@OpenHome@@PAVCpiDevice@Net@2@VBufferCmp@2@V?$allocator@U?$pair@$$CBVBrn@OpenHome@@PAVCpiDevice@Net@2@@std@@@std@@$0A@@std@@@1@$$QAU?$pair@VBrn@OpenHome@@PAVCpiDevice@Net@2@@1@@Z 0043d9a0 f i libohNetCore:CpiDevice.obj
 0001:0003ca80       ??$forward@ABQAVUpdateBase@CpiDeviceListUpdater@Net@OpenHome@@@std@@YGABQAVUpdateBase@CpiDeviceListUpdater@Net@OpenHome@@ABQAV1234@@Z 0043da80 f i libohNetCore:CpiDevice.obj
 0001:0003ca90       ??$?0AAV?$_Tree_iterator@V?$_Tree_val@V?$_Tmap_traits@VBrn@OpenHome@@PAVCpiDevice@Net@2@VBufferCmp@2@V?$allocator@U?$pair@$$CBVBrn@OpenHome@@PAVCpiDevice@Net@2@@std@@@std@@$0A@@std@@@std@@@std@@_N@?$pair@V?$_Tree_iterator@V?$_Tree_val@V?$_Tmap_traits@VBrn@OpenHome@@PAVCpiDevice@Net@2@VBufferCmp@2@V?$allocator@U?$pair@$$CBVBrn@OpenHome@@PAVCpiDevice@Net@2@@std@@@std@@$0A@@std@@@std@@@std@@_N@std@@QAE@AAV?$_Tree_iterator@V?$_Tree_val@V?$_Tmap_traits@VBrn@OpenHome@@PAVCpiDevice@Net@2@VBufferCmp@2@V?$allocator@U?$pair@$$CBVBrn@OpenHome@@PAVCpiDevice@Net@2@@std@@@std@@$0A@@std@@@std@@@1@$$QA_N@Z 0043da90 f i libohNetCore:CpiDevice.obj
 0001:0003cad0       ??$_Destroy@U?$pair@$$CBVBrn@OpenHome@@PAVCpiDevice@Net@2@@std@@@std@@YGXPAU?$pair@$$CBVBrn@OpenHome@@PAVCpiDevice@Net@2@@0@@Z 0043dad0 f i libohNetCore:CpiDevice.obj
 0001:0003caf0       ??$_Construct@PAVUpdateBase@CpiDeviceListUpdater@Net@OpenHome@@ABQAV1234@@std@@YGXPAPAVUpdateBase@CpiDeviceListUpdater@Net@OpenHome@@ABQAV1234@@Z 0043daf0 f i libohNetCore:CpiDevice.obj
 0001:0003cba0       ??$_Destroy@U_Node@?$_List_nod@PAVUpdateBase@CpiDeviceListUpdater@Net@OpenHome@@V?$allocator@PAVUpdateBase@CpiDeviceListUpdater@Net@OpenHome@@@std@@@std@@@std@@YGXPAU_Node@?$_List_nod@PAVUpdateBase@CpiDeviceListUpdater@Net@OpenHome@@V?$allocator@PAVUpdateBase@CpiDeviceListUpdater@Net@OpenHome@@@std@@@0@@Z 0043dba0 f i libohNetCore:CpiDevice.obj
 0001:0003cbb0       ??$move@AAV?$_Tree_iterator@V?$_Tree_val@V?$_Tmap_traits@VBrn@OpenHome@@PAVCpiDevice@Net@2@VBufferCmp@2@V?$allocator@U?$pair@$$CBVBrn@OpenHome@@PAVCpiDevice@Net@2@@std@@@std@@$0A@@std@@@std@@@std@@@std@@YG$$QAV?$_Tree_iterator@V?$_Tree_val@V?$_Tmap_traits@VBrn@OpenHome@@PAVCpiDevice@Net@2@VBufferCmp@2@V?$allocator@U?$pair@$$CBVBrn@OpenHome@@PAVCpiDevice@Net@2@@std@@@std@@$0A@@std@@@std@@@0@AAV10@@Z 0043dbb0 f i libohNetCore:CpiDevice.obj
 0001:0003cbc0       ??_G?$pair@$$CBVBrn@OpenHome@@PAVCpiDevice@Net@2@@std@@QAEPAXI@Z 0043dbc0 f i libohNetCore:CpiDevice.obj
 0001:0003cc00       ??1?$pair@$$CBVBrn@OpenHome@@PAVCpiDevice@Net@2@@std@@QAE@XZ 0043dc00 f i libohNetCore:CpiDevice.obj
 0001:0003cc30       ??1?$_Pair_base@$$CBVBrn@OpenHome@@PAVCpiDevice@Net@2@@std@@QAE@XZ 0043dc30 f i libohNetCore:CpiDevice.obj
 0001:0003cc60       ?_Buynode@?$_Tree_val@V?$_Tmap_traits@VBrn@OpenHome@@PAVCpiDevice@Net@2@VBufferCmp@2@V?$allocator@U?$pair@$$CBVBrn@OpenHome@@PAVCpiDevice@Net@2@@std@@@std@@$0A@@std@@@std@@QAEPAU_Node@?$_Tree_nod@V?$_Tmap_traits@VBrn@OpenHome@@PAVCpiDevice@Net@2@VBufferCmp@2@V?$allocator@U?$pair@$$CBVBrn@OpenHome@@PAVCpiDevice@Net@2@@std@@@std@@$0A@@std@@@2@XZ 0043dc60 f i libohNetCore:CpiDevice.obj
 0001:0003ccf0       ??$_Cons_val@V?$allocator@U?$pair@$$CBVBrn@OpenHome@@PAVCpiDevice@Net@2@@std@@@std@@U?$pair@$$CBVBrn@OpenHome@@PAVCpiDevice@Net@2@@2@U?$pair@VBrn@OpenHome@@PAVCpiDevice@Net@2@@2@@std@@YGXAAV?$allocator@U?$pair@$$CBVBrn@OpenHome@@PAVCpiDevice@Net@2@@std@@@0@PAU?$pair@$$CBVBrn@OpenHome@@PAVCpiDevice@Net@2@@0@$$QAU?$pair@VBrn@OpenHome@@PAVCpiDevice@Net@2@@0@@Z 0043dcf0 f i libohNetCore:CpiDevice.obj
 0001:0003cd20       ??$forward@AAV?$_Tree_iterator@V?$_Tree_val@V?$_Tmap_traits@VBrn@OpenHome@@PAVCpiDevice@Net@2@VBufferCmp@2@V?$allocator@U?$pair@$$CBVBrn@OpenHome@@PAVCpiDevice@Net@2@@std@@@std@@$0A@@std@@@std@@@std@@@std@@YGAAV?$_Tree_iterator@V?$_Tree_val@V?$_Tmap_traits@VBrn@OpenHome@@PAVCpiDevice@Net@2@VBufferCmp@2@V?$allocator@U?$pair@$$CBVBrn@OpenHome@@PAVCpiDevice@Net@2@@std@@@std@@$0A@@std@@@std@@@0@AAV10@@Z 0043dd20 f i libohNetCore:CpiDevice.obj
 0001:0003cd30       ??$?0AAV?$_Tree_iterator@V?$_Tree_val@V?$_Tmap_traits@VBrn@OpenHome@@PAVCpiDevice@Net@2@VBufferCmp@2@V?$allocator@U?$pair@$$CBVBrn@OpenHome@@PAVCpiDevice@Net@2@@std@@@std@@$0A@@std@@@std@@@std@@_N@?$_Pair_base@V?$_Tree_iterator@V?$_Tree_val@V?$_Tmap_traits@VBrn@OpenHome@@PAVCpiDevice@Net@2@VBufferCmp@2@V?$allocator@U?$pair@$$CBVBrn@OpenHome@@PAVCpiDevice@Net@2@@std@@@std@@$0A@@std@@@std@@@std@@_N@std@@QAE@AAV?$_Tree_iterator@V?$_Tree_val@V?$_Tmap_traits@VBrn@OpenHome@@PAVCpiDevice@Net@2@VBufferCmp@2@V?$allocator@U?$pair@$$CBVBrn@OpenHome@@PAVCpiDevice@Net@2@@std@@@std@@$0A@@std@@@std@@@1@$$QA_N@Z 0043dd30 f i libohNetCore:CpiDevice.obj
 0001:0003cdb0       ??$construct@U?$pair@VBrn@OpenHome@@PAVCpiDevice@Net@2@@std@@@?$allocator@U?$pair@$$CBVBrn@OpenHome@@PAVCpiDevice@Net@2@@std@@@std@@QAEXPAU?$pair@$$CBVBrn@OpenHome@@PAVCpiDevice@Net@2@@1@$$QAU?$pair@VBrn@OpenHome@@PAVCpiDevice@Net@2@@1@@Z 0043ddb0 f i libohNetCore:CpiDevice.obj
 0001:0003ce50       ??$?0VBrn@OpenHome@@PAVCpiDevice@Net@1@@?$pair@$$CBVBrn@OpenHome@@PAVCpiDevice@Net@2@@std@@QAE@$$QAU?$pair@VBrn@OpenHome@@PAVCpiDevice@Net@2@@1@@Z 0043de50 f i libohNetCore:CpiDevice.obj
 0001:0003ce90       ??$forward@PAVCpiDevice@Net@OpenHome@@@std@@YG$$QAPAVCpiDevice@Net@OpenHome@@AAPAV123@@Z 0043de90 f i libohNetCore:CpiDevice.obj
 0001:0003cea0       ??$?0VBrn@OpenHome@@PAVCpiDevice@Net@1@@?$_Pair_base@$$CBVBrn@OpenHome@@PAVCpiDevice@Net@2@@std@@QAE@$$QAVBrn@OpenHome@@$$QAPAVCpiDevice@Net@3@@Z 0043dea0 f i libohNetCore:CpiDevice.obj
 0001:0003cf20       ?Sid@CpiSubscription@Net@OpenHome@@QBEABVBrx@3@XZ 0043df20 f   libohNetCore:CpiSubscription.obj
 0001:0003cf40       ?AddRef@CpiSubscription@Net@OpenHome@@QAEXXZ 0043df40 f   libohNetCore:CpiSubscription.obj
 0001:0003cf90       ?RemoveRef@CpiSubscription@Net@OpenHome@@QAEXXZ 0043df90 f   libohNetCore:CpiSubscription.obj
 0001:0003d050       ?UpdateSequenceNumber@CpiSubscription@Net@OpenHome@@QAE_NI@Z 0043e050 f   libohNetCore:CpiSubscription.obj
 0001:0003d090       ?SetNotificationError@CpiSubscription@Net@OpenHome@@QAEXXZ 0043e090 f   libohNetCore:CpiSubscription.obj
 0001:0003d0c0       ?Unsubscribe@CpiSubscription@Net@OpenHome@@QAEXXZ 0043e0c0 f   libohNetCore:CpiSubscription.obj
 0001:0003d150       ?SetInterruptHandler@CpiSubscription@Net@OpenHome@@QAEXPAVIInterruptHandler@23@@Z 0043e150 f   libohNetCore:CpiSubscription.obj
 0001:0003d190       ?SetSid@CpiSubscription@Net@OpenHome@@QAEXAAVBrh@3@@Z 0043e190 f   libohNetCore:CpiSubscription.obj
 0001:0003d1e0       ?ServiceType@CpiSubscription@Net@OpenHome@@QBEABV023@XZ 0043e1e0 f   libohNetCore:CpiSubscription.obj
 0001:0003d200       ?RunInSubscriber@CpiSubscription@Net@OpenHome@@QAEXXZ 0043e200 f   libohNetCore:CpiSubscription.obj
 0001:0003d270       ?RunInSubscriber@CpiSubscription@Net@OpenHome@@AAEXW4EOperation@123@@Z 0043e270 f   libohNetCore:CpiSubscription.obj
 0001:0003d380       ??0CpiSubscription@Net@OpenHome@@AAE@AAVCpiDevice@12@AAVIEventProcessor@12@ABVServiceType@12@@Z 0043e380 f   libohNetCore:CpiSubscription.obj
 0001:0003d550       ??1CpiSubscription@Net@OpenHome@@AAE@XZ 0043e550 f   libohNetCore:CpiSubscription.obj
 0001:0003d6a0       ?Schedule@CpiSubscription@Net@OpenHome@@AAEXW4EOperation@123@@Z 0043e6a0 f   libohNetCore:CpiSubscription.obj
 0001:0003d720       ?DoSubscribe@CpiSubscription@Net@OpenHome@@AAEXXZ 0043e720 f   libohNetCore:CpiSubscription.obj
 0001:0003ddd0       ?Renew@CpiSubscription@Net@OpenHome@@AAEXXZ 0043edd0 f   libohNetCore:CpiSubscription.obj
 0001:0003de00       ?DoRenew@CpiSubscription@Net@OpenHome@@AAEXXZ 0043ee00 f   libohNetCore:CpiSubscription.obj
 0001:0003e050       ?DoUnsubscribe@CpiSubscription@Net@OpenHome@@AAEXXZ 0043f050 f   libohNetCore:CpiSubscription.obj
 0001:0003e250       ?NotifyAddAborted@CpiSubscription@Net@OpenHome@@AAEXXZ 0043f250 f   libohNetCore:CpiSubscription.obj
 0001:0003e290       ?EventUpdateStart@CpiSubscription@Net@OpenHome@@EAEXXZ 0043f290 f   libohNetCore:CpiSubscription.obj
 0001:0003e2e0       ?EventUpdate@CpiSubscription@Net@OpenHome@@EAEXABVBrx@3@0AAVIOutputProcessor@23@@Z 0043f2e0 f   libohNetCore:CpiSubscription.obj
 0001:0003e340       ?EventUpdateEnd@CpiSubscription@Net@OpenHome@@EAEXXZ 0043f340 f   libohNetCore:CpiSubscription.obj
 0001:0003e390       ??0Subscriber@Net@OpenHome@@QAE@PBDAAV?$Fifo@PAVSubscriber@Net@OpenHome@@@2@@Z 0043f390 f   libohNetCore:CpiSubscription.obj
 0001:0003e3e0       ??1Subscriber@Net@OpenHome@@UAE@XZ 0043f3e0 f   libohNetCore:CpiSubscription.obj
 0001:0003e460       ?Subscribe@Subscriber@Net@OpenHome@@QAEXPAVCpiSubscription@23@@Z 0043f460 f   libohNetCore:CpiSubscription.obj
 0001:0003e490       ?Error@Subscriber@Net@OpenHome@@AAEXPBD@Z 0043f490 f   libohNetCore:CpiSubscription.obj
 0001:0003e560       ?Run@Subscriber@Net@OpenHome@@EAEXXZ 0043f560 f   libohNetCore:CpiSubscription.obj
 0001:0003e670       ??0CpiSubscriptionManager@Net@OpenHome@@QAE@XZ 0043f670 f   libohNetCore:CpiSubscription.obj
 0001:0003ea60       ??1CpiSubscriptionManager@Net@OpenHome@@UAE@XZ 0043fa60 f   libohNetCore:CpiSubscription.obj
 0001:0003ed30       ?NewSubscription@CpiSubscriptionManager@Net@OpenHome@@SGPAVCpiSubscription@23@AAVCpiDevice@23@AAVIEventProcessor@23@ABVServiceType@23@@Z 0043fd30 f   libohNetCore:CpiSubscription.obj
 0001:0003ede0       ?NotifyAddPending@CpiSubscriptionManager@Net@OpenHome@@SGXAAVCpiSubscription@23@@Z 0043fde0 f   libohNetCore:CpiSubscription.obj
 0001:0003ee30       ?NotifyAddAborted@CpiSubscriptionManager@Net@OpenHome@@SGXAAVCpiSubscription@23@@Z 0043fe30 f   libohNetCore:CpiSubscription.obj
 0001:0003ee80       ?WaitForPendingAdds@CpiSubscriptionManager@Net@OpenHome@@SGXXZ 0043fe80 f   libohNetCore:CpiSubscription.obj
 0001:0003ef80       ?Add@CpiSubscriptionManager@Net@OpenHome@@SGXAAVCpiSubscription@23@@Z 0043ff80 f   libohNetCore:CpiSubscription.obj
 0001:0003f0c0       ?FindSubscription@CpiSubscriptionManager@Net@OpenHome@@SGPAVCpiSubscription@23@ABVBrx@3@@Z 004400c0 f   libohNetCore:CpiSubscription.obj
 0001:0003f260       ?Remove@CpiSubscriptionManager@Net@OpenHome@@SGXAAVCpiSubscription@23@@Z 00440260 f   libohNetCore:CpiSubscription.obj
 0001:0003f420       ?Schedule@CpiSubscriptionManager@Net@OpenHome@@SGXAAVCpiSubscription@23@@Z 00440420 f   libohNetCore:CpiSubscription.obj
 0001:0003f490       ?EventServer@CpiSubscriptionManager@Net@OpenHome@@SGPAVEventServerUpnp@23@XZ 00440490 f   libohNetCore:CpiSubscription.obj
 0001:0003f4c0       ?Self@CpiSubscriptionManager@Net@OpenHome@@CGPAV123@XZ 004404c0 f   libohNetCore:CpiSubscription.obj
 0001:0003f4e0       ?RemovePendingAdd@CpiSubscriptionManager@Net@OpenHome@@AAEXAAVCpiSubscription@23@@Z 004404e0 f   libohNetCore:CpiSubscription.obj
 0001:0003f660       ?CurrentNetworkAdapterChanged@CpiSubscriptionManager@Net@OpenHome@@AAEXXZ 00440660 f   libohNetCore:CpiSubscription.obj
 0001:0003f690       ?SubnetListChanged@CpiSubscriptionManager@Net@OpenHome@@AAEXXZ 00440690 f   libohNetCore:CpiSubscription.obj
 0001:0003f6c0       ?HandleInterfaceChange@CpiSubscriptionManager@Net@OpenHome@@AAEX_N@Z 004406c0 f   libohNetCore:CpiSubscription.obj
 0001:0003fc40       ?Run@CpiSubscriptionManager@Net@OpenHome@@EAEXXZ 00440c40 f   libohNetCore:CpiSubscription.obj
 0001:0003fce0       ??_GCpiSubscription@Net@OpenHome@@AAEPAXI@Z 00440ce0 f i libohNetCore:CpiSubscription.obj
 0001:0003fd20       ??0WriterError@OpenHome@@QAE@PBDI@Z 00440d20 f i libohNetCore:CpiSubscription.obj
 0001:0003fd60       ??0NetworkError@OpenHome@@QAE@PBDI@Z 00440d60 f i libohNetCore:CpiSubscription.obj
 0001:0003fda0       ??0NetworkTimeout@OpenHome@@QAE@PBDI@Z 00440da0 f i libohNetCore:CpiSubscription.obj
 0001:0003fde0       ?AbsoluteUri@Uri@OpenHome@@QBEABVBrx@2@XZ 00440de0 f i libohNetCore:CpiSubscription.obj
 0001:0003fe00       ?Port@EventServerUpnp@Net@OpenHome@@QBEIXZ 00440e00 f i libohNetCore:CpiSubscription.obj
 0001:0003fe30       ?Port@SocketTcpServer@OpenHome@@QBEIXZ 00440e30 f i libohNetCore:CpiSubscription.obj
 0001:0003fe50       ??1?$Bws@$0EAA@@OpenHome@@UAE@XZ 00440e50 f i libohNetCore:CpiSubscription.obj
 0001:0003fe80       ??1NetworkError@OpenHome@@QAE@XZ 00440e80 f i libohNetCore:CpiSubscription.obj
 0001:0003feb0       ??1?$Bws@$0BG@@OpenHome@@UAE@XZ 00440eb0 f i libohNetCore:CpiSubscription.obj
 0001:0003fee0       ??1Uri@OpenHome@@QAE@XZ    00440ee0 f i libohNetCore:CpiSubscription.obj
 0001:0003ffe0       ??1NetworkTimeout@OpenHome@@QAE@XZ 00440fe0 f i libohNetCore:CpiSubscription.obj
 0001:00040010       ??1WriterError@OpenHome@@QAE@XZ 00441010 f i libohNetCore:CpiSubscription.obj
 0001:00040040       ??_ESubscriber@Net@OpenHome@@UAEPAXI@Z 00441040 f i libohNetCore:CpiSubscription.obj
 0001:00040040       ??_GSubscriber@Net@OpenHome@@UAEPAXI@Z 00441040 f i libohNetCore:CpiSubscription.obj
 0001:00040080       ??_GCpiSubscriptionManager@Net@OpenHome@@UAEPAXI@Z 00441080 f i libohNetCore:CpiSubscription.obj
 0001:00040080       ??_ECpiSubscriptionManager@Net@OpenHome@@UAEPAXI@Z 00441080 f i libohNetCore:CpiSubscription.obj
 0001:000400c0       ??1?$map@VBrn@OpenHome@@PAVCpiSubscription@Net@2@VBufferCmp@2@V?$allocator@U?$pair@$$CBVBrn@OpenHome@@PAVCpiSubscription@Net@2@@std@@@std@@@std@@QAE@XZ 004410c0 f i libohNetCore:CpiSubscription.obj
 0001:000400f0       ??_GEventServerUpnp@Net@OpenHome@@QAEPAXI@Z 004410f0 f i libohNetCore:CpiSubscription.obj
 0001:00040130       ??1EventServerUpnp@Net@OpenHome@@QAE@XZ 00441130 f i libohNetCore:CpiSubscription.obj
 0001:00040160       ??1?$pair@VBrn@OpenHome@@PAVCpiSubscription@Net@2@@std@@QAE@XZ 00441160 f i libohNetCore:CpiSubscription.obj
 0001:00040190       ??1?$pair@V?$_Tree_iterator@V?$_Tree_val@V?$_Tmap_traits@VBrn@OpenHome@@PAVCpiSubscription@Net@2@VBufferCmp@2@V?$allocator@U?$pair@$$CBVBrn@OpenHome@@PAVCpiSubscription@Net@2@@std@@@std@@$0A@@std@@@std@@@std@@_N@std@@QAE@XZ 00441190 f i libohNetCore:CpiSubscription.obj
 0001:000401c0       ??1?$_Pair_base@VBrn@OpenHome@@PAVCpiSubscription@Net@2@@std@@QAE@XZ 004411c0 f i libohNetCore:CpiSubscription.obj
 0001:000401f0       ??1?$_Pair_base@V?$_Tree_iterator@V?$_Tree_val@V?$_Tmap_traits@VBrn@OpenHome@@PAVCpiSubscription@Net@2@VBufferCmp@2@V?$allocator@U?$pair@$$CBVBrn@OpenHome@@PAVCpiSubscription@Net@2@@std@@@std@@$0A@@std@@@std@@@std@@_N@std@@QAE@XZ 004411f0 f i libohNetCore:CpiSubscription.obj
 0001:00040220       ??1?$_Tree_iterator@V?$_Tree_val@V?$_Tmap_traits@VBrn@OpenHome@@PAVCpiSubscription@Net@2@VBufferCmp@2@V?$allocator@U?$pair@$$CBVBrn@OpenHome@@PAVCpiSubscription@Net@2@@std@@@std@@$0A@@std@@@std@@@std@@QAE@XZ 00441220 f i libohNetCore:CpiSubscription.obj
 0001:00040250       ??1?$_Tree_const_iterator@V?$_Tree_val@V?$_Tmap_traits@VBrn@OpenHome@@PAVCpiSubscription@Net@2@VBufferCmp@2@V?$allocator@U?$pair@$$CBVBrn@OpenHome@@PAVCpiSubscription@Net@2@@std@@@std@@$0A@@std@@@std@@@std@@QAE@XZ 00441250 f i libohNetCore:CpiSubscription.obj
 0001:00040280       ??1?$_Tree_unchecked_const_iterator@V?$_Tree_val@V?$_Tmap_traits@VBrn@OpenHome@@PAVCpiSubscription@Net@2@VBufferCmp@2@V?$allocator@U?$pair@$$CBVBrn@OpenHome@@PAVCpiSubscription@Net@2@@std@@@std@@$0A@@std@@@std@@U_Iterator_base12@2@@std@@QAE@XZ 00441280 f i libohNetCore:CpiSubscription.obj
 0001:000402b0       ??1?$_Iterator012@Ubidirectional_iterator_tag@std@@U?$pair@$$CBVBrn@OpenHome@@PAVCpiSubscription@Net@2@@2@HPBU32@ABU32@U_Iterator_base12@2@@std@@QAE@XZ 004412b0 f i libohNetCore:CpiSubscription.obj
 0001:000402e0       ??0?$_Tree_const_iterator@V?$_Tree_val@V?$_Tmap_traits@VBrn@OpenHome@@PAVCpiSubscription@Net@2@VBufferCmp@2@V?$allocator@U?$pair@$$CBVBrn@OpenHome@@PAVCpiSubscription@Net@2@@std@@@std@@$0A@@std@@@std@@@std@@QAE@ABV01@@Z 004412e0 f i libohNetCore:CpiSubscription.obj
 0001:00040310       ??0?$_Tree_unchecked_const_iterator@V?$_Tree_val@V?$_Tmap_traits@VBrn@OpenHome@@PAVCpiSubscription@Net@2@VBufferCmp@2@V?$allocator@U?$pair@$$CBVBrn@OpenHome@@PAVCpiSubscription@Net@2@@std@@@std@@$0A@@std@@@std@@U_Iterator_base12@2@@std@@QAE@ABV01@@Z 00441310 f i libohNetCore:CpiSubscription.obj
 0001:00040350       ??0?$_Iterator012@Ubidirectional_iterator_tag@std@@U?$pair@$$CBVBrn@OpenHome@@PAVCpiSubscription@Net@2@@2@HPBU32@ABU32@U_Iterator_base12@2@@std@@QAE@ABU01@@Z 00441350 f i libohNetCore:CpiSubscription.obj
 0001:00040380       ??1?$_Vector_iterator@V?$_Vector_val@PAVCpiSubscription@Net@OpenHome@@V?$allocator@PAVCpiSubscription@Net@OpenHome@@@std@@@std@@@std@@QAE@XZ 00441380 f i libohNetCore:CpiSubscription.obj
 0001:000403b0       ??0?$_Vector_const_iterator@V?$_Vector_val@PAVCpiSubscription@Net@OpenHome@@V?$allocator@PAVCpiSubscription@Net@OpenHome@@@std@@@std@@@std@@QAE@ABV01@@Z 004413b0 f i libohNetCore:CpiSubscription.obj
 0001:000403f0       ??1?$_Vector_const_iterator@V?$_Vector_val@PAVCpiSubscription@Net@OpenHome@@V?$allocator@PAVCpiSubscription@Net@OpenHome@@@std@@@std@@@std@@QAE@XZ 004413f0 f i libohNetCore:CpiSubscription.obj
 0001:00040420       ??0?$_Iterator012@Urandom_access_iterator_tag@std@@PAVCpiSubscription@Net@OpenHome@@HPBQAV345@ABQAV345@U_Iterator_base12@2@@std@@QAE@ABU01@@Z 00441420 f i libohNetCore:CpiSubscription.obj
 0001:00040450       ??1?$_Iterator012@Urandom_access_iterator_tag@std@@PAVCpiSubscription@Net@OpenHome@@HPBQAV345@ABQAV345@U_Iterator_base12@2@@std@@QAE@XZ 00441450 f i libohNetCore:CpiSubscription.obj
 0001:00040480       ??4?$_Tree_iterator@V?$_Tree_val@V?$_Tmap_traits@VBrn@OpenHome@@PAVCpiSubscription@Net@2@VBufferCmp@2@V?$allocator@U?$pair@$$CBVBrn@OpenHome@@PAVCpiSubscription@Net@2@@std@@@std@@$0A@@std@@@std@@@std@@QAEAAV01@ABV01@@Z 00441480 f i libohNetCore:CpiSubscription.obj
 0001:000404b0       ??4?$_Tree_const_iterator@V?$_Tree_val@V?$_Tmap_traits@VBrn@OpenHome@@PAVCpiSubscription@Net@2@VBufferCmp@2@V?$allocator@U?$pair@$$CBVBrn@OpenHome@@PAVCpiSubscription@Net@2@@std@@@std@@$0A@@std@@@std@@@std@@QAEAAV01@ABV01@@Z 004414b0 f i libohNetCore:CpiSubscription.obj
 0001:000404e0       ??4?$_Tree_unchecked_const_iterator@V?$_Tree_val@V?$_Tmap_traits@VBrn@OpenHome@@PAVCpiSubscription@Net@2@VBufferCmp@2@V?$allocator@U?$pair@$$CBVBrn@OpenHome@@PAVCpiSubscription@Net@2@@std@@@std@@$0A@@std@@@std@@U_Iterator_base12@2@@std@@QAEAAV01@ABV01@@Z 004414e0 f i libohNetCore:CpiSubscription.obj
 0001:00040520       ??4?$_Iterator012@Ubidirectional_iterator_tag@std@@U?$pair@$$CBVBrn@OpenHome@@PAVCpiSubscription@Net@2@@2@HPBU32@ABU32@U_Iterator_base12@2@@std@@QAEAAU01@ABU01@@Z 00441520 f i libohNetCore:CpiSubscription.obj
 0001:00040550       ??0?$list@PAVCpiSubscription@Net@OpenHome@@V?$allocator@PAVCpiSubscription@Net@OpenHome@@@std@@@std@@QAE@XZ 00441550 f i libohNetCore:CpiSubscription.obj
 0001:00040590       ?push_back@?$list@PAVCpiSubscription@Net@OpenHome@@V?$allocator@PAVCpiSubscription@Net@OpenHome@@@std@@@std@@QAEX$$QAPAVCpiSubscription@Net@OpenHome@@@Z 00441590 f i libohNetCore:CpiSubscription.obj
 0001:00040650       ??1?$list@PAVCpiSubscription@Net@OpenHome@@V?$allocator@PAVCpiSubscription@Net@OpenHome@@@std@@@std@@QAE@XZ 00441650 f i libohNetCore:CpiSubscription.obj
 0001:000406c0       ?size@?$list@PAVCpiSubscription@Net@OpenHome@@V?$allocator@PAVCpiSubscription@Net@OpenHome@@@std@@@std@@QBEIXZ 004416c0 f i libohNetCore:CpiSubscription.obj
 0001:000406e0       ?front@?$list@PAVCpiSubscription@Net@OpenHome@@V?$allocator@PAVCpiSubscription@Net@OpenHome@@@std@@@std@@QAEAAPAVCpiSubscription@Net@OpenHome@@XZ 004416e0 f i libohNetCore:CpiSubscription.obj
 0001:00040780       ?pop_front@?$list@PAVCpiSubscription@Net@OpenHome@@V?$allocator@PAVCpiSubscription@Net@OpenHome@@@std@@@std@@QAEXXZ 00441780 f i libohNetCore:CpiSubscription.obj
 0001:00040830       ??0?$Fifo@PAVSubscriber@Net@OpenHome@@@OpenHome@@QAE@I@Z 00441830 f i libohNetCore:CpiSubscription.obj
 0001:000408d0       ??1?$Fifo@PAVSubscriber@Net@OpenHome@@@OpenHome@@QAE@XZ 004418d0 f i libohNetCore:CpiSubscription.obj
 0001:00040920       ??0?$map@VBrn@OpenHome@@PAVCpiSubscription@Net@2@VBufferCmp@2@V?$allocator@U?$pair@$$CBVBrn@OpenHome@@PAVCpiSubscription@Net@2@@std@@@std@@@std@@QAE@XZ 00441920 f i libohNetCore:CpiSubscription.obj
 0001:00040970       ??1?$_Tree@V?$_Tmap_traits@VBrn@OpenHome@@PAVCpiSubscription@Net@2@VBufferCmp@2@V?$allocator@U?$pair@$$CBVBrn@OpenHome@@PAVCpiSubscription@Net@2@@std@@@std@@$0A@@std@@@std@@QAE@XZ 00441970 f i libohNetCore:CpiSubscription.obj
 0001:000409e0       ?begin@?$_Tree@V?$_Tmap_traits@VBrn@OpenHome@@PAVCpiSubscription@Net@2@VBufferCmp@2@V?$allocator@U?$pair@$$CBVBrn@OpenHome@@PAVCpiSubscription@Net@2@@std@@@std@@$0A@@std@@@std@@QAE?AV?$_Tree_iterator@V?$_Tree_val@V?$_Tmap_traits@VBrn@OpenHome@@PAVCpiSubscription@Net@2@VBufferCmp@2@V?$allocator@U?$pair@$$CBVBrn@OpenHome@@PAVCpiSubscription@Net@2@@std@@@std@@$0A@@std@@@std@@@2@XZ 004419e0 f i libohNetCore:CpiSubscription.obj
 0001:00040a40       ?end@?$_Tree@V?$_Tmap_traits@VBrn@OpenHome@@PAVCpiSubscription@Net@2@VBufferCmp@2@V?$allocator@U?$pair@$$CBVBrn@OpenHome@@PAVCpiSubscription@Net@2@@std@@@std@@$0A@@std@@@std@@QAE?AV?$_Tree_iterator@V?$_Tree_val@V?$_Tmap_traits@VBrn@OpenHome@@PAVCpiSubscription@Net@2@VBufferCmp@2@V?$allocator@U?$pair@$$CBVBrn@OpenHome@@PAVCpiSubscription@Net@2@@std@@@std@@$0A@@std@@@std@@@2@XZ 00441a40 f i libohNetCore:CpiSubscription.obj
 0001:00040a90       ?size@?$_Tree@V?$_Tmap_traits@VBrn@OpenHome@@PAVCpiSubscription@Net@2@VBufferCmp@2@V?$allocator@U?$pair@$$CBVBrn@OpenHome@@PAVCpiSubscription@Net@2@@std@@@std@@$0A@@std@@@std@@QBEIXZ 00441a90 f i libohNetCore:CpiSubscription.obj
 0001:00040ab0       ?erase@?$_Tree@V?$_Tmap_traits@VBrn@OpenHome@@PAVCpiSubscription@Net@2@VBufferCmp@2@V?$allocator@U?$pair@$$CBVBrn@OpenHome@@PAVCpiSubscription@Net@2@@std@@@std@@$0A@@std@@@std@@QAE?AV?$_Tree_iterator@V?$_Tree_val@V?$_Tmap_traits@VBrn@OpenHome@@PAVCpiSubscription@Net@2@VBufferCmp@2@V?$allocator@U?$pair@$$CBVBrn@OpenHome@@PAVCpiSubscription@Net@2@@std@@@std@@$0A@@std@@@std@@@2@V?$_Tree_const_iterator@V?$_Tree_val@V?$_Tmap_traits@VBrn@OpenHome@@PAVCpiSubscription@Net@2@VBufferCmp@2@V?$allocator@U?$pair@$$CBVBrn@OpenHome@@PAVCpiSubscription@Net@2@@std@@@std@@$0A@@std@@@std@@@2@@Z 00441ab0 f i libohNetCore:CpiSubscription.obj
 0001:000411c0       ?find@?$_Tree@V?$_Tmap_traits@VBrn@OpenHome@@PAVCpiSubscription@Net@2@VBufferCmp@2@V?$allocator@U?$pair@$$CBVBrn@OpenHome@@PAVCpiSubscription@Net@2@@std@@@std@@$0A@@std@@@std@@QAE?AV?$_Tree_iterator@V?$_Tree_val@V?$_Tmap_traits@VBrn@OpenHome@@PAVCpiSubscription@Net@2@VBufferCmp@2@V?$allocator@U?$pair@$$CBVBrn@OpenHome@@PAVCpiSubscription@Net@2@@std@@@std@@$0A@@std@@@std@@@2@ABVBrn@OpenHome@@@Z 004421c0 f i libohNetCore:CpiSubscription.obj
 0001:000413a0       ??0?$vector@PAVCpiSubscription@Net@OpenHome@@V?$allocator@PAVCpiSubscription@Net@OpenHome@@@std@@@std@@QAE@XZ 004423a0 f i libohNetCore:CpiSubscription.obj
 0001:000413e0       ?push_back@?$vector@PAVCpiSubscription@Net@OpenHome@@V?$allocator@PAVCpiSubscription@Net@OpenHome@@@std@@@std@@QAEX$$QAPAVCpiSubscription@Net@OpenHome@@@Z 004423e0 f i libohNetCore:CpiSubscription.obj
 0001:00041500       ??1?$vector@PAVCpiSubscription@Net@OpenHome@@V?$allocator@PAVCpiSubscription@Net@OpenHome@@@std@@@std@@QAE@XZ 00442500 f i libohNetCore:CpiSubscription.obj
 0001:00041570       ?begin@?$vector@PAVCpiSubscription@Net@OpenHome@@V?$allocator@PAVCpiSubscription@Net@OpenHome@@@std@@@std@@QAE?AV?$_Vector_iterator@V?$_Vector_val@PAVCpiSubscription@Net@OpenHome@@V?$allocator@PAVCpiSubscription@Net@OpenHome@@@std@@@std@@@2@XZ 00442570 f i libohNetCore:CpiSubscription.obj
 0001:000415c0       ?size@?$vector@PAVCpiSubscription@Net@OpenHome@@V?$allocator@PAVCpiSubscription@Net@OpenHome@@@std@@@std@@QBEIXZ 004425c0 f i libohNetCore:CpiSubscription.obj
 0001:000415f0       ??A?$vector@PAVCpiSubscription@Net@OpenHome@@V?$allocator@PAVCpiSubscription@Net@OpenHome@@@std@@@std@@QAEAAPAVCpiSubscription@Net@OpenHome@@I@Z 004425f0 f i libohNetCore:CpiSubscription.obj
 0001:00041690       ?push_back@?$vector@PAVCpiSubscription@Net@OpenHome@@V?$allocator@PAVCpiSubscription@Net@OpenHome@@@std@@@std@@QAEXABQAVCpiSubscription@Net@OpenHome@@@Z 00442690 f i libohNetCore:CpiSubscription.obj
 0001:000417a0       ?erase@?$vector@PAVCpiSubscription@Net@OpenHome@@V?$allocator@PAVCpiSubscription@Net@OpenHome@@@std@@@std@@QAE?AV?$_Vector_iterator@V?$_Vector_val@PAVCpiSubscription@Net@OpenHome@@V?$allocator@PAVCpiSubscription@Net@OpenHome@@@std@@@std@@@2@V?$_Vector_const_iterator@V?$_Vector_val@PAVCpiSubscription@Net@OpenHome@@V?$allocator@PAVCpiSubscription@Net@OpenHome@@@std@@@std@@@2@@Z 004427a0 f i libohNetCore:CpiSubscription.obj
 0001:000418d0       ??C?$_Tree_iterator@V?$_Tree_val@V?$_Tmap_traits@VBrn@OpenHome@@PAVCpiSubscription@Net@2@VBufferCmp@2@V?$allocator@U?$pair@$$CBVBrn@OpenHome@@PAVCpiSubscription@Net@2@@std@@@std@@$0A@@std@@@std@@@std@@QBEPAU?$pair@$$CBVBrn@OpenHome@@PAVCpiSubscription@Net@2@@1@XZ 004428d0 f i libohNetCore:CpiSubscription.obj
 0001:00041900       ??E?$_Tree_iterator@V?$_Tree_val@V?$_Tmap_traits@VBrn@OpenHome@@PAVCpiSubscription@Net@2@VBufferCmp@2@V?$allocator@U?$pair@$$CBVBrn@OpenHome@@PAVCpiSubscription@Net@2@@std@@@std@@$0A@@std@@@std@@@std@@QAE?AV01@H@Z 00442900 f i libohNetCore:CpiSubscription.obj
 0001:000419d0       ??8?$_Tree_const_iterator@V?$_Tree_val@V?$_Tmap_traits@VBrn@OpenHome@@PAVCpiSubscription@Net@2@VBufferCmp@2@V?$allocator@U?$pair@$$CBVBrn@OpenHome@@PAVCpiSubscription@Net@2@@std@@@std@@$0A@@std@@@std@@@std@@QBE_NABV01@@Z 004429d0 f i libohNetCore:CpiSubscription.obj
 0001:00041a90       ??9?$_Tree_const_iterator@V?$_Tree_val@V?$_Tmap_traits@VBrn@OpenHome@@PAVCpiSubscription@Net@2@VBufferCmp@2@V?$allocator@U?$pair@$$CBVBrn@OpenHome@@PAVCpiSubscription@Net@2@@std@@@std@@$0A@@std@@@std@@@std@@QBE_NABV01@@Z 00442a90 f i libohNetCore:CpiSubscription.obj
 0001:00041ad0       ??H?$_Vector_iterator@V?$_Vector_val@PAVCpiSubscription@Net@OpenHome@@V?$allocator@PAVCpiSubscription@Net@OpenHome@@@std@@@std@@@std@@QBE?AV01@H@Z 00442ad0 f i libohNetCore:CpiSubscription.obj
 0001:00041bb0       ??1?$_List_iterator@V?$_List_val@PAVCpiSubscription@Net@OpenHome@@V?$allocator@PAVCpiSubscription@Net@OpenHome@@@std@@@std@@@std@@QAE@XZ 00442bb0 f i libohNetCore:CpiSubscription.obj
 0001:00041be0       ??0?$_List_const_iterator@V?$_List_val@PAVCpiSubscription@Net@OpenHome@@V?$allocator@PAVCpiSubscription@Net@OpenHome@@@std@@@std@@@std@@QAE@ABV01@@Z 00442be0 f i libohNetCore:CpiSubscription.obj
 0001:00041c10       ??1?$_List_const_iterator@V?$_List_val@PAVCpiSubscription@Net@OpenHome@@V?$allocator@PAVCpiSubscription@Net@OpenHome@@@std@@@std@@@std@@QAE@XZ 00442c10 f i libohNetCore:CpiSubscription.obj
 0001:00041c40       ??0?$_Tree_iterator@V?$_Tree_val@V?$_Tmap_traits@VBrn@OpenHome@@PAVCpiSubscription@Net@2@VBufferCmp@2@V?$allocator@U?$pair@$$CBVBrn@OpenHome@@PAVCpiSubscription@Net@2@@std@@@std@@$0A@@std@@@std@@@std@@QAE@ABV01@@Z 00442c40 f i libohNetCore:CpiSubscription.obj
 0001:00041c70       ??0?$_Vector_iterator@V?$_Vector_val@PAVCpiSubscription@Net@OpenHome@@V?$allocator@PAVCpiSubscription@Net@OpenHome@@@std@@@std@@@std@@QAE@ABV01@@Z 00442c70 f i libohNetCore:CpiSubscription.obj
 0001:00041ca0       ??0?$_List_unchecked_const_iterator@V?$_List_val@PAVCpiSubscription@Net@OpenHome@@V?$allocator@PAVCpiSubscription@Net@OpenHome@@@std@@@std@@U_Iterator_base12@2@@std@@QAE@ABV01@@Z 00442ca0 f i libohNetCore:CpiSubscription.obj
 0001:00041ce0       ??1?$_List_unchecked_const_iterator@V?$_List_val@PAVCpiSubscription@Net@OpenHome@@V?$allocator@PAVCpiSubscription@Net@OpenHome@@@std@@@std@@U_Iterator_base12@2@@std@@QAE@XZ 00442ce0 f i libohNetCore:CpiSubscription.obj
 0001:00041d10       ??0?$_Iterator012@Ubidirectional_iterator_tag@std@@PAVCpiSubscription@Net@OpenHome@@HPBQAV345@ABQAV345@U_Iterator_base12@2@@std@@QAE@ABU01@@Z 00442d10 f i libohNetCore:CpiSubscription.obj
 0001:00041d40       ??1?$_Iterator012@Ubidirectional_iterator_tag@std@@PAVCpiSubscription@Net@OpenHome@@HPBQAV345@ABQAV345@U_Iterator_base12@2@@std@@QAE@XZ 00442d40 f i libohNetCore:CpiSubscription.obj
 0001:00041d70       ?begin@?$list@PAVCpiSubscription@Net@OpenHome@@V?$allocator@PAVCpiSubscription@Net@OpenHome@@@std@@@std@@QAE?AV?$_List_iterator@V?$_List_val@PAVCpiSubscription@Net@OpenHome@@V?$allocator@PAVCpiSubscription@Net@OpenHome@@@std@@@std@@@2@XZ 00442d70 f i libohNetCore:CpiSubscription.obj
 0001:00041dd0       ?end@?$list@PAVCpiSubscription@Net@OpenHome@@V?$allocator@PAVCpiSubscription@Net@OpenHome@@@std@@@std@@QAE?AV?$_List_iterator@V?$_List_val@PAVCpiSubscription@Net@OpenHome@@V?$allocator@PAVCpiSubscription@Net@OpenHome@@@std@@@std@@@2@XZ 00442dd0 f i libohNetCore:CpiSubscription.obj
 0001:00041e20       ?erase@?$list@PAVCpiSubscription@Net@OpenHome@@V?$allocator@PAVCpiSubscription@Net@OpenHome@@@std@@@std@@QAE?AV?$_List_iterator@V?$_List_val@PAVCpiSubscription@Net@OpenHome@@V?$allocator@PAVCpiSubscription@Net@OpenHome@@@std@@@std@@@2@V?$_List_const_iterator@V?$_List_val@PAVCpiSubscription@Net@OpenHome@@V?$allocator@PAVCpiSubscription@Net@OpenHome@@@std@@@std@@@2@@Z 00442e20 f i libohNetCore:CpiSubscription.obj
 0001:00041fb0       ?_Tidy@?$list@PAVCpiSubscription@Net@OpenHome@@V?$allocator@PAVCpiSubscription@Net@OpenHome@@@std@@@std@@QAEXXZ 00442fb0 f i libohNetCore:CpiSubscription.obj
 0001:00041fe0       ??0?$_List_val@PAVCpiSubscription@Net@OpenHome@@V?$allocator@PAVCpiSubscription@Net@OpenHome@@@std@@@std@@QAE@V?$allocator@PAVCpiSubscription@Net@OpenHome@@@1@@Z 00442fe0 f i libohNetCore:CpiSubscription.obj
 0001:000420a0       ??1?$_List_val@PAVCpiSubscription@Net@OpenHome@@V?$allocator@PAVCpiSubscription@Net@OpenHome@@@std@@@std@@QAE@XZ 004430a0 f i libohNetCore:CpiSubscription.obj
 0001:00042110       ??0?$allocator@PAVCpiSubscription@Net@OpenHome@@@std@@QAE@XZ 00443110 f i libohNetCore:CpiSubscription.obj
 0001:00042130       ??0?$_Tree@V?$_Tmap_traits@VBrn@OpenHome@@PAVCpiSubscription@Net@2@VBufferCmp@2@V?$allocator@U?$pair@$$CBVBrn@OpenHome@@PAVCpiSubscription@Net@2@@std@@@std@@$0A@@std@@@std@@QAE@ABVBufferCmp@OpenHome@@ABV?$allocator@U?$pair@$$CBVBrn@OpenHome@@PAVCpiSubscription@Net@2@@std@@@1@@Z 00443130 f i libohNetCore:CpiSubscription.obj
 0001:00042180       ?lower_bound@?$_Tree@V?$_Tmap_traits@VBrn@OpenHome@@PAVCpiSubscription@Net@2@VBufferCmp@2@V?$allocator@U?$pair@$$CBVBrn@OpenHome@@PAVCpiSubscription@Net@2@@std@@@std@@$0A@@std@@@std@@QAE?AV?$_Tree_iterator@V?$_Tree_val@V?$_Tmap_traits@VBrn@OpenHome@@PAVCpiSubscription@Net@2@VBufferCmp@2@V?$allocator@U?$pair@$$CBVBrn@OpenHome@@PAVCpiSubscription@Net@2@@std@@@std@@$0A@@std@@@std@@@2@ABVBrn@OpenHome@@@Z 00443180 f i libohNetCore:CpiSubscription.obj
 0001:000421e0       ?_Lmost@?$_Tree@V?$_Tmap_traits@VBrn@OpenHome@@PAVCpiSubscription@Net@2@VBufferCmp@2@V?$allocator@U?$pair@$$CBVBrn@OpenHome@@PAVCpiSubscription@Net@2@@std@@@std@@$0A@@std@@@std@@IBEAAPAU_Node@?$_Tree_nod@V?$_Tmap_traits@VBrn@OpenHome@@PAVCpiSubscription@Net@2@VBufferCmp@2@V?$allocator@U?$pair@$$CBVBrn@OpenHome@@PAVCpiSubscription@Net@2@@std@@@std@@$0A@@std@@@2@XZ 004431e0 f i libohNetCore:CpiSubscription.obj
 0001:00042210       ?_Lrotate@?$_Tree@V?$_Tmap_traits@VBrn@OpenHome@@PAVCpiSubscription@Net@2@VBufferCmp@2@V?$allocator@U?$pair@$$CBVBrn@OpenHome@@PAVCpiSubscription@Net@2@@std@@@std@@$0A@@std@@@std@@IAEXPAU_Node@?$_Tree_nod@V?$_Tmap_traits@VBrn@OpenHome@@PAVCpiSubscription@Net@2@VBufferCmp@2@V?$allocator@U?$pair@$$CBVBrn@OpenHome@@PAVCpiSubscription@Net@2@@std@@@std@@$0A@@std@@@2@@Z 00443210 f i libohNetCore:CpiSubscription.obj
 0001:00042330       ?_Rmost@?$_Tree@V?$_Tmap_traits@VBrn@OpenHome@@PAVCpiSubscription@Net@2@VBufferCmp@2@V?$allocator@U?$pair@$$CBVBrn@OpenHome@@PAVCpiSubscription@Net@2@@std@@@std@@$0A@@std@@@std@@IBEAAPAU_Node@?$_Tree_nod@V?$_Tmap_traits@VBrn@OpenHome@@PAVCpiSubscription@Net@2@VBufferCmp@2@V?$allocator@U?$pair@$$CBVBrn@OpenHome@@PAVCpiSubscription@Net@2@@std@@@std@@$0A@@std@@@2@XZ 00443330 f i libohNetCore:CpiSubscription.obj
 0001:00042360       ?_Root@?$_Tree@V?$_Tmap_traits@VBrn@OpenHome@@PAVCpiSubscription@Net@2@VBufferCmp@2@V?$allocator@U?$pair@$$CBVBrn@OpenHome@@PAVCpiSubscription@Net@2@@std@@@std@@$0A@@std@@@std@@IBEAAPAU_Node@?$_Tree_nod@V?$_Tmap_traits@VBrn@OpenHome@@PAVCpiSubscription@Net@2@VBufferCmp@2@V?$allocator@U?$pair@$$CBVBrn@OpenHome@@PAVCpiSubscription@Net@2@@std@@@std@@$0A@@std@@@2@XZ 00443360 f i libohNetCore:CpiSubscription.obj
 0001:00042390       ?_Rrotate@?$_Tree@V?$_Tmap_traits@VBrn@OpenHome@@PAVCpiSubscription@Net@2@VBufferCmp@2@V?$allocator@U?$pair@$$CBVBrn@OpenHome@@PAVCpiSubscription@Net@2@@std@@@std@@$0A@@std@@@std@@IAEXPAU_Node@?$_Tree_nod@V?$_Tmap_traits@VBrn@OpenHome@@PAVCpiSubscription@Net@2@VBufferCmp@2@V?$allocator@U?$pair@$$CBVBrn@OpenHome@@PAVCpiSubscription@Net@2@@std@@@std@@$0A@@std@@@2@@Z 00443390 f i libohNetCore:CpiSubscription.obj
 0001:000424b0       ?_Orphan_ptr@?$_Tree@V?$_Tmap_traits@VBrn@OpenHome@@PAVCpiSubscription@Net@2@VBufferCmp@2@V?$allocator@U?$pair@$$CBVBrn@OpenHome@@PAVCpiSubscription@Net@2@@std@@@std@@$0A@@std@@@std@@IBEXAAV12@PAU_Node@?$_Tree_nod@V?$_Tmap_traits@VBrn@OpenHome@@PAVCpiSubscription@Net@2@VBufferCmp@2@V?$allocator@U?$pair@$$CBVBrn@OpenHome@@PAVCpiSubscription@Net@2@@std@@@std@@$0A@@std@@@2@@Z 004434b0 f i libohNetCore:CpiSubscription.obj
 0001:000425c0       ?_Tidy@?$_Tree@V?$_Tmap_traits@VBrn@OpenHome@@PAVCpiSubscription@Net@2@VBufferCmp@2@V?$allocator@U?$pair@$$CBVBrn@OpenHome@@PAVCpiSubscription@Net@2@@std@@@std@@$0A@@std@@@std@@IAEXXZ 004435c0 f i libohNetCore:CpiSubscription.obj
 0001:000426c0       ??1?$_Tree_val@V?$_Tmap_traits@VBrn@OpenHome@@PAVCpiSubscription@Net@2@VBufferCmp@2@V?$allocator@U?$pair@$$CBVBrn@OpenHome@@PAVCpiSubscription@Net@2@@std@@@std@@$0A@@std@@@std@@QAE@XZ 004436c0 f i libohNetCore:CpiSubscription.obj
 0001:00042730       ?_Color@?$_Tree_val@V?$_Tmap_traits@VBrn@OpenHome@@PAVCpiSubscription@Net@2@VBufferCmp@2@V?$allocator@U?$pair@$$CBVBrn@OpenHome@@PAVCpiSubscription@Net@2@@std@@@std@@$0A@@std@@@std@@SGAADPAU_Node@?$_Tree_nod@V?$_Tmap_traits@VBrn@OpenHome@@PAVCpiSubscription@Net@2@VBufferCmp@2@V?$allocator@U?$pair@$$CBVBrn@OpenHome@@PAVCpiSubscription@Net@2@@std@@@std@@$0A@@std@@@2@@Z 00443730 f i libohNetCore:CpiSubscription.obj
 0001:00042740       ?_Isnil@?$_Tree_val@V?$_Tmap_traits@VBrn@OpenHome@@PAVCpiSubscription@Net@2@VBufferCmp@2@V?$allocator@U?$pair@$$CBVBrn@OpenHome@@PAVCpiSubscription@Net@2@@std@@@std@@$0A@@std@@@std@@SGAADPAU_Node@?$_Tree_nod@V?$_Tmap_traits@VBrn@OpenHome@@PAVCpiSubscription@Net@2@VBufferCmp@2@V?$allocator@U?$pair@$$CBVBrn@OpenHome@@PAVCpiSubscription@Net@2@@std@@@std@@$0A@@std@@@2@@Z 00443740 f i libohNetCore:CpiSubscription.obj
 0001:00042750       ?_Key@?$_Tree_val@V?$_Tmap_traits@VBrn@OpenHome@@PAVCpiSubscription@Net@2@VBufferCmp@2@V?$allocator@U?$pair@$$CBVBrn@OpenHome@@PAVCpiSubscription@Net@2@@std@@@std@@$0A@@std@@@std@@SGAAVBrn@OpenHome@@PAU_Node@?$_Tree_nod@V?$_Tmap_traits@VBrn@OpenHome@@PAVCpiSubscription@Net@2@VBufferCmp@2@V?$allocator@U?$pair@$$CBVBrn@OpenHome@@PAVCpiSubscription@Net@2@@std@@@std@@$0A@@std@@@2@@Z 00443750 f i libohNetCore:CpiSubscription.obj
 0001:00042770       ?_Left@?$_Tree_val@V?$_Tmap_traits@VBrn@OpenHome@@PAVCpiSubscription@Net@2@VBufferCmp@2@V?$allocator@U?$pair@$$CBVBrn@OpenHome@@PAVCpiSubscription@Net@2@@std@@@std@@$0A@@std@@@std@@SGAAPAU_Node@?$_Tree_nod@V?$_Tmap_traits@VBrn@OpenHome@@PAVCpiSubscription@Net@2@VBufferCmp@2@V?$allocator@U?$pair@$$CBVBrn@OpenHome@@PAVCpiSubscription@Net@2@@std@@@std@@$0A@@std@@@2@PAU342@@Z 00443770 f i libohNetCore:CpiSubscription.obj
 0001:00042780       ?_Parent@?$_Tree_val@V?$_Tmap_traits@VBrn@OpenHome@@PAVCpiSubscription@Net@2@VBufferCmp@2@V?$allocator@U?$pair@$$CBVBrn@OpenHome@@PAVCpiSubscription@Net@2@@std@@@std@@$0A@@std@@@std@@SGAAPAU_Node@?$_Tree_nod@V?$_Tmap_traits@VBrn@OpenHome@@PAVCpiSubscription@Net@2@VBufferCmp@2@V?$allocator@U?$pair@$$CBVBrn@OpenHome@@PAVCpiSubscription@Net@2@@std@@@std@@$0A@@std@@@2@PAU342@@Z 00443780 f i libohNetCore:CpiSubscription.obj
 0001:00042790       ?_Right@?$_Tree_val@V?$_Tmap_traits@VBrn@OpenHome@@PAVCpiSubscription@Net@2@VBufferCmp@2@V?$allocator@U?$pair@$$CBVBrn@OpenHome@@PAVCpiSubscription@Net@2@@std@@@std@@$0A@@std@@@std@@SGAAPAU_Node@?$_Tree_nod@V?$_Tmap_traits@VBrn@OpenHome@@PAVCpiSubscription@Net@2@VBufferCmp@2@V?$allocator@U?$pair@$$CBVBrn@OpenHome@@PAVCpiSubscription@Net@2@@std@@@std@@$0A@@std@@@2@PAU342@@Z 00443790 f i libohNetCore:CpiSubscription.obj
 0001:000427a0       ?_Myval@?$_Tree_val@V?$_Tmap_traits@VBrn@OpenHome@@PAVCpiSubscription@Net@2@VBufferCmp@2@V?$allocator@U?$pair@$$CBVBrn@OpenHome@@PAVCpiSubscription@Net@2@@std@@@std@@$0A@@std@@@std@@SGAAU?$pair@$$CBVBrn@OpenHome@@PAVCpiSubscription@Net@2@@2@PAU_Node@?$_Tree_nod@V?$_Tmap_traits@VBrn@OpenHome@@PAVCpiSubscription@Net@2@VBufferCmp@2@V?$allocator@U?$pair@$$CBVBrn@OpenHome@@PAVCpiSubscription@Net@2@@std@@@std@@$0A@@std@@@2@@Z 004437a0 f i libohNetCore:CpiSubscription.obj
 0001:000427b0       ?_Max@?$_Tree_val@V?$_Tmap_traits@VBrn@OpenHome@@PAVCpiSubscription@Net@2@VBufferCmp@2@V?$allocator@U?$pair@$$CBVBrn@OpenHome@@PAVCpiSubscription@Net@2@@std@@@std@@$0A@@std@@@std@@SGPAU_Node@?$_Tree_nod@V?$_Tmap_traits@VBrn@OpenHome@@PAVCpiSubscription@Net@2@VBufferCmp@2@V?$allocator@U?$pair@$$CBVBrn@OpenHome@@PAVCpiSubscription@Net@2@@std@@@std@@$0A@@std@@@2@PAU342@@Z 004437b0 f i libohNetCore:CpiSubscription.obj
 0001:000427f0       ?_Min@?$_Tree_val@V?$_Tmap_traits@VBrn@OpenHome@@PAVCpiSubscription@Net@2@VBufferCmp@2@V?$allocator@U?$pair@$$CBVBrn@OpenHome@@PAVCpiSubscription@Net@2@@std@@@std@@$0A@@std@@@std@@SGPAU_Node@?$_Tree_nod@V?$_Tmap_traits@VBrn@OpenHome@@PAVCpiSubscription@Net@2@VBufferCmp@2@V?$allocator@U?$pair@$$CBVBrn@OpenHome@@PAVCpiSubscription@Net@2@@std@@@std@@$0A@@std@@@2@PAU342@@Z 004437f0 f i libohNetCore:CpiSubscription.obj
 0001:00042830       ??0?$allocator@U?$pair@$$CBVBrn@OpenHome@@PAVCpiSubscription@Net@2@@std@@@std@@QAE@XZ 00443830 f i libohNetCore:CpiSubscription.obj
 0001:00042850       ?deallocate@?$allocator@U_Node@?$_Tree_nod@V?$_Tmap_traits@VBrn@OpenHome@@PAVCpiSubscription@Net@2@VBufferCmp@2@V?$allocator@U?$pair@$$CBVBrn@OpenHome@@PAVCpiSubscription@Net@2@@std@@@std@@$0A@@std@@@std@@@std@@QAEXPAU_Node@?$_Tree_nod@V?$_Tmap_traits@VBrn@OpenHome@@PAVCpiSubscription@Net@2@VBufferCmp@2@V?$allocator@U?$pair@$$CBVBrn@OpenHome@@PAVCpiSubscription@Net@2@@std@@@std@@$0A@@std@@@2@I@Z 00443850 f i libohNetCore:CpiSubscription.obj
 0001:00042880       ?_Make_iter@?$vector@PAVCpiSubscription@Net@OpenHome@@V?$allocator@PAVCpiSubscription@Net@OpenHome@@@std@@@std@@QBE?AV?$_Vector_iterator@V?$_Vector_val@PAVCpiSubscription@Net@OpenHome@@V?$allocator@PAVCpiSubscription@Net@OpenHome@@@std@@@std@@@2@V?$_Vector_const_iterator@V?$_Vector_val@PAVCpiSubscription@Net@OpenHome@@V?$allocator@PAVCpiSubscription@Net@OpenHome@@@std@@@std@@@2@@Z 00443880 f i libohNetCore:CpiSubscription.obj
 0001:00042910       ?_Destroy@?$vector@PAVCpiSubscription@Net@OpenHome@@V?$allocator@PAVCpiSubscription@Net@OpenHome@@@std@@@std@@IAEXPAPAVCpiSubscription@Net@OpenHome@@0@Z 00443910 f i libohNetCore:CpiSubscription.obj
 0001:00042950       ?_Inside@?$vector@PAVCpiSubscription@Net@OpenHome@@V?$allocator@PAVCpiSubscription@Net@OpenHome@@@std@@@std@@IBE_NPBQAVCpiSubscription@Net@OpenHome@@@Z 00443950 f i libohNetCore:CpiSubscription.obj
 0001:000429a0       ?_Reserve@?$vector@PAVCpiSubscription@Net@OpenHome@@V?$allocator@PAVCpiSubscription@Net@OpenHome@@@std@@@std@@IAEXI@Z 004439a0 f i libohNetCore:CpiSubscription.obj
 0001:00042a20       ?_Tidy@?$vector@PAVCpiSubscription@Net@OpenHome@@V?$allocator@PAVCpiSubscription@Net@OpenHome@@@std@@@std@@IAEXXZ 00443a20 f i libohNetCore:CpiSubscription.obj
 0001:00042ab0       ?_Orphan_range@?$vector@PAVCpiSubscription@Net@OpenHome@@V?$allocator@PAVCpiSubscription@Net@OpenHome@@@std@@@std@@IBEXPAPAVCpiSubscription@Net@OpenHome@@0@Z 00443ab0 f i libohNetCore:CpiSubscription.obj
 0001:00042bc0       ??0?$_Vector_val@PAVCpiSubscription@Net@OpenHome@@V?$allocator@PAVCpiSubscription@Net@OpenHome@@@std@@@std@@QAE@V?$allocator@PAVCpiSubscription@Net@OpenHome@@@1@@Z 00443bc0 f i libohNetCore:CpiSubscription.obj
 0001:00042ce0       ??1?$_Vector_val@PAVCpiSubscription@Net@OpenHome@@V?$allocator@PAVCpiSubscription@Net@OpenHome@@@std@@@std@@QAE@XZ 00443ce0 f i libohNetCore:CpiSubscription.obj
 0001:00042dc0       ??0?$_Tree_iterator@V?$_Tree_val@V?$_Tmap_traits@VBrn@OpenHome@@PAVCpiSubscription@Net@2@VBufferCmp@2@V?$allocator@U?$pair@$$CBVBrn@OpenHome@@PAVCpiSubscription@Net@2@@std@@@std@@$0A@@std@@@std@@@std@@QAE@PAU_Node@?$_Tree_nod@V?$_Tmap_traits@VBrn@OpenHome@@PAVCpiSubscription@Net@2@VBufferCmp@2@V?$allocator@U?$pair@$$CBVBrn@OpenHome@@PAVCpiSubscription@Net@2@@std@@@std@@$0A@@std@@@1@PBV?$_Tree_val@V?$_Tmap_traits@VBrn@OpenHome@@PAVCpiSubscription@Net@2@VBufferCmp@2@V?$allocator@U?$pair@$$CBVBrn@OpenHome@@PAVCpiSubscription@Net@2@@std@@@std@@$0A@@std@@@1@@Z 00443dc0 f i libohNetCore:CpiSubscription.obj
 0001:00042e00       ??D?$_Tree_iterator@V?$_Tree_val@V?$_Tmap_traits@VBrn@OpenHome@@PAVCpiSubscription@Net@2@VBufferCmp@2@V?$allocator@U?$pair@$$CBVBrn@OpenHome@@PAVCpiSubscription@Net@2@@std@@@std@@$0A@@std@@@std@@@std@@QBEAAU?$pair@$$CBVBrn@OpenHome@@PAVCpiSubscription@Net@2@@1@XZ 00443e00 f i libohNetCore:CpiSubscription.obj
 0001:00042e30       ??E?$_Tree_iterator@V?$_Tree_val@V?$_Tmap_traits@VBrn@OpenHome@@PAVCpiSubscription@Net@2@VBufferCmp@2@V?$allocator@U?$pair@$$CBVBrn@OpenHome@@PAVCpiSubscription@Net@2@@std@@@std@@$0A@@std@@@std@@@std@@QAEAAV01@XZ 00443e30 f i libohNetCore:CpiSubscription.obj
 0001:00042e60       ??E?$_Tree_const_iterator@V?$_Tree_val@V?$_Tmap_traits@VBrn@OpenHome@@PAVCpiSubscription@Net@2@VBufferCmp@2@V?$allocator@U?$pair@$$CBVBrn@OpenHome@@PAVCpiSubscription@Net@2@@std@@@std@@$0A@@std@@@std@@@std@@QAEAAV01@XZ 00443e60 f i libohNetCore:CpiSubscription.obj
 0001:00042f20       ?_Mynode@?$_Tree_unchecked_const_iterator@V?$_Tree_val@V?$_Tmap_traits@VBrn@OpenHome@@PAVCpiSubscription@Net@2@VBufferCmp@2@V?$allocator@U?$pair@$$CBVBrn@OpenHome@@PAVCpiSubscription@Net@2@@std@@@std@@$0A@@std@@@std@@U_Iterator_base12@2@@std@@QBEPAU_Node@?$_Tree_nod@V?$_Tmap_traits@VBrn@OpenHome@@PAVCpiSubscription@Net@2@VBufferCmp@2@V?$allocator@U?$pair@$$CBVBrn@OpenHome@@PAVCpiSubscription@Net@2@@std@@@std@@$0A@@std@@@2@XZ 00443f20 f i libohNetCore:CpiSubscription.obj
 0001:00042f40       ??0?$_Vector_iterator@V?$_Vector_val@PAVCpiSubscription@Net@OpenHome@@V?$allocator@PAVCpiSubscription@Net@OpenHome@@@std@@@std@@@std@@QAE@PAPAVCpiSubscription@Net@OpenHome@@PBU_Container_base12@1@@Z 00443f40 f i libohNetCore:CpiSubscription.obj
 0001:00042f80       ??Y?$_Vector_iterator@V?$_Vector_val@PAVCpiSubscription@Net@OpenHome@@V?$allocator@PAVCpiSubscription@Net@OpenHome@@@std@@@std@@@std@@QAEAAV01@H@Z 00443f80 f i libohNetCore:CpiSubscription.obj
 0001:00042fb0       ??D?$_List_iterator@V?$_List_val@PAVCpiSubscription@Net@OpenHome@@V?$allocator@PAVCpiSubscription@Net@OpenHome@@@std@@@std@@@std@@QBEAAPAVCpiSubscription@Net@OpenHome@@XZ 00443fb0 f i libohNetCore:CpiSubscription.obj
 0001:00042fe0       ?_Make_iter@?$list@PAVCpiSubscription@Net@OpenHome@@V?$allocator@PAVCpiSubscription@Net@OpenHome@@@std@@@std@@QBE?AV?$_List_iterator@V?$_List_val@PAVCpiSubscription@Net@OpenHome@@V?$allocator@PAVCpiSubscription@Net@OpenHome@@@std@@@std@@@2@V?$_List_const_iterator@V?$_List_val@PAVCpiSubscription@Net@OpenHome@@V?$allocator@PAVCpiSubscription@Net@OpenHome@@@std@@@std@@@2@@Z 00443fe0 f i libohNetCore:CpiSubscription.obj
 0001:00043070       ?clear@?$list@PAVCpiSubscription@Net@OpenHome@@V?$allocator@PAVCpiSubscription@Net@OpenHome@@@std@@@std@@QAEXXZ 00444070 f i libohNetCore:CpiSubscription.obj
 0001:00043140       ?_Orphan_ptr@?$list@PAVCpiSubscription@Net@OpenHome@@V?$allocator@PAVCpiSubscription@Net@OpenHome@@@std@@@std@@QBEXAAV12@PAU_Node@?$_List_nod@PAVCpiSubscription@Net@OpenHome@@V?$allocator@PAVCpiSubscription@Net@OpenHome@@@std@@@2@@Z 00444140 f i libohNetCore:CpiSubscription.obj
 0001:00043250       ?_Nextnode@?$_List_val@PAVCpiSubscription@Net@OpenHome@@V?$allocator@PAVCpiSubscription@Net@OpenHome@@@std@@@std@@SGAAPAU_Node@?$_List_nod@PAVCpiSubscription@Net@OpenHome@@V?$allocator@PAVCpiSubscription@Net@OpenHome@@@std@@@2@PAU342@@Z 00444250 f i libohNetCore:CpiSubscription.obj
 0001:00043260       ?_Prevnode@?$_List_val@PAVCpiSubscription@Net@OpenHome@@V?$allocator@PAVCpiSubscription@Net@OpenHome@@@std@@@std@@SGAAPAU_Node@?$_List_nod@PAVCpiSubscription@Net@OpenHome@@V?$allocator@PAVCpiSubscription@Net@OpenHome@@@std@@@2@PAU342@@Z 00444260 f i libohNetCore:CpiSubscription.obj
 0001:00043270       ??0?$_List_nod@PAVCpiSubscription@Net@OpenHome@@V?$allocator@PAVCpiSubscription@Net@OpenHome@@@std@@@std@@QAE@V?$allocator@PAVCpiSubscription@Net@OpenHome@@@1@@Z 00444270 f i libohNetCore:CpiSubscription.obj
 0001:00043380       ??1?$_List_nod@PAVCpiSubscription@Net@OpenHome@@V?$allocator@PAVCpiSubscription@Net@OpenHome@@@std@@@std@@QAE@XZ 00444380 f i libohNetCore:CpiSubscription.obj
 0001:00043460       ??0?$allocator@PAVCpiSubscription@Net@OpenHome@@@std@@QAE@ABV01@@Z 00444460 f i libohNetCore:CpiSubscription.obj
 0001:00043480       ?deallocate@?$allocator@PAVCpiSubscription@Net@OpenHome@@@std@@QAEXPAPAVCpiSubscription@Net@OpenHome@@I@Z 00444480 f i libohNetCore:CpiSubscription.obj
 0001:000434b0       ?deallocate@?$allocator@U_Node@?$_List_nod@PAVCpiSubscription@Net@OpenHome@@V?$allocator@PAVCpiSubscription@Net@OpenHome@@@std@@@std@@@std@@QAEXPAU_Node@?$_List_nod@PAVCpiSubscription@Net@OpenHome@@V?$allocator@PAVCpiSubscription@Net@OpenHome@@@std@@@2@I@Z 004444b0 f i libohNetCore:CpiSubscription.obj
 0001:000434e0       ?allocate@?$allocator@U_Node@?$_List_nod@PAVCpiSubscription@Net@OpenHome@@V?$allocator@PAVCpiSubscription@Net@OpenHome@@@std@@@std@@@std@@QAEPAU_Node@?$_List_nod@PAVCpiSubscription@Net@OpenHome@@V?$allocator@PAVCpiSubscription@Net@OpenHome@@@std@@@2@I@Z 004444e0 f i libohNetCore:CpiSubscription.obj
 0001:00043510       ?erase@?$_Tree@V?$_Tmap_traits@VBrn@OpenHome@@PAVCpiSubscription@Net@2@VBufferCmp@2@V?$allocator@U?$pair@$$CBVBrn@OpenHome@@PAVCpiSubscription@Net@2@@std@@@std@@$0A@@std@@@std@@QAE?AV?$_Tree_iterator@V?$_Tree_val@V?$_Tmap_traits@VBrn@OpenHome@@PAVCpiSubscription@Net@2@VBufferCmp@2@V?$allocator@U?$pair@$$CBVBrn@OpenHome@@PAVCpiSubscription@Net@2@@std@@@std@@$0A@@std@@@std@@@2@V?$_Tree_const_iterator@V?$_Tree_val@V?$_Tmap_traits@VBrn@OpenHome@@PAVCpiSubscription@Net@2@VBufferCmp@2@V?$allocator@U?$pair@$$CBVBrn@OpenHome@@PAVCpiSubscription@Net@2@@std@@@std@@$0A@@std@@@std@@@2@0@Z 00444510 f i libohNetCore:CpiSubscription.obj
 0001:00043710       ?_Lbound@?$_Tree@V?$_Tmap_traits@VBrn@OpenHome@@PAVCpiSubscription@Net@2@VBufferCmp@2@V?$allocator@U?$pair@$$CBVBrn@OpenHome@@PAVCpiSubscription@Net@2@@std@@@std@@$0A@@std@@@std@@IAEPAU_Node@?$_Tree_nod@V?$_Tmap_traits@VBrn@OpenHome@@PAVCpiSubscription@Net@2@VBufferCmp@2@V?$allocator@U?$pair@$$CBVBrn@OpenHome@@PAVCpiSubscription@Net@2@@std@@@std@@$0A@@std@@@2@ABVBrn@OpenHome@@@Z 00444710 f i libohNetCore:CpiSubscription.obj
 0001:000437c0       ??0?$_Tree_val@V?$_Tmap_traits@VBrn@OpenHome@@PAVCpiSubscription@Net@2@VBufferCmp@2@V?$allocator@U?$pair@$$CBVBrn@OpenHome@@PAVCpiSubscription@Net@2@@std@@@std@@$0A@@std@@@std@@QAE@ABVBufferCmp@OpenHome@@V?$allocator@U?$pair@$$CBVBrn@OpenHome@@PAVCpiSubscription@Net@2@@std@@@1@@Z 004447c0 f i libohNetCore:CpiSubscription.obj
 0001:000438c0       ??1?$_Tree_nod@V?$_Tmap_traits@VBrn@OpenHome@@PAVCpiSubscription@Net@2@VBufferCmp@2@V?$allocator@U?$pair@$$CBVBrn@OpenHome@@PAVCpiSubscription@Net@2@@std@@@std@@$0A@@std@@@std@@QAE@XZ 004448c0 f i libohNetCore:CpiSubscription.obj
 0001:000439a0       ??0?$allocator@U?$pair@$$CBVBrn@OpenHome@@PAVCpiSubscription@Net@2@@std@@@std@@QAE@ABV01@@Z 004449a0 f i libohNetCore:CpiSubscription.obj
 0001:000439c0       ?reserve@?$vector@PAVCpiSubscription@Net@OpenHome@@V?$allocator@PAVCpiSubscription@Net@OpenHome@@@std@@@std@@QAEXI@Z 004449c0 f i libohNetCore:CpiSubscription.obj
 0001:00043b30       ?capacity@?$vector@PAVCpiSubscription@Net@OpenHome@@V?$allocator@PAVCpiSubscription@Net@OpenHome@@@std@@@std@@QBEIXZ 00444b30 f i libohNetCore:CpiSubscription.obj
 0001:00043b60       ?max_size@?$vector@PAVCpiSubscription@Net@OpenHome@@V?$allocator@PAVCpiSubscription@Net@OpenHome@@@std@@@std@@QBEIXZ 00444b60 f i libohNetCore:CpiSubscription.obj
 0001:00043b90       ?_Grow_to@?$vector@PAVCpiSubscription@Net@OpenHome@@V?$allocator@PAVCpiSubscription@Net@OpenHome@@@std@@@std@@IBEII@Z 00444b90 f i libohNetCore:CpiSubscription.obj
 0001:00043c10       ?_Xlen@?$vector@PAVCpiSubscription@Net@OpenHome@@V?$allocator@PAVCpiSubscription@Net@OpenHome@@@std@@@std@@IBEXXZ 00444c10 f i libohNetCore:CpiSubscription.obj
 0001:00043c40       ??0?$_Tree_const_iterator@V?$_Tree_val@V?$_Tmap_traits@VBrn@OpenHome@@PAVCpiSubscription@Net@2@VBufferCmp@2@V?$allocator@U?$pair@$$CBVBrn@OpenHome@@PAVCpiSubscription@Net@2@@std@@@std@@$0A@@std@@@std@@@std@@QAE@PAU_Node@?$_Tree_nod@V?$_Tmap_traits@VBrn@OpenHome@@PAVCpiSubscription@Net@2@VBufferCmp@2@V?$allocator@U?$pair@$$CBVBrn@OpenHome@@PAVCpiSubscription@Net@2@@std@@@std@@$0A@@std@@@1@PBV?$_Tree_val@V?$_Tmap_traits@VBrn@OpenHome@@PAVCpiSubscription@Net@2@VBufferCmp@2@V?$allocator@U?$pair@$$CBVBrn@OpenHome@@PAVCpiSubscription@Net@2@@std@@@std@@$0A@@std@@@1@@Z 00444c40 f i libohNetCore:CpiSubscription.obj
 0001:00043c80       ??D?$_Tree_const_iterator@V?$_Tree_val@V?$_Tmap_traits@VBrn@OpenHome@@PAVCpiSubscription@Net@2@VBufferCmp@2@V?$allocator@U?$pair@$$CBVBrn@OpenHome@@PAVCpiSubscription@Net@2@@std@@@std@@$0A@@std@@@std@@@std@@QBEABU?$pair@$$CBVBrn@OpenHome@@PAVCpiSubscription@Net@2@@1@XZ 00444c80 f i libohNetCore:CpiSubscription.obj
 0001:00043d40       ??E?$_Tree_unchecked_const_iterator@V?$_Tree_val@V?$_Tmap_traits@VBrn@OpenHome@@PAVCpiSubscription@Net@2@VBufferCmp@2@V?$allocator@U?$pair@$$CBVBrn@OpenHome@@PAVCpiSubscription@Net@2@@std@@@std@@$0A@@std@@@std@@U_Iterator_base12@2@@std@@QAEAAV01@XZ 00444d40 f i libohNetCore:CpiSubscription.obj
 0001:00043e00       ??0?$_Vector_const_iterator@V?$_Vector_val@PAVCpiSubscription@Net@OpenHome@@V?$allocator@PAVCpiSubscription@Net@OpenHome@@@std@@@std@@@std@@QAE@PAPAVCpiSubscription@Net@OpenHome@@PBU_Container_base12@1@@Z 00444e00 f i libohNetCore:CpiSubscription.obj
 0001:00043e80       ??Y?$_Vector_const_iterator@V?$_Vector_val@PAVCpiSubscription@Net@OpenHome@@V?$allocator@PAVCpiSubscription@Net@OpenHome@@@std@@@std@@@std@@QAEAAV01@H@Z 00444e80 f i libohNetCore:CpiSubscription.obj
 0001:00043f60       ??0?$_List_iterator@V?$_List_val@PAVCpiSubscription@Net@OpenHome@@V?$allocator@PAVCpiSubscription@Net@OpenHome@@@std@@@std@@@std@@QAE@PAU_Node@?$_List_nod@PAVCpiSubscription@Net@OpenHome@@V?$allocator@PAVCpiSubscription@Net@OpenHome@@@std@@@1@PBV?$_List_val@PAVCpiSubscription@Net@OpenHome@@V?$allocator@PAVCpiSubscription@Net@OpenHome@@@std@@@1@@Z 00444f60 f i libohNetCore:CpiSubscription.obj
 0001:00043fa0       ??D?$_List_const_iterator@V?$_List_val@PAVCpiSubscription@Net@OpenHome@@V?$allocator@PAVCpiSubscription@Net@OpenHome@@@std@@@std@@@std@@QBEABQAVCpiSubscription@Net@OpenHome@@XZ 00444fa0 f i libohNetCore:CpiSubscription.obj
 0001:00044060       ??E?$_List_const_iterator@V?$_List_val@PAVCpiSubscription@Net@OpenHome@@V?$allocator@PAVCpiSubscription@Net@OpenHome@@@std@@@std@@@std@@QAE?AV01@H@Z 00445060 f i libohNetCore:CpiSubscription.obj
 0001:00044130       ?_Mynode@?$_List_unchecked_const_iterator@V?$_List_val@PAVCpiSubscription@Net@OpenHome@@V?$allocator@PAVCpiSubscription@Net@OpenHome@@@std@@@std@@U_Iterator_base12@2@@std@@QBEPAU_Node@?$_List_nod@PAVCpiSubscription@Net@OpenHome@@V?$allocator@PAVCpiSubscription@Net@OpenHome@@@std@@@2@XZ 00445130 f i libohNetCore:CpiSubscription.obj
 0001:00044150       ??1?$_Tmap_traits@VBrn@OpenHome@@PAVCpiSubscription@Net@2@VBufferCmp@2@V?$allocator@U?$pair@$$CBVBrn@OpenHome@@PAVCpiSubscription@Net@2@@std@@@std@@$0A@@std@@QAE@XZ 00445150 f i libohNetCore:CpiSubscription.obj
 0001:00044180       ??0?$_Iterator012@Urandom_access_iterator_tag@std@@PAVCpiSubscription@Net@OpenHome@@HPBQAV345@ABQAV345@U_Iterator_base12@2@@std@@QAE@XZ 00445180 f i libohNetCore:CpiSubscription.obj
 0001:000441b0       ?_Myval@?$_List_val@PAVCpiSubscription@Net@OpenHome@@V?$allocator@PAVCpiSubscription@Net@OpenHome@@@std@@@std@@SGAAPAVCpiSubscription@Net@OpenHome@@PAU_Node@?$_List_nod@PAVCpiSubscription@Net@OpenHome@@V?$allocator@PAVCpiSubscription@Net@OpenHome@@@std@@@2@@Z 004451b0 f i libohNetCore:CpiSubscription.obj
 0001:000441c0       ?allocate@?$allocator@PAVCpiSubscription@Net@OpenHome@@@std@@QAEPAPAVCpiSubscription@Net@OpenHome@@I@Z 004451c0 f i libohNetCore:CpiSubscription.obj
 0001:000441f0       ?max_size@?$allocator@PAVCpiSubscription@Net@OpenHome@@@std@@QBEIXZ 004451f0 f i libohNetCore:CpiSubscription.obj
 0001:00044240       ?clear@?$_Tree@V?$_Tmap_traits@VBrn@OpenHome@@PAVCpiSubscription@Net@2@VBufferCmp@2@V?$allocator@U?$pair@$$CBVBrn@OpenHome@@PAVCpiSubscription@Net@2@@std@@@std@@$0A@@std@@@std@@QAEXXZ 00445240 f i libohNetCore:CpiSubscription.obj
 0001:000442c0       ??0?$_Tree_nod@V?$_Tmap_traits@VBrn@OpenHome@@PAVCpiSubscription@Net@2@VBufferCmp@2@V?$allocator@U?$pair@$$CBVBrn@OpenHome@@PAVCpiSubscription@Net@2@@std@@@std@@$0A@@std@@@std@@QAE@ABVBufferCmp@OpenHome@@V?$allocator@U?$pair@$$CBVBrn@OpenHome@@PAVCpiSubscription@Net@2@@std@@@1@@Z 004452c0 f i libohNetCore:CpiSubscription.obj
 0001:000443d0       ?allocate@?$allocator@U_Node@?$_Tree_nod@V?$_Tmap_traits@VBrn@OpenHome@@PAVCpiSubscription@Net@2@VBufferCmp@2@V?$allocator@U?$pair@$$CBVBrn@OpenHome@@PAVCpiSubscription@Net@2@@std@@@std@@$0A@@std@@@std@@@std@@QAEPAU_Node@?$_Tree_nod@V?$_Tmap_traits@VBrn@OpenHome@@PAVCpiSubscription@Net@2@VBufferCmp@2@V?$allocator@U?$pair@$$CBVBrn@OpenHome@@PAVCpiSubscription@Net@2@@std@@@std@@$0A@@std@@@2@I@Z 004453d0 f i libohNetCore:CpiSubscription.obj
 0001:00044400       ??E?$_Tree_const_iterator@V?$_Tree_val@V?$_Tmap_traits@VBrn@OpenHome@@PAVCpiSubscription@Net@2@VBufferCmp@2@V?$allocator@U?$pair@$$CBVBrn@OpenHome@@PAVCpiSubscription@Net@2@@std@@@std@@$0A@@std@@@std@@@std@@QAE?AV01@H@Z 00445400 f i libohNetCore:CpiSubscription.obj
 0001:000444d0       ??0?$_Tree_unchecked_const_iterator@V?$_Tree_val@V?$_Tmap_traits@VBrn@OpenHome@@PAVCpiSubscription@Net@2@VBufferCmp@2@V?$allocator@U?$pair@$$CBVBrn@OpenHome@@PAVCpiSubscription@Net@2@@std@@@std@@$0A@@std@@@std@@U_Iterator_base12@2@@std@@QAE@PAU_Node@?$_Tree_nod@V?$_Tmap_traits@VBrn@OpenHome@@PAVCpiSubscription@Net@2@VBufferCmp@2@V?$allocator@U?$pair@$$CBVBrn@OpenHome@@PAVCpiSubscription@Net@2@@std@@@std@@$0A@@std@@@1@PBV?$_Tree_val@V?$_Tmap_traits@VBrn@OpenHome@@PAVCpiSubscription@Net@2@VBufferCmp@2@V?$allocator@U?$pair@$$CBVBrn@OpenHome@@PAVCpiSubscription@Net@2@@std@@@std@@$0A@@std@@@1@@Z 004454d0 f i libohNetCore:CpiSubscription.obj
 0001:00044550       ??0?$_List_const_iterator@V?$_List_val@PAVCpiSubscription@Net@OpenHome@@V?$allocator@PAVCpiSubscription@Net@OpenHome@@@std@@@std@@@std@@QAE@PAU_Node@?$_List_nod@PAVCpiSubscription@Net@OpenHome@@V?$allocator@PAVCpiSubscription@Net@OpenHome@@@std@@@1@PBV?$_List_val@PAVCpiSubscription@Net@OpenHome@@V?$allocator@PAVCpiSubscription@Net@OpenHome@@@std@@@1@@Z 00445550 f i libohNetCore:CpiSubscription.obj
 0001:00044590       ??E?$_List_const_iterator@V?$_List_val@PAVCpiSubscription@Net@OpenHome@@V?$allocator@PAVCpiSubscription@Net@OpenHome@@@std@@@std@@@std@@QAEAAV01@XZ 00445590 f i libohNetCore:CpiSubscription.obj
 0001:00044650       ??0?$_Iterator012@Ubidirectional_iterator_tag@std@@U?$pair@$$CBVBrn@OpenHome@@PAVCpiSubscription@Net@2@@2@HPBU32@ABU32@U_Iterator_base12@2@@std@@QAE@XZ 00445650 f i libohNetCore:CpiSubscription.obj
 0001:00044680       ?_Erase@?$_Tree@V?$_Tmap_traits@VBrn@OpenHome@@PAVCpiSubscription@Net@2@VBufferCmp@2@V?$allocator@U?$pair@$$CBVBrn@OpenHome@@PAVCpiSubscription@Net@2@@std@@@std@@$0A@@std@@@std@@IAEXPAU_Node@?$_Tree_nod@V?$_Tmap_traits@VBrn@OpenHome@@PAVCpiSubscription@Net@2@VBufferCmp@2@V?$allocator@U?$pair@$$CBVBrn@OpenHome@@PAVCpiSubscription@Net@2@@std@@@std@@$0A@@std@@@2@@Z 00445680 f i libohNetCore:CpiSubscription.obj
 0001:00044720       ??0?$_Tmap_traits@VBrn@OpenHome@@PAVCpiSubscription@Net@2@VBufferCmp@2@V?$allocator@U?$pair@$$CBVBrn@OpenHome@@PAVCpiSubscription@Net@2@@std@@@std@@$0A@@std@@QAE@VBufferCmp@OpenHome@@@Z 00445720 f i libohNetCore:CpiSubscription.obj
 0001:00044750       ??0?$_List_unchecked_const_iterator@V?$_List_val@PAVCpiSubscription@Net@OpenHome@@V?$allocator@PAVCpiSubscription@Net@OpenHome@@@std@@@std@@U_Iterator_base12@2@@std@@QAE@PAU_Node@?$_List_nod@PAVCpiSubscription@Net@OpenHome@@V?$allocator@PAVCpiSubscription@Net@OpenHome@@@std@@@1@PBV?$_List_val@PAVCpiSubscription@Net@OpenHome@@V?$allocator@PAVCpiSubscription@Net@OpenHome@@@std@@@1@@Z 00445750 f i libohNetCore:CpiSubscription.obj
 0001:000447d0       ??0?$_Iterator012@Ubidirectional_iterator_tag@std@@PAVCpiSubscription@Net@OpenHome@@HPBQAV345@ABQAV345@U_Iterator_base12@2@@std@@QAE@XZ 004457d0 f i libohNetCore:CpiSubscription.obj
 0001:00044800       ??0?$Bws@$0EAA@@OpenHome@@QAE@XZ 00445800 f i libohNetCore:CpiSubscription.obj
 0001:00044840       ?Ptr@?$Bws@$0EAA@@OpenHome@@UBEPBEXZ 00445840 f i libohNetCore:CpiSubscription.obj
 0001:00044860       ?Write@?$Fifo@PAVSubscriber@Net@OpenHome@@@OpenHome@@QAEXPAVSubscriber@Net@2@@Z 00445860 f i libohNetCore:CpiSubscription.obj
 0001:00044890       ?Read@?$Fifo@PAVSubscriber@Net@OpenHome@@@OpenHome@@QAEPAVSubscriber@Net@2@XZ 00445890 f i libohNetCore:CpiSubscription.obj
 0001:000448c0       ??$MakeFunctor@VCpiSubscription@Net@OpenHome@@XV123@@OpenHome@@YG?AV?$MemberTranslator@VCpiSubscription@Net@OpenHome@@P8123@AEXXZ@0@AAVCpiSubscription@Net@0@ABQ8230@AEXXZ@Z 004458c0 f i libohNetCore:CpiSubscription.obj
 0001:000448f0       ??0?$Bws@$0BG@@OpenHome@@QAE@XZ 004458f0 f i libohNetCore:CpiSubscription.obj
 0001:00044930       ?Ptr@?$Bws@$0BG@@OpenHome@@UBEPBEXZ 00445930 f i libohNetCore:CpiSubscription.obj
 0001:00044950       ??$MakeFunctor@VCpiSubscriptionManager@Net@OpenHome@@XV123@@OpenHome@@YG?AV?$MemberTranslator@VCpiSubscriptionManager@Net@OpenHome@@P8123@AEXXZ@0@AAVCpiSubscriptionManager@Net@0@ABQ8230@AEXXZ@Z 00445950 f i libohNetCore:CpiSubscription.obj
 0001:00044980       ??$?0AAVBrn@OpenHome@@PAVCpiSubscription@Net@1@@?$pair@VBrn@OpenHome@@PAVCpiSubscription@Net@2@@std@@QAE@AAVBrn@OpenHome@@$$QAPAVCpiSubscription@Net@3@@Z 00445980 f i libohNetCore:CpiSubscription.obj
 0001:000449c0       ??$insert@U?$pair@VBrn@OpenHome@@PAVCpiSubscription@Net@2@@std@@@?$_Tree@V?$_Tmap_traits@VBrn@OpenHome@@PAVCpiSubscription@Net@2@VBufferCmp@2@V?$allocator@U?$pair@$$CBVBrn@OpenHome@@PAVCpiSubscription@Net@2@@std@@@std@@$0A@@std@@@std@@QAE?AU?$pair@V?$_Tree_iterator@V?$_Tree_val@V?$_Tmap_traits@VBrn@OpenHome@@PAVCpiSubscription@Net@2@VBufferCmp@2@V?$allocator@U?$pair@$$CBVBrn@OpenHome@@PAVCpiSubscription@Net@2@@std@@@std@@$0A@@std@@@std@@@std@@_N@1@$$QAU?$pair@VBrn@OpenHome@@PAVCpiSubscription@Net@2@@1@@Z 004459c0 f i libohNetCore:CpiSubscription.obj
 0001:00044a20       ??$?0AAVBrn@OpenHome@@AAPAVCpiSubscription@Net@1@@?$pair@VBrn@OpenHome@@PAVCpiSubscription@Net@2@@std@@QAE@AAVBrn@OpenHome@@AAPAVCpiSubscription@Net@3@@Z 00445a20 f i libohNetCore:CpiSubscription.obj
 0001:00044a60       ??$forward@PAVCpiSubscription@Net@OpenHome@@@std@@YG$$QAPAVCpiSubscription@Net@OpenHome@@AAPAV123@@Z 00445a60 f i libohNetCore:CpiSubscription.obj
 0001:00044a70       ??$_Insert_rv@PAVCpiSubscription@Net@OpenHome@@@?$list@PAVCpiSubscription@Net@OpenHome@@V?$allocator@PAVCpiSubscription@Net@OpenHome@@@std@@@std@@QAEXV?$_List_const_iterator@V?$_List_val@PAVCpiSubscription@Net@OpenHome@@V?$allocator@PAVCpiSubscription@Net@OpenHome@@@std@@@std@@@1@$$QAPAVCpiSubscription@Net@OpenHome@@@Z 00445a70 f i libohNetCore:CpiSubscription.obj
 0001:00044b60       ??$addressof@U?$pair@$$CBVBrn@OpenHome@@PAVCpiSubscription@Net@2@@std@@@std@@YGPAU?$pair@$$CBVBrn@OpenHome@@PAVCpiSubscription@Net@2@@0@AAU10@@Z 00445b60 f i libohNetCore:CpiSubscription.obj
 0001:00044b70       ??$_Dest_val@V?$allocator@U?$pair@$$CBVBrn@OpenHome@@PAVCpiSubscription@Net@2@@std@@@std@@U?$pair@$$CBVBrn@OpenHome@@PAVCpiSubscription@Net@2@@2@@std@@YGXAAV?$allocator@U?$pair@$$CBVBrn@OpenHome@@PAVCpiSubscription@Net@2@@std@@@0@PAU?$pair@$$CBVBrn@OpenHome@@PAVCpiSubscription@Net@2@@0@@Z 00445b70 f i libohNetCore:CpiSubscription.obj
 0001:00044b90       ??$addressof@PAVCpiSubscription@Net@OpenHome@@@std@@YGPAPAVCpiSubscription@Net@OpenHome@@AAPAV123@@Z 00445b90 f i libohNetCore:CpiSubscription.obj
 0001:00044ba0       ??$_Cons_val@V?$allocator@PAVCpiSubscription@Net@OpenHome@@@std@@PAVCpiSubscription@Net@OpenHome@@PAV345@@std@@YGXAAV?$allocator@PAVCpiSubscription@Net@OpenHome@@@0@PAPAVCpiSubscription@Net@OpenHome@@$$QAPAV234@@Z 00445ba0 f i libohNetCore:CpiSubscription.obj
 0001:00044bd0       ??$addressof@QAVCpiSubscription@Net@OpenHome@@@std@@YGPBQAVCpiSubscription@Net@OpenHome@@ABQAV123@@Z 00445bd0 f i libohNetCore:CpiSubscription.obj
 0001:00044be0       ??$_Cons_val@V?$allocator@PAVCpiSubscription@Net@OpenHome@@@std@@PAVCpiSubscription@Net@OpenHome@@AAPAV345@@std@@YGXAAV?$allocator@PAVCpiSubscription@Net@OpenHome@@@0@PAPAVCpiSubscription@Net@OpenHome@@AAPAV234@@Z 00445be0 f i libohNetCore:CpiSubscription.obj
 0001:00044c10       ??$_Cons_val@V?$allocator@PAVCpiSubscription@Net@OpenHome@@@std@@PAVCpiSubscription@Net@OpenHome@@ABQAV345@@std@@YGXAAV?$allocator@PAVCpiSubscription@Net@OpenHome@@@0@PAPAVCpiSubscription@Net@OpenHome@@ABQAV234@@Z 00445c10 f i libohNetCore:CpiSubscription.obj
 0001:00044c40       ??$_Move@PAPAVCpiSubscription@Net@OpenHome@@PAPAV123@@std@@YGPAPAVCpiSubscription@Net@OpenHome@@PAPAV123@00@Z 00445c40 f i libohNetCore:CpiSubscription.obj
 0001:00044c90       ??$_Dest_val@V?$allocator@U_Node@?$_List_nod@PAVCpiSubscription@Net@OpenHome@@V?$allocator@PAVCpiSubscription@Net@OpenHome@@@std@@@std@@@std@@U_Node@?$_List_nod@PAVCpiSubscription@Net@OpenHome@@V?$allocator@PAVCpiSubscription@Net@OpenHome@@@std@@@2@@std@@YGXAAV?$allocator@U_Node@?$_List_nod@PAVCpiSubscription@Net@OpenHome@@V?$allocator@PAVCpiSubscription@Net@OpenHome@@@std@@@std@@@0@PAU_Node@?$_List_nod@PAVCpiSubscription@Net@OpenHome@@V?$allocator@PAVCpiSubscription@Net@OpenHome@@@std@@@0@@Z 00445c90 f i libohNetCore:CpiSubscription.obj
 0001:00044cb0       ??$_Kfn@$$CBVBrn@OpenHome@@PAVCpiSubscription@Net@2@@?$_Tmap_traits@VBrn@OpenHome@@PAVCpiSubscription@Net@2@VBufferCmp@2@V?$allocator@U?$pair@$$CBVBrn@OpenHome@@PAVCpiSubscription@Net@2@@std@@@std@@$0A@@std@@SGABVBrn@OpenHome@@ABU?$pair@$$CBVBrn@OpenHome@@PAVCpiSubscription@Net@2@@1@@Z 00445cb0 f i libohNetCore:CpiSubscription.obj
 0001:00044cc0       ??$_Destroy_range@V?$allocator@PAVCpiSubscription@Net@OpenHome@@@std@@@std@@YGXPAPAVCpiSubscription@Net@OpenHome@@0AAV?$allocator@PAVCpiSubscription@Net@OpenHome@@@0@@Z 00445cc0 f i libohNetCore:CpiSubscription.obj
 0001:00044d10       ??$?0PAVCpiSubscription@Net@OpenHome@@@?$allocator@U_Container_proxy@std@@@std@@QAE@ABV?$allocator@PAVCpiSubscription@Net@OpenHome@@@1@@Z 00445d10 f i libohNetCore:CpiSubscription.obj
 0001:00044d30       ??$?0PAVCpiSubscription@Net@OpenHome@@@?$allocator@U_Node@?$_List_nod@PAVCpiSubscription@Net@OpenHome@@V?$allocator@PAVCpiSubscription@Net@OpenHome@@@std@@@std@@@std@@QAE@ABV?$allocator@PAVCpiSubscription@Net@OpenHome@@@1@@Z 00445d30 f i libohNetCore:CpiSubscription.obj
 0001:00044d50       ??$?0U_Node@?$_List_nod@PAVCpiSubscription@Net@OpenHome@@V?$allocator@PAVCpiSubscription@Net@OpenHome@@@std@@@std@@@?$allocator@U_Container_proxy@std@@@std@@QAE@ABV?$allocator@U_Node@?$_List_nod@PAVCpiSubscription@Net@OpenHome@@V?$allocator@PAVCpiSubscription@Net@OpenHome@@@std@@@std@@@1@@Z 00445d50 f i libohNetCore:CpiSubscription.obj
 0001:00044d70       ??$_Allocate@U_Node@?$_List_nod@PAVCpiSubscription@Net@OpenHome@@V?$allocator@PAVCpiSubscription@Net@OpenHome@@@std@@@std@@@std@@YGPAU_Node@?$_List_nod@PAVCpiSubscription@Net@OpenHome@@V?$allocator@PAVCpiSubscription@Net@OpenHome@@@std@@@0@IPAU120@@Z 00445d70 f i libohNetCore:CpiSubscription.obj
 0001:00044df0       ??$?0U_Node@?$_Tree_nod@V?$_Tmap_traits@VBrn@OpenHome@@PAVCpiSubscription@Net@2@VBufferCmp@2@V?$allocator@U?$pair@$$CBVBrn@OpenHome@@PAVCpiSubscription@Net@2@@std@@@std@@$0A@@std@@@std@@@?$allocator@U_Container_proxy@std@@@std@@QAE@ABV?$allocator@U_Node@?$_Tree_nod@V?$_Tmap_traits@VBrn@OpenHome@@PAVCpiSubscription@Net@2@VBufferCmp@2@V?$allocator@U?$pair@$$CBVBrn@OpenHome@@PAVCpiSubscription@Net@2@@std@@@std@@$0A@@std@@@std@@@1@@Z 00445df0 f i libohNetCore:CpiSubscription.obj
 0001:00044e10       ??$_Umove@PAPAVCpiSubscription@Net@OpenHome@@@?$vector@PAVCpiSubscription@Net@OpenHome@@V?$allocator@PAVCpiSubscription@Net@OpenHome@@@std@@@std@@IAEPAPAVCpiSubscription@Net@OpenHome@@PAPAV234@00@Z 00445e10 f i libohNetCore:CpiSubscription.obj
 0001:00044e50       ??$_Allocate@PAVCpiSubscription@Net@OpenHome@@@std@@YGPAPAVCpiSubscription@Net@OpenHome@@IPAPAV123@@Z 00445e50 f i libohNetCore:CpiSubscription.obj
 0001:00044ed0       ??$?0U?$pair@$$CBVBrn@OpenHome@@PAVCpiSubscription@Net@2@@std@@@?$allocator@U_Node@?$_Tree_nod@V?$_Tmap_traits@VBrn@OpenHome@@PAVCpiSubscription@Net@2@VBufferCmp@2@V?$allocator@U?$pair@$$CBVBrn@OpenHome@@PAVCpiSubscription@Net@2@@std@@@std@@$0A@@std@@@std@@@std@@QAE@ABV?$allocator@U?$pair@$$CBVBrn@OpenHome@@PAVCpiSubscription@Net@2@@std@@@1@@Z 00445ed0 f i libohNetCore:CpiSubscription.obj
 0001:00044ef0       ??$_Allocate@U_Node@?$_Tree_nod@V?$_Tmap_traits@VBrn@OpenHome@@PAVCpiSubscription@Net@2@VBufferCmp@2@V?$allocator@U?$pair@$$CBVBrn@OpenHome@@PAVCpiSubscription@Net@2@@std@@@std@@$0A@@std@@@std@@@std@@YGPAU_Node@?$_Tree_nod@V?$_Tmap_traits@VBrn@OpenHome@@PAVCpiSubscription@Net@2@VBufferCmp@2@V?$allocator@U?$pair@$$CBVBrn@OpenHome@@PAVCpiSubscription@Net@2@@std@@@std@@$0A@@std@@@0@IPAU120@@Z 00445ef0 f i libohNetCore:CpiSubscription.obj
 0001:00044f70       ??_G?$Bws@$0EAA@@OpenHome@@UAEPAXI@Z 00445f70 f i libohNetCore:CpiSubscription.obj
 0001:00044f70       ??_E?$Bws@$0EAA@@OpenHome@@UAEPAXI@Z 00445f70 f i libohNetCore:CpiSubscription.obj
 0001:00044fb0       ??_E?$Bws@$0BG@@OpenHome@@UAEPAXI@Z 00445fb0 f i libohNetCore:CpiSubscription.obj
 0001:00044fb0       ??_G?$Bws@$0BG@@OpenHome@@UAEPAXI@Z 00445fb0 f i libohNetCore:CpiSubscription.obj
 0001:00044ff0       ?_Incsize@?$list@PAVCpiSubscription@Net@OpenHome@@V?$allocator@PAVCpiSubscription@Net@OpenHome@@@std@@@std@@QAEXI@Z 00445ff0 f i libohNetCore:CpiSubscription.obj
 0001:00045040       ?construct@?$allocator@PAVCpiSubscription@Net@OpenHome@@@std@@QAEXPAPAVCpiSubscription@Net@OpenHome@@ABQAV345@@Z 00446040 f i libohNetCore:CpiSubscription.obj
 0001:00045070       ?construct@?$allocator@PAVCpiSubscription@Net@OpenHome@@@std@@QAEXPAPAVCpiSubscription@Net@OpenHome@@$$QAPAV345@@Z 00446070 f i libohNetCore:CpiSubscription.obj
 0001:00045110       ?destroy@?$allocator@U_Node@?$_List_nod@PAVCpiSubscription@Net@OpenHome@@V?$allocator@PAVCpiSubscription@Net@OpenHome@@@std@@@std@@@std@@QAEXPAU_Node@?$_List_nod@PAVCpiSubscription@Net@OpenHome@@V?$allocator@PAVCpiSubscription@Net@OpenHome@@@std@@@2@@Z 00446110 f i libohNetCore:CpiSubscription.obj
 0001:00045140       ?_Linsert@?$_Tree@V?$_Tmap_traits@VBrn@OpenHome@@PAVCpiSubscription@Net@2@VBufferCmp@2@V?$allocator@U?$pair@$$CBVBrn@OpenHome@@PAVCpiSubscription@Net@2@@std@@@std@@$0A@@std@@@std@@QAE?AU?$pair@V?$_Tree_iterator@V?$_Tree_val@V?$_Tmap_traits@VBrn@OpenHome@@PAVCpiSubscription@Net@2@VBufferCmp@2@V?$allocator@U?$pair@$$CBVBrn@OpenHome@@PAVCpiSubscription@Net@2@@std@@@std@@$0A@@std@@@std@@@std@@_N@2@PAU_Node@?$_Tree_nod@V?$_Tmap_traits@VBrn@OpenHome@@PAVCpiSubscription@Net@2@VBufferCmp@2@V?$allocator@U?$pair@$$CBVBrn@OpenHome@@PAVCpiSubscription@Net@2@@std@@@std@@$0A@@std@@@2@_N@Z 00446140 f i libohNetCore:CpiSubscription.obj
 0001:00045520       ?destroy@?$allocator@U?$pair@$$CBVBrn@OpenHome@@PAVCpiSubscription@Net@2@@std@@@std@@QAEXPAU?$pair@$$CBVBrn@OpenHome@@PAVCpiSubscription@Net@2@@2@@Z 00446520 f i libohNetCore:CpiSubscription.obj
 0001:00045550       ??0?$MemberTranslator@VCpiSubscription@Net@OpenHome@@P8123@AEXXZ@OpenHome@@QAE@AAVCpiSubscription@Net@1@ABQ8231@AEXXZ@Z 00446550 f i libohNetCore:CpiSubscription.obj
 0001:00045590       ??0?$MemberTranslator@VCpiSubscriptionManager@Net@OpenHome@@P8123@AEXXZ@OpenHome@@QAE@AAVCpiSubscriptionManager@Net@1@ABQ8231@AEXXZ@Z 00446590 f i libohNetCore:CpiSubscription.obj
 0001:000455d0       ?max_size@?$list@PAVCpiSubscription@Net@OpenHome@@V?$allocator@PAVCpiSubscription@Net@OpenHome@@@std@@@std@@QBEIXZ 004465d0 f i libohNetCore:CpiSubscription.obj
 0001:00045600       ?_Insert@?$_Tree@V?$_Tmap_traits@VBrn@OpenHome@@PAVCpiSubscription@Net@2@VBufferCmp@2@V?$allocator@U?$pair@$$CBVBrn@OpenHome@@PAVCpiSubscription@Net@2@@std@@@std@@$0A@@std@@@std@@IAE?AV?$_Tree_iterator@V?$_Tree_val@V?$_Tmap_traits@VBrn@OpenHome@@PAVCpiSubscription@Net@2@VBufferCmp@2@V?$allocator@U?$pair@$$CBVBrn@OpenHome@@PAVCpiSubscription@Net@2@@std@@@std@@$0A@@std@@@std@@@2@_NPAU_Node@?$_Tree_nod@V?$_Tmap_traits@VBrn@OpenHome@@PAVCpiSubscription@Net@2@VBufferCmp@2@V?$allocator@U?$pair@$$CBVBrn@OpenHome@@PAVCpiSubscription@Net@2@@std@@@std@@$0A@@std@@@2@1@Z 00446600 f i libohNetCore:CpiSubscription.obj
 0001:000459c0       ?Thunk@?$MemberTranslator@VCpiSubscription@Net@OpenHome@@P8123@AEXXZ@OpenHome@@SGXABVFunctor@2@@Z 004469c0 f i libohNetCore:CpiSubscription.obj
 0001:00045a10       ?Thunk@?$MemberTranslator@VCpiSubscriptionManager@Net@OpenHome@@P8123@AEXXZ@OpenHome@@SGXABVFunctor@2@@Z 00446a10 f i libohNetCore:CpiSubscription.obj
 0001:00045a60       ??0?$pair@V?$_Tree_iterator@V?$_Tree_val@V?$_Tmap_traits@VBrn@OpenHome@@PAVCpiSubscription@Net@2@VBufferCmp@2@V?$allocator@U?$pair@$$CBVBrn@OpenHome@@PAVCpiSubscription@Net@2@@std@@@std@@$0A@@std@@@std@@@std@@_N@std@@QAE@$$QAV?$_Tree_iterator@V?$_Tree_val@V?$_Tmap_traits@VBrn@OpenHome@@PAVCpiSubscription@Net@2@VBufferCmp@2@V?$allocator@U?$pair@$$CBVBrn@OpenHome@@PAVCpiSubscription@Net@2@@std@@@std@@$0A@@std@@@std@@@1@$$QA_N@Z 00446a60 f i libohNetCore:CpiSubscription.obj
 0001:00045aa0       ??F?$_Tree_iterator@V?$_Tree_val@V?$_Tmap_traits@VBrn@OpenHome@@PAVCpiSubscription@Net@2@VBufferCmp@2@V?$allocator@U?$pair@$$CBVBrn@OpenHome@@PAVCpiSubscription@Net@2@@std@@@std@@$0A@@std@@@std@@@std@@QAEAAV01@XZ 00446aa0 f i libohNetCore:CpiSubscription.obj
 0001:00045ad0       ?max_size@?$_Tree@V?$_Tmap_traits@VBrn@OpenHome@@PAVCpiSubscription@Net@2@VBufferCmp@2@V?$allocator@U?$pair@$$CBVBrn@OpenHome@@PAVCpiSubscription@Net@2@@std@@@std@@$0A@@std@@@std@@QBEIXZ 00446ad0 f i libohNetCore:CpiSubscription.obj
 0001:00045b00       ??0?$_Pair_base@V?$_Tree_iterator@V?$_Tree_val@V?$_Tmap_traits@VBrn@OpenHome@@PAVCpiSubscription@Net@2@VBufferCmp@2@V?$allocator@U?$pair@$$CBVBrn@OpenHome@@PAVCpiSubscription@Net@2@@std@@@std@@$0A@@std@@@std@@@std@@_N@std@@QAE@$$QAV?$_Tree_iterator@V?$_Tree_val@V?$_Tmap_traits@VBrn@OpenHome@@PAVCpiSubscription@Net@2@VBufferCmp@2@V?$allocator@U?$pair@$$CBVBrn@OpenHome@@PAVCpiSubscription@Net@2@@std@@@std@@$0A@@std@@@std@@@1@$$QA_N@Z 00446b00 f i libohNetCore:CpiSubscription.obj
 0001:00045b80       ??F?$_Tree_const_iterator@V?$_Tree_val@V?$_Tmap_traits@VBrn@OpenHome@@PAVCpiSubscription@Net@2@VBufferCmp@2@V?$allocator@U?$pair@$$CBVBrn@OpenHome@@PAVCpiSubscription@Net@2@@std@@@std@@$0A@@std@@@std@@@std@@QAEAAV01@XZ 00446b80 f i libohNetCore:CpiSubscription.obj
 0001:00045ca0       ?max_size@?$allocator@U?$pair@$$CBVBrn@OpenHome@@PAVCpiSubscription@Net@2@@std@@@std@@QBEIXZ 00446ca0 f i libohNetCore:CpiSubscription.obj
 0001:00045cf0       ??F?$_Tree_unchecked_const_iterator@V?$_Tree_val@V?$_Tmap_traits@VBrn@OpenHome@@PAVCpiSubscription@Net@2@VBufferCmp@2@V?$allocator@U?$pair@$$CBVBrn@OpenHome@@PAVCpiSubscription@Net@2@@std@@@std@@$0A@@std@@@std@@U_Iterator_base12@2@@std@@QAEAAV01@XZ 00446cf0 f i libohNetCore:CpiSubscription.obj
 0001:00045de0       ?Write@?$Fifo@PAVSubscriber@Net@OpenHome@@@OpenHome@@QAEXPAVSubscriber@Net@2@I@Z 00446de0 f i libohNetCore:CpiSubscription.obj
 0001:00045e20       ?Read@?$Fifo@PAVSubscriber@Net@OpenHome@@@OpenHome@@QAEPAVSubscriber@Net@2@I@Z 00446e20 f i libohNetCore:CpiSubscription.obj
 0001:00045e70       ??$?0AAVBrn@OpenHome@@PAVCpiSubscription@Net@1@@?$_Pair_base@VBrn@OpenHome@@PAVCpiSubscription@Net@2@@std@@QAE@AAVBrn@OpenHome@@$$QAPAVCpiSubscription@Net@3@@Z 00446e70 f i libohNetCore:CpiSubscription.obj
 0001:00045ef0       ??$forward@U?$pair@VBrn@OpenHome@@PAVCpiSubscription@Net@2@@std@@@std@@YG$$QAU?$pair@VBrn@OpenHome@@PAVCpiSubscription@Net@2@@0@AAU10@@Z 00446ef0 f i libohNetCore:CpiSubscription.obj
 0001:00045f00       ??$_Buynode@U?$pair@VBrn@OpenHome@@PAVCpiSubscription@Net@2@@std@@@?$_Tree_val@V?$_Tmap_traits@VBrn@OpenHome@@PAVCpiSubscription@Net@2@VBufferCmp@2@V?$allocator@U?$pair@$$CBVBrn@OpenHome@@PAVCpiSubscription@Net@2@@std@@@std@@$0A@@std@@@std@@QAEPAU_Node@?$_Tree_nod@V?$_Tmap_traits@VBrn@OpenHome@@PAVCpiSubscription@Net@2@VBufferCmp@2@V?$allocator@U?$pair@$$CBVBrn@OpenHome@@PAVCpiSubscription@Net@2@@std@@@std@@$0A@@std@@@1@$$QAU?$pair@VBrn@OpenHome@@PAVCpiSubscription@Net@2@@1@@Z 00446f00 f i libohNetCore:CpiSubscription.obj
 0001:00045fe0       ??$forward@AAPAVCpiSubscription@Net@OpenHome@@@std@@YGAAPAVCpiSubscription@Net@OpenHome@@AAPAV123@@Z 00446fe0 f i libohNetCore:CpiSubscription.obj
 0001:00045ff0       ??$?0AAVBrn@OpenHome@@AAPAVCpiSubscription@Net@1@@?$_Pair_base@VBrn@OpenHome@@PAVCpiSubscription@Net@2@@std@@QAE@AAVBrn@OpenHome@@AAPAVCpiSubscription@Net@3@@Z 00446ff0 f i libohNetCore:CpiSubscription.obj
 0001:00046070       ??$_Buynode@PAVCpiSubscription@Net@OpenHome@@@?$_List_val@PAVCpiSubscription@Net@OpenHome@@V?$allocator@PAVCpiSubscription@Net@OpenHome@@@std@@@std@@QAEPAU_Node@?$_List_nod@PAVCpiSubscription@Net@OpenHome@@V?$allocator@PAVCpiSubscription@Net@OpenHome@@@std@@@1@PAU231@0$$QAPAVCpiSubscription@Net@OpenHome@@@Z 00447070 f i libohNetCore:CpiSubscription.obj
 0001:00046190       ??$construct@AAPAVCpiSubscription@Net@OpenHome@@@?$allocator@PAVCpiSubscription@Net@OpenHome@@@std@@QAEXPAPAVCpiSubscription@Net@OpenHome@@AAPAV234@@Z 00447190 f i libohNetCore:CpiSubscription.obj
 0001:00046230       ??$forward@ABQAVCpiSubscription@Net@OpenHome@@@std@@YGABQAVCpiSubscription@Net@OpenHome@@ABQAV123@@Z 00447230 f i libohNetCore:CpiSubscription.obj
 0001:00046240       ??$_Ptr_cat@PAVCpiSubscription@Net@OpenHome@@PAV123@@std@@YG?AU_Scalar_ptr_iterator_tag@0@PAPAVCpiSubscription@Net@OpenHome@@0@Z 00447240 f i libohNetCore:CpiSubscription.obj
 0001:000462a0       ??$_Move@PAPAVCpiSubscription@Net@OpenHome@@PAPAV123@@std@@YGPAPAVCpiSubscription@Net@OpenHome@@PAPAV123@00U_Scalar_ptr_iterator_tag@0@@Z 004472a0 f i libohNetCore:CpiSubscription.obj
 0001:000462f0       ??$_Destroy_range@V?$allocator@PAVCpiSubscription@Net@OpenHome@@@std@@@std@@YGXPAPAVCpiSubscription@Net@OpenHome@@0AAV?$allocator@PAVCpiSubscription@Net@OpenHome@@@0@U_Scalar_ptr_iterator_tag@0@@Z 004472f0 f i libohNetCore:CpiSubscription.obj
 0001:00046300       ??$_Uninitialized_move@PAPAVCpiSubscription@Net@OpenHome@@PAPAV123@V?$allocator@PAVCpiSubscription@Net@OpenHome@@@std@@@std@@YGPAPAVCpiSubscription@Net@OpenHome@@PAPAV123@00AAV?$allocator@PAVCpiSubscription@Net@OpenHome@@@0@@Z 00447300 f i libohNetCore:CpiSubscription.obj
 0001:00046350       ??$_Construct@PAVCpiSubscription@Net@OpenHome@@ABQAV123@@std@@YGXPAPAVCpiSubscription@Net@OpenHome@@ABQAV123@@Z 00447350 f i libohNetCore:CpiSubscription.obj
 0001:00046400       ??$_Destroy@U_Node@?$_List_nod@PAVCpiSubscription@Net@OpenHome@@V?$allocator@PAVCpiSubscription@Net@OpenHome@@@std@@@std@@@std@@YGXPAU_Node@?$_List_nod@PAVCpiSubscription@Net@OpenHome@@V?$allocator@PAVCpiSubscription@Net@OpenHome@@@std@@@0@@Z 00447400 f i libohNetCore:CpiSubscription.obj
 0001:00046410       ??$?0AAV?$_Tree_iterator@V?$_Tree_val@V?$_Tmap_traits@VBrn@OpenHome@@PAVCpiSubscription@Net@2@VBufferCmp@2@V?$allocator@U?$pair@$$CBVBrn@OpenHome@@PAVCpiSubscription@Net@2@@std@@@std@@$0A@@std@@@std@@@std@@_N@?$pair@V?$_Tree_iterator@V?$_Tree_val@V?$_Tmap_traits@VBrn@OpenHome@@PAVCpiSubscription@Net@2@VBufferCmp@2@V?$allocator@U?$pair@$$CBVBrn@OpenHome@@PAVCpiSubscription@Net@2@@std@@@std@@$0A@@std@@@std@@@std@@_N@std@@QAE@AAV?$_Tree_iterator@V?$_Tree_val@V?$_Tmap_traits@VBrn@OpenHome@@PAVCpiSubscription@Net@2@VBufferCmp@2@V?$allocator@U?$pair@$$CBVBrn@OpenHome@@PAVCpiSubscription@Net@2@@std@@@std@@$0A@@std@@@std@@@1@$$QA_N@Z 00447410 f i libohNetCore:CpiSubscription.obj
 0001:00046450       ??$_Destroy@U?$pair@$$CBVBrn@OpenHome@@PAVCpiSubscription@Net@2@@std@@@std@@YGXPAU?$pair@$$CBVBrn@OpenHome@@PAVCpiSubscription@Net@2@@0@@Z 00447450 f i libohNetCore:CpiSubscription.obj
 0001:00046470       ??$move@AAV?$_Tree_iterator@V?$_Tree_val@V?$_Tmap_traits@VBrn@OpenHome@@PAVCpiSubscription@Net@2@VBufferCmp@2@V?$allocator@U?$pair@$$CBVBrn@OpenHome@@PAVCpiSubscription@Net@2@@std@@@std@@$0A@@std@@@std@@@std@@@std@@YG$$QAV?$_Tree_iterator@V?$_Tree_val@V?$_Tmap_traits@VBrn@OpenHome@@PAVCpiSubscription@Net@2@VBufferCmp@2@V?$allocator@U?$pair@$$CBVBrn@OpenHome@@PAVCpiSubscription@Net@2@@std@@@std@@$0A@@std@@@std@@@0@AAV10@@Z 00447470 f i libohNetCore:CpiSubscription.obj
 0001:00046480       ??_G?$pair@$$CBVBrn@OpenHome@@PAVCpiSubscription@Net@2@@std@@QAEPAXI@Z 00447480 f i libohNetCore:CpiSubscription.obj
 0001:000464c0       ??1?$pair@$$CBVBrn@OpenHome@@PAVCpiSubscription@Net@2@@std@@QAE@XZ 004474c0 f i libohNetCore:CpiSubscription.obj
 0001:000464f0       ??1?$_Pair_base@$$CBVBrn@OpenHome@@PAVCpiSubscription@Net@2@@std@@QAE@XZ 004474f0 f i libohNetCore:CpiSubscription.obj
 0001:00046520       ?_Buynode@?$_Tree_val@V?$_Tmap_traits@VBrn@OpenHome@@PAVCpiSubscription@Net@2@VBufferCmp@2@V?$allocator@U?$pair@$$CBVBrn@OpenHome@@PAVCpiSubscription@Net@2@@std@@@std@@$0A@@std@@@std@@QAEPAU_Node@?$_Tree_nod@V?$_Tmap_traits@VBrn@OpenHome@@PAVCpiSubscription@Net@2@VBufferCmp@2@V?$allocator@U?$pair@$$CBVBrn@OpenHome@@PAVCpiSubscription@Net@2@@std@@@std@@$0A@@std@@@2@XZ 00447520 f i libohNetCore:CpiSubscription.obj
 0001:000465b0       ??$_Cons_val@V?$allocator@U?$pair@$$CBVBrn@OpenHome@@PAVCpiSubscription@Net@2@@std@@@std@@U?$pair@$$CBVBrn@OpenHome@@PAVCpiSubscription@Net@2@@2@U?$pair@VBrn@OpenHome@@PAVCpiSubscription@Net@2@@2@@std@@YGXAAV?$allocator@U?$pair@$$CBVBrn@OpenHome@@PAVCpiSubscription@Net@2@@std@@@0@PAU?$pair@$$CBVBrn@OpenHome@@PAVCpiSubscription@Net@2@@0@$$QAU?$pair@VBrn@OpenHome@@PAVCpiSubscription@Net@2@@0@@Z 004475b0 f i libohNetCore:CpiSubscription.obj
 0001:000465e0       ??$_Val_type@PAPAVCpiSubscription@Net@OpenHome@@@std@@YGPAPAVCpiSubscription@Net@OpenHome@@PAPAV123@@Z 004475e0 f i libohNetCore:CpiSubscription.obj
 0001:000465f0       ??$_Uninit_move@PAVCpiSubscription@Net@OpenHome@@PAV123@PAV123@@std@@YGPAPAVCpiSubscription@Net@OpenHome@@PAPAV123@00AAV?$allocator@PAVCpiSubscription@Net@OpenHome@@@0@0U_Scalar_ptr_iterator_tag@0@@Z 004475f0 f i libohNetCore:CpiSubscription.obj
 0001:00046660       ??$forward@AAV?$_Tree_iterator@V?$_Tree_val@V?$_Tmap_traits@VBrn@OpenHome@@PAVCpiSubscription@Net@2@VBufferCmp@2@V?$allocator@U?$pair@$$CBVBrn@OpenHome@@PAVCpiSubscription@Net@2@@std@@@std@@$0A@@std@@@std@@@std@@@std@@YGAAV?$_Tree_iterator@V?$_Tree_val@V?$_Tmap_traits@VBrn@OpenHome@@PAVCpiSubscription@Net@2@VBufferCmp@2@V?$allocator@U?$pair@$$CBVBrn@OpenHome@@PAVCpiSubscription@Net@2@@std@@@std@@$0A@@std@@@std@@@0@AAV10@@Z 00447660 f i libohNetCore:CpiSubscription.obj
 0001:00046670       ??$?0AAV?$_Tree_iterator@V?$_Tree_val@V?$_Tmap_traits@VBrn@OpenHome@@PAVCpiSubscription@Net@2@VBufferCmp@2@V?$allocator@U?$pair@$$CBVBrn@OpenHome@@PAVCpiSubscription@Net@2@@std@@@std@@$0A@@std@@@std@@@std@@_N@?$_Pair_base@V?$_Tree_iterator@V?$_Tree_val@V?$_Tmap_traits@VBrn@OpenHome@@PAVCpiSubscription@Net@2@VBufferCmp@2@V?$allocator@U?$pair@$$CBVBrn@OpenHome@@PAVCpiSubscription@Net@2@@std@@@std@@$0A@@std@@@std@@@std@@_N@std@@QAE@AAV?$_Tree_iterator@V?$_Tree_val@V?$_Tmap_traits@VBrn@OpenHome@@PAVCpiSubscription@Net@2@VBufferCmp@2@V?$allocator@U?$pair@$$CBVBrn@OpenHome@@PAVCpiSubscription@Net@2@@std@@@std@@$0A@@std@@@std@@@1@$$QA_N@Z 00447670 f i libohNetCore:CpiSubscription.obj
 0001:000466f0       ??$construct@U?$pair@VBrn@OpenHome@@PAVCpiSubscription@Net@2@@std@@@?$allocator@U?$pair@$$CBVBrn@OpenHome@@PAVCpiSubscription@Net@2@@std@@@std@@QAEXPAU?$pair@$$CBVBrn@OpenHome@@PAVCpiSubscription@Net@2@@1@$$QAU?$pair@VBrn@OpenHome@@PAVCpiSubscription@Net@2@@1@@Z 004476f0 f i libohNetCore:CpiSubscription.obj
 0001:00046790       ??$_Debug_range@PAPAVCpiSubscription@Net@OpenHome@@@std@@YGXPAPAVCpiSubscription@Net@OpenHome@@0PB_WI@Z 00447790 f i libohNetCore:CpiSubscription.obj
 0001:000467e0       ??$_Debug_pointer@PAVCpiSubscription@Net@OpenHome@@@std@@YGXPAPAVCpiSubscription@Net@OpenHome@@PB_WI@Z 004477e0 f i libohNetCore:CpiSubscription.obj
 0001:00046810       ??$?0VBrn@OpenHome@@PAVCpiSubscription@Net@1@@?$pair@$$CBVBrn@OpenHome@@PAVCpiSubscription@Net@2@@std@@QAE@$$QAU?$pair@VBrn@OpenHome@@PAVCpiSubscription@Net@2@@1@@Z 00447810 f i libohNetCore:CpiSubscription.obj
 0001:00046850       ??$_Iter_cat@PAPAVCpiSubscription@Net@OpenHome@@@std@@YG?AUrandom_access_iterator_tag@0@ABQAPAVCpiSubscription@Net@OpenHome@@@Z 00447850 f i libohNetCore:CpiSubscription.obj
 0001:000468b0       ??$_Debug_range2@PAPAVCpiSubscription@Net@OpenHome@@@std@@YGXPAPAVCpiSubscription@Net@OpenHome@@0PB_WIUrandom_access_iterator_tag@0@@Z 004478b0 f i libohNetCore:CpiSubscription.obj
 0001:00046910       ??$?0VBrn@OpenHome@@PAVCpiSubscription@Net@1@@?$_Pair_base@$$CBVBrn@OpenHome@@PAVCpiSubscription@Net@2@@std@@QAE@$$QAVBrn@OpenHome@@$$QAPAVCpiSubscription@Net@3@@Z 00447910 f i libohNetCore:CpiSubscription.obj
 0001:00046990       ??0Error@Net@OpenHome@@QAE@XZ 00447990 f   libohNetCore:Error.obj
 0001:00046a00       ?Clear@Error@Net@OpenHome@@QAEXXZ 00447a00 f   libohNetCore:Error.obj
 0001:00046ad0       ?Set@Error@Net@OpenHome@@QAEXW4ELevel@123@IABVBrx@3@@Z 00447ad0 f   libohNetCore:Error.obj
 0001:00046b10       ?Output@Error@Net@OpenHome@@QAEXAAVIAsyncOutput@23@@Z 00447b10 f   libohNetCore:Error.obj
 0001:00046c40       ?LevelName@Error@Net@OpenHome@@QBEPBDXZ 00447c40 f   libohNetCore:Error.obj
 0001:00046cd0       ?Description@Error@Net@OpenHome@@QBEPBDXZ 00447cd0 f i libohNetCore:Error.obj
 0001:00046d10       ??0FifoBase@OpenHome@@IAE@I@Z 00447d10 f   libohNetCore:Fifo.obj
 0001:00046df0       ?Slots@FifoBase@OpenHome@@QBEIXZ 00447df0 f   libohNetCore:Fifo.obj
 0001:00046e10       ?SlotsFree@FifoBase@OpenHome@@QBEIXZ 00447e10 f   libohNetCore:Fifo.obj
 0001:00046e30       ?SlotsUsed@FifoBase@OpenHome@@QBEIXZ 00447e30 f   libohNetCore:Fifo.obj
 0001:00046e50       ?ReadInterrupt@FifoBase@OpenHome@@QAEX_N@Z 00447e50 f   libohNetCore:Fifo.obj
 0001:00046e90       ?WriteOpen@FifoBase@OpenHome@@IAEII@Z 00447e90 f   libohNetCore:Fifo.obj
 0001:00046f10       ?WriteClose@FifoBase@OpenHome@@IAEXXZ 00447f10 f   libohNetCore:Fifo.obj
 0001:00046f60       ?ReadOpen@FifoBase@OpenHome@@IAEII@Z 00447f60 f   libohNetCore:Fifo.obj
 0001:00047060       ?ReadClose@FifoBase@OpenHome@@IAEXXZ 00448060 f   libohNetCore:Fifo.obj
 0001:000470a0       ?DoPeek@FifoBase@OpenHome@@IAEIXZ 004480a0 f   libohNetCore:Fifo.obj
 0001:000470c0       ??0FifoByte@OpenHome@@QAE@I@Z 004480c0 f   libohNetCore:Fifo.obj
 0001:000470f0       ?Write@FifoByte@OpenHome@@QAEXABVBrx@2@@Z 004480f0 f   libohNetCore:Fifo.obj
 0001:00047150       ?Read@FifoByte@OpenHome@@QAEXAAVBwx@2@@Z 00448150 f   libohNetCore:Fifo.obj
 0001:00047190       ?Read@FifoByte@OpenHome@@QAEXAAVBwx@2@I@Z 00448190 f   libohNetCore:Fifo.obj
 0001:00047200       ??0FifoThresholdBase@OpenHome@@IAE@IAAVFifoThresholdObserver@1@@Z 00448200 f   libohNetCore:Fifo.obj
 0001:00047260       ?SetThresholdLow@FifoThresholdBase@OpenHome@@QAEXI@Z 00448260 f   libohNetCore:Fifo.obj
 0001:000472b0       ?SetThresholdHigh@FifoThresholdBase@OpenHome@@QAEXI@Z 004482b0 f   libohNetCore:Fifo.obj
 0001:00047300       ?CheckThresholdHigh@FifoThresholdBase@OpenHome@@IAEXXZ 00448300 f   libohNetCore:Fifo.obj
 0001:00047380       ?CheckThresholdLow@FifoThresholdBase@OpenHome@@IAEXXZ 00448380 f   libohNetCore:Fifo.obj
 0001:00047400       ??0FifoLiteBase@OpenHome@@IAE@I@Z 00448400 f   libohNetCore:Fifo.obj
 0001:00047450       ?Slots@FifoLiteBase@OpenHome@@QBEIXZ 00448450 f   libohNetCore:Fifo.obj
 0001:00047470       ?SlotsFree@FifoLiteBase@OpenHome@@QBEIXZ 00448470 f   libohNetCore:Fifo.obj
 0001:00047490       ?SlotsUsed@FifoLiteBase@OpenHome@@QBEIXZ 00448490 f   libohNetCore:Fifo.obj
 0001:000474b0       ?Write@FifoLiteBase@OpenHome@@IAEIXZ 004484b0 f   libohNetCore:Fifo.obj
 0001:00047540       ?WriteBack@FifoLiteBase@OpenHome@@IAEIXZ 00448540 f   libohNetCore:Fifo.obj
 0001:000475c0       ?Read@FifoLiteBase@OpenHome@@IAEIXZ 004485c0 f   libohNetCore:Fifo.obj
 0001:00047640       ??0FifoReadError@OpenHome@@QAE@PBDI@Z 00448640 f i libohNetCore:Fifo.obj
 0001:00047680       ??1FifoReadError@OpenHome@@QAE@XZ 00448680 f i libohNetCore:Fifo.obj
 0001:000476b0       ??0?$Fifo@E@OpenHome@@QAE@I@Z 004486b0 f i libohNetCore:Fifo.obj
 0001:00047740       ?Write@?$Fifo@E@OpenHome@@QAEXE@Z 00448740 f i libohNetCore:Fifo.obj
 0001:00047770       ?Read@?$Fifo@E@OpenHome@@QAEEXZ 00448770 f i libohNetCore:Fifo.obj
 0001:000477a0       ?Write@?$Fifo@E@OpenHome@@QAEXEI@Z 004487a0 f i libohNetCore:Fifo.obj
 0001:000477e0       ?Read@?$Fifo@E@OpenHome@@QAEEI@Z 004487e0 f i libohNetCore:Fifo.obj
 0001:00047830       ??0CpiStack@Net@OpenHome@@QAE@XZ 00448830 f   libohNetCore:CpiStack.obj
 0001:000479b0       ??1CpiStack@Net@OpenHome@@EAE@XZ 004489b0 f   libohNetCore:CpiStack.obj
 0001:00047b10       ?InvocationManager@CpiStack@Net@OpenHome@@SGAAV023@XZ 00448b10 f   libohNetCore:CpiStack.obj
 0001:00047b40       ?XmlFetchManager@CpiStack@Net@OpenHome@@SGAAV023@XZ 00448b40 f   libohNetCore:CpiStack.obj
 0001:00047b70       ?SubscriptionManager@CpiStack@Net@OpenHome@@SGAAVCpiSubscriptionManager@23@XZ 00448b70 f   libohNetCore:CpiStack.obj
 0001:00047ba0       ?DeviceListUpdater@CpiStack@Net@OpenHome@@SGAAVCpiDeviceListUpdater@23@XZ 00448ba0 f   libohNetCore:CpiStack.obj
 0001:00047bd0       ?Self@CpiStack@Net@OpenHome@@CGPAV123@XZ 00448bd0 f   libohNetCore:CpiStack.obj
 0001:00047bf0       ??1IStack@Net@OpenHome@@UAE@XZ 00448bf0 f i libohNetCore:CpiStack.obj
 0001:00047c10       ??_EIStack@Net@OpenHome@@UAEPAXI@Z 00448c10 f i libohNetCore:CpiStack.obj
 0001:00047c10       ??_GIStack@Net@OpenHome@@UAEPAXI@Z 00448c10 f i libohNetCore:CpiStack.obj
 0001:00047c50       ??_GCpiStack@Net@OpenHome@@EAEPAXI@Z 00448c50 f i libohNetCore:CpiStack.obj
 0001:00047c50       ??_ECpiStack@Net@OpenHome@@EAEPAXI@Z 00448c50 f i libohNetCore:CpiStack.obj
 0001:00047c90       ??0IStack@Net@OpenHome@@QAE@XZ 00448c90 f i libohNetCore:CpiStack.obj
 0001:00047cb0       ??0Endpoint@OpenHome@@QAE@XZ 00448cb0 f   libohNetCore:Network.obj
 0001:00047ce0       ??0Endpoint@OpenHome@@QAE@IABVBrx@1@@Z 00448ce0 f   libohNetCore:Network.obj
 0001:00047d20       ??0Endpoint@OpenHome@@QAE@II@Z 00448d20 f   libohNetCore:Network.obj
 0001:00047d50       ?SetPort@Endpoint@OpenHome@@QAEXI@Z 00448d50 f   libohNetCore:Network.obj
 0001:00047d70       ?SetPort@Endpoint@OpenHome@@QAEXABV12@@Z 00448d70 f   libohNetCore:Network.obj
 0001:00047da0       ?SetAddress@Endpoint@OpenHome@@QAEXABVBrx@2@@Z 00448da0 f   libohNetCore:Network.obj
 0001:00047df0       ?SetAddress@Endpoint@OpenHome@@QAEXI@Z 00448df0 f   libohNetCore:Network.obj
 0001:00047e10       ?SetAddress@Endpoint@OpenHome@@QAEXABV12@@Z 00448e10 f   libohNetCore:Network.obj
 0001:00047e30       ?Address@Endpoint@OpenHome@@QBEIXZ 00448e30 f   libohNetCore:Network.obj
 0001:00047e50       ?Port@Endpoint@OpenHome@@QBEGXZ 00448e50 f   libohNetCore:Network.obj
 0001:00047e70       ?AppendAddress@Endpoint@OpenHome@@QBEXAAVBwx@2@@Z 00448e70 f   libohNetCore:Network.obj
 0001:00047f40       ?AppendEndpoint@Endpoint@OpenHome@@QBEXAAVBwx@2@@Z 00448f40 f   libohNetCore:Network.obj
 0001:00047fc0       ?GetAddressOctets@Endpoint@OpenHome@@QBEXAAY03E@Z 00448fc0 f   libohNetCore:Network.obj
 0001:00048020       ?Replace@Endpoint@OpenHome@@QAEXABV12@@Z 00449020 f   libohNetCore:Network.obj
 0001:00048060       ?Equals@Endpoint@OpenHome@@QBE_NABV12@@Z 00449060 f   libohNetCore:Network.obj
 0001:000480b0       ??0Socket@OpenHome@@IAE@XZ 004490b0 f   libohNetCore:Network.obj
 0001:000480f0       ?Interrupt@Socket@OpenHome@@QAEX_N@Z 004490f0 f   libohNetCore:Network.obj
 0001:000481c0       ?Close@Socket@OpenHome@@QAEXXZ 004491c0 f   libohNetCore:Network.obj
 0001:00048280       ?SetSendBufBytes@Socket@OpenHome@@QAEXI@Z 00449280 f   libohNetCore:Network.obj
 0001:000482b0       ?SetRecvBufBytes@Socket@OpenHome@@QAEXI@Z 004492b0 f   libohNetCore:Network.obj
 0001:000482e0       ?SetRecvTimeout@Socket@OpenHome@@QAEXI@Z 004492e0 f   libohNetCore:Network.obj
 0001:00048310       ?LogVerbose@Socket@OpenHome@@QAEX_N0@Z 00449310 f   libohNetCore:Network.obj
 0001:00048380       ?Send@Socket@OpenHome@@IAEXABVBrx@2@@Z 00449380 f   libohNetCore:Network.obj
 0001:00048580       ?SendTo@Socket@OpenHome@@IAEXABVBrx@2@ABVEndpoint@2@@Z 00449580 f   libohNetCore:Network.obj
 0001:00048790       ?Receive@Socket@OpenHome@@IAEXAAVBwx@2@@Z 00449790 f   libohNetCore:Network.obj
 0001:00048940       ?Receive@Socket@OpenHome@@IAEXAAVBwx@2@I@Z 00449940 f   libohNetCore:Network.obj
 0001:00048be0       ?ReceiveFrom@Socket@OpenHome@@IAEXAAVBwx@2@AAVEndpoint@2@@Z 00449be0 f   libohNetCore:Network.obj
 0001:00048d80       ?Bind@Socket@OpenHome@@IAEXABVEndpoint@2@@Z 00449d80 f   libohNetCore:Network.obj
 0001:00048ec0       ?GetPort@Socket@OpenHome@@IAEXAAI@Z 00449ec0 f   libohNetCore:Network.obj
 0001:00049000       ?Listen@Socket@OpenHome@@IAEXI@Z 0044a000 f   libohNetCore:Network.obj
 0001:00049140       ?Accept@Socket@OpenHome@@IAEPAXXZ 0044a140 f   libohNetCore:Network.obj
 0001:000492b0       ?Log@Socket@OpenHome@@AAEXPBDABVBrx@2@@Z 0044a2b0 f   libohNetCore:Network.obj
 0001:00049550       ??0AutoSocket@OpenHome@@QAE@AAVSocket@1@@Z 0044a550 f   libohNetCore:Network.obj
 0001:00049590       ??1AutoSocket@OpenHome@@QAE@XZ 0044a590 f   libohNetCore:Network.obj
 0001:000495c0       ??0SocketTcp@OpenHome@@IAE@XZ 0044a5c0 f   libohNetCore:Network.obj
 0001:00049690       ?Receive@SocketTcp@OpenHome@@QAEXAAVBwx@2@I@Z 0044a690 f   libohNetCore:Network.obj
 0001:00049700       ?Write@SocketTcp@OpenHome@@UAEXE@Z 0044a700 f   libohNetCore:Network.obj
 0001:000497d0       ?Write@SocketTcp@OpenHome@@UAEXABVBrx@2@@Z 0044a7d0 f   libohNetCore:Network.obj
 0001:000498f0       ?WriteFlush@SocketTcp@OpenHome@@UAEXXZ 0044a8f0 f   libohNetCore:Network.obj
 0001:00049910       ?Read@SocketTcp@OpenHome@@UAEXAAVBwx@2@@Z 0044a910 f   libohNetCore:Network.obj
 0001:00049ab0       ?ReadFlush@SocketTcp@OpenHome@@UAEXXZ 0044aab0 f   libohNetCore:Network.obj
 0001:00049ad0       ?ReadInterrupt@SocketTcp@OpenHome@@UAEXXZ 0044aad0 f   libohNetCore:Network.obj
 0001:00049b00       ?Open@SocketTcpClient@OpenHome@@QAEXXZ 0044ab00 f   libohNetCore:Network.obj
 0001:00049c00       ?Connect@SocketTcpClient@OpenHome@@QAEXABVEndpoint@2@I@Z 0044ac00 f   libohNetCore:Network.obj
 0001:00049c70       ??0SocketTcpServer@OpenHome@@QAE@PBDIIIII@Z 0044ac70 f   libohNetCore:Network.obj
 0001:00049dc0       ?Add@SocketTcpServer@OpenHome@@QAEXPBDPAVSocketTcpSession@2@H@Z 0044adc0 f   libohNetCore:Network.obj
 0001:00049ef0       ?Accept@SocketTcpServer@OpenHome@@AAEPAXXZ 0044aef0 f   libohNetCore:Network.obj
 0001:0004a090       ?Terminating@SocketTcpServer@OpenHome@@AAE_NXZ 0044b090 f   libohNetCore:Network.obj
 0001:0004a0f0       ??1SocketTcpServer@OpenHome@@UAE@XZ 0044b0f0 f   libohNetCore:Network.obj
 0001:0004a280       ??0SocketTcpSession@OpenHome@@IAE@XZ 0044b280 f   libohNetCore:Network.obj
 0001:0004a320       ?Add@SocketTcpSession@OpenHome@@AAEXAAVSocketTcpServer@2@PBDII@Z 0044b320 f   libohNetCore:Network.obj
 0001:0004a430       ?Start@SocketTcpSession@OpenHome@@AAEXXZ 0044b430 f   libohNetCore:Network.obj
 0001:0004a670       ?Open@SocketTcpSession@OpenHome@@AAEXPAX@Z 0044b670 f   libohNetCore:Network.obj
 0001:0004a7c0       ?Close@SocketTcpSession@OpenHome@@AAEXXZ 0044b7c0 f   libohNetCore:Network.obj
 0001:0004a8d0       ??1SocketTcpSession@OpenHome@@MAE@XZ 0044b8d0 f   libohNetCore:Network.obj
 0001:0004aa30       ??0SocketUdp@OpenHome@@QAE@XZ 0044ba30 f   libohNetCore:Network.obj
 0001:0004ab60       ??0SocketUdp@OpenHome@@QAE@I@Z 0044bb60 f   libohNetCore:Network.obj
 0001:0004ac90       ??0SocketUdp@OpenHome@@QAE@II@Z 0044bc90 f   libohNetCore:Network.obj
 0001:0004add0       ?SetTtl@SocketUdp@OpenHome@@QAEXI@Z 0044bdd0 f   libohNetCore:Network.obj
 0001:0004ae70       ??1SocketUdp@OpenHome@@UAE@XZ 0044be70 f   libohNetCore:Network.obj
 0001:0004aee0       ?Port@SocketUdp@OpenHome@@QBEIXZ 0044bee0 f   libohNetCore:Network.obj
 0001:0004af00       ?Send@SocketUdp@OpenHome@@QAEXABVBrx@2@ABVEndpoint@2@@Z 0044bf00 f   libohNetCore:Network.obj
 0001:0004af60       ?Receive@SocketUdp@OpenHome@@QAE?AVEndpoint@2@AAVBwx@2@@Z 0044bf60 f   libohNetCore:Network.obj
 0001:0004b050       ??0SocketUdpMulticast@OpenHome@@QAE@IABVEndpoint@1@@Z 0044c050 f   libohNetCore:Network.obj
 0001:0004b190       ??1SocketUdpMulticast@OpenHome@@UAE@XZ 0044c190 f   libohNetCore:Network.obj
 0001:0004b280       ??0UdpReader@OpenHome@@QAE@AAVSocketUdp@1@@Z 0044c280 f   libohNetCore:Network.obj
 0001:0004b310       ?Sender@UdpReader@OpenHome@@QBE?AVEndpoint@2@XZ 0044c310 f   libohNetCore:Network.obj
 0001:0004b340       ?Read@UdpReader@OpenHome@@UAEXAAVBwx@2@@Z 0044c340 f   libohNetCore:Network.obj
 0001:0004b4a0       ?ReadFlush@UdpReader@OpenHome@@UAEXXZ 0044c4a0 f   libohNetCore:Network.obj
 0001:0004b4c0       ?ReadInterrupt@UdpReader@OpenHome@@UAEXXZ 0044c4c0 f   libohNetCore:Network.obj
 0001:0004b4f0       ??0UdpWriter@OpenHome@@QAE@AAVSocketUdp@1@ABVEndpoint@1@@Z 0044c4f0 f   libohNetCore:Network.obj
 0001:0004b590       ?Write@UdpWriter@OpenHome@@UAEXE@Z 0044c590 f   libohNetCore:Network.obj
 0001:0004b5c0       ?Write@UdpWriter@OpenHome@@UAEXABVBrx@2@@Z 0044c5c0 f   libohNetCore:Network.obj
 0001:0004b710       ?WriteFlush@UdpWriter@OpenHome@@UAEXXZ 0044c710 f   libohNetCore:Network.obj
 0001:0004b730       ??_GSocket@OpenHome@@MAEPAXI@Z 0044c730 f i libohNetCore:Network.obj
 0001:0004b730       ??_ESocket@OpenHome@@MAEPAXI@Z 0044c730 f i libohNetCore:Network.obj
 0001:0004b770       ??1Socket@OpenHome@@MAE@XZ 0044c770 f i libohNetCore:Network.obj
 0001:0004b790       ?NetworkInterrupt@Os@OpenHome@@SGHPAX_N@Z 0044c790 f i libohNetCore:Network.obj
 0001:0004b7c0       ?NetworkClose@Os@OpenHome@@SGHPAX@Z 0044c7c0 f i libohNetCore:Network.obj
 0001:0004b7e0       ?NetworkSend@Os@OpenHome@@SGHPAXABVBrx@2@@Z 0044c7e0 f i libohNetCore:Network.obj
 0001:0004b820       ?NetworkSendTo@Os@OpenHome@@SGHPAXABVBrx@2@ABVEndpoint@2@@Z 0044c820 f i libohNetCore:Network.obj
 0001:0004b870       ?NetworkReceive@Os@OpenHome@@SGHPAXAAVBwx@2@@Z 0044c870 f i libohNetCore:Network.obj
 0001:0004b8b0       ?NetworkListen@Os@OpenHome@@SGHPAXI@Z 0044c8b0 f i libohNetCore:Network.obj
 0001:0004b8d0       ?NetworkAccept@Os@OpenHome@@SGPAXPAX@Z 0044c8d0 f i libohNetCore:Network.obj
 0001:0004b8f0       ??1IReaderSource@OpenHome@@UAE@XZ 0044c8f0 f i libohNetCore:Network.obj
 0001:0004b910       ??_GIReaderSource@OpenHome@@UAEPAXI@Z 0044c910 f i libohNetCore:Network.obj
 0001:0004b910       ??_EIReaderSource@OpenHome@@UAEPAXI@Z 0044c910 f i libohNetCore:Network.obj
 0001:0004b950       ??_ESocketTcp@OpenHome@@UAEPAXI@Z 0044c950 f i libohNetCore:Network.obj
 0001:0004b950       ??_GSocketTcp@OpenHome@@UAEPAXI@Z 0044c950 f i libohNetCore:Network.obj
 0001:0004b990       ??0IReaderSource@OpenHome@@QAE@XZ 0044c990 f i libohNetCore:Network.obj
 0001:0004b9b0       ??1SocketTcp@OpenHome@@UAE@XZ 0044c9b0 f i libohNetCore:Network.obj
 0001:0004ba30       ??_ESocketTcpServer@OpenHome@@UAEPAXI@Z 0044ca30 f i libohNetCore:Network.obj
 0001:0004ba30       ??_GSocketTcpServer@OpenHome@@UAEPAXI@Z 0044ca30 f i libohNetCore:Network.obj
 0001:0004ba70       ??_ESocketTcpSession@OpenHome@@MAEPAXI@Z 0044ca70 f i libohNetCore:Network.obj
 0001:0004ba70       ??_GSocketTcpSession@OpenHome@@MAEPAXI@Z 0044ca70 f i libohNetCore:Network.obj
 0001:0004bab0       ??_ESocketUdp@OpenHome@@UAEPAXI@Z 0044cab0 f i libohNetCore:Network.obj
 0001:0004bab0       ??_GSocketUdp@OpenHome@@UAEPAXI@Z 0044cab0 f i libohNetCore:Network.obj
 0001:0004baf0       ??_GSocketUdpMulticast@OpenHome@@UAEPAXI@Z 0044caf0 f i libohNetCore:Network.obj
 0001:0004baf0       ??_ESocketUdpMulticast@OpenHome@@UAEPAXI@Z 0044caf0 f i libohNetCore:Network.obj
 0001:0004bb30       ??_EUdpReader@OpenHome@@UAEPAXI@Z 0044cb30 f i libohNetCore:Network.obj
 0001:0004bb30       ??_GUdpReader@OpenHome@@UAEPAXI@Z 0044cb30 f i libohNetCore:Network.obj
 0001:0004bb70       ??1UdpReader@OpenHome@@UAE@XZ 0044cb70 f i libohNetCore:Network.obj
 0001:0004bba0       ??_GUdpWriter@OpenHome@@UAEPAXI@Z 0044cba0 f i libohNetCore:Network.obj
 0001:0004bba0       ??_EUdpWriter@OpenHome@@UAEPAXI@Z 0044cba0 f i libohNetCore:Network.obj
 0001:0004bbe0       ??1UdpWriter@OpenHome@@UAE@XZ 0044cbe0 f i libohNetCore:Network.obj
 0001:0004bc10       ??0?$vector@PAVSocketTcpSession@OpenHome@@V?$allocator@PAVSocketTcpSession@OpenHome@@@std@@@std@@QAE@XZ 0044cc10 f i libohNetCore:Network.obj
 0001:0004bc50       ??1?$vector@PAVSocketTcpSession@OpenHome@@V?$allocator@PAVSocketTcpSession@OpenHome@@@std@@@std@@QAE@XZ 0044cc50 f i libohNetCore:Network.obj
 0001:0004bcc0       ?size@?$vector@PAVSocketTcpSession@OpenHome@@V?$allocator@PAVSocketTcpSession@OpenHome@@@std@@@std@@QBEIXZ 0044ccc0 f i libohNetCore:Network.obj
 0001:0004bcf0       ??A?$vector@PAVSocketTcpSession@OpenHome@@V?$allocator@PAVSocketTcpSession@OpenHome@@@std@@@std@@QAEAAPAVSocketTcpSession@OpenHome@@I@Z 0044ccf0 f i libohNetCore:Network.obj
 0001:0004bd90       ?push_back@?$vector@PAVSocketTcpSession@OpenHome@@V?$allocator@PAVSocketTcpSession@OpenHome@@@std@@@std@@QAEXABQAVSocketTcpSession@OpenHome@@@Z 0044cd90 f i libohNetCore:Network.obj
 0001:0004bea0       ?pop_back@?$vector@PAVSocketTcpSession@OpenHome@@V?$allocator@PAVSocketTcpSession@OpenHome@@@std@@@std@@QAEXXZ 0044cea0 f i libohNetCore:Network.obj
 0001:0004bf30       ?empty@?$vector@PAVSocketTcpSession@OpenHome@@V?$allocator@PAVSocketTcpSession@OpenHome@@@std@@@std@@QBE_NXZ 0044cf30 f i libohNetCore:Network.obj
 0001:0004bf60       ?_Inside@?$vector@PAVSocketTcpSession@OpenHome@@V?$allocator@PAVSocketTcpSession@OpenHome@@@std@@@std@@IBE_NPBQAVSocketTcpSession@OpenHome@@@Z 0044cf60 f i libohNetCore:Network.obj
 0001:0004bfb0       ?_Reserve@?$vector@PAVSocketTcpSession@OpenHome@@V?$allocator@PAVSocketTcpSession@OpenHome@@@std@@@std@@IAEXI@Z 0044cfb0 f i libohNetCore:Network.obj
 0001:0004c030       ?_Tidy@?$vector@PAVSocketTcpSession@OpenHome@@V?$allocator@PAVSocketTcpSession@OpenHome@@@std@@@std@@IAEXXZ 0044d030 f i libohNetCore:Network.obj
 0001:0004c0c0       ?_Orphan_range@?$vector@PAVSocketTcpSession@OpenHome@@V?$allocator@PAVSocketTcpSession@OpenHome@@@std@@@std@@IBEXPAPAVSocketTcpSession@OpenHome@@0@Z 0044d0c0 f i libohNetCore:Network.obj
 0001:0004c1d0       ??0?$_Vector_val@PAVSocketTcpSession@OpenHome@@V?$allocator@PAVSocketTcpSession@OpenHome@@@std@@@std@@QAE@V?$allocator@PAVSocketTcpSession@OpenHome@@@1@@Z 0044d1d0 f i libohNetCore:Network.obj
 0001:0004c2f0       ??1?$_Vector_val@PAVSocketTcpSession@OpenHome@@V?$allocator@PAVSocketTcpSession@OpenHome@@@std@@@std@@QAE@XZ 0044d2f0 f i libohNetCore:Network.obj
 0001:0004c3d0       ??0?$allocator@PAVSocketTcpSession@OpenHome@@@std@@QAE@XZ 0044d3d0 f i libohNetCore:Network.obj
 0001:0004c3f0       ?reserve@?$vector@PAVSocketTcpSession@OpenHome@@V?$allocator@PAVSocketTcpSession@OpenHome@@@std@@@std@@QAEXI@Z 0044d3f0 f i libohNetCore:Network.obj
 0001:0004c560       ?capacity@?$vector@PAVSocketTcpSession@OpenHome@@V?$allocator@PAVSocketTcpSession@OpenHome@@@std@@@std@@QBEIXZ 0044d560 f i libohNetCore:Network.obj
 0001:0004c590       ?max_size@?$vector@PAVSocketTcpSession@OpenHome@@V?$allocator@PAVSocketTcpSession@OpenHome@@@std@@@std@@QBEIXZ 0044d590 f i libohNetCore:Network.obj
 0001:0004c5c0       ?_Destroy@?$vector@PAVSocketTcpSession@OpenHome@@V?$allocator@PAVSocketTcpSession@OpenHome@@@std@@@std@@IAEXPAPAVSocketTcpSession@OpenHome@@0@Z 0044d5c0 f i libohNetCore:Network.obj
 0001:0004c600       ?_Grow_to@?$vector@PAVSocketTcpSession@OpenHome@@V?$allocator@PAVSocketTcpSession@OpenHome@@@std@@@std@@IBEII@Z 0044d600 f i libohNetCore:Network.obj
 0001:0004c680       ?_Xlen@?$vector@PAVSocketTcpSession@OpenHome@@V?$allocator@PAVSocketTcpSession@OpenHome@@@std@@@std@@IBEXXZ 0044d680 f i libohNetCore:Network.obj
 0001:0004c6b0       ??0?$allocator@PAVSocketTcpSession@OpenHome@@@std@@QAE@ABV01@@Z 0044d6b0 f i libohNetCore:Network.obj
 0001:0004c6d0       ?deallocate@?$allocator@PAVSocketTcpSession@OpenHome@@@std@@QAEXPAPAVSocketTcpSession@OpenHome@@I@Z 0044d6d0 f i libohNetCore:Network.obj
 0001:0004c700       ?allocate@?$allocator@PAVSocketTcpSession@OpenHome@@@std@@QAEPAPAVSocketTcpSession@OpenHome@@I@Z 0044d700 f i libohNetCore:Network.obj
 0001:0004c730       ?max_size@?$allocator@PAVSocketTcpSession@OpenHome@@@std@@QBEIXZ 0044d730 f i libohNetCore:Network.obj
 0001:0004c780       ??$MakeFunctor@VSocketTcpSession@OpenHome@@XV12@@OpenHome@@YG?AV?$MemberTranslator@VSocketTcpSession@OpenHome@@P812@AEXXZ@0@AAVSocketTcpSession@0@ABQ820@AEXXZ@Z 0044d780 f i libohNetCore:Network.obj
 0001:0004c7b0       ??$addressof@QAVSocketTcpSession@OpenHome@@@std@@YGPBQAVSocketTcpSession@OpenHome@@ABQAV12@@Z 0044d7b0 f i libohNetCore:Network.obj
 0001:0004c7c0       ??$_Cons_val@V?$allocator@PAVSocketTcpSession@OpenHome@@@std@@PAVSocketTcpSession@OpenHome@@AAPAV34@@std@@YGXAAV?$allocator@PAVSocketTcpSession@OpenHome@@@0@PAPAVSocketTcpSession@OpenHome@@AAPAV23@@Z 0044d7c0 f i libohNetCore:Network.obj
 0001:0004c7f0       ??$_Cons_val@V?$allocator@PAVSocketTcpSession@OpenHome@@@std@@PAVSocketTcpSession@OpenHome@@ABQAV34@@std@@YGXAAV?$allocator@PAVSocketTcpSession@OpenHome@@@0@PAPAVSocketTcpSession@OpenHome@@ABQAV23@@Z 0044d7f0 f i libohNetCore:Network.obj
 0001:0004c820       ??$_Dest_val@V?$allocator@PAVSocketTcpSession@OpenHome@@@std@@PAVSocketTcpSession@OpenHome@@@std@@YGXAAV?$allocator@PAVSocketTcpSession@OpenHome@@@0@PAPAVSocketTcpSession@OpenHome@@@Z 0044d820 f i libohNetCore:Network.obj
 0001:0004c840       ??$?0PAVSocketTcpSession@OpenHome@@@?$allocator@U_Container_proxy@std@@@std@@QAE@ABV?$allocator@PAVSocketTcpSession@OpenHome@@@1@@Z 0044d840 f i libohNetCore:Network.obj
 0001:0004c860       ??$_Umove@PAPAVSocketTcpSession@OpenHome@@@?$vector@PAVSocketTcpSession@OpenHome@@V?$allocator@PAVSocketTcpSession@OpenHome@@@std@@@std@@IAEPAPAVSocketTcpSession@OpenHome@@PAPAV23@00@Z 0044d860 f i libohNetCore:Network.obj
 0001:0004c8a0       ??$_Destroy_range@V?$allocator@PAVSocketTcpSession@OpenHome@@@std@@@std@@YGXPAPAVSocketTcpSession@OpenHome@@0AAV?$allocator@PAVSocketTcpSession@OpenHome@@@0@@Z 0044d8a0 f i libohNetCore:Network.obj
 0001:0004c8f0       ??$_Allocate@PAVSocketTcpSession@OpenHome@@@std@@YGPAPAVSocketTcpSession@OpenHome@@IPAPAV12@@Z 0044d8f0 f i libohNetCore:Network.obj
 0001:0004c970       ?construct@?$allocator@PAVSocketTcpSession@OpenHome@@@std@@QAEXPAPAVSocketTcpSession@OpenHome@@ABQAV34@@Z 0044d970 f i libohNetCore:Network.obj
 0001:0004c9a0       ?destroy@?$allocator@PAVSocketTcpSession@OpenHome@@@std@@QAEXPAPAVSocketTcpSession@OpenHome@@@Z 0044d9a0 f i libohNetCore:Network.obj
 0001:0004c9d0       ??0?$MemberTranslator@VSocketTcpSession@OpenHome@@P812@AEXXZ@OpenHome@@QAE@AAVSocketTcpSession@1@ABQ821@AEXXZ@Z 0044d9d0 f i libohNetCore:Network.obj
 0001:0004ca10       ?Thunk@?$MemberTranslator@VSocketTcpSession@OpenHome@@P812@AEXXZ@OpenHome@@SGXABVFunctor@2@@Z 0044da10 f i libohNetCore:Network.obj
 0001:0004ca60       ??$forward@AAPAVSocketTcpSession@OpenHome@@@std@@YGAAPAVSocketTcpSession@OpenHome@@AAPAV12@@Z 0044da60 f i libohNetCore:Network.obj
 0001:0004ca70       ??$construct@AAPAVSocketTcpSession@OpenHome@@@?$allocator@PAVSocketTcpSession@OpenHome@@@std@@QAEXPAPAVSocketTcpSession@OpenHome@@AAPAV23@@Z 0044da70 f i libohNetCore:Network.obj
 0001:0004cb10       ??$forward@ABQAVSocketTcpSession@OpenHome@@@std@@YGABQAVSocketTcpSession@OpenHome@@ABQAV12@@Z 0044db10 f i libohNetCore:Network.obj
 0001:0004cb20       ??$_Uninitialized_move@PAPAVSocketTcpSession@OpenHome@@PAPAV12@V?$allocator@PAVSocketTcpSession@OpenHome@@@std@@@std@@YGPAPAVSocketTcpSession@OpenHome@@PAPAV12@00AAV?$allocator@PAVSocketTcpSession@OpenHome@@@0@@Z 0044db20 f i libohNetCore:Network.obj
 0001:0004cb70       ??$_Ptr_cat@PAVSocketTcpSession@OpenHome@@PAV12@@std@@YG?AU_Scalar_ptr_iterator_tag@0@PAPAVSocketTcpSession@OpenHome@@0@Z 0044db70 f i libohNetCore:Network.obj
 0001:0004cbd0       ??$_Destroy_range@V?$allocator@PAVSocketTcpSession@OpenHome@@@std@@@std@@YGXPAPAVSocketTcpSession@OpenHome@@0AAV?$allocator@PAVSocketTcpSession@OpenHome@@@0@U_Scalar_ptr_iterator_tag@0@@Z 0044dbd0 f i libohNetCore:Network.obj
 0001:0004cbe0       ??$_Construct@PAVSocketTcpSession@OpenHome@@ABQAV12@@std@@YGXPAPAVSocketTcpSession@OpenHome@@ABQAV12@@Z 0044dbe0 f i libohNetCore:Network.obj
 0001:0004cc90       ??$_Destroy@PAVSocketTcpSession@OpenHome@@@std@@YGXPAPAVSocketTcpSession@OpenHome@@@Z 0044dc90 f i libohNetCore:Network.obj
 0001:0004cca0       ??$_Val_type@PAPAVSocketTcpSession@OpenHome@@@std@@YGPAPAVSocketTcpSession@OpenHome@@PAPAV12@@Z 0044dca0 f i libohNetCore:Network.obj
 0001:0004ccb0       ??$_Uninit_move@PAVSocketTcpSession@OpenHome@@PAV12@PAV12@@std@@YGPAPAVSocketTcpSession@OpenHome@@PAPAV12@00AAV?$allocator@PAVSocketTcpSession@OpenHome@@@0@0U_Scalar_ptr_iterator_tag@0@@Z 0044dcb0 f i libohNetCore:Network.obj
 0001:0004cd20       ??$_Debug_range@PAPAVSocketTcpSession@OpenHome@@@std@@YGXPAPAVSocketTcpSession@OpenHome@@0PB_WI@Z 0044dd20 f i libohNetCore:Network.obj
 0001:0004cd70       ??$_Debug_pointer@PAVSocketTcpSession@OpenHome@@@std@@YGXPAPAVSocketTcpSession@OpenHome@@PB_WI@Z 0044dd70 f i libohNetCore:Network.obj
 0001:0004cda0       ??$_Iter_cat@PAPAVSocketTcpSession@OpenHome@@@std@@YG?AUrandom_access_iterator_tag@0@ABQAPAVSocketTcpSession@OpenHome@@@Z 0044dda0 f i libohNetCore:Network.obj
 0001:0004ce00       ??$_Debug_range2@PAPAVSocketTcpSession@OpenHome@@@std@@YGXPAPAVSocketTcpSession@OpenHome@@0PB_WIUrandom_access_iterator_tag@0@@Z 0044de00 f i libohNetCore:Network.obj
 0001:0004ce60       ??_ESocketTcpSession@OpenHome@@OBA@AEPAXI@Z 0044de60 f i libohNetCore:Network.obj
 0001:0004ce70       ??_ESocketTcp@OpenHome@@WM@AEPAXI@Z 0044de70 f i libohNetCore:Network.obj
 0001:0004ce80       ??_ESocketTcp@OpenHome@@WBA@AEPAXI@Z 0044de80 f i libohNetCore:Network.obj
 0001:0004ce90       ??_ESocketTcpSession@OpenHome@@OM@AEPAXI@Z 0044de90 f i libohNetCore:Network.obj
 0001:0004cea0       ??0NetworkAdapterList@OpenHome@@QAE@I@Z 0044dea0 f   libohNetCore:NetworkAdapterList.obj
 0001:0004cfa0       ??1NetworkAdapterList@OpenHome@@QAE@XZ 0044dfa0 f   libohNetCore:NetworkAdapterList.obj
 0001:0004d050       ?CurrentAdapter@NetworkAdapterList@OpenHome@@QBEPAVNetworkAdapter@2@XZ 0044e050 f   libohNetCore:NetworkAdapterList.obj
 0001:0004d130       ?List@NetworkAdapterList@OpenHome@@QBEABV?$vector@PAVNetworkAdapter@OpenHome@@V?$allocator@PAVNetworkAdapter@OpenHome@@@std@@@std@@XZ 0044e130 f   libohNetCore:NetworkAdapterList.obj
 0001:0004d150       ?CreateSubnetList@NetworkAdapterList@OpenHome@@QBEPAV?$vector@PAVNetworkAdapter@OpenHome@@V?$allocator@PAVNetworkAdapter@OpenHome@@@std@@@std@@XZ 0044e150 f   libohNetCore:NetworkAdapterList.obj
 0001:0004d1a0       ?DestroySubnetList@NetworkAdapterList@OpenHome@@SGXPAV?$vector@PAVNetworkAdapter@OpenHome@@V?$allocator@PAVNetworkAdapter@OpenHome@@@std@@@std@@@Z 0044e1a0 f   libohNetCore:NetworkAdapterList.obj
 0001:0004d230       ?SetCurrentSubnet@NetworkAdapterList@OpenHome@@QAEXI@Z 0044e230 f   libohNetCore:NetworkAdapterList.obj
 0001:0004d2c0       ?AddCurrentChangeListener@NetworkAdapterList@OpenHome@@QAEIVFunctor@2@@Z 0044e2c0 f   libohNetCore:NetworkAdapterList.obj
 0001:0004d310       ?RemoveCurrentChangeListener@NetworkAdapterList@OpenHome@@QAEXI@Z 0044e310 f   libohNetCore:NetworkAdapterList.obj
 0001:0004d350       ?AddSubnetListChangeListener@NetworkAdapterList@OpenHome@@QAEIVFunctor@2@@Z 0044e350 f   libohNetCore:NetworkAdapterList.obj
 0001:0004d3a0       ?RemoveSubnetListChangeListener@NetworkAdapterList@OpenHome@@QAEXI@Z 0044e3a0 f   libohNetCore:NetworkAdapterList.obj
 0001:0004d3e0       ?CreateSubnetListLocked@NetworkAdapterList@OpenHome@@ABEPAV?$vector@PAVNetworkAdapter@OpenHome@@V?$allocator@PAVNetworkAdapter@OpenHome@@@std@@@std@@XZ 0044e3e0 f   libohNetCore:NetworkAdapterList.obj
 0001:0004d510       ?AddListener@NetworkAdapterList@OpenHome@@AAEIVFunctor@2@AAV?$map@IVFunctor@OpenHome@@U?$less@I@std@@V?$allocator@U?$pair@$$CBIVFunctor@OpenHome@@@std@@@4@@std@@@Z 0044e510 f   libohNetCore:NetworkAdapterList.obj
 0001:0004d5c0       ?RemoveSubnetListChangeListener@NetworkAdapterList@OpenHome@@AAEXIAAV?$map@IVFunctor@OpenHome@@U?$less@I@std@@V?$allocator@U?$pair@$$CBIVFunctor@OpenHome@@@std@@@4@@std@@@Z 0044e5c0 f   libohNetCore:NetworkAdapterList.obj
 0001:0004d6f0       ?InterfaceListChanged@NetworkAdapterList@OpenHome@@CGXPAX@Z 0044e6f0 f   libohNetCore:NetworkAdapterList.obj
 0001:0004d710       ?FindSubnet@NetworkAdapterList@OpenHome@@CGHIABV?$vector@PAVNetworkAdapter@OpenHome@@V?$allocator@PAVNetworkAdapter@OpenHome@@@std@@@std@@@Z 0044e710 f   libohNetCore:NetworkAdapterList.obj
 0001:0004d770       ?UpdateCurrentAdapter@NetworkAdapterList@OpenHome@@AAEXXZ 0044e770 f   libohNetCore:NetworkAdapterList.obj
 0001:0004d820       ?HandleInterfaceListChanged@NetworkAdapterList@OpenHome@@AAEXXZ 0044e820 f   libohNetCore:NetworkAdapterList.obj
 0001:0004d9c0       ?RunCallbacks@NetworkAdapterList@OpenHome@@AAEXAAV?$map@IVFunctor@OpenHome@@U?$less@I@std@@V?$allocator@U?$pair@$$CBIVFunctor@OpenHome@@@std@@@4@@std@@@Z 0044e9c0 f   libohNetCore:NetworkAdapterList.obj
 0001:0004dae0       ?NetworkSetInterfaceChangedObserver@Os@OpenHome@@SGXP6GXPAX@Z0@Z 0044eae0 f i libohNetCore:NetworkAdapterList.obj
 0001:0004db00       ??1?$map@IVFunctor@OpenHome@@U?$less@I@std@@V?$allocator@U?$pair@$$CBIVFunctor@OpenHome@@@std@@@4@@std@@QAE@XZ 0044eb00 f i libohNetCore:NetworkAdapterList.obj
 0001:0004db30       ??1?$pair@V?$_Tree_iterator@V?$_Tree_val@V?$_Tmap_traits@IVFunctor@OpenHome@@U?$less@I@std@@V?$allocator@U?$pair@$$CBIVFunctor@OpenHome@@@std@@@4@$0A@@std@@@std@@@std@@_N@std@@QAE@XZ 0044eb30 f i libohNetCore:NetworkAdapterList.obj
 0001:0004db60       ??1?$_Pair_base@V?$_Tree_iterator@V?$_Tree_val@V?$_Tmap_traits@IVFunctor@OpenHome@@U?$less@I@std@@V?$allocator@U?$pair@$$CBIVFunctor@OpenHome@@@std@@@4@$0A@@std@@@std@@@std@@_N@std@@QAE@XZ 0044eb60 f i libohNetCore:NetworkAdapterList.obj
 0001:0004db90       ??1?$_Tree_iterator@V?$_Tree_val@V?$_Tmap_traits@IVFunctor@OpenHome@@U?$less@I@std@@V?$allocator@U?$pair@$$CBIVFunctor@OpenHome@@@std@@@4@$0A@@std@@@std@@@std@@QAE@XZ 0044eb90 f i libohNetCore:NetworkAdapterList.obj
 0001:0004dbc0       ??1?$_Tree_const_iterator@V?$_Tree_val@V?$_Tmap_traits@IVFunctor@OpenHome@@U?$less@I@std@@V?$allocator@U?$pair@$$CBIVFunctor@OpenHome@@@std@@@4@$0A@@std@@@std@@@std@@QAE@XZ 0044ebc0 f i libohNetCore:NetworkAdapterList.obj
 0001:0004dbf0       ??1?$_Tree_unchecked_const_iterator@V?$_Tree_val@V?$_Tmap_traits@IVFunctor@OpenHome@@U?$less@I@std@@V?$allocator@U?$pair@$$CBIVFunctor@OpenHome@@@std@@@4@$0A@@std@@@std@@U_Iterator_base12@2@@std@@QAE@XZ 0044ebf0 f i libohNetCore:NetworkAdapterList.obj
 0001:0004dc20       ??1?$_Iterator012@Ubidirectional_iterator_tag@std@@U?$pair@$$CBIVFunctor@OpenHome@@@2@HPBU32@ABU32@U_Iterator_base12@2@@std@@QAE@XZ 0044ec20 f i libohNetCore:NetworkAdapterList.obj
 0001:0004dc50       ??0?$_Tree_const_iterator@V?$_Tree_val@V?$_Tmap_traits@IVFunctor@OpenHome@@U?$less@I@std@@V?$allocator@U?$pair@$$CBIVFunctor@OpenHome@@@std@@@4@$0A@@std@@@std@@@std@@QAE@ABV01@@Z 0044ec50 f i libohNetCore:NetworkAdapterList.obj
 0001:0004dc80       ??0?$_Tree_unchecked_const_iterator@V?$_Tree_val@V?$_Tmap_traits@IVFunctor@OpenHome@@U?$less@I@std@@V?$allocator@U?$pair@$$CBIVFunctor@OpenHome@@@std@@@4@$0A@@std@@@std@@U_Iterator_base12@2@@std@@QAE@ABV01@@Z 0044ec80 f i libohNetCore:NetworkAdapterList.obj
 0001:0004dcc0       ??0?$_Iterator012@Ubidirectional_iterator_tag@std@@U?$pair@$$CBIVFunctor@OpenHome@@@2@HPBU32@ABU32@U_Iterator_base12@2@@std@@QAE@ABU01@@Z 0044ecc0 f i libohNetCore:NetworkAdapterList.obj
 0001:0004dcf0       ??0?$map@IVFunctor@OpenHome@@U?$less@I@std@@V?$allocator@U?$pair@$$CBIVFunctor@OpenHome@@@std@@@4@@std@@QAE@XZ 0044ecf0 f i libohNetCore:NetworkAdapterList.obj
 0001:0004dd30       ??1?$_Tree@V?$_Tmap_traits@IVFunctor@OpenHome@@U?$less@I@std@@V?$allocator@U?$pair@$$CBIVFunctor@OpenHome@@@std@@@4@$0A@@std@@@std@@QAE@XZ 0044ed30 f i libohNetCore:NetworkAdapterList.obj
 0001:0004dda0       ?begin@?$_Tree@V?$_Tmap_traits@IVFunctor@OpenHome@@U?$less@I@std@@V?$allocator@U?$pair@$$CBIVFunctor@OpenHome@@@std@@@4@$0A@@std@@@std@@QAE?AV?$_Tree_iterator@V?$_Tree_val@V?$_Tmap_traits@IVFunctor@OpenHome@@U?$less@I@std@@V?$allocator@U?$pair@$$CBIVFunctor@OpenHome@@@std@@@4@$0A@@std@@@std@@@2@XZ 0044eda0 f i libohNetCore:NetworkAdapterList.obj
 0001:0004de00       ?end@?$_Tree@V?$_Tmap_traits@IVFunctor@OpenHome@@U?$less@I@std@@V?$allocator@U?$pair@$$CBIVFunctor@OpenHome@@@std@@@4@$0A@@std@@@std@@QAE?AV?$_Tree_iterator@V?$_Tree_val@V?$_Tmap_traits@IVFunctor@OpenHome@@U?$less@I@std@@V?$allocator@U?$pair@$$CBIVFunctor@OpenHome@@@std@@@4@$0A@@std@@@std@@@2@XZ 0044ee00 f i libohNetCore:NetworkAdapterList.obj
 0001:0004de50       ?erase@?$_Tree@V?$_Tmap_traits@IVFunctor@OpenHome@@U?$less@I@std@@V?$allocator@U?$pair@$$CBIVFunctor@OpenHome@@@std@@@4@$0A@@std@@@std@@QAE?AV?$_Tree_iterator@V?$_Tree_val@V?$_Tmap_traits@IVFunctor@OpenHome@@U?$less@I@std@@V?$allocator@U?$pair@$$CBIVFunctor@OpenHome@@@std@@@4@$0A@@std@@@std@@@2@V?$_Tree_const_iterator@V?$_Tree_val@V?$_Tmap_traits@IVFunctor@OpenHome@@U?$less@I@std@@V?$allocator@U?$pair@$$CBIVFunctor@OpenHome@@@std@@@4@$0A@@std@@@std@@@2@@Z 0044ee50 f i libohNetCore:NetworkAdapterList.obj
 0001:0004e560       ?find@?$_Tree@V?$_Tmap_traits@IVFunctor@OpenHome@@U?$less@I@std@@V?$allocator@U?$pair@$$CBIVFunctor@OpenHome@@@std@@@4@$0A@@std@@@std@@QAE?AV?$_Tree_iterator@V?$_Tree_val@V?$_Tmap_traits@IVFunctor@OpenHome@@U?$less@I@std@@V?$allocator@U?$pair@$$CBIVFunctor@OpenHome@@@std@@@4@$0A@@std@@@std@@@2@ABI@Z 0044f560 f i libohNetCore:NetworkAdapterList.obj
 0001:0004e740       ??0?$vector@PAVNetworkAdapter@OpenHome@@V?$allocator@PAVNetworkAdapter@OpenHome@@@std@@@std@@QAE@XZ 0044f740 f i libohNetCore:NetworkAdapterList.obj
 0001:0004e780       ??A?$vector@PAVNetworkAdapter@OpenHome@@V?$allocator@PAVNetworkAdapter@OpenHome@@@std@@@std@@QBEABQAVNetworkAdapter@OpenHome@@I@Z 0044f780 f i libohNetCore:NetworkAdapterList.obj
 0001:0004e820       ?push_back@?$vector@PAVNetworkAdapter@OpenHome@@V?$allocator@PAVNetworkAdapter@OpenHome@@@std@@@std@@QAEXABQAVNetworkAdapter@OpenHome@@@Z 0044f820 f i libohNetCore:NetworkAdapterList.obj
 0001:0004e930       ??C?$_Tree_iterator@V?$_Tree_val@V?$_Tmap_traits@IVFunctor@OpenHome@@U?$less@I@std@@V?$allocator@U?$pair@$$CBIVFunctor@OpenHome@@@std@@@4@$0A@@std@@@std@@@std@@QBEPAU?$pair@$$CBIVFunctor@OpenHome@@@1@XZ 0044f930 f i libohNetCore:NetworkAdapterList.obj
 0001:0004e960       ??E?$_Tree_iterator@V?$_Tree_val@V?$_Tmap_traits@IVFunctor@OpenHome@@U?$less@I@std@@V?$allocator@U?$pair@$$CBIVFunctor@OpenHome@@@std@@@4@$0A@@std@@@std@@@std@@QAE?AV01@H@Z 0044f960 f i libohNetCore:NetworkAdapterList.obj
 0001:0004ea30       ??9?$_Tree_const_iterator@V?$_Tree_val@V?$_Tmap_traits@IVFunctor@OpenHome@@U?$less@I@std@@V?$allocator@U?$pair@$$CBIVFunctor@OpenHome@@@std@@@4@$0A@@std@@@std@@@std@@QBE_NABV01@@Z 0044fa30 f i libohNetCore:NetworkAdapterList.obj
 0001:0004ea70       ??0?$_Tree_iterator@V?$_Tree_val@V?$_Tmap_traits@IVFunctor@OpenHome@@U?$less@I@std@@V?$allocator@U?$pair@$$CBIVFunctor@OpenHome@@@std@@@4@$0A@@std@@@std@@@std@@QAE@ABV01@@Z 0044fa70 f i libohNetCore:NetworkAdapterList.obj
 0001:0004eaa0       ??0?$_Tree@V?$_Tmap_traits@IVFunctor@OpenHome@@U?$less@I@std@@V?$allocator@U?$pair@$$CBIVFunctor@OpenHome@@@std@@@4@$0A@@std@@@std@@QAE@ABU?$less@I@1@ABV?$allocator@U?$pair@$$CBIVFunctor@OpenHome@@@std@@@1@@Z 0044faa0 f i libohNetCore:NetworkAdapterList.obj
 0001:0004eaf0       ?lower_bound@?$_Tree@V?$_Tmap_traits@IVFunctor@OpenHome@@U?$less@I@std@@V?$allocator@U?$pair@$$CBIVFunctor@OpenHome@@@std@@@4@$0A@@std@@@std@@QAE?AV?$_Tree_iterator@V?$_Tree_val@V?$_Tmap_traits@IVFunctor@OpenHome@@U?$less@I@std@@V?$allocator@U?$pair@$$CBIVFunctor@OpenHome@@@std@@@4@$0A@@std@@@std@@@2@ABI@Z 0044faf0 f i libohNetCore:NetworkAdapterList.obj
 0001:0004eb50       ?_Lmost@?$_Tree@V?$_Tmap_traits@IVFunctor@OpenHome@@U?$less@I@std@@V?$allocator@U?$pair@$$CBIVFunctor@OpenHome@@@std@@@4@$0A@@std@@@std@@IBEAAPAU_Node@?$_Tree_nod@V?$_Tmap_traits@IVFunctor@OpenHome@@U?$less@I@std@@V?$allocator@U?$pair@$$CBIVFunctor@OpenHome@@@std@@@4@$0A@@std@@@2@XZ 0044fb50 f i libohNetCore:NetworkAdapterList.obj
 0001:0004eb80       ?_Lrotate@?$_Tree@V?$_Tmap_traits@IVFunctor@OpenHome@@U?$less@I@std@@V?$allocator@U?$pair@$$CBIVFunctor@OpenHome@@@std@@@4@$0A@@std@@@std@@IAEXPAU_Node@?$_Tree_nod@V?$_Tmap_traits@IVFunctor@OpenHome@@U?$less@I@std@@V?$allocator@U?$pair@$$CBIVFunctor@OpenHome@@@std@@@4@$0A@@std@@@2@@Z 0044fb80 f i libohNetCore:NetworkAdapterList.obj
 0001:0004eca0       ?_Rmost@?$_Tree@V?$_Tmap_traits@IVFunctor@OpenHome@@U?$less@I@std@@V?$allocator@U?$pair@$$CBIVFunctor@OpenHome@@@std@@@4@$0A@@std@@@std@@IBEAAPAU_Node@?$_Tree_nod@V?$_Tmap_traits@IVFunctor@OpenHome@@U?$less@I@std@@V?$allocator@U?$pair@$$CBIVFunctor@OpenHome@@@std@@@4@$0A@@std@@@2@XZ 0044fca0 f i libohNetCore:NetworkAdapterList.obj
 0001:0004ecd0       ?_Root@?$_Tree@V?$_Tmap_traits@IVFunctor@OpenHome@@U?$less@I@std@@V?$allocator@U?$pair@$$CBIVFunctor@OpenHome@@@std@@@4@$0A@@std@@@std@@IBEAAPAU_Node@?$_Tree_nod@V?$_Tmap_traits@IVFunctor@OpenHome@@U?$less@I@std@@V?$allocator@U?$pair@$$CBIVFunctor@OpenHome@@@std@@@4@$0A@@std@@@2@XZ 0044fcd0 f i libohNetCore:NetworkAdapterList.obj
 0001:0004ed00       ?_Rrotate@?$_Tree@V?$_Tmap_traits@IVFunctor@OpenHome@@U?$less@I@std@@V?$allocator@U?$pair@$$CBIVFunctor@OpenHome@@@std@@@4@$0A@@std@@@std@@IAEXPAU_Node@?$_Tree_nod@V?$_Tmap_traits@IVFunctor@OpenHome@@U?$less@I@std@@V?$allocator@U?$pair@$$CBIVFunctor@OpenHome@@@std@@@4@$0A@@std@@@2@@Z 0044fd00 f i libohNetCore:NetworkAdapterList.obj
 0001:0004ee20       ?_Orphan_ptr@?$_Tree@V?$_Tmap_traits@IVFunctor@OpenHome@@U?$less@I@std@@V?$allocator@U?$pair@$$CBIVFunctor@OpenHome@@@std@@@4@$0A@@std@@@std@@IBEXAAV12@PAU_Node@?$_Tree_nod@V?$_Tmap_traits@IVFunctor@OpenHome@@U?$less@I@std@@V?$allocator@U?$pair@$$CBIVFunctor@OpenHome@@@std@@@4@$0A@@std@@@2@@Z 0044fe20 f i libohNetCore:NetworkAdapterList.obj
 0001:0004ef30       ?_Tidy@?$_Tree@V?$_Tmap_traits@IVFunctor@OpenHome@@U?$less@I@std@@V?$allocator@U?$pair@$$CBIVFunctor@OpenHome@@@std@@@4@$0A@@std@@@std@@IAEXXZ 0044ff30 f i libohNetCore:NetworkAdapterList.obj
 0001:0004f030       ??1?$_Tree_val@V?$_Tmap_traits@IVFunctor@OpenHome@@U?$less@I@std@@V?$allocator@U?$pair@$$CBIVFunctor@OpenHome@@@std@@@4@$0A@@std@@@std@@QAE@XZ 00450030 f i libohNetCore:NetworkAdapterList.obj
 0001:0004f0a0       ?_Color@?$_Tree_val@V?$_Tmap_traits@IVFunctor@OpenHome@@U?$less@I@std@@V?$allocator@U?$pair@$$CBIVFunctor@OpenHome@@@std@@@4@$0A@@std@@@std@@SGAADPAU_Node@?$_Tree_nod@V?$_Tmap_traits@IVFunctor@OpenHome@@U?$less@I@std@@V?$allocator@U?$pair@$$CBIVFunctor@OpenHome@@@std@@@4@$0A@@std@@@2@@Z 004500a0 f i libohNetCore:NetworkAdapterList.obj
