 TestFifo

 Timestamp is 4e1c1b89 (Tue Jul 12 11:01:45 2011)

 Preferred load address is 00400000

 Start         Length     Name                   Class
 0001:00000000 0007a36cH .text                   CODE
 0001:0007a370 000050b3H .text$x                 CODE
 0001:0007f430 0000353eH .text$yc                CODE
 0001:00082970 00001431H .text$yd                CODE
 0002:00000000 000001e4H .idata$5                DATA
 0002:000001e4 00000004H .CRT$XCA                DATA
 0002:000001e8 00000004H .CRT$XCC                DATA
 0002:000001ec 00000294H .CRT$XCU                DATA
 0002:00000480 00000004H .CRT$XCZ                DATA
 0002:00000484 00000004H .CRT$XIA                DATA
 0002:00000488 00000010H .CRT$XIC                DATA
 0002:00000498 00000004H .CRT$XIY                DATA
 0002:0000049c 00000004H .CRT$XIZ                DATA
 0002:000004a0 00000004H .CRT$XPA                DATA
 0002:000004a4 00000008H .CRT$XPX                DATA
 0002:000004ac 00000004H .CRT$XPXA               DATA
 0002:000004b0 00000004H .CRT$XPZ                DATA
 0002:000004b4 00000004H .CRT$XTA                DATA
 0002:000004b8 00000004H .CRT$XTZ                DATA
 0002:000004c0 00014858H .rdata                  DATA
 0002:00014d18 0000004fH .rdata$debug            DATA
 0002:00014d68 000021f0H .rdata$r                DATA
 0002:00016f60 00000664H .rdata$sxdata           DATA
 0002:000175c4 00000004H .rtc$IAA                DATA
 0002:000175c8 00000060H .rtc$IMZ                DATA
 0002:00017628 00000004H .rtc$IZZ                DATA
 0002:0001762c 00000004H .rtc$TAA                DATA
 0002:00017630 00000060H .rtc$TMZ                DATA
 0002:00017690 00000004H .rtc$TZZ                DATA
 0002:00017698 000067dcH .xdata$x                DATA
 0002:0001de74 0000003cH .idata$2                DATA
 0002:0001deb0 00000014H .idata$3                DATA
 0002:0001dec4 000001e4H .idata$4                DATA
 0002:0001e0a8 00000776H .idata$6                DATA
 0002:0001e820 0000049cH .edata                  DATA
 0003:00000000 00001fe0H .data                   DATA
 0003:00001fe0 000031ccH .bss                    DATA

  Address         Publics by Value              Rva+Base       Lib:Object

 0000:00000000       __except_list              00000000     <absolute>
 0000:00000199       ___safe_se_handler_count   00000199     <absolute>
 0000:00000000       ___ImageBase               00400000     <linker-defined>
 0001:00000010       ?Test@SuiteFifoBasic@@UAEXXZ 00401010 f   TestFifo.obj
 0001:00000b40       ?Run@Reader@@QAEXXZ        00401b40 f   TestFifo.obj
 0001:00000d00       ?Run@Writer0@@QAEXXZ       00401d00 f   TestFifo.obj
 0001:00000df0       ?Run@Writer1@@QAEXXZ       00401df0 f   TestFifo.obj
 0001:00000ee0       ?MultipleWriteTest@@YGXIII@Z 00401ee0 f   TestFifo.obj
 0001:00001420       ?Run@ThreadSafetyTests@@UAEXXZ 00402420 f   TestFifo.obj
 0001:00001520       ?Test@SuiteFifoThreadSafety@@UAEXXZ 00402520 f   TestFifo.obj
 0001:00001650       ?Test@SuiteFifoLiteBasic@@UAEXXZ 00402650 f   TestFifo.obj
 0001:00002bd0       ?Main@Runner@TestFramework@OpenHome@@SGXHQAPADPAVInitialisationParams@Net@3@@Z 00403bd0 f   TestFifo.obj
 0001:00002d80       ?Value@I@@QBEIXZ           00403d80 f i TestFifo.obj
 0001:00002da0       ??0I@@QAE@I@Z              00403da0 f i TestFifo.obj
 0001:00002dc0       ??0Reader@@QAE@AAV?$Fifo@PAVI@@@OpenHome@@AAVThread@2@I@Z 00403dc0 f i TestFifo.obj
 0001:00002e10       ??0INonCopyable@OpenHome@@IAE@XZ 00403e10 f i TestFifo.obj
 0001:00002e30       ??0Writer0@@QAE@AAV?$Fifo@PAVI@@@OpenHome@@AAVThread@2@I@Z 00403e30 f i TestFifo.obj
 0001:00002e80       ??0Writer1@@QAE@AAV?$Fifo@PAVI@@@OpenHome@@AAVThread@2@I@Z 00403e80 f i TestFifo.obj
 0001:00002ed0       ??0ThreadSafetyTests@@QAE@AAVSemaphore@OpenHome@@@Z 00403ed0 f i TestFifo.obj
 0001:00002f20       ??_GThreadSafetyTests@@UAEPAXI@Z 00403f20 f i TestFifo.obj
 0001:00002f20       ??_EThreadSafetyTests@@UAEPAXI@Z 00403f20 f i TestFifo.obj
 0001:00002f60       ??1ThreadSafetyTests@@UAE@XZ 00403f60 f i TestFifo.obj
 0001:00002f90       ??0SuiteFifoBasic@@QAE@XZ  00403f90 f i TestFifo.obj
 0001:00002fd0       ??_ESuiteFifoBasic@@UAEPAXI@Z 00403fd0 f i TestFifo.obj
 0001:00002fd0       ??_GSuiteFifoBasic@@UAEPAXI@Z 00403fd0 f i TestFifo.obj
 0001:00003010       ??1SuiteFifoBasic@@UAE@XZ  00404010 f i TestFifo.obj
 0001:00003040       ??0SuiteFifoThreadSafety@@QAE@XZ 00404040 f i TestFifo.obj
 0001:00003080       ??_ESuiteFifoThreadSafety@@UAEPAXI@Z 00404080 f i TestFifo.obj
 0001:00003080       ??_GSuiteFifoThreadSafety@@UAEPAXI@Z 00404080 f i TestFifo.obj
 0001:000030c0       ??1SuiteFifoThreadSafety@@UAE@XZ 004040c0 f i TestFifo.obj
 0001:000030f0       ??0SuiteFifoLiteBasic@@QAE@XZ 004040f0 f i TestFifo.obj
 0001:00003130       ??_ESuiteFifoLiteBasic@@UAEPAXI@Z 00404130 f i TestFifo.obj
 0001:00003130       ??_GSuiteFifoLiteBasic@@UAEPAXI@Z 00404130 f i TestFifo.obj
 0001:00003170       ??1SuiteFifoLiteBasic@@UAE@XZ 00404170 f i TestFifo.obj
 0001:000031a0       ??_GInitialisationParams@Net@OpenHome@@QAEPAXI@Z 004041a0 f i TestFifo.obj
 0001:000031e0       ??0?$Fifo@PAVI@@@OpenHome@@QAE@I@Z 004041e0 f i TestFifo.obj
 0001:00003280       ??1?$Fifo@PAVI@@@OpenHome@@QAE@XZ 00404280 f i TestFifo.obj
 0001:000032d0       ??0?$FifoLite@PAVI@@$03@OpenHome@@QAE@XZ 004042d0 f i TestFifo.obj
 0001:00003300       ?Write@?$FifoLite@PAVI@@$03@OpenHome@@QAEXPAVI@@@Z 00404300 f i TestFifo.obj
 0001:00003330       ?WriteBack@?$FifoLite@PAVI@@$03@OpenHome@@QAEXPAVI@@@Z 00404330 f i TestFifo.obj
 0001:00003360       ?Read@?$FifoLite@PAVI@@$03@OpenHome@@QAEPAVI@@XZ 00404360 f i TestFifo.obj
 0001:00003390       ??0?$FifoLite@PAVI@@$00@OpenHome@@QAE@XZ 00404390 f i TestFifo.obj
 0001:000033c0       ?Write@?$FifoLite@PAVI@@$00@OpenHome@@QAEXPAVI@@@Z 004043c0 f i TestFifo.obj
 0001:000033f0       ?Read@?$FifoLite@PAVI@@$00@OpenHome@@QAEPAVI@@XZ 004043f0 f i TestFifo.obj
 0001:00003420       ??1FifoBase@OpenHome@@QAE@XZ 00404420 f i TestFifo.obj
 0001:000034a0       ?Write@?$Fifo@PAVI@@@OpenHome@@QAEXPAVI@@I@Z 004044a0 f i TestFifo.obj
 0001:000034e0       ?Write@?$Fifo@PAVI@@@OpenHome@@QAEXPAVI@@@Z 004044e0 f i TestFifo.obj
 0001:00003510       ?Read@?$Fifo@PAVI@@@OpenHome@@QAEPAVI@@I@Z 00404510 f i TestFifo.obj
 0001:00003560       ?Read@?$Fifo@PAVI@@@OpenHome@@QAEPAVI@@XZ 00404560 f i TestFifo.obj
 0001:00003590       ??$MakeFunctor@VWriter0@@XV1@@OpenHome@@YG?AV?$MemberTranslator@VWriter0@@P81@AEXXZ@0@AAVWriter0@@ABQ82@AEXXZ@Z 00404590 f i TestFifo.obj
 0001:000035c0       ??$MakeFunctor@VWriter1@@XV1@@OpenHome@@YG?AV?$MemberTranslator@VWriter1@@P81@AEXXZ@0@AAVWriter1@@ABQ82@AEXXZ@Z 004045c0 f i TestFifo.obj
 0001:000035f0       ??$MakeFunctor@VReader@@XV1@@OpenHome@@YG?AV?$MemberTranslator@VReader@@P81@AEXXZ@0@AAVReader@@ABQ82@AEXXZ@Z 004045f0 f i TestFifo.obj
 0001:00003620       ??0?$MemberTranslator@VWriter0@@P81@AEXXZ@OpenHome@@QAE@AAVWriter0@@ABQ82@AEXXZ@Z 00404620 f i TestFifo.obj
 0001:00003660       ??0Functor@OpenHome@@IAE@P6GXABV01@@ZPBX2I@Z 00404660 f i TestFifo.obj
 0001:000036b0       ??0?$MemberTranslator@VWriter1@@P81@AEXXZ@OpenHome@@QAE@AAVWriter1@@ABQ82@AEXXZ@Z 004046b0 f i TestFifo.obj
 0001:000036f0       ??0?$MemberTranslator@VReader@@P81@AEXXZ@OpenHome@@QAE@AAVReader@@ABQ82@AEXXZ@Z 004046f0 f i TestFifo.obj
 0001:00003730       ?Thunk@?$MemberTranslator@VWriter0@@P81@AEXXZ@OpenHome@@SGXABVFunctor@2@@Z 00404730 f i TestFifo.obj
 0001:00003780       ?Thunk@?$MemberTranslator@VWriter1@@P81@AEXXZ@OpenHome@@SGXABVFunctor@2@@Z 00404780 f i TestFifo.obj
 0001:000037d0       ?Thunk@?$MemberTranslator@VReader@@P81@AEXXZ@OpenHome@@SGXABVFunctor@2@@Z 004047d0 f i TestFifo.obj
 0001:00003820       ?Log@TestConsole@@QAEXPBD@Z 00404820 f   libTestFramework:TestFramework.obj
 0001:00003850       ?AssertHandlerTest@TestFramework@OpenHome@@YGXPBDI@Z 00404850 f   libTestFramework:TestFramework.obj
 0001:00003900       ??0Suite@TestFramework@OpenHome@@IAE@PBD@Z 00404900 f   libTestFramework:TestFramework.obj
 0001:00003940       ??1Suite@TestFramework@OpenHome@@MAE@XZ 00404940 f   libTestFramework:TestFramework.obj
 0001:00003960       ?Description@Suite@TestFramework@OpenHome@@QBEPBDXZ 00404960 f   libTestFramework:TestFramework.obj
 0001:00003980       ??0Runner@TestFramework@OpenHome@@QAE@PBD@Z 00404980 f   libTestFramework:TestFramework.obj
 0001:000039c0       ??1Runner@TestFramework@OpenHome@@QAE@XZ 004049c0 f   libTestFramework:TestFramework.obj
 0001:000039e0       ?Add@Runner@TestFramework@OpenHome@@QAEXPAVSuite@23@@Z 004049e0 f   libTestFramework:TestFramework.obj
 0001:00003a60       ?Run@Runner@TestFramework@OpenHome@@QAEXXZ 00404a60 f   libTestFramework:TestFramework.obj
 0001:00003d10       ?Fail@TestFramework@OpenHome@@YGXPBDI00@Z 00404d10 f   libTestFramework:TestFramework.obj
 0001:00003d70       ?Succeed@TestFramework@OpenHome@@YGXPBDI@Z 00404d70 f   libTestFramework:TestFramework.obj
 0001:00003da0       ?SucceedQuietly@TestFramework@OpenHome@@YGXPBDI@Z 00404da0 f   libTestFramework:TestFramework.obj
 0001:00003dd0       ?TimeStart@TestFramework@OpenHome@@YGIXZ 00404dd0 f   libTestFramework:TestFramework.obj
 0001:00003df0       ?TimeStop@TestFramework@OpenHome@@YGII@Z 00404df0 f   libTestFramework:TestFramework.obj
 0001:00003e20       ?Print@TestFramework@OpenHome@@YAHPBDZZ 00404e20 f   libTestFramework:TestFramework.obj
 0001:00003ee0       ?Print@TestFramework@OpenHome@@YGHPBDPAD@Z 00404ee0 f   libTestFramework:TestFramework.obj
 0001:00003f90       ?Print@TestFramework@OpenHome@@YGHABVBrx@2@@Z 00404f90 f   libTestFramework:TestFramework.obj
 0001:00004040       ?PrintHex@TestFramework@OpenHome@@YGHABVBrx@2@@Z 00405040 f   libTestFramework:TestFramework.obj
 0001:000040f0       ??0Blocker@TestFramework@OpenHome@@QAE@XZ 004050f0 f   libTestFramework:TestFramework.obj
 0001:000041f0       ??1Blocker@TestFramework@OpenHome@@QAE@XZ 004051f0 f   libTestFramework:TestFramework.obj
 0001:00004290       ?Wait@Blocker@TestFramework@OpenHome@@QAEXI@Z 00405290 f   libTestFramework:TestFramework.obj
 0001:000042d0       ?TimerExpired@Blocker@TestFramework@OpenHome@@AAEXXZ 004052d0 f   libTestFramework:TestFramework.obj
 0001:00004300       ?ConsoleWrite@Os@OpenHome@@SGXPBD@Z 00405300 f i libTestFramework:TestFramework.obj
 0001:00004320       ??0AssertionFailed@OpenHome@@QAE@PBDI@Z 00405320 f i libTestFramework:TestFramework.obj
 0001:00004360       ??1AssertionFailed@OpenHome@@QAE@XZ 00405360 f i libTestFramework:TestFramework.obj
 0001:00004390       ??_GSuite@TestFramework@OpenHome@@MAEPAXI@Z 00405390 f i libTestFramework:TestFramework.obj
 0001:00004390       ??_ESuite@TestFramework@OpenHome@@MAEPAXI@Z 00405390 f i libTestFramework:TestFramework.obj
 0001:000043d0       ?TimeInMs@Os@OpenHome@@SGIXZ 004053d0 f i libTestFramework:TestFramework.obj
 0001:000043f0       ?TimeInUs@Os@OpenHome@@SG_KXZ 004053f0 f i libTestFramework:TestFramework.obj
 0001:00004410       ??_GTimer@OpenHome@@QAEPAXI@Z 00405410 f i libTestFramework:TestFramework.obj
 0001:00004450       ??$MakeFunctorMsg@VTestConsole@@V1@@OpenHome@@YG?AV?$MemberTranslatorMsg@VTestConsole@@P81@AEXPBD@Z@0@AAVTestConsole@@ABQ82@AEXPBD@Z@Z 00405450 f i libTestFramework:TestFramework.obj
 0001:00004480       ??$MakeFunctor@VBlocker@TestFramework@OpenHome@@XV123@@OpenHome@@YG?AV?$MemberTranslator@VBlocker@TestFramework@OpenHome@@P8123@AEXXZ@0@AAVBlocker@TestFramework@0@ABQ8230@AEXXZ@Z 00405480 f i libTestFramework:TestFramework.obj
 0001:000044b0       ??0?$MemberTranslatorMsg@VTestConsole@@P81@AEXPBD@Z@OpenHome@@QAE@AAVTestConsole@@ABQ82@AEXPBD@Z@Z 004054b0 f i libTestFramework:TestFramework.obj
 0001:000044f0       ??0FunctorMsg@OpenHome@@IAE@P6GXABV01@PBD@ZPBX3I@Z 004054f0 f i libTestFramework:TestFramework.obj
 0001:00004540       ??0?$MemberTranslator@VBlocker@TestFramework@OpenHome@@P8123@AEXXZ@OpenHome@@QAE@AAVBlocker@TestFramework@1@ABQ8231@AEXXZ@Z 00405540 f i libTestFramework:TestFramework.obj
 0001:00004580       ?Thunk@?$MemberTranslatorMsg@VTestConsole@@P81@AEXPBD@Z@OpenHome@@SGXABVFunctorMsg@2@PBD@Z 00405580 f i libTestFramework:TestFramework.obj
 0001:000045d0       ?Thunk@?$MemberTranslator@VBlocker@TestFramework@OpenHome@@P8123@AEXXZ@OpenHome@@SGXABVFunctor@2@@Z 004055d0 f i libTestFramework:TestFramework.obj
 0001:00004620       ??0FifoBase@OpenHome@@IAE@I@Z 00405620 f   libohNetCore:Fifo.obj
 0001:00004700       ?Slots@FifoBase@OpenHome@@QBEIXZ 00405700 f   libohNetCore:Fifo.obj
 0001:00004720       ?SlotsFree@FifoBase@OpenHome@@QBEIXZ 00405720 f   libohNetCore:Fifo.obj
 0001:00004740       ?SlotsUsed@FifoBase@OpenHome@@QBEIXZ 00405740 f   libohNetCore:Fifo.obj
 0001:00004760       ?ReadInterrupt@FifoBase@OpenHome@@QAEX_N@Z 00405760 f   libohNetCore:Fifo.obj
 0001:000047a0       ?WriteOpen@FifoBase@OpenHome@@IAEII@Z 004057a0 f   libohNetCore:Fifo.obj
 0001:00004820       ?WriteClose@FifoBase@OpenHome@@IAEXXZ 00405820 f   libohNetCore:Fifo.obj
 0001:00004870       ?ReadOpen@FifoBase@OpenHome@@IAEII@Z 00405870 f   libohNetCore:Fifo.obj
 0001:00004970       ?ReadClose@FifoBase@OpenHome@@IAEXXZ 00405970 f   libohNetCore:Fifo.obj
 0001:000049b0       ?DoPeek@FifoBase@OpenHome@@IAEIXZ 004059b0 f   libohNetCore:Fifo.obj
 0001:000049d0       ??0FifoByte@OpenHome@@QAE@I@Z 004059d0 f   libohNetCore:Fifo.obj
 0001:00004a00       ?Write@FifoByte@OpenHome@@QAEXABVBrx@2@@Z 00405a00 f   libohNetCore:Fifo.obj
 0001:00004a60       ?Read@FifoByte@OpenHome@@QAEXAAVBwx@2@@Z 00405a60 f   libohNetCore:Fifo.obj
 0001:00004aa0       ?Read@FifoByte@OpenHome@@QAEXAAVBwx@2@I@Z 00405aa0 f   libohNetCore:Fifo.obj
 0001:00004b10       ??0FifoThresholdBase@OpenHome@@IAE@IAAVFifoThresholdObserver@1@@Z 00405b10 f   libohNetCore:Fifo.obj
 0001:00004b70       ?SetThresholdLow@FifoThresholdBase@OpenHome@@QAEXI@Z 00405b70 f   libohNetCore:Fifo.obj
 0001:00004bc0       ?SetThresholdHigh@FifoThresholdBase@OpenHome@@QAEXI@Z 00405bc0 f   libohNetCore:Fifo.obj
 0001:00004c10       ?CheckThresholdHigh@FifoThresholdBase@OpenHome@@IAEXXZ 00405c10 f   libohNetCore:Fifo.obj
 0001:00004c90       ?CheckThresholdLow@FifoThresholdBase@OpenHome@@IAEXXZ 00405c90 f   libohNetCore:Fifo.obj
 0001:00004d10       ??0FifoLiteBase@OpenHome@@IAE@I@Z 00405d10 f   libohNetCore:Fifo.obj
 0001:00004d60       ?Slots@FifoLiteBase@OpenHome@@QBEIXZ 00405d60 f   libohNetCore:Fifo.obj
 0001:00004d80       ?SlotsFree@FifoLiteBase@OpenHome@@QBEIXZ 00405d80 f   libohNetCore:Fifo.obj
 0001:00004da0       ?SlotsUsed@FifoLiteBase@OpenHome@@QBEIXZ 00405da0 f   libohNetCore:Fifo.obj
 0001:00004dc0       ?Write@FifoLiteBase@OpenHome@@IAEIXZ 00405dc0 f   libohNetCore:Fifo.obj
 0001:00004e50       ?WriteBack@FifoLiteBase@OpenHome@@IAEIXZ 00405e50 f   libohNetCore:Fifo.obj
 0001:00004ed0       ?Read@FifoLiteBase@OpenHome@@IAEIXZ 00405ed0 f   libohNetCore:Fifo.obj
 0001:00004f50       ??0FifoReadError@OpenHome@@QAE@PBDI@Z 00405f50 f i libohNetCore:Fifo.obj
 0001:00004f90       ??1FifoReadError@OpenHome@@QAE@XZ 00405f90 f i libohNetCore:Fifo.obj
 0001:00004fc0       ?Bytes@Brx@OpenHome@@QBEIXZ 00405fc0 f i libohNetCore:Fifo.obj
 0001:00004fe0       ?MaxBytes@Bwx@OpenHome@@QBEIXZ 00405fe0 f i libohNetCore:Fifo.obj
 0001:00005000       ?Append@Bwx@OpenHome@@QAEXE@Z 00406000 f i libohNetCore:Fifo.obj
 0001:00005030       ??0?$Fifo@E@OpenHome@@QAE@I@Z 00406030 f i libohNetCore:Fifo.obj
 0001:000050c0       ?Write@?$Fifo@E@OpenHome@@QAEXE@Z 004060c0 f i libohNetCore:Fifo.obj
 0001:000050f0       ?Read@?$Fifo@E@OpenHome@@QAEEXZ 004060f0 f i libohNetCore:Fifo.obj
 0001:00005120       ?Write@?$Fifo@E@OpenHome@@QAEXEI@Z 00406120 f i libohNetCore:Fifo.obj
 0001:00005160       ?Read@?$Fifo@E@OpenHome@@QAEEI@Z 00406160 f i libohNetCore:Fifo.obj
 0001:000051b0       ??0Semaphore@OpenHome@@QAE@PBDI@Z 004061b0 f   libohNetCore:Thread.obj
 0001:00005230       ??1Semaphore@OpenHome@@UAE@XZ 00406230 f   libohNetCore:Thread.obj
 0001:00005270       ?Wait@Semaphore@OpenHome@@QAEXXZ 00406270 f   libohNetCore:Thread.obj
 0001:000052a0       ?Wait@Semaphore@OpenHome@@QAEXI@Z 004062a0 f   libohNetCore:Thread.obj
 0001:00005390       ?Clear@Semaphore@OpenHome@@QAE_NXZ 00406390 f   libohNetCore:Thread.obj
 0001:000053d0       ?Signal@Semaphore@OpenHome@@QAEXXZ 004063d0 f   libohNetCore:Thread.obj
 0001:00005400       ??0Mutex@OpenHome@@QAE@PBD@Z 00406400 f   libohNetCore:Thread.obj
 0001:00005490       ??1Mutex@OpenHome@@UAE@XZ  00406490 f   libohNetCore:Thread.obj
 0001:000054d0       ?Wait@Mutex@OpenHome@@QAEXXZ 004064d0 f   libohNetCore:Thread.obj
 0001:00005600       ?Signal@Mutex@OpenHome@@QAEXXZ 00406600 f   libohNetCore:Thread.obj
 0001:00005630       ??0SemaphoreActive@OpenHome@@QAE@AAVSemaphore@1@@Z 00406630 f   libohNetCore:Thread.obj
 0001:00005680       ??0SemaphoreActive@OpenHome@@QAE@AAVThread@1@@Z 00406680 f   libohNetCore:Thread.obj
 0001:000056d0       ?Signal@SemaphoreActive@OpenHome@@QAEXXZ 004066d0 f   libohNetCore:Thread.obj
 0001:00005720       ?Signalled@SemaphoreActive@OpenHome@@QAE_NXZ 00406720 f   libohNetCore:Thread.obj
 0001:000057a0       ?ConsumeOne@SemaphoreActive@OpenHome@@QAEXXZ 004067a0 f   libohNetCore:Thread.obj
 0001:00005800       ?ConsumeAll@SemaphoreActive@OpenHome@@QAEXXZ 00406800 f   libohNetCore:Thread.obj
 0001:00005850       ??0Thread@OpenHome@@IAE@PBDII@Z 00406850 f   libohNetCore:Thread.obj
 0001:00005970       ??1Thread@OpenHome@@UAE@XZ 00406970 f   libohNetCore:Thread.obj
 0001:00005a50       ?Start@Thread@OpenHome@@QAEXXZ 00406a50 f   libohNetCore:Thread.obj
 0001:00005ab0       ?EntryPoint@Thread@OpenHome@@CGXPAX@Z 00406ab0 f   libohNetCore:Thread.obj
 0001:00005c50       ?Wait@Thread@OpenHome@@QAEXXZ 00406c50 f   libohNetCore:Thread.obj
 0001:00005c80       ?Signal@Thread@OpenHome@@QAEXXZ 00406c80 f   libohNetCore:Thread.obj
 0001:00005cb0       ?TryWait@Thread@OpenHome@@QAE_NXZ 00406cb0 f   libohNetCore:Thread.obj
 0001:00005ce0       ?Sleep@Thread@OpenHome@@SGXI@Z 00406ce0 f   libohNetCore:Thread.obj
 0001:00005db0       ?Current@Thread@OpenHome@@SGPAV12@XZ 00406db0 f   libohNetCore:Thread.obj
 0001:00005dd0       ?SupportsPriorities@Thread@OpenHome@@SG_NXZ 00406dd0 f   libohNetCore:Thread.obj
 0001:00005df0       ?CheckForKill@Thread@OpenHome@@IBEXXZ 00406df0 f   libohNetCore:Thread.obj
 0001:00005ec0       ?Kill@Thread@OpenHome@@QAEXXZ 00406ec0 f   libohNetCore:Thread.obj
 0001:00005f30       ?Name@Thread@OpenHome@@QBEABVBrx@2@XZ 00406f30 f   libohNetCore:Thread.obj
 0001:00005f50       ??8Thread@OpenHome@@QBE_NABV01@@Z 00406f50 f   libohNetCore:Thread.obj
 0001:00005f80       ??9Thread@OpenHome@@QBE_NABV01@@Z 00406f80 f   libohNetCore:Thread.obj
 0001:00005fc0       ?Join@Thread@OpenHome@@IAEXXZ 00406fc0 f   libohNetCore:Thread.obj
 0001:00006020       ??0ThreadFunctor@OpenHome@@QAE@PBDVFunctor@1@II@Z 00407020 f   libohNetCore:Thread.obj
 0001:000060d0       ??1ThreadFunctor@OpenHome@@UAE@XZ 004070d0 f   libohNetCore:Thread.obj
 0001:00006150       ?Run@ThreadFunctor@OpenHome@@EAEXXZ 00407150 f   libohNetCore:Thread.obj
 0001:00006190       ??0AutoMutex@OpenHome@@QAE@AAVMutex@1@@Z 00407190 f   libohNetCore:Thread.obj
 0001:000061d0       ??1AutoMutex@OpenHome@@QAE@XZ 004071d0 f   libohNetCore:Thread.obj
 0001:00006200       ??0AtomicInt@OpenHome@@QAE@H@Z 00407200 f   libohNetCore:Thread.obj
 0001:00006240       ??0AtomicInt@OpenHome@@QAE@XZ 00407240 f   libohNetCore:Thread.obj
 0001:00006270       ?Inc@AtomicInt@OpenHome@@QAEHXZ 00407270 f   libohNetCore:Thread.obj
 0001:000062d0       ?Dec@AtomicInt@OpenHome@@QAEHXZ 004072d0 f   libohNetCore:Thread.obj
 0001:00006330       ??0bad_alloc@std@@QAE@XZ   00407330 f i libohNetCore:Thread.obj
 0001:00006380       ??1bad_alloc@std@@UAE@XZ   00407380 f i libohNetCore:Thread.obj
 0001:000063b0       ??_Gbad_alloc@std@@UAEPAXI@Z 004073b0 f i libohNetCore:Thread.obj
 0001:000063b0       ??_Ebad_alloc@std@@UAEPAXI@Z 004073b0 f i libohNetCore:Thread.obj
 0001:000063f0       ?SemaphoreCreate@Os@OpenHome@@SGPAXPBDI@Z 004073f0 f i libohNetCore:Thread.obj
 0001:00006410       ??_ESemaphore@OpenHome@@UAEPAXI@Z 00407410 f i libohNetCore:Thread.obj
 0001:00006410       ??_GSemaphore@OpenHome@@UAEPAXI@Z 00407410 f i libohNetCore:Thread.obj
 0001:00006450       ??0bad_alloc@std@@QAE@ABV01@@Z 00407450 f i libohNetCore:Thread.obj
 0001:00006490       ?SemaphoreDestroy@Os@OpenHome@@SGXPAX@Z 00407490 f i libohNetCore:Thread.obj
 0001:000064b0       ?SemaphoreWait@Os@OpenHome@@SGXPAX@Z 004074b0 f i libohNetCore:Thread.obj
 0001:00006500       ??0Timeout@OpenHome@@QAE@PBDI@Z 00407500 f i libohNetCore:Thread.obj
 0001:00006540       ?SemaphoreTimedWait@Os@OpenHome@@SG_NPAXI@Z 00407540 f i libohNetCore:Thread.obj
 0001:00006590       ??1Timeout@OpenHome@@QAE@XZ 00407590 f i libohNetCore:Thread.obj
 0001:000065c0       ?SemaphoreClear@Os@OpenHome@@SG_NPAX@Z 004075c0 f i libohNetCore:Thread.obj
 0001:000065f0       ?SemaphoreSignal@Os@OpenHome@@SGXPAX@Z 004075f0 f i libohNetCore:Thread.obj
 0001:00006640       ??_EMutex@OpenHome@@UAEPAXI@Z 00407640 f i libohNetCore:Thread.obj
 0001:000066c0       ?MutexCreate@Os@OpenHome@@SGPAXPBD@Z 004076c0 f i libohNetCore:Thread.obj
 0001:000066e0       ?MutexDestroy@Os@OpenHome@@SGXPAX@Z 004076e0 f i libohNetCore:Thread.obj
 0001:00006700       ??0Brhz@OpenHome@@QAE@XZ   00407700 f i libohNetCore:Thread.obj
 0001:00006730       ??0Brv@OpenHome@@IAE@XZ    00407730 f i libohNetCore:Thread.obj
 0001:000067b0       ??1Brx@OpenHome@@UAE@XZ    004077b0 f i libohNetCore:Thread.obj
 0001:000067d0       ??_GBrx@OpenHome@@UAEPAXI@Z 004077d0 f i libohNetCore:Thread.obj
 0001:000067d0       ??_EBrx@OpenHome@@UAEPAXI@Z 004077d0 f i libohNetCore:Thread.obj
 0001:00006810       ??_EBrv@OpenHome@@UAEPAXI@Z 00407810 f i libohNetCore:Thread.obj
 0001:00006890       ??0Brx@OpenHome@@IAE@I@Z   00407890 f i libohNetCore:Thread.obj
 0001:000068c0       ??_EBrhz@OpenHome@@UAEPAXI@Z 004078c0 f i libohNetCore:Thread.obj
 0001:000068c0       ??_GBrhz@OpenHome@@UAEPAXI@Z 004078c0 f i libohNetCore:Thread.obj
 0001:00006900       ??1Brhz@OpenHome@@UAE@XZ   00407900 f i libohNetCore:Thread.obj
 0001:00006930       ?Set@Brhz@OpenHome@@QAEXABVBrx@2@@Z 00407930 f i libohNetCore:Thread.obj
 0001:00006980       ?MutexLock@Os@OpenHome@@SGHPAX@Z 00407980 f i libohNetCore:Thread.obj
 0001:000069b0       ?MutexUnlock@Os@OpenHome@@SGXPAX@Z 004079b0 f i libohNetCore:Thread.obj
 0001:00006a00       ??_GThread@OpenHome@@UAEPAXI@Z 00407a00 f i libohNetCore:Thread.obj
 0001:00006a00       ??_EThread@OpenHome@@UAEPAXI@Z 00407a00 f i libohNetCore:Thread.obj
 0001:00006a40       ??1?$Bws@$04@OpenHome@@UAE@XZ 00407a40 f i libohNetCore:Thread.obj
 0001:00006a70       ??1Bwx@OpenHome@@UAE@XZ    00407a70 f i libohNetCore:Thread.obj
 0001:00006aa0       ?ThreadDestroy@Os@OpenHome@@SGXPAX@Z 00407aa0 f i libohNetCore:Thread.obj
 0001:00006ac0       ?ThreadCreate@Os@OpenHome@@SGPAXPBDIIP6GXPAX@Z1@Z 00407ac0 f i libohNetCore:Thread.obj
 0001:00006af0       ?ThreadTls@Os@OpenHome@@SGPAXXZ 00407af0 f i libohNetCore:Thread.obj
 0001:00006b10       ?ThreadSupportsPriorities@Os@OpenHome@@SG_NXZ 00407b10 f i libohNetCore:Thread.obj
 0001:00006b30       ??0ThreadKill@OpenHome@@QAE@PBDI@Z 00407b30 f i libohNetCore:Thread.obj
 0001:00006b70       ??1ThreadKill@OpenHome@@QAE@XZ 00407b70 f i libohNetCore:Thread.obj
 0001:00006ba0       ??_EThreadFunctor@OpenHome@@UAEPAXI@Z 00407ba0 f i libohNetCore:Thread.obj
 0001:00006ba0       ??_GThreadFunctor@OpenHome@@UAEPAXI@Z 00407ba0 f i libohNetCore:Thread.obj
 0001:00006be0       ??RFunctor@OpenHome@@QBEXXZ 00407be0 f i libohNetCore:Thread.obj
 0001:00006c20       ??0?$Bws@$04@OpenHome@@QAE@XZ 00407c20 f i libohNetCore:Thread.obj
 0001:00006c60       ?Ptr@?$Bws@$04@OpenHome@@UBEPBEXZ 00407c60 f i libohNetCore:Thread.obj
 0001:00006c80       ??_E?$Bws@$04@OpenHome@@UAEPAXI@Z 00407c80 f i libohNetCore:Thread.obj
 0001:00006c80       ??_G?$Bws@$04@OpenHome@@UAEPAXI@Z 00407c80 f i libohNetCore:Thread.obj
 0001:00006cc0       ?SetAssertHandler@OpenHome@@YGP6GXPBDI@ZP6GX0I@Z@Z 00407cc0 f   libohNetCore:Exception.obj
 0001:00006cf0       ?CallAssertHandler@OpenHome@@YGXPBDI@Z 00407cf0 f   libohNetCore:Exception.obj
 0001:00006d20       ?AssertHandlerDefault@OpenHome@@YGXPBDI@Z 00407d20 f   libohNetCore:Exception.obj
 0001:00006e10       ?UnhandledExceptionHandler@OpenHome@@YGXPBD0I@Z 00407e10 f   libohNetCore:Exception.obj
 0001:00006eb0       ?UnhandledExceptionHandler@OpenHome@@YGXAAVException@1@@Z 00407eb0 f   libohNetCore:Exception.obj
 0001:00006f60       ?UnhandledExceptionHandler@OpenHome@@YGXAAVexception@std@@@Z 00407f60 f   libohNetCore:Exception.obj
 0001:00007010       ??0Exception@OpenHome@@QAE@PBD0I@Z 00408010 f   libohNetCore:Exception.obj
 0001:00007050       ??0Exception@OpenHome@@QAE@PBD@Z 00408050 f   libohNetCore:Exception.obj
 0001:00007090       ??1Exception@OpenHome@@QAE@XZ 00408090 f   libohNetCore:Exception.obj
 0001:000070b0       ?Message@Exception@OpenHome@@QAEPBDXZ 004080b0 f   libohNetCore:Exception.obj
 0001:000070d0       ?File@Exception@OpenHome@@QAEPBDXZ 004080d0 f   libohNetCore:Exception.obj
 0001:000070f0       ?Line@Exception@OpenHome@@QAEIXZ 004080f0 f   libohNetCore:Exception.obj
 0001:00007110       ?Quit@Os@OpenHome@@SGXXZ   00408110 f i libohNetCore:Exception.obj
 0001:00007130       ??RFunctorMsg@OpenHome@@QBEXPBD@Z 00408130 f i libohNetCore:Exception.obj
 0001:00007170       ??0NetworkAdapter@OpenHome@@QAE@IIPBD@Z 00408170 f   libohNetCore:OhNet.obj
 0001:00007210       ??1NetworkAdapter@OpenHome@@AAE@XZ 00408210 f   libohNetCore:OhNet.obj
 0001:00007280       ?AddRef@NetworkAdapter@OpenHome@@QAEXXZ 00408280 f   libohNetCore:OhNet.obj
 0001:000072d0       ?RemoveRef@NetworkAdapter@OpenHome@@QAEXXZ 004082d0 f   libohNetCore:OhNet.obj
 0001:00007360       ?Address@NetworkAdapter@OpenHome@@QBEIXZ 00408360 f   libohNetCore:OhNet.obj
 0001:00007380       ?Subnet@NetworkAdapter@OpenHome@@QBEIXZ 00408380 f   libohNetCore:OhNet.obj
 0001:000073a0       ?Mask@NetworkAdapter@OpenHome@@QBEIXZ 004083a0 f   libohNetCore:OhNet.obj
 0001:000073c0       ?ContainsAddress@NetworkAdapter@OpenHome@@QAE_NI@Z 004083c0 f   libohNetCore:OhNet.obj
 0001:00007400       ?Name@NetworkAdapter@OpenHome@@QBEPBDXZ 00408400 f   libohNetCore:OhNet.obj
 0001:00007440       ?FullName@NetworkAdapter@OpenHome@@QBEPADXZ 00408440 f   libohNetCore:OhNet.obj
 0001:000075a0       ?Log@DefaultLogger@Net@OpenHome@@QAEXPBD@Z 004085a0 f   libohNetCore:OhNet.obj
 0001:000075f0       ?LogError@DefaultAsyncHandler@Net@OpenHome@@QAEXAAVIAsync@23@@Z 004085f0 f   libohNetCore:OhNet.obj
 0001:00007650       ?Output@DefaultAsyncHandler@Net@OpenHome@@EAEXPBD0@Z 00408650 f   libohNetCore:OhNet.obj
 0001:00007690       ?Create@InitialisationParams@Net@OpenHome@@SGPAV123@XZ 00408690 f   libohNetCore:OhNet.obj
 0001:00007730       ??1InitialisationParams@Net@OpenHome@@QAE@XZ 00408730 f   libohNetCore:OhNet.obj
 0001:00007790       ?SetLogOutput@InitialisationParams@Net@OpenHome@@QAEXVFunctorMsg@3@@Z 00408790 f   libohNetCore:OhNet.obj
 0001:000077c0       ?SetFatalErrorHandler@InitialisationParams@Net@OpenHome@@QAEXVFunctorMsg@3@@Z 004087c0 f   libohNetCore:OhNet.obj
 0001:00007820       ?SetAsyncBeginHandler@InitialisationParams@Net@OpenHome@@QAEXVFunctorAsync@23@@Z 00408820 f   libohNetCore:OhNet.obj
 0001:00007860       ?SetAsyncEndHandler@InitialisationParams@Net@OpenHome@@QAEXVFunctorAsync@23@@Z 00408860 f   libohNetCore:OhNet.obj
 0001:000078a0       ?SetAsyncErrorHandler@InitialisationParams@Net@OpenHome@@QAEXVFunctorAsync@23@@Z 004088a0 f   libohNetCore:OhNet.obj
 0001:000078e0       ?SetSubnetListChangedListener@InitialisationParams@Net@OpenHome@@QAEXVFunctor@3@@Z 004088e0 f   libohNetCore:OhNet.obj
 0001:00007920       ?SetTcpConnectTimeout@InitialisationParams@Net@OpenHome@@QAEXI@Z 00408920 f   libohNetCore:OhNet.obj
 0001:00007960       ?SetMsearchTime@InitialisationParams@Net@OpenHome@@QAEXI@Z 00408960 f   libohNetCore:OhNet.obj
 0001:000079b0       ?SetMsearchTtl@InitialisationParams@Net@OpenHome@@QAEXI@Z 004089b0 f   libohNetCore:OhNet.obj
 0001:000079f0       ?SetNumEventSessionThreads@InitialisationParams@Net@OpenHome@@QAEXI@Z 004089f0 f   libohNetCore:OhNet.obj
 0001:00007a40       ?SetNumXmlFetcherThreads@InitialisationParams@Net@OpenHome@@QAEXI@Z 00408a40 f   libohNetCore:OhNet.obj
 0001:00007a90       ?SetNumActionInvokerThreads@InitialisationParams@Net@OpenHome@@QAEXI@Z 00408a90 f   libohNetCore:OhNet.obj
 0001:00007ae0       ?SetNumInvocations@InitialisationParams@Net@OpenHome@@QAEXI@Z 00408ae0 f   libohNetCore:OhNet.obj
 0001:00007b20       ?SetNumSubscriberThreads@InitialisationParams@Net@OpenHome@@QAEXI@Z 00408b20 f   libohNetCore:OhNet.obj
 0001:00007b70       ?SetPendingSubscriptionTimeout@InitialisationParams@Net@OpenHome@@QAEXI@Z 00408b70 f   libohNetCore:OhNet.obj
 0001:00007bb0       ?SetFreeExternalCallback@InitialisationParams@Net@OpenHome@@QAEXP6GXPAX@Z@Z 00408bb0 f   libohNetCore:OhNet.obj
 0001:00007bd0       ?SetUseLoopbackNetworkAdapter@InitialisationParams@Net@OpenHome@@QAEXXZ 00408bd0 f   libohNetCore:OhNet.obj
 0001:00007bf0       ?SetDvMaxUpdateTime@InitialisationParams@Net@OpenHome@@QAEXI@Z 00408bf0 f   libohNetCore:OhNet.obj
 0001:00007c10       ?SetDvNumServerThreads@InitialisationParams@Net@OpenHome@@QAEXI@Z 00408c10 f   libohNetCore:OhNet.obj
 0001:00007c60       ?SetDvNumPublisherThreads@InitialisationParams@Net@OpenHome@@QAEXI@Z 00408c60 f   libohNetCore:OhNet.obj
 0001:00007cb0       ?SetDvNumWebSocketThreads@InitialisationParams@Net@OpenHome@@QAEXI@Z 00408cb0 f   libohNetCore:OhNet.obj
 0001:00007d00       ?SetDvWebSocketPort@InitialisationParams@Net@OpenHome@@QAEXI@Z 00408d00 f   libohNetCore:OhNet.obj
 0001:00007d20       ?SetDvEnableBonjour@InitialisationParams@Net@OpenHome@@QAEXXZ 00408d20 f   libohNetCore:OhNet.obj
 0001:00007d40       ?LogOutput@InitialisationParams@Net@OpenHome@@QAEAAVFunctorMsg@3@XZ 00408d40 f   libohNetCore:OhNet.obj
 0001:00007d60       ?FatalErrorHandler@InitialisationParams@Net@OpenHome@@QAEAAVFunctorMsg@3@XZ 00408d60 f   libohNetCore:OhNet.obj
 0001:00007d80       ?AsyncBeginHandler@InitialisationParams@Net@OpenHome@@QAEAAVFunctorAsync@23@XZ 00408d80 f   libohNetCore:OhNet.obj
 0001:00007da0       ?AsyncEndHandler@InitialisationParams@Net@OpenHome@@QAEAAVFunctorAsync@23@XZ 00408da0 f   libohNetCore:OhNet.obj
 0001:00007dc0       ?AsyncErrorHandler@InitialisationParams@Net@OpenHome@@QAEAAVFunctorAsync@23@XZ 00408dc0 f   libohNetCore:OhNet.obj
 0001:00007de0       ?SubnetListChangedListener@InitialisationParams@Net@OpenHome@@QAEAAVFunctor@3@XZ 00408de0 f   libohNetCore:OhNet.obj
 0001:00007e00       ?TcpConnectTimeoutMs@InitialisationParams@Net@OpenHome@@QBEIXZ 00408e00 f   libohNetCore:OhNet.obj
 0001:00007e20       ?MsearchTimeSecs@InitialisationParams@Net@OpenHome@@QBEIXZ 00408e20 f   libohNetCore:OhNet.obj
 0001:00007e40       ?MsearchTtl@InitialisationParams@Net@OpenHome@@QBEIXZ 00408e40 f   libohNetCore:OhNet.obj
 0001:00007e60       ?NumEventSessionThreads@InitialisationParams@Net@OpenHome@@QBEIXZ 00408e60 f   libohNetCore:OhNet.obj
 0001:00007e80       ?NumXmlFetcherThreads@InitialisationParams@Net@OpenHome@@QBEIXZ 00408e80 f   libohNetCore:OhNet.obj
 0001:00007ea0       ?NumActionInvokerThreads@InitialisationParams@Net@OpenHome@@QBEIXZ 00408ea0 f   libohNetCore:OhNet.obj
 0001:00007ec0       ?NumInvocations@InitialisationParams@Net@OpenHome@@QBEIXZ 00408ec0 f   libohNetCore:OhNet.obj
 0001:00007ee0       ?NumSubscriberThreads@InitialisationParams@Net@OpenHome@@QBEIXZ 00408ee0 f   libohNetCore:OhNet.obj
 0001:00007f00       ?PendingSubscriptionTimeoutMs@InitialisationParams@Net@OpenHome@@QBEIXZ 00408f00 f   libohNetCore:OhNet.obj
 0001:00007f20       ?FreeExternal@InitialisationParams@Net@OpenHome@@QBEP6GXPAX@ZXZ 00408f20 f   libohNetCore:OhNet.obj
 0001:00007f40       ?UseLoopbackNetworkAdapter@InitialisationParams@Net@OpenHome@@QBE_NXZ 00408f40 f   libohNetCore:OhNet.obj
 0001:00007f60       ?DvMaxUpdateTimeSecs@InitialisationParams@Net@OpenHome@@QBEIXZ 00408f60 f   libohNetCore:OhNet.obj
 0001:00007f80       ?DvNumServerThreads@InitialisationParams@Net@OpenHome@@QBEIXZ 00408f80 f   libohNetCore:OhNet.obj
 0001:00007fa0       ?DvNumPublisherThreads@InitialisationParams@Net@OpenHome@@QBEIXZ 00408fa0 f   libohNetCore:OhNet.obj
 0001:00007fc0       ?DvNumWebSocketThreads@InitialisationParams@Net@OpenHome@@QBEIXZ 00408fc0 f   libohNetCore:OhNet.obj
 0001:00007fe0       ?DvWebSocketPort@InitialisationParams@Net@OpenHome@@QBEIXZ 00408fe0 f   libohNetCore:OhNet.obj
 0001:00008000       ?DvIsBonjourEnabled@InitialisationParams@Net@OpenHome@@QBE_NXZ 00409000 f   libohNetCore:OhNet.obj
 0001:00008020       ??0InitialisationParams@Net@OpenHome@@AAE@XZ 00409020 f   libohNetCore:OhNet.obj
 0001:00008290       ?FatalErrorHandlerDefault@InitialisationParams@Net@OpenHome@@AAEXPBD@Z 00409290 f   libohNetCore:OhNet.obj
 0001:000082c0       ?Initialise@UpnpLibrary@Net@OpenHome@@SGXPAVInitialisationParams@23@@Z 004092c0 f   libohNetCore:OhNet.obj
 0001:000083c0       ?InitialiseMinimal@UpnpLibrary@Net@OpenHome@@SGXPAVInitialisationParams@23@@Z 004093c0 f   libohNetCore:OhNet.obj
 0001:00008460       ?Close@UpnpLibrary@Net@OpenHome@@SGXXZ 00409460 f   libohNetCore:OhNet.obj
 0001:00008480       ?CreateSubnetList@UpnpLibrary@Net@OpenHome@@SGPAV?$vector@PAVNetworkAdapter@OpenHome@@V?$allocator@PAVNetworkAdapter@OpenHome@@@std@@@std@@XZ 00409480 f   libohNetCore:OhNet.obj
 0001:000084a0       ?DestroySubnetList@UpnpLibrary@Net@OpenHome@@SGXPAV?$vector@PAVNetworkAdapter@OpenHome@@V?$allocator@PAVNetworkAdapter@OpenHome@@@std@@@std@@@Z 004094a0 f   libohNetCore:OhNet.obj
 0001:00008530       ?SetCurrentSubnet@UpnpLibrary@Net@OpenHome@@SGXI@Z 00409530 f   libohNetCore:OhNet.obj
 0001:00008550       ?CurrentSubnetAdapter@UpnpLibrary@Net@OpenHome@@SGPAVNetworkAdapter@3@XZ 00409550 f   libohNetCore:OhNet.obj
 0001:00008570       ??_GNetworkAdapter@OpenHome@@AAEPAXI@Z 00409570 f i libohNetCore:OhNet.obj
 0001:000085b0       ?Append@Bwx@OpenHome@@QAEXD@Z 004095b0 f i libohNetCore:OhNet.obj
 0001:000085e0       ??BFunctorMsg@OpenHome@@QBE_NXZ 004095e0 f i libohNetCore:OhNet.obj
 0001:00008620       ??0Functor@OpenHome@@QAE@XZ 00409620 f i libohNetCore:OhNet.obj
 0001:00008650       ??0FunctorAsync@Net@OpenHome@@QAE@XZ 00409650 f i libohNetCore:OhNet.obj
 0001:00008680       ??0FunctorMsg@OpenHome@@QAE@XZ 00409680 f i libohNetCore:OhNet.obj
 0001:000086b0       ??0DefaultAsyncHandler@Net@OpenHome@@QAE@XZ 004096b0 f i libohNetCore:OhNet.obj
 0001:000086e0       ??0IAsyncOutput@Net@OpenHome@@QAE@XZ 004096e0 f i libohNetCore:OhNet.obj
 0001:00008700       ?Create@Os@OpenHome@@SGHXZ 00409700 f i libohNetCore:OhNet.obj
 0001:00008720       ?Destroy@Os@OpenHome@@SGXXZ 00409720 f i libohNetCore:OhNet.obj
 0001:00008740       ??_G?$vector@PAVNetworkAdapter@OpenHome@@V?$allocator@PAVNetworkAdapter@OpenHome@@@std@@@std@@QAEPAXI@Z 00409740 f i libohNetCore:OhNet.obj
 0001:00008780       ??1?$vector@PAVNetworkAdapter@OpenHome@@V?$allocator@PAVNetworkAdapter@OpenHome@@@std@@@std@@QAE@XZ 00409780 f i libohNetCore:OhNet.obj
 0001:000087f0       ?size@?$vector@PAVNetworkAdapter@OpenHome@@V?$allocator@PAVNetworkAdapter@OpenHome@@@std@@@std@@QBEIXZ 004097f0 f i libohNetCore:OhNet.obj
 0001:00008820       ??A?$vector@PAVNetworkAdapter@OpenHome@@V?$allocator@PAVNetworkAdapter@OpenHome@@@std@@@std@@QAEAAPAVNetworkAdapter@OpenHome@@I@Z 00409820 f i libohNetCore:OhNet.obj
 0001:000088c0       ?_Tidy@?$vector@PAVNetworkAdapter@OpenHome@@V?$allocator@PAVNetworkAdapter@OpenHome@@@std@@@std@@IAEXXZ 004098c0 f i libohNetCore:OhNet.obj
 0001:00008950       ?_Orphan_all@_Container_base12@std@@QAEXXZ 00409950 f i libohNetCore:OhNet.obj
 0001:00008a00       ??1?$_Vector_val@PAVNetworkAdapter@OpenHome@@V?$allocator@PAVNetworkAdapter@OpenHome@@@std@@@std@@QAE@XZ 00409a00 f i libohNetCore:OhNet.obj
 0001:00008ae0       ??1_Container_base12@std@@QAE@XZ 00409ae0 f i libohNetCore:OhNet.obj
 0001:00008b10       ?_Destroy@?$vector@PAVNetworkAdapter@OpenHome@@V?$allocator@PAVNetworkAdapter@OpenHome@@@std@@@std@@IAEXPAPAVNetworkAdapter@OpenHome@@0@Z 00409b10 f i libohNetCore:OhNet.obj
 0001:00008b50       ?deallocate@?$allocator@PAVNetworkAdapter@OpenHome@@@std@@QAEXPAPAVNetworkAdapter@OpenHome@@I@Z 00409b50 f i libohNetCore:OhNet.obj
 0001:00008b80       ?deallocate@?$allocator@U_Container_proxy@std@@@std@@QAEXPAU_Container_proxy@2@I@Z 00409b80 f i libohNetCore:OhNet.obj
 0001:00008bb0       ??$MakeFunctorMsg@VDefaultLogger@Net@OpenHome@@V123@@OpenHome@@YG?AV?$MemberTranslatorMsg@VDefaultLogger@Net@OpenHome@@P8123@AEXPBD@Z@0@AAVDefaultLogger@Net@0@ABQ8230@AEXPBD@Z@Z 00409bb0 f i libohNetCore:OhNet.obj
 0001:00008be0       ??$MakeFunctorAsync@VDefaultAsyncHandler@Net@OpenHome@@V123@@Net@OpenHome@@YG?AV?$MemberTranslatorAsync@VDefaultAsyncHandler@Net@OpenHome@@P8123@AEXAAVIAsync@23@@Z@01@AAVDefaultAsyncHandler@01@ABQ8301@AEXAAVIAsync@01@@Z@Z 00409be0 f i libohNetCore:OhNet.obj
 0001:00008c10       ??$MakeFunctorMsg@VInitialisationParams@Net@OpenHome@@V123@@OpenHome@@YG?AV?$MemberTranslatorMsg@VInitialisationParams@Net@OpenHome@@P8123@AEXPBD@Z@0@AAVInitialisationParams@Net@0@ABQ8230@AEXPBD@Z@Z 00409c10 f i libohNetCore:OhNet.obj
 0001:00008c40       ??$?0PAVNetworkAdapter@OpenHome@@@?$allocator@U_Container_proxy@std@@@std@@QAE@ABV?$allocator@PAVNetworkAdapter@OpenHome@@@1@@Z 00409c40 f i libohNetCore:OhNet.obj
 0001:00008c60       ??$_Dest_val@V?$allocator@U_Container_proxy@std@@@std@@U_Container_proxy@2@@std@@YGXAAV?$allocator@U_Container_proxy@std@@@0@PAU_Container_proxy@0@@Z 00409c60 f i libohNetCore:OhNet.obj
 0001:00008c80       ??$_Destroy_range@V?$allocator@PAVNetworkAdapter@OpenHome@@@std@@@std@@YGXPAPAVNetworkAdapter@OpenHome@@0AAV?$allocator@PAVNetworkAdapter@OpenHome@@@0@@Z 00409c80 f i libohNetCore:OhNet.obj
 0001:00008cd0       ??0?$MemberTranslatorMsg@VDefaultLogger@Net@OpenHome@@P8123@AEXPBD@Z@OpenHome@@QAE@AAVDefaultLogger@Net@1@ABQ8231@AEXPBD@Z@Z 00409cd0 f i libohNetCore:OhNet.obj
 0001:00008d10       ??0?$MemberTranslatorAsync@VDefaultAsyncHandler@Net@OpenHome@@P8123@AEXAAVIAsync@23@@Z@Net@OpenHome@@QAE@AAVDefaultAsyncHandler@12@ABQ8312@AEXAAVIAsync@12@@Z@Z 00409d10 f i libohNetCore:OhNet.obj
 0001:00008d50       ??0FunctorAsync@Net@OpenHome@@IAE@P6GXABV012@AAVIAsync@12@@ZPBX3I@Z 00409d50 f i libohNetCore:OhNet.obj
 0001:00008da0       ??0?$MemberTranslatorMsg@VInitialisationParams@Net@OpenHome@@P8123@AEXPBD@Z@OpenHome@@QAE@AAVInitialisationParams@Net@1@ABQ8231@AEXPBD@Z@Z 00409da0 f i libohNetCore:OhNet.obj
 0001:00008de0       ?destroy@?$allocator@U_Container_proxy@std@@@std@@QAEXPAU_Container_proxy@2@@Z 00409de0 f i libohNetCore:OhNet.obj
 0001:00008e10       ?Thunk@?$MemberTranslatorMsg@VDefaultLogger@Net@OpenHome@@P8123@AEXPBD@Z@OpenHome@@SGXABVFunctorMsg@2@PBD@Z 00409e10 f i libohNetCore:OhNet.obj
 0001:00008e60       ?Thunk@?$MemberTranslatorAsync@VDefaultAsyncHandler@Net@OpenHome@@P8123@AEXAAVIAsync@23@@Z@Net@OpenHome@@SGXABVFunctorAsync@23@AAVIAsync@23@@Z 00409e60 f i libohNetCore:OhNet.obj
 0001:00008eb0       ?Thunk@?$MemberTranslatorMsg@VInitialisationParams@Net@OpenHome@@P8123@AEXPBD@Z@OpenHome@@SGXABVFunctorMsg@2@PBD@Z 00409eb0 f i libohNetCore:OhNet.obj
 0001:00008f00       ??$_Ptr_cat@PAVNetworkAdapter@OpenHome@@PAV12@@std@@YG?AU_Scalar_ptr_iterator_tag@0@PAPAVNetworkAdapter@OpenHome@@0@Z 00409f00 f i libohNetCore:OhNet.obj
 0001:00008f60       ??$_Destroy_range@V?$allocator@PAVNetworkAdapter@OpenHome@@@std@@@std@@YGXPAPAVNetworkAdapter@OpenHome@@0AAV?$allocator@PAVNetworkAdapter@OpenHome@@@0@U_Scalar_ptr_iterator_tag@0@@Z 00409f60 f i libohNetCore:OhNet.obj
 0001:00008f70       ??$_Destroy@U_Container_proxy@std@@@std@@YGXPAU_Container_proxy@0@@Z 00409f70 f i libohNetCore:OhNet.obj
 0001:00008f80       ?Level@Debug@OpenHome@@SGIXZ 00409f80 f   libohNetCore:Debug.obj
 0001:00008f90       ?SetLevel@Debug@OpenHome@@SGXI@Z 00409f90 f   libohNetCore:Debug.obj
 0001:00008fa0       ?TestLevel@Debug@OpenHome@@SG_NI@Z 00409fa0 f   libohNetCore:Debug.obj
 0001:00008fc0       ?BreakBeforeThrow@Debug@OpenHome@@SG_NXZ 00409fc0 f   libohNetCore:Debug.obj
 0001:00008fd0       ?SetBreakBeforeThrow@Debug@OpenHome@@SGX_N@Z 00409fd0 f   libohNetCore:Debug.obj
 0001:00008fe0       ??0AutoLog@@QAE@IPBD@Z     00409fe0 f   libohNetCore:Debug.obj
 0001:00009040       ??1AutoLog@@QAE@XZ         0040a040 f   libohNetCore:Debug.obj
 0001:00009090       _OsCreate@0                0040a090 f   libohNetCore:Os.obj
 0001:00009260       _OsDestroy@0               0040a260 f   libohNetCore:Os.obj
 0001:00009370       _OsQuit@0                  0040a370 f   libohNetCore:Os.obj
 0001:00009390       _OsTimeInUs@0              0040a390 f   libohNetCore:Os.obj
 0001:00009470       _OsConsoleWrite@4          0040a470 f   libohNetCore:Os.obj
 0001:000094b0       _OsGetPlatformNameAndVersion@12 0040a4b0 f   libohNetCore:Os.obj
 0001:00009580       _OsSemaphoreCreate@8       0040a580 f   libohNetCore:Os.obj
 0001:000095c0       _OsSemaphoreDestroy@4      0040a5c0 f   libohNetCore:Os.obj
 0001:000095f0       _OsSemaphoreWait@4         0040a5f0 f   libohNetCore:Os.obj
 0001:00009630       _OsSemaphoreTimedWait@8    0040a630 f   libohNetCore:Os.obj
 0001:00009690       _OsSemaphoreClear@4        0040a690 f   libohNetCore:Os.obj
 0001:000096e0       _OsSemaphoreSignal@4       0040a6e0 f   libohNetCore:Os.obj
 0001:00009730       _OsMutexCreate@4           0040a730 f   libohNetCore:Os.obj
 0001:00009790       _OsMutexDestroy@4          0040a790 f   libohNetCore:Os.obj
 0001:000097e0       _OsMutexLock@4             0040a7e0 f   libohNetCore:Os.obj
 0001:00009850       _OsMutexUnlock@4           0040a850 f   libohNetCore:Os.obj
 0001:000098b0       _threadEntrypoint@4        0040a8b0 f   libohNetCore:Os.obj
 0001:000099b0       _OsThreadCreate@20         0040a9b0 f   libohNetCore:Os.obj
 0001:00009a90       _OsThreadTls@0             0040aa90 f   libohNetCore:Os.obj
 0001:00009ac0       _OsThreadDestroy@4         0040aac0 f   libohNetCore:Os.obj
 0001:00009ae0       _OsThreadSupportsPriorities@0 0040aae0 f   libohNetCore:Os.obj
 0001:00009af0       _OsNetworkCreate@4         0040aaf0 f   libohNetCore:Os.obj
 0001:00009bf0       _OsNetworkBind@12          0040abf0 f   libohNetCore:Os.obj
 0001:00009cf0       _OsNetworkPort@8           0040acf0 f   libohNetCore:Os.obj
 0001:00009dc0       _OsNetworkConnect@16       0040adc0 f   libohNetCore:Os.obj
 0001:0000a050       _OsNetworkSend@12          0040b050 f   libohNetCore:Os.obj
 0001:0000a0f0       _OsNetworkSendTo@20        0040b0f0 f   libohNetCore:Os.obj
 0001:0000a1e0       _OsNetworkReceive@12       0040b1e0 f   libohNetCore:Os.obj
 0001:0000a370       _OsNetworkReceiveFrom@20   0040b370 f   libohNetCore:Os.obj
 0001:0000a570       _OsNetworkInterrupt@8      0040b570 f   libohNetCore:Os.obj
 0001:0000a600       _OsNetworkClose@4          0040b600 f   libohNetCore:Os.obj
 0001:0000a670       _OsNetworkListen@8         0040b670 f   libohNetCore:Os.obj
 0001:0000a6d0       _OsNetworkAccept@4         0040b6d0 f   libohNetCore:Os.obj
 0001:0000a870       _OsNetworkGetHostByName@8  0040b870 f   libohNetCore:Os.obj
 0001:0000a8e0       _OsNetworkSocketSetSendBufBytes@8 0040b8e0 f   libohNetCore:Os.obj
 0001:0000a940       _OsNetworkSocketSetRecvBufBytes@8 0040b940 f   libohNetCore:Os.obj
 0001:0000a9a0       _OsNetworkSocketSetReceiveTimeout@8 0040b9a0 f   libohNetCore:Os.obj
 0001:0000aa50       _OsNetworkTcpSetNoDelay@4  0040ba50 f   libohNetCore:Os.obj
 0001:0000aae0       _OsNetworkSocketSetReuseAddress@4 0040bae0 f   libohNetCore:Os.obj
 0001:0000ab80       _OsNetworkSocketSetMulticastTtl@8 0040bb80 f   libohNetCore:Os.obj
 0001:0000abe0       _OsNetworkSocketMulticastAddMembership@12 0040bbe0 f   libohNetCore:Os.obj
 0001:0000acc0       _OsNetworkSocketMulticastDropMembership@12 0040bcc0 f   libohNetCore:Os.obj
 0001:0000ad60       _OsNetworkListAdapters@8   0040bd60 f   libohNetCore:Os.obj
 0001:0000b180       _OsNetworkFreeInterfaces@4 0040c180 f   libohNetCore:Os.obj
 0001:0000b1d0       _interfaceChangeThread@4   0040c1d0 f   libohNetCore:Os.obj
 0001:0000b330       _OsNetworkSetInterfaceChangedObserver@8 0040c330 f   libohNetCore:Os.obj
 0001:0000b450       _OsNetworkSetTestInterfaceIndex@4 0040c450 f   libohNetCore:Os.obj
 0001:0000b490       ?hexChar@@YGDE@Z           0040c490 f   libohNetCore:Printer.obj
 0001:0000b4d0       ?RegisterOutput@Log@OpenHome@@SGXAAVFunctorMsg@2@@Z 0040c4d0 f   libohNetCore:Printer.obj
 0001:0000b500       ?Print@Log@OpenHome@@SGHABVBrx@2@@Z 0040c500 f   libohNetCore:Printer.obj
 0001:0000b520       ?PrintHex@Log@OpenHome@@SGHABVBrx@2@@Z 0040c520 f   libohNetCore:Printer.obj
 0001:0000b540       ?Print@Log@OpenHome@@SAHPBDZZ 0040c540 f   libohNetCore:Printer.obj
 0001:0000b590       ?Print@Log@OpenHome@@SGHPBDPAD@Z 0040c590 f   libohNetCore:Printer.obj
 0001:0000b5b0       ?PrintHex@Log@OpenHome@@SGHAAVFunctorMsg@2@ABVBrx@2@@Z 0040c5b0 f   libohNetCore:Printer.obj
 0001:0000b910       ?Print@Log@OpenHome@@SGHAAVFunctorMsg@2@ABVBrx@2@@Z 0040c910 f   libohNetCore:Printer.obj
 0001:0000baa0       ?Print@Log@OpenHome@@SGHAAVFunctorMsg@2@PBDPAD@Z 0040caa0 f   libohNetCore:Printer.obj
 0001:0000bbf0       ?DoPrint@Log@OpenHome@@CGHAAVFunctorMsg@2@PBE@Z 0040cbf0 f   libohNetCore:Printer.obj
 0001:0000bc30       ??ABrx@OpenHome@@QBEABEI@Z 0040cc30 f i libohNetCore:Printer.obj
 0001:0000bc60       ??ABwx@OpenHome@@QAEAAEI@Z 0040cc60 f i libohNetCore:Printer.obj
 0001:0000bc90       ??1?$Bws@$0EAB@@OpenHome@@UAE@XZ 0040cc90 f i libohNetCore:Printer.obj
 0001:0000bcc0       ??1Bwn@OpenHome@@UAE@XZ    0040ccc0 f i libohNetCore:Printer.obj
 0001:0000bcf0       ??0?$Bws@$0EAB@@OpenHome@@QAE@I@Z 0040ccf0 f i libohNetCore:Printer.obj
 0001:0000bd30       ?Ptr@?$Bws@$0EAB@@OpenHome@@UBEPBEXZ 0040cd30 f i libohNetCore:Printer.obj
 0001:0000bd50       ??_E?$Bws@$0EAB@@OpenHome@@UAEPAXI@Z 0040cd50 f i libohNetCore:Printer.obj
 0001:0000bd50       ??_G?$Bws@$0EAB@@OpenHome@@UAEPAXI@Z 0040cd50 f i libohNetCore:Printer.obj
 0001:0000bd90       ?Now@Time@OpenHome@@SGIXZ  0040cd90 f   libohNetCore:Timer.obj
 0001:0000bdb0       ?IsBeforeOrAt@Time@OpenHome@@SG_NII@Z 0040cdb0 f   libohNetCore:Timer.obj
 0001:0000bde0       ?IsAfter@Time@OpenHome@@SG_NII@Z 0040cde0 f   libohNetCore:Timer.obj
 0001:0000be10       ?IsInPastOrNow@Time@OpenHome@@SG_NI@Z 0040ce10 f   libohNetCore:Timer.obj
 0001:0000be30       ?IsInFuture@Time@OpenHome@@SG_NI@Z 0040ce30 f   libohNetCore:Timer.obj
 0001:0000be50       ?TimeToWaitFor@Time@OpenHome@@SGHI@Z 0040ce50 f   libohNetCore:Timer.obj
 0001:0000be70       ??0Timer@OpenHome@@QAE@VFunctor@1@@Z 0040ce70 f   libohNetCore:Timer.obj
 0001:0000bec0       ?FireIn@Timer@OpenHome@@QAEXI@Z 0040cec0 f   libohNetCore:Timer.obj
 0001:0000bf30       ?FireAt@Timer@OpenHome@@QAEXI@Z 0040cf30 f   libohNetCore:Timer.obj
 0001:0000bfc0       ?Cancel@Timer@OpenHome@@QAEXXZ 0040cfc0 f   libohNetCore:Timer.obj
 0001:0000c010       ?DoCancel@Timer@OpenHome@@AAEXXZ 0040d010 f   libohNetCore:Timer.obj
 0001:0000c080       ??1Timer@OpenHome@@QAE@XZ  0040d080 f   libohNetCore:Timer.obj
 0001:0000c100       ??0TimerManager@OpenHome@@QAE@XZ 0040d100 f   libohNetCore:Timer.obj
 0001:0000c2f0       ??1TimerManager@OpenHome@@UAE@XZ 0040d2f0 f   libohNetCore:Timer.obj
 0001:0000c430       ?Stop@TimerManager@OpenHome@@QAEXXZ 0040d430 f   libohNetCore:Timer.obj
 0001:0000c510       ?CallbackLock@TimerManager@OpenHome@@QAEXXZ 0040d510 f   libohNetCore:Timer.obj
 0001:0000c540       ?CallbackUnlock@TimerManager@OpenHome@@QAEXXZ 0040d540 f   libohNetCore:Timer.obj
 0001:0000c570       ?HeadChanged@TimerManager@OpenHome@@EAEXAAVQueueSortedEntry@2@@Z 0040d570 f   libohNetCore:Timer.obj
 0001:0000c690       ?Fire@TimerManager@OpenHome@@AAEXXZ 0040d690 f   libohNetCore:Timer.obj
 0001:0000c790       ?Thread@TimerManager@OpenHome@@ABEPAV02@XZ 0040d790 f   libohNetCore:Timer.obj
 0001:0000c7b0       ?Compare@TimerManager@OpenHome@@EAEHAAVQueueSortedEntry@2@0@Z 0040d7b0 f   libohNetCore:Timer.obj
 0001:0000c800       ?Run@TimerManager@OpenHome@@AAEXXZ 0040d800 f   libohNetCore:Timer.obj
 0001:0000c910       ??0QueueSortedEntryTimer@OpenHome@@QAE@XZ 0040d910 f i libohNetCore:Timer.obj
 0001:0000c940       ??_GTimerManager@OpenHome@@UAEPAXI@Z 0040d940 f i libohNetCore:Timer.obj
 0001:0000c940       ??_ETimerManager@OpenHome@@UAEPAXI@Z 0040d940 f i libohNetCore:Timer.obj
 0001:0000c980       ??0?$QueueSorted@VTimer@OpenHome@@@OpenHome@@QAE@XZ 0040d980 f i libohNetCore:Timer.obj
 0001:0000c9b0       ??1?$QueueSorted@VTimer@OpenHome@@@OpenHome@@UAE@XZ 0040d9b0 f i libohNetCore:Timer.obj
 0001:0000c9e0       ??_G?$QueueSorted@VTimer@OpenHome@@@OpenHome@@UAEPAXI@Z 0040d9e0 f i libohNetCore:Timer.obj
 0001:0000c9e0       ??_E?$QueueSorted@VTimer@OpenHome@@@OpenHome@@UAEPAXI@Z 0040d9e0 f i libohNetCore:Timer.obj
 0001:0000ca20       ?Add@?$QueueSorted@VTimer@OpenHome@@@OpenHome@@QAEXAAVTimer@2@@Z 0040da20 f i libohNetCore:Timer.obj
 0001:0000ca50       ?Remove@?$QueueSorted@VTimer@OpenHome@@@OpenHome@@QAEXAAVTimer@2@@Z 0040da50 f i libohNetCore:Timer.obj
 0001:0000ca80       ?RemoveHead@?$QueueSorted@VTimer@OpenHome@@@OpenHome@@QAEAAVTimer@2@XZ 0040da80 f i libohNetCore:Timer.obj
 0001:0000cab0       ?Entry@?$QueueSorted@VTimer@OpenHome@@@OpenHome@@IAEAAVTimer@2@AAVQueueSortedEntry@2@@Z 0040dab0 f i libohNetCore:Timer.obj
 0001:0000cad0       ??$MakeFunctor@VTimerManager@OpenHome@@XV12@@OpenHome@@YG?AV?$MemberTranslator@VTimerManager@OpenHome@@P812@AEXXZ@0@AAVTimerManager@0@ABQ820@AEXXZ@Z 0040dad0 f i libohNetCore:Timer.obj
 0001:0000cb00       ??0?$MemberTranslator@VTimerManager@OpenHome@@P812@AEXXZ@OpenHome@@QAE@AAVTimerManager@1@ABQ821@AEXXZ@Z 0040db00 f i libohNetCore:Timer.obj
 0001:0000cb40       ?Thunk@?$MemberTranslator@VTimerManager@OpenHome@@P812@AEXXZ@OpenHome@@SGXABVFunctor@2@@Z 0040db40 f i libohNetCore:Timer.obj
 0001:0000cb90       ?Empty@Brx@OpenHome@@SGABVBrn@2@XZ 0040db90 f   libohNetCore:Buffer.obj
 0001:0000cba0       ?Equals@Brx@OpenHome@@QBE_NABV12@@Z 0040dba0 f   libohNetCore:Buffer.obj
 0001:0000cc20       ?At@Brx@OpenHome@@QBEABEI@Z 0040dc20 f   libohNetCore:Buffer.obj
 0001:0000cc80       ?Split@Brx@OpenHome@@QBE?AVBrn@2@I@Z 0040dc80 f   libohNetCore:Buffer.obj
 0001:0000cd10       ?Split@Brx@OpenHome@@QBE?AVBrn@2@II@Z 0040dd10 f   libohNetCore:Buffer.obj
 0001:0000cd90       ?BeginsWith@Brx@OpenHome@@QBE_NABV12@@Z 0040dd90 f   libohNetCore:Buffer.obj
 0001:0000ce10       ??0Brn@OpenHome@@QAE@PBD@Z 0040de10 f   libohNetCore:Buffer.obj
 0001:0000ce60       ?Set@Brn@OpenHome@@QAEXPBD@Z 0040de60 f   libohNetCore:Buffer.obj
 0001:0000cea0       ?Ptr@Brn@OpenHome@@UBEPBEXZ 0040dea0 f   libohNetCore:Buffer.obj
 0001:0000cee0       ??1Brv@OpenHome@@UAE@XZ    0040dee0 f   libohNetCore:Buffer.obj
 0001:0000cf20       ?Ptr@Brv@OpenHome@@UBEPBEXZ 0040df20 f   libohNetCore:Buffer.obj
 0001:0000cf40       ??0Brh@OpenHome@@QAE@ABVBrx@1@@Z 0040df40 f   libohNetCore:Buffer.obj
 0001:0000cfc0       ??0Brh@OpenHome@@QAE@PBD@Z 0040dfc0 f   libohNetCore:Buffer.obj
 0001:0000d040       ?Set@Brh@OpenHome@@QAEXPBEI@Z 0040e040 f   libohNetCore:Buffer.obj
 0001:0000d0a0       ?Set@Brh@OpenHome@@QAEXPBD@Z 0040e0a0 f   libohNetCore:Buffer.obj
 0001:0000d0e0       ?TransferTo@Brh@OpenHome@@QAEXAAV12@@Z 0040e0e0 f   libohNetCore:Buffer.obj
 0001:0000d140       ?Extract@Brh@OpenHome@@QAEPADXZ 0040e140 f   libohNetCore:Buffer.obj
 0001:0000d180       ??0Brhz@OpenHome@@QAE@ABVBrx@1@@Z 0040e180 f   libohNetCore:Buffer.obj
 0001:0000d200       ??0Brhz@OpenHome@@QAE@PBD@Z 0040e200 f   libohNetCore:Buffer.obj
 0001:0000d280       ?Set@Brhz@OpenHome@@QAEXPBEI@Z 0040e280 f   libohNetCore:Buffer.obj
 0001:0000d340       ?Set@Brhz@OpenHome@@QAEXPBD@Z 0040e340 f   libohNetCore:Buffer.obj
 0001:0000d380       ?Shrink@Brhz@OpenHome@@QAEXI@Z 0040e380 f   libohNetCore:Buffer.obj
 0001:0000d420       ?TransferTo@Brhz@OpenHome@@QAEXAAVBrh@2@@Z 0040e420 f   libohNetCore:Buffer.obj
 0001:0000d480       ?TransferTo@Brhz@OpenHome@@QAEXAAV12@@Z 0040e480 f   libohNetCore:Buffer.obj
 0001:0000d4e0       ?Transfer@Brhz@OpenHome@@QAEPADXZ 0040e4e0 f   libohNetCore:Buffer.obj
 0001:0000d520       ??0Bwx@OpenHome@@IAE@II@Z  0040e520 f   libohNetCore:Buffer.obj
 0001:0000d5c0       ?Replace@Bwx@OpenHome@@QAEXABVBrx@2@@Z 0040e5c0 f   libohNetCore:Buffer.obj
 0001:0000d650       ?ReplaceThrow@Bwx@OpenHome@@QAEXABVBrx@2@@Z 0040e650 f   libohNetCore:Buffer.obj
 0001:0000d770       ?Replace@Bwx@OpenHome@@QAEXPBEI@Z 0040e770 f   libohNetCore:Buffer.obj
 0001:0000d7e0       ?Replace@Bwx@OpenHome@@QAEXPBD@Z 0040e7e0 f   libohNetCore:Buffer.obj
 0001:0000d870       ?Append@Bwx@OpenHome@@QAEXPBD@Z 0040e870 f   libohNetCore:Buffer.obj
 0001:0000d8b0       ?Append@Bwx@OpenHome@@QAEXABVBrx@2@@Z 0040e8b0 f   libohNetCore:Buffer.obj
 0001:0000d900       ?Append@Bwx@OpenHome@@QAEXPBEI@Z 0040e900 f   libohNetCore:Buffer.obj
 0001:0000d990       ?AppendPrintf@Bwx@OpenHome@@QAAXPBDZZ 0040e990 f   libohNetCore:Buffer.obj
 0001:0000dad0       ?PtrZ@Bwx@OpenHome@@QBEPBDXZ 0040ead0 f   libohNetCore:Buffer.obj
 0001:0000db50       ?Fill@Bwx@OpenHome@@QAEXE@Z 0040eb50 f   libohNetCore:Buffer.obj
 0001:0000dba0       ?SetBytes@Bwx@OpenHome@@QAEXI@Z 0040eba0 f   libohNetCore:Buffer.obj
 0001:0000dbf0       ?At@Bwx@OpenHome@@QAEAAEI@Z 0040ebf0 f   libohNetCore:Buffer.obj
 0001:0000dc50       ??0Bwn@OpenHome@@QAE@XZ    0040ec50 f   libohNetCore:Buffer.obj
 0001:0000dc90       ??0Bwn@OpenHome@@QAE@ABVBwx@1@@Z 0040ec90 f   libohNetCore:Buffer.obj
 0001:0000dd30       ??0Bwn@OpenHome@@QAE@ABV01@@Z 0040ed30 f   libohNetCore:Buffer.obj
 0001:0000ddd0       ??0Bwn@OpenHome@@QAE@PBEI@Z 0040edd0 f   libohNetCore:Buffer.obj
 0001:0000de20       ??0Bwn@OpenHome@@QAE@PBEII@Z 0040ee20 f   libohNetCore:Buffer.obj
 0001:0000de70       ??0Bwn@OpenHome@@QAE@PBDI@Z 0040ee70 f   libohNetCore:Buffer.obj
 0001:0000dec0       ??0Bwn@OpenHome@@QAE@PBDII@Z 0040eec0 f   libohNetCore:Buffer.obj
 0001:0000df10       ?Set@Bwn@OpenHome@@QAEXABVBwx@2@@Z 0040ef10 f   libohNetCore:Buffer.obj
 0001:0000df70       ?Set@Bwn@OpenHome@@QAEXPBEI@Z 0040ef70 f   libohNetCore:Buffer.obj
 0001:0000dfa0       ?Set@Bwn@OpenHome@@QAEXPBEII@Z 0040efa0 f   libohNetCore:Buffer.obj
 0001:0000dff0       ?Ptr@Bwn@OpenHome@@UBEPBEXZ 0040eff0 f   libohNetCore:Buffer.obj
 0001:0000e010       ??0Bwh@OpenHome@@QAE@XZ    0040f010 f   libohNetCore:Buffer.obj
 0001:0000e050       ??0Bwh@OpenHome@@QAE@I@Z   0040f050 f   libohNetCore:Buffer.obj
 0001:0000e0a0       ??0Bwh@OpenHome@@QAE@II@Z  0040f0a0 f   libohNetCore:Buffer.obj
 0001:0000e0f0       ??1Bwh@OpenHome@@UAE@XZ    0040f0f0 f   libohNetCore:Buffer.obj
 0001:0000e130       ?Ptr@Bwh@OpenHome@@UBEPBEXZ 0040f130 f   libohNetCore:Buffer.obj
 0001:0000e170       ??0Bwh@OpenHome@@QAE@PBD@Z 0040f170 f   libohNetCore:Buffer.obj
 0001:0000e210       ??0Bwh@OpenHome@@QAE@PBEI@Z 0040f210 f   libohNetCore:Buffer.obj
 0001:0000e2b0       ??0Bwh@OpenHome@@QAE@ABVBrx@1@@Z 0040f2b0 f   libohNetCore:Buffer.obj
 0001:0000e350       ??0Bwh@OpenHome@@QAE@ABV01@@Z 0040f350 f   libohNetCore:Buffer.obj
 0001:0000e3f0       ?Grow@Bwh@OpenHome@@QAEXI@Z 0040f3f0 f   libohNetCore:Buffer.obj
 0001:0000e4a0       ?TransferTo@Bwh@OpenHome@@QAEXAAVBrh@2@@Z 0040f4a0 f   libohNetCore:Buffer.obj
 0001:0000e500       ?TransferTo@Bwh@OpenHome@@QAEXAAVBrhz@2@@Z 0040f500 f   libohNetCore:Buffer.obj
 0001:0000e560       ?TransferTo@Bwh@OpenHome@@QAEXAAV12@@Z 0040f560 f   libohNetCore:Buffer.obj
 0001:0000e5c0       ??RBufferCmp@OpenHome@@QBE_NABVBrx@1@0@Z 0040f5c0 f   libohNetCore:Buffer.obj
 0001:0000e6c0       ??0Brn@OpenHome@@QAE@PBEI@Z 0040f6c0 f i libohNetCore:Buffer.obj
 0001:0000e700       ??_GBrn@OpenHome@@UAEPAXI@Z 0040f700 f i libohNetCore:Buffer.obj
 0001:0000e700       ??_EBrn@OpenHome@@UAEPAXI@Z 0040f700 f i libohNetCore:Buffer.obj
 0001:0000e740       ??1Brn@OpenHome@@UAE@XZ    0040f740 f i libohNetCore:Buffer.obj
 0001:0000e770       ??_GBrh@OpenHome@@UAEPAXI@Z 0040f770 f i libohNetCore:Buffer.obj
 0001:0000e770       ??_EBrh@OpenHome@@UAEPAXI@Z 0040f770 f i libohNetCore:Buffer.obj
 0001:0000e7b0       ??1Brh@OpenHome@@UAE@XZ    0040f7b0 f i libohNetCore:Buffer.obj
 0001:0000e7e0       ?Set@Brh@OpenHome@@QAEXABVBrx@2@@Z 0040f7e0 f i libohNetCore:Buffer.obj
 0001:0000e830       ??_GBwx@OpenHome@@UAEPAXI@Z 0040f830 f i libohNetCore:Buffer.obj
 0001:0000e830       ??_EBwx@OpenHome@@UAEPAXI@Z 0040f830 f i libohNetCore:Buffer.obj
 0001:0000e870       ??0BufferOverflow@OpenHome@@QAE@PBDI@Z 0040f870 f i libohNetCore:Buffer.obj
 0001:0000e8b0       ??1BufferOverflow@OpenHome@@QAE@XZ 0040f8b0 f i libohNetCore:Buffer.obj
 0001:0000e8e0       ??0BufferFull@OpenHome@@QAE@PBDI@Z 0040f8e0 f i libohNetCore:Buffer.obj
 0001:0000e920       ??1BufferFull@OpenHome@@QAE@XZ 0040f920 f i libohNetCore:Buffer.obj
 0001:0000e950       ??_GBwn@OpenHome@@UAEPAXI@Z 0040f950 f i libohNetCore:Buffer.obj
 0001:0000e950       ??_EBwn@OpenHome@@UAEPAXI@Z 0040f950 f i libohNetCore:Buffer.obj
 0001:0000e990       ??_GBwh@OpenHome@@UAEPAXI@Z 0040f990 f i libohNetCore:Buffer.obj
 0001:0000e990       ??_EBwh@OpenHome@@UAEPAXI@Z 0040f990 f i libohNetCore:Buffer.obj
 0001:0000e9d0       ??0Stack@Net@OpenHome@@QAE@XZ 0040f9d0 f   libohNetCore:Stack.obj
 0001:0000ead0       ??0Stack@Net@OpenHome@@QAE@PAVInitialisationParams@12@@Z 0040fad0 f   libohNetCore:Stack.obj
 0001:0000ecf0       ?Destroy@Stack@Net@OpenHome@@SGXXZ 0040fcf0 f   libohNetCore:Stack.obj
 0001:0000ed50       ??1Stack@Net@OpenHome@@AAE@XZ 0040fd50 f   libohNetCore:Stack.obj
 0001:0000ef60       ?IsInitialised@Stack@Net@OpenHome@@SG_NXZ 0040ff60 f   libohNetCore:Stack.obj
 0001:0000ef80       ?GetVersion@Stack@Net@OpenHome@@SGXAAI0@Z 0040ff80 f   libohNetCore:Stack.obj
 0001:0000efa0       ?TimerManager@Stack@Net@OpenHome@@SGAAV03@XZ 0040ffa0 f   libohNetCore:Stack.obj
 0001:0000efb0       ?Mutex@Stack@Net@OpenHome@@SGAAV03@XZ 0040ffb0 f   libohNetCore:Stack.obj
 0001:0000efc0       ?NetworkAdapterList@Stack@Net@OpenHome@@SGAAV03@XZ 0040ffc0 f   libohNetCore:Stack.obj
 0001:0000efd0       ?MulticastListenerClaim@Stack@Net@OpenHome@@SGAAVSsdpListenerMulticast@23@I@Z 0040ffd0 f   libohNetCore:Stack.obj
 0001:0000f180       ?MulticastListenerRelease@Stack@Net@OpenHome@@SGXI@Z 00410180 f   libohNetCore:Stack.obj
 0001:0000f320       ?SequenceNumber@Stack@Net@OpenHome@@SGIXZ 00410320 f   libohNetCore:Stack.obj
 0001:0000f380       ?InitParams@Stack@Net@OpenHome@@SGAAVInitialisationParams@23@XZ 00410380 f   libohNetCore:Stack.obj
 0001:0000f390       ?AddObject@Stack@Net@OpenHome@@SGXPAXPBD@Z 00410390 f   libohNetCore:Stack.obj
 0001:0000f3c0       ?RemoveObject@Stack@Net@OpenHome@@SGXPAXPBD@Z 004103c0 f   libohNetCore:Stack.obj
 0001:0000f3f0       ?ListObjects@Stack@Net@OpenHome@@SGXXZ 004103f0 f   libohNetCore:Stack.obj
 0001:0000f410       ?DoAddObject@Stack@Net@OpenHome@@AAEXPAXPBD@Z 00410410 f   libohNetCore:Stack.obj
 0001:0000f670       ?DoRemoveObject@Stack@Net@OpenHome@@AAEXPAXPBD@Z 00410670 f   libohNetCore:Stack.obj
 0001:0000f910       ?DoListObjects@Stack@Net@OpenHome@@AAEXXZ 00410910 f   libohNetCore:Stack.obj
 0001:0000fb20       ?SetCpiStack@Stack@Net@OpenHome@@CGXPAVIStack@23@@Z 00410b20 f   libohNetCore:Stack.obj
 0001:0000fb40       ?SetDviStack@Stack@Net@OpenHome@@CGXPAVIStack@23@@Z 00410b40 f   libohNetCore:Stack.obj
 0001:0000fb60       ?CpiStack@Stack@Net@OpenHome@@CGPAVIStack@23@XZ 00410b60 f   libohNetCore:Stack.obj
 0001:0000fb70       ?DviStack@Stack@Net@OpenHome@@CGPAVIStack@23@XZ 00410b70 f   libohNetCore:Stack.obj
 0001:0000fb80       ??0MListener@Stack@Net@OpenHome@@QAE@I@Z 00410b80 f   libohNetCore:Stack.obj
 0001:0000fbc0       ?Listener@MListener@Stack@Net@OpenHome@@QAEAAVSsdpListenerMulticast@34@XZ 00410bc0 f   libohNetCore:Stack.obj
 0001:0000fbe0       ?Interface@MListener@Stack@Net@OpenHome@@QBEIXZ 00410be0 f   libohNetCore:Stack.obj
 0001:0000fc10       ?AddRef@MListener@Stack@Net@OpenHome@@QAEXXZ 00410c10 f   libohNetCore:Stack.obj
 0001:0000fc40       ?RemoveRef@MListener@Stack@Net@OpenHome@@QAE_NXZ 00410c40 f   libohNetCore:Stack.obj
 0001:0000fc80       ??0ObjectType@Stack@Net@OpenHome@@QAE@PBD@Z 00410c80 f   libohNetCore:Stack.obj
 0001:0000fcf0       ??1ObjectType@Stack@Net@OpenHome@@QAE@XZ 00410cf0 f   libohNetCore:Stack.obj
 0001:0000fd80       ??1?$map@VBrn@OpenHome@@PAVObjectType@Stack@Net@2@VBufferCmp@2@V?$allocator@U?$pair@$$CBVBrn@OpenHome@@PAVObjectType@Stack@Net@2@@std@@@std@@@std@@QAE@XZ 00410d80 f i libohNetCore:Stack.obj
 0001:0000fdb0       ??BFunctor@OpenHome@@QBE_NXZ 00410db0 f i libohNetCore:Stack.obj
 0001:0000fdf0       ??_GStack@Net@OpenHome@@AAEPAXI@Z 00410df0 f i libohNetCore:Stack.obj
 0001:0000fe30       ??_GNetworkAdapterList@OpenHome@@QAEPAXI@Z 00410e30 f i libohNetCore:Stack.obj
 0001:0000fe70       ??_GMListener@Stack@Net@OpenHome@@QAEPAXI@Z 00410e70 f i libohNetCore:Stack.obj
 0001:0000feb0       ??1?$_Vector_iterator@V?$_Vector_val@PAVMListener@Stack@Net@OpenHome@@V?$allocator@PAVMListener@Stack@Net@OpenHome@@@std@@@std@@@std@@QAE@XZ 00410eb0 f i libohNetCore:Stack.obj
 0001:0000fee0       ??0?$_Vector_const_iterator@V?$_Vector_val@PAVMListener@Stack@Net@OpenHome@@V?$allocator@PAVMListener@Stack@Net@OpenHome@@@std@@@std@@@std@@QAE@ABV01@@Z 00410ee0 f i libohNetCore:Stack.obj
 0001:0000ff20       ??1?$_Vector_const_iterator@V?$_Vector_val@PAVMListener@Stack@Net@OpenHome@@V?$allocator@PAVMListener@Stack@Net@OpenHome@@@std@@@std@@@std@@QAE@XZ 00410f20 f i libohNetCore:Stack.obj
 0001:0000ff50       ??1MListener@Stack@Net@OpenHome@@QAE@XZ 00410f50 f i libohNetCore:Stack.obj
 0001:0000ff80       ??0?$_Iterator012@Urandom_access_iterator_tag@std@@PAVMListener@Stack@Net@OpenHome@@HPBQAV3456@ABQAV3456@U_Iterator_base12@2@@std@@QAE@ABU01@@Z 00410f80 f i libohNetCore:Stack.obj
 0001:0000ffb0       ??0_Iterator_base12@std@@QAE@ABU01@@Z 00410fb0 f i libohNetCore:Stack.obj
 0001:0000fff0       ??4_Iterator_base12@std@@QAEAAU01@ABU01@@Z 00410ff0 f i libohNetCore:Stack.obj
 0001:00010030       ?_Adopt@_Iterator_base12@std@@QAEXPBU_Container_base12@2@@Z 00411030 f i libohNetCore:Stack.obj
 0001:00010120       ?_Orphan_me@_Iterator_base12@std@@QAEXXZ 00411120 f i libohNetCore:Stack.obj
 0001:000101b0       ??1?$_Iterator012@Urandom_access_iterator_tag@std@@PAVMListener@Stack@Net@OpenHome@@HPBQAV3456@ABQAV3456@U_Iterator_base12@2@@std@@QAE@XZ 004111b0 f i libohNetCore:Stack.obj
 0001:000101e0       ??1_Iterator_base12@std@@QAE@XZ 004111e0 f i libohNetCore:Stack.obj
 0001:00010290       ?Set@Brn@OpenHome@@QAEXABVBrx@2@@Z 00411290 f i libohNetCore:Stack.obj
 0001:000102e0       ?Name@ObjectType@Stack@Net@OpenHome@@QAEABVBrx@4@XZ 004112e0 f i libohNetCore:Stack.obj
 0001:00010300       ?Map@ObjectType@Stack@Net@OpenHome@@QAEAAV?$map@PAXPAXU?$less@PAX@std@@V?$allocator@U?$pair@QAXPAX@std@@@2@@std@@XZ 00411300 f i libohNetCore:Stack.obj
 0001:00010320       ??1?$_Tree_iterator@V?$_Tree_val@V?$_Tmap_traits@VBrn@OpenHome@@PAVObjectType@Stack@Net@2@VBufferCmp@2@V?$allocator@U?$pair@$$CBVBrn@OpenHome@@PAVObjectType@Stack@Net@2@@std@@@std@@$0A@@std@@@std@@@std@@QAE@XZ 00411320 f i libohNetCore:Stack.obj
 0001:00010350       ??1?$pair@VBrn@OpenHome@@PAVObjectType@Stack@Net@2@@std@@QAE@XZ 00411350 f i libohNetCore:Stack.obj
 0001:00010380       ??1?$pair@V?$_Tree_iterator@V?$_Tree_val@V?$_Tmap_traits@VBrn@OpenHome@@PAVObjectType@Stack@Net@2@VBufferCmp@2@V?$allocator@U?$pair@$$CBVBrn@OpenHome@@PAVObjectType@Stack@Net@2@@std@@@std@@$0A@@std@@@std@@@std@@_N@std@@QAE@XZ 00411380 f i libohNetCore:Stack.obj
 0001:000103b0       ??1?$pair@V?$_Tree_iterator@V?$_Tree_val@V?$_Tmap_traits@PAXPAXU?$less@PAX@std@@V?$allocator@U?$pair@QAXPAX@std@@@2@$0A@@std@@@std@@@std@@_N@std@@QAE@XZ 004113b0 f i libohNetCore:Stack.obj
 0001:000103e0       ??1?$_Tree_const_iterator@V?$_Tree_val@V?$_Tmap_traits@VBrn@OpenHome@@PAVObjectType@Stack@Net@2@VBufferCmp@2@V?$allocator@U?$pair@$$CBVBrn@OpenHome@@PAVObjectType@Stack@Net@2@@std@@@std@@$0A@@std@@@std@@@std@@QAE@XZ 004113e0 f i libohNetCore:Stack.obj
 0001:00010410       ??1?$_Pair_base@VBrn@OpenHome@@PAVObjectType@Stack@Net@2@@std@@QAE@XZ 00411410 f i libohNetCore:Stack.obj
 0001:00010440       ??1?$_Pair_base@V?$_Tree_iterator@V?$_Tree_val@V?$_Tmap_traits@VBrn@OpenHome@@PAVObjectType@Stack@Net@2@VBufferCmp@2@V?$allocator@U?$pair@$$CBVBrn@OpenHome@@PAVObjectType@Stack@Net@2@@std@@@std@@$0A@@std@@@std@@@std@@_N@std@@QAE@XZ 00411440 f i libohNetCore:Stack.obj
 0001:00010470       ??1?$_Pair_base@V?$_Tree_iterator@V?$_Tree_val@V?$_Tmap_traits@PAXPAXU?$less@PAX@std@@V?$allocator@U?$pair@QAXPAX@std@@@2@$0A@@std@@@std@@@std@@_N@std@@QAE@XZ 00411470 f i libohNetCore:Stack.obj
 0001:000104a0       ??1?$_Tree_unchecked_const_iterator@V?$_Tree_val@V?$_Tmap_traits@VBrn@OpenHome@@PAVObjectType@Stack@Net@2@VBufferCmp@2@V?$allocator@U?$pair@$$CBVBrn@OpenHome@@PAVObjectType@Stack@Net@2@@std@@@std@@$0A@@std@@@std@@U_Iterator_base12@2@@std@@QAE@XZ 004114a0 f i libohNetCore:Stack.obj
 0001:000104d0       ??1?$_Tree_iterator@V?$_Tree_val@V?$_Tmap_traits@PAXPAXU?$less@PAX@std@@V?$allocator@U?$pair@QAXPAX@std@@@2@$0A@@std@@@std@@@std@@QAE@XZ 004114d0 f i libohNetCore:Stack.obj
 0001:00010500       ??1?$_Iterator012@Ubidirectional_iterator_tag@std@@U?$pair@$$CBVBrn@OpenHome@@PAVObjectType@Stack@Net@2@@2@HPBU32@ABU32@U_Iterator_base12@2@@std@@QAE@XZ 00411500 f i libohNetCore:Stack.obj
 0001:00010530       ??1?$_Tree_const_iterator@V?$_Tree_val@V?$_Tmap_traits@PAXPAXU?$less@PAX@std@@V?$allocator@U?$pair@QAXPAX@std@@@2@$0A@@std@@@std@@@std@@QAE@XZ 00411530 f i libohNetCore:Stack.obj
 0001:00010560       ??1?$_Tree_unchecked_const_iterator@V?$_Tree_val@V?$_Tmap_traits@PAXPAXU?$less@PAX@std@@V?$allocator@U?$pair@QAXPAX@std@@@2@$0A@@std@@@std@@U_Iterator_base12@2@@std@@QAE@XZ 00411560 f i libohNetCore:Stack.obj
 0001:00010590       ??1?$_Iterator012@Ubidirectional_iterator_tag@std@@U?$pair@QAXPAX@2@HPBU32@ABU32@U_Iterator_base12@2@@std@@QAE@XZ 00411590 f i libohNetCore:Stack.obj
 0001:000105c0       ??0?$_Tree_const_iterator@V?$_Tree_val@V?$_Tmap_traits@PAXPAXU?$less@PAX@std@@V?$allocator@U?$pair@QAXPAX@std@@@2@$0A@@std@@@std@@@std@@QAE@ABV01@@Z 004115c0 f i libohNetCore:Stack.obj
 0001:000105f0       ??_GObjectType@Stack@Net@OpenHome@@QAEPAXI@Z 004115f0 f i libohNetCore:Stack.obj
 0001:00010630       ??0?$_Tree_const_iterator@V?$_Tree_val@V?$_Tmap_traits@VBrn@OpenHome@@PAVObjectType@Stack@Net@2@VBufferCmp@2@V?$allocator@U?$pair@$$CBVBrn@OpenHome@@PAVObjectType@Stack@Net@2@@std@@@std@@$0A@@std@@@std@@@std@@QAE@ABV01@@Z 00411630 f i libohNetCore:Stack.obj
 0001:00010660       ??0?$_Tree_unchecked_const_iterator@V?$_Tree_val@V?$_Tmap_traits@PAXPAXU?$less@PAX@std@@V?$allocator@U?$pair@QAXPAX@std@@@2@$0A@@std@@@std@@U_Iterator_base12@2@@std@@QAE@ABV01@@Z 00411660 f i libohNetCore:Stack.obj
 0001:000106a0       ??0?$_Tree_unchecked_const_iterator@V?$_Tree_val@V?$_Tmap_traits@VBrn@OpenHome@@PAVObjectType@Stack@Net@2@VBufferCmp@2@V?$allocator@U?$pair@$$CBVBrn@OpenHome@@PAVObjectType@Stack@Net@2@@std@@@std@@$0A@@std@@@std@@U_Iterator_base12@2@@std@@QAE@ABV01@@Z 004116a0 f i libohNetCore:Stack.obj
 0001:000106e0       ??0?$_Iterator012@Ubidirectional_iterator_tag@std@@U?$pair@QAXPAX@2@HPBU32@ABU32@U_Iterator_base12@2@@std@@QAE@ABU01@@Z 004116e0 f i libohNetCore:Stack.obj
 0001:00010710       ??0?$_Iterator012@Ubidirectional_iterator_tag@std@@U?$pair@$$CBVBrn@OpenHome@@PAVObjectType@Stack@Net@2@@2@HPBU32@ABU32@U_Iterator_base12@2@@std@@QAE@ABU01@@Z 00411710 f i libohNetCore:Stack.obj
 0001:00010740       ??1?$map@PAXPAXU?$less@PAX@std@@V?$allocator@U?$pair@QAXPAX@std@@@2@@std@@QAE@XZ 00411740 f i libohNetCore:Stack.obj
 0001:00010770       ??0?$map@PAXPAXU?$less@PAX@std@@V?$allocator@U?$pair@QAXPAX@std@@@2@@std@@QAE@XZ 00411770 f i libohNetCore:Stack.obj
 0001:000107b0       ??1?$_Tree@V?$_Tmap_traits@PAXPAXU?$less@PAX@std@@V?$allocator@U?$pair@QAXPAX@std@@@2@$0A@@std@@@std@@QAE@XZ 004117b0 f i libohNetCore:Stack.obj
 0001:00010820       ?begin@?$_Tree@V?$_Tmap_traits@PAXPAXU?$less@PAX@std@@V?$allocator@U?$pair@QAXPAX@std@@@2@$0A@@std@@@std@@QAE?AV?$_Tree_iterator@V?$_Tree_val@V?$_Tmap_traits@PAXPAXU?$less@PAX@std@@V?$allocator@U?$pair@QAXPAX@std@@@2@$0A@@std@@@std@@@2@XZ 00411820 f i libohNetCore:Stack.obj
 0001:00010880       ?end@?$_Tree@V?$_Tmap_traits@PAXPAXU?$less@PAX@std@@V?$allocator@U?$pair@QAXPAX@std@@@2@$0A@@std@@@std@@QAE?AV?$_Tree_iterator@V?$_Tree_val@V?$_Tmap_traits@PAXPAXU?$less@PAX@std@@V?$allocator@U?$pair@QAXPAX@std@@@2@$0A@@std@@@std@@@2@XZ 00411880 f i libohNetCore:Stack.obj
 0001:000108d0       ?size@?$_Tree@V?$_Tmap_traits@PAXPAXU?$less@PAX@std@@V?$allocator@U?$pair@QAXPAX@std@@@2@$0A@@std@@@std@@QBEIXZ 004118d0 f i libohNetCore:Stack.obj
 0001:000108f0       ?erase@?$_Tree@V?$_Tmap_traits@PAXPAXU?$less@PAX@std@@V?$allocator@U?$pair@QAXPAX@std@@@2@$0A@@std@@@std@@QAE?AV?$_Tree_iterator@V?$_Tree_val@V?$_Tmap_traits@PAXPAXU?$less@PAX@std@@V?$allocator@U?$pair@QAXPAX@std@@@2@$0A@@std@@@std@@@2@V?$_Tree_const_iterator@V?$_Tree_val@V?$_Tmap_traits@PAXPAXU?$less@PAX@std@@V?$allocator@U?$pair@QAXPAX@std@@@2@$0A@@std@@@std@@@2@@Z 004118f0 f i libohNetCore:Stack.obj
 0001:00011000       ?_Getcont@_Iterator_base12@std@@QBEPBU_Container_base12@2@XZ 00412000 f i libohNetCore:Stack.obj
 0001:00011040       ?find@?$_Tree@V?$_Tmap_traits@PAXPAXU?$less@PAX@std@@V?$allocator@U?$pair@QAXPAX@std@@@2@$0A@@std@@@std@@QAE?AV?$_Tree_iterator@V?$_Tree_val@V?$_Tmap_traits@PAXPAXU?$less@PAX@std@@V?$allocator@U?$pair@QAXPAX@std@@@2@$0A@@std@@@std@@@2@ABQAX@Z 00412040 f i libohNetCore:Stack.obj
 0001:00011220       ??0?$vector@PAVMListener@Stack@Net@OpenHome@@V?$allocator@PAVMListener@Stack@Net@OpenHome@@@std@@@std@@QAE@XZ 00412220 f i libohNetCore:Stack.obj
 0001:00011260       ??1?$vector@PAVMListener@Stack@Net@OpenHome@@V?$allocator@PAVMListener@Stack@Net@OpenHome@@@std@@@std@@QAE@XZ 00412260 f i libohNetCore:Stack.obj
 0001:000112d0       ?begin@?$vector@PAVMListener@Stack@Net@OpenHome@@V?$allocator@PAVMListener@Stack@Net@OpenHome@@@std@@@std@@QAE?AV?$_Vector_iterator@V?$_Vector_val@PAVMListener@Stack@Net@OpenHome@@V?$allocator@PAVMListener@Stack@Net@OpenHome@@@std@@@std@@@2@XZ 004122d0 f i libohNetCore:Stack.obj
 0001:00011320       ?size@?$vector@PAVMListener@Stack@Net@OpenHome@@V?$allocator@PAVMListener@Stack@Net@OpenHome@@@std@@@std@@QBEIXZ 00412320 f i libohNetCore:Stack.obj
 0001:00011350       ??A?$vector@PAVMListener@Stack@Net@OpenHome@@V?$allocator@PAVMListener@Stack@Net@OpenHome@@@std@@@std@@QAEAAPAVMListener@Stack@Net@OpenHome@@I@Z 00412350 f i libohNetCore:Stack.obj
 0001:000113f0       ?push_back@?$vector@PAVMListener@Stack@Net@OpenHome@@V?$allocator@PAVMListener@Stack@Net@OpenHome@@@std@@@std@@QAEXABQAVMListener@Stack@Net@OpenHome@@@Z 004123f0 f i libohNetCore:Stack.obj
 0001:00011500       ?erase@?$vector@PAVMListener@Stack@Net@OpenHome@@V?$allocator@PAVMListener@Stack@Net@OpenHome@@@std@@@std@@QAE?AV?$_Vector_iterator@V?$_Vector_val@PAVMListener@Stack@Net@OpenHome@@V?$allocator@PAVMListener@Stack@Net@OpenHome@@@std@@@std@@@2@V?$_Vector_const_iterator@V?$_Vector_val@PAVMListener@Stack@Net@OpenHome@@V?$allocator@PAVMListener@Stack@Net@OpenHome@@@std@@@std@@@2@@Z 00412500 f i libohNetCore:Stack.obj
 0001:00011630       ??0?$map@VBrn@OpenHome@@PAVObjectType@Stack@Net@2@VBufferCmp@2@V?$allocator@U?$pair@$$CBVBrn@OpenHome@@PAVObjectType@Stack@Net@2@@std@@@std@@@std@@QAE@XZ 00412630 f i libohNetCore:Stack.obj
 0001:00011680       ??1?$_Tree@V?$_Tmap_traits@VBrn@OpenHome@@PAVObjectType@Stack@Net@2@VBufferCmp@2@V?$allocator@U?$pair@$$CBVBrn@OpenHome@@PAVObjectType@Stack@Net@2@@std@@@std@@$0A@@std@@@std@@QAE@XZ 00412680 f i libohNetCore:Stack.obj
 0001:000116f0       ?begin@?$_Tree@V?$_Tmap_traits@VBrn@OpenHome@@PAVObjectType@Stack@Net@2@VBufferCmp@2@V?$allocator@U?$pair@$$CBVBrn@OpenHome@@PAVObjectType@Stack@Net@2@@std@@@std@@$0A@@std@@@std@@QAE?AV?$_Tree_iterator@V?$_Tree_val@V?$_Tmap_traits@VBrn@OpenHome@@PAVObjectType@Stack@Net@2@VBufferCmp@2@V?$allocator@U?$pair@$$CBVBrn@OpenHome@@PAVObjectType@Stack@Net@2@@std@@@std@@$0A@@std@@@std@@@2@XZ 004126f0 f i libohNetCore:Stack.obj
 0001:00011750       ?end@?$_Tree@V?$_Tmap_traits@VBrn@OpenHome@@PAVObjectType@Stack@Net@2@VBufferCmp@2@V?$allocator@U?$pair@$$CBVBrn@OpenHome@@PAVObjectType@Stack@Net@2@@std@@@std@@$0A@@std@@@std@@QAE?AV?$_Tree_iterator@V?$_Tree_val@V?$_Tmap_traits@VBrn@OpenHome@@PAVObjectType@Stack@Net@2@VBufferCmp@2@V?$allocator@U?$pair@$$CBVBrn@OpenHome@@PAVObjectType@Stack@Net@2@@std@@@std@@$0A@@std@@@std@@@2@XZ 00412750 f i libohNetCore:Stack.obj
 0001:000117a0       ?size@?$_Tree@V?$_Tmap_traits@VBrn@OpenHome@@PAVObjectType@Stack@Net@2@VBufferCmp@2@V?$allocator@U?$pair@$$CBVBrn@OpenHome@@PAVObjectType@Stack@Net@2@@std@@@std@@$0A@@std@@@std@@QBEIXZ 004127a0 f i libohNetCore:Stack.obj
 0001:000117c0       ?erase@?$_Tree@V?$_Tmap_traits@VBrn@OpenHome@@PAVObjectType@Stack@Net@2@VBufferCmp@2@V?$allocator@U?$pair@$$CBVBrn@OpenHome@@PAVObjectType@Stack@Net@2@@std@@@std@@$0A@@std@@@std@@QAE?AV?$_Tree_iterator@V?$_Tree_val@V?$_Tmap_traits@VBrn@OpenHome@@PAVObjectType@Stack@Net@2@VBufferCmp@2@V?$allocator@U?$pair@$$CBVBrn@OpenHome@@PAVObjectType@Stack@Net@2@@std@@@std@@$0A@@std@@@std@@@2@V?$_Tree_const_iterator@V?$_Tree_val@V?$_Tmap_traits@VBrn@OpenHome@@PAVObjectType@Stack@Net@2@VBufferCmp@2@V?$allocator@U?$pair@$$CBVBrn@OpenHome@@PAVObjectType@Stack@Net@2@@std@@@std@@$0A@@std@@@std@@@2@@Z 004127c0 f i libohNetCore:Stack.obj
 0001:00011ed0       ?find@?$_Tree@V?$_Tmap_traits@VBrn@OpenHome@@PAVObjectType@Stack@Net@2@VBufferCmp@2@V?$allocator@U?$pair@$$CBVBrn@OpenHome@@PAVObjectType@Stack@Net@2@@std@@@std@@$0A@@std@@@std@@QAE?AV?$_Tree_iterator@V?$_Tree_val@V?$_Tmap_traits@VBrn@OpenHome@@PAVObjectType@Stack@Net@2@VBufferCmp@2@V?$allocator@U?$pair@$$CBVBrn@OpenHome@@PAVObjectType@Stack@Net@2@@std@@@std@@$0A@@std@@@std@@@2@ABVBrn@OpenHome@@@Z 00412ed0 f i libohNetCore:Stack.obj
 0001:000120b0       ??H?$_Vector_iterator@V?$_Vector_val@PAVMListener@Stack@Net@OpenHome@@V?$allocator@PAVMListener@Stack@Net@OpenHome@@@std@@@std@@@std@@QBE?AV01@H@Z 004130b0 f i libohNetCore:Stack.obj
 0001:00012190       ??C?$_Tree_iterator@V?$_Tree_val@V?$_Tmap_traits@VBrn@OpenHome@@PAVObjectType@Stack@Net@2@VBufferCmp@2@V?$allocator@U?$pair@$$CBVBrn@OpenHome@@PAVObjectType@Stack@Net@2@@std@@@std@@$0A@@std@@@std@@@std@@QBEPAU?$pair@$$CBVBrn@OpenHome@@PAVObjectType@Stack@Net@2@@1@XZ 00413190 f i libohNetCore:Stack.obj
 0001:000121c0       ??E?$_Tree_iterator@V?$_Tree_val@V?$_Tmap_traits@VBrn@OpenHome@@PAVObjectType@Stack@Net@2@VBufferCmp@2@V?$allocator@U?$pair@$$CBVBrn@OpenHome@@PAVObjectType@Stack@Net@2@@std@@@std@@$0A@@std@@@std@@@std@@QAE?AV01@H@Z 004131c0 f i libohNetCore:Stack.obj
 0001:00012290       ??9?$_Tree_const_iterator@V?$_Tree_val@V?$_Tmap_traits@VBrn@OpenHome@@PAVObjectType@Stack@Net@2@VBufferCmp@2@V?$allocator@U?$pair@$$CBVBrn@OpenHome@@PAVObjectType@Stack@Net@2@@std@@@std@@$0A@@std@@@std@@@std@@QBE_NABV01@@Z 00413290 f i libohNetCore:Stack.obj
 0001:000122d0       ??C?$_Tree_iterator@V?$_Tree_val@V?$_Tmap_traits@PAXPAXU?$less@PAX@std@@V?$allocator@U?$pair@QAXPAX@std@@@2@$0A@@std@@@std@@@std@@QBEPAU?$pair@QAXPAX@1@XZ 004132d0 f i libohNetCore:Stack.obj
 0001:00012300       ??E?$_Tree_iterator@V?$_Tree_val@V?$_Tmap_traits@PAXPAXU?$less@PAX@std@@V?$allocator@U?$pair@QAXPAX@std@@@2@$0A@@std@@@std@@@std@@QAE?AV01@H@Z 00413300 f i libohNetCore:Stack.obj
 0001:000123d0       ??9?$_Tree_const_iterator@V?$_Tree_val@V?$_Tmap_traits@PAXPAXU?$less@PAX@std@@V?$allocator@U?$pair@QAXPAX@std@@@2@$0A@@std@@@std@@@std@@QBE_NABV01@@Z 004133d0 f i libohNetCore:Stack.obj
 0001:00012410       ??0?$_Tree_iterator@V?$_Tree_val@V?$_Tmap_traits@PAXPAXU?$less@PAX@std@@V?$allocator@U?$pair@QAXPAX@std@@@2@$0A@@std@@@std@@@std@@QAE@ABV01@@Z 00413410 f i libohNetCore:Stack.obj
 0001:00012440       ??0?$_Tree_iterator@V?$_Tree_val@V?$_Tmap_traits@VBrn@OpenHome@@PAVObjectType@Stack@Net@2@VBufferCmp@2@V?$allocator@U?$pair@$$CBVBrn@OpenHome@@PAVObjectType@Stack@Net@2@@std@@@std@@$0A@@std@@@std@@@std@@QAE@ABV01@@Z 00413440 f i libohNetCore:Stack.obj
 0001:00012470       ??0?$_Vector_iterator@V?$_Vector_val@PAVMListener@Stack@Net@OpenHome@@V?$allocator@PAVMListener@Stack@Net@OpenHome@@@std@@@std@@@std@@QAE@ABV01@@Z 00413470 f i libohNetCore:Stack.obj
 0001:000124a0       ??0?$_Tree@V?$_Tmap_traits@PAXPAXU?$less@PAX@std@@V?$allocator@U?$pair@QAXPAX@std@@@2@$0A@@std@@@std@@QAE@ABU?$less@PAX@1@ABV?$allocator@U?$pair@QAXPAX@std@@@1@@Z 004134a0 f i libohNetCore:Stack.obj
 0001:000124f0       ?lower_bound@?$_Tree@V?$_Tmap_traits@PAXPAXU?$less@PAX@std@@V?$allocator@U?$pair@QAXPAX@std@@@2@$0A@@std@@@std@@QAE?AV?$_Tree_iterator@V?$_Tree_val@V?$_Tmap_traits@PAXPAXU?$less@PAX@std@@V?$allocator@U?$pair@QAXPAX@std@@@2@$0A@@std@@@std@@@2@ABQAX@Z 004134f0 f i libohNetCore:Stack.obj
 0001:00012550       ?_Lmost@?$_Tree@V?$_Tmap_traits@PAXPAXU?$less@PAX@std@@V?$allocator@U?$pair@QAXPAX@std@@@2@$0A@@std@@@std@@IBEAAPAU_Node@?$_Tree_nod@V?$_Tmap_traits@PAXPAXU?$less@PAX@std@@V?$allocator@U?$pair@QAXPAX@std@@@2@$0A@@std@@@2@XZ 00413550 f i libohNetCore:Stack.obj
 0001:00012580       ?_Lrotate@?$_Tree@V?$_Tmap_traits@PAXPAXU?$less@PAX@std@@V?$allocator@U?$pair@QAXPAX@std@@@2@$0A@@std@@@std@@IAEXPAU_Node@?$_Tree_nod@V?$_Tmap_traits@PAXPAXU?$less@PAX@std@@V?$allocator@U?$pair@QAXPAX@std@@@2@$0A@@std@@@2@@Z 00413580 f i libohNetCore:Stack.obj
 0001:000126a0       ?_Rmost@?$_Tree@V?$_Tmap_traits@PAXPAXU?$less@PAX@std@@V?$allocator@U?$pair@QAXPAX@std@@@2@$0A@@std@@@std@@IBEAAPAU_Node@?$_Tree_nod@V?$_Tmap_traits@PAXPAXU?$less@PAX@std@@V?$allocator@U?$pair@QAXPAX@std@@@2@$0A@@std@@@2@XZ 004136a0 f i libohNetCore:Stack.obj
 0001:000126d0       ?_Root@?$_Tree@V?$_Tmap_traits@PAXPAXU?$less@PAX@std@@V?$allocator@U?$pair@QAXPAX@std@@@2@$0A@@std@@@std@@IBEAAPAU_Node@?$_Tree_nod@V?$_Tmap_traits@PAXPAXU?$less@PAX@std@@V?$allocator@U?$pair@QAXPAX@std@@@2@$0A@@std@@@2@XZ 004136d0 f i libohNetCore:Stack.obj
 0001:00012700       ?_Rrotate@?$_Tree@V?$_Tmap_traits@PAXPAXU?$less@PAX@std@@V?$allocator@U?$pair@QAXPAX@std@@@2@$0A@@std@@@std@@IAEXPAU_Node@?$_Tree_nod@V?$_Tmap_traits@PAXPAXU?$less@PAX@std@@V?$allocator@U?$pair@QAXPAX@std@@@2@$0A@@std@@@2@@Z 00413700 f i libohNetCore:Stack.obj
 0001:00012820       ?_Orphan_ptr@?$_Tree@V?$_Tmap_traits@PAXPAXU?$less@PAX@std@@V?$allocator@U?$pair@QAXPAX@std@@@2@$0A@@std@@@std@@IBEXAAV12@PAU_Node@?$_Tree_nod@V?$_Tmap_traits@PAXPAXU?$less@PAX@std@@V?$allocator@U?$pair@QAXPAX@std@@@2@$0A@@std@@@2@@Z 00413820 f i libohNetCore:Stack.obj
 0001:00012930       ?_Getpfirst@_Container_base12@std@@QBEPAPAU_Iterator_base12@2@XZ 00413930 f i libohNetCore:Stack.obj
 0001:00012970       ?_Clrcont@_Iterator_base12@std@@QAEXXZ 00413970 f i libohNetCore:Stack.obj
 0001:00012990       ?_Getpnext@_Iterator_base12@std@@QAEPAPAU12@XZ 00413990 f i libohNetCore:Stack.obj
 0001:000129b0       ?_Tidy@?$_Tree@V?$_Tmap_traits@PAXPAXU?$less@PAX@std@@V?$allocator@U?$pair@QAXPAX@std@@@2@$0A@@std@@@std@@IAEXXZ 004139b0 f i libohNetCore:Stack.obj
 0001:00012ab0       ??1?$_Tree_val@V?$_Tmap_traits@PAXPAXU?$less@PAX@std@@V?$allocator@U?$pair@QAXPAX@std@@@2@$0A@@std@@@std@@QAE@XZ 00413ab0 f i libohNetCore:Stack.obj
 0001:00012b20       ?_Color@?$_Tree_val@V?$_Tmap_traits@PAXPAXU?$less@PAX@std@@V?$allocator@U?$pair@QAXPAX@std@@@2@$0A@@std@@@std@@SGAADPAU_Node@?$_Tree_nod@V?$_Tmap_traits@PAXPAXU?$less@PAX@std@@V?$allocator@U?$pair@QAXPAX@std@@@2@$0A@@std@@@2@@Z 00413b20 f i libohNetCore:Stack.obj
 0001:00012b30       ?_Isnil@?$_Tree_val@V?$_Tmap_traits@PAXPAXU?$less@PAX@std@@V?$allocator@U?$pair@QAXPAX@std@@@2@$0A@@std@@@std@@SGAADPAU_Node@?$_Tree_nod@V?$_Tmap_traits@PAXPAXU?$less@PAX@std@@V?$allocator@U?$pair@QAXPAX@std@@@2@$0A@@std@@@2@@Z 00413b30 f i libohNetCore:Stack.obj
 0001:00012b40       ?_Key@?$_Tree_val@V?$_Tmap_traits@PAXPAXU?$less@PAX@std@@V?$allocator@U?$pair@QAXPAX@std@@@2@$0A@@std@@@std@@SGAAPAXPAU_Node@?$_Tree_nod@V?$_Tmap_traits@PAXPAXU?$less@PAX@std@@V?$allocator@U?$pair@QAXPAX@std@@@2@$0A@@std@@@2@@Z 00413b40 f i libohNetCore:Stack.obj
 0001:00012b60       ?_Left@?$_Tree_val@V?$_Tmap_traits@PAXPAXU?$less@PAX@std@@V?$allocator@U?$pair@QAXPAX@std@@@2@$0A@@std@@@std@@SGAAPAU_Node@?$_Tree_nod@V?$_Tmap_traits@PAXPAXU?$less@PAX@std@@V?$allocator@U?$pair@QAXPAX@std@@@2@$0A@@std@@@2@PAU342@@Z 00413b60 f i libohNetCore:Stack.obj
 0001:00012b70       ?_Parent@?$_Tree_val@V?$_Tmap_traits@PAXPAXU?$less@PAX@std@@V?$allocator@U?$pair@QAXPAX@std@@@2@$0A@@std@@@std@@SGAAPAU_Node@?$_Tree_nod@V?$_Tmap_traits@PAXPAXU?$less@PAX@std@@V?$allocator@U?$pair@QAXPAX@std@@@2@$0A@@std@@@2@PAU342@@Z 00413b70 f i libohNetCore:Stack.obj
 0001:00012b80       ?_Right@?$_Tree_val@V?$_Tmap_traits@PAXPAXU?$less@PAX@std@@V?$allocator@U?$pair@QAXPAX@std@@@2@$0A@@std@@@std@@SGAAPAU_Node@?$_Tree_nod@V?$_Tmap_traits@PAXPAXU?$less@PAX@std@@V?$allocator@U?$pair@QAXPAX@std@@@2@$0A@@std@@@2@PAU342@@Z 00413b80 f i libohNetCore:Stack.obj
 0001:00012b90       ?_Myval@?$_Tree_val@V?$_Tmap_traits@PAXPAXU?$less@PAX@std@@V?$allocator@U?$pair@QAXPAX@std@@@2@$0A@@std@@@std@@SGAAU?$pair@QAXPAX@2@PAU_Node@?$_Tree_nod@V?$_Tmap_traits@PAXPAXU?$less@PAX@std@@V?$allocator@U?$pair@QAXPAX@std@@@2@$0A@@std@@@2@@Z 00413b90 f i libohNetCore:Stack.obj
 0001:00012ba0       ?_Max@?$_Tree_val@V?$_Tmap_traits@PAXPAXU?$less@PAX@std@@V?$allocator@U?$pair@QAXPAX@std@@@2@$0A@@std@@@std@@SGPAU_Node@?$_Tree_nod@V?$_Tmap_traits@PAXPAXU?$less@PAX@std@@V?$allocator@U?$pair@QAXPAX@std@@@2@$0A@@std@@@2@PAU342@@Z 00413ba0 f i libohNetCore:Stack.obj
 0001:00012be0       ?_Min@?$_Tree_val@V?$_Tmap_traits@PAXPAXU?$less@PAX@std@@V?$allocator@U?$pair@QAXPAX@std@@@2@$0A@@std@@@std@@SGPAU_Node@?$_Tree_nod@V?$_Tmap_traits@PAXPAXU?$less@PAX@std@@V?$allocator@U?$pair@QAXPAX@std@@@2@$0A@@std@@@2@PAU342@@Z 00413be0 f i libohNetCore:Stack.obj
 0001:00012c20       ??0?$allocator@U?$pair@QAXPAX@std@@@std@@QAE@XZ 00413c20 f i libohNetCore:Stack.obj
 0001:00012c40       ?deallocate@?$allocator@U_Node@?$_Tree_nod@V?$_Tmap_traits@PAXPAXU?$less@PAX@std@@V?$allocator@U?$pair@QAXPAX@std@@@2@$0A@@std@@@std@@@std@@QAEXPAU_Node@?$_Tree_nod@V?$_Tmap_traits@PAXPAXU?$less@PAX@std@@V?$allocator@U?$pair@QAXPAX@std@@@2@$0A@@std@@@2@I@Z 00413c40 f i libohNetCore:Stack.obj
 0001:00012c70       ?_Make_iter@?$vector@PAVMListener@Stack@Net@OpenHome@@V?$allocator@PAVMListener@Stack@Net@OpenHome@@@std@@@std@@QBE?AV?$_Vector_iterator@V?$_Vector_val@PAVMListener@Stack@Net@OpenHome@@V?$allocator@PAVMListener@Stack@Net@OpenHome@@@std@@@std@@@2@V?$_Vector_const_iterator@V?$_Vector_val@PAVMListener@Stack@Net@OpenHome@@V?$allocator@PAVMListener@Stack@Net@OpenHome@@@std@@@std@@@2@@Z 00413c70 f i libohNetCore:Stack.obj
 0001:00012d00       ?_Destroy@?$vector@PAVMListener@Stack@Net@OpenHome@@V?$allocator@PAVMListener@Stack@Net@OpenHome@@@std@@@std@@IAEXPAPAVMListener@Stack@Net@OpenHome@@0@Z 00413d00 f i libohNetCore:Stack.obj
 0001:00012d40       ?_Inside@?$vector@PAVMListener@Stack@Net@OpenHome@@V?$allocator@PAVMListener@Stack@Net@OpenHome@@@std@@@std@@IBE_NPBQAVMListener@Stack@Net@OpenHome@@@Z 00413d40 f i libohNetCore:Stack.obj
 0001:00012d90       ?_Reserve@?$vector@PAVMListener@Stack@Net@OpenHome@@V?$allocator@PAVMListener@Stack@Net@OpenHome@@@std@@@std@@IAEXI@Z 00413d90 f i libohNetCore:Stack.obj
 0001:00012e10       ?_Tidy@?$vector@PAVMListener@Stack@Net@OpenHome@@V?$allocator@PAVMListener@Stack@Net@OpenHome@@@std@@@std@@IAEXXZ 00413e10 f i libohNetCore:Stack.obj
 0001:00012ea0       ?_Orphan_range@?$vector@PAVMListener@Stack@Net@OpenHome@@V?$allocator@PAVMListener@Stack@Net@OpenHome@@@std@@@std@@IBEXPAPAVMListener@Stack@Net@OpenHome@@0@Z 00413ea0 f i libohNetCore:Stack.obj
 0001:00012fb0       ??0?$_Vector_val@PAVMListener@Stack@Net@OpenHome@@V?$allocator@PAVMListener@Stack@Net@OpenHome@@@std@@@std@@QAE@V?$allocator@PAVMListener@Stack@Net@OpenHome@@@1@@Z 00413fb0 f i libohNetCore:Stack.obj
 0001:000130d0       ??0_Container_proxy@std@@QAE@XZ 004140d0 f i libohNetCore:Stack.obj
 0001:00013100       ??0_Container_base12@std@@QAE@XZ 00414100 f i libohNetCore:Stack.obj
 0001:00013120       ??1?$_Vector_val@PAVMListener@Stack@Net@OpenHome@@V?$allocator@PAVMListener@Stack@Net@OpenHome@@@std@@@std@@QAE@XZ 00414120 f i libohNetCore:Stack.obj
 0001:00013200       ??0?$allocator@PAVMListener@Stack@Net@OpenHome@@@std@@QAE@XZ 00414200 f i libohNetCore:Stack.obj
 0001:00013220       ??0?$_Tree@V?$_Tmap_traits@VBrn@OpenHome@@PAVObjectType@Stack@Net@2@VBufferCmp@2@V?$allocator@U?$pair@$$CBVBrn@OpenHome@@PAVObjectType@Stack@Net@2@@std@@@std@@$0A@@std@@@std@@QAE@ABVBufferCmp@OpenHome@@ABV?$allocator@U?$pair@$$CBVBrn@OpenHome@@PAVObjectType@Stack@Net@2@@std@@@1@@Z 00414220 f i libohNetCore:Stack.obj
 0001:00013270       ?lower_bound@?$_Tree@V?$_Tmap_traits@VBrn@OpenHome@@PAVObjectType@Stack@Net@2@VBufferCmp@2@V?$allocator@U?$pair@$$CBVBrn@OpenHome@@PAVObjectType@Stack@Net@2@@std@@@std@@$0A@@std@@@std@@QAE?AV?$_Tree_iterator@V?$_Tree_val@V?$_Tmap_traits@VBrn@OpenHome@@PAVObjectType@Stack@Net@2@VBufferCmp@2@V?$allocator@U?$pair@$$CBVBrn@OpenHome@@PAVObjectType@Stack@Net@2@@std@@@std@@$0A@@std@@@std@@@2@ABVBrn@OpenHome@@@Z 00414270 f i libohNetCore:Stack.obj
 0001:000132d0       ?_Lmost@?$_Tree@V?$_Tmap_traits@VBrn@OpenHome@@PAVObjectType@Stack@Net@2@VBufferCmp@2@V?$allocator@U?$pair@$$CBVBrn@OpenHome@@PAVObjectType@Stack@Net@2@@std@@@std@@$0A@@std@@@std@@IBEAAPAU_Node@?$_Tree_nod@V?$_Tmap_traits@VBrn@OpenHome@@PAVObjectType@Stack@Net@2@VBufferCmp@2@V?$allocator@U?$pair@$$CBVBrn@OpenHome@@PAVObjectType@Stack@Net@2@@std@@@std@@$0A@@std@@@2@XZ 004142d0 f i libohNetCore:Stack.obj
 0001:00013300       ?_Lrotate@?$_Tree@V?$_Tmap_traits@VBrn@OpenHome@@PAVObjectType@Stack@Net@2@VBufferCmp@2@V?$allocator@U?$pair@$$CBVBrn@OpenHome@@PAVObjectType@Stack@Net@2@@std@@@std@@$0A@@std@@@std@@IAEXPAU_Node@?$_Tree_nod@V?$_Tmap_traits@VBrn@OpenHome@@PAVObjectType@Stack@Net@2@VBufferCmp@2@V?$allocator@U?$pair@$$CBVBrn@OpenHome@@PAVObjectType@Stack@Net@2@@std@@@std@@$0A@@std@@@2@@Z 00414300 f i libohNetCore:Stack.obj
 0001:00013420       ?_Rmost@?$_Tree@V?$_Tmap_traits@VBrn@OpenHome@@PAVObjectType@Stack@Net@2@VBufferCmp@2@V?$allocator@U?$pair@$$CBVBrn@OpenHome@@PAVObjectType@Stack@Net@2@@std@@@std@@$0A@@std@@@std@@IBEAAPAU_Node@?$_Tree_nod@V?$_Tmap_traits@VBrn@OpenHome@@PAVObjectType@Stack@Net@2@VBufferCmp@2@V?$allocator@U?$pair@$$CBVBrn@OpenHome@@PAVObjectType@Stack@Net@2@@std@@@std@@$0A@@std@@@2@XZ 00414420 f i libohNetCore:Stack.obj
 0001:00013450       ?_Root@?$_Tree@V?$_Tmap_traits@VBrn@OpenHome@@PAVObjectType@Stack@Net@2@VBufferCmp@2@V?$allocator@U?$pair@$$CBVBrn@OpenHome@@PAVObjectType@Stack@Net@2@@std@@@std@@$0A@@std@@@std@@IBEAAPAU_Node@?$_Tree_nod@V?$_Tmap_traits@VBrn@OpenHome@@PAVObjectType@Stack@Net@2@VBufferCmp@2@V?$allocator@U?$pair@$$CBVBrn@OpenHome@@PAVObjectType@Stack@Net@2@@std@@@std@@$0A@@std@@@2@XZ 00414450 f i libohNetCore:Stack.obj
 0001:00013480       ?_Rrotate@?$_Tree@V?$_Tmap_traits@VBrn@OpenHome@@PAVObjectType@Stack@Net@2@VBufferCmp@2@V?$allocator@U?$pair@$$CBVBrn@OpenHome@@PAVObjectType@Stack@Net@2@@std@@@std@@$0A@@std@@@std@@IAEXPAU_Node@?$_Tree_nod@V?$_Tmap_traits@VBrn@OpenHome@@PAVObjectType@Stack@Net@2@VBufferCmp@2@V?$allocator@U?$pair@$$CBVBrn@OpenHome@@PAVObjectType@Stack@Net@2@@std@@@std@@$0A@@std@@@2@@Z 00414480 f i libohNetCore:Stack.obj
 0001:000135a0       ?_Orphan_ptr@?$_Tree@V?$_Tmap_traits@VBrn@OpenHome@@PAVObjectType@Stack@Net@2@VBufferCmp@2@V?$allocator@U?$pair@$$CBVBrn@OpenHome@@PAVObjectType@Stack@Net@2@@std@@@std@@$0A@@std@@@std@@IBEXAAV12@PAU_Node@?$_Tree_nod@V?$_Tmap_traits@VBrn@OpenHome@@PAVObjectType@Stack@Net@2@VBufferCmp@2@V?$allocator@U?$pair@$$CBVBrn@OpenHome@@PAVObjectType@Stack@Net@2@@std@@@std@@$0A@@std@@@2@@Z 004145a0 f i libohNetCore:Stack.obj
 0001:000136b0       ?_Tidy@?$_Tree@V?$_Tmap_traits@VBrn@OpenHome@@PAVObjectType@Stack@Net@2@VBufferCmp@2@V?$allocator@U?$pair@$$CBVBrn@OpenHome@@PAVObjectType@Stack@Net@2@@std@@@std@@$0A@@std@@@std@@IAEXXZ 004146b0 f i libohNetCore:Stack.obj
 0001:000137b0       ??1?$_Tree_val@V?$_Tmap_traits@VBrn@OpenHome@@PAVObjectType@Stack@Net@2@VBufferCmp@2@V?$allocator@U?$pair@$$CBVBrn@OpenHome@@PAVObjectType@Stack@Net@2@@std@@@std@@$0A@@std@@@std@@QAE@XZ 004147b0 f i libohNetCore:Stack.obj
 0001:00013820       ?_Color@?$_Tree_val@V?$_Tmap_traits@VBrn@OpenHome@@PAVObjectType@Stack@Net@2@VBufferCmp@2@V?$allocator@U?$pair@$$CBVBrn@OpenHome@@PAVObjectType@Stack@Net@2@@std@@@std@@$0A@@std@@@std@@SGAADPAU_Node@?$_Tree_nod@V?$_Tmap_traits@VBrn@OpenHome@@PAVObjectType@Stack@Net@2@VBufferCmp@2@V?$allocator@U?$pair@$$CBVBrn@OpenHome@@PAVObjectType@Stack@Net@2@@std@@@std@@$0A@@std@@@2@@Z 00414820 f i libohNetCore:Stack.obj
 0001:00013830       ?_Isnil@?$_Tree_val@V?$_Tmap_traits@VBrn@OpenHome@@PAVObjectType@Stack@Net@2@VBufferCmp@2@V?$allocator@U?$pair@$$CBVBrn@OpenHome@@PAVObjectType@Stack@Net@2@@std@@@std@@$0A@@std@@@std@@SGAADPAU_Node@?$_Tree_nod@V?$_Tmap_traits@VBrn@OpenHome@@PAVObjectType@Stack@Net@2@VBufferCmp@2@V?$allocator@U?$pair@$$CBVBrn@OpenHome@@PAVObjectType@Stack@Net@2@@std@@@std@@$0A@@std@@@2@@Z 00414830 f i libohNetCore:Stack.obj
 0001:00013840       ?_Key@?$_Tree_val@V?$_Tmap_traits@VBrn@OpenHome@@PAVObjectType@Stack@Net@2@VBufferCmp@2@V?$allocator@U?$pair@$$CBVBrn@OpenHome@@PAVObjectType@Stack@Net@2@@std@@@std@@$0A@@std@@@std@@SGAAVBrn@OpenHome@@PAU_Node@?$_Tree_nod@V?$_Tmap_traits@VBrn@OpenHome@@PAVObjectType@Stack@Net@2@VBufferCmp@2@V?$allocator@U?$pair@$$CBVBrn@OpenHome@@PAVObjectType@Stack@Net@2@@std@@@std@@$0A@@std@@@2@@Z 00414840 f i libohNetCore:Stack.obj
 0001:00013860       ?_Left@?$_Tree_val@V?$_Tmap_traits@VBrn@OpenHome@@PAVObjectType@Stack@Net@2@VBufferCmp@2@V?$allocator@U?$pair@$$CBVBrn@OpenHome@@PAVObjectType@Stack@Net@2@@std@@@std@@$0A@@std@@@std@@SGAAPAU_Node@?$_Tree_nod@V?$_Tmap_traits@VBrn@OpenHome@@PAVObjectType@Stack@Net@2@VBufferCmp@2@V?$allocator@U?$pair@$$CBVBrn@OpenHome@@PAVObjectType@Stack@Net@2@@std@@@std@@$0A@@std@@@2@PAU342@@Z 00414860 f i libohNetCore:Stack.obj
 0001:00013870       ?_Parent@?$_Tree_val@V?$_Tmap_traits@VBrn@OpenHome@@PAVObjectType@Stack@Net@2@VBufferCmp@2@V?$allocator@U?$pair@$$CBVBrn@OpenHome@@PAVObjectType@Stack@Net@2@@std@@@std@@$0A@@std@@@std@@SGAAPAU_Node@?$_Tree_nod@V?$_Tmap_traits@VBrn@OpenHome@@PAVObjectType@Stack@Net@2@VBufferCmp@2@V?$allocator@U?$pair@$$CBVBrn@OpenHome@@PAVObjectType@Stack@Net@2@@std@@@std@@$0A@@std@@@2@PAU342@@Z 00414870 f i libohNetCore:Stack.obj
 0001:00013880       ?_Right@?$_Tree_val@V?$_Tmap_traits@VBrn@OpenHome@@PAVObjectType@Stack@Net@2@VBufferCmp@2@V?$allocator@U?$pair@$$CBVBrn@OpenHome@@PAVObjectType@Stack@Net@2@@std@@@std@@$0A@@std@@@std@@SGAAPAU_Node@?$_Tree_nod@V?$_Tmap_traits@VBrn@OpenHome@@PAVObjectType@Stack@Net@2@VBufferCmp@2@V?$allocator@U?$pair@$$CBVBrn@OpenHome@@PAVObjectType@Stack@Net@2@@std@@@std@@$0A@@std@@@2@PAU342@@Z 00414880 f i libohNetCore:Stack.obj
 0001:00013890       ?_Myval@?$_Tree_val@V?$_Tmap_traits@VBrn@OpenHome@@PAVObjectType@Stack@Net@2@VBufferCmp@2@V?$allocator@U?$pair@$$CBVBrn@OpenHome@@PAVObjectType@Stack@Net@2@@std@@@std@@$0A@@std@@@std@@SGAAU?$pair@$$CBVBrn@OpenHome@@PAVObjectType@Stack@Net@2@@2@PAU_Node@?$_Tree_nod@V?$_Tmap_traits@VBrn@OpenHome@@PAVObjectType@Stack@Net@2@VBufferCmp@2@V?$allocator@U?$pair@$$CBVBrn@OpenHome@@PAVObjectType@Stack@Net@2@@std@@@std@@$0A@@std@@@2@@Z 00414890 f i libohNetCore:Stack.obj
 0001:000138a0       ?_Max@?$_Tree_val@V?$_Tmap_traits@VBrn@OpenHome@@PAVObjectType@Stack@Net@2@VBufferCmp@2@V?$allocator@U?$pair@$$CBVBrn@OpenHome@@PAVObjectType@Stack@Net@2@@std@@@std@@$0A@@std@@@std@@SGPAU_Node@?$_Tree_nod@V?$_Tmap_traits@VBrn@OpenHome@@PAVObjectType@Stack@Net@2@VBufferCmp@2@V?$allocator@U?$pair@$$CBVBrn@OpenHome@@PAVObjectType@Stack@Net@2@@std@@@std@@$0A@@std@@@2@PAU342@@Z 004148a0 f i libohNetCore:Stack.obj
 0001:000138e0       ?_Min@?$_Tree_val@V?$_Tmap_traits@VBrn@OpenHome@@PAVObjectType@Stack@Net@2@VBufferCmp@2@V?$allocator@U?$pair@$$CBVBrn@OpenHome@@PAVObjectType@Stack@Net@2@@std@@@std@@$0A@@std@@@std@@SGPAU_Node@?$_Tree_nod@V?$_Tmap_traits@VBrn@OpenHome@@PAVObjectType@Stack@Net@2@VBufferCmp@2@V?$allocator@U?$pair@$$CBVBrn@OpenHome@@PAVObjectType@Stack@Net@2@@std@@@std@@$0A@@std@@@2@PAU342@@Z 004148e0 f i libohNetCore:Stack.obj
 0001:00013920       ??0?$allocator@U?$pair@$$CBVBrn@OpenHome@@PAVObjectType@Stack@Net@2@@std@@@std@@QAE@XZ 00414920 f i libohNetCore:Stack.obj
 0001:00013940       ?deallocate@?$allocator@U_Node@?$_Tree_nod@V?$_Tmap_traits@VBrn@OpenHome@@PAVObjectType@Stack@Net@2@VBufferCmp@2@V?$allocator@U?$pair@$$CBVBrn@OpenHome@@PAVObjectType@Stack@Net@2@@std@@@std@@$0A@@std@@@std@@@std@@QAEXPAU_Node@?$_Tree_nod@V?$_Tmap_traits@VBrn@OpenHome@@PAVObjectType@Stack@Net@2@VBufferCmp@2@V?$allocator@U?$pair@$$CBVBrn@OpenHome@@PAVObjectType@Stack@Net@2@@std@@@std@@$0A@@std@@@2@I@Z 00414940 f i libohNetCore:Stack.obj
 0001:00013970       ??0?$_Vector_iterator@V?$_Vector_val@PAVMListener@Stack@Net@OpenHome@@V?$allocator@PAVMListener@Stack@Net@OpenHome@@@std@@@std@@@std@@QAE@PAPAVMListener@Stack@Net@OpenHome@@PBU_Container_base12@1@@Z 00414970 f i libohNetCore:Stack.obj
 0001:000139b0       ??Y?$_Vector_iterator@V?$_Vector_val@PAVMListener@Stack@Net@OpenHome@@V?$allocator@PAVMListener@Stack@Net@OpenHome@@@std@@@std@@@std@@QAEAAV01@H@Z 004149b0 f i libohNetCore:Stack.obj
 0001:000139e0       ??0?$_Tree_iterator@V?$_Tree_val@V?$_Tmap_traits@VBrn@OpenHome@@PAVObjectType@Stack@Net@2@VBufferCmp@2@V?$allocator@U?$pair@$$CBVBrn@OpenHome@@PAVObjectType@Stack@Net@2@@std@@@std@@$0A@@std@@@std@@@std@@QAE@PAU_Node@?$_Tree_nod@V?$_Tmap_traits@VBrn@OpenHome@@PAVObjectType@Stack@Net@2@VBufferCmp@2@V?$allocator@U?$pair@$$CBVBrn@OpenHome@@PAVObjectType@Stack@Net@2@@std@@@std@@$0A@@std@@@1@PBV?$_Tree_val@V?$_Tmap_traits@VBrn@OpenHome@@PAVObjectType@Stack@Net@2@VBufferCmp@2@V?$allocator@U?$pair@$$CBVBrn@OpenHome@@PAVObjectType@Stack@Net@2@@std@@@std@@$0A@@std@@@1@@Z 004149e0 f i libohNetCore:Stack.obj
 0001:00013a20       ??D?$_Tree_iterator@V?$_Tree_val@V?$_Tmap_traits@VBrn@OpenHome@@PAVObjectType@Stack@Net@2@VBufferCmp@2@V?$allocator@U?$pair@$$CBVBrn@OpenHome@@PAVObjectType@Stack@Net@2@@std@@@std@@$0A@@std@@@std@@@std@@QBEAAU?$pair@$$CBVBrn@OpenHome@@PAVObjectType@Stack@Net@2@@1@XZ 00414a20 f i libohNetCore:Stack.obj
 0001:00013a50       ??E?$_Tree_iterator@V?$_Tree_val@V?$_Tmap_traits@VBrn@OpenHome@@PAVObjectType@Stack@Net@2@VBufferCmp@2@V?$allocator@U?$pair@$$CBVBrn@OpenHome@@PAVObjectType@Stack@Net@2@@std@@@std@@$0A@@std@@@std@@@std@@QAEAAV01@XZ 00414a50 f i libohNetCore:Stack.obj
 0001:00013a80       ??E?$_Tree_const_iterator@V?$_Tree_val@V?$_Tmap_traits@VBrn@OpenHome@@PAVObjectType@Stack@Net@2@VBufferCmp@2@V?$allocator@U?$pair@$$CBVBrn@OpenHome@@PAVObjectType@Stack@Net@2@@std@@@std@@$0A@@std@@@std@@@std@@QAEAAV01@XZ 00414a80 f i libohNetCore:Stack.obj
 0001:00013b40       ??8?$_Tree_const_iterator@V?$_Tree_val@V?$_Tmap_traits@VBrn@OpenHome@@PAVObjectType@Stack@Net@2@VBufferCmp@2@V?$allocator@U?$pair@$$CBVBrn@OpenHome@@PAVObjectType@Stack@Net@2@@std@@@std@@$0A@@std@@@std@@@std@@QBE_NABV01@@Z 00414b40 f i libohNetCore:Stack.obj
 0001:00013c00       ?_Mynode@?$_Tree_unchecked_const_iterator@V?$_Tree_val@V?$_Tmap_traits@VBrn@OpenHome@@PAVObjectType@Stack@Net@2@VBufferCmp@2@V?$allocator@U?$pair@$$CBVBrn@OpenHome@@PAVObjectType@Stack@Net@2@@std@@@std@@$0A@@std@@@std@@U_Iterator_base12@2@@std@@QBEPAU_Node@?$_Tree_nod@V?$_Tmap_traits@VBrn@OpenHome@@PAVObjectType@Stack@Net@2@VBufferCmp@2@V?$allocator@U?$pair@$$CBVBrn@OpenHome@@PAVObjectType@Stack@Net@2@@std@@@std@@$0A@@std@@@2@XZ 00414c00 f i libohNetCore:Stack.obj
 0001:00013c20       ??0?$_Tree_iterator@V?$_Tree_val@V?$_Tmap_traits@PAXPAXU?$less@PAX@std@@V?$allocator@U?$pair@QAXPAX@std@@@2@$0A@@std@@@std@@@std@@QAE@PAU_Node@?$_Tree_nod@V?$_Tmap_traits@PAXPAXU?$less@PAX@std@@V?$allocator@U?$pair@QAXPAX@std@@@2@$0A@@std@@@1@PBV?$_Tree_val@V?$_Tmap_traits@PAXPAXU?$less@PAX@std@@V?$allocator@U?$pair@QAXPAX@std@@@2@$0A@@std@@@1@@Z 00414c20 f i libohNetCore:Stack.obj
 0001:00013c60       ??D?$_Tree_iterator@V?$_Tree_val@V?$_Tmap_traits@PAXPAXU?$less@PAX@std@@V?$allocator@U?$pair@QAXPAX@std@@@2@$0A@@std@@@std@@@std@@QBEAAU?$pair@QAXPAX@1@XZ 00414c60 f i libohNetCore:Stack.obj
 0001:00013c90       ??E?$_Tree_iterator@V?$_Tree_val@V?$_Tmap_traits@PAXPAXU?$less@PAX@std@@V?$allocator@U?$pair@QAXPAX@std@@@2@$0A@@std@@@std@@@std@@QAEAAV01@XZ 00414c90 f i libohNetCore:Stack.obj
 0001:00013cc0       ??E?$_Tree_const_iterator@V?$_Tree_val@V?$_Tmap_traits@PAXPAXU?$less@PAX@std@@V?$allocator@U?$pair@QAXPAX@std@@@2@$0A@@std@@@std@@@std@@QAEAAV01@XZ 00414cc0 f i libohNetCore:Stack.obj
 0001:00013d80       ??8?$_Tree_const_iterator@V?$_Tree_val@V?$_Tmap_traits@PAXPAXU?$less@PAX@std@@V?$allocator@U?$pair@QAXPAX@std@@@2@$0A@@std@@@std@@@std@@QBE_NABV01@@Z 00414d80 f i libohNetCore:Stack.obj
 0001:00013e40       ?_Mynode@?$_Tree_unchecked_const_iterator@V?$_Tree_val@V?$_Tmap_traits@PAXPAXU?$less@PAX@std@@V?$allocator@U?$pair@QAXPAX@std@@@2@$0A@@std@@@std@@U_Iterator_base12@2@@std@@QBEPAU_Node@?$_Tree_nod@V?$_Tmap_traits@PAXPAXU?$less@PAX@std@@V?$allocator@U?$pair@QAXPAX@std@@@2@$0A@@std@@@2@XZ 00414e40 f i libohNetCore:Stack.obj
 0001:00013e60       ?erase@?$_Tree@V?$_Tmap_traits@PAXPAXU?$less@PAX@std@@V?$allocator@U?$pair@QAXPAX@std@@@2@$0A@@std@@@std@@QAE?AV?$_Tree_iterator@V?$_Tree_val@V?$_Tmap_traits@PAXPAXU?$less@PAX@std@@V?$allocator@U?$pair@QAXPAX@std@@@2@$0A@@std@@@std@@@2@V?$_Tree_const_iterator@V?$_Tree_val@V?$_Tmap_traits@PAXPAXU?$less@PAX@std@@V?$allocator@U?$pair@QAXPAX@std@@@2@$0A@@std@@@std@@@2@0@Z 00414e60 f i libohNetCore:Stack.obj
 0001:00014060       ?_Lbound@?$_Tree@V?$_Tmap_traits@PAXPAXU?$less@PAX@std@@V?$allocator@U?$pair@QAXPAX@std@@@2@$0A@@std@@@std@@IAEPAU_Node@?$_Tree_nod@V?$_Tmap_traits@PAXPAXU?$less@PAX@std@@V?$allocator@U?$pair@QAXPAX@std@@@2@$0A@@std@@@2@ABQAX@Z 00415060 f i libohNetCore:Stack.obj
 0001:00014110       ??0?$_Tree_val@V?$_Tmap_traits@PAXPAXU?$less@PAX@std@@V?$allocator@U?$pair@QAXPAX@std@@@2@$0A@@std@@@std@@QAE@ABU?$less@PAX@1@V?$allocator@U?$pair@QAXPAX@std@@@1@@Z 00415110 f i libohNetCore:Stack.obj
 0001:00014210       ??1?$_Tree_nod@V?$_Tmap_traits@PAXPAXU?$less@PAX@std@@V?$allocator@U?$pair@QAXPAX@std@@@2@$0A@@std@@@std@@QAE@XZ 00415210 f i libohNetCore:Stack.obj
 0001:000142f0       ??0?$allocator@U?$pair@QAXPAX@std@@@std@@QAE@ABV01@@Z 004152f0 f i libohNetCore:Stack.obj
 0001:00014310       ?reserve@?$vector@PAVMListener@Stack@Net@OpenHome@@V?$allocator@PAVMListener@Stack@Net@OpenHome@@@std@@@std@@QAEXI@Z 00415310 f i libohNetCore:Stack.obj
 0001:00014480       ?capacity@?$vector@PAVMListener@Stack@Net@OpenHome@@V?$allocator@PAVMListener@Stack@Net@OpenHome@@@std@@@std@@QBEIXZ 00415480 f i libohNetCore:Stack.obj
 0001:000144b0       ?max_size@?$vector@PAVMListener@Stack@Net@OpenHome@@V?$allocator@PAVMListener@Stack@Net@OpenHome@@@std@@@std@@QBEIXZ 004154b0 f i libohNetCore:Stack.obj
 0001:000144e0       ?_Grow_to@?$vector@PAVMListener@Stack@Net@OpenHome@@V?$allocator@PAVMListener@Stack@Net@OpenHome@@@std@@@std@@IBEII@Z 004154e0 f i libohNetCore:Stack.obj
 0001:00014560       ?_Xlen@?$vector@PAVMListener@Stack@Net@OpenHome@@V?$allocator@PAVMListener@Stack@Net@OpenHome@@@std@@@std@@IBEXXZ 00415560 f i libohNetCore:Stack.obj
 0001:00014590       ??0?$allocator@PAVMListener@Stack@Net@OpenHome@@@std@@QAE@ABV01@@Z 00415590 f i libohNetCore:Stack.obj
 0001:000145b0       ?deallocate@?$allocator@PAVMListener@Stack@Net@OpenHome@@@std@@QAEXPAPAVMListener@Stack@Net@OpenHome@@I@Z 004155b0 f i libohNetCore:Stack.obj
 0001:000145e0       ?erase@?$_Tree@V?$_Tmap_traits@VBrn@OpenHome@@PAVObjectType@Stack@Net@2@VBufferCmp@2@V?$allocator@U?$pair@$$CBVBrn@OpenHome@@PAVObjectType@Stack@Net@2@@std@@@std@@$0A@@std@@@std@@QAE?AV?$_Tree_iterator@V?$_Tree_val@V?$_Tmap_traits@VBrn@OpenHome@@PAVObjectType@Stack@Net@2@VBufferCmp@2@V?$allocator@U?$pair@$$CBVBrn@OpenHome@@PAVObjectType@Stack@Net@2@@std@@@std@@$0A@@std@@@std@@@2@V?$_Tree_const_iterator@V?$_Tree_val@V?$_Tmap_traits@VBrn@OpenHome@@PAVObjectType@Stack@Net@2@VBufferCmp@2@V?$allocator@U?$pair@$$CBVBrn@OpenHome@@PAVObjectType@Stack@Net@2@@std@@@std@@$0A@@std@@@std@@@2@0@Z 004155e0 f i libohNetCore:Stack.obj
 0001:000147e0       ?_Lbound@?$_Tree@V?$_Tmap_traits@VBrn@OpenHome@@PAVObjectType@Stack@Net@2@VBufferCmp@2@V?$allocator@U?$pair@$$CBVBrn@OpenHome@@PAVObjectType@Stack@Net@2@@std@@@std@@$0A@@std@@@std@@IAEPAU_Node@?$_Tree_nod@V?$_Tmap_traits@VBrn@OpenHome@@PAVObjectType@Stack@Net@2@VBufferCmp@2@V?$allocator@U?$pair@$$CBVBrn@OpenHome@@PAVObjectType@Stack@Net@2@@std@@@std@@$0A@@std@@@2@ABVBrn@OpenHome@@@Z 004157e0 f i libohNetCore:Stack.obj
 0001:00014890       ??0?$_Tree_val@V?$_Tmap_traits@VBrn@OpenHome@@PAVObjectType@Stack@Net@2@VBufferCmp@2@V?$allocator@U?$pair@$$CBVBrn@OpenHome@@PAVObjectType@Stack@Net@2@@std@@@std@@$0A@@std@@@std@@QAE@ABVBufferCmp@OpenHome@@V?$allocator@U?$pair@$$CBVBrn@OpenHome@@PAVObjectType@Stack@Net@2@@std@@@1@@Z 00415890 f i libohNetCore:Stack.obj
 0001:00014990       ??1?$_Tree_nod@V?$_Tmap_traits@VBrn@OpenHome@@PAVObjectType@Stack@Net@2@VBufferCmp@2@V?$allocator@U?$pair@$$CBVBrn@OpenHome@@PAVObjectType@Stack@Net@2@@std@@@std@@$0A@@std@@@std@@QAE@XZ 00415990 f i libohNetCore:Stack.obj
 0001:00014a70       ??0?$allocator@U?$pair@$$CBVBrn@OpenHome@@PAVObjectType@Stack@Net@2@@std@@@std@@QAE@ABV01@@Z 00415a70 f i libohNetCore:Stack.obj
 0001:00014a90       ??0?$_Vector_const_iterator@V?$_Vector_val@PAVMListener@Stack@Net@OpenHome@@V?$allocator@PAVMListener@Stack@Net@OpenHome@@@std@@@std@@@std@@QAE@PAPAVMListener@Stack@Net@OpenHome@@PBU_Container_base12@1@@Z 00415a90 f i libohNetCore:Stack.obj
 0001:00014b10       ??Y?$_Vector_const_iterator@V?$_Vector_val@PAVMListener@Stack@Net@OpenHome@@V?$allocator@PAVMListener@Stack@Net@OpenHome@@@std@@@std@@@std@@QAEAAV01@H@Z 00415b10 f i libohNetCore:Stack.obj
 0001:00014bf0       ??0?$_Tree_const_iterator@V?$_Tree_val@V?$_Tmap_traits@VBrn@OpenHome@@PAVObjectType@Stack@Net@2@VBufferCmp@2@V?$allocator@U?$pair@$$CBVBrn@OpenHome@@PAVObjectType@Stack@Net@2@@std@@@std@@$0A@@std@@@std@@@std@@QAE@PAU_Node@?$_Tree_nod@V?$_Tmap_traits@VBrn@OpenHome@@PAVObjectType@Stack@Net@2@VBufferCmp@2@V?$allocator@U?$pair@$$CBVBrn@OpenHome@@PAVObjectType@Stack@Net@2@@std@@@std@@$0A@@std@@@1@PBV?$_Tree_val@V?$_Tmap_traits@VBrn@OpenHome@@PAVObjectType@Stack@Net@2@VBufferCmp@2@V?$allocator@U?$pair@$$CBVBrn@OpenHome@@PAVObjectType@Stack@Net@2@@std@@@std@@$0A@@std@@@1@@Z 00415bf0 f i libohNetCore:Stack.obj
 0001:00014c30       ??D?$_Tree_const_iterator@V?$_Tree_val@V?$_Tmap_traits@VBrn@OpenHome@@PAVObjectType@Stack@Net@2@VBufferCmp@2@V?$allocator@U?$pair@$$CBVBrn@OpenHome@@PAVObjectType@Stack@Net@2@@std@@@std@@$0A@@std@@@std@@@std@@QBEABU?$pair@$$CBVBrn@OpenHome@@PAVObjectType@Stack@Net@2@@1@XZ 00415c30 f i libohNetCore:Stack.obj
 0001:00014cf0       ??E?$_Tree_unchecked_const_iterator@V?$_Tree_val@V?$_Tmap_traits@VBrn@OpenHome@@PAVObjectType@Stack@Net@2@VBufferCmp@2@V?$allocator@U?$pair@$$CBVBrn@OpenHome@@PAVObjectType@Stack@Net@2@@std@@@std@@$0A@@std@@@std@@U_Iterator_base12@2@@std@@QAEAAV01@XZ 00415cf0 f i libohNetCore:Stack.obj
 0001:00014db0       ??0?$_Tree_const_iterator@V?$_Tree_val@V?$_Tmap_traits@PAXPAXU?$less@PAX@std@@V?$allocator@U?$pair@QAXPAX@std@@@2@$0A@@std@@@std@@@std@@QAE@PAU_Node@?$_Tree_nod@V?$_Tmap_traits@PAXPAXU?$less@PAX@std@@V?$allocator@U?$pair@QAXPAX@std@@@2@$0A@@std@@@1@PBV?$_Tree_val@V?$_Tmap_traits@PAXPAXU?$less@PAX@std@@V?$allocator@U?$pair@QAXPAX@std@@@2@$0A@@std@@@1@@Z 00415db0 f i libohNetCore:Stack.obj
 0001:00014df0       ??D?$_Tree_const_iterator@V?$_Tree_val@V?$_Tmap_traits@PAXPAXU?$less@PAX@std@@V?$allocator@U?$pair@QAXPAX@std@@@2@$0A@@std@@@std@@@std@@QBEABU?$pair@QAXPAX@1@XZ 00415df0 f i libohNetCore:Stack.obj
 0001:00014eb0       ??E?$_Tree_unchecked_const_iterator@V?$_Tree_val@V?$_Tmap_traits@PAXPAXU?$less@PAX@std@@V?$allocator@U?$pair@QAXPAX@std@@@2@$0A@@std@@@std@@U_Iterator_base12@2@@std@@QAEAAV01@XZ 00415eb0 f i libohNetCore:Stack.obj
 0001:00014f70       ?allocate@?$allocator@U_Container_proxy@std@@@std@@QAEPAU_Container_proxy@2@I@Z 00415f70 f i libohNetCore:Stack.obj
 0001:00014fa0       ??1?$_Tmap_traits@PAXPAXU?$less@PAX@std@@V?$allocator@U?$pair@QAXPAX@std@@@2@$0A@@std@@QAE@XZ 00415fa0 f i libohNetCore:Stack.obj
 0001:00014fd0       ??1?$_Tmap_traits@VBrn@OpenHome@@PAVObjectType@Stack@Net@2@VBufferCmp@2@V?$allocator@U?$pair@$$CBVBrn@OpenHome@@PAVObjectType@Stack@Net@2@@std@@@std@@$0A@@std@@QAE@XZ 00415fd0 f i libohNetCore:Stack.obj
 0001:00015000       ??0?$_Iterator012@Urandom_access_iterator_tag@std@@PAVMListener@Stack@Net@OpenHome@@HPBQAV3456@ABQAV3456@U_Iterator_base12@2@@std@@QAE@XZ 00416000 f i libohNetCore:Stack.obj
 0001:00015030       ??0_Iterator_base12@std@@QAE@XZ 00416030 f i libohNetCore:Stack.obj
 0001:00015060       ?clear@?$_Tree@V?$_Tmap_traits@PAXPAXU?$less@PAX@std@@V?$allocator@U?$pair@QAXPAX@std@@@2@$0A@@std@@@std@@QAEXXZ 00416060 f i libohNetCore:Stack.obj
 0001:000150e0       ??0?$_Tree_nod@V?$_Tmap_traits@PAXPAXU?$less@PAX@std@@V?$allocator@U?$pair@QAXPAX@std@@@2@$0A@@std@@@std@@QAE@ABU?$less@PAX@1@V?$allocator@U?$pair@QAXPAX@std@@@1@@Z 004160e0 f i libohNetCore:Stack.obj
 0001:000151f0       ?allocate@?$allocator@U_Node@?$_Tree_nod@V?$_Tmap_traits@PAXPAXU?$less@PAX@std@@V?$allocator@U?$pair@QAXPAX@std@@@2@$0A@@std@@@std@@@std@@QAEPAU_Node@?$_Tree_nod@V?$_Tmap_traits@PAXPAXU?$less@PAX@std@@V?$allocator@U?$pair@QAXPAX@std@@@2@$0A@@std@@@2@I@Z 004161f0 f i libohNetCore:Stack.obj
 0001:00015220       ?allocate@?$allocator@PAVMListener@Stack@Net@OpenHome@@@std@@QAEPAPAVMListener@Stack@Net@OpenHome@@I@Z 00416220 f i libohNetCore:Stack.obj
 0001:00015250       ?max_size@?$allocator@PAVMListener@Stack@Net@OpenHome@@@std@@QBEIXZ 00416250 f i libohNetCore:Stack.obj
 0001:000152a0       ?clear@?$_Tree@V?$_Tmap_traits@VBrn@OpenHome@@PAVObjectType@Stack@Net@2@VBufferCmp@2@V?$allocator@U?$pair@$$CBVBrn@OpenHome@@PAVObjectType@Stack@Net@2@@std@@@std@@$0A@@std@@@std@@QAEXXZ 004162a0 f i libohNetCore:Stack.obj
 0001:00015320       ??0?$_Tree_nod@V?$_Tmap_traits@VBrn@OpenHome@@PAVObjectType@Stack@Net@2@VBufferCmp@2@V?$allocator@U?$pair@$$CBVBrn@OpenHome@@PAVObjectType@Stack@Net@2@@std@@@std@@$0A@@std@@@std@@QAE@ABVBufferCmp@OpenHome@@V?$allocator@U?$pair@$$CBVBrn@OpenHome@@PAVObjectType@Stack@Net@2@@std@@@1@@Z 00416320 f i libohNetCore:Stack.obj
 0001:00015430       ?allocate@?$allocator@U_Node@?$_Tree_nod@V?$_Tmap_traits@VBrn@OpenHome@@PAVObjectType@Stack@Net@2@VBufferCmp@2@V?$allocator@U?$pair@$$CBVBrn@OpenHome@@PAVObjectType@Stack@Net@2@@std@@@std@@$0A@@std@@@std@@@std@@QAEPAU_Node@?$_Tree_nod@V?$_Tmap_traits@VBrn@OpenHome@@PAVObjectType@Stack@Net@2@VBufferCmp@2@V?$allocator@U?$pair@$$CBVBrn@OpenHome@@PAVObjectType@Stack@Net@2@@std@@@std@@$0A@@std@@@2@I@Z 00416430 f i libohNetCore:Stack.obj
 0001:00015460       ??E?$_Tree_const_iterator@V?$_Tree_val@V?$_Tmap_traits@VBrn@OpenHome@@PAVObjectType@Stack@Net@2@VBufferCmp@2@V?$allocator@U?$pair@$$CBVBrn@OpenHome@@PAVObjectType@Stack@Net@2@@std@@@std@@$0A@@std@@@std@@@std@@QAE?AV01@H@Z 00416460 f i libohNetCore:Stack.obj
 0001:00015530       ??0?$_Tree_unchecked_const_iterator@V?$_Tree_val@V?$_Tmap_traits@VBrn@OpenHome@@PAVObjectType@Stack@Net@2@VBufferCmp@2@V?$allocator@U?$pair@$$CBVBrn@OpenHome@@PAVObjectType@Stack@Net@2@@std@@@std@@$0A@@std@@@std@@U_Iterator_base12@2@@std@@QAE@PAU_Node@?$_Tree_nod@V?$_Tmap_traits@VBrn@OpenHome@@PAVObjectType@Stack@Net@2@VBufferCmp@2@V?$allocator@U?$pair@$$CBVBrn@OpenHome@@PAVObjectType@Stack@Net@2@@std@@@std@@$0A@@std@@@1@PBV?$_Tree_val@V?$_Tmap_traits@VBrn@OpenHome@@PAVObjectType@Stack@Net@2@VBufferCmp@2@V?$allocator@U?$pair@$$CBVBrn@OpenHome@@PAVObjectType@Stack@Net@2@@std@@@std@@$0A@@std@@@1@@Z 00416530 f i libohNetCore:Stack.obj
 0001:000155b0       ??E?$_Tree_const_iterator@V?$_Tree_val@V?$_Tmap_traits@PAXPAXU?$less@PAX@std@@V?$allocator@U?$pair@QAXPAX@std@@@2@$0A@@std@@@std@@@std@@QAE?AV01@H@Z 004165b0 f i libohNetCore:Stack.obj
 0001:00015680       ??0?$_Tree_unchecked_const_iterator@V?$_Tree_val@V?$_Tmap_traits@PAXPAXU?$less@PAX@std@@V?$allocator@U?$pair@QAXPAX@std@@@2@$0A@@std@@@std@@U_Iterator_base12@2@@std@@QAE@PAU_Node@?$_Tree_nod@V?$_Tmap_traits@PAXPAXU?$less@PAX@std@@V?$allocator@U?$pair@QAXPAX@std@@@2@$0A@@std@@@1@PBV?$_Tree_val@V?$_Tmap_traits@PAXPAXU?$less@PAX@std@@V?$allocator@U?$pair@QAXPAX@std@@@2@$0A@@std@@@1@@Z 00416680 f i libohNetCore:Stack.obj
 0001:00015700       ??0?$_Iterator012@Ubidirectional_iterator_tag@std@@U?$pair@$$CBVBrn@OpenHome@@PAVObjectType@Stack@Net@2@@2@HPBU32@ABU32@U_Iterator_base12@2@@std@@QAE@XZ 00416700 f i libohNetCore:Stack.obj
 0001:00015730       ??0?$_Iterator012@Ubidirectional_iterator_tag@std@@U?$pair@QAXPAX@2@HPBU32@ABU32@U_Iterator_base12@2@@std@@QAE@XZ 00416730 f i libohNetCore:Stack.obj
 0001:00015760       ?_Erase@?$_Tree@V?$_Tmap_traits@PAXPAXU?$less@PAX@std@@V?$allocator@U?$pair@QAXPAX@std@@@2@$0A@@std@@@std@@IAEXPAU_Node@?$_Tree_nod@V?$_Tmap_traits@PAXPAXU?$less@PAX@std@@V?$allocator@U?$pair@QAXPAX@std@@@2@$0A@@std@@@2@@Z 00416760 f i libohNetCore:Stack.obj
 0001:00015800       ??0?$_Tmap_traits@PAXPAXU?$less@PAX@std@@V?$allocator@U?$pair@QAXPAX@std@@@2@$0A@@std@@QAE@U?$less@PAX@1@@Z 00416800 f i libohNetCore:Stack.obj
 0001:00015830       ?_Erase@?$_Tree@V?$_Tmap_traits@VBrn@OpenHome@@PAVObjectType@Stack@Net@2@VBufferCmp@2@V?$allocator@U?$pair@$$CBVBrn@OpenHome@@PAVObjectType@Stack@Net@2@@std@@@std@@$0A@@std@@@std@@IAEXPAU_Node@?$_Tree_nod@V?$_Tmap_traits@VBrn@OpenHome@@PAVObjectType@Stack@Net@2@VBufferCmp@2@V?$allocator@U?$pair@$$CBVBrn@OpenHome@@PAVObjectType@Stack@Net@2@@std@@@std@@$0A@@std@@@2@@Z 00416830 f i libohNetCore:Stack.obj
 0001:000158d0       ??0?$_Tmap_traits@VBrn@OpenHome@@PAVObjectType@Stack@Net@2@VBufferCmp@2@V?$allocator@U?$pair@$$CBVBrn@OpenHome@@PAVObjectType@Stack@Net@2@@std@@@std@@$0A@@std@@QAE@VBufferCmp@OpenHome@@@Z 004168d0 f i libohNetCore:Stack.obj
 0001:00015900       ??$?0AAVBrn@OpenHome@@AAPAVObjectType@Stack@Net@1@@?$pair@VBrn@OpenHome@@PAVObjectType@Stack@Net@2@@std@@QAE@AAVBrn@OpenHome@@AAPAVObjectType@Stack@Net@3@@Z 00416900 f i libohNetCore:Stack.obj
 0001:00015940       ??$insert@U?$pair@VBrn@OpenHome@@PAVObjectType@Stack@Net@2@@std@@@?$_Tree@V?$_Tmap_traits@VBrn@OpenHome@@PAVObjectType@Stack@Net@2@VBufferCmp@2@V?$allocator@U?$pair@$$CBVBrn@OpenHome@@PAVObjectType@Stack@Net@2@@std@@@std@@$0A@@std@@@std@@QAE?AU?$pair@V?$_Tree_iterator@V?$_Tree_val@V?$_Tmap_traits@VBrn@OpenHome@@PAVObjectType@Stack@Net@2@VBufferCmp@2@V?$allocator@U?$pair@$$CBVBrn@OpenHome@@PAVObjectType@Stack@Net@2@@std@@@std@@$0A@@std@@@std@@@std@@_N@1@$$QAU?$pair@VBrn@OpenHome@@PAVObjectType@Stack@Net@2@@1@@Z 00416940 f i libohNetCore:Stack.obj
 0001:000159a0       ??$?0AAPAXAAPAX@?$pair@PAXPAX@std@@QAE@AAPAX0@Z 004169a0 f i libohNetCore:Stack.obj
 0001:000159e0       ??$insert@U?$pair@PAXPAX@std@@@?$_Tree@V?$_Tmap_traits@PAXPAXU?$less@PAX@std@@V?$allocator@U?$pair@QAXPAX@std@@@2@$0A@@std@@@std@@QAE?AU?$pair@V?$_Tree_iterator@V?$_Tree_val@V?$_Tmap_traits@PAXPAXU?$less@PAX@std@@V?$allocator@U?$pair@QAXPAX@std@@@2@$0A@@std@@@std@@@std@@_N@1@$$QAU?$pair@PAXPAX@1@@Z 004169e0 f i libohNetCore:Stack.obj
 0001:00015a40       ??$swap@D@std@@YGXAAD0@Z   00416a40 f i libohNetCore:Stack.obj
 0001:00015ad0       ??$addressof@U?$pair@QAXPAX@std@@@std@@YGPAU?$pair@QAXPAX@0@AAU10@@Z 00416ad0 f i libohNetCore:Stack.obj
 0001:00015ae0       ??$_Dest_val@V?$allocator@U?$pair@QAXPAX@std@@@std@@U?$pair@QAXPAX@2@@std@@YGXAAV?$allocator@U?$pair@QAXPAX@std@@@0@PAU?$pair@QAXPAX@0@@Z 00416ae0 f i libohNetCore:Stack.obj
 0001:00015b00       ??$_Debug_lt_pred@U?$less@PAX@std@@PAXPAX@std@@YG_NU?$less@PAX@0@ABQAXAAPAXPB_WI@Z 00416b00 f i libohNetCore:Stack.obj
 0001:00015b60       ??$addressof@QAVMListener@Stack@Net@OpenHome@@@std@@YGPBQAVMListener@Stack@Net@OpenHome@@ABQAV1234@@Z 00416b60 f i libohNetCore:Stack.obj
 0001:00015b70       ??$_Cons_val@V?$allocator@PAVMListener@Stack@Net@OpenHome@@@std@@PAVMListener@Stack@Net@OpenHome@@AAPAV3456@@std@@YGXAAV?$allocator@PAVMListener@Stack@Net@OpenHome@@@0@PAPAVMListener@Stack@Net@OpenHome@@AAPAV2345@@Z 00416b70 f i libohNetCore:Stack.obj
 0001:00015ba0       ??$_Cons_val@V?$allocator@PAVMListener@Stack@Net@OpenHome@@@std@@PAVMListener@Stack@Net@OpenHome@@ABQAV3456@@std@@YGXAAV?$allocator@PAVMListener@Stack@Net@OpenHome@@@0@PAPAVMListener@Stack@Net@OpenHome@@ABQAV2345@@Z 00416ba0 f i libohNetCore:Stack.obj
 0001:00015bd0       ??$_Move@PAPAVMListener@Stack@Net@OpenHome@@PAPAV1234@@std@@YGPAPAVMListener@Stack@Net@OpenHome@@PAPAV1234@00@Z 00416bd0 f i libohNetCore:Stack.obj
 0001:00015c20       ??$addressof@U?$pair@$$CBVBrn@OpenHome@@PAVObjectType@Stack@Net@2@@std@@@std@@YGPAU?$pair@$$CBVBrn@OpenHome@@PAVObjectType@Stack@Net@2@@0@AAU10@@Z 00416c20 f i libohNetCore:Stack.obj
 0001:00015c30       ??$_Dest_val@V?$allocator@U?$pair@$$CBVBrn@OpenHome@@PAVObjectType@Stack@Net@2@@std@@@std@@U?$pair@$$CBVBrn@OpenHome@@PAVObjectType@Stack@Net@2@@2@@std@@YGXAAV?$allocator@U?$pair@$$CBVBrn@OpenHome@@PAVObjectType@Stack@Net@2@@std@@@0@PAU?$pair@$$CBVBrn@OpenHome@@PAVObjectType@Stack@Net@2@@0@@Z 00416c30 f i libohNetCore:Stack.obj
 0001:00015c50       ??$_Debug_lt_pred@VBufferCmp@OpenHome@@VBrn@2@V32@@std@@YG_NVBufferCmp@OpenHome@@ABVBrn@2@AAV32@PB_WI@Z 00416c50 f i libohNetCore:Stack.obj
 0001:00015cb0       ??$_Kfn@QAXPAX@?$_Tmap_traits@PAXPAXU?$less@PAX@std@@V?$allocator@U?$pair@QAXPAX@std@@@2@$0A@@std@@SGABQAXABU?$pair@QAXPAX@1@@Z 00416cb0 f i libohNetCore:Stack.obj
 0001:00015cc0       ??$_Destroy_range@V?$allocator@PAVMListener@Stack@Net@OpenHome@@@std@@@std@@YGXPAPAVMListener@Stack@Net@OpenHome@@0AAV?$allocator@PAVMListener@Stack@Net@OpenHome@@@0@@Z 00416cc0 f i libohNetCore:Stack.obj
 0001:00015d10       ??$?0PAVMListener@Stack@Net@OpenHome@@@?$allocator@U_Container_proxy@std@@@std@@QAE@ABV?$allocator@PAVMListener@Stack@Net@OpenHome@@@1@@Z 00416d10 f i libohNetCore:Stack.obj
 0001:00015d30       ??$_Cons_val@V?$allocator@U_Container_proxy@std@@@std@@U_Container_proxy@2@U32@@std@@YGXAAV?$allocator@U_Container_proxy@std@@@0@PAU_Container_proxy@0@$$QAU20@@Z 00416d30 f i libohNetCore:Stack.obj
 0001:00015d60       ??$_Kfn@$$CBVBrn@OpenHome@@PAVObjectType@Stack@Net@2@@?$_Tmap_traits@VBrn@OpenHome@@PAVObjectType@Stack@Net@2@VBufferCmp@2@V?$allocator@U?$pair@$$CBVBrn@OpenHome@@PAVObjectType@Stack@Net@2@@std@@@std@@$0A@@std@@SGABVBrn@OpenHome@@ABU?$pair@$$CBVBrn@OpenHome@@PAVObjectType@Stack@Net@2@@1@@Z 00416d60 f i libohNetCore:Stack.obj
 0001:00015d70       ??$_Debug_lt_pred@U?$less@PAX@std@@PAXPAX@std@@YG_NU?$less@PAX@0@AAPAXABQAXPB_WI@Z 00416d70 f i libohNetCore:Stack.obj
 0001:00015dd0       ??$?0U_Node@?$_Tree_nod@V?$_Tmap_traits@PAXPAXU?$less@PAX@std@@V?$allocator@U?$pair@QAXPAX@std@@@2@$0A@@std@@@std@@@?$allocator@U_Container_proxy@std@@@std@@QAE@ABV?$allocator@U_Node@?$_Tree_nod@V?$_Tmap_traits@PAXPAXU?$less@PAX@std@@V?$allocator@U?$pair@QAXPAX@std@@@2@$0A@@std@@@std@@@1@@Z 00416dd0 f i libohNetCore:Stack.obj
 0001:00015df0       ??$_Umove@PAPAVMListener@Stack@Net@OpenHome@@@?$vector@PAVMListener@Stack@Net@OpenHome@@V?$allocator@PAVMListener@Stack@Net@OpenHome@@@std@@@std@@IAEPAPAVMListener@Stack@Net@OpenHome@@PAPAV2345@00@Z 00416df0 f i libohNetCore:Stack.obj
 0001:00015e30       ??$_Debug_lt_pred@VBufferCmp@OpenHome@@VBrn@2@V32@@std@@YG_NVBufferCmp@OpenHome@@AAVBrn@2@ABV32@PB_WI@Z 00416e30 f i libohNetCore:Stack.obj
 0001:00015e90       ??$?0U_Node@?$_Tree_nod@V?$_Tmap_traits@VBrn@OpenHome@@PAVObjectType@Stack@Net@2@VBufferCmp@2@V?$allocator@U?$pair@$$CBVBrn@OpenHome@@PAVObjectType@Stack@Net@2@@std@@@std@@$0A@@std@@@std@@@?$allocator@U_Container_proxy@std@@@std@@QAE@ABV?$allocator@U_Node@?$_Tree_nod@V?$_Tmap_traits@VBrn@OpenHome@@PAVObjectType@Stack@Net@2@VBufferCmp@2@V?$allocator@U?$pair@$$CBVBrn@OpenHome@@PAVObjectType@Stack@Net@2@@std@@@std@@$0A@@std@@@std@@@1@@Z 00416e90 f i libohNetCore:Stack.obj
 0001:00015eb0       ??$_Allocate@U_Container_proxy@std@@@std@@YGPAU_Container_proxy@0@IPAU10@@Z 00416eb0 f i libohNetCore:Stack.obj
 0001:00015f30       ??0bad_alloc@std@@QAE@PBD@Z 00416f30 f i libohNetCore:Stack.obj
 0001:00015f70       ??$?0U?$pair@QAXPAX@std@@@?$allocator@U_Node@?$_Tree_nod@V?$_Tmap_traits@PAXPAXU?$less@PAX@std@@V?$allocator@U?$pair@QAXPAX@std@@@2@$0A@@std@@@std@@@std@@QAE@ABV?$allocator@U?$pair@QAXPAX@std@@@1@@Z 00416f70 f i libohNetCore:Stack.obj
 0001:00015f90       ??$_Allocate@U_Node@?$_Tree_nod@V?$_Tmap_traits@PAXPAXU?$less@PAX@std@@V?$allocator@U?$pair@QAXPAX@std@@@2@$0A@@std@@@std@@@std@@YGPAU_Node@?$_Tree_nod@V?$_Tmap_traits@PAXPAXU?$less@PAX@std@@V?$allocator@U?$pair@QAXPAX@std@@@2@$0A@@std@@@0@IPAU120@@Z 00416f90 f i libohNetCore:Stack.obj
 0001:00016010       ??$_Allocate@PAVMListener@Stack@Net@OpenHome@@@std@@YGPAPAVMListener@Stack@Net@OpenHome@@IPAPAV1234@@Z 00417010 f i libohNetCore:Stack.obj
 0001:00016090       ??$?0U?$pair@$$CBVBrn@OpenHome@@PAVObjectType@Stack@Net@2@@std@@@?$allocator@U_Node@?$_Tree_nod@V?$_Tmap_traits@VBrn@OpenHome@@PAVObjectType@Stack@Net@2@VBufferCmp@2@V?$allocator@U?$pair@$$CBVBrn@OpenHome@@PAVObjectType@Stack@Net@2@@std@@@std@@$0A@@std@@@std@@@std@@QAE@ABV?$allocator@U?$pair@$$CBVBrn@OpenHome@@PAVObjectType@Stack@Net@2@@std@@@1@@Z 00417090 f i libohNetCore:Stack.obj
 0001:000160b0       ??$_Allocate@U_Node@?$_Tree_nod@V?$_Tmap_traits@VBrn@OpenHome@@PAVObjectType@Stack@Net@2@VBufferCmp@2@V?$allocator@U?$pair@$$CBVBrn@OpenHome@@PAVObjectType@Stack@Net@2@@std@@@std@@$0A@@std@@@std@@@std@@YGPAU_Node@?$_Tree_nod@V?$_Tmap_traits@VBrn@OpenHome@@PAVObjectType@Stack@Net@2@VBufferCmp@2@V?$allocator@U?$pair@$$CBVBrn@OpenHome@@PAVObjectType@Stack@Net@2@@std@@@std@@$0A@@std@@@0@IPAU120@@Z 004170b0 f i libohNetCore:Stack.obj
 0001:00016130       ?_Linsert@?$_Tree@V?$_Tmap_traits@PAXPAXU?$less@PAX@std@@V?$allocator@U?$pair@QAXPAX@std@@@2@$0A@@std@@@std@@QAE?AU?$pair@V?$_Tree_iterator@V?$_Tree_val@V?$_Tmap_traits@PAXPAXU?$less@PAX@std@@V?$allocator@U?$pair@QAXPAX@std@@@2@$0A@@std@@@std@@@std@@_N@2@PAU_Node@?$_Tree_nod@V?$_Tmap_traits@PAXPAXU?$less@PAX@std@@V?$allocator@U?$pair@QAXPAX@std@@@2@$0A@@std@@@2@_N@Z 00417130 f i libohNetCore:Stack.obj
 0001:00016510       ?destroy@?$allocator@U?$pair@QAXPAX@std@@@std@@QAEXPAU?$pair@QAXPAX@2@@Z 00417510 f i libohNetCore:Stack.obj
 0001:00016540       ??R?$less@PAX@std@@QBE_NABQAX0@Z 00417540 f i libohNetCore:Stack.obj
 0001:00016570       ?construct@?$allocator@PAVMListener@Stack@Net@OpenHome@@@std@@QAEXPAPAVMListener@Stack@Net@OpenHome@@ABQAV3456@@Z 00417570 f i libohNetCore:Stack.obj
 0001:000165a0       ?_Linsert@?$_Tree@V?$_Tmap_traits@VBrn@OpenHome@@PAVObjectType@Stack@Net@2@VBufferCmp@2@V?$allocator@U?$pair@$$CBVBrn@OpenHome@@PAVObjectType@Stack@Net@2@@std@@@std@@$0A@@std@@@std@@QAE?AU?$pair@V?$_Tree_iterator@V?$_Tree_val@V?$_Tmap_traits@VBrn@OpenHome@@PAVObjectType@Stack@Net@2@VBufferCmp@2@V?$allocator@U?$pair@$$CBVBrn@OpenHome@@PAVObjectType@Stack@Net@2@@std@@@std@@$0A@@std@@@std@@@std@@_N@2@PAU_Node@?$_Tree_nod@V?$_Tmap_traits@VBrn@OpenHome@@PAVObjectType@Stack@Net@2@VBufferCmp@2@V?$allocator@U?$pair@$$CBVBrn@OpenHome@@PAVObjectType@Stack@Net@2@@std@@@std@@$0A@@std@@@2@_N@Z 004175a0 f i libohNetCore:Stack.obj
 0001:00016980       ?destroy@?$allocator@U?$pair@$$CBVBrn@OpenHome@@PAVObjectType@Stack@Net@2@@std@@@std@@QAEXPAU?$pair@$$CBVBrn@OpenHome@@PAVObjectType@Stack@Net@2@@2@@Z 00417980 f i libohNetCore:Stack.obj
 0001:000169b0       ?construct@?$allocator@U_Container_proxy@std@@@std@@QAEXPAU_Container_proxy@2@$$QAU32@@Z 004179b0 f i libohNetCore:Stack.obj
 0001:00016a60       ??2@YAPAXIPAX@Z            00417a60 f i libohNetCore:Stack.obj
 0001:00016a70       ??3@YAXPAX0@Z              00417a70 f i libohNetCore:Stack.obj
 0001:00016a80       ?_Insert@?$_Tree@V?$_Tmap_traits@PAXPAXU?$less@PAX@std@@V?$allocator@U?$pair@QAXPAX@std@@@2@$0A@@std@@@std@@IAE?AV?$_Tree_iterator@V?$_Tree_val@V?$_Tmap_traits@PAXPAXU?$less@PAX@std@@V?$allocator@U?$pair@QAXPAX@std@@@2@$0A@@std@@@std@@@2@_NPAU_Node@?$_Tree_nod@V?$_Tmap_traits@PAXPAXU?$less@PAX@std@@V?$allocator@U?$pair@QAXPAX@std@@@2@$0A@@std@@@2@1@Z 00417a80 f i libohNetCore:Stack.obj
 0001:00016e40       ?_Insert@?$_Tree@V?$_Tmap_traits@VBrn@OpenHome@@PAVObjectType@Stack@Net@2@VBufferCmp@2@V?$allocator@U?$pair@$$CBVBrn@OpenHome@@PAVObjectType@Stack@Net@2@@std@@@std@@$0A@@std@@@std@@IAE?AV?$_Tree_iterator@V?$_Tree_val@V?$_Tmap_traits@VBrn@OpenHome@@PAVObjectType@Stack@Net@2@VBufferCmp@2@V?$allocator@U?$pair@$$CBVBrn@OpenHome@@PAVObjectType@Stack@Net@2@@std@@@std@@$0A@@std@@@std@@@2@_NPAU_Node@?$_Tree_nod@V?$_Tmap_traits@VBrn@OpenHome@@PAVObjectType@Stack@Net@2@VBufferCmp@2@V?$allocator@U?$pair@$$CBVBrn@OpenHome@@PAVObjectType@Stack@Net@2@@std@@@std@@$0A@@std@@@2@1@Z 00417e40 f i libohNetCore:Stack.obj
 0001:00017200       ??F?$_Tree_iterator@V?$_Tree_val@V?$_Tmap_traits@VBrn@OpenHome@@PAVObjectType@Stack@Net@2@VBufferCmp@2@V?$allocator@U?$pair@$$CBVBrn@OpenHome@@PAVObjectType@Stack@Net@2@@std@@@std@@$0A@@std@@@std@@@std@@QAEAAV01@XZ 00418200 f i libohNetCore:Stack.obj
 0001:00017230       ??0?$pair@V?$_Tree_iterator@V?$_Tree_val@V?$_Tmap_traits@VBrn@OpenHome@@PAVObjectType@Stack@Net@2@VBufferCmp@2@V?$allocator@U?$pair@$$CBVBrn@OpenHome@@PAVObjectType@Stack@Net@2@@std@@@std@@$0A@@std@@@std@@@std@@_N@std@@QAE@$$QAV?$_Tree_iterator@V?$_Tree_val@V?$_Tmap_traits@VBrn@OpenHome@@PAVObjectType@Stack@Net@2@VBufferCmp@2@V?$allocator@U?$pair@$$CBVBrn@OpenHome@@PAVObjectType@Stack@Net@2@@std@@@std@@$0A@@std@@@std@@@1@$$QA_N@Z 00418230 f i libohNetCore:Stack.obj
 0001:00017270       ??0?$pair@V?$_Tree_iterator@V?$_Tree_val@V?$_Tmap_traits@PAXPAXU?$less@PAX@std@@V?$allocator@U?$pair@QAXPAX@std@@@2@$0A@@std@@@std@@@std@@_N@std@@QAE@$$QAV?$_Tree_iterator@V?$_Tree_val@V?$_Tmap_traits@PAXPAXU?$less@PAX@std@@V?$allocator@U?$pair@QAXPAX@std@@@2@$0A@@std@@@std@@@1@$$QA_N@Z 00418270 f i libohNetCore:Stack.obj
 0001:000172b0       ??F?$_Tree_iterator@V?$_Tree_val@V?$_Tmap_traits@PAXPAXU?$less@PAX@std@@V?$allocator@U?$pair@QAXPAX@std@@@2@$0A@@std@@@std@@@std@@QAEAAV01@XZ 004182b0 f i libohNetCore:Stack.obj
 0001:000172e0       ?max_size@?$_Tree@V?$_Tmap_traits@PAXPAXU?$less@PAX@std@@V?$allocator@U?$pair@QAXPAX@std@@@2@$0A@@std@@@std@@QBEIXZ 004182e0 f i libohNetCore:Stack.obj
 0001:00017310       ?max_size@?$_Tree@V?$_Tmap_traits@VBrn@OpenHome@@PAVObjectType@Stack@Net@2@VBufferCmp@2@V?$allocator@U?$pair@$$CBVBrn@OpenHome@@PAVObjectType@Stack@Net@2@@std@@@std@@$0A@@std@@@std@@QBEIXZ 00418310 f i libohNetCore:Stack.obj
 0001:00017340       ??F?$_Tree_const_iterator@V?$_Tree_val@V?$_Tmap_traits@VBrn@OpenHome@@PAVObjectType@Stack@Net@2@VBufferCmp@2@V?$allocator@U?$pair@$$CBVBrn@OpenHome@@PAVObjectType@Stack@Net@2@@std@@@std@@$0A@@std@@@std@@@std@@QAEAAV01@XZ 00418340 f i libohNetCore:Stack.obj
 0001:00017460       ??0?$_Pair_base@V?$_Tree_iterator@V?$_Tree_val@V?$_Tmap_traits@VBrn@OpenHome@@PAVObjectType@Stack@Net@2@VBufferCmp@2@V?$allocator@U?$pair@$$CBVBrn@OpenHome@@PAVObjectType@Stack@Net@2@@std@@@std@@$0A@@std@@@std@@@std@@_N@std@@QAE@$$QAV?$_Tree_iterator@V?$_Tree_val@V?$_Tmap_traits@VBrn@OpenHome@@PAVObjectType@Stack@Net@2@VBufferCmp@2@V?$allocator@U?$pair@$$CBVBrn@OpenHome@@PAVObjectType@Stack@Net@2@@std@@@std@@$0A@@std@@@std@@@1@$$QA_N@Z 00418460 f i libohNetCore:Stack.obj
 0001:000174e0       ??0?$_Pair_base@V?$_Tree_iterator@V?$_Tree_val@V?$_Tmap_traits@PAXPAXU?$less@PAX@std@@V?$allocator@U?$pair@QAXPAX@std@@@2@$0A@@std@@@std@@@std@@_N@std@@QAE@$$QAV?$_Tree_iterator@V?$_Tree_val@V?$_Tmap_traits@PAXPAXU?$less@PAX@std@@V?$allocator@U?$pair@QAXPAX@std@@@2@$0A@@std@@@std@@@1@$$QA_N@Z 004184e0 f i libohNetCore:Stack.obj
 0001:00017560       ??F?$_Tree_const_iterator@V?$_Tree_val@V?$_Tmap_traits@PAXPAXU?$less@PAX@std@@V?$allocator@U?$pair@QAXPAX@std@@@2@$0A@@std@@@std@@@std@@QAEAAV01@XZ 00418560 f i libohNetCore:Stack.obj
 0001:00017680       ?max_size@?$allocator@U?$pair@QAXPAX@std@@@std@@QBEIXZ 00418680 f i libohNetCore:Stack.obj
 0001:000176d0       ?max_size@?$allocator@U?$pair@$$CBVBrn@OpenHome@@PAVObjectType@Stack@Net@2@@std@@@std@@QBEIXZ 004186d0 f i libohNetCore:Stack.obj
 0001:00017720       ??F?$_Tree_unchecked_const_iterator@V?$_Tree_val@V?$_Tmap_traits@VBrn@OpenHome@@PAVObjectType@Stack@Net@2@VBufferCmp@2@V?$allocator@U?$pair@$$CBVBrn@OpenHome@@PAVObjectType@Stack@Net@2@@std@@@std@@$0A@@std@@@std@@U_Iterator_base12@2@@std@@QAEAAV01@XZ 00418720 f i libohNetCore:Stack.obj
 0001:00017810       ??F?$_Tree_unchecked_const_iterator@V?$_Tree_val@V?$_Tmap_traits@PAXPAXU?$less@PAX@std@@V?$allocator@U?$pair@QAXPAX@std@@@2@$0A@@std@@@std@@U_Iterator_base12@2@@std@@QAEAAV01@XZ 00418810 f i libohNetCore:Stack.obj
 0001:00017900       ??$forward@AAVBrn@OpenHome@@@std@@YGAAVBrn@OpenHome@@AAV12@@Z 00418900 f i libohNetCore:Stack.obj
 0001:00017910       ??$forward@AAPAVObjectType@Stack@Net@OpenHome@@@std@@YGAAPAVObjectType@Stack@Net@OpenHome@@AAPAV1234@@Z 00418910 f i libohNetCore:Stack.obj
 0001:00017920       ??$?0AAVBrn@OpenHome@@AAPAVObjectType@Stack@Net@1@@?$_Pair_base@VBrn@OpenHome@@PAVObjectType@Stack@Net@2@@std@@QAE@AAVBrn@OpenHome@@AAPAVObjectType@Stack@Net@3@@Z 00418920 f i libohNetCore:Stack.obj
 0001:000179a0       ??0Brn@OpenHome@@QAE@ABV01@@Z 004189a0 f i libohNetCore:Stack.obj
 0001:00017a30       ??0Brx@OpenHome@@IAE@ABV01@@Z 00418a30 f i libohNetCore:Stack.obj
 0001:00017a70       ??$forward@U?$pair@VBrn@OpenHome@@PAVObjectType@Stack@Net@2@@std@@@std@@YG$$QAU?$pair@VBrn@OpenHome@@PAVObjectType@Stack@Net@2@@0@AAU10@@Z 00418a70 f i libohNetCore:Stack.obj
 0001:00017a80       ??$_Buynode@U?$pair@VBrn@OpenHome@@PAVObjectType@Stack@Net@2@@std@@@?$_Tree_val@V?$_Tmap_traits@VBrn@OpenHome@@PAVObjectType@Stack@Net@2@VBufferCmp@2@V?$allocator@U?$pair@$$CBVBrn@OpenHome@@PAVObjectType@Stack@Net@2@@std@@@std@@$0A@@std@@@std@@QAEPAU_Node@?$_Tree_nod@V?$_Tmap_traits@VBrn@OpenHome@@PAVObjectType@Stack@Net@2@VBufferCmp@2@V?$allocator@U?$pair@$$CBVBrn@OpenHome@@PAVObjectType@Stack@Net@2@@std@@@std@@$0A@@std@@@1@$$QAU?$pair@VBrn@OpenHome@@PAVObjectType@Stack@Net@2@@1@@Z 00418a80 f i libohNetCore:Stack.obj
 0001:00017b60       ??$forward@AAPAX@std@@YGAAPAXAAPAX@Z 00418b60 f i libohNetCore:Stack.obj
 0001:00017b70       ??$?0AAPAXAAPAX@?$_Pair_base@PAXPAX@std@@QAE@AAPAX0@Z 00418b70 f i libohNetCore:Stack.obj
 0001:00017bc0       ??$forward@U?$pair@PAXPAX@std@@@std@@YG$$QAU?$pair@PAXPAX@0@AAU10@@Z 00418bc0 f i libohNetCore:Stack.obj
 0001:00017bd0       ??$_Buynode@U?$pair@PAXPAX@std@@@?$_Tree_val@V?$_Tmap_traits@PAXPAXU?$less@PAX@std@@V?$allocator@U?$pair@QAXPAX@std@@@2@$0A@@std@@@std@@QAEPAU_Node@?$_Tree_nod@V?$_Tmap_traits@PAXPAXU?$less@PAX@std@@V?$allocator@U?$pair@QAXPAX@std@@@2@$0A@@std@@@1@$$QAU?$pair@PAXPAX@1@@Z 00418bd0 f i libohNetCore:Stack.obj
 0001:00017cb0       ??$_Move@AAD@std@@YG$$QADAAD@Z 00418cb0 f i libohNetCore:Stack.obj
 0001:00017cc0       ??$forward@AAPAVMListener@Stack@Net@OpenHome@@@std@@YGAAPAVMListener@Stack@Net@OpenHome@@AAPAV1234@@Z 00418cc0 f i libohNetCore:Stack.obj
 0001:00017cd0       ??$construct@AAPAVMListener@Stack@Net@OpenHome@@@?$allocator@PAVMListener@Stack@Net@OpenHome@@@std@@QAEXPAPAVMListener@Stack@Net@OpenHome@@AAPAV2345@@Z 00418cd0 f i libohNetCore:Stack.obj
 0001:00017d70       ??$forward@ABQAVMListener@Stack@Net@OpenHome@@@std@@YGABQAVMListener@Stack@Net@OpenHome@@ABQAV1234@@Z 00418d70 f i libohNetCore:Stack.obj
 0001:00017d80       ??$_Ptr_cat@PAVMListener@Stack@Net@OpenHome@@PAV1234@@std@@YG?AU_Scalar_ptr_iterator_tag@0@PAPAVMListener@Stack@Net@OpenHome@@0@Z 00418d80 f i libohNetCore:Stack.obj
 0001:00017de0       ??$_Move@PAPAVMListener@Stack@Net@OpenHome@@PAPAV1234@@std@@YGPAPAVMListener@Stack@Net@OpenHome@@PAPAV1234@00U_Scalar_ptr_iterator_tag@0@@Z 00418de0 f i libohNetCore:Stack.obj
 0001:00017e30       ??$_Destroy_range@V?$allocator@PAVMListener@Stack@Net@OpenHome@@@std@@@std@@YGXPAPAVMListener@Stack@Net@OpenHome@@0AAV?$allocator@PAVMListener@Stack@Net@OpenHome@@@0@U_Scalar_ptr_iterator_tag@0@@Z 00418e30 f i libohNetCore:Stack.obj
 0001:00017e40       ??$forward@U_Container_proxy@std@@@std@@YG$$QAU_Container_proxy@0@AAU10@@Z 00418e40 f i libohNetCore:Stack.obj
 0001:00017e50       ??$_Uninitialized_move@PAPAVMListener@Stack@Net@OpenHome@@PAPAV1234@V?$allocator@PAVMListener@Stack@Net@OpenHome@@@std@@@std@@YGPAPAVMListener@Stack@Net@OpenHome@@PAPAV1234@00AAV?$allocator@PAVMListener@Stack@Net@OpenHome@@@0@@Z 00418e50 f i libohNetCore:Stack.obj
 0001:00017ea0       ??$?0AAV?$_Tree_iterator@V?$_Tree_val@V?$_Tmap_traits@PAXPAXU?$less@PAX@std@@V?$allocator@U?$pair@QAXPAX@std@@@2@$0A@@std@@@std@@@std@@_N@?$pair@V?$_Tree_iterator@V?$_Tree_val@V?$_Tmap_traits@PAXPAXU?$less@PAX@std@@V?$allocator@U?$pair@QAXPAX@std@@@2@$0A@@std@@@std@@@std@@_N@std@@QAE@AAV?$_Tree_iterator@V?$_Tree_val@V?$_Tmap_traits@PAXPAXU?$less@PAX@std@@V?$allocator@U?$pair@QAXPAX@std@@@2@$0A@@std@@@std@@@1@$$QA_N@Z 00418ea0 f i libohNetCore:Stack.obj
 0001:00017ee0       ??$_Destroy@U?$pair@QAXPAX@std@@@std@@YGXPAU?$pair@QAXPAX@0@@Z 00418ee0 f i libohNetCore:Stack.obj
 0001:00017ef0       ??$_Construct@PAVMListener@Stack@Net@OpenHome@@ABQAV1234@@std@@YGXPAPAVMListener@Stack@Net@OpenHome@@ABQAV1234@@Z 00418ef0 f i libohNetCore:Stack.obj
 0001:00017fa0       ??$?0AAV?$_Tree_iterator@V?$_Tree_val@V?$_Tmap_traits@VBrn@OpenHome@@PAVObjectType@Stack@Net@2@VBufferCmp@2@V?$allocator@U?$pair@$$CBVBrn@OpenHome@@PAVObjectType@Stack@Net@2@@std@@@std@@$0A@@std@@@std@@@std@@_N@?$pair@V?$_Tree_iterator@V?$_Tree_val@V?$_Tmap_traits@VBrn@OpenHome@@PAVObjectType@Stack@Net@2@VBufferCmp@2@V?$allocator@U?$pair@$$CBVBrn@OpenHome@@PAVObjectType@Stack@Net@2@@std@@@std@@$0A@@std@@@std@@@std@@_N@std@@QAE@AAV?$_Tree_iterator@V?$_Tree_val@V?$_Tmap_traits@VBrn@OpenHome@@PAVObjectType@Stack@Net@2@VBufferCmp@2@V?$allocator@U?$pair@$$CBVBrn@OpenHome@@PAVObjectType@Stack@Net@2@@std@@@std@@$0A@@std@@@std@@@1@$$QA_N@Z 00418fa0 f i libohNetCore:Stack.obj
 0001:00017fe0       ??$_Destroy@U?$pair@$$CBVBrn@OpenHome@@PAVObjectType@Stack@Net@2@@std@@@std@@YGXPAU?$pair@$$CBVBrn@OpenHome@@PAVObjectType@Stack@Net@2@@0@@Z 00418fe0 f i libohNetCore:Stack.obj
 0001:00018000       ??$move@AAV?$_Tree_iterator@V?$_Tree_val@V?$_Tmap_traits@VBrn@OpenHome@@PAVObjectType@Stack@Net@2@VBufferCmp@2@V?$allocator@U?$pair@$$CBVBrn@OpenHome@@PAVObjectType@Stack@Net@2@@std@@@std@@$0A@@std@@@std@@@std@@@std@@YG$$QAV?$_Tree_iterator@V?$_Tree_val@V?$_Tmap_traits@VBrn@OpenHome@@PAVObjectType@Stack@Net@2@VBufferCmp@2@V?$allocator@U?$pair@$$CBVBrn@OpenHome@@PAVObjectType@Stack@Net@2@@std@@@std@@$0A@@std@@@std@@@0@AAV10@@Z 00419000 f i libohNetCore:Stack.obj
 0001:00018010       ??$move@AA_N@std@@YG$$QA_NAA_N@Z 00419010 f i libohNetCore:Stack.obj
 0001:00018020       ??$move@AAV?$_Tree_iterator@V?$_Tree_val@V?$_Tmap_traits@PAXPAXU?$less@PAX@std@@V?$allocator@U?$pair@QAXPAX@std@@@2@$0A@@std@@@std@@@std@@@std@@YG$$QAV?$_Tree_iterator@V?$_Tree_val@V?$_Tmap_traits@PAXPAXU?$less@PAX@std@@V?$allocator@U?$pair@QAXPAX@std@@@2@$0A@@std@@@std@@@0@AAV10@@Z 00419020 f i libohNetCore:Stack.obj
 0001:00018030       ??_G?$pair@$$CBVBrn@OpenHome@@PAVObjectType@Stack@Net@2@@std@@QAEPAXI@Z 00419030 f i libohNetCore:Stack.obj
 0001:00018070       ??1?$pair@$$CBVBrn@OpenHome@@PAVObjectType@Stack@Net@2@@std@@QAE@XZ 00419070 f i libohNetCore:Stack.obj
 0001:000180a0       ??1?$_Pair_base@$$CBVBrn@OpenHome@@PAVObjectType@Stack@Net@2@@std@@QAE@XZ 004190a0 f i libohNetCore:Stack.obj
 0001:000180d0       ?_Buynode@?$_Tree_val@V?$_Tmap_traits@PAXPAXU?$less@PAX@std@@V?$allocator@U?$pair@QAXPAX@std@@@2@$0A@@std@@@std@@QAEPAU_Node@?$_Tree_nod@V?$_Tmap_traits@PAXPAXU?$less@PAX@std@@V?$allocator@U?$pair@QAXPAX@std@@@2@$0A@@std@@@2@XZ 004190d0 f i libohNetCore:Stack.obj
 0001:00018160       ?_Buynode@?$_Tree_val@V?$_Tmap_traits@VBrn@OpenHome@@PAVObjectType@Stack@Net@2@VBufferCmp@2@V?$allocator@U?$pair@$$CBVBrn@OpenHome@@PAVObjectType@Stack@Net@2@@std@@@std@@$0A@@std@@@std@@QAEPAU_Node@?$_Tree_nod@V?$_Tmap_traits@VBrn@OpenHome@@PAVObjectType@Stack@Net@2@VBufferCmp@2@V?$allocator@U?$pair@$$CBVBrn@OpenHome@@PAVObjectType@Stack@Net@2@@std@@@std@@$0A@@std@@@2@XZ 00419160 f i libohNetCore:Stack.obj
 0001:000181f0       ??$_Cons_val@V?$allocator@U?$pair@$$CBVBrn@OpenHome@@PAVObjectType@Stack@Net@2@@std@@@std@@U?$pair@$$CBVBrn@OpenHome@@PAVObjectType@Stack@Net@2@@2@U?$pair@VBrn@OpenHome@@PAVObjectType@Stack@Net@2@@2@@std@@YGXAAV?$allocator@U?$pair@$$CBVBrn@OpenHome@@PAVObjectType@Stack@Net@2@@std@@@0@PAU?$pair@$$CBVBrn@OpenHome@@PAVObjectType@Stack@Net@2@@0@$$QAU?$pair@VBrn@OpenHome@@PAVObjectType@Stack@Net@2@@0@@Z 004191f0 f i libohNetCore:Stack.obj
 0001:00018220       ??$_Cons_val@V?$allocator@U?$pair@QAXPAX@std@@@std@@U?$pair@QAXPAX@2@U?$pair@PAXPAX@2@@std@@YGXAAV?$allocator@U?$pair@QAXPAX@std@@@0@PAU?$pair@QAXPAX@0@$$QAU?$pair@PAXPAX@0@@Z 00419220 f i libohNetCore:Stack.obj
 0001:00018250       ??$_Val_type@PAPAVMListener@Stack@Net@OpenHome@@@std@@YGPAPAVMListener@Stack@Net@OpenHome@@PAPAV1234@@Z 00419250 f i libohNetCore:Stack.obj
 0001:00018260       ??$_Uninit_move@PAVMListener@Stack@Net@OpenHome@@PAV1234@PAV1234@@std@@YGPAPAVMListener@Stack@Net@OpenHome@@PAPAV1234@00AAV?$allocator@PAVMListener@Stack@Net@OpenHome@@@0@0U_Scalar_ptr_iterator_tag@0@@Z 00419260 f i libohNetCore:Stack.obj
 0001:000182d0       ??$forward@AAV?$_Tree_iterator@V?$_Tree_val@V?$_Tmap_traits@PAXPAXU?$less@PAX@std@@V?$allocator@U?$pair@QAXPAX@std@@@2@$0A@@std@@@std@@@std@@@std@@YGAAV?$_Tree_iterator@V?$_Tree_val@V?$_Tmap_traits@PAXPAXU?$less@PAX@std@@V?$allocator@U?$pair@QAXPAX@std@@@2@$0A@@std@@@std@@@0@AAV10@@Z 004192d0 f i libohNetCore:Stack.obj
 0001:000182e0       ??$forward@_N@std@@YG$$QA_NAA_N@Z 004192e0 f i libohNetCore:Stack.obj
 0001:000182f0       ??$?0AAV?$_Tree_iterator@V?$_Tree_val@V?$_Tmap_traits@PAXPAXU?$less@PAX@std@@V?$allocator@U?$pair@QAXPAX@std@@@2@$0A@@std@@@std@@@std@@_N@?$_Pair_base@V?$_Tree_iterator@V?$_Tree_val@V?$_Tmap_traits@PAXPAXU?$less@PAX@std@@V?$allocator@U?$pair@QAXPAX@std@@@2@$0A@@std@@@std@@@std@@_N@std@@QAE@AAV?$_Tree_iterator@V?$_Tree_val@V?$_Tmap_traits@PAXPAXU?$less@PAX@std@@V?$allocator@U?$pair@QAXPAX@std@@@2@$0A@@std@@@std@@@1@$$QA_N@Z 004192f0 f i libohNetCore:Stack.obj
 0001:00018370       ??$forward@AAV?$_Tree_iterator@V?$_Tree_val@V?$_Tmap_traits@VBrn@OpenHome@@PAVObjectType@Stack@Net@2@VBufferCmp@2@V?$allocator@U?$pair@$$CBVBrn@OpenHome@@PAVObjectType@Stack@Net@2@@std@@@std@@$0A@@std@@@std@@@std@@@std@@YGAAV?$_Tree_iterator@V?$_Tree_val@V?$_Tmap_traits@VBrn@OpenHome@@PAVObjectType@Stack@Net@2@VBufferCmp@2@V?$allocator@U?$pair@$$CBVBrn@OpenHome@@PAVObjectType@Stack@Net@2@@std@@@std@@$0A@@std@@@std@@@0@AAV10@@Z 00419370 f i libohNetCore:Stack.obj
 0001:00018380       ??$?0AAV?$_Tree_iterator@V?$_Tree_val@V?$_Tmap_traits@VBrn@OpenHome@@PAVObjectType@Stack@Net@2@VBufferCmp@2@V?$allocator@U?$pair@$$CBVBrn@OpenHome@@PAVObjectType@Stack@Net@2@@std@@@std@@$0A@@std@@@std@@@std@@_N@?$_Pair_base@V?$_Tree_iterator@V?$_Tree_val@V?$_Tmap_traits@VBrn@OpenHome@@PAVObjectType@Stack@Net@2@VBufferCmp@2@V?$allocator@U?$pair@$$CBVBrn@OpenHome@@PAVObjectType@Stack@Net@2@@std@@@std@@$0A@@std@@@std@@@std@@_N@std@@QAE@AAV?$_Tree_iterator@V?$_Tree_val@V?$_Tmap_traits@VBrn@OpenHome@@PAVObjectType@Stack@Net@2@VBufferCmp@2@V?$allocator@U?$pair@$$CBVBrn@OpenHome@@PAVObjectType@Stack@Net@2@@std@@@std@@$0A@@std@@@std@@@1@$$QA_N@Z 00419380 f i libohNetCore:Stack.obj
 0001:00018400       ??$construct@U?$pair@VBrn@OpenHome@@PAVObjectType@Stack@Net@2@@std@@@?$allocator@U?$pair@$$CBVBrn@OpenHome@@PAVObjectType@Stack@Net@2@@std@@@std@@QAEXPAU?$pair@$$CBVBrn@OpenHome@@PAVObjectType@Stack@Net@2@@1@$$QAU?$pair@VBrn@OpenHome@@PAVObjectType@Stack@Net@2@@1@@Z 00419400 f i libohNetCore:Stack.obj
 0001:000184a0       ??$construct@U?$pair@PAXPAX@std@@@?$allocator@U?$pair@QAXPAX@std@@@std@@QAEXPAU?$pair@QAXPAX@1@$$QAU?$pair@PAXPAX@1@@Z 004194a0 f i libohNetCore:Stack.obj
 0001:00018540       ??$_Debug_range@PAPAVMListener@Stack@Net@OpenHome@@@std@@YGXPAPAVMListener@Stack@Net@OpenHome@@0PB_WI@Z 00419540 f i libohNetCore:Stack.obj
 0001:00018590       ??$_Debug_pointer@PAVMListener@Stack@Net@OpenHome@@@std@@YGXPAPAVMListener@Stack@Net@OpenHome@@PB_WI@Z 00419590 f i libohNetCore:Stack.obj
 0001:000185c0       ??$?0VBrn@OpenHome@@PAVObjectType@Stack@Net@1@@?$pair@$$CBVBrn@OpenHome@@PAVObjectType@Stack@Net@2@@std@@QAE@$$QAU?$pair@VBrn@OpenHome@@PAVObjectType@Stack@Net@2@@1@@Z 004195c0 f i libohNetCore:Stack.obj
 0001:00018600       ??$?0PAXPAX@?$pair@QAXPAX@std@@QAE@$$QAU?$pair@PAXPAX@1@@Z 00419600 f i libohNetCore:Stack.obj
 0001:00018640       ??$_Iter_cat@PAPAVMListener@Stack@Net@OpenHome@@@std@@YG?AUrandom_access_iterator_tag@0@ABQAPAVMListener@Stack@Net@OpenHome@@@Z 00419640 f i libohNetCore:Stack.obj
 0001:000186a0       ??$_Debug_range2@PAPAVMListener@Stack@Net@OpenHome@@@std@@YGXPAPAVMListener@Stack@Net@OpenHome@@0PB_WIUrandom_access_iterator_tag@0@@Z 004196a0 f i libohNetCore:Stack.obj
 0001:00018700       ??$forward@VBrn@OpenHome@@@std@@YG$$QAVBrn@OpenHome@@AAV12@@Z 00419700 f i libohNetCore:Stack.obj
 0001:00018710       ??$forward@PAVObjectType@Stack@Net@OpenHome@@@std@@YG$$QAPAVObjectType@Stack@Net@OpenHome@@AAPAV1234@@Z 00419710 f i libohNetCore:Stack.obj
 0001:00018720       ??$?0VBrn@OpenHome@@PAVObjectType@Stack@Net@1@@?$_Pair_base@$$CBVBrn@OpenHome@@PAVObjectType@Stack@Net@2@@std@@QAE@$$QAVBrn@OpenHome@@$$QAPAVObjectType@Stack@Net@3@@Z 00419720 f i libohNetCore:Stack.obj
 0001:000187a0       ??$forward@PAX@std@@YG$$QAPAXAAPAX@Z 004197a0 f i libohNetCore:Stack.obj
 0001:000187b0       ??$?0PAXPAX@?$_Pair_base@QAXPAX@std@@QAE@$$QAPAX0@Z 004197b0 f i libohNetCore:Stack.obj
 0001:00018800       ??0Endpoint@OpenHome@@QAE@XZ 00419800 f   libohNetCore:Network.obj
 0001:00018830       ??0Endpoint@OpenHome@@QAE@IABVBrx@1@@Z 00419830 f   libohNetCore:Network.obj
 0001:00018870       ??0Endpoint@OpenHome@@QAE@II@Z 00419870 f   libohNetCore:Network.obj
 0001:000188a0       ?SetPort@Endpoint@OpenHome@@QAEXI@Z 004198a0 f   libohNetCore:Network.obj
 0001:000188c0       ?SetPort@Endpoint@OpenHome@@QAEXABV12@@Z 004198c0 f   libohNetCore:Network.obj
 0001:000188f0       ?SetAddress@Endpoint@OpenHome@@QAEXABVBrx@2@@Z 004198f0 f   libohNetCore:Network.obj
 0001:00018940       ?SetAddress@Endpoint@OpenHome@@QAEXI@Z 00419940 f   libohNetCore:Network.obj
 0001:00018960       ?SetAddress@Endpoint@OpenHome@@QAEXABV12@@Z 00419960 f   libohNetCore:Network.obj
 0001:00018980       ?Address@Endpoint@OpenHome@@QBEIXZ 00419980 f   libohNetCore:Network.obj
 0001:000189a0       ?Port@Endpoint@OpenHome@@QBEGXZ 004199a0 f   libohNetCore:Network.obj
 0001:000189c0       ?AppendAddress@Endpoint@OpenHome@@QBEXAAVBwx@2@@Z 004199c0 f   libohNetCore:Network.obj
 0001:00018a90       ?AppendEndpoint@Endpoint@OpenHome@@QBEXAAVBwx@2@@Z 00419a90 f   libohNetCore:Network.obj
 0001:00018b10       ?GetAddressOctets@Endpoint@OpenHome@@QBEXAAY03E@Z 00419b10 f   libohNetCore:Network.obj
 0001:00018b70       ?Replace@Endpoint@OpenHome@@QAEXABV12@@Z 00419b70 f   libohNetCore:Network.obj
 0001:00018bb0       ?Equals@Endpoint@OpenHome@@QBE_NABV12@@Z 00419bb0 f   libohNetCore:Network.obj
 0001:00018c00       ??0Socket@OpenHome@@IAE@XZ 00419c00 f   libohNetCore:Network.obj
 0001:00018c40       ?Interrupt@Socket@OpenHome@@QAEX_N@Z 00419c40 f   libohNetCore:Network.obj
 0001:00018d10       ?Close@Socket@OpenHome@@QAEXXZ 00419d10 f   libohNetCore:Network.obj
 0001:00018dd0       ?SetSendBufBytes@Socket@OpenHome@@QAEXI@Z 00419dd0 f   libohNetCore:Network.obj
 0001:00018e00       ?SetRecvBufBytes@Socket@OpenHome@@QAEXI@Z 00419e00 f   libohNetCore:Network.obj
 0001:00018e30       ?SetRecvTimeout@Socket@OpenHome@@QAEXI@Z 00419e30 f   libohNetCore:Network.obj
 0001:00018e60       ?LogVerbose@Socket@OpenHome@@QAEX_N0@Z 00419e60 f   libohNetCore:Network.obj
 0001:00018ed0       ?Send@Socket@OpenHome@@IAEXABVBrx@2@@Z 00419ed0 f   libohNetCore:Network.obj
 0001:000190d0       ?SendTo@Socket@OpenHome@@IAEXABVBrx@2@ABVEndpoint@2@@Z 0041a0d0 f   libohNetCore:Network.obj
 0001:000192e0       ?Receive@Socket@OpenHome@@IAEXAAVBwx@2@@Z 0041a2e0 f   libohNetCore:Network.obj
 0001:00019490       ?Receive@Socket@OpenHome@@IAEXAAVBwx@2@I@Z 0041a490 f   libohNetCore:Network.obj
 0001:00019730       ?ReceiveFrom@Socket@OpenHome@@IAEXAAVBwx@2@AAVEndpoint@2@@Z 0041a730 f   libohNetCore:Network.obj
 0001:000198d0       ?Bind@Socket@OpenHome@@IAEXABVEndpoint@2@@Z 0041a8d0 f   libohNetCore:Network.obj
 0001:00019a10       ?GetPort@Socket@OpenHome@@IAEXAAI@Z 0041aa10 f   libohNetCore:Network.obj
 0001:00019b50       ?Listen@Socket@OpenHome@@IAEXI@Z 0041ab50 f   libohNetCore:Network.obj
 0001:00019c90       ?Accept@Socket@OpenHome@@IAEPAXXZ 0041ac90 f   libohNetCore:Network.obj
 0001:00019e00       ?Log@Socket@OpenHome@@AAEXPBDABVBrx@2@@Z 0041ae00 f   libohNetCore:Network.obj
 0001:0001a0a0       ??0AutoSocket@OpenHome@@QAE@AAVSocket@1@@Z 0041b0a0 f   libohNetCore:Network.obj
 0001:0001a0e0       ??1AutoSocket@OpenHome@@QAE@XZ 0041b0e0 f   libohNetCore:Network.obj
 0001:0001a110       ??0SocketTcp@OpenHome@@IAE@XZ 0041b110 f   libohNetCore:Network.obj
 0001:0001a1e0       ?Receive@SocketTcp@OpenHome@@QAEXAAVBwx@2@I@Z 0041b1e0 f   libohNetCore:Network.obj
 0001:0001a250       ?Write@SocketTcp@OpenHome@@UAEXE@Z 0041b250 f   libohNetCore:Network.obj
 0001:0001a320       ?Write@SocketTcp@OpenHome@@UAEXABVBrx@2@@Z 0041b320 f   libohNetCore:Network.obj
 0001:0001a440       ?WriteFlush@SocketTcp@OpenHome@@UAEXXZ 0041b440 f   libohNetCore:Network.obj
 0001:0001a460       ?Read@SocketTcp@OpenHome@@UAEXAAVBwx@2@@Z 0041b460 f   libohNetCore:Network.obj
 0001:0001a600       ?ReadFlush@SocketTcp@OpenHome@@UAEXXZ 0041b600 f   libohNetCore:Network.obj
 0001:0001a620       ?ReadInterrupt@SocketTcp@OpenHome@@UAEXXZ 0041b620 f   libohNetCore:Network.obj
 0001:0001a650       ?Open@SocketTcpClient@OpenHome@@QAEXXZ 0041b650 f   libohNetCore:Network.obj
 0001:0001a750       ?Connect@SocketTcpClient@OpenHome@@QAEXABVEndpoint@2@I@Z 0041b750 f   libohNetCore:Network.obj
 0001:0001a7c0       ??0SocketTcpServer@OpenHome@@QAE@PBDIIIII@Z 0041b7c0 f   libohNetCore:Network.obj
 0001:0001a910       ?Add@SocketTcpServer@OpenHome@@QAEXPBDPAVSocketTcpSession@2@H@Z 0041b910 f   libohNetCore:Network.obj
 0001:0001aa40       ?Accept@SocketTcpServer@OpenHome@@AAEPAXXZ 0041ba40 f   libohNetCore:Network.obj
 0001:0001abe0       ?Terminating@SocketTcpServer@OpenHome@@AAE_NXZ 0041bbe0 f   libohNetCore:Network.obj
 0001:0001ac40       ??1SocketTcpServer@OpenHome@@UAE@XZ 0041bc40 f   libohNetCore:Network.obj
 0001:0001add0       ??0SocketTcpSession@OpenHome@@IAE@XZ 0041bdd0 f   libohNetCore:Network.obj
 0001:0001ae70       ?Add@SocketTcpSession@OpenHome@@AAEXAAVSocketTcpServer@2@PBDII@Z 0041be70 f   libohNetCore:Network.obj
 0001:0001af80       ?Start@SocketTcpSession@OpenHome@@AAEXXZ 0041bf80 f   libohNetCore:Network.obj
 0001:0001b1c0       ?Open@SocketTcpSession@OpenHome@@AAEXPAX@Z 0041c1c0 f   libohNetCore:Network.obj
 0001:0001b310       ?Close@SocketTcpSession@OpenHome@@AAEXXZ 0041c310 f   libohNetCore:Network.obj
 0001:0001b420       ??1SocketTcpSession@OpenHome@@MAE@XZ 0041c420 f   libohNetCore:Network.obj
 0001:0001b580       ??0SocketUdp@OpenHome@@QAE@XZ 0041c580 f   libohNetCore:Network.obj
 0001:0001b6b0       ??0SocketUdp@OpenHome@@QAE@I@Z 0041c6b0 f   libohNetCore:Network.obj
 0001:0001b7e0       ??0SocketUdp@OpenHome@@QAE@II@Z 0041c7e0 f   libohNetCore:Network.obj
 0001:0001b920       ?SetTtl@SocketUdp@OpenHome@@QAEXI@Z 0041c920 f   libohNetCore:Network.obj
 0001:0001b9c0       ??1SocketUdp@OpenHome@@UAE@XZ 0041c9c0 f   libohNetCore:Network.obj
 0001:0001ba30       ?Port@SocketUdp@OpenHome@@QBEIXZ 0041ca30 f   libohNetCore:Network.obj
 0001:0001ba50       ?Send@SocketUdp@OpenHome@@QAEXABVBrx@2@ABVEndpoint@2@@Z 0041ca50 f   libohNetCore:Network.obj
 0001:0001bab0       ?Receive@SocketUdp@OpenHome@@QAE?AVEndpoint@2@AAVBwx@2@@Z 0041cab0 f   libohNetCore:Network.obj
 0001:0001bba0       ??0SocketUdpMulticast@OpenHome@@QAE@IABVEndpoint@1@@Z 0041cba0 f   libohNetCore:Network.obj
 0001:0001bce0       ??1SocketUdpMulticast@OpenHome@@UAE@XZ 0041cce0 f   libohNetCore:Network.obj
 0001:0001bdd0       ??0UdpReader@OpenHome@@QAE@AAVSocketUdp@1@@Z 0041cdd0 f   libohNetCore:Network.obj
 0001:0001be60       ?Sender@UdpReader@OpenHome@@QBE?AVEndpoint@2@XZ 0041ce60 f   libohNetCore:Network.obj
 0001:0001be90       ?Read@UdpReader@OpenHome@@UAEXAAVBwx@2@@Z 0041ce90 f   libohNetCore:Network.obj
 0001:0001bff0       ?ReadFlush@UdpReader@OpenHome@@UAEXXZ 0041cff0 f   libohNetCore:Network.obj
 0001:0001c010       ?ReadInterrupt@UdpReader@OpenHome@@UAEXXZ 0041d010 f   libohNetCore:Network.obj
 0001:0001c040       ??0UdpWriter@OpenHome@@QAE@AAVSocketUdp@1@ABVEndpoint@1@@Z 0041d040 f   libohNetCore:Network.obj
 0001:0001c0e0       ?Write@UdpWriter@OpenHome@@UAEXE@Z 0041d0e0 f   libohNetCore:Network.obj
 0001:0001c110       ?Write@UdpWriter@OpenHome@@UAEXABVBrx@2@@Z 0041d110 f   libohNetCore:Network.obj
 0001:0001c260       ?WriteFlush@UdpWriter@OpenHome@@UAEXXZ 0041d260 f   libohNetCore:Network.obj
 0001:0001c280       ??_GSocket@OpenHome@@MAEPAXI@Z 0041d280 f i libohNetCore:Network.obj
 0001:0001c280       ??_ESocket@OpenHome@@MAEPAXI@Z 0041d280 f i libohNetCore:Network.obj
 0001:0001c2c0       ??1Socket@OpenHome@@MAE@XZ 0041d2c0 f i libohNetCore:Network.obj
 0001:0001c2e0       ?NetworkInterrupt@Os@OpenHome@@SGHPAX_N@Z 0041d2e0 f i libohNetCore:Network.obj
 0001:0001c310       ?NetworkClose@Os@OpenHome@@SGHPAX@Z 0041d310 f i libohNetCore:Network.obj
 0001:0001c330       ??0NetworkError@OpenHome@@QAE@PBDI@Z 0041d330 f i libohNetCore:Network.obj
 0001:0001c370       ?NetworkSend@Os@OpenHome@@SGHPAXABVBrx@2@@Z 0041d370 f i libohNetCore:Network.obj
 0001:0001c3b0       ??1NetworkError@OpenHome@@QAE@XZ 0041d3b0 f i libohNetCore:Network.obj
 0001:0001c3e0       ?NetworkSendTo@Os@OpenHome@@SGHPAXABVBrx@2@ABVEndpoint@2@@Z 0041d3e0 f i libohNetCore:Network.obj
 0001:0001c430       ?NetworkReceive@Os@OpenHome@@SGHPAXAAVBwx@2@@Z 0041d430 f i libohNetCore:Network.obj
 0001:0001c470       ?NetworkListen@Os@OpenHome@@SGHPAXI@Z 0041d470 f i libohNetCore:Network.obj
 0001:0001c490       ?NetworkAccept@Os@OpenHome@@SGPAXPAX@Z 0041d490 f i libohNetCore:Network.obj
 0001:0001c4b0       ??1IReaderSource@OpenHome@@UAE@XZ 0041d4b0 f i libohNetCore:Network.obj
 0001:0001c4d0       ??_EIReaderSource@OpenHome@@UAEPAXI@Z 0041d4d0 f i libohNetCore:Network.obj
 0001:0001c4d0       ??_GIReaderSource@OpenHome@@UAEPAXI@Z 0041d4d0 f i libohNetCore:Network.obj
 0001:0001c510       ??1IWriter@OpenHome@@UAE@XZ 0041d510 f i libohNetCore:Network.obj
 0001:0001c530       ??_GIWriter@OpenHome@@UAEPAXI@Z 0041d530 f i libohNetCore:Network.obj
 0001:0001c530       ??_EIWriter@OpenHome@@UAEPAXI@Z 0041d530 f i libohNetCore:Network.obj
 0001:0001c570       ??_GSocketTcp@OpenHome@@UAEPAXI@Z 0041d570 f i libohNetCore:Network.obj
 0001:0001c570       ??_ESocketTcp@OpenHome@@UAEPAXI@Z 0041d570 f i libohNetCore:Network.obj
 0001:0001c5b0       ??0IWriter@OpenHome@@QAE@XZ 0041d5b0 f i libohNetCore:Network.obj
 0001:0001c5d0       ??0IReaderSource@OpenHome@@QAE@XZ 0041d5d0 f i libohNetCore:Network.obj
 0001:0001c5f0       ??1SocketTcp@OpenHome@@UAE@XZ 0041d5f0 f i libohNetCore:Network.obj
 0001:0001c670       ??0WriterError@OpenHome@@QAE@PBDI@Z 0041d670 f i libohNetCore:Network.obj
 0001:0001c6b0       ??1WriterError@OpenHome@@QAE@XZ 0041d6b0 f i libohNetCore:Network.obj
 0001:0001c6e0       ??0ReaderError@OpenHome@@QAE@PBDI@Z 0041d6e0 f i libohNetCore:Network.obj
 0001:0001c720       ??1ReaderError@OpenHome@@QAE@XZ 0041d720 f i libohNetCore:Network.obj
 0001:0001c750       ??_GSocketTcpServer@OpenHome@@UAEPAXI@Z 0041d750 f i libohNetCore:Network.obj
 0001:0001c750       ??_ESocketTcpServer@OpenHome@@UAEPAXI@Z 0041d750 f i libohNetCore:Network.obj
 0001:0001c790       ??_ESocketTcpSession@OpenHome@@MAEPAXI@Z 0041d790 f i libohNetCore:Network.obj
 0001:0001c790       ??_GSocketTcpSession@OpenHome@@MAEPAXI@Z 0041d790 f i libohNetCore:Network.obj
 0001:0001c7d0       ??_ESocketUdp@OpenHome@@UAEPAXI@Z 0041d7d0 f i libohNetCore:Network.obj
 0001:0001c7d0       ??_GSocketUdp@OpenHome@@UAEPAXI@Z 0041d7d0 f i libohNetCore:Network.obj
 0001:0001c810       ??_ESocketUdpMulticast@OpenHome@@UAEPAXI@Z 0041d810 f i libohNetCore:Network.obj
 0001:0001c810       ??_GSocketUdpMulticast@OpenHome@@UAEPAXI@Z 0041d810 f i libohNetCore:Network.obj
 0001:0001c850       ??_GUdpReader@OpenHome@@UAEPAXI@Z 0041d850 f i libohNetCore:Network.obj
 0001:0001c850       ??_EUdpReader@OpenHome@@UAEPAXI@Z 0041d850 f i libohNetCore:Network.obj
 0001:0001c890       ??1UdpReader@OpenHome@@UAE@XZ 0041d890 f i libohNetCore:Network.obj
 0001:0001c8c0       ??_GUdpWriter@OpenHome@@UAEPAXI@Z 0041d8c0 f i libohNetCore:Network.obj
 0001:0001c8c0       ??_EUdpWriter@OpenHome@@UAEPAXI@Z 0041d8c0 f i libohNetCore:Network.obj
 0001:0001c900       ??1UdpWriter@OpenHome@@UAE@XZ 0041d900 f i libohNetCore:Network.obj
 0001:0001c930       ??0?$vector@PAVSocketTcpSession@OpenHome@@V?$allocator@PAVSocketTcpSession@OpenHome@@@std@@@std@@QAE@XZ 0041d930 f i libohNetCore:Network.obj
 0001:0001c970       ??1?$vector@PAVSocketTcpSession@OpenHome@@V?$allocator@PAVSocketTcpSession@OpenHome@@@std@@@std@@QAE@XZ 0041d970 f i libohNetCore:Network.obj
 0001:0001c9e0       ?size@?$vector@PAVSocketTcpSession@OpenHome@@V?$allocator@PAVSocketTcpSession@OpenHome@@@std@@@std@@QBEIXZ 0041d9e0 f i libohNetCore:Network.obj
 0001:0001ca10       ??A?$vector@PAVSocketTcpSession@OpenHome@@V?$allocator@PAVSocketTcpSession@OpenHome@@@std@@@std@@QAEAAPAVSocketTcpSession@OpenHome@@I@Z 0041da10 f i libohNetCore:Network.obj
 0001:0001cab0       ?push_back@?$vector@PAVSocketTcpSession@OpenHome@@V?$allocator@PAVSocketTcpSession@OpenHome@@@std@@@std@@QAEXABQAVSocketTcpSession@OpenHome@@@Z 0041dab0 f i libohNetCore:Network.obj
 0001:0001cbc0       ?pop_back@?$vector@PAVSocketTcpSession@OpenHome@@V?$allocator@PAVSocketTcpSession@OpenHome@@@std@@@std@@QAEXXZ 0041dbc0 f i libohNetCore:Network.obj
 0001:0001cc50       ?empty@?$vector@PAVSocketTcpSession@OpenHome@@V?$allocator@PAVSocketTcpSession@OpenHome@@@std@@@std@@QBE_NXZ 0041dc50 f i libohNetCore:Network.obj
 0001:0001cc80       ?_Inside@?$vector@PAVSocketTcpSession@OpenHome@@V?$allocator@PAVSocketTcpSession@OpenHome@@@std@@@std@@IBE_NPBQAVSocketTcpSession@OpenHome@@@Z 0041dc80 f i libohNetCore:Network.obj
 0001:0001ccd0       ?_Reserve@?$vector@PAVSocketTcpSession@OpenHome@@V?$allocator@PAVSocketTcpSession@OpenHome@@@std@@@std@@IAEXI@Z 0041dcd0 f i libohNetCore:Network.obj
 0001:0001cd50       ?_Tidy@?$vector@PAVSocketTcpSession@OpenHome@@V?$allocator@PAVSocketTcpSession@OpenHome@@@std@@@std@@IAEXXZ 0041dd50 f i libohNetCore:Network.obj
 0001:0001cde0       ?_Orphan_range@?$vector@PAVSocketTcpSession@OpenHome@@V?$allocator@PAVSocketTcpSession@OpenHome@@@std@@@std@@IBEXPAPAVSocketTcpSession@OpenHome@@0@Z 0041dde0 f i libohNetCore:Network.obj
 0001:0001cef0       ??0?$_Vector_val@PAVSocketTcpSession@OpenHome@@V?$allocator@PAVSocketTcpSession@OpenHome@@@std@@@std@@QAE@V?$allocator@PAVSocketTcpSession@OpenHome@@@1@@Z 0041def0 f i libohNetCore:Network.obj
 0001:0001d010       ??1?$_Vector_val@PAVSocketTcpSession@OpenHome@@V?$allocator@PAVSocketTcpSession@OpenHome@@@std@@@std@@QAE@XZ 0041e010 f i libohNetCore:Network.obj
 0001:0001d0f0       ??0?$allocator@PAVSocketTcpSession@OpenHome@@@std@@QAE@XZ 0041e0f0 f i libohNetCore:Network.obj
 0001:0001d110       ?reserve@?$vector@PAVSocketTcpSession@OpenHome@@V?$allocator@PAVSocketTcpSession@OpenHome@@@std@@@std@@QAEXI@Z 0041e110 f i libohNetCore:Network.obj
 0001:0001d280       ?capacity@?$vector@PAVSocketTcpSession@OpenHome@@V?$allocator@PAVSocketTcpSession@OpenHome@@@std@@@std@@QBEIXZ 0041e280 f i libohNetCore:Network.obj
 0001:0001d2b0       ?max_size@?$vector@PAVSocketTcpSession@OpenHome@@V?$allocator@PAVSocketTcpSession@OpenHome@@@std@@@std@@QBEIXZ 0041e2b0 f i libohNetCore:Network.obj
 0001:0001d2e0       ?_Destroy@?$vector@PAVSocketTcpSession@OpenHome@@V?$allocator@PAVSocketTcpSession@OpenHome@@@std@@@std@@IAEXPAPAVSocketTcpSession@OpenHome@@0@Z 0041e2e0 f i libohNetCore:Network.obj
 0001:0001d320       ?_Grow_to@?$vector@PAVSocketTcpSession@OpenHome@@V?$allocator@PAVSocketTcpSession@OpenHome@@@std@@@std@@IBEII@Z 0041e320 f i libohNetCore:Network.obj
 0001:0001d3a0       ?_Xlen@?$vector@PAVSocketTcpSession@OpenHome@@V?$allocator@PAVSocketTcpSession@OpenHome@@@std@@@std@@IBEXXZ 0041e3a0 f i libohNetCore:Network.obj
 0001:0001d3d0       ??0?$allocator@PAVSocketTcpSession@OpenHome@@@std@@QAE@ABV01@@Z 0041e3d0 f i libohNetCore:Network.obj
 0001:0001d3f0       ?deallocate@?$allocator@PAVSocketTcpSession@OpenHome@@@std@@QAEXPAPAVSocketTcpSession@OpenHome@@I@Z 0041e3f0 f i libohNetCore:Network.obj
 0001:0001d420       ?allocate@?$allocator@PAVSocketTcpSession@OpenHome@@@std@@QAEPAPAVSocketTcpSession@OpenHome@@I@Z 0041e420 f i libohNetCore:Network.obj
 0001:0001d450       ?max_size@?$allocator@PAVSocketTcpSession@OpenHome@@@std@@QBEIXZ 0041e450 f i libohNetCore:Network.obj
 0001:0001d4a0       ??$MakeFunctor@VSocketTcpSession@OpenHome@@XV12@@OpenHome@@YG?AV?$MemberTranslator@VSocketTcpSession@OpenHome@@P812@AEXXZ@0@AAVSocketTcpSession@0@ABQ820@AEXXZ@Z 0041e4a0 f i libohNetCore:Network.obj
 0001:0001d4d0       ??$addressof@QAVSocketTcpSession@OpenHome@@@std@@YGPBQAVSocketTcpSession@OpenHome@@ABQAV12@@Z 0041e4d0 f i libohNetCore:Network.obj
 0001:0001d4e0       ??$_Cons_val@V?$allocator@PAVSocketTcpSession@OpenHome@@@std@@PAVSocketTcpSession@OpenHome@@AAPAV34@@std@@YGXAAV?$allocator@PAVSocketTcpSession@OpenHome@@@0@PAPAVSocketTcpSession@OpenHome@@AAPAV23@@Z 0041e4e0 f i libohNetCore:Network.obj
 0001:0001d510       ??$_Cons_val@V?$allocator@PAVSocketTcpSession@OpenHome@@@std@@PAVSocketTcpSession@OpenHome@@ABQAV34@@std@@YGXAAV?$allocator@PAVSocketTcpSession@OpenHome@@@0@PAPAVSocketTcpSession@OpenHome@@ABQAV23@@Z 0041e510 f i libohNetCore:Network.obj
 0001:0001d540       ??$_Dest_val@V?$allocator@PAVSocketTcpSession@OpenHome@@@std@@PAVSocketTcpSession@OpenHome@@@std@@YGXAAV?$allocator@PAVSocketTcpSession@OpenHome@@@0@PAPAVSocketTcpSession@OpenHome@@@Z 0041e540 f i libohNetCore:Network.obj
 0001:0001d560       ??$?0PAVSocketTcpSession@OpenHome@@@?$allocator@U_Container_proxy@std@@@std@@QAE@ABV?$allocator@PAVSocketTcpSession@OpenHome@@@1@@Z 0041e560 f i libohNetCore:Network.obj
 0001:0001d580       ??$_Umove@PAPAVSocketTcpSession@OpenHome@@@?$vector@PAVSocketTcpSession@OpenHome@@V?$allocator@PAVSocketTcpSession@OpenHome@@@std@@@std@@IAEPAPAVSocketTcpSession@OpenHome@@PAPAV23@00@Z 0041e580 f i libohNetCore:Network.obj
 0001:0001d5c0       ??$_Destroy_range@V?$allocator@PAVSocketTcpSession@OpenHome@@@std@@@std@@YGXPAPAVSocketTcpSession@OpenHome@@0AAV?$allocator@PAVSocketTcpSession@OpenHome@@@0@@Z 0041e5c0 f i libohNetCore:Network.obj
 0001:0001d610       ??$_Allocate@PAVSocketTcpSession@OpenHome@@@std@@YGPAPAVSocketTcpSession@OpenHome@@IPAPAV12@@Z 0041e610 f i libohNetCore:Network.obj
 0001:0001d690       ?construct@?$allocator@PAVSocketTcpSession@OpenHome@@@std@@QAEXPAPAVSocketTcpSession@OpenHome@@ABQAV34@@Z 0041e690 f i libohNetCore:Network.obj
 0001:0001d6c0       ?destroy@?$allocator@PAVSocketTcpSession@OpenHome@@@std@@QAEXPAPAVSocketTcpSession@OpenHome@@@Z 0041e6c0 f i libohNetCore:Network.obj
 0001:0001d6f0       ??0?$MemberTranslator@VSocketTcpSession@OpenHome@@P812@AEXXZ@OpenHome@@QAE@AAVSocketTcpSession@1@ABQ821@AEXXZ@Z 0041e6f0 f i libohNetCore:Network.obj
 0001:0001d730       ?Thunk@?$MemberTranslator@VSocketTcpSession@OpenHome@@P812@AEXXZ@OpenHome@@SGXABVFunctor@2@@Z 0041e730 f i libohNetCore:Network.obj
 0001:0001d780       ??$forward@AAPAVSocketTcpSession@OpenHome@@@std@@YGAAPAVSocketTcpSession@OpenHome@@AAPAV12@@Z 0041e780 f i libohNetCore:Network.obj
 0001:0001d790       ??$construct@AAPAVSocketTcpSession@OpenHome@@@?$allocator@PAVSocketTcpSession@OpenHome@@@std@@QAEXPAPAVSocketTcpSession@OpenHome@@AAPAV23@@Z 0041e790 f i libohNetCore:Network.obj
 0001:0001d830       ??$forward@ABQAVSocketTcpSession@OpenHome@@@std@@YGABQAVSocketTcpSession@OpenHome@@ABQAV12@@Z 0041e830 f i libohNetCore:Network.obj
 0001:0001d840       ??$_Uninitialized_move@PAPAVSocketTcpSession@OpenHome@@PAPAV12@V?$allocator@PAVSocketTcpSession@OpenHome@@@std@@@std@@YGPAPAVSocketTcpSession@OpenHome@@PAPAV12@00AAV?$allocator@PAVSocketTcpSession@OpenHome@@@0@@Z 0041e840 f i libohNetCore:Network.obj
 0001:0001d890       ??$_Ptr_cat@PAVSocketTcpSession@OpenHome@@PAV12@@std@@YG?AU_Scalar_ptr_iterator_tag@0@PAPAVSocketTcpSession@OpenHome@@0@Z 0041e890 f i libohNetCore:Network.obj
 0001:0001d8f0       ??$_Destroy_range@V?$allocator@PAVSocketTcpSession@OpenHome@@@std@@@std@@YGXPAPAVSocketTcpSession@OpenHome@@0AAV?$allocator@PAVSocketTcpSession@OpenHome@@@0@U_Scalar_ptr_iterator_tag@0@@Z 0041e8f0 f i libohNetCore:Network.obj
 0001:0001d900       ??$_Construct@PAVSocketTcpSession@OpenHome@@ABQAV12@@std@@YGXPAPAVSocketTcpSession@OpenHome@@ABQAV12@@Z 0041e900 f i libohNetCore:Network.obj
 0001:0001d9b0       ??$_Destroy@PAVSocketTcpSession@OpenHome@@@std@@YGXPAPAVSocketTcpSession@OpenHome@@@Z 0041e9b0 f i libohNetCore:Network.obj
 0001:0001d9c0       ??$_Val_type@PAPAVSocketTcpSession@OpenHome@@@std@@YGPAPAVSocketTcpSession@OpenHome@@PAPAV12@@Z 0041e9c0 f i libohNetCore:Network.obj
 0001:0001d9d0       ??$_Uninit_move@PAVSocketTcpSession@OpenHome@@PAV12@PAV12@@std@@YGPAPAVSocketTcpSession@OpenHome@@PAPAV12@00AAV?$allocator@PAVSocketTcpSession@OpenHome@@@0@0U_Scalar_ptr_iterator_tag@0@@Z 0041e9d0 f i libohNetCore:Network.obj
 0001:0001da40       ??$_Debug_range@PAPAVSocketTcpSession@OpenHome@@@std@@YGXPAPAVSocketTcpSession@OpenHome@@0PB_WI@Z 0041ea40 f i libohNetCore:Network.obj
 0001:0001da90       ??$_Debug_pointer@PAVSocketTcpSession@OpenHome@@@std@@YGXPAPAVSocketTcpSession@OpenHome@@PB_WI@Z 0041ea90 f i libohNetCore:Network.obj
 0001:0001dac0       ??$_Iter_cat@PAPAVSocketTcpSession@OpenHome@@@std@@YG?AUrandom_access_iterator_tag@0@ABQAPAVSocketTcpSession@OpenHome@@@Z 0041eac0 f i libohNetCore:Network.obj
 0001:0001db20       ??$_Debug_range2@PAPAVSocketTcpSession@OpenHome@@@std@@YGXPAPAVSocketTcpSession@OpenHome@@0PB_WIUrandom_access_iterator_tag@0@@Z 0041eb20 f i libohNetCore:Network.obj
 0001:0001db80       ??_ESocketTcpSession@OpenHome@@OBA@AEPAXI@Z 0041eb80 f i libohNetCore:Network.obj
 0001:0001db90       ??_ESocketTcp@OpenHome@@WM@AEPAXI@Z 0041eb90 f i libohNetCore:Network.obj
 0001:0001dba0       ??_ESocketTcp@OpenHome@@WBA@AEPAXI@Z 0041eba0 f i libohNetCore:Network.obj
 0001:0001dbb0       ??_ESocketTcpSession@OpenHome@@OM@AEPAXI@Z 0041ebb0 f i libohNetCore:Network.obj
 0001:0001dbc0       ??0NetworkAdapterList@OpenHome@@QAE@I@Z 0041ebc0 f   libohNetCore:NetworkAdapterList.obj
 0001:0001dcc0       ??1NetworkAdapterList@OpenHome@@QAE@XZ 0041ecc0 f   libohNetCore:NetworkAdapterList.obj
 0001:0001dd70       ?CurrentAdapter@NetworkAdapterList@OpenHome@@QBEPAVNetworkAdapter@2@XZ 0041ed70 f   libohNetCore:NetworkAdapterList.obj
 0001:0001de50       ?List@NetworkAdapterList@OpenHome@@QBEABV?$vector@PAVNetworkAdapter@OpenHome@@V?$allocator@PAVNetworkAdapter@OpenHome@@@std@@@std@@XZ 0041ee50 f   libohNetCore:NetworkAdapterList.obj
 0001:0001de70       ?CreateSubnetList@NetworkAdapterList@OpenHome@@QBEPAV?$vector@PAVNetworkAdapter@OpenHome@@V?$allocator@PAVNetworkAdapter@OpenHome@@@std@@@std@@XZ 0041ee70 f   libohNetCore:NetworkAdapterList.obj
 0001:0001dec0       ?DestroySubnetList@NetworkAdapterList@OpenHome@@SGXPAV?$vector@PAVNetworkAdapter@OpenHome@@V?$allocator@PAVNetworkAdapter@OpenHome@@@std@@@std@@@Z 0041eec0 f   libohNetCore:NetworkAdapterList.obj
 0001:0001df50       ?SetCurrentSubnet@NetworkAdapterList@OpenHome@@QAEXI@Z 0041ef50 f   libohNetCore:NetworkAdapterList.obj
 0001:0001dfe0       ?AddCurrentChangeListener@NetworkAdapterList@OpenHome@@QAEIVFunctor@2@@Z 0041efe0 f   libohNetCore:NetworkAdapterList.obj
 0001:0001e030       ?RemoveCurrentChangeListener@NetworkAdapterList@OpenHome@@QAEXI@Z 0041f030 f   libohNetCore:NetworkAdapterList.obj
 0001:0001e070       ?AddSubnetListChangeListener@NetworkAdapterList@OpenHome@@QAEIVFunctor@2@@Z 0041f070 f   libohNetCore:NetworkAdapterList.obj
 0001:0001e0c0       ?RemoveSubnetListChangeListener@NetworkAdapterList@OpenHome@@QAEXI@Z 0041f0c0 f   libohNetCore:NetworkAdapterList.obj
 0001:0001e100       ?CreateSubnetListLocked@NetworkAdapterList@OpenHome@@ABEPAV?$vector@PAVNetworkAdapter@OpenHome@@V?$allocator@PAVNetworkAdapter@OpenHome@@@std@@@std@@XZ 0041f100 f   libohNetCore:NetworkAdapterList.obj
 0001:0001e230       ?AddListener@NetworkAdapterList@OpenHome@@AAEIVFunctor@2@AAV?$map@IVFunctor@OpenHome@@U?$less@I@std@@V?$allocator@U?$pair@$$CBIVFunctor@OpenHome@@@std@@@4@@std@@@Z 0041f230 f   libohNetCore:NetworkAdapterList.obj
 0001:0001e2e0       ?RemoveSubnetListChangeListener@NetworkAdapterList@OpenHome@@AAEXIAAV?$map@IVFunctor@OpenHome@@U?$less@I@std@@V?$allocator@U?$pair@$$CBIVFunctor@OpenHome@@@std@@@4@@std@@@Z 0041f2e0 f   libohNetCore:NetworkAdapterList.obj
 0001:0001e410       ?InterfaceListChanged@NetworkAdapterList@OpenHome@@CGXPAX@Z 0041f410 f   libohNetCore:NetworkAdapterList.obj
 0001:0001e430       ?FindSubnet@NetworkAdapterList@OpenHome@@CGHIABV?$vector@PAVNetworkAdapter@OpenHome@@V?$allocator@PAVNetworkAdapter@OpenHome@@@std@@@std@@@Z 0041f430 f   libohNetCore:NetworkAdapterList.obj
 0001:0001e490       ?UpdateCurrentAdapter@NetworkAdapterList@OpenHome@@AAEXXZ 0041f490 f   libohNetCore:NetworkAdapterList.obj
 0001:0001e540       ?HandleInterfaceListChanged@NetworkAdapterList@OpenHome@@AAEXXZ 0041f540 f   libohNetCore:NetworkAdapterList.obj
 0001:0001e6e0       ?RunCallbacks@NetworkAdapterList@OpenHome@@AAEXAAV?$map@IVFunctor@OpenHome@@U?$less@I@std@@V?$allocator@U?$pair@$$CBIVFunctor@OpenHome@@@std@@@4@@std@@@Z 0041f6e0 f   libohNetCore:NetworkAdapterList.obj
 0001:0001e800       ?NetworkSetInterfaceChangedObserver@Os@OpenHome@@SGXP6GXPAX@Z0@Z 0041f800 f i libohNetCore:NetworkAdapterList.obj
 0001:0001e820       ??1?$map@IVFunctor@OpenHome@@U?$less@I@std@@V?$allocator@U?$pair@$$CBIVFunctor@OpenHome@@@std@@@4@@std@@QAE@XZ 0041f820 f i libohNetCore:NetworkAdapterList.obj
 0001:0001e850       ??1?$pair@V?$_Tree_iterator@V?$_Tree_val@V?$_Tmap_traits@IVFunctor@OpenHome@@U?$less@I@std@@V?$allocator@U?$pair@$$CBIVFunctor@OpenHome@@@std@@@4@$0A@@std@@@std@@@std@@_N@std@@QAE@XZ 0041f850 f i libohNetCore:NetworkAdapterList.obj
 0001:0001e880       ??1?$_Pair_base@V?$_Tree_iterator@V?$_Tree_val@V?$_Tmap_traits@IVFunctor@OpenHome@@U?$less@I@std@@V?$allocator@U?$pair@$$CBIVFunctor@OpenHome@@@std@@@4@$0A@@std@@@std@@@std@@_N@std@@QAE@XZ 0041f880 f i libohNetCore:NetworkAdapterList.obj
 0001:0001e8b0       ??1?$_Tree_iterator@V?$_Tree_val@V?$_Tmap_traits@IVFunctor@OpenHome@@U?$less@I@std@@V?$allocator@U?$pair@$$CBIVFunctor@OpenHome@@@std@@@4@$0A@@std@@@std@@@std@@QAE@XZ 0041f8b0 f i libohNetCore:NetworkAdapterList.obj
 0001:0001e8e0       ??1?$_Tree_const_iterator@V?$_Tree_val@V?$_Tmap_traits@IVFunctor@OpenHome@@U?$less@I@std@@V?$allocator@U?$pair@$$CBIVFunctor@OpenHome@@@std@@@4@$0A@@std@@@std@@@std@@QAE@XZ 0041f8e0 f i libohNetCore:NetworkAdapterList.obj
 0001:0001e910       ??1?$_Tree_unchecked_const_iterator@V?$_Tree_val@V?$_Tmap_traits@IVFunctor@OpenHome@@U?$less@I@std@@V?$allocator@U?$pair@$$CBIVFunctor@OpenHome@@@std@@@4@$0A@@std@@@std@@U_Iterator_base12@2@@std@@QAE@XZ 0041f910 f i libohNetCore:NetworkAdapterList.obj
 0001:0001e940       ??1?$_Iterator012@Ubidirectional_iterator_tag@std@@U?$pair@$$CBIVFunctor@OpenHome@@@2@HPBU32@ABU32@U_Iterator_base12@2@@std@@QAE@XZ 0041f940 f i libohNetCore:NetworkAdapterList.obj
 0001:0001e970       ??0?$_Tree_const_iterator@V?$_Tree_val@V?$_Tmap_traits@IVFunctor@OpenHome@@U?$less@I@std@@V?$allocator@U?$pair@$$CBIVFunctor@OpenHome@@@std@@@4@$0A@@std@@@std@@@std@@QAE@ABV01@@Z 0041f970 f i libohNetCore:NetworkAdapterList.obj
 0001:0001e9a0       ??0?$_Tree_unchecked_const_iterator@V?$_Tree_val@V?$_Tmap_traits@IVFunctor@OpenHome@@U?$less@I@std@@V?$allocator@U?$pair@$$CBIVFunctor@OpenHome@@@std@@@4@$0A@@std@@@std@@U_Iterator_base12@2@@std@@QAE@ABV01@@Z 0041f9a0 f i libohNetCore:NetworkAdapterList.obj
 0001:0001e9e0       ??0?$_Iterator012@Ubidirectional_iterator_tag@std@@U?$pair@$$CBIVFunctor@OpenHome@@@2@HPBU32@ABU32@U_Iterator_base12@2@@std@@QAE@ABU01@@Z 0041f9e0 f i libohNetCore:NetworkAdapterList.obj
 0001:0001ea10       ??0?$map@IVFunctor@OpenHome@@U?$less@I@std@@V?$allocator@U?$pair@$$CBIVFunctor@OpenHome@@@std@@@4@@std@@QAE@XZ 0041fa10 f i libohNetCore:NetworkAdapterList.obj
 0001:0001ea50       ??1?$_Tree@V?$_Tmap_traits@IVFunctor@OpenHome@@U?$less@I@std@@V?$allocator@U?$pair@$$CBIVFunctor@OpenHome@@@std@@@4@$0A@@std@@@std@@QAE@XZ 0041fa50 f i libohNetCore:NetworkAdapterList.obj
 0001:0001eac0       ?begin@?$_Tree@V?$_Tmap_traits@IVFunctor@OpenHome@@U?$less@I@std@@V?$allocator@U?$pair@$$CBIVFunctor@OpenHome@@@std@@@4@$0A@@std@@@std@@QAE?AV?$_Tree_iterator@V?$_Tree_val@V?$_Tmap_traits@IVFunctor@OpenHome@@U?$less@I@std@@V?$allocator@U?$pair@$$CBIVFunctor@OpenHome@@@std@@@4@$0A@@std@@@std@@@2@XZ 0041fac0 f i libohNetCore:NetworkAdapterList.obj
 0001:0001eb20       ?end@?$_Tree@V?$_Tmap_traits@IVFunctor@OpenHome@@U?$less@I@std@@V?$allocator@U?$pair@$$CBIVFunctor@OpenHome@@@std@@@4@$0A@@std@@@std@@QAE?AV?$_Tree_iterator@V?$_Tree_val@V?$_Tmap_traits@IVFunctor@OpenHome@@U?$less@I@std@@V?$allocator@U?$pair@$$CBIVFunctor@OpenHome@@@std@@@4@$0A@@std@@@std@@@2@XZ 0041fb20 f i libohNetCore:NetworkAdapterList.obj
 0001:0001eb70       ?erase@?$_Tree@V?$_Tmap_traits@IVFunctor@OpenHome@@U?$less@I@std@@V?$allocator@U?$pair@$$CBIVFunctor@OpenHome@@@std@@@4@$0A@@std@@@std@@QAE?AV?$_Tree_iterator@V?$_Tree_val@V?$_Tmap_traits@IVFunctor@OpenHome@@U?$less@I@std@@V?$allocator@U?$pair@$$CBIVFunctor@OpenHome@@@std@@@4@$0A@@std@@@std@@@2@V?$_Tree_const_iterator@V?$_Tree_val@V?$_Tmap_traits@IVFunctor@OpenHome@@U?$less@I@std@@V?$allocator@U?$pair@$$CBIVFunctor@OpenHome@@@std@@@4@$0A@@std@@@std@@@2@@Z 0041fb70 f i libohNetCore:NetworkAdapterList.obj
 0001:0001f280       ?find@?$_Tree@V?$_Tmap_traits@IVFunctor@OpenHome@@U?$less@I@std@@V?$allocator@U?$pair@$$CBIVFunctor@OpenHome@@@std@@@4@$0A@@std@@@std@@QAE?AV?$_Tree_iterator@V?$_Tree_val@V?$_Tmap_traits@IVFunctor@OpenHome@@U?$less@I@std@@V?$allocator@U?$pair@$$CBIVFunctor@OpenHome@@@std@@@4@$0A@@std@@@std@@@2@ABI@Z 00420280 f i libohNetCore:NetworkAdapterList.obj
 0001:0001f460       ??0?$vector@PAVNetworkAdapter@OpenHome@@V?$allocator@PAVNetworkAdapter@OpenHome@@@std@@@std@@QAE@XZ 00420460 f i libohNetCore:NetworkAdapterList.obj
 0001:0001f4a0       ??A?$vector@PAVNetworkAdapter@OpenHome@@V?$allocator@PAVNetworkAdapter@OpenHome@@@std@@@std@@QBEABQAVNetworkAdapter@OpenHome@@I@Z 004204a0 f i libohNetCore:NetworkAdapterList.obj
 0001:0001f540       ?push_back@?$vector@PAVNetworkAdapter@OpenHome@@V?$allocator@PAVNetworkAdapter@OpenHome@@@std@@@std@@QAEXABQAVNetworkAdapter@OpenHome@@@Z 00420540 f i libohNetCore:NetworkAdapterList.obj
 0001:0001f650       ??C?$_Tree_iterator@V?$_Tree_val@V?$_Tmap_traits@IVFunctor@OpenHome@@U?$less@I@std@@V?$allocator@U?$pair@$$CBIVFunctor@OpenHome@@@std@@@4@$0A@@std@@@std@@@std@@QBEPAU?$pair@$$CBIVFunctor@OpenHome@@@1@XZ 00420650 f i libohNetCore:NetworkAdapterList.obj
 0001:0001f680       ??E?$_Tree_iterator@V?$_Tree_val@V?$_Tmap_traits@IVFunctor@OpenHome@@U?$less@I@std@@V?$allocator@U?$pair@$$CBIVFunctor@OpenHome@@@std@@@4@$0A@@std@@@std@@@std@@QAE?AV01@H@Z 00420680 f i libohNetCore:NetworkAdapterList.obj
 0001:0001f750       ??9?$_Tree_const_iterator@V?$_Tree_val@V?$_Tmap_traits@IVFunctor@OpenHome@@U?$less@I@std@@V?$allocator@U?$pair@$$CBIVFunctor@OpenHome@@@std@@@4@$0A@@std@@@std@@@std@@QBE_NABV01@@Z 00420750 f i libohNetCore:NetworkAdapterList.obj
 0001:0001f790       ??0?$_Tree_iterator@V?$_Tree_val@V?$_Tmap_traits@IVFunctor@OpenHome@@U?$less@I@std@@V?$allocator@U?$pair@$$CBIVFunctor@OpenHome@@@std@@@4@$0A@@std@@@std@@@std@@QAE@ABV01@@Z 00420790 f i libohNetCore:NetworkAdapterList.obj
 0001:0001f7c0       ??0?$_Tree@V?$_Tmap_traits@IVFunctor@OpenHome@@U?$less@I@std@@V?$allocator@U?$pair@$$CBIVFunctor@OpenHome@@@std@@@4@$0A@@std@@@std@@QAE@ABU?$less@I@1@ABV?$allocator@U?$pair@$$CBIVFunctor@OpenHome@@@std@@@1@@Z 004207c0 f i libohNetCore:NetworkAdapterList.obj
 0001:0001f810       ?lower_bound@?$_Tree@V?$_Tmap_traits@IVFunctor@OpenHome@@U?$less@I@std@@V?$allocator@U?$pair@$$CBIVFunctor@OpenHome@@@std@@@4@$0A@@std@@@std@@QAE?AV?$_Tree_iterator@V?$_Tree_val@V?$_Tmap_traits@IVFunctor@OpenHome@@U?$less@I@std@@V?$allocator@U?$pair@$$CBIVFunctor@OpenHome@@@std@@@4@$0A@@std@@@std@@@2@ABI@Z 00420810 f i libohNetCore:NetworkAdapterList.obj
 0001:0001f870       ?_Lmost@?$_Tree@V?$_Tmap_traits@IVFunctor@OpenHome@@U?$less@I@std@@V?$allocator@U?$pair@$$CBIVFunctor@OpenHome@@@std@@@4@$0A@@std@@@std@@IBEAAPAU_Node@?$_Tree_nod@V?$_Tmap_traits@IVFunctor@OpenHome@@U?$less@I@std@@V?$allocator@U?$pair@$$CBIVFunctor@OpenHome@@@std@@@4@$0A@@std@@@2@XZ 00420870 f i libohNetCore:NetworkAdapterList.obj
 0001:0001f8a0       ?_Lrotate@?$_Tree@V?$_Tmap_traits@IVFunctor@OpenHome@@U?$less@I@std@@V?$allocator@U?$pair@$$CBIVFunctor@OpenHome@@@std@@@4@$0A@@std@@@std@@IAEXPAU_Node@?$_Tree_nod@V?$_Tmap_traits@IVFunctor@OpenHome@@U?$less@I@std@@V?$allocator@U?$pair@$$CBIVFunctor@OpenHome@@@std@@@4@$0A@@std@@@2@@Z 004208a0 f i libohNetCore:NetworkAdapterList.obj
 0001:0001f9c0       ?_Rmost@?$_Tree@V?$_Tmap_traits@IVFunctor@OpenHome@@U?$less@I@std@@V?$allocator@U?$pair@$$CBIVFunctor@OpenHome@@@std@@@4@$0A@@std@@@std@@IBEAAPAU_Node@?$_Tree_nod@V?$_Tmap_traits@IVFunctor@OpenHome@@U?$less@I@std@@V?$allocator@U?$pair@$$CBIVFunctor@OpenHome@@@std@@@4@$0A@@std@@@2@XZ 004209c0 f i libohNetCore:NetworkAdapterList.obj
 0001:0001f9f0       ?_Root@?$_Tree@V?$_Tmap_traits@IVFunctor@OpenHome@@U?$less@I@std@@V?$allocator@U?$pair@$$CBIVFunctor@OpenHome@@@std@@@4@$0A@@std@@@std@@IBEAAPAU_Node@?$_Tree_nod@V?$_Tmap_traits@IVFunctor@OpenHome@@U?$less@I@std@@V?$allocator@U?$pair@$$CBIVFunctor@OpenHome@@@std@@@4@$0A@@std@@@2@XZ 004209f0 f i libohNetCore:NetworkAdapterList.obj
 0001:0001fa20       ?_Rrotate@?$_Tree@V?$_Tmap_traits@IVFunctor@OpenHome@@U?$less@I@std@@V?$allocator@U?$pair@$$CBIVFunctor@OpenHome@@@std@@@4@$0A@@std@@@std@@IAEXPAU_Node@?$_Tree_nod@V?$_Tmap_traits@IVFunctor@OpenHome@@U?$less@I@std@@V?$allocator@U?$pair@$$CBIVFunctor@OpenHome@@@std@@@4@$0A@@std@@@2@@Z 00420a20 f i libohNetCore:NetworkAdapterList.obj
 0001:0001fb40       ?_Orphan_ptr@?$_Tree@V?$_Tmap_traits@IVFunctor@OpenHome@@U?$less@I@std@@V?$allocator@U?$pair@$$CBIVFunctor@OpenHome@@@std@@@4@$0A@@std@@@std@@IBEXAAV12@PAU_Node@?$_Tree_nod@V?$_Tmap_traits@IVFunctor@OpenHome@@U?$less@I@std@@V?$allocator@U?$pair@$$CBIVFunctor@OpenHome@@@std@@@4@$0A@@std@@@2@@Z 00420b40 f i libohNetCore:NetworkAdapterList.obj
 0001:0001fc50       ?_Tidy@?$_Tree@V?$_Tmap_traits@IVFunctor@OpenHome@@U?$less@I@std@@V?$allocator@U?$pair@$$CBIVFunctor@OpenHome@@@std@@@4@$0A@@std@@@std@@IAEXXZ 00420c50 f i libohNetCore:NetworkAdapterList.obj
 0001:0001fd50       ??1?$_Tree_val@V?$_Tmap_traits@IVFunctor@OpenHome@@U?$less@I@std@@V?$allocator@U?$pair@$$CBIVFunctor@OpenHome@@@std@@@4@$0A@@std@@@std@@QAE@XZ 00420d50 f i libohNetCore:NetworkAdapterList.obj
 0001:0001fdc0       ?_Color@?$_Tree_val@V?$_Tmap_traits@IVFunctor@OpenHome@@U?$less@I@std@@V?$allocator@U?$pair@$$CBIVFunctor@OpenHome@@@std@@@4@$0A@@std@@@std@@SGAADPAU_Node@?$_Tree_nod@V?$_Tmap_traits@IVFunctor@OpenHome@@U?$less@I@std@@V?$allocator@U?$pair@$$CBIVFunctor@OpenHome@@@std@@@4@$0A@@std@@@2@@Z 00420dc0 f i libohNetCore:NetworkAdapterList.obj
 0001:0001fdd0       ?_Isnil@?$_Tree_val@V?$_Tmap_traits@IVFunctor@OpenHome@@U?$less@I@std@@V?$allocator@U?$pair@$$CBIVFunctor@OpenHome@@@std@@@4@$0A@@std@@@std@@SGAADPAU_Node@?$_Tree_nod@V?$_Tmap_traits@IVFunctor@OpenHome@@U?$less@I@std@@V?$allocator@U?$pair@$$CBIVFunctor@OpenHome@@@std@@@4@$0A@@std@@@2@@Z 00420dd0 f i libohNetCore:NetworkAdapterList.obj
 0001:0001fde0       ?_Key@?$_Tree_val@V?$_Tmap_traits@IVFunctor@OpenHome@@U?$less@I@std@@V?$allocator@U?$pair@$$CBIVFunctor@OpenHome@@@std@@@4@$0A@@std@@@std@@SGAAIPAU_Node@?$_Tree_nod@V?$_Tmap_traits@IVFunctor@OpenHome@@U?$less@I@std@@V?$allocator@U?$pair@$$CBIVFunctor@OpenHome@@@std@@@4@$0A@@std@@@2@@Z 00420de0 f i libohNetCore:NetworkAdapterList.obj
 0001:0001fe00       ?_Left@?$_Tree_val@V?$_Tmap_traits@IVFunctor@OpenHome@@U?$less@I@std@@V?$allocator@U?$pair@$$CBIVFunctor@OpenHome@@@std@@@4@$0A@@std@@@std@@SGAAPAU_Node@?$_Tree_nod@V?$_Tmap_traits@IVFunctor@OpenHome@@U?$less@I@std@@V?$allocator@U?$pair@$$CBIVFunctor@OpenHome@@@std@@@4@$0A@@std@@@2@PAU342@@Z 00420e00 f i libohNetCore:NetworkAdapterList.obj
 0001:0001fe10       ?_Parent@?$_Tree_val@V?$_Tmap_traits@IVFunctor@OpenHome@@U?$less@I@std@@V?$allocator@U?$pair@$$CBIVFunctor@OpenHome@@@std@@@4@$0A@@std@@@std@@SGAAPAU_Node@?$_Tree_nod@V?$_Tmap_traits@IVFunctor@OpenHome@@U?$less@I@std@@V?$allocator@U?$pair@$$CBIVFunctor@OpenHome@@@std@@@4@$0A@@std@@@2@PAU342@@Z 00420e10 f i libohNetCore:NetworkAdapterList.obj
 0001:0001fe20       ?_Right@?$_Tree_val@V?$_Tmap_traits@IVFunctor@OpenHome@@U?$less@I@std@@V?$allocator@U?$pair@$$CBIVFunctor@OpenHome@@@std@@@4@$0A@@std@@@std@@SGAAPAU_Node@?$_Tree_nod@V?$_Tmap_traits@IVFunctor@OpenHome@@U?$less@I@std@@V?$allocator@U?$pair@$$CBIVFunctor@OpenHome@@@std@@@4@$0A@@std@@@2@PAU342@@Z 00420e20 f i libohNetCore:NetworkAdapterList.obj
 0001:0001fe30       ?_Myval@?$_Tree_val@V?$_Tmap_traits@IVFunctor@OpenHome@@U?$less@I@std@@V?$allocator@U?$pair@$$CBIVFunctor@OpenHome@@@std@@@4@$0A@@std@@@std@@SGAAU?$pair@$$CBIVFunctor@OpenHome@@@2@PAU_Node@?$_Tree_nod@V?$_Tmap_traits@IVFunctor@OpenHome@@U?$less@I@std@@V?$allocator@U?$pair@$$CBIVFunctor@OpenHome@@@std@@@4@$0A@@std@@@2@@Z 00420e30 f i libohNetCore:NetworkAdapterList.obj
 0001:0001fe40       ?_Max@?$_Tree_val@V?$_Tmap_traits@IVFunctor@OpenHome@@U?$less@I@std@@V?$allocator@U?$pair@$$CBIVFunctor@OpenHome@@@std@@@4@$0A@@std@@@std@@SGPAU_Node@?$_Tree_nod@V?$_Tmap_traits@IVFunctor@OpenHome@@U?$less@I@std@@V?$allocator@U?$pair@$$CBIVFunctor@OpenHome@@@std@@@4@$0A@@std@@@2@PAU342@@Z 00420e40 f i libohNetCore:NetworkAdapterList.obj
 0001:0001fe80       ?_Min@?$_Tree_val@V?$_Tmap_traits@IVFunctor@OpenHome@@U?$less@I@std@@V?$allocator@U?$pair@$$CBIVFunctor@OpenHome@@@std@@@4@$0A@@std@@@std@@SGPAU_Node@?$_Tree_nod@V?$_Tmap_traits@IVFunctor@OpenHome@@U?$less@I@std@@V?$allocator@U?$pair@$$CBIVFunctor@OpenHome@@@std@@@4@$0A@@std@@@2@PAU342@@Z 00420e80 f i libohNetCore:NetworkAdapterList.obj
 0001:0001fec0       ??0?$allocator@U?$pair@$$CBIVFunctor@OpenHome@@@std@@@std@@QAE@XZ 00420ec0 f i libohNetCore:NetworkAdapterList.obj
 0001:0001fee0       ?deallocate@?$allocator@U_Node@?$_Tree_nod@V?$_Tmap_traits@IVFunctor@OpenHome@@U?$less@I@std@@V?$allocator@U?$pair@$$CBIVFunctor@OpenHome@@@std@@@4@$0A@@std@@@std@@@std@@QAEXPAU_Node@?$_Tree_nod@V?$_Tmap_traits@IVFunctor@OpenHome@@U?$less@I@std@@V?$allocator@U?$pair@$$CBIVFunctor@OpenHome@@@std@@@4@$0A@@std@@@2@I@Z 00420ee0 f i libohNetCore:NetworkAdapterList.obj
 0001:0001ff10       ?_Inside@?$vector@PAVNetworkAdapter@OpenHome@@V?$allocator@PAVNetworkAdapter@OpenHome@@@std@@@std@@IBE_NPBQAVNetworkAdapter@OpenHome@@@Z 00420f10 f i libohNetCore:NetworkAdapterList.obj
 0001:0001ff60       ?_Reserve@?$vector@PAVNetworkAdapter@OpenHome@@V?$allocator@PAVNetworkAdapter@OpenHome@@@std@@@std@@IAEXI@Z 00420f60 f i libohNetCore:NetworkAdapterList.obj
 0001:0001ffe0       ?_Orphan_range@?$vector@PAVNetworkAdapter@OpenHome@@V?$allocator@PAVNetworkAdapter@OpenHome@@@std@@@std@@IBEXPAPAVNetworkAdapter@OpenHome@@0@Z 00420fe0 f i libohNetCore:NetworkAdapterList.obj
 0001:000200f0       ??0?$_Vector_val@PAVNetworkAdapter@OpenHome@@V?$allocator@PAVNetworkAdapter@OpenHome@@@std@@@std@@QAE@V?$allocator@PAVNetworkAdapter@OpenHome@@@1@@Z 004210f0 f i libohNetCore:NetworkAdapterList.obj
 0001:00020210       ??0?$allocator@PAVNetworkAdapter@OpenHome@@@std@@QAE@XZ 00421210 f i libohNetCore:NetworkAdapterList.obj
 0001:00020230       ??0?$_Tree_iterator@V?$_Tree_val@V?$_Tmap_traits@IVFunctor@OpenHome@@U?$less@I@std@@V?$allocator@U?$pair@$$CBIVFunctor@OpenHome@@@std@@@4@$0A@@std@@@std@@@std@@QAE@PAU_Node@?$_Tree_nod@V?$_Tmap_traits@IVFunctor@OpenHome@@U?$less@I@std@@V?$allocator@U?$pair@$$CBIVFunctor@OpenHome@@@std@@@4@$0A@@std@@@1@PBV?$_Tree_val@V?$_Tmap_traits@IVFunctor@OpenHome@@U?$less@I@std@@V?$allocator@U?$pair@$$CBIVFunctor@OpenHome@@@std@@@4@$0A@@std@@@1@@Z 00421230 f i libohNetCore:NetworkAdapterList.obj
 0001:00020270       ??D?$_Tree_iterator@V?$_Tree_val@V?$_Tmap_traits@IVFunctor@OpenHome@@U?$less@I@std@@V?$allocator@U?$pair@$$CBIVFunctor@OpenHome@@@std@@@4@$0A@@std@@@std@@@std@@QBEAAU?$pair@$$CBIVFunctor@OpenHome@@@1@XZ 00421270 f i libohNetCore:NetworkAdapterList.obj
 0001:000202a0       ??E?$_Tree_iterator@V?$_Tree_val@V?$_Tmap_traits@IVFunctor@OpenHome@@U?$less@I@std@@V?$allocator@U?$pair@$$CBIVFunctor@OpenHome@@@std@@@4@$0A@@std@@@std@@@std@@QAEAAV01@XZ 004212a0 f i libohNetCore:NetworkAdapterList.obj
 0001:000202d0       ??E?$_Tree_const_iterator@V?$_Tree_val@V?$_Tmap_traits@IVFunctor@OpenHome@@U?$less@I@std@@V?$allocator@U?$pair@$$CBIVFunctor@OpenHome@@@std@@@4@$0A@@std@@@std@@@std@@QAEAAV01@XZ 004212d0 f i libohNetCore:NetworkAdapterList.obj
 0001:00020390       ??8?$_Tree_const_iterator@V?$_Tree_val@V?$_Tmap_traits@IVFunctor@OpenHome@@U?$less@I@std@@V?$allocator@U?$pair@$$CBIVFunctor@OpenHome@@@std@@@4@$0A@@std@@@std@@@std@@QBE_NABV01@@Z 00421390 f i libohNetCore:NetworkAdapterList.obj
 0001:00020450       ?_Mynode@?$_Tree_unchecked_const_iterator@V?$_Tree_val@V?$_Tmap_traits@IVFunctor@OpenHome@@U?$less@I@std@@V?$allocator@U?$pair@$$CBIVFunctor@OpenHome@@@std@@@4@$0A@@std@@@std@@U_Iterator_base12@2@@std@@QBEPAU_Node@?$_Tree_nod@V?$_Tmap_traits@IVFunctor@OpenHome@@U?$less@I@std@@V?$allocator@U?$pair@$$CBIVFunctor@OpenHome@@@std@@@4@$0A@@std@@@2@XZ 00421450 f i libohNetCore:NetworkAdapterList.obj
 0001:00020470       ?erase@?$_Tree@V?$_Tmap_traits@IVFunctor@OpenHome@@U?$less@I@std@@V?$allocator@U?$pair@$$CBIVFunctor@OpenHome@@@std@@@4@$0A@@std@@@std@@QAE?AV?$_Tree_iterator@V?$_Tree_val@V?$_Tmap_traits@IVFunctor@OpenHome@@U?$less@I@std@@V?$allocator@U?$pair@$$CBIVFunctor@OpenHome@@@std@@@4@$0A@@std@@@std@@@2@V?$_Tree_const_iterator@V?$_Tree_val@V?$_Tmap_traits@IVFunctor@OpenHome@@U?$less@I@std@@V?$allocator@U?$pair@$$CBIVFunctor@OpenHome@@@std@@@4@$0A@@std@@@std@@@2@0@Z 00421470 f i libohNetCore:NetworkAdapterList.obj
 0001:00020670       ?_Lbound@?$_Tree@V?$_Tmap_traits@IVFunctor@OpenHome@@U?$less@I@std@@V?$allocator@U?$pair@$$CBIVFunctor@OpenHome@@@std@@@4@$0A@@std@@@std@@IAEPAU_Node@?$_Tree_nod@V?$_Tmap_traits@IVFunctor@OpenHome@@U?$less@I@std@@V?$allocator@U?$pair@$$CBIVFunctor@OpenHome@@@std@@@4@$0A@@std@@@2@ABI@Z 00421670 f i libohNetCore:NetworkAdapterList.obj
 0001:00020720       ??0?$_Tree_val@V?$_Tmap_traits@IVFunctor@OpenHome@@U?$less@I@std@@V?$allocator@U?$pair@$$CBIVFunctor@OpenHome@@@std@@@4@$0A@@std@@@std@@QAE@ABU?$less@I@1@V?$allocator@U?$pair@$$CBIVFunctor@OpenHome@@@std@@@1@@Z 00421720 f i libohNetCore:NetworkAdapterList.obj
 0001:00020820       ??1?$_Tree_nod@V?$_Tmap_traits@IVFunctor@OpenHome@@U?$less@I@std@@V?$allocator@U?$pair@$$CBIVFunctor@OpenHome@@@std@@@4@$0A@@std@@@std@@QAE@XZ 00421820 f i libohNetCore:NetworkAdapterList.obj
 0001:00020900       ??0?$allocator@U?$pair@$$CBIVFunctor@OpenHome@@@std@@@std@@QAE@ABV01@@Z 00421900 f i libohNetCore:NetworkAdapterList.obj
 0001:00020920       ?reserve@?$vector@PAVNetworkAdapter@OpenHome@@V?$allocator@PAVNetworkAdapter@OpenHome@@@std@@@std@@QAEXI@Z 00421920 f i libohNetCore:NetworkAdapterList.obj
 0001:00020a90       ?capacity@?$vector@PAVNetworkAdapter@OpenHome@@V?$allocator@PAVNetworkAdapter@OpenHome@@@std@@@std@@QBEIXZ 00421a90 f i libohNetCore:NetworkAdapterList.obj
 0001:00020ac0       ?max_size@?$vector@PAVNetworkAdapter@OpenHome@@V?$allocator@PAVNetworkAdapter@OpenHome@@@std@@@std@@QBEIXZ 00421ac0 f i libohNetCore:NetworkAdapterList.obj
 0001:00020af0       ?_Grow_to@?$vector@PAVNetworkAdapter@OpenHome@@V?$allocator@PAVNetworkAdapter@OpenHome@@@std@@@std@@IBEII@Z 00421af0 f i libohNetCore:NetworkAdapterList.obj
 0001:00020b70       ?_Xlen@?$vector@PAVNetworkAdapter@OpenHome@@V?$allocator@PAVNetworkAdapter@OpenHome@@@std@@@std@@IBEXXZ 00421b70 f i libohNetCore:NetworkAdapterList.obj
 0001:00020ba0       ??0?$allocator@PAVNetworkAdapter@OpenHome@@@std@@QAE@ABV01@@Z 00421ba0 f i libohNetCore:NetworkAdapterList.obj
 0001:00020bc0       ??0?$_Tree_const_iterator@V?$_Tree_val@V?$_Tmap_traits@IVFunctor@OpenHome@@U?$less@I@std@@V?$allocator@U?$pair@$$CBIVFunctor@OpenHome@@@std@@@4@$0A@@std@@@std@@@std@@QAE@PAU_Node@?$_Tree_nod@V?$_Tmap_traits@IVFunctor@OpenHome@@U?$less@I@std@@V?$allocator@U?$pair@$$CBIVFunctor@OpenHome@@@std@@@4@$0A@@std@@@1@PBV?$_Tree_val@V?$_Tmap_traits@IVFunctor@OpenHome@@U?$less@I@std@@V?$allocator@U?$pair@$$CBIVFunctor@OpenHome@@@std@@@4@$0A@@std@@@1@@Z 00421bc0 f i libohNetCore:NetworkAdapterList.obj
 0001:00020c00       ??D?$_Tree_const_iterator@V?$_Tree_val@V?$_Tmap_traits@IVFunctor@OpenHome@@U?$less@I@std@@V?$allocator@U?$pair@$$CBIVFunctor@OpenHome@@@std@@@4@$0A@@std@@@std@@@std@@QBEABU?$pair@$$CBIVFunctor@OpenHome@@@1@XZ 00421c00 f i libohNetCore:NetworkAdapterList.obj
 0001:00020cc0       ??E?$_Tree_unchecked_const_iterator@V?$_Tree_val@V?$_Tmap_traits@IVFunctor@OpenHome@@U?$less@I@std@@V?$allocator@U?$pair@$$CBIVFunctor@OpenHome@@@std@@@4@$0A@@std@@@std@@U_Iterator_base12@2@@std@@QAEAAV01@XZ 00421cc0 f i libohNetCore:NetworkAdapterList.obj
 0001:00020d80       ??1?$_Tmap_traits@IVFunctor@OpenHome@@U?$less@I@std@@V?$allocator@U?$pair@$$CBIVFunctor@OpenHome@@@std@@@4@$0A@@std@@QAE@XZ 00421d80 f i libohNetCore:NetworkAdapterList.obj
 0001:00020db0       ?clear@?$_Tree@V?$_Tmap_traits@IVFunctor@OpenHome@@U?$less@I@std@@V?$allocator@U?$pair@$$CBIVFunctor@OpenHome@@@std@@@4@$0A@@std@@@std@@QAEXXZ 00421db0 f i libohNetCore:NetworkAdapterList.obj
 0001:00020e30       ??0?$_Tree_nod@V?$_Tmap_traits@IVFunctor@OpenHome@@U?$less@I@std@@V?$allocator@U?$pair@$$CBIVFunctor@OpenHome@@@std@@@4@$0A@@std@@@std@@QAE@ABU?$less@I@1@V?$allocator@U?$pair@$$CBIVFunctor@OpenHome@@@std@@@1@@Z 00421e30 f i libohNetCore:NetworkAdapterList.obj
 0001:00020f40       ?allocate@?$allocator@U_Node@?$_Tree_nod@V?$_Tmap_traits@IVFunctor@OpenHome@@U?$less@I@std@@V?$allocator@U?$pair@$$CBIVFunctor@OpenHome@@@std@@@4@$0A@@std@@@std@@@std@@QAEPAU_Node@?$_Tree_nod@V?$_Tmap_traits@IVFunctor@OpenHome@@U?$less@I@std@@V?$allocator@U?$pair@$$CBIVFunctor@OpenHome@@@std@@@4@$0A@@std@@@2@I@Z 00421f40 f i libohNetCore:NetworkAdapterList.obj
 0001:00020f70       ?allocate@?$allocator@PAVNetworkAdapter@OpenHome@@@std@@QAEPAPAVNetworkAdapter@OpenHome@@I@Z 00421f70 f i libohNetCore:NetworkAdapterList.obj
 0001:00020fa0       ?max_size@?$allocator@PAVNetworkAdapter@OpenHome@@@std@@QBEIXZ 00421fa0 f i libohNetCore:NetworkAdapterList.obj
 0001:00020ff0       ??E?$_Tree_const_iterator@V?$_Tree_val@V?$_Tmap_traits@IVFunctor@OpenHome@@U?$less@I@std@@V?$allocator@U?$pair@$$CBIVFunctor@OpenHome@@@std@@@4@$0A@@std@@@std@@@std@@QAE?AV01@H@Z 00421ff0 f i libohNetCore:NetworkAdapterList.obj
 0001:000210c0       ??0?$_Tree_unchecked_const_iterator@V?$_Tree_val@V?$_Tmap_traits@IVFunctor@OpenHome@@U?$less@I@std@@V?$allocator@U?$pair@$$CBIVFunctor@OpenHome@@@std@@@4@$0A@@std@@@std@@U_Iterator_base12@2@@std@@QAE@PAU_Node@?$_Tree_nod@V?$_Tmap_traits@IVFunctor@OpenHome@@U?$less@I@std@@V?$allocator@U?$pair@$$CBIVFunctor@OpenHome@@@std@@@4@$0A@@std@@@1@PBV?$_Tree_val@V?$_Tmap_traits@IVFunctor@OpenHome@@U?$less@I@std@@V?$allocator@U?$pair@$$CBIVFunctor@OpenHome@@@std@@@4@$0A@@std@@@1@@Z 004220c0 f i libohNetCore:NetworkAdapterList.obj
 0001:00021140       ??0?$_Iterator012@Ubidirectional_iterator_tag@std@@U?$pair@$$CBIVFunctor@OpenHome@@@2@HPBU32@ABU32@U_Iterator_base12@2@@std@@QAE@XZ 00422140 f i libohNetCore:NetworkAdapterList.obj
 0001:00021170       ?_Erase@?$_Tree@V?$_Tmap_traits@IVFunctor@OpenHome@@U?$less@I@std@@V?$allocator@U?$pair@$$CBIVFunctor@OpenHome@@@std@@@4@$0A@@std@@@std@@IAEXPAU_Node@?$_Tree_nod@V?$_Tmap_traits@IVFunctor@OpenHome@@U?$less@I@std@@V?$allocator@U?$pair@$$CBIVFunctor@OpenHome@@@std@@@4@$0A@@std@@@2@@Z 00422170 f i libohNetCore:NetworkAdapterList.obj
 0001:00021210       ??0?$_Tmap_traits@IVFunctor@OpenHome@@U?$less@I@std@@V?$allocator@U?$pair@$$CBIVFunctor@OpenHome@@@std@@@4@$0A@@std@@QAE@U?$less@I@1@@Z 00422210 f i libohNetCore:NetworkAdapterList.obj
 0001:00021240       ??$?0AAIAAVFunctor@OpenHome@@@?$pair@IVFunctor@OpenHome@@@std@@QAE@AAIAAVFunctor@OpenHome@@@Z 00422240 f i libohNetCore:NetworkAdapterList.obj
 0001:00021280       ??$insert@U?$pair@IVFunctor@OpenHome@@@std@@@?$_Tree@V?$_Tmap_traits@IVFunctor@OpenHome@@U?$less@I@std@@V?$allocator@U?$pair@$$CBIVFunctor@OpenHome@@@std@@@4@$0A@@std@@@std@@QAE?AU?$pair@V?$_Tree_iterator@V?$_Tree_val@V?$_Tmap_traits@IVFunctor@OpenHome@@U?$less@I@std@@V?$allocator@U?$pair@$$CBIVFunctor@OpenHome@@@std@@@4@$0A@@std@@@std@@@std@@_N@1@$$QAU?$pair@IVFunctor@OpenHome@@@1@@Z 00422280 f i libohNetCore:NetworkAdapterList.obj
 0001:000212e0       ??$addressof@U?$pair@$$CBIVFunctor@OpenHome@@@std@@@std@@YGPAU?$pair@$$CBIVFunctor@OpenHome@@@0@AAU10@@Z 004222e0 f i libohNetCore:NetworkAdapterList.obj
 0001:000212f0       ??$_Dest_val@V?$allocator@U?$pair@$$CBIVFunctor@OpenHome@@@std@@@std@@U?$pair@$$CBIVFunctor@OpenHome@@@2@@std@@YGXAAV?$allocator@U?$pair@$$CBIVFunctor@OpenHome@@@std@@@0@PAU?$pair@$$CBIVFunctor@OpenHome@@@0@@Z 004222f0 f i libohNetCore:NetworkAdapterList.obj
 0001:00021310       ??$_Debug_lt_pred@U?$less@I@std@@II@std@@YG_NU?$less@I@0@ABIAAIPB_WI@Z 00422310 f i libohNetCore:NetworkAdapterList.obj
 0001:00021370       ??$addressof@QAVNetworkAdapter@OpenHome@@@std@@YGPBQAVNetworkAdapter@OpenHome@@ABQAV12@@Z 00422370 f i libohNetCore:NetworkAdapterList.obj
 0001:00021380       ??$_Cons_val@V?$allocator@PAVNetworkAdapter@OpenHome@@@std@@PAVNetworkAdapter@OpenHome@@AAPAV34@@std@@YGXAAV?$allocator@PAVNetworkAdapter@OpenHome@@@0@PAPAVNetworkAdapter@OpenHome@@AAPAV23@@Z 00422380 f i libohNetCore:NetworkAdapterList.obj
 0001:000213b0       ??$_Cons_val@V?$allocator@PAVNetworkAdapter@OpenHome@@@std@@PAVNetworkAdapter@OpenHome@@ABQAV34@@std@@YGXAAV?$allocator@PAVNetworkAdapter@OpenHome@@@0@PAPAVNetworkAdapter@OpenHome@@ABQAV23@@Z 004223b0 f i libohNetCore:NetworkAdapterList.obj
 0001:000213e0       ??$_Kfn@$$CBIVFunctor@OpenHome@@@?$_Tmap_traits@IVFunctor@OpenHome@@U?$less@I@std@@V?$allocator@U?$pair@$$CBIVFunctor@OpenHome@@@std@@@4@$0A@@std@@SGABIABU?$pair@$$CBIVFunctor@OpenHome@@@1@@Z 004223e0 f i libohNetCore:NetworkAdapterList.obj
 0001:000213f0       ??$_Debug_lt_pred@U?$less@I@std@@II@std@@YG_NU?$less@I@0@AAIABIPB_WI@Z 004223f0 f i libohNetCore:NetworkAdapterList.obj
 0001:00021450       ??$?0U_Node@?$_Tree_nod@V?$_Tmap_traits@IVFunctor@OpenHome@@U?$less@I@std@@V?$allocator@U?$pair@$$CBIVFunctor@OpenHome@@@std@@@4@$0A@@std@@@std@@@?$allocator@U_Container_proxy@std@@@std@@QAE@ABV?$allocator@U_Node@?$_Tree_nod@V?$_Tmap_traits@IVFunctor@OpenHome@@U?$less@I@std@@V?$allocator@U?$pair@$$CBIVFunctor@OpenHome@@@std@@@4@$0A@@std@@@std@@@1@@Z 00422450 f i libohNetCore:NetworkAdapterList.obj
 0001:00021470       ??$_Umove@PAPAVNetworkAdapter@OpenHome@@@?$vector@PAVNetworkAdapter@OpenHome@@V?$allocator@PAVNetworkAdapter@OpenHome@@@std@@@std@@IAEPAPAVNetworkAdapter@OpenHome@@PAPAV23@00@Z 00422470 f i libohNetCore:NetworkAdapterList.obj
 0001:000214b0       ??$?0U?$pair@$$CBIVFunctor@OpenHome@@@std@@@?$allocator@U_Node@?$_Tree_nod@V?$_Tmap_traits@IVFunctor@OpenHome@@U?$less@I@std@@V?$allocator@U?$pair@$$CBIVFunctor@OpenHome@@@std@@@4@$0A@@std@@@std@@@std@@QAE@ABV?$allocator@U?$pair@$$CBIVFunctor@OpenHome@@@std@@@1@@Z 004224b0 f i libohNetCore:NetworkAdapterList.obj
 0001:000214d0       ??$_Allocate@U_Node@?$_Tree_nod@V?$_Tmap_traits@IVFunctor@OpenHome@@U?$less@I@std@@V?$allocator@U?$pair@$$CBIVFunctor@OpenHome@@@std@@@4@$0A@@std@@@std@@@std@@YGPAU_Node@?$_Tree_nod@V?$_Tmap_traits@IVFunctor@OpenHome@@U?$less@I@std@@V?$allocator@U?$pair@$$CBIVFunctor@OpenHome@@@std@@@4@$0A@@std@@@0@IPAU120@@Z 004224d0 f i libohNetCore:NetworkAdapterList.obj
 0001:00021550       ??$_Allocate@PAVNetworkAdapter@OpenHome@@@std@@YGPAPAVNetworkAdapter@OpenHome@@IPAPAV12@@Z 00422550 f i libohNetCore:NetworkAdapterList.obj
 0001:000215d0       ?_Linsert@?$_Tree@V?$_Tmap_traits@IVFunctor@OpenHome@@U?$less@I@std@@V?$allocator@U?$pair@$$CBIVFunctor@OpenHome@@@std@@@4@$0A@@std@@@std@@QAE?AU?$pair@V?$_Tree_iterator@V?$_Tree_val@V?$_Tmap_traits@IVFunctor@OpenHome@@U?$less@I@std@@V?$allocator@U?$pair@$$CBIVFunctor@OpenHome@@@std@@@4@$0A@@std@@@std@@@std@@_N@2@PAU_Node@?$_Tree_nod@V?$_Tmap_traits@IVFunctor@OpenHome@@U?$less@I@std@@V?$allocator@U?$pair@$$CBIVFunctor@OpenHome@@@std@@@4@$0A@@std@@@2@_N@Z 004225d0 f i libohNetCore:NetworkAdapterList.obj
 0001:000219b0       ?destroy@?$allocator@U?$pair@$$CBIVFunctor@OpenHome@@@std@@@std@@QAEXPAU?$pair@$$CBIVFunctor@OpenHome@@@2@@Z 004229b0 f i libohNetCore:NetworkAdapterList.obj
 0001:000219e0       ??R?$less@I@std@@QBE_NABI0@Z 004229e0 f i libohNetCore:NetworkAdapterList.obj
 0001:00021a10       ?construct@?$allocator@PAVNetworkAdapter@OpenHome@@@std@@QAEXPAPAVNetworkAdapter@OpenHome@@ABQAV34@@Z 00422a10 f i libohNetCore:NetworkAdapterList.obj
 0001:00021a40       ?_Insert@?$_Tree@V?$_Tmap_traits@IVFunctor@OpenHome@@U?$less@I@std@@V?$allocator@U?$pair@$$CBIVFunctor@OpenHome@@@std@@@4@$0A@@std@@@std@@IAE?AV?$_Tree_iterator@V?$_Tree_val@V?$_Tmap_traits@IVFunctor@OpenHome@@U?$less@I@std@@V?$allocator@U?$pair@$$CBIVFunctor@OpenHome@@@std@@@4@$0A@@std@@@std@@@2@_NPAU_Node@?$_Tree_nod@V?$_Tmap_traits@IVFunctor@OpenHome@@U?$less@I@std@@V?$allocator@U?$pair@$$CBIVFunctor@OpenHome@@@std@@@4@$0A@@std@@@2@1@Z 00422a40 f i libohNetCore:NetworkAdapterList.obj
 0001:00021e00       ??0?$pair@V?$_Tree_iterator@V?$_Tree_val@V?$_Tmap_traits@IVFunctor@OpenHome@@U?$less@I@std@@V?$allocator@U?$pair@$$CBIVFunctor@OpenHome@@@std@@@4@$0A@@std@@@std@@@std@@_N@std@@QAE@$$QAV?$_Tree_iterator@V?$_Tree_val@V?$_Tmap_traits@IVFunctor@OpenHome@@U?$less@I@std@@V?$allocator@U?$pair@$$CBIVFunctor@OpenHome@@@std@@@4@$0A@@std@@@std@@@1@$$QA_N@Z 00422e00 f i libohNetCore:NetworkAdapterList.obj
 0001:00021e40       ??F?$_Tree_iterator@V?$_Tree_val@V?$_Tmap_traits@IVFunctor@OpenHome@@U?$less@I@std@@V?$allocator@U?$pair@$$CBIVFunctor@OpenHome@@@std@@@4@$0A@@std@@@std@@@std@@QAEAAV01@XZ 00422e40 f i libohNetCore:NetworkAdapterList.obj
 0001:00021e70       ?max_size@?$_Tree@V?$_Tmap_traits@IVFunctor@OpenHome@@U?$less@I@std@@V?$allocator@U?$pair@$$CBIVFunctor@OpenHome@@@std@@@4@$0A@@std@@@std@@QBEIXZ 00422e70 f i libohNetCore:NetworkAdapterList.obj
 0001:00021ea0       ??0?$_Pair_base@V?$_Tree_iterator@V?$_Tree_val@V?$_Tmap_traits@IVFunctor@OpenHome@@U?$less@I@std@@V?$allocator@U?$pair@$$CBIVFunctor@OpenHome@@@std@@@4@$0A@@std@@@std@@@std@@_N@std@@QAE@$$QAV?$_Tree_iterator@V?$_Tree_val@V?$_Tmap_traits@IVFunctor@OpenHome@@U?$less@I@std@@V?$allocator@U?$pair@$$CBIVFunctor@OpenHome@@@std@@@4@$0A@@std@@@std@@@1@$$QA_N@Z 00422ea0 f i libohNetCore:NetworkAdapterList.obj
 0001:00021f20       ??F?$_Tree_const_iterator@V?$_Tree_val@V?$_Tmap_traits@IVFunctor@OpenHome@@U?$less@I@std@@V?$allocator@U?$pair@$$CBIVFunctor@OpenHome@@@std@@@4@$0A@@std@@@std@@@std@@QAEAAV01@XZ 00422f20 f i libohNetCore:NetworkAdapterList.obj
 0001:00022040       ?max_size@?$allocator@U?$pair@$$CBIVFunctor@OpenHome@@@std@@@std@@QBEIXZ 00423040 f i libohNetCore:NetworkAdapterList.obj
 0001:00022090       ??F?$_Tree_unchecked_const_iterator@V?$_Tree_val@V?$_Tmap_traits@IVFunctor@OpenHome@@U?$less@I@std@@V?$allocator@U?$pair@$$CBIVFunctor@OpenHome@@@std@@@4@$0A@@std@@@std@@U_Iterator_base12@2@@std@@QAEAAV01@XZ 00423090 f i libohNetCore:NetworkAdapterList.obj
 0001:00022180       ??$forward@AAI@std@@YGAAIAAI@Z 00423180 f i libohNetCore:NetworkAdapterList.obj
 0001:00022190       ??$forward@AAVFunctor@OpenHome@@@std@@YGAAVFunctor@OpenHome@@AAV12@@Z 00423190 f i libohNetCore:NetworkAdapterList.obj
 0001:000221a0       ??$?0AAIAAVFunctor@OpenHome@@@?$_Pair_base@IVFunctor@OpenHome@@@std@@QAE@AAIAAVFunctor@OpenHome@@@Z 004231a0 f i libohNetCore:NetworkAdapterList.obj
 0001:00022200       ??$forward@U?$pair@IVFunctor@OpenHome@@@std@@@std@@YG$$QAU?$pair@IVFunctor@OpenHome@@@0@AAU10@@Z 00423200 f i libohNetCore:NetworkAdapterList.obj
 0001:00022210       ??$_Buynode@U?$pair@IVFunctor@OpenHome@@@std@@@?$_Tree_val@V?$_Tmap_traits@IVFunctor@OpenHome@@U?$less@I@std@@V?$allocator@U?$pair@$$CBIVFunctor@OpenHome@@@std@@@4@$0A@@std@@@std@@QAEPAU_Node@?$_Tree_nod@V?$_Tmap_traits@IVFunctor@OpenHome@@U?$less@I@std@@V?$allocator@U?$pair@$$CBIVFunctor@OpenHome@@@std@@@4@$0A@@std@@@1@$$QAU?$pair@IVFunctor@OpenHome@@@1@@Z 00423210 f i libohNetCore:NetworkAdapterList.obj
 0001:000222f0       ??$forward@AAPAVNetworkAdapter@OpenHome@@@std@@YGAAPAVNetworkAdapter@OpenHome@@AAPAV12@@Z 004232f0 f i libohNetCore:NetworkAdapterList.obj
 0001:00022300       ??$construct@AAPAVNetworkAdapter@OpenHome@@@?$allocator@PAVNetworkAdapter@OpenHome@@@std@@QAEXPAPAVNetworkAdapter@OpenHome@@AAPAV23@@Z 00423300 f i libohNetCore:NetworkAdapterList.obj
 0001:000223a0       ??$forward@ABQAVNetworkAdapter@OpenHome@@@std@@YGABQAVNetworkAdapter@OpenHome@@ABQAV12@@Z 004233a0 f i libohNetCore:NetworkAdapterList.obj
 0001:000223b0       ??$_Uninitialized_move@PAPAVNetworkAdapter@OpenHome@@PAPAV12@V?$allocator@PAVNetworkAdapter@OpenHome@@@std@@@std@@YGPAPAVNetworkAdapter@OpenHome@@PAPAV12@00AAV?$allocator@PAVNetworkAdapter@OpenHome@@@0@@Z 004233b0 f i libohNetCore:NetworkAdapterList.obj
 0001:00022400       ??$?0AAV?$_Tree_iterator@V?$_Tree_val@V?$_Tmap_traits@IVFunctor@OpenHome@@U?$less@I@std@@V?$allocator@U?$pair@$$CBIVFunctor@OpenHome@@@std@@@4@$0A@@std@@@std@@@std@@_N@?$pair@V?$_Tree_iterator@V?$_Tree_val@V?$_Tmap_traits@IVFunctor@OpenHome@@U?$less@I@std@@V?$allocator@U?$pair@$$CBIVFunctor@OpenHome@@@std@@@4@$0A@@std@@@std@@@std@@_N@std@@QAE@AAV?$_Tree_iterator@V?$_Tree_val@V?$_Tmap_traits@IVFunctor@OpenHome@@U?$less@I@std@@V?$allocator@U?$pair@$$CBIVFunctor@OpenHome@@@std@@@4@$0A@@std@@@std@@@1@$$QA_N@Z 00423400 f i libohNetCore:NetworkAdapterList.obj
 0001:00022440       ??$_Destroy@U?$pair@$$CBIVFunctor@OpenHome@@@std@@@std@@YGXPAU?$pair@$$CBIVFunctor@OpenHome@@@0@@Z 00423440 f i libohNetCore:NetworkAdapterList.obj
 0001:00022450       ??$_Construct@PAVNetworkAdapter@OpenHome@@ABQAV12@@std@@YGXPAPAVNetworkAdapter@OpenHome@@ABQAV12@@Z 00423450 f i libohNetCore:NetworkAdapterList.obj
 0001:00022500       ??$move@AAV?$_Tree_iterator@V?$_Tree_val@V?$_Tmap_traits@IVFunctor@OpenHome@@U?$less@I@std@@V?$allocator@U?$pair@$$CBIVFunctor@OpenHome@@@std@@@4@$0A@@std@@@std@@@std@@@std@@YG$$QAV?$_Tree_iterator@V?$_Tree_val@V?$_Tmap_traits@IVFunctor@OpenHome@@U?$less@I@std@@V?$allocator@U?$pair@$$CBIVFunctor@OpenHome@@@std@@@4@$0A@@std@@@std@@@0@AAV10@@Z 00423500 f i libohNetCore:NetworkAdapterList.obj
 0001:00022510       ?_Buynode@?$_Tree_val@V?$_Tmap_traits@IVFunctor@OpenHome@@U?$less@I@std@@V?$allocator@U?$pair@$$CBIVFunctor@OpenHome@@@std@@@4@$0A@@std@@@std@@QAEPAU_Node@?$_Tree_nod@V?$_Tmap_traits@IVFunctor@OpenHome@@U?$less@I@std@@V?$allocator@U?$pair@$$CBIVFunctor@OpenHome@@@std@@@4@$0A@@std@@@2@XZ 00423510 f i libohNetCore:NetworkAdapterList.obj
 0001:000225a0       ??$_Cons_val@V?$allocator@U?$pair@$$CBIVFunctor@OpenHome@@@std@@@std@@U?$pair@$$CBIVFunctor@OpenHome@@@2@U?$pair@IVFunctor@OpenHome@@@2@@std@@YGXAAV?$allocator@U?$pair@$$CBIVFunctor@OpenHome@@@std@@@0@PAU?$pair@$$CBIVFunctor@OpenHome@@@0@$$QAU?$pair@IVFunctor@OpenHome@@@0@@Z 004235a0 f i libohNetCore:NetworkAdapterList.obj
 0001:000225d0       ??$_Val_type@PAPAVNetworkAdapter@OpenHome@@@std@@YGPAPAVNetworkAdapter@OpenHome@@PAPAV12@@Z 004235d0 f i libohNetCore:NetworkAdapterList.obj
 0001:000225e0       ??$_Uninit_move@PAVNetworkAdapter@OpenHome@@PAV12@PAV12@@std@@YGPAPAVNetworkAdapter@OpenHome@@PAPAV12@00AAV?$allocator@PAVNetworkAdapter@OpenHome@@@0@0U_Scalar_ptr_iterator_tag@0@@Z 004235e0 f i libohNetCore:NetworkAdapterList.obj
 0001:00022650       ??$forward@AAV?$_Tree_iterator@V?$_Tree_val@V?$_Tmap_traits@IVFunctor@OpenHome@@U?$less@I@std@@V?$allocator@U?$pair@$$CBIVFunctor@OpenHome@@@std@@@4@$0A@@std@@@std@@@std@@@std@@YGAAV?$_Tree_iterator@V?$_Tree_val@V?$_Tmap_traits@IVFunctor@OpenHome@@U?$less@I@std@@V?$allocator@U?$pair@$$CBIVFunctor@OpenHome@@@std@@@4@$0A@@std@@@std@@@0@AAV10@@Z 00423650 f i libohNetCore:NetworkAdapterList.obj
 0001:00022660       ??$?0AAV?$_Tree_iterator@V?$_Tree_val@V?$_Tmap_traits@IVFunctor@OpenHome@@U?$less@I@std@@V?$allocator@U?$pair@$$CBIVFunctor@OpenHome@@@std@@@4@$0A@@std@@@std@@@std@@_N@?$_Pair_base@V?$_Tree_iterator@V?$_Tree_val@V?$_Tmap_traits@IVFunctor@OpenHome@@U?$less@I@std@@V?$allocator@U?$pair@$$CBIVFunctor@OpenHome@@@std@@@4@$0A@@std@@@std@@@std@@_N@std@@QAE@AAV?$_Tree_iterator@V?$_Tree_val@V?$_Tmap_traits@IVFunctor@OpenHome@@U?$less@I@std@@V?$allocator@U?$pair@$$CBIVFunctor@OpenHome@@@std@@@4@$0A@@std@@@std@@@1@$$QA_N@Z 00423660 f i libohNetCore:NetworkAdapterList.obj
 0001:000226e0       ??$construct@U?$pair@IVFunctor@OpenHome@@@std@@@?$allocator@U?$pair@$$CBIVFunctor@OpenHome@@@std@@@std@@QAEXPAU?$pair@$$CBIVFunctor@OpenHome@@@1@$$QAU?$pair@IVFunctor@OpenHome@@@1@@Z 004236e0 f i libohNetCore:NetworkAdapterList.obj
 0001:00022780       ??$_Debug_range@PAPAVNetworkAdapter@OpenHome@@@std@@YGXPAPAVNetworkAdapter@OpenHome@@0PB_WI@Z 00423780 f i libohNetCore:NetworkAdapterList.obj
 0001:000227d0       ??$_Debug_pointer@PAVNetworkAdapter@OpenHome@@@std@@YGXPAPAVNetworkAdapter@OpenHome@@PB_WI@Z 004237d0 f i libohNetCore:NetworkAdapterList.obj
 0001:00022800       ??$?0IVFunctor@OpenHome@@@?$pair@$$CBIVFunctor@OpenHome@@@std@@QAE@$$QAU?$pair@IVFunctor@OpenHome@@@1@@Z 00423800 f i libohNetCore:NetworkAdapterList.obj
 0001:00022840       ??$_Iter_cat@PAPAVNetworkAdapter@OpenHome@@@std@@YG?AUrandom_access_iterator_tag@0@ABQAPAVNetworkAdapter@OpenHome@@@Z 00423840 f i libohNetCore:NetworkAdapterList.obj
 0001:000228a0       ??$_Debug_range2@PAPAVNetworkAdapter@OpenHome@@@std@@YGXPAPAVNetworkAdapter@OpenHome@@0PB_WIUrandom_access_iterator_tag@0@@Z 004238a0 f i libohNetCore:NetworkAdapterList.obj
 0001:00022900       ??$forward@I@std@@YG$$QAIAAI@Z 00423900 f i libohNetCore:NetworkAdapterList.obj
 0001:00022910       ??$forward@VFunctor@OpenHome@@@std@@YG$$QAVFunctor@OpenHome@@AAV12@@Z 00423910 f i libohNetCore:NetworkAdapterList.obj
 0001:00022920       ??$?0IVFunctor@OpenHome@@@?$_Pair_base@$$CBIVFunctor@OpenHome@@@std@@QAE@$$QAI$$QAVFunctor@OpenHome@@@Z 00423920 f i libohNetCore:NetworkAdapterList.obj
 0001:00022980       ??0QueueBase@OpenHome@@IAE@XZ 00423980 f   libohNetCore:Queue.obj
 0001:000229c0       ?Count@QueueBase@OpenHome@@QBEIXZ 004239c0 f   libohNetCore:Queue.obj
 0001:000229e0       ?DoAdd@QueueBase@OpenHome@@IAEXPAVQueueEntryBase@2@@Z 004239e0 f   libohNetCore:Queue.obj
 0001:00022a40       ?DoMoveAllTo@QueueBase@OpenHome@@IAEXAAV12@@Z 00423a40 f   libohNetCore:Queue.obj
 0001:00022b00       ?DoMoveHeadTo@QueueBase@OpenHome@@IAEAAVQueueEntryBase@2@AAV12@@Z 00423b00 f   libohNetCore:Queue.obj
 0001:00022c00       ?DoMoveTo@QueueEntryBase@OpenHome@@QAEXAAVQueueBase@2@@Z 00423c00 f   libohNetCore:Queue.obj
 0001:00022cc0       ??1QueueBase@OpenHome@@IAE@XZ 00423cc0 f   libohNetCore:Queue.obj
 0001:00022d20       ??0QueueSortedEntry@OpenHome@@IAE@XZ 00423d20 f   libohNetCore:Queue.obj
 0001:00022d60       ?Next@QueueSortedEntry@OpenHome@@IAEAAV12@XZ 00423d60 f   libohNetCore:Queue.obj
 0001:00022da0       ?Prev@QueueSortedEntry@OpenHome@@IAEAAV12@XZ 00423da0 f   libohNetCore:Queue.obj
 0001:00022de0       ?AddBefore@QueueSortedEntry@OpenHome@@IAEXAAV12@@Z 00423de0 f   libohNetCore:Queue.obj
 0001:00022e50       ?Remove@QueueSortedEntry@OpenHome@@IAEXXZ 00423e50 f   libohNetCore:Queue.obj
 0001:00022ec0       ??0QueueSortedEntryHead@OpenHome@@IAE@AAVQueueSortedEntry@1@@Z 00423ec0 f   libohNetCore:Queue.obj
 0001:00022f00       ??0QueueSortedEntryTail@OpenHome@@IAE@AAVQueueSortedEntry@1@@Z 00423f00 f   libohNetCore:Queue.obj
 0001:00022f40       ??0QueueSortedBase@OpenHome@@IAE@XZ 00423f40 f   libohNetCore:Queue.obj
 0001:00022fe0       ?IsEmpty@QueueSortedBase@OpenHome@@QAE_NXZ 00423fe0 f   libohNetCore:Queue.obj
 0001:00023010       ?IsTail@QueueSortedBase@OpenHome@@IBE_NAAVQueueSortedEntry@2@@Z 00424010 f   libohNetCore:Queue.obj
 0001:00023040       ?DoAdd@QueueSortedBase@OpenHome@@IAEXAAVQueueSortedEntry@2@@Z 00424040 f   libohNetCore:Queue.obj
 0001:00023150       ?DoRemove@QueueSortedBase@OpenHome@@IAEXAAVQueueSortedEntry@2@@Z 00424150 f   libohNetCore:Queue.obj
 0001:000231f0       ?DoRemoveHead@QueueSortedBase@OpenHome@@IAEAAVQueueSortedEntry@2@XZ 004241f0 f   libohNetCore:Queue.obj
 0001:000232a0       ?HeadChanged@QueueSortedBase@OpenHome@@EAEXAAVQueueSortedEntry@2@@Z 004242a0 f   libohNetCore:Queue.obj
 0001:000232c0       ??1QueueSortedBase@OpenHome@@UAE@XZ 004242c0 f   libohNetCore:Queue.obj
 0001:000232f0       ??0?$QueueEntry@VQueueBase@OpenHome@@@OpenHome@@QAE@XZ 004242f0 f i libohNetCore:Queue.obj
 0001:00023320       ??0QueueEntryBase@OpenHome@@QAE@XZ 00424320 f i libohNetCore:Queue.obj
 0001:00023350       ??0QueueEmpty@OpenHome@@QAE@PBDI@Z 00424350 f i libohNetCore:Queue.obj
 0001:00023390       ??1QueueEmpty@OpenHome@@QAE@XZ 00424390 f i libohNetCore:Queue.obj
 0001:000233c0       ??_EQueueSortedBase@OpenHome@@UAEPAXI@Z 004243c0 f i libohNetCore:Queue.obj
 0001:000233c0       ??_GQueueSortedBase@OpenHome@@UAEPAXI@Z 004243c0 f i libohNetCore:Queue.obj
 0001:00023400       ?Twiddle@@YGIII@Z          00424400 f   libohNetCore:Maths.obj
 0001:00023430       ?SetRandomSeed@OpenHome@@YGXABVBrx@1@@Z 00424430 f   libohNetCore:Maths.obj
 0001:00023520       ?SetRandomSeed@OpenHome@@YGXI@Z 00424520 f   libohNetCore:Maths.obj
 0001:000235b0       ?Random@OpenHome@@YGIII@Z  004245b0 f   libohNetCore:Maths.obj
 0001:00023750       ?LittleEndian4@Arch@OpenHome@@SGII@Z 00424750 f i libohNetCore:Maths.obj
 0001:00023760       ??0SsdpSocketReader@Net@OpenHome@@QAE@IABVEndpoint@2@@Z 00424760 f   libohNetCore:Discovery.obj
 0001:00023850       ??1SsdpSocketReader@Net@OpenHome@@UAE@XZ 00424850 f   libohNetCore:Discovery.obj
 0001:00023920       ?Sender@SsdpSocketReader@Net@OpenHome@@QBE?AVEndpoint@3@XZ 00424920 f   libohNetCore:Discovery.obj
 0001:00023950       ?Read@SsdpSocketReader@Net@OpenHome@@UAEXAAVBwx@3@@Z 00424950 f   libohNetCore:Discovery.obj
 0001:00023990       ?ReadFlush@SsdpSocketReader@Net@OpenHome@@UAEXXZ 00424990 f   libohNetCore:Discovery.obj
 0001:000239d0       ?ReadInterrupt@SsdpSocketReader@Net@OpenHome@@UAEXXZ 004249d0 f   libohNetCore:Discovery.obj
 0001:00023a10       ??0SsdpListener@Net@OpenHome@@IAE@XZ 00424a10 f   libohNetCore:Discovery.obj
 0001:00023ae0       ??0SsdpListenerMulticast@Net@OpenHome@@QAE@I@Z 00424ae0 f   libohNetCore:Discovery.obj
 0001:00023dc0       ?Run@SsdpListenerMulticast@Net@OpenHome@@EAEXXZ 00424dc0 f   libohNetCore:Discovery.obj
 0001:00024200       ?Msearch@SsdpListenerMulticast@Net@OpenHome@@AAEXAAVMsearchHandler@123@@Z 00425200 f   libohNetCore:Discovery.obj
 0001:000242d0       ?Msearch@SsdpListenerMulticast@Net@OpenHome@@AAEXAAVISsdpMsearchHandler@23@@Z 004252d0 f   libohNetCore:Discovery.obj
 0001:00024590       ?Notify@SsdpListenerMulticast@Net@OpenHome@@AAEXAAVNotifyHandler@123@@Z 00425590 f   libohNetCore:Discovery.obj
 0001:00024660       ?Notify@SsdpListenerMulticast@Net@OpenHome@@AAEXAAVISsdpNotifyHandler@23@@Z 00425660 f   libohNetCore:Discovery.obj
 0001:00024e60       ??1SsdpListenerMulticast@Net@OpenHome@@UAE@XZ 00425e60 f   libohNetCore:Discovery.obj
 0001:00025030       ?AddNotifyHandler@SsdpListenerMulticast@Net@OpenHome@@QAEHPAVISsdpNotifyHandler@23@@Z 00426030 f   libohNetCore:Discovery.obj
 0001:00025180       ?AddMsearchHandler@SsdpListenerMulticast@Net@OpenHome@@QAEHPAVISsdpMsearchHandler@23@@Z 00426180 f   libohNetCore:Discovery.obj
 0001:000252d0       ?RemoveNotifyHandler@SsdpListenerMulticast@Net@OpenHome@@QAEXH@Z 004262d0 f   libohNetCore:Discovery.obj
 0001:00025390       ?RemoveMsearchHandler@SsdpListenerMulticast@Net@OpenHome@@QAEXH@Z 00426390 f   libohNetCore:Discovery.obj
 0001:00025450       ?Interface@SsdpListenerMulticast@Net@OpenHome@@QBEIXZ 00426450 f   libohNetCore:Discovery.obj
 0001:00025470       ?EraseDisabled@SsdpListenerMulticast@Net@OpenHome@@AAEXAAV?$vector@PAVNotifyHandler@SsdpListenerMulticast@Net@OpenHome@@V?$allocator@PAVNotifyHandler@SsdpListenerMulticast@Net@OpenHome@@@std@@@std@@@Z 00426470 f   libohNetCore:Discovery.obj
 0001:00025610       ?EraseDisabled@SsdpListenerMulticast@Net@OpenHome@@AAEXAAV?$vector@PAVMsearchHandler@SsdpListenerMulticast@Net@OpenHome@@V?$allocator@PAVMsearchHandler@SsdpListenerMulticast@Net@OpenHome@@@std@@@std@@@Z 00426610 f   libohNetCore:Discovery.obj
 0001:000257b0       ??0SsdpListenerUnicast@Net@OpenHome@@QAE@AAVISsdpNotifyHandler@12@I@Z 004267b0 f   libohNetCore:Discovery.obj
 0001:00025a10       ??1SsdpListenerUnicast@Net@OpenHome@@UAE@XZ 00426a10 f   libohNetCore:Discovery.obj
 0001:00025b50       ?Run@SsdpListenerUnicast@Net@OpenHome@@EAEXXZ 00426b50 f   libohNetCore:Discovery.obj
 0001:00026280       ?MsearchRoot@SsdpListenerUnicast@Net@OpenHome@@QAEXXZ 00427280 f   libohNetCore:Discovery.obj
 0001:000262c0       ?MsearchUuid@SsdpListenerUnicast@Net@OpenHome@@QAEXABVBrx@3@@Z 004272c0 f   libohNetCore:Discovery.obj
 0001:00026300       ?MsearchDeviceType@SsdpListenerUnicast@Net@OpenHome@@QAEXABVBrx@3@0I@Z 00427300 f   libohNetCore:Discovery.obj
 0001:00026350       ?MsearchServiceType@SsdpListenerUnicast@Net@OpenHome@@QAEXABVBrx@3@0I@Z 00427350 f   libohNetCore:Discovery.obj
 0001:000263a0       ?MsearchAll@SsdpListenerUnicast@Net@OpenHome@@QAEXXZ 004273a0 f   libohNetCore:Discovery.obj
 0001:000263e0       ?MsearchDurationSeconds@SsdpListenerUnicast@Net@OpenHome@@ABEIXZ 004273e0 f   libohNetCore:Discovery.obj
 0001:00026410       ??_ESsdpSocketReader@Net@OpenHome@@UAEPAXI@Z 00427410 f i libohNetCore:Discovery.obj
 0001:00026410       ??_GSsdpSocketReader@Net@OpenHome@@UAEPAXI@Z 00427410 f i libohNetCore:Discovery.obj
 0001:00026450       ??_GSsdpListener@Net@OpenHome@@UAEPAXI@Z 00427450 f i libohNetCore:Discovery.obj
 0001:00026450       ??_ESsdpListener@Net@OpenHome@@UAEPAXI@Z 00427450 f i libohNetCore:Discovery.obj
 0001:00026490       ??0SsdpHeaderCacheControl@Net@OpenHome@@QAE@XZ 00427490 f i libohNetCore:Discovery.obj
 0001:000264c0       ??1SsdpHeaderCacheControl@Net@OpenHome@@UAE@XZ 004274c0 f i libohNetCore:Discovery.obj
 0001:000264f0       ??0HttpHeaderLocation@OpenHome@@QAE@XZ 004274f0 f i libohNetCore:Discovery.obj
 0001:00026570       ??1HttpHeaderLocation@OpenHome@@UAE@XZ 00427570 f i libohNetCore:Discovery.obj
 0001:000265e0       ??0SsdpHeaderServer@Net@OpenHome@@QAE@XZ 004275e0 f i libohNetCore:Discovery.obj
 0001:00026610       ??1SsdpHeaderServer@Net@OpenHome@@UAE@XZ 00427610 f i libohNetCore:Discovery.obj
 0001:00026640       ??0SsdpHeaderSt@Net@OpenHome@@QAE@XZ 00427640 f i libohNetCore:Discovery.obj
 0001:000266e0       ??1SsdpHeaderSt@Net@OpenHome@@UAE@XZ 004276e0 f i libohNetCore:Discovery.obj
 0001:00026770       ??0SsdpHeaderUsn@Net@OpenHome@@QAE@XZ 00427770 f i libohNetCore:Discovery.obj
 0001:00026810       ??1SsdpListener@Net@OpenHome@@UAE@XZ 00427810 f i libohNetCore:Discovery.obj
 0001:000268c0       ??1SsdpHeaderUsn@Net@OpenHome@@UAE@XZ 004278c0 f i libohNetCore:Discovery.obj
 0001:00026950       ??_ESsdpHeaderCacheControl@Net@OpenHome@@UAEPAXI@Z 00427950 f i libohNetCore:Discovery.obj
 0001:00026950       ??_GSsdpHeaderCacheControl@Net@OpenHome@@UAEPAXI@Z 00427950 f i libohNetCore:Discovery.obj
 0001:00026990       ??1HttpHeader@OpenHome@@UAE@XZ 00427990 f i libohNetCore:Discovery.obj
 0001:000269c0       ??1IHttpHeader@OpenHome@@UAE@XZ 004279c0 f i libohNetCore:Discovery.obj
 0001:000269e0       ??_GIHttpHeader@OpenHome@@UAEPAXI@Z 004279e0 f i libohNetCore:Discovery.obj
 0001:000269e0       ??_EIHttpHeader@OpenHome@@UAEPAXI@Z 004279e0 f i libohNetCore:Discovery.obj
 0001:00026a20       ??_EHttpHeaderLocation@OpenHome@@UAEPAXI@Z 00427a20 f i libohNetCore:Discovery.obj
 0001:00026a20       ??_GHttpHeaderLocation@OpenHome@@UAEPAXI@Z 00427a20 f i libohNetCore:Discovery.obj
 0001:00026a60       ??1?$Bws@$0DOI@@OpenHome@@UAE@XZ 00427a60 f i libohNetCore:Discovery.obj
 0001:00026a90       ??_ESsdpHeaderServer@Net@OpenHome@@UAEPAXI@Z 00427a90 f i libohNetCore:Discovery.obj
 0001:00026a90       ??_GSsdpHeaderServer@Net@OpenHome@@UAEPAXI@Z 00427a90 f i libohNetCore:Discovery.obj
 0001:00026ad0       ??_GSsdpHeaderSt@Net@OpenHome@@UAEPAXI@Z 00427ad0 f i libohNetCore:Discovery.obj
 0001:00026ad0       ??_ESsdpHeaderSt@Net@OpenHome@@UAEPAXI@Z 00427ad0 f i libohNetCore:Discovery.obj
 0001:00026b10       ??1?$Bws@$0EA@@OpenHome@@UAE@XZ 00427b10 f i libohNetCore:Discovery.obj
 0001:00026b40       ??_GSsdpHeaderUsn@Net@OpenHome@@UAEPAXI@Z 00427b40 f i libohNetCore:Discovery.obj
 0001:00026b40       ??_ESsdpHeaderUsn@Net@OpenHome@@UAEPAXI@Z 00427b40 f i libohNetCore:Discovery.obj
 0001:00026b80       ??_GSsdpListenerMulticast@Net@OpenHome@@UAEPAXI@Z 00427b80 f i libohNetCore:Discovery.obj
 0001:00026b80       ??_ESsdpListenerMulticast@Net@OpenHome@@UAEPAXI@Z 00427b80 f i libohNetCore:Discovery.obj
 0001:00026bc0       ??1?$Srs@$0EAA@@OpenHome@@UAE@XZ 00427bc0 f i libohNetCore:Discovery.obj
 0001:00026bf0       ??1ReaderHttpRequest@OpenHome@@QAE@XZ 00427bf0 f i libohNetCore:Discovery.obj
 0001:00026c70       ??0SsdpHeaderHost@Net@OpenHome@@QAE@XZ 00427c70 f i libohNetCore:Discovery.obj
 0001:00026ca0       ??1SsdpHeaderHost@Net@OpenHome@@UAE@XZ 00427ca0 f i libohNetCore:Discovery.obj
 0001:00026cd0       ??0SsdpHeaderMan@Net@OpenHome@@QAE@XZ 00427cd0 f i libohNetCore:Discovery.obj
 0001:00026d00       ??1SsdpHeaderMan@Net@OpenHome@@UAE@XZ 00427d00 f i libohNetCore:Discovery.obj
 0001:00026d30       ??0SsdpHeaderMx@Net@OpenHome@@QAE@XZ 00427d30 f i libohNetCore:Discovery.obj
 0001:00026d60       ??1SsdpHeaderMx@Net@OpenHome@@UAE@XZ 00427d60 f i libohNetCore:Discovery.obj
 0001:00026d90       ??0SsdpHeaderNt@Net@OpenHome@@QAE@XZ 00427d90 f i libohNetCore:Discovery.obj
 0001:00026e30       ??1SsdpHeaderNt@Net@OpenHome@@UAE@XZ 00427e30 f i libohNetCore:Discovery.obj
 0001:00026ec0       ??0SsdpHeaderNts@Net@OpenHome@@QAE@XZ 00427ec0 f i libohNetCore:Discovery.obj
 0001:00026ef0       ??1SsdpHeaderNts@Net@OpenHome@@UAE@XZ 00427ef0 f i libohNetCore:Discovery.obj
 0001:00026f20       ??1Srx@OpenHome@@UAE@XZ    00427f20 f i libohNetCore:Discovery.obj
 0001:00026f90       ??1IReader@OpenHome@@UAE@XZ 00427f90 f i libohNetCore:Discovery.obj
 0001:00026fb0       ??_GIReader@OpenHome@@UAEPAXI@Z 00427fb0 f i libohNetCore:Discovery.obj
 0001:00026fb0       ??_EIReader@OpenHome@@UAEPAXI@Z 00427fb0 f i libohNetCore:Discovery.obj
 0001:00026ff0       ??1ReaderHttpHeader@OpenHome@@QAE@XZ 00427ff0 f i libohNetCore:Discovery.obj
 0001:00027020       ??1?$Bws@$0MI@@OpenHome@@UAE@XZ 00428020 f i libohNetCore:Discovery.obj
 0001:00027050       ??_ESsdpHeaderHost@Net@OpenHome@@UAEPAXI@Z 00428050 f i libohNetCore:Discovery.obj
 0001:00027050       ??_GSsdpHeaderHost@Net@OpenHome@@UAEPAXI@Z 00428050 f i libohNetCore:Discovery.obj
 0001:00027090       ??_GSsdpHeaderMan@Net@OpenHome@@UAEPAXI@Z 00428090 f i libohNetCore:Discovery.obj
 0001:00027090       ??_ESsdpHeaderMan@Net@OpenHome@@UAEPAXI@Z 00428090 f i libohNetCore:Discovery.obj
 0001:000270d0       ??_ESsdpHeaderMx@Net@OpenHome@@UAEPAXI@Z 004280d0 f i libohNetCore:Discovery.obj
 0001:000270d0       ??_GSsdpHeaderMx@Net@OpenHome@@UAEPAXI@Z 004280d0 f i libohNetCore:Discovery.obj
 0001:00027110       ??_GSsdpHeaderNt@Net@OpenHome@@UAEPAXI@Z 00428110 f i libohNetCore:Discovery.obj
 0001:00027110       ??_ESsdpHeaderNt@Net@OpenHome@@UAEPAXI@Z 00428110 f i libohNetCore:Discovery.obj
 0001:00027150       ??_ESsdpHeaderNts@Net@OpenHome@@UAEPAXI@Z 00428150 f i libohNetCore:Discovery.obj
 0001:00027150       ??_GSsdpHeaderNts@Net@OpenHome@@UAEPAXI@Z 00428150 f i libohNetCore:Discovery.obj
 0001:00027190       ??8Brx@OpenHome@@QBE_NABV01@@Z 00428190 f i libohNetCore:Discovery.obj
 0001:000271c0       ?Mutex@Handler@SsdpListenerMulticast@Net@OpenHome@@QAEAAV04@XZ 004281c0 f i libohNetCore:Discovery.obj
 0001:000271e0       ?IsDisabled@Handler@SsdpListenerMulticast@Net@OpenHome@@QBE_NXZ 004281e0 f i libohNetCore:Discovery.obj
 0001:00027200       ?Handler@MsearchHandler@SsdpListenerMulticast@Net@OpenHome@@QAEPAVISsdpMsearchHandler@34@XZ 00428200 f i libohNetCore:Discovery.obj
 0001:00027220       ?Handler@NotifyHandler@SsdpListenerMulticast@Net@OpenHome@@QAEPAVISsdpNotifyHandler@34@XZ 00428220 f i libohNetCore:Discovery.obj
 0001:00027240       ??0NotifyHandler@SsdpListenerMulticast@Net@OpenHome@@QAE@PAVISsdpNotifyHandler@23@H@Z 00428240 f i libohNetCore:Discovery.obj
 0001:00027280       ??0Handler@SsdpListenerMulticast@Net@OpenHome@@IAE@H@Z 00428280 f i libohNetCore:Discovery.obj
 0001:000272c0       ??0MsearchHandler@SsdpListenerMulticast@Net@OpenHome@@QAE@PAVISsdpMsearchHandler@23@H@Z 004282c0 f i libohNetCore:Discovery.obj
 0001:00027300       ?Id@Handler@SsdpListenerMulticast@Net@OpenHome@@QBEHXZ 00428300 f i libohNetCore:Discovery.obj
 0001:00027320       ?Lock@Handler@SsdpListenerMulticast@Net@OpenHome@@QAEXXZ 00428320 f i libohNetCore:Discovery.obj
 0001:00027350       ?Unlock@Handler@SsdpListenerMulticast@Net@OpenHome@@QAEXXZ 00428350 f i libohNetCore:Discovery.obj
 0001:00027380       ?Disable@Handler@SsdpListenerMulticast@Net@OpenHome@@QAEXXZ 00428380 f i libohNetCore:Discovery.obj
 0001:000273a0       ??1?$_Vector_iterator@V?$_Vector_val@PAVNotifyHandler@SsdpListenerMulticast@Net@OpenHome@@V?$allocator@PAVNotifyHandler@SsdpListenerMulticast@Net@OpenHome@@@std@@@std@@@std@@QAE@XZ 004283a0 f i libohNetCore:Discovery.obj
 0001:000273d0       ??_GNotifyHandler@SsdpListenerMulticast@Net@OpenHome@@QAEPAXI@Z 004283d0 f i libohNetCore:Discovery.obj
 0001:00027410       ??0?$_Vector_const_iterator@V?$_Vector_val@PAVNotifyHandler@SsdpListenerMulticast@Net@OpenHome@@V?$allocator@PAVNotifyHandler@SsdpListenerMulticast@Net@OpenHome@@@std@@@std@@@std@@QAE@ABV01@@Z 00428410 f i libohNetCore:Discovery.obj
 0001:00027450       ??1?$_Vector_const_iterator@V?$_Vector_val@PAVNotifyHandler@SsdpListenerMulticast@Net@OpenHome@@V?$allocator@PAVNotifyHandler@SsdpListenerMulticast@Net@OpenHome@@@std@@@std@@@std@@QAE@XZ 00428450 f i libohNetCore:Discovery.obj
 0001:00027480       ??4?$_Vector_iterator@V?$_Vector_val@PAVNotifyHandler@SsdpListenerMulticast@Net@OpenHome@@V?$allocator@PAVNotifyHandler@SsdpListenerMulticast@Net@OpenHome@@@std@@@std@@@std@@QAEAAV01@ABV01@@Z 00428480 f i libohNetCore:Discovery.obj
 0001:000274b0       ??1NotifyHandler@SsdpListenerMulticast@Net@OpenHome@@QAE@XZ 004284b0 f i libohNetCore:Discovery.obj
 0001:000274e0       ??1Handler@SsdpListenerMulticast@Net@OpenHome@@QAE@XZ 004284e0 f i libohNetCore:Discovery.obj
 0001:00027510       ??0?$_Iterator012@Urandom_access_iterator_tag@std@@PAVNotifyHandler@SsdpListenerMulticast@Net@OpenHome@@HPBQAV3456@ABQAV3456@U_Iterator_base12@2@@std@@QAE@ABU01@@Z 00428510 f i libohNetCore:Discovery.obj
 0001:00027540       ??1?$_Iterator012@Urandom_access_iterator_tag@std@@PAVNotifyHandler@SsdpListenerMulticast@Net@OpenHome@@HPBQAV3456@ABQAV3456@U_Iterator_base12@2@@std@@QAE@XZ 00428540 f i libohNetCore:Discovery.obj
 0001:00027570       ??4?$_Vector_const_iterator@V?$_Vector_val@PAVNotifyHandler@SsdpListenerMulticast@Net@OpenHome@@V?$allocator@PAVNotifyHandler@SsdpListenerMulticast@Net@OpenHome@@@std@@@std@@@std@@QAEAAV01@ABV01@@Z 00428570 f i libohNetCore:Discovery.obj
 0001:000275b0       ??4?$_Iterator012@Urandom_access_iterator_tag@std@@PAVNotifyHandler@SsdpListenerMulticast@Net@OpenHome@@HPBQAV3456@ABQAV3456@U_Iterator_base12@2@@std@@QAEAAU01@ABU01@@Z 004285b0 f i libohNetCore:Discovery.obj
 0001:000275e0       ??1?$_Vector_iterator@V?$_Vector_val@PAVMsearchHandler@SsdpListenerMulticast@Net@OpenHome@@V?$allocator@PAVMsearchHandler@SsdpListenerMulticast@Net@OpenHome@@@std@@@std@@@std@@QAE@XZ 004285e0 f i libohNetCore:Discovery.obj
 0001:00027610       ??_GMsearchHandler@SsdpListenerMulticast@Net@OpenHome@@QAEPAXI@Z 00428610 f i libohNetCore:Discovery.obj
 0001:00027650       ??0?$_Vector_const_iterator@V?$_Vector_val@PAVMsearchHandler@SsdpListenerMulticast@Net@OpenHome@@V?$allocator@PAVMsearchHandler@SsdpListenerMulticast@Net@OpenHome@@@std@@@std@@@std@@QAE@ABV01@@Z 00428650 f i libohNetCore:Discovery.obj
 0001:00027690       ??1?$_Vector_const_iterator@V?$_Vector_val@PAVMsearchHandler@SsdpListenerMulticast@Net@OpenHome@@V?$allocator@PAVMsearchHandler@SsdpListenerMulticast@Net@OpenHome@@@std@@@std@@@std@@QAE@XZ 00428690 f i libohNetCore:Discovery.obj
 0001:000276c0       ??4?$_Vector_iterator@V?$_Vector_val@PAVMsearchHandler@SsdpListenerMulticast@Net@OpenHome@@V?$allocator@PAVMsearchHandler@SsdpListenerMulticast@Net@OpenHome@@@std@@@std@@@std@@QAEAAV01@ABV01@@Z 004286c0 f i libohNetCore:Discovery.obj
 0001:000276f0       ??1MsearchHandler@SsdpListenerMulticast@Net@OpenHome@@QAE@XZ 004286f0 f i libohNetCore:Discovery.obj
 0001:00027720       ??0?$_Iterator012@Urandom_access_iterator_tag@std@@PAVMsearchHandler@SsdpListenerMulticast@Net@OpenHome@@HPBQAV3456@ABQAV3456@U_Iterator_base12@2@@std@@QAE@ABU01@@Z 00428720 f i libohNetCore:Discovery.obj
 0001:00027750       ??1?$_Iterator012@Urandom_access_iterator_tag@std@@PAVMsearchHandler@SsdpListenerMulticast@Net@OpenHome@@HPBQAV3456@ABQAV3456@U_Iterator_base12@2@@std@@QAE@XZ 00428750 f i libohNetCore:Discovery.obj
 0001:00027780       ??4?$_Vector_const_iterator@V?$_Vector_val@PAVMsearchHandler@SsdpListenerMulticast@Net@OpenHome@@V?$allocator@PAVMsearchHandler@SsdpListenerMulticast@Net@OpenHome@@@std@@@std@@@std@@QAEAAV01@ABV01@@Z 00428780 f i libohNetCore:Discovery.obj
 0001:000277c0       ??4?$_Iterator012@Urandom_access_iterator_tag@std@@PAVMsearchHandler@SsdpListenerMulticast@Net@OpenHome@@HPBQAV3456@ABQAV3456@U_Iterator_base12@2@@std@@QAEAAU01@ABU01@@Z 004287c0 f i libohNetCore:Discovery.obj
 0001:000277f0       ??_ESsdpListenerUnicast@Net@OpenHome@@UAEPAXI@Z 004287f0 f i libohNetCore:Discovery.obj
 0001:000277f0       ??_GSsdpListenerUnicast@Net@OpenHome@@UAEPAXI@Z 004287f0 f i libohNetCore:Discovery.obj
 0001:00027830       ??1?$Sws@$0EAA@@OpenHome@@UAE@XZ 00428830 f i libohNetCore:Discovery.obj
 0001:00027860       ??1SsdpWriterMsearchRequest@Net@OpenHome@@QAE@XZ 00428860 f i libohNetCore:Discovery.obj
 0001:00027890       ??1ReaderHttpResponse@OpenHome@@QAE@XZ 00428890 f i libohNetCore:Discovery.obj
 0001:00027910       ??0SsdpHeaderExt@Net@OpenHome@@QAE@XZ 00428910 f i libohNetCore:Discovery.obj
 0001:00027940       ??1SsdpHeaderExt@Net@OpenHome@@UAE@XZ 00428940 f i libohNetCore:Discovery.obj
 0001:00027970       ??1Swx@OpenHome@@UAE@XZ    00428970 f i libohNetCore:Discovery.obj
 0001:000279e0       ??1WriterHttpRequest@OpenHome@@UAE@XZ 004289e0 f i libohNetCore:Discovery.obj
 0001:00027a50       ??1IWriterHttpMethod@OpenHome@@UAE@XZ 00428a50 f i libohNetCore:Discovery.obj
 0001:00027a70       ??_EIWriterHttpMethod@OpenHome@@UAEPAXI@Z 00428a70 f i libohNetCore:Discovery.obj
 0001:00027a70       ??_GIWriterHttpMethod@OpenHome@@UAEPAXI@Z 00428a70 f i libohNetCore:Discovery.obj
 0001:00027ab0       ??1StatusWritable@ReaderHttpResponse@OpenHome@@QAE@XZ 00428ab0 f i libohNetCore:Discovery.obj
 0001:00027ae0       ??1?$Bws@$0GE@@OpenHome@@UAE@XZ 00428ae0 f i libohNetCore:Discovery.obj
 0001:00027b10       ??_GSsdpHeaderExt@Net@OpenHome@@UAEPAXI@Z 00428b10 f i libohNetCore:Discovery.obj
 0001:00027b10       ??_ESsdpHeaderExt@Net@OpenHome@@UAEPAXI@Z 00428b10 f i libohNetCore:Discovery.obj
 0001:00027b50       ??1WriterHttpHeader@OpenHome@@UAE@XZ 00428b50 f i libohNetCore:Discovery.obj
 0001:00027bc0       ??1IWriterHttpHeader@OpenHome@@UAE@XZ 00428bc0 f i libohNetCore:Discovery.obj
 0001:00027bf0       ??_GIWriterHttpHeader@OpenHome@@UAEPAXI@Z 00428bf0 f i libohNetCore:Discovery.obj
 0001:00027bf0       ??_EIWriterHttpHeader@OpenHome@@UAEPAXI@Z 00428bf0 f i libohNetCore:Discovery.obj
 0001:00027c30       ??1HttpStatus@OpenHome@@QAE@XZ 00428c30 f i libohNetCore:Discovery.obj
 0001:00027c60       ??1WriterHttpField@OpenHome@@UAE@XZ 00428c60 f i libohNetCore:Discovery.obj
 0001:00027c90       ??1WriterAscii@OpenHome@@UAE@XZ 00428c90 f i libohNetCore:Discovery.obj
 0001:00027cc0       ??1IWriterAscii@OpenHome@@UAE@XZ 00428cc0 f i libohNetCore:Discovery.obj
 0001:00027cf0       ??_GIWriterAscii@OpenHome@@UAEPAXI@Z 00428cf0 f i libohNetCore:Discovery.obj
 0001:00027cf0       ??_EIWriterAscii@OpenHome@@UAEPAXI@Z 00428cf0 f i libohNetCore:Discovery.obj
 0001:00027d30       ??1?$vector@PAVIHttpHeader@OpenHome@@V?$allocator@PAVIHttpHeader@OpenHome@@@std@@@std@@QAE@XZ 00428d30 f i libohNetCore:Discovery.obj
 0001:00027da0       ??1?$vector@PBVBrx@OpenHome@@V?$allocator@PBVBrx@OpenHome@@@std@@@std@@QAE@XZ 00428da0 f i libohNetCore:Discovery.obj
 0001:00027e10       ??0?$Sws@$0EAA@@OpenHome@@QAE@AAVIWriter@1@@Z 00428e10 f i libohNetCore:Discovery.obj
 0001:00027e60       ?Ptr@?$Sws@$0EAA@@OpenHome@@EAEPAEXZ 00428e60 f i libohNetCore:Discovery.obj
 0001:00027e80       ??0?$vector@PAVNotifyHandler@SsdpListenerMulticast@Net@OpenHome@@V?$allocator@PAVNotifyHandler@SsdpListenerMulticast@Net@OpenHome@@@std@@@std@@QAE@XZ 00428e80 f i libohNetCore:Discovery.obj
 0001:00027ec0       ??1?$vector@PAVNotifyHandler@SsdpListenerMulticast@Net@OpenHome@@V?$allocator@PAVNotifyHandler@SsdpListenerMulticast@Net@OpenHome@@@std@@@std@@QAE@XZ 00428ec0 f i libohNetCore:Discovery.obj
 0001:00027f30       ?begin@?$vector@PAVNotifyHandler@SsdpListenerMulticast@Net@OpenHome@@V?$allocator@PAVNotifyHandler@SsdpListenerMulticast@Net@OpenHome@@@std@@@std@@QAE?AV?$_Vector_iterator@V?$_Vector_val@PAVNotifyHandler@SsdpListenerMulticast@Net@OpenHome@@V?$allocator@PAVNotifyHandler@SsdpListenerMulticast@Net@OpenHome@@@std@@@std@@@2@XZ 00428f30 f i libohNetCore:Discovery.obj
 0001:00027f80       ?end@?$vector@PAVNotifyHandler@SsdpListenerMulticast@Net@OpenHome@@V?$allocator@PAVNotifyHandler@SsdpListenerMulticast@Net@OpenHome@@@std@@@std@@QAE?AV?$_Vector_iterator@V?$_Vector_val@PAVNotifyHandler@SsdpListenerMulticast@Net@OpenHome@@V?$allocator@PAVNotifyHandler@SsdpListenerMulticast@Net@OpenHome@@@std@@@std@@@2@XZ 00428f80 f i libohNetCore:Discovery.obj
 0001:00027fd0       ?size@?$vector@PAVNotifyHandler@SsdpListenerMulticast@Net@OpenHome@@V?$allocator@PAVNotifyHandler@SsdpListenerMulticast@Net@OpenHome@@@std@@@std@@QBEIXZ 00428fd0 f i libohNetCore:Discovery.obj
 0001:00028000       ??A?$vector@PAVNotifyHandler@SsdpListenerMulticast@Net@OpenHome@@V?$allocator@PAVNotifyHandler@SsdpListenerMulticast@Net@OpenHome@@@std@@@std@@QAEAAPAVNotifyHandler@SsdpListenerMulticast@Net@OpenHome@@I@Z 00429000 f i libohNetCore:Discovery.obj
 0001:000280a0       ?push_back@?$vector@PAVNotifyHandler@SsdpListenerMulticast@Net@OpenHome@@V?$allocator@PAVNotifyHandler@SsdpListenerMulticast@Net@OpenHome@@@std@@@std@@QAEXABQAVNotifyHandler@SsdpListenerMulticast@Net@OpenHome@@@Z 004290a0 f i libohNetCore:Discovery.obj
 0001:000281b0       ?erase@?$vector@PAVNotifyHandler@SsdpListenerMulticast@Net@OpenHome@@V?$allocator@PAVNotifyHandler@SsdpListenerMulticast@Net@OpenHome@@@std@@@std@@QAE?AV?$_Vector_iterator@V?$_Vector_val@PAVNotifyHandler@SsdpListenerMulticast@Net@OpenHome@@V?$allocator@PAVNotifyHandler@SsdpListenerMulticast@Net@OpenHome@@@std@@@std@@@2@V?$_Vector_const_iterator@V?$_Vector_val@PAVNotifyHandler@SsdpListenerMulticast@Net@OpenHome@@V?$allocator@PAVNotifyHandler@SsdpListenerMulticast@Net@OpenHome@@@std@@@std@@@2@@Z 004291b0 f i libohNetCore:Discovery.obj
 0001:000282e0       ??0?$vector@PAVMsearchHandler@SsdpListenerMulticast@Net@OpenHome@@V?$allocator@PAVMsearchHandler@SsdpListenerMulticast@Net@OpenHome@@@std@@@std@@QAE@XZ 004292e0 f i libohNetCore:Discovery.obj
 0001:00028320       ??1?$vector@PAVMsearchHandler@SsdpListenerMulticast@Net@OpenHome@@V?$allocator@PAVMsearchHandler@SsdpListenerMulticast@Net@OpenHome@@@std@@@std@@QAE@XZ 00429320 f i libohNetCore:Discovery.obj
 0001:00028390       ?begin@?$vector@PAVMsearchHandler@SsdpListenerMulticast@Net@OpenHome@@V?$allocator@PAVMsearchHandler@SsdpListenerMulticast@Net@OpenHome@@@std@@@std@@QAE?AV?$_Vector_iterator@V?$_Vector_val@PAVMsearchHandler@SsdpListenerMulticast@Net@OpenHome@@V?$allocator@PAVMsearchHandler@SsdpListenerMulticast@Net@OpenHome@@@std@@@std@@@2@XZ 00429390 f i libohNetCore:Discovery.obj
 0001:000283e0       ?end@?$vector@PAVMsearchHandler@SsdpListenerMulticast@Net@OpenHome@@V?$allocator@PAVMsearchHandler@SsdpListenerMulticast@Net@OpenHome@@@std@@@std@@QAE?AV?$_Vector_iterator@V?$_Vector_val@PAVMsearchHandler@SsdpListenerMulticast@Net@OpenHome@@V?$allocator@PAVMsearchHandler@SsdpListenerMulticast@Net@OpenHome@@@std@@@std@@@2@XZ 004293e0 f i libohNetCore:Discovery.obj
 0001:00028430       ?size@?$vector@PAVMsearchHandler@SsdpListenerMulticast@Net@OpenHome@@V?$allocator@PAVMsearchHandler@SsdpListenerMulticast@Net@OpenHome@@@std@@@std@@QBEIXZ 00429430 f i libohNetCore:Discovery.obj
 0001:00028460       ??A?$vector@PAVMsearchHandler@SsdpListenerMulticast@Net@OpenHome@@V?$allocator@PAVMsearchHandler@SsdpListenerMulticast@Net@OpenHome@@@std@@@std@@QAEAAPAVMsearchHandler@SsdpListenerMulticast@Net@OpenHome@@I@Z 00429460 f i libohNetCore:Discovery.obj
 0001:00028500       ?push_back@?$vector@PAVMsearchHandler@SsdpListenerMulticast@Net@OpenHome@@V?$allocator@PAVMsearchHandler@SsdpListenerMulticast@Net@OpenHome@@@std@@@std@@QAEXABQAVMsearchHandler@SsdpListenerMulticast@Net@OpenHome@@@Z 00429500 f i libohNetCore:Discovery.obj
 0001:00028610       ?erase@?$vector@PAVMsearchHandler@SsdpListenerMulticast@Net@OpenHome@@V?$allocator@PAVMsearchHandler@SsdpListenerMulticast@Net@OpenHome@@@std@@@std@@QAE?AV?$_Vector_iterator@V?$_Vector_val@PAVMsearchHandler@SsdpListenerMulticast@Net@OpenHome@@V?$allocator@PAVMsearchHandler@SsdpListenerMulticast@Net@OpenHome@@@std@@@std@@@2@V?$_Vector_const_iterator@V?$_Vector_val@PAVMsearchHandler@SsdpListenerMulticast@Net@OpenHome@@V?$allocator@PAVMsearchHandler@SsdpListenerMulticast@Net@OpenHome@@@std@@@std@@@2@@Z 00429610 f i libohNetCore:Discovery.obj
 0001:00028740       ??0?$Srs@$0EAA@@OpenHome@@QAE@AAVIReaderSource@1@@Z 00429740 f i libohNetCore:Discovery.obj
 0001:00028790       ?Ptr@?$Srs@$0EAA@@OpenHome@@EAEPAEXZ 00429790 f i libohNetCore:Discovery.obj
 0001:000287b0       ??D?$_Vector_iterator@V?$_Vector_val@PAVNotifyHandler@SsdpListenerMulticast@Net@OpenHome@@V?$allocator@PAVNotifyHandler@SsdpListenerMulticast@Net@OpenHome@@@std@@@std@@@std@@QBEAAPAVNotifyHandler@SsdpListenerMulticast@Net@OpenHome@@XZ 004297b0 f i libohNetCore:Discovery.obj
 0001:000287e0       ??E?$_Vector_iterator@V?$_Vector_val@PAVNotifyHandler@SsdpListenerMulticast@Net@OpenHome@@V?$allocator@PAVNotifyHandler@SsdpListenerMulticast@Net@OpenHome@@@std@@@std@@@std@@QAE?AV01@H@Z 004297e0 f i libohNetCore:Discovery.obj
 0001:000288b0       ??9?$_Vector_const_iterator@V?$_Vector_val@PAVNotifyHandler@SsdpListenerMulticast@Net@OpenHome@@V?$allocator@PAVNotifyHandler@SsdpListenerMulticast@Net@OpenHome@@@std@@@std@@@std@@QBE_NABV01@@Z 004298b0 f i libohNetCore:Discovery.obj
 0001:000288f0       ??D?$_Vector_iterator@V?$_Vector_val@PAVMsearchHandler@SsdpListenerMulticast@Net@OpenHome@@V?$allocator@PAVMsearchHandler@SsdpListenerMulticast@Net@OpenHome@@@std@@@std@@@std@@QBEAAPAVMsearchHandler@SsdpListenerMulticast@Net@OpenHome@@XZ 004298f0 f i libohNetCore:Discovery.obj
 0001:00028920       ??E?$_Vector_iterator@V?$_Vector_val@PAVMsearchHandler@SsdpListenerMulticast@Net@OpenHome@@V?$allocator@PAVMsearchHandler@SsdpListenerMulticast@Net@OpenHome@@@std@@@std@@@std@@QAE?AV01@H@Z 00429920 f i libohNetCore:Discovery.obj
 0001:000289f0       ??9?$_Vector_const_iterator@V?$_Vector_val@PAVMsearchHandler@SsdpListenerMulticast@Net@OpenHome@@V?$allocator@PAVMsearchHandler@SsdpListenerMulticast@Net@OpenHome@@@std@@@std@@@std@@QBE_NABV01@@Z 004299f0 f i libohNetCore:Discovery.obj
 0001:00028a30       ??_G?$Sws@$0EAA@@OpenHome@@UAEPAXI@Z 00429a30 f i libohNetCore:Discovery.obj
 0001:00028a30       ??_E?$Sws@$0EAA@@OpenHome@@UAEPAXI@Z 00429a30 f i libohNetCore:Discovery.obj
 0001:00028a70       ??_E?$Srs@$0EAA@@OpenHome@@UAEPAXI@Z 00429a70 f i libohNetCore:Discovery.obj
 0001:00028a70       ??_G?$Srs@$0EAA@@OpenHome@@UAEPAXI@Z 00429a70 f i libohNetCore:Discovery.obj
 0001:00028ab0       ??0?$_Vector_iterator@V?$_Vector_val@PAVNotifyHandler@SsdpListenerMulticast@Net@OpenHome@@V?$allocator@PAVNotifyHandler@SsdpListenerMulticast@Net@OpenHome@@@std@@@std@@@std@@QAE@ABV01@@Z 00429ab0 f i libohNetCore:Discovery.obj
 0001:00028ae0       ??0?$_Vector_iterator@V?$_Vector_val@PAVMsearchHandler@SsdpListenerMulticast@Net@OpenHome@@V?$allocator@PAVMsearchHandler@SsdpListenerMulticast@Net@OpenHome@@@std@@@std@@@std@@QAE@ABV01@@Z 00429ae0 f i libohNetCore:Discovery.obj
 0001:00028b10       ?_Tidy@?$vector@PAVIHttpHeader@OpenHome@@V?$allocator@PAVIHttpHeader@OpenHome@@@std@@@std@@IAEXXZ 00429b10 f i libohNetCore:Discovery.obj
 0001:00028ba0       ??1?$_Vector_val@PAVIHttpHeader@OpenHome@@V?$allocator@PAVIHttpHeader@OpenHome@@@std@@@std@@QAE@XZ 00429ba0 f i libohNetCore:Discovery.obj
 0001:00028c80       ?_Tidy@?$vector@PBVBrx@OpenHome@@V?$allocator@PBVBrx@OpenHome@@@std@@@std@@IAEXXZ 00429c80 f i libohNetCore:Discovery.obj
 0001:00028d10       ??1?$_Vector_val@PBVBrx@OpenHome@@V?$allocator@PBVBrx@OpenHome@@@std@@@std@@QAE@XZ 00429d10 f i libohNetCore:Discovery.obj
 0001:00028df0       ?_Make_iter@?$vector@PAVNotifyHandler@SsdpListenerMulticast@Net@OpenHome@@V?$allocator@PAVNotifyHandler@SsdpListenerMulticast@Net@OpenHome@@@std@@@std@@QBE?AV?$_Vector_iterator@V?$_Vector_val@PAVNotifyHandler@SsdpListenerMulticast@Net@OpenHome@@V?$allocator@PAVNotifyHandler@SsdpListenerMulticast@Net@OpenHome@@@std@@@std@@@2@V?$_Vector_const_iterator@V?$_Vector_val@PAVNotifyHandler@SsdpListenerMulticast@Net@OpenHome@@V?$allocator@PAVNotifyHandler@SsdpListenerMulticast@Net@OpenHome@@@std@@@std@@@2@@Z 00429df0 f i libohNetCore:Discovery.obj
 0001:00028e80       ?_Destroy@?$vector@PAVNotifyHandler@SsdpListenerMulticast@Net@OpenHome@@V?$allocator@PAVNotifyHandler@SsdpListenerMulticast@Net@OpenHome@@@std@@@std@@IAEXPAPAVNotifyHandler@SsdpListenerMulticast@Net@OpenHome@@0@Z 00429e80 f i libohNetCore:Discovery.obj
 0001:00028ec0       ?_Inside@?$vector@PAVNotifyHandler@SsdpListenerMulticast@Net@OpenHome@@V?$allocator@PAVNotifyHandler@SsdpListenerMulticast@Net@OpenHome@@@std@@@std@@IBE_NPBQAVNotifyHandler@SsdpListenerMulticast@Net@OpenHome@@@Z 00429ec0 f i libohNetCore:Discovery.obj
 0001:00028f10       ?_Reserve@?$vector@PAVNotifyHandler@SsdpListenerMulticast@Net@OpenHome@@V?$allocator@PAVNotifyHandler@SsdpListenerMulticast@Net@OpenHome@@@std@@@std@@IAEXI@Z 00429f10 f i libohNetCore:Discovery.obj
 0001:00028f90       ?_Tidy@?$vector@PAVNotifyHandler@SsdpListenerMulticast@Net@OpenHome@@V?$allocator@PAVNotifyHandler@SsdpListenerMulticast@Net@OpenHome@@@std@@@std@@IAEXXZ 00429f90 f i libohNetCore:Discovery.obj
 0001:00029020       ?_Orphan_range@?$vector@PAVNotifyHandler@SsdpListenerMulticast@Net@OpenHome@@V?$allocator@PAVNotifyHandler@SsdpListenerMulticast@Net@OpenHome@@@std@@@std@@IBEXPAPAVNotifyHandler@SsdpListenerMulticast@Net@OpenHome@@0@Z 0042a020 f i libohNetCore:Discovery.obj
 0001:00029130       ??0?$_Vector_val@PAVNotifyHandler@SsdpListenerMulticast@Net@OpenHome@@V?$allocator@PAVNotifyHandler@SsdpListenerMulticast@Net@OpenHome@@@std@@@std@@QAE@V?$allocator@PAVNotifyHandler@SsdpListenerMulticast@Net@OpenHome@@@1@@Z 0042a130 f i libohNetCore:Discovery.obj
 0001:00029250       ??1?$_Vector_val@PAVNotifyHandler@SsdpListenerMulticast@Net@OpenHome@@V?$allocator@PAVNotifyHandler@SsdpListenerMulticast@Net@OpenHome@@@std@@@std@@QAE@XZ 0042a250 f i libohNetCore:Discovery.obj
 0001:00029330       ??0?$allocator@PAVNotifyHandler@SsdpListenerMulticast@Net@OpenHome@@@std@@QAE@XZ 0042a330 f i libohNetCore:Discovery.obj
 0001:00029350       ?_Make_iter@?$vector@PAVMsearchHandler@SsdpListenerMulticast@Net@OpenHome@@V?$allocator@PAVMsearchHandler@SsdpListenerMulticast@Net@OpenHome@@@std@@@std@@QBE?AV?$_Vector_iterator@V?$_Vector_val@PAVMsearchHandler@SsdpListenerMulticast@Net@OpenHome@@V?$allocator@PAVMsearchHandler@SsdpListenerMulticast@Net@OpenHome@@@std@@@std@@@2@V?$_Vector_const_iterator@V?$_Vector_val@PAVMsearchHandler@SsdpListenerMulticast@Net@OpenHome@@V?$allocator@PAVMsearchHandler@SsdpListenerMulticast@Net@OpenHome@@@std@@@std@@@2@@Z 0042a350 f i libohNetCore:Discovery.obj
 0001:000293e0       ?_Destroy@?$vector@PAVMsearchHandler@SsdpListenerMulticast@Net@OpenHome@@V?$allocator@PAVMsearchHandler@SsdpListenerMulticast@Net@OpenHome@@@std@@@std@@IAEXPAPAVMsearchHandler@SsdpListenerMulticast@Net@OpenHome@@0@Z 0042a3e0 f i libohNetCore:Discovery.obj
 0001:00029420       ?_Inside@?$vector@PAVMsearchHandler@SsdpListenerMulticast@Net@OpenHome@@V?$allocator@PAVMsearchHandler@SsdpListenerMulticast@Net@OpenHome@@@std@@@std@@IBE_NPBQAVMsearchHandler@SsdpListenerMulticast@Net@OpenHome@@@Z 0042a420 f i libohNetCore:Discovery.obj
 0001:00029470       ?_Reserve@?$vector@PAVMsearchHandler@SsdpListenerMulticast@Net@OpenHome@@V?$allocator@PAVMsearchHandler@SsdpListenerMulticast@Net@OpenHome@@@std@@@std@@IAEXI@Z 0042a470 f i libohNetCore:Discovery.obj
 0001:000294f0       ?_Tidy@?$vector@PAVMsearchHandler@SsdpListenerMulticast@Net@OpenHome@@V?$allocator@PAVMsearchHandler@SsdpListenerMulticast@Net@OpenHome@@@std@@@std@@IAEXXZ 0042a4f0 f i libohNetCore:Discovery.obj
 0001:00029580       ?_Orphan_range@?$vector@PAVMsearchHandler@SsdpListenerMulticast@Net@OpenHome@@V?$allocator@PAVMsearchHandler@SsdpListenerMulticast@Net@OpenHome@@@std@@@std@@IBEXPAPAVMsearchHandler@SsdpListenerMulticast@Net@OpenHome@@0@Z 0042a580 f i libohNetCore:Discovery.obj
 0001:00029690       ??0?$_Vector_val@PAVMsearchHandler@SsdpListenerMulticast@Net@OpenHome@@V?$allocator@PAVMsearchHandler@SsdpListenerMulticast@Net@OpenHome@@@std@@@std@@QAE@V?$allocator@PAVMsearchHandler@SsdpListenerMulticast@Net@OpenHome@@@1@@Z 0042a690 f i libohNetCore:Discovery.obj
 0001:000297b0       ??1?$_Vector_val@PAVMsearchHandler@SsdpListenerMulticast@Net@OpenHome@@V?$allocator@PAVMsearchHandler@SsdpListenerMulticast@Net@OpenHome@@@std@@@std@@QAE@XZ 0042a7b0 f i libohNetCore:Discovery.obj
 0001:00029890       ??0?$allocator@PAVMsearchHandler@SsdpListenerMulticast@Net@OpenHome@@@std@@QAE@XZ 0042a890 f i libohNetCore:Discovery.obj
 0001:000298b0       ??0?$_Vector_iterator@V?$_Vector_val@PAVNotifyHandler@SsdpListenerMulticast@Net@OpenHome@@V?$allocator@PAVNotifyHandler@SsdpListenerMulticast@Net@OpenHome@@@std@@@std@@@std@@QAE@PAPAVNotifyHandler@SsdpListenerMulticast@Net@OpenHome@@PBU_Container_base12@1@@Z 0042a8b0 f i libohNetCore:Discovery.obj
 0001:000298f0       ??E?$_Vector_iterator@V?$_Vector_val@PAVNotifyHandler@SsdpListenerMulticast@Net@OpenHome@@V?$allocator@PAVNotifyHandler@SsdpListenerMulticast@Net@OpenHome@@@std@@@std@@@std@@QAEAAV01@XZ 0042a8f0 f i libohNetCore:Discovery.obj
 0001:00029920       ??D?$_Vector_const_iterator@V?$_Vector_val@PAVNotifyHandler@SsdpListenerMulticast@Net@OpenHome@@V?$allocator@PAVNotifyHandler@SsdpListenerMulticast@Net@OpenHome@@@std@@@std@@@std@@QBEABQAVNotifyHandler@SsdpListenerMulticast@Net@OpenHome@@XZ 0042a920 f i libohNetCore:Discovery.obj
 0001:000299e0       ??8?$_Vector_const_iterator@V?$_Vector_val@PAVNotifyHandler@SsdpListenerMulticast@Net@OpenHome@@V?$allocator@PAVNotifyHandler@SsdpListenerMulticast@Net@OpenHome@@@std@@@std@@@std@@QBE_NABV01@@Z 0042a9e0 f i libohNetCore:Discovery.obj
 0001:00029a20       ??0?$_Vector_iterator@V?$_Vector_val@PAVMsearchHandler@SsdpListenerMulticast@Net@OpenHome@@V?$allocator@PAVMsearchHandler@SsdpListenerMulticast@Net@OpenHome@@@std@@@std@@@std@@QAE@PAPAVMsearchHandler@SsdpListenerMulticast@Net@OpenHome@@PBU_Container_base12@1@@Z 0042aa20 f i libohNetCore:Discovery.obj
 0001:00029a60       ??E?$_Vector_iterator@V?$_Vector_val@PAVMsearchHandler@SsdpListenerMulticast@Net@OpenHome@@V?$allocator@PAVMsearchHandler@SsdpListenerMulticast@Net@OpenHome@@@std@@@std@@@std@@QAEAAV01@XZ 0042aa60 f i libohNetCore:Discovery.obj
 0001:00029a90       ??D?$_Vector_const_iterator@V?$_Vector_val@PAVMsearchHandler@SsdpListenerMulticast@Net@OpenHome@@V?$allocator@PAVMsearchHandler@SsdpListenerMulticast@Net@OpenHome@@@std@@@std@@@std@@QBEABQAVMsearchHandler@SsdpListenerMulticast@Net@OpenHome@@XZ 0042aa90 f i libohNetCore:Discovery.obj
 0001:00029b50       ??8?$_Vector_const_iterator@V?$_Vector_val@PAVMsearchHandler@SsdpListenerMulticast@Net@OpenHome@@V?$allocator@PAVMsearchHandler@SsdpListenerMulticast@Net@OpenHome@@@std@@@std@@@std@@QBE_NABV01@@Z 0042ab50 f i libohNetCore:Discovery.obj
 0001:00029b90       ?_Destroy@?$vector@PAVIHttpHeader@OpenHome@@V?$allocator@PAVIHttpHeader@OpenHome@@@std@@@std@@IAEXPAPAVIHttpHeader@OpenHome@@0@Z 0042ab90 f i libohNetCore:Discovery.obj
 0001:00029bd0       ?deallocate@?$allocator@PAVIHttpHeader@OpenHome@@@std@@QAEXPAPAVIHttpHeader@OpenHome@@I@Z 0042abd0 f i libohNetCore:Discovery.obj
 0001:00029c00       ?_Destroy@?$vector@PBVBrx@OpenHome@@V?$allocator@PBVBrx@OpenHome@@@std@@@std@@IAEXPAPBVBrx@OpenHome@@0@Z 0042ac00 f i libohNetCore:Discovery.obj
 0001:00029c40       ?deallocate@?$allocator@PBVBrx@OpenHome@@@std@@QAEXPAPBVBrx@OpenHome@@I@Z 0042ac40 f i libohNetCore:Discovery.obj
 0001:00029c70       ?reserve@?$vector@PAVNotifyHandler@SsdpListenerMulticast@Net@OpenHome@@V?$allocator@PAVNotifyHandler@SsdpListenerMulticast@Net@OpenHome@@@std@@@std@@QAEXI@Z 0042ac70 f i libohNetCore:Discovery.obj
 0001:00029de0       ?capacity@?$vector@PAVNotifyHandler@SsdpListenerMulticast@Net@OpenHome@@V?$allocator@PAVNotifyHandler@SsdpListenerMulticast@Net@OpenHome@@@std@@@std@@QBEIXZ 0042ade0 f i libohNetCore:Discovery.obj
 0001:00029e10       ?max_size@?$vector@PAVNotifyHandler@SsdpListenerMulticast@Net@OpenHome@@V?$allocator@PAVNotifyHandler@SsdpListenerMulticast@Net@OpenHome@@@std@@@std@@QBEIXZ 0042ae10 f i libohNetCore:Discovery.obj
 0001:00029e40       ?_Grow_to@?$vector@PAVNotifyHandler@SsdpListenerMulticast@Net@OpenHome@@V?$allocator@PAVNotifyHandler@SsdpListenerMulticast@Net@OpenHome@@@std@@@std@@IBEII@Z 0042ae40 f i libohNetCore:Discovery.obj
 0001:00029ec0       ?_Xlen@?$vector@PAVNotifyHandler@SsdpListenerMulticast@Net@OpenHome@@V?$allocator@PAVNotifyHandler@SsdpListenerMulticast@Net@OpenHome@@@std@@@std@@IBEXXZ 0042aec0 f i libohNetCore:Discovery.obj
 0001:00029ef0       ??0?$allocator@PAVNotifyHandler@SsdpListenerMulticast@Net@OpenHome@@@std@@QAE@ABV01@@Z 0042aef0 f i libohNetCore:Discovery.obj
 0001:00029f10       ?deallocate@?$allocator@PAVNotifyHandler@SsdpListenerMulticast@Net@OpenHome@@@std@@QAEXPAPAVNotifyHandler@SsdpListenerMulticast@Net@OpenHome@@I@Z 0042af10 f i libohNetCore:Discovery.obj
 0001:00029f40       ?reserve@?$vector@PAVMsearchHandler@SsdpListenerMulticast@Net@OpenHome@@V?$allocator@PAVMsearchHandler@SsdpListenerMulticast@Net@OpenHome@@@std@@@std@@QAEXI@Z 0042af40 f i libohNetCore:Discovery.obj
 0001:0002a0b0       ?capacity@?$vector@PAVMsearchHandler@SsdpListenerMulticast@Net@OpenHome@@V?$allocator@PAVMsearchHandler@SsdpListenerMulticast@Net@OpenHome@@@std@@@std@@QBEIXZ 0042b0b0 f i libohNetCore:Discovery.obj
 0001:0002a0e0       ?max_size@?$vector@PAVMsearchHandler@SsdpListenerMulticast@Net@OpenHome@@V?$allocator@PAVMsearchHandler@SsdpListenerMulticast@Net@OpenHome@@@std@@@std@@QBEIXZ 0042b0e0 f i libohNetCore:Discovery.obj
 0001:0002a110       ?_Grow_to@?$vector@PAVMsearchHandler@SsdpListenerMulticast@Net@OpenHome@@V?$allocator@PAVMsearchHandler@SsdpListenerMulticast@Net@OpenHome@@@std@@@std@@IBEII@Z 0042b110 f i libohNetCore:Discovery.obj
 0001:0002a190       ?_Xlen@?$vector@PAVMsearchHandler@SsdpListenerMulticast@Net@OpenHome@@V?$allocator@PAVMsearchHandler@SsdpListenerMulticast@Net@OpenHome@@@std@@@std@@IBEXXZ 0042b190 f i libohNetCore:Discovery.obj
 0001:0002a1c0       ??0?$allocator@PAVMsearchHandler@SsdpListenerMulticast@Net@OpenHome@@@std@@QAE@ABV01@@Z 0042b1c0 f i libohNetCore:Discovery.obj
 0001:0002a1e0       ?deallocate@?$allocator@PAVMsearchHandler@SsdpListenerMulticast@Net@OpenHome@@@std@@QAEXPAPAVMsearchHandler@SsdpListenerMulticast@Net@OpenHome@@I@Z 0042b1e0 f i libohNetCore:Discovery.obj
 0001:0002a210       ??0?$_Vector_const_iterator@V?$_Vector_val@PAVNotifyHandler@SsdpListenerMulticast@Net@OpenHome@@V?$allocator@PAVNotifyHandler@SsdpListenerMulticast@Net@OpenHome@@@std@@@std@@@std@@QAE@PAPAVNotifyHandler@SsdpListenerMulticast@Net@OpenHome@@PBU_Container_base12@1@@Z 0042b210 f i libohNetCore:Discovery.obj
 0001:0002a290       ??E?$_Vector_const_iterator@V?$_Vector_val@PAVNotifyHandler@SsdpListenerMulticast@Net@OpenHome@@V?$allocator@PAVNotifyHandler@SsdpListenerMulticast@Net@OpenHome@@@std@@@std@@@std@@QAEAAV01@XZ 0042b290 f i libohNetCore:Discovery.obj
 0001:0002a340       ?_Compat@?$_Vector_const_iterator@V?$_Vector_val@PAVNotifyHandler@SsdpListenerMulticast@Net@OpenHome@@V?$allocator@PAVNotifyHandler@SsdpListenerMulticast@Net@OpenHome@@@std@@@std@@@std@@QBEXABV12@@Z 0042b340 f i libohNetCore:Discovery.obj
 0001:0002a3f0       ??0?$_Vector_const_iterator@V?$_Vector_val@PAVMsearchHandler@SsdpListenerMulticast@Net@OpenHome@@V?$allocator@PAVMsearchHandler@SsdpListenerMulticast@Net@OpenHome@@@std@@@std@@@std@@QAE@PAPAVMsearchHandler@SsdpListenerMulticast@Net@OpenHome@@PBU_Container_base12@1@@Z 0042b3f0 f i libohNetCore:Discovery.obj
 0001:0002a470       ??E?$_Vector_const_iterator@V?$_Vector_val@PAVMsearchHandler@SsdpListenerMulticast@Net@OpenHome@@V?$allocator@PAVMsearchHandler@SsdpListenerMulticast@Net@OpenHome@@@std@@@std@@@std@@QAEAAV01@XZ 0042b470 f i libohNetCore:Discovery.obj
 0001:0002a520       ?_Compat@?$_Vector_const_iterator@V?$_Vector_val@PAVMsearchHandler@SsdpListenerMulticast@Net@OpenHome@@V?$allocator@PAVMsearchHandler@SsdpListenerMulticast@Net@OpenHome@@@std@@@std@@@std@@QBEXABV12@@Z 0042b520 f i libohNetCore:Discovery.obj
 0001:0002a5d0       ??0?$_Iterator012@Urandom_access_iterator_tag@std@@PAVNotifyHandler@SsdpListenerMulticast@Net@OpenHome@@HPBQAV3456@ABQAV3456@U_Iterator_base12@2@@std@@QAE@XZ 0042b5d0 f i libohNetCore:Discovery.obj
 0001:0002a600       ??0?$_Iterator012@Urandom_access_iterator_tag@std@@PAVMsearchHandler@SsdpListenerMulticast@Net@OpenHome@@HPBQAV3456@ABQAV3456@U_Iterator_base12@2@@std@@QAE@XZ 0042b600 f i libohNetCore:Discovery.obj
 0001:0002a630       ?allocate@?$allocator@PAVNotifyHandler@SsdpListenerMulticast@Net@OpenHome@@@std@@QAEPAPAVNotifyHandler@SsdpListenerMulticast@Net@OpenHome@@I@Z 0042b630 f i libohNetCore:Discovery.obj
 0001:0002a660       ?max_size@?$allocator@PAVNotifyHandler@SsdpListenerMulticast@Net@OpenHome@@@std@@QBEIXZ 0042b660 f i libohNetCore:Discovery.obj
 0001:0002a6b0       ?allocate@?$allocator@PAVMsearchHandler@SsdpListenerMulticast@Net@OpenHome@@@std@@QAEPAPAVMsearchHandler@SsdpListenerMulticast@Net@OpenHome@@I@Z 0042b6b0 f i libohNetCore:Discovery.obj
 0001:0002a6e0       ?max_size@?$allocator@PAVMsearchHandler@SsdpListenerMulticast@Net@OpenHome@@@std@@QBEIXZ 0042b6e0 f i libohNetCore:Discovery.obj
 0001:0002a730       ??0?$Bws@$0DOI@@OpenHome@@QAE@XZ 0042b730 f i libohNetCore:Discovery.obj
 0001:0002a770       ?Ptr@?$Bws@$0DOI@@OpenHome@@UBEPBEXZ 0042b770 f i libohNetCore:Discovery.obj
 0001:0002a790       ??0?$Bws@$0EA@@OpenHome@@QAE@XZ 0042b790 f i libohNetCore:Discovery.obj
 0001:0002a7d0       ?Ptr@?$Bws@$0EA@@OpenHome@@UBEPBEXZ 0042b7d0 f i libohNetCore:Discovery.obj
 0001:0002a7f0       ??$addressof@QAVNotifyHandler@SsdpListenerMulticast@Net@OpenHome@@@std@@YGPBQAVNotifyHandler@SsdpListenerMulticast@Net@OpenHome@@ABQAV1234@@Z 0042b7f0 f i libohNetCore:Discovery.obj
 0001:0002a800       ??$_Cons_val@V?$allocator@PAVNotifyHandler@SsdpListenerMulticast@Net@OpenHome@@@std@@PAVNotifyHandler@SsdpListenerMulticast@Net@OpenHome@@AAPAV3456@@std@@YGXAAV?$allocator@PAVNotifyHandler@SsdpListenerMulticast@Net@OpenHome@@@0@PAPAVNotifyHandler@SsdpListenerMulticast@Net@OpenHome@@AAPAV2345@@Z 0042b800 f i libohNetCore:Discovery.obj
 0001:0002a830       ??$_Cons_val@V?$allocator@PAVNotifyHandler@SsdpListenerMulticast@Net@OpenHome@@@std@@PAVNotifyHandler@SsdpListenerMulticast@Net@OpenHome@@ABQAV3456@@std@@YGXAAV?$allocator@PAVNotifyHandler@SsdpListenerMulticast@Net@OpenHome@@@0@PAPAVNotifyHandler@SsdpListenerMulticast@Net@OpenHome@@ABQAV2345@@Z 0042b830 f i libohNetCore:Discovery.obj
 0001:0002a860       ??$_Move@PAPAVNotifyHandler@SsdpListenerMulticast@Net@OpenHome@@PAPAV1234@@std@@YGPAPAVNotifyHandler@SsdpListenerMulticast@Net@OpenHome@@PAPAV1234@00@Z 0042b860 f i libohNetCore:Discovery.obj
 0001:0002a8b0       ??$addressof@QAVMsearchHandler@SsdpListenerMulticast@Net@OpenHome@@@std@@YGPBQAVMsearchHandler@SsdpListenerMulticast@Net@OpenHome@@ABQAV1234@@Z 0042b8b0 f i libohNetCore:Discovery.obj
 0001:0002a8c0       ??$_Cons_val@V?$allocator@PAVMsearchHandler@SsdpListenerMulticast@Net@OpenHome@@@std@@PAVMsearchHandler@SsdpListenerMulticast@Net@OpenHome@@AAPAV3456@@std@@YGXAAV?$allocator@PAVMsearchHandler@SsdpListenerMulticast@Net@OpenHome@@@0@PAPAVMsearchHandler@SsdpListenerMulticast@Net@OpenHome@@AAPAV2345@@Z 0042b8c0 f i libohNetCore:Discovery.obj
 0001:0002a8f0       ??$_Cons_val@V?$allocator@PAVMsearchHandler@SsdpListenerMulticast@Net@OpenHome@@@std@@PAVMsearchHandler@SsdpListenerMulticast@Net@OpenHome@@ABQAV3456@@std@@YGXAAV?$allocator@PAVMsearchHandler@SsdpListenerMulticast@Net@OpenHome@@@0@PAPAVMsearchHandler@SsdpListenerMulticast@Net@OpenHome@@ABQAV2345@@Z 0042b8f0 f i libohNetCore:Discovery.obj
 0001:0002a920       ??$_Move@PAPAVMsearchHandler@SsdpListenerMulticast@Net@OpenHome@@PAPAV1234@@std@@YGPAPAVMsearchHandler@SsdpListenerMulticast@Net@OpenHome@@PAPAV1234@00@Z 0042b920 f i libohNetCore:Discovery.obj
 0001:0002a970       ??$?0PAVIHttpHeader@OpenHome@@@?$allocator@U_Container_proxy@std@@@std@@QAE@ABV?$allocator@PAVIHttpHeader@OpenHome@@@1@@Z 0042b970 f i libohNetCore:Discovery.obj
 0001:0002a990       ??$?0PBVBrx@OpenHome@@@?$allocator@U_Container_proxy@std@@@std@@QAE@ABV?$allocator@PBVBrx@OpenHome@@@1@@Z 0042b990 f i libohNetCore:Discovery.obj
 0001:0002a9b0       ??$_Destroy_range@V?$allocator@PAVNotifyHandler@SsdpListenerMulticast@Net@OpenHome@@@std@@@std@@YGXPAPAVNotifyHandler@SsdpListenerMulticast@Net@OpenHome@@0AAV?$allocator@PAVNotifyHandler@SsdpListenerMulticast@Net@OpenHome@@@0@@Z 0042b9b0 f i libohNetCore:Discovery.obj
 0001:0002aa00       ??$?0PAVNotifyHandler@SsdpListenerMulticast@Net@OpenHome@@@?$allocator@U_Container_proxy@std@@@std@@QAE@ABV?$allocator@PAVNotifyHandler@SsdpListenerMulticast@Net@OpenHome@@@1@@Z 0042ba00 f i libohNetCore:Discovery.obj
 0001:0002aa20       ??$_Destroy_range@V?$allocator@PAVMsearchHandler@SsdpListenerMulticast@Net@OpenHome@@@std@@@std@@YGXPAPAVMsearchHandler@SsdpListenerMulticast@Net@OpenHome@@0AAV?$allocator@PAVMsearchHandler@SsdpListenerMulticast@Net@OpenHome@@@0@@Z 0042ba20 f i libohNetCore:Discovery.obj
 0001:0002aa70       ??$?0PAVMsearchHandler@SsdpListenerMulticast@Net@OpenHome@@@?$allocator@U_Container_proxy@std@@@std@@QAE@ABV?$allocator@PAVMsearchHandler@SsdpListenerMulticast@Net@OpenHome@@@1@@Z 0042ba70 f i libohNetCore:Discovery.obj
 0001:0002aa90       ??$_Destroy_range@V?$allocator@PAVIHttpHeader@OpenHome@@@std@@@std@@YGXPAPAVIHttpHeader@OpenHome@@0AAV?$allocator@PAVIHttpHeader@OpenHome@@@0@@Z 0042ba90 f i libohNetCore:Discovery.obj
 0001:0002aae0       ??$_Destroy_range@V?$allocator@PBVBrx@OpenHome@@@std@@@std@@YGXPAPBVBrx@OpenHome@@0AAV?$allocator@PBVBrx@OpenHome@@@0@@Z 0042bae0 f i libohNetCore:Discovery.obj
 0001:0002ab30       ??$_Umove@PAPAVNotifyHandler@SsdpListenerMulticast@Net@OpenHome@@@?$vector@PAVNotifyHandler@SsdpListenerMulticast@Net@OpenHome@@V?$allocator@PAVNotifyHandler@SsdpListenerMulticast@Net@OpenHome@@@std@@@std@@IAEPAPAVNotifyHandler@SsdpListenerMulticast@Net@OpenHome@@PAPAV2345@00@Z 0042bb30 f i libohNetCore:Discovery.obj
 0001:0002ab70       ??$_Umove@PAPAVMsearchHandler@SsdpListenerMulticast@Net@OpenHome@@@?$vector@PAVMsearchHandler@SsdpListenerMulticast@Net@OpenHome@@V?$allocator@PAVMsearchHandler@SsdpListenerMulticast@Net@OpenHome@@@std@@@std@@IAEPAPAVMsearchHandler@SsdpListenerMulticast@Net@OpenHome@@PAPAV2345@00@Z 0042bb70 f i libohNetCore:Discovery.obj
 0001:0002abb0       ??$_Allocate@PAVNotifyHandler@SsdpListenerMulticast@Net@OpenHome@@@std@@YGPAPAVNotifyHandler@SsdpListenerMulticast@Net@OpenHome@@IPAPAV1234@@Z 0042bbb0 f i libohNetCore:Discovery.obj
 0001:0002ac30       ??$_Allocate@PAVMsearchHandler@SsdpListenerMulticast@Net@OpenHome@@@std@@YGPAPAVMsearchHandler@SsdpListenerMulticast@Net@OpenHome@@IPAPAV1234@@Z 0042bc30 f i libohNetCore:Discovery.obj
 0001:0002acb0       ??_E?$Bws@$0DOI@@OpenHome@@UAEPAXI@Z 0042bcb0 f i libohNetCore:Discovery.obj
 0001:0002acb0       ??_G?$Bws@$0DOI@@OpenHome@@UAEPAXI@Z 0042bcb0 f i libohNetCore:Discovery.obj
 0001:0002acf0       ??_E?$Bws@$0EA@@OpenHome@@UAEPAXI@Z 0042bcf0 f i libohNetCore:Discovery.obj
 0001:0002acf0       ??_G?$Bws@$0EA@@OpenHome@@UAEPAXI@Z 0042bcf0 f i libohNetCore:Discovery.obj
 0001:0002ad30       ?construct@?$allocator@PAVNotifyHandler@SsdpListenerMulticast@Net@OpenHome@@@std@@QAEXPAPAVNotifyHandler@SsdpListenerMulticast@Net@OpenHome@@ABQAV3456@@Z 0042bd30 f i libohNetCore:Discovery.obj
 0001:0002ad60       ?construct@?$allocator@PAVMsearchHandler@SsdpListenerMulticast@Net@OpenHome@@@std@@QAEXPAPAVMsearchHandler@SsdpListenerMulticast@Net@OpenHome@@ABQAV3456@@Z 0042bd60 f i libohNetCore:Discovery.obj
 0001:0002ad90       ??$forward@AAPAVNotifyHandler@SsdpListenerMulticast@Net@OpenHome@@@std@@YGAAPAVNotifyHandler@SsdpListenerMulticast@Net@OpenHome@@AAPAV1234@@Z 0042bd90 f i libohNetCore:Discovery.obj
 0001:0002ada0       ??$construct@AAPAVNotifyHandler@SsdpListenerMulticast@Net@OpenHome@@@?$allocator@PAVNotifyHandler@SsdpListenerMulticast@Net@OpenHome@@@std@@QAEXPAPAVNotifyHandler@SsdpListenerMulticast@Net@OpenHome@@AAPAV2345@@Z 0042bda0 f i libohNetCore:Discovery.obj
 0001:0002ae40       ??$forward@ABQAVNotifyHandler@SsdpListenerMulticast@Net@OpenHome@@@std@@YGABQAVNotifyHandler@SsdpListenerMulticast@Net@OpenHome@@ABQAV1234@@Z 0042be40 f i libohNetCore:Discovery.obj
 0001:0002ae50       ??$_Ptr_cat@PAVNotifyHandler@SsdpListenerMulticast@Net@OpenHome@@PAV1234@@std@@YG?AU_Scalar_ptr_iterator_tag@0@PAPAVNotifyHandler@SsdpListenerMulticast@Net@OpenHome@@0@Z 0042be50 f i libohNetCore:Discovery.obj
 0001:0002aeb0       ??$_Move@PAPAVNotifyHandler@SsdpListenerMulticast@Net@OpenHome@@PAPAV1234@@std@@YGPAPAVNotifyHandler@SsdpListenerMulticast@Net@OpenHome@@PAPAV1234@00U_Scalar_ptr_iterator_tag@0@@Z 0042beb0 f i libohNetCore:Discovery.obj
 0001:0002af00       ??$forward@AAPAVMsearchHandler@SsdpListenerMulticast@Net@OpenHome@@@std@@YGAAPAVMsearchHandler@SsdpListenerMulticast@Net@OpenHome@@AAPAV1234@@Z 0042bf00 f i libohNetCore:Discovery.obj
 0001:0002af10       ??$construct@AAPAVMsearchHandler@SsdpListenerMulticast@Net@OpenHome@@@?$allocator@PAVMsearchHandler@SsdpListenerMulticast@Net@OpenHome@@@std@@QAEXPAPAVMsearchHandler@SsdpListenerMulticast@Net@OpenHome@@AAPAV2345@@Z 0042bf10 f i libohNetCore:Discovery.obj
 0001:0002afb0       ??$forward@ABQAVMsearchHandler@SsdpListenerMulticast@Net@OpenHome@@@std@@YGABQAVMsearchHandler@SsdpListenerMulticast@Net@OpenHome@@ABQAV1234@@Z 0042bfb0 f i libohNetCore:Discovery.obj
 0001:0002afc0       ??$_Ptr_cat@PAVMsearchHandler@SsdpListenerMulticast@Net@OpenHome@@PAV1234@@std@@YG?AU_Scalar_ptr_iterator_tag@0@PAPAVMsearchHandler@SsdpListenerMulticast@Net@OpenHome@@0@Z 0042bfc0 f i libohNetCore:Discovery.obj
 0001:0002b020       ??$_Move@PAPAVMsearchHandler@SsdpListenerMulticast@Net@OpenHome@@PAPAV1234@@std@@YGPAPAVMsearchHandler@SsdpListenerMulticast@Net@OpenHome@@PAPAV1234@00U_Scalar_ptr_iterator_tag@0@@Z 0042c020 f i libohNetCore:Discovery.obj
 0001:0002b070       ??$_Destroy_range@V?$allocator@PAVNotifyHandler@SsdpListenerMulticast@Net@OpenHome@@@std@@@std@@YGXPAPAVNotifyHandler@SsdpListenerMulticast@Net@OpenHome@@0AAV?$allocator@PAVNotifyHandler@SsdpListenerMulticast@Net@OpenHome@@@0@U_Scalar_ptr_iterator_tag@0@@Z 0042c070 f i libohNetCore:Discovery.obj
 0001:0002b080       ??$_Destroy_range@V?$allocator@PAVMsearchHandler@SsdpListenerMulticast@Net@OpenHome@@@std@@@std@@YGXPAPAVMsearchHandler@SsdpListenerMulticast@Net@OpenHome@@0AAV?$allocator@PAVMsearchHandler@SsdpListenerMulticast@Net@OpenHome@@@0@U_Scalar_ptr_iterator_tag@0@@Z 0042c080 f i libohNetCore:Discovery.obj
 0001:0002b090       ??$_Ptr_cat@PAVIHttpHeader@OpenHome@@PAV12@@std@@YG?AU_Scalar_ptr_iterator_tag@0@PAPAVIHttpHeader@OpenHome@@0@Z 0042c090 f i libohNetCore:Discovery.obj
 0001:0002b0f0       ??$_Destroy_range@V?$allocator@PAVIHttpHeader@OpenHome@@@std@@@std@@YGXPAPAVIHttpHeader@OpenHome@@0AAV?$allocator@PAVIHttpHeader@OpenHome@@@0@U_Scalar_ptr_iterator_tag@0@@Z 0042c0f0 f i libohNetCore:Discovery.obj
 0001:0002b100       ??$_Ptr_cat@PBVBrx@OpenHome@@PBV12@@std@@YG?AU_Scalar_ptr_iterator_tag@0@PAPBVBrx@OpenHome@@0@Z 0042c100 f i libohNetCore:Discovery.obj
 0001:0002b160       ??$_Destroy_range@V?$allocator@PBVBrx@OpenHome@@@std@@@std@@YGXPAPBVBrx@OpenHome@@0AAV?$allocator@PBVBrx@OpenHome@@@0@U_Scalar_ptr_iterator_tag@0@@Z 0042c160 f i libohNetCore:Discovery.obj
 0001:0002b170       ??$_Uninitialized_move@PAPAVNotifyHandler@SsdpListenerMulticast@Net@OpenHome@@PAPAV1234@V?$allocator@PAVNotifyHandler@SsdpListenerMulticast@Net@OpenHome@@@std@@@std@@YGPAPAVNotifyHandler@SsdpListenerMulticast@Net@OpenHome@@PAPAV1234@00AAV?$allocator@PAVNotifyHandler@SsdpListenerMulticast@Net@OpenHome@@@0@@Z 0042c170 f i libohNetCore:Discovery.obj
 0001:0002b1c0       ??$_Uninitialized_move@PAPAVMsearchHandler@SsdpListenerMulticast@Net@OpenHome@@PAPAV1234@V?$allocator@PAVMsearchHandler@SsdpListenerMulticast@Net@OpenHome@@@std@@@std@@YGPAPAVMsearchHandler@SsdpListenerMulticast@Net@OpenHome@@PAPAV1234@00AAV?$allocator@PAVMsearchHandler@SsdpListenerMulticast@Net@OpenHome@@@0@@Z 0042c1c0 f i libohNetCore:Discovery.obj
 0001:0002b210       ??$_Construct@PAVNotifyHandler@SsdpListenerMulticast@Net@OpenHome@@ABQAV1234@@std@@YGXPAPAVNotifyHandler@SsdpListenerMulticast@Net@OpenHome@@ABQAV1234@@Z 0042c210 f i libohNetCore:Discovery.obj
 0001:0002b2c0       ??$_Construct@PAVMsearchHandler@SsdpListenerMulticast@Net@OpenHome@@ABQAV1234@@std@@YGXPAPAVMsearchHandler@SsdpListenerMulticast@Net@OpenHome@@ABQAV1234@@Z 0042c2c0 f i libohNetCore:Discovery.obj
 0001:0002b370       ??$_Val_type@PAPAVNotifyHandler@SsdpListenerMulticast@Net@OpenHome@@@std@@YGPAPAVNotifyHandler@SsdpListenerMulticast@Net@OpenHome@@PAPAV1234@@Z 0042c370 f i libohNetCore:Discovery.obj
 0001:0002b380       ??$_Uninit_move@PAVNotifyHandler@SsdpListenerMulticast@Net@OpenHome@@PAV1234@PAV1234@@std@@YGPAPAVNotifyHandler@SsdpListenerMulticast@Net@OpenHome@@PAPAV1234@00AAV?$allocator@PAVNotifyHandler@SsdpListenerMulticast@Net@OpenHome@@@0@0U_Scalar_ptr_iterator_tag@0@@Z 0042c380 f i libohNetCore:Discovery.obj
 0001:0002b3f0       ??$_Val_type@PAPAVMsearchHandler@SsdpListenerMulticast@Net@OpenHome@@@std@@YGPAPAVMsearchHandler@SsdpListenerMulticast@Net@OpenHome@@PAPAV1234@@Z 0042c3f0 f i libohNetCore:Discovery.obj
 0001:0002b400       ??$_Uninit_move@PAVMsearchHandler@SsdpListenerMulticast@Net@OpenHome@@PAV1234@PAV1234@@std@@YGPAPAVMsearchHandler@SsdpListenerMulticast@Net@OpenHome@@PAPAV1234@00AAV?$allocator@PAVMsearchHandler@SsdpListenerMulticast@Net@OpenHome@@@0@0U_Scalar_ptr_iterator_tag@0@@Z 0042c400 f i libohNetCore:Discovery.obj
 0001:0002b470       ??$_Debug_range@PAPAVNotifyHandler@SsdpListenerMulticast@Net@OpenHome@@@std@@YGXPAPAVNotifyHandler@SsdpListenerMulticast@Net@OpenHome@@0PB_WI@Z 0042c470 f i libohNetCore:Discovery.obj
 0001:0002b4c0       ??$_Debug_pointer@PAVNotifyHandler@SsdpListenerMulticast@Net@OpenHome@@@std@@YGXPAPAVNotifyHandler@SsdpListenerMulticast@Net@OpenHome@@PB_WI@Z 0042c4c0 f i libohNetCore:Discovery.obj
 0001:0002b4f0       ??$_Debug_range@PAPAVMsearchHandler@SsdpListenerMulticast@Net@OpenHome@@@std@@YGXPAPAVMsearchHandler@SsdpListenerMulticast@Net@OpenHome@@0PB_WI@Z 0042c4f0 f i libohNetCore:Discovery.obj
 0001:0002b540       ??$_Debug_pointer@PAVMsearchHandler@SsdpListenerMulticast@Net@OpenHome@@@std@@YGXPAPAVMsearchHandler@SsdpListenerMulticast@Net@OpenHome@@PB_WI@Z 0042c540 f i libohNetCore:Discovery.obj
 0001:0002b570       ??$_Iter_cat@PAPAVNotifyHandler@SsdpListenerMulticast@Net@OpenHome@@@std@@YG?AUrandom_access_iterator_tag@0@ABQAPAVNotifyHandler@SsdpListenerMulticast@Net@OpenHome@@@Z 0042c570 f i libohNetCore:Discovery.obj
 0001:0002b5d0       ??$_Debug_range2@PAPAVNotifyHandler@SsdpListenerMulticast@Net@OpenHome@@@std@@YGXPAPAVNotifyHandler@SsdpListenerMulticast@Net@OpenHome@@0PB_WIUrandom_access_iterator_tag@0@@Z 0042c5d0 f i libohNetCore:Discovery.obj
 0001:0002b630       ??$_Iter_cat@PAPAVMsearchHandler@SsdpListenerMulticast@Net@OpenHome@@@std@@YG?AUrandom_access_iterator_tag@0@ABQAPAVMsearchHandler@SsdpListenerMulticast@Net@OpenHome@@@Z 0042c630 f i libohNetCore:Discovery.obj
 0001:0002b690       ??$_Debug_range2@PAPAVMsearchHandler@SsdpListenerMulticast@Net@OpenHome@@@std@@YGXPAPAVMsearchHandler@SsdpListenerMulticast@Net@OpenHome@@0PB_WIUrandom_access_iterator_tag@0@@Z 0042c690 f i libohNetCore:Discovery.obj
 0001:0002b6f0       ??_ESsdpSocketReader@Net@OpenHome@@WBI@AEPAXI@Z 0042c6f0 f i libohNetCore:Discovery.obj
 0001:0002b700       ??_E?$Sws@$0EAA@@OpenHome@@WM@AEPAXI@Z 0042c700 f i libohNetCore:Discovery.obj
 0001:0002b710       ??_E?$Srs@$0EAA@@OpenHome@@WM@AEPAXI@Z 0042c710 f i libohNetCore:Discovery.obj
 0001:0002b720       ?GetPlatformNameAndVersion@Os@OpenHome@@SG?AVBrn@2@AAI0@Z 0042c720 f   libohNetCore:OsWrapper.obj
 0001:0002b810       ?NetworkCreate@Os@OpenHome@@SGPAXW4ESocketType@2@@Z 0042c810 f   libohNetCore:OsWrapper.obj
 0001:0002b8e0       ?NetworkBind@Os@OpenHome@@SGHPAXABVEndpoint@2@@Z 0042c8e0 f   libohNetCore:OsWrapper.obj
 0001:0002b920       ?NetworkPort@Os@OpenHome@@SGHPAXAAI@Z 0042c920 f   libohNetCore:OsWrapper.obj
 0001:0002b9a0       ?NetworkGetHostByName@Os@OpenHome@@SGIABVBrx@2@@Z 0042c9a0 f   libohNetCore:OsWrapper.obj
 0001:0002baf0       ?NetworkConnect@Os@OpenHome@@SGXPAXABVEndpoint@2@I@Z 0042caf0 f   libohNetCore:OsWrapper.obj
 0001:0002bc10       ?NetworkReceiveFrom@Os@OpenHome@@SGHPAXAAVBwx@2@AAVEndpoint@2@@Z 0042cc10 f   libohNetCore:OsWrapper.obj
 0001:0002bce0       ?NetworkSocketSetSendBufBytes@Os@OpenHome@@SGXPAXI@Z 0042cce0 f   libohNetCore:OsWrapper.obj
 0001:0002bdf0       ?NetworkSocketSetRecvBufBytes@Os@OpenHome@@SGXPAXI@Z 0042cdf0 f   libohNetCore:OsWrapper.obj
 0001:0002bf00       ?NetworkSocketSetReceiveTimeout@Os@OpenHome@@SGXPAXI@Z 0042cf00 f   libohNetCore:OsWrapper.obj
 0001:0002c010       ?NetworkTcpSetNoDelay@Os@OpenHome@@SGXPAX@Z 0042d010 f   libohNetCore:OsWrapper.obj
 0001:0002c110       ?NetworkSocketSetReuseAddress@Os@OpenHome@@SGXPAX@Z 0042d110 f   libohNetCore:OsWrapper.obj
 0001:0002c210       ?NetworkSocketSetMulticastTtl@Os@OpenHome@@SGXPAXE@Z 0042d210 f   libohNetCore:OsWrapper.obj
 0001:0002c320       ?NetworkSocketMulticastAddMembership@Os@OpenHome@@SGXPAXII@Z 0042d320 f   libohNetCore:OsWrapper.obj
 0001:0002c430       ?NetworkSocketMulticastDropMembership@Os@OpenHome@@SGXPAXII@Z 0042d430 f   libohNetCore:OsWrapper.obj
 0001:0002c540       ?NetworkListAdapters@Os@OpenHome@@SGPAV?$vector@PAVNetworkAdapter@OpenHome@@V?$allocator@PAVNetworkAdapter@OpenHome@@@std@@@std@@_N@Z 0042d540 f   libohNetCore:OsWrapper.obj
 0001:0002c750       ?IsHex@Ascii@OpenHome@@SG_ND@Z 0042d750 f   libohNetCore:Ascii.obj
 0001:0002c7b0       ?IsDigit@Ascii@OpenHome@@SG_ND@Z 0042d7b0 f   libohNetCore:Ascii.obj
 0001:0002c7f0       ?IsWhitespace@Ascii@OpenHome@@SG_ND@Z 0042d7f0 f   libohNetCore:Ascii.obj
 0001:0002c810       ?IsLineEnding@Ascii@OpenHome@@SG_ND@Z 0042d810 f   libohNetCore:Ascii.obj
 0001:0002c850       ?IsAlphabetic@Ascii@OpenHome@@SG_ND@Z 0042d850 f   libohNetCore:Ascii.obj
 0001:0002c8a0       ?IsUpperCase@Ascii@OpenHome@@SG_ND@Z 0042d8a0 f   libohNetCore:Ascii.obj
 0001:0002c8e0       ?IsLowerCase@Ascii@OpenHome@@SG_ND@Z 0042d8e0 f   libohNetCore:Ascii.obj
 0001:0002c920       ?ToLowerCase@Ascii@OpenHome@@SGDD@Z 0042d920 f   libohNetCore:Ascii.obj
 0001:0002c970       ?ToUpperCase@Ascii@OpenHome@@SGDD@Z 0042d970 f   libohNetCore:Ascii.obj
 0001:0002c9c0       ?CaseInsensitiveEquals@Ascii@OpenHome@@SG_NDD@Z 0042d9c0 f   libohNetCore:Ascii.obj
 0001:0002ca10       ?CaseInsensitiveEquals@Ascii@OpenHome@@SG_NABVBrx@2@0@Z 0042da10 f   libohNetCore:Ascii.obj
 0001:0002caa0       ?RemoveTheFromStart@Ascii@OpenHome@@SG_NABVBrx@2@AAVBwx@2@@Z 0042daa0 f   libohNetCore:Ascii.obj
 0001:0002cbe0       ?HexChar@Ascii@OpenHome@@SGDI@Z 0042dbe0 f   libohNetCore:Ascii.obj
 0001:0002ccb0       ?HexValue@Ascii@OpenHome@@SGID@Z 0042dcb0 f   libohNetCore:Ascii.obj
 0001:0002cdb0       ?DecChar@Ascii@OpenHome@@SGDI@Z 0042ddb0 f   libohNetCore:Ascii.obj
 0001:0002ce70       ?DecValue@Ascii@OpenHome@@SGID@Z 0042de70 f   libohNetCore:Ascii.obj
 0001:0002cf40       ?AppendDec@Ascii@OpenHome@@SGIAAVBwx@2@E@Z 0042df40 f   libohNetCore:Ascii.obj
 0001:0002cf60       ?AppendDec@Ascii@OpenHome@@SGIAAVBwx@2@C@Z 0042df60 f   libohNetCore:Ascii.obj
 0001:0002cf80       ?AppendDec@Ascii@OpenHome@@SGIAAVBwx@2@H@Z 0042df80 f   libohNetCore:Ascii.obj
 0001:0002d100       ?AppendDec@Ascii@OpenHome@@SGIAAVBwx@2@I@Z 0042e100 f   libohNetCore:Ascii.obj
 0001:0002d260       ?AppendDec@Ascii@OpenHome@@SGIAAVBwx@2@_J@Z 0042e260 f   libohNetCore:Ascii.obj
 0001:0002d410       ?AppendDec@Ascii@OpenHome@@SGIAAVBwx@2@_K@Z 0042e410 f   libohNetCore:Ascii.obj
 0001:0002d580       ?AppendHex@Ascii@OpenHome@@SGIAAVBwx@2@I@Z 0042e580 f   libohNetCore:Ascii.obj
 0001:0002d620       ?AppendHex@Ascii@OpenHome@@SGIAAVBwx@2@E@Z 0042e620 f   libohNetCore:Ascii.obj
 0001:0002d670       ?AppendHexPrefix@Ascii@OpenHome@@SGIAAVBwx@2@@Z 0042e670 f   libohNetCore:Ascii.obj
 0001:0002d690       ?Contains@Ascii@OpenHome@@SG_NABVBrx@2@D@Z 0042e690 f   libohNetCore:Ascii.obj
 0001:0002d6f0       ?ContainsWhitespace@Ascii@OpenHome@@SG_NABVBrx@2@@Z 0042e6f0 f   libohNetCore:Ascii.obj
 0001:0002d750       ?IndexOf@Ascii@OpenHome@@SGIABVBrx@2@D@Z 0042e750 f   libohNetCore:Ascii.obj
 0001:0002d7e0       ?Substitute@Ascii@OpenHome@@SGXAAVBwx@2@DD@Z 0042e7e0 f   libohNetCore:Ascii.obj
 0001:0002d870       ?Trim@Ascii@OpenHome@@SG?AVBrn@2@ABVBrx@2@@Z 0042e870 f   libohNetCore:Ascii.obj
 0001:0002d970       ?Int@Ascii@OpenHome@@SGHABVBrx@2@@Z 0042e970 f   libohNetCore:Ascii.obj
 0001:0002dbf0       ?Uint@Ascii@OpenHome@@SGIABVBrx@2@@Z 0042ebf0 f   libohNetCore:Ascii.obj
 0001:0002ddb0       ?Int64@Ascii@OpenHome@@SG_JABVBrx@2@@Z 0042edb0 f   libohNetCore:Ascii.obj
 0001:0002e080       ?Uint64@Ascii@OpenHome@@SG_KABVBrx@2@@Z 0042f080 f   libohNetCore:Ascii.obj
 0001:0002e260       ?UintHex@Ascii@OpenHome@@SGIABVBrx@2@@Z 0042f260 f   libohNetCore:Ascii.obj
 0001:0002e420       ??0ReaderAscii@OpenHome@@QAE@AAVIReader@1@@Z 0042f420 f   libohNetCore:Ascii.obj
 0001:0002e4a0       ?ReadInt@ReaderAscii@OpenHome@@QAEHE@Z 0042f4a0 f   libohNetCore:Ascii.obj
 0001:0002e560       ?ReadUint@ReaderAscii@OpenHome@@QAEIE@Z 0042f560 f   libohNetCore:Ascii.obj
 0001:0002e620       ?Read@ReaderAscii@OpenHome@@UAE?AVBrn@2@I@Z 0042f620 f   libohNetCore:Ascii.obj
 0001:0002e680       ?ReadUntil@ReaderAscii@OpenHome@@UAE?AVBrn@2@E@Z 0042f680 f   libohNetCore:Ascii.obj
 0001:0002e6f0       ??0WriterAscii@OpenHome@@QAE@AAVIWriter@1@@Z 0042f6f0 f   libohNetCore:Ascii.obj
 0001:0002e770       ?WriteSpace@WriterAscii@OpenHome@@UAEXXZ 0042f770 f   libohNetCore:Ascii.obj
 0001:0002e7b0       ?WriteNewline@WriterAscii@OpenHome@@UAEXXZ 0042f7b0 f   libohNetCore:Ascii.obj
 0001:0002e7f0       ?WriteTab@WriterAscii@OpenHome@@UAEXXZ 0042f7f0 f   libohNetCore:Ascii.obj
 0001:0002e830       ?WriteInt@WriterAscii@OpenHome@@UAEXH@Z 0042f830 f   libohNetCore:Ascii.obj
 0001:0002e910       ?WriteIntPadded@WriterAscii@OpenHome@@UAEXH@Z 0042f910 f   libohNetCore:Ascii.obj
 0001:0002ea10       ?WriteUint@WriterAscii@OpenHome@@UAEXI@Z 0042fa10 f   libohNetCore:Ascii.obj
 0001:0002eaf0       ?WriteUintPadded@WriterAscii@OpenHome@@UAEXI@Z 0042faf0 f   libohNetCore:Ascii.obj
 0001:0002ebf0       ?WriteInt64@WriterAscii@OpenHome@@UAEX_J@Z 0042fbf0 f   libohNetCore:Ascii.obj
 0001:0002ecd0       ?WriteUint64@WriterAscii@OpenHome@@UAEX_K@Z 0042fcd0 f   libohNetCore:Ascii.obj
 0001:0002edb0       ?WriteHex@WriterAscii@OpenHome@@UAEXI@Z 0042fdb0 f   libohNetCore:Ascii.obj
 0001:0002eea0       ?WriteHex@WriterAscii@OpenHome@@UAEXE@Z 0042fea0 f   libohNetCore:Ascii.obj
 0001:0002ef90       ?WriteHexPrefix@WriterAscii@OpenHome@@UAEXXZ 0042ff90 f   libohNetCore:Ascii.obj
 0001:0002efd0       ?Write@WriterAscii@OpenHome@@UAEXE@Z 0042ffd0 f   libohNetCore:Ascii.obj
 0001:0002f020       ?Write@WriterAscii@OpenHome@@UAEXABVBrx@2@@Z 00430020 f   libohNetCore:Ascii.obj
 0001:0002f060       ?WriteFlush@WriterAscii@OpenHome@@UAEXXZ 00430060 f   libohNetCore:Ascii.obj
 0001:0002f0a0       ?StreamWriteUint@Ascii@OpenHome@@SGXAAVIWriter@2@I@Z 004300a0 f   libohNetCore:Ascii.obj
 0001:0002f180       ?StreamWriteInt@Ascii@OpenHome@@SGXAAVIWriter@2@H@Z 00430180 f   libohNetCore:Ascii.obj
 0001:0002f260       ??0AsciiError@OpenHome@@QAE@PBDI@Z 00430260 f i libohNetCore:Ascii.obj
 0001:0002f2a0       ??1AsciiError@OpenHome@@QAE@XZ 004302a0 f i libohNetCore:Ascii.obj
 0001:0002f2d0       ??1?$Bws@$09@OpenHome@@UAE@XZ 004302d0 f i libohNetCore:Ascii.obj
 0001:0002f300       ??1?$Bws@$0BE@@OpenHome@@UAE@XZ 00430300 f i libohNetCore:Ascii.obj
 0001:0002f330       ??_EReaderAscii@OpenHome@@UAEPAXI@Z 00430330 f i libohNetCore:Ascii.obj
 0001:0002f330       ??_GReaderAscii@OpenHome@@UAEPAXI@Z 00430330 f i libohNetCore:Ascii.obj
 0001:0002f370       ??0IReader@OpenHome@@QAE@XZ 00430370 f i libohNetCore:Ascii.obj
 0001:0002f390       ??1ReaderAscii@OpenHome@@UAE@XZ 00430390 f i libohNetCore:Ascii.obj
 0001:0002f3c0       ??_GWriterAscii@OpenHome@@UAEPAXI@Z 004303c0 f i libohNetCore:Ascii.obj
 0001:0002f3c0       ??_EWriterAscii@OpenHome@@UAEPAXI@Z 004303c0 f i libohNetCore:Ascii.obj
 0001:0002f400       ??0IWriterAscii@OpenHome@@QAE@XZ 00430400 f i libohNetCore:Ascii.obj
 0001:0002f430       ??1?$Bws@$0L@@OpenHome@@UAE@XZ 00430430 f i libohNetCore:Ascii.obj
 0001:0002f460       ??1?$Bws@$07@OpenHome@@UAE@XZ 00430460 f i libohNetCore:Ascii.obj
 0001:0002f490       ??1?$Bws@$01@OpenHome@@UAE@XZ 00430490 f i libohNetCore:Ascii.obj
 0001:0002f4c0       ??0?$Bws@$09@OpenHome@@QAE@XZ 004304c0 f i libohNetCore:Ascii.obj
 0001:0002f500       ?Ptr@?$Bws@$09@OpenHome@@UBEPBEXZ 00430500 f i libohNetCore:Ascii.obj
 0001:0002f520       ??0?$Bws@$0BE@@OpenHome@@QAE@XZ 00430520 f i libohNetCore:Ascii.obj
 0001:0002f560       ?Ptr@?$Bws@$0BE@@OpenHome@@UBEPBEXZ 00430560 f i libohNetCore:Ascii.obj
 0001:0002f580       ??0?$Bws@$0L@@OpenHome@@QAE@XZ 00430580 f i libohNetCore:Ascii.obj
 0001:0002f5c0       ?Ptr@?$Bws@$0L@@OpenHome@@UBEPBEXZ 004305c0 f i libohNetCore:Ascii.obj
 0001:0002f5e0       ??0?$Bws@$07@OpenHome@@QAE@XZ 004305e0 f i libohNetCore:Ascii.obj
 0001:0002f620       ?Ptr@?$Bws@$07@OpenHome@@UBEPBEXZ 00430620 f i libohNetCore:Ascii.obj
 0001:0002f640       ??0?$Bws@$01@OpenHome@@QAE@XZ 00430640 f i libohNetCore:Ascii.obj
 0001:0002f680       ?Ptr@?$Bws@$01@OpenHome@@UBEPBEXZ 00430680 f i libohNetCore:Ascii.obj
 0001:0002f6a0       ??_E?$Bws@$09@OpenHome@@UAEPAXI@Z 004306a0 f i libohNetCore:Ascii.obj
 0001:0002f6a0       ??_G?$Bws@$09@OpenHome@@UAEPAXI@Z 004306a0 f i libohNetCore:Ascii.obj
 0001:0002f6e0       ??_G?$Bws@$0BE@@OpenHome@@UAEPAXI@Z 004306e0 f i libohNetCore:Ascii.obj
 0001:0002f6e0       ??_E?$Bws@$0BE@@OpenHome@@UAEPAXI@Z 004306e0 f i libohNetCore:Ascii.obj
 0001:0002f720       ??_G?$Bws@$0L@@OpenHome@@UAEPAXI@Z 00430720 f i libohNetCore:Ascii.obj
 0001:0002f720       ??_E?$Bws@$0L@@OpenHome@@UAEPAXI@Z 00430720 f i libohNetCore:Ascii.obj
 0001:0002f760       ??_E?$Bws@$07@OpenHome@@UAEPAXI@Z 00430760 f i libohNetCore:Ascii.obj
 0001:0002f760       ??_G?$Bws@$07@OpenHome@@UAEPAXI@Z 00430760 f i libohNetCore:Ascii.obj
 0001:0002f7a0       ??_G?$Bws@$01@OpenHome@@UAEPAXI@Z 004307a0 f i libohNetCore:Ascii.obj
 0001:0002f7a0       ??_E?$Bws@$01@OpenHome@@UAEPAXI@Z 004307a0 f i libohNetCore:Ascii.obj
 0001:0002f7e0       ?Version@Http@OpenHome@@SG?AW4EVersion@12@ABVBrx@2@@Z 004307e0 f   libohNetCore:Http.obj
 0001:0002f900       ?Version@Http@OpenHome@@SGABVBrx@2@W4EVersion@12@@Z 00430900 f   libohNetCore:Http.obj
 0001:0002f980       ?WriteHeaderRangeFirstOnly@Http@OpenHome@@SGXAAVWriterHttpHeader@2@_K@Z 00430980 f   libohNetCore:Http.obj
 0001:0002fa80       ?WriteHeaderRange@Http@OpenHome@@SGXAAVWriterHttpHeader@2@_K1@Z 00430a80 f   libohNetCore:Http.obj
 0001:0002fb90       ?WriteHeaderHost@Http@OpenHome@@SGXAAVWriterHttpHeader@2@ABVUri@2@@Z 00430b90 f   libohNetCore:Http.obj
 0001:0002fbd0       ?WriteHeaderHostAndPort@Http@OpenHome@@SGXAAVWriterHttpHeader@2@ABVUri@2@@Z 00430bd0 f   libohNetCore:Http.obj
 0001:0002fc80       ?WriteHeaderContentLength@Http@OpenHome@@SGXAAVWriterHttpHeader@2@I@Z 00430c80 f   libohNetCore:Http.obj
 0001:0002fd70       ?WriteHeaderContentType@Http@OpenHome@@SGXAAVWriterHttpHeader@2@ABVBrx@2@@Z 00430d70 f   libohNetCore:Http.obj
 0001:0002fda0       ?WriteHeaderConnectionClose@Http@OpenHome@@SGXAAVWriterHttpHeader@2@@Z 00430da0 f   libohNetCore:Http.obj
 0001:0002fdd0       ?Code@HttpStatus@OpenHome@@QBEIXZ 00430dd0 f   libohNetCore:Http.obj
 0001:0002fdf0       ?Reason@HttpStatus@OpenHome@@QBEABVBrx@2@XZ 00430df0 f   libohNetCore:Http.obj
 0001:0002fe10       ??8HttpStatus@OpenHome@@QBE_NABV01@@Z 00430e10 f   libohNetCore:Http.obj
 0001:0002fe40       ??9HttpStatus@OpenHome@@QBE_NABV01@@Z 00430e40 f   libohNetCore:Http.obj
 0001:0002fe70       ??0HttpStatus@OpenHome@@IAE@IVBrn@1@@Z 00430e70 f   libohNetCore:Http.obj
 0001:0002fef0       ??0ReaderHttpHeader@OpenHome@@IAE@XZ 00430ef0 f   libohNetCore:Http.obj
 0001:0002ff20       ?AddHeader@ReaderHttpHeader@OpenHome@@QAEXAAVIHttpHeader@2@@Z 00430f20 f   libohNetCore:Http.obj
 0001:0002ff50       ?Header@ReaderHttpHeader@OpenHome@@QBEAAVIHttpHeader@2@XZ 00430f50 f   libohNetCore:Http.obj
 0001:0002ff90       ?ResetHeaders@ReaderHttpHeader@OpenHome@@IAEXXZ 00430f90 f   libohNetCore:Http.obj
 0001:00030020       ?ProcessHeader@ReaderHttpHeader@OpenHome@@IAEXABVBrx@2@0@Z 00431020 f   libohNetCore:Http.obj
 0001:000300d0       ??0ReaderHttpRequest@OpenHome@@QAE@AAVIReader@1@@Z 004310d0 f   libohNetCore:Http.obj
 0001:00030160       ?Read@ReaderHttpRequest@OpenHome@@QAEXXZ 00431160 f   libohNetCore:Http.obj
 0001:00030570       ?AddMethod@ReaderHttpRequest@OpenHome@@QAEXABVBrx@2@@Z 00431570 f   libohNetCore:Http.obj
 0001:000305a0       ?MethodNotAllowed@ReaderHttpRequest@OpenHome@@QBE_NXZ 004315a0 f   libohNetCore:Http.obj
 0001:000305c0       ?Method@ReaderHttpRequest@OpenHome@@QBEABVBrx@2@XZ 004315c0 f   libohNetCore:Http.obj
 0001:00030600       ?Uri@ReaderHttpRequest@OpenHome@@QBEABVBrx@2@XZ 00431600 f   libohNetCore:Http.obj
 0001:00030620       ?Version@ReaderHttpRequest@OpenHome@@QBE?AW4EVersion@Http@2@XZ 00431620 f   libohNetCore:Http.obj
 0001:00030640       ?ProcessMethod@ReaderHttpRequest@OpenHome@@IAEXABVBrx@2@00@Z 00431640 f   libohNetCore:Http.obj
 0001:00030840       ?Flush@ReaderHttpRequest@OpenHome@@QAEXXZ 00431840 f   libohNetCore:Http.obj
 0001:00030880       ?Interrupt@ReaderHttpRequest@OpenHome@@QAEXXZ 00431880 f   libohNetCore:Http.obj
 0001:000308c0       ??0ReaderHttpResponse@OpenHome@@QAE@AAVIReader@1@@Z 004318c0 f   libohNetCore:Http.obj
 0001:00030950       ?Version@ReaderHttpResponse@OpenHome@@QBE?AW4EVersion@Http@2@XZ 00431950 f   libohNetCore:Http.obj
 0001:00030970       ?Status@ReaderHttpResponse@OpenHome@@QBEABVHttpStatus@2@XZ 00431970 f   libohNetCore:Http.obj
 0001:00030990       ?Read@ReaderHttpResponse@OpenHome@@QAEXXZ 00431990 f   libohNetCore:Http.obj
 0001:00030db0       ?ProcessStatus@ReaderHttpResponse@OpenHome@@MAEXABVBrx@2@00@Z 00431db0 f   libohNetCore:Http.obj
 0001:00030f70       ?Flush@ReaderHttpResponse@OpenHome@@QAEXXZ 00431f70 f   libohNetCore:Http.obj
 0001:00030fb0       ?Interrupt@ReaderHttpResponse@OpenHome@@QAEXXZ 00431fb0 f   libohNetCore:Http.obj
 0001:00030ff0       ??0StatusWritable@ReaderHttpResponse@OpenHome@@QAE@XZ 00431ff0 f   libohNetCore:Http.obj
 0001:00031040       ?Set@StatusWritable@ReaderHttpResponse@OpenHome@@QAEXIABVBrx@3@@Z 00432040 f   libohNetCore:Http.obj
 0001:00031080       ??0WriterHttpField@OpenHome@@QAE@AAVIWriter@1@@Z 00432080 f   libohNetCore:Http.obj
 0001:000310c0       ?Write@WriterHttpField@OpenHome@@UAEXE@Z 004320c0 f   libohNetCore:Http.obj
 0001:00031170       ?Write@WriterHttpField@OpenHome@@UAEXABVBrx@2@@Z 00432170 f   libohNetCore:Http.obj
 0001:000311c0       ?WriteFlush@WriterHttpField@OpenHome@@UAEXXZ 004321c0 f   libohNetCore:Http.obj
 0001:000311f0       ?Flush@WriterHttpField@OpenHome@@AAEXXZ 004321f0 f   libohNetCore:Http.obj
 0001:00031220       ??0WriterHttpHeader@OpenHome@@IAE@AAVIWriter@1@@Z 00432220 f   libohNetCore:Http.obj
 0001:000312a0       ?Write@WriterHttpHeader@OpenHome@@UAEXE@Z 004322a0 f   libohNetCore:Http.obj
 0001:000312d0       ?Write@WriterHttpHeader@OpenHome@@UAEXABVBrx@2@@Z 004322d0 f   libohNetCore:Http.obj
 0001:00031300       ?WriteFlush@WriterHttpHeader@OpenHome@@UAEXXZ 00432300 f   libohNetCore:Http.obj
 0001:00031370       ?WriteHeader@WriterHttpHeader@OpenHome@@UAEXABVBrx@2@0@Z 00432370 f   libohNetCore:Http.obj
 0001:00031420       ?WriteHeaderField@WriterHttpHeader@OpenHome@@UAEAAVIWriterAscii@2@ABVBrx@2@@Z 00432420 f   libohNetCore:Http.obj
 0001:000314a0       ??0WriterHttpRequest@OpenHome@@QAE@AAVIWriter@1@@Z 004324a0 f   libohNetCore:Http.obj
 0001:000314f0       ?WriteMethod@WriterHttpRequest@OpenHome@@UAEXABVBrx@2@0W4EVersion@Http@2@@Z 004324f0 f   libohNetCore:Http.obj
 0001:000315e0       ??0WriterHttpResponse@OpenHome@@QAE@AAVIWriter@1@@Z 004325e0 f   libohNetCore:Http.obj
 0001:00031630       ?WriteStatus@WriterHttpResponse@OpenHome@@UAEXABVHttpStatus@2@W4EVersion@Http@2@@Z 00432630 f   libohNetCore:Http.obj
 0001:00031730       ?Write@WriterHttpResponse@OpenHome@@UAEXABVBrx@2@@Z 00432730 f   libohNetCore:Http.obj
 0001:00031770       ??0HttpHeader@OpenHome@@IAE@XZ 00432770 f   libohNetCore:Http.obj
 0001:000317b0       ?Received@HttpHeader@OpenHome@@QBE_NXZ 004327b0 f   libohNetCore:Http.obj
 0001:000317d0       ?SetReceived@HttpHeader@OpenHome@@IAEXXZ 004327d0 f   libohNetCore:Http.obj
 0001:000317f0       ?Reset@HttpHeader@OpenHome@@MAEXXZ 004327f0 f   libohNetCore:Http.obj
 0001:00031810       ?Endpoint@HttpHeaderHost@OpenHome@@QAEAAV02@XZ 00432810 f   libohNetCore:Http.obj
 0001:000318a0       ?Host@HttpHeaderHost@OpenHome@@QBEABVBrx@2@XZ 004328a0 f   libohNetCore:Http.obj
 0001:000318c0       ?Recognise@HttpHeaderHost@OpenHome@@EAE_NABVBrx@2@@Z 004328c0 f   libohNetCore:Http.obj
 0001:000318f0       ?Process@HttpHeaderHost@OpenHome@@EAEXABVBrx@2@@Z 004328f0 f   libohNetCore:Http.obj
 0001:00031bd0       ?Location@HttpHeaderLocation@OpenHome@@QBEABVBrx@2@XZ 00432bd0 f   libohNetCore:Http.obj
 0001:00031bf0       ?Recognise@HttpHeaderLocation@OpenHome@@EAE_NABVBrx@2@@Z 00432bf0 f   libohNetCore:Http.obj
 0001:00031c20       ?Process@HttpHeaderLocation@OpenHome@@EAEXABVBrx@2@@Z 00432c20 f   libohNetCore:Http.obj
 0001:00031cb0       ?Type@HttpHeaderContentType@OpenHome@@QBEABVBrx@2@XZ 00432cb0 f   libohNetCore:Http.obj
 0001:00031cd0       ?Recognise@HttpHeaderContentType@OpenHome@@EAE_NABVBrx@2@@Z 00432cd0 f   libohNetCore:Http.obj
 0001:00031d00       ?Process@HttpHeaderContentType@OpenHome@@EAEXABVBrx@2@@Z 00432d00 f   libohNetCore:Http.obj
 0001:00031fd0       ?Process@HttpHeaderContentType@OpenHome@@IAEXABVBrx@2@0@Z 00432fd0 f   libohNetCore:Http.obj
 0001:00031ff0       ?ContentLength@HttpHeaderContentLength@OpenHome@@QBEIXZ 00432ff0 f   libohNetCore:Http.obj
 0001:00032040       ?Recognise@HttpHeaderContentLength@OpenHome@@EAE_NABVBrx@2@@Z 00433040 f   libohNetCore:Http.obj
 0001:00032070       ?Process@HttpHeaderContentLength@OpenHome@@EAEXABVBrx@2@@Z 00433070 f   libohNetCore:Http.obj
 0001:00032160       ?IsChunked@HttpHeaderTransferEncoding@OpenHome@@QBE_NXZ 00433160 f   libohNetCore:Http.obj
 0001:000321b0       ?Recognise@HttpHeaderTransferEncoding@OpenHome@@EAE_NABVBrx@2@@Z 004331b0 f   libohNetCore:Http.obj
 0001:000321e0       ?Process@HttpHeaderTransferEncoding@OpenHome@@EAEXABVBrx@2@@Z 004331e0 f   libohNetCore:Http.obj
 0001:00032230       ?Close@HttpHeaderConnection@OpenHome@@QBE_NXZ 00433230 f   libohNetCore:Http.obj
 0001:00032280       ?Upgrade@HttpHeaderConnection@OpenHome@@QBE_NXZ 00433280 f   libohNetCore:Http.obj
 0001:000322d0       ?Recognise@HttpHeaderConnection@OpenHome@@EAE_NABVBrx@2@@Z 004332d0 f   libohNetCore:Http.obj
 0001:00032300       ?Process@HttpHeaderConnection@OpenHome@@EAEXABVBrx@2@@Z 00433300 f   libohNetCore:Http.obj
 0001:00032380       ?Continue@HttpHeaderExpect@OpenHome@@QBE_NXZ 00433380 f   libohNetCore:Http.obj
 0001:000323d0       ?Recognise@HttpHeaderExpect@OpenHome@@EAE_NABVBrx@2@@Z 004333d0 f   libohNetCore:Http.obj
 0001:00032400       ?Process@HttpHeaderExpect@OpenHome@@EAEXABVBrx@2@@Z 00433400 f   libohNetCore:Http.obj
 0001:00032440       ??0EndpointHttp@OpenHome@@QAE@ABVUri@1@@Z 00433440 f   libohNetCore:Http.obj
 0001:000324b0       ??0ReaderHttpChunked@OpenHome@@QAE@AAVIReader@1@@Z 004334b0 f   libohNetCore:Http.obj
 0001:000324f0       ?Read@ReaderHttpChunked@OpenHome@@QAEXXZ 004334f0 f   libohNetCore:Http.obj
 0001:000327d0       ?TransferTo@ReaderHttpChunked@OpenHome@@QAEXAAVBwh@2@@Z 004337d0 f   libohNetCore:Http.obj
 0001:00032800       ??0WriterHttpChunked@OpenHome@@QAE@AAVIWriter@1@@Z 00433800 f   libohNetCore:Http.obj
 0001:00032890       ?SetChunked@WriterHttpChunked@OpenHome@@QAEX_N@Z 00433890 f   libohNetCore:Http.obj
 0001:000328b0       ?Write@WriterHttpChunked@OpenHome@@UAEXE@Z 004338b0 f   libohNetCore:Http.obj
 0001:00032980       ?Write@WriterHttpChunked@OpenHome@@UAEXABVBrx@2@@Z 00433980 f   libohNetCore:Http.obj
 0001:00032af0       ?WriteFlush@WriterHttpChunked@OpenHome@@UAEXXZ 00433af0 f   libohNetCore:Http.obj
 0001:00032b90       ??0HttpError@OpenHome@@QAE@PBDI@Z 00433b90 f i libohNetCore:Http.obj
 0001:00032bd0       ??1HttpError@OpenHome@@QAE@XZ 00433bd0 f i libohNetCore:Http.obj
 0001:00032c00       ??1?$Bws@$0BL@@OpenHome@@UAE@XZ 00433c00 f i libohNetCore:Http.obj
 0001:00032c30       ??1?$Bws@$0CP@@OpenHome@@UAE@XZ 00433c30 f i libohNetCore:Http.obj
 0001:00032c60       ?Host@Uri@OpenHome@@QBEABVBrx@2@XZ 00433c60 f i libohNetCore:Http.obj
 0001:00032c80       ?Port@Uri@OpenHome@@QBEHXZ 00433c80 f i libohNetCore:Http.obj
 0001:00032ca0       ??0Brn@OpenHome@@QAE@XZ    00433ca0 f i libohNetCore:Http.obj
 0001:00032ce0       ??1Parser@OpenHome@@QAE@XZ 00433ce0 f i libohNetCore:Http.obj
 0001:00032d10       ??_EWriterHttpField@OpenHome@@UAEPAXI@Z 00433d10 f i libohNetCore:Http.obj
 0001:00032d10       ??_GWriterHttpField@OpenHome@@UAEPAXI@Z 00433d10 f i libohNetCore:Http.obj
 0001:00032d50       ??_GWriterHttpHeader@OpenHome@@UAEPAXI@Z 00433d50 f i libohNetCore:Http.obj
 0001:00032d50       ??_EWriterHttpHeader@OpenHome@@UAEPAXI@Z 00433d50 f i libohNetCore:Http.obj
 0001:00032d90       ??0IWriterHttpHeader@OpenHome@@QAE@XZ 00433d90 f i libohNetCore:Http.obj
 0001:00032dc0       ??_GWriterHttpRequest@OpenHome@@UAEPAXI@Z 00433dc0 f i libohNetCore:Http.obj
 0001:00032dc0       ??_EWriterHttpRequest@OpenHome@@UAEPAXI@Z 00433dc0 f i libohNetCore:Http.obj
 0001:00032e00       ??0IWriterHttpMethod@OpenHome@@QAE@XZ 00433e00 f i libohNetCore:Http.obj
 0001:00032e20       ??_GWriterHttpResponse@OpenHome@@UAEPAXI@Z 00433e20 f i libohNetCore:Http.obj
 0001:00032e20       ??_EWriterHttpResponse@OpenHome@@UAEPAXI@Z 00433e20 f i libohNetCore:Http.obj
 0001:00032e60       ??0IWriterHttpStatus@OpenHome@@QAE@XZ 00433e60 f i libohNetCore:Http.obj
 0001:00032e80       ??_GIWriterHttpStatus@OpenHome@@UAEPAXI@Z 00433e80 f i libohNetCore:Http.obj
 0001:00032e80       ??_EIWriterHttpStatus@OpenHome@@UAEPAXI@Z 00433e80 f i libohNetCore:Http.obj
 0001:00032ec0       ??1IWriterHttpStatus@OpenHome@@UAE@XZ 00433ec0 f i libohNetCore:Http.obj
 0001:00032ee0       ??1WriterHttpResponse@OpenHome@@UAE@XZ 00433ee0 f i libohNetCore:Http.obj
 0001:00032f50       ??_GHttpHeader@OpenHome@@UAEPAXI@Z 00433f50 f i libohNetCore:Http.obj
 0001:00032f50       ??_EHttpHeader@OpenHome@@UAEPAXI@Z 00433f50 f i libohNetCore:Http.obj
 0001:00032f90       ??0IHttpHeader@OpenHome@@QAE@XZ 00433f90 f i libohNetCore:Http.obj
 0001:00032fb0       ??0Brn@OpenHome@@QAE@ABVBrx@1@@Z 00433fb0 f i libohNetCore:Http.obj
 0001:00033040       ?Set@Brn@OpenHome@@QAEXPBEI@Z 00434040 f i libohNetCore:Http.obj
 0001:00033070       ??_GWriterHttpChunked@OpenHome@@UAEPAXI@Z 00434070 f i libohNetCore:Http.obj
 0001:00033070       ??_EWriterHttpChunked@OpenHome@@UAEPAXI@Z 00434070 f i libohNetCore:Http.obj
 0001:000330b0       ??1WriterHttpChunked@OpenHome@@UAE@XZ 004340b0 f i libohNetCore:Http.obj
 0001:00033120       ??1?$Sws@$0BHHA@@OpenHome@@UAE@XZ 00434120 f i libohNetCore:Http.obj
 0001:00033150       ??1?$Bws@$0BA@@OpenHome@@UAE@XZ 00434150 f i libohNetCore:Http.obj
 0001:00033180       ??0?$vector@PAVIHttpHeader@OpenHome@@V?$allocator@PAVIHttpHeader@OpenHome@@@std@@@std@@QAE@XZ 00434180 f i libohNetCore:Http.obj
 0001:000331c0       ?push_back@?$vector@PAVIHttpHeader@OpenHome@@V?$allocator@PAVIHttpHeader@OpenHome@@@std@@@std@@QAEX$$QAPAVIHttpHeader@OpenHome@@@Z 004341c0 f i libohNetCore:Http.obj
 0001:000332e0       ?size@?$vector@PAVIHttpHeader@OpenHome@@V?$allocator@PAVIHttpHeader@OpenHome@@@std@@@std@@QBEIXZ 004342e0 f i libohNetCore:Http.obj
 0001:00033310       ??A?$vector@PAVIHttpHeader@OpenHome@@V?$allocator@PAVIHttpHeader@OpenHome@@@std@@@std@@QAEAAPAVIHttpHeader@OpenHome@@I@Z 00434310 f i libohNetCore:Http.obj
 0001:000333b0       ??0?$vector@PBVBrx@OpenHome@@V?$allocator@PBVBrx@OpenHome@@@std@@@std@@QAE@XZ 004343b0 f i libohNetCore:Http.obj
 0001:000333f0       ?push_back@?$vector@PBVBrx@OpenHome@@V?$allocator@PBVBrx@OpenHome@@@std@@@std@@QAEX$$QAPBVBrx@OpenHome@@@Z 004343f0 f i libohNetCore:Http.obj
 0001:00033510       ?size@?$vector@PBVBrx@OpenHome@@V?$allocator@PBVBrx@OpenHome@@@std@@@std@@QBEIXZ 00434510 f i libohNetCore:Http.obj
 0001:00033540       ??A?$vector@PBVBrx@OpenHome@@V?$allocator@PBVBrx@OpenHome@@@std@@@std@@QAEAAPBVBrx@OpenHome@@I@Z 00434540 f i libohNetCore:Http.obj
 0001:000335e0       ??0?$Sws@$0BHHA@@OpenHome@@QAE@AAVIWriter@1@@Z 004345e0 f i libohNetCore:Http.obj
 0001:00033630       ?Ptr@?$Sws@$0BHHA@@OpenHome@@EAEPAEXZ 00434630 f i libohNetCore:Http.obj
 0001:00033650       ??_G?$Sws@$0BHHA@@OpenHome@@UAEPAXI@Z 00434650 f i libohNetCore:Http.obj
 0001:00033650       ??_E?$Sws@$0BHHA@@OpenHome@@UAEPAXI@Z 00434650 f i libohNetCore:Http.obj
 0001:00033690       ?_Inside@?$vector@PAVIHttpHeader@OpenHome@@V?$allocator@PAVIHttpHeader@OpenHome@@@std@@@std@@IBE_NPBQAVIHttpHeader@OpenHome@@@Z 00434690 f i libohNetCore:Http.obj
 0001:000336e0       ?_Reserve@?$vector@PAVIHttpHeader@OpenHome@@V?$allocator@PAVIHttpHeader@OpenHome@@@std@@@std@@IAEXI@Z 004346e0 f i libohNetCore:Http.obj
 0001:00033760       ?_Orphan_range@?$vector@PAVIHttpHeader@OpenHome@@V?$allocator@PAVIHttpHeader@OpenHome@@@std@@@std@@IBEXPAPAVIHttpHeader@OpenHome@@0@Z 00434760 f i libohNetCore:Http.obj
 0001:00033870       ??0?$_Vector_val@PAVIHttpHeader@OpenHome@@V?$allocator@PAVIHttpHeader@OpenHome@@@std@@@std@@QAE@V?$allocator@PAVIHttpHeader@OpenHome@@@1@@Z 00434870 f i libohNetCore:Http.obj
 0001:00033990       ??0?$allocator@PAVIHttpHeader@OpenHome@@@std@@QAE@XZ 00434990 f i libohNetCore:Http.obj
 0001:000339b0       ?_Inside@?$vector@PBVBrx@OpenHome@@V?$allocator@PBVBrx@OpenHome@@@std@@@std@@IBE_NPBQBVBrx@OpenHome@@@Z 004349b0 f i libohNetCore:Http.obj
 0001:00033a00       ?_Reserve@?$vector@PBVBrx@OpenHome@@V?$allocator@PBVBrx@OpenHome@@@std@@@std@@IAEXI@Z 00434a00 f i libohNetCore:Http.obj
 0001:00033a80       ?_Orphan_range@?$vector@PBVBrx@OpenHome@@V?$allocator@PBVBrx@OpenHome@@@std@@@std@@IBEXPAPBVBrx@OpenHome@@0@Z 00434a80 f i libohNetCore:Http.obj
 0001:00033b90       ??0?$_Vector_val@PBVBrx@OpenHome@@V?$allocator@PBVBrx@OpenHome@@@std@@@std@@QAE@V?$allocator@PBVBrx@OpenHome@@@1@@Z 00434b90 f i libohNetCore:Http.obj
 0001:00033cb0       ??0?$allocator@PBVBrx@OpenHome@@@std@@QAE@XZ 00434cb0 f i libohNetCore:Http.obj
 0001:00033cd0       ?reserve@?$vector@PAVIHttpHeader@OpenHome@@V?$allocator@PAVIHttpHeader@OpenHome@@@std@@@std@@QAEXI@Z 00434cd0 f i libohNetCore:Http.obj
 0001:00033e40       ?capacity@?$vector@PAVIHttpHeader@OpenHome@@V?$allocator@PAVIHttpHeader@OpenHome@@@std@@@std@@QBEIXZ 00434e40 f i libohNetCore:Http.obj
 0001:00033e70       ?max_size@?$vector@PAVIHttpHeader@OpenHome@@V?$allocator@PAVIHttpHeader@OpenHome@@@std@@@std@@QBEIXZ 00434e70 f i libohNetCore:Http.obj
 0001:00033ea0       ?_Grow_to@?$vector@PAVIHttpHeader@OpenHome@@V?$allocator@PAVIHttpHeader@OpenHome@@@std@@@std@@IBEII@Z 00434ea0 f i libohNetCore:Http.obj
 0001:00033f20       ?_Xlen@?$vector@PAVIHttpHeader@OpenHome@@V?$allocator@PAVIHttpHeader@OpenHome@@@std@@@std@@IBEXXZ 00434f20 f i libohNetCore:Http.obj
 0001:00033f50       ??0?$allocator@PAVIHttpHeader@OpenHome@@@std@@QAE@ABV01@@Z 00434f50 f i libohNetCore:Http.obj
 0001:00033f70       ?reserve@?$vector@PBVBrx@OpenHome@@V?$allocator@PBVBrx@OpenHome@@@std@@@std@@QAEXI@Z 00434f70 f i libohNetCore:Http.obj
 0001:000340e0       ?capacity@?$vector@PBVBrx@OpenHome@@V?$allocator@PBVBrx@OpenHome@@@std@@@std@@QBEIXZ 004350e0 f i libohNetCore:Http.obj
 0001:00034110       ?max_size@?$vector@PBVBrx@OpenHome@@V?$allocator@PBVBrx@OpenHome@@@std@@@std@@QBEIXZ 00435110 f i libohNetCore:Http.obj
 0001:00034140       ?_Grow_to@?$vector@PBVBrx@OpenHome@@V?$allocator@PBVBrx@OpenHome@@@std@@@std@@IBEII@Z 00435140 f i libohNetCore:Http.obj
 0001:000341c0       ?_Xlen@?$vector@PBVBrx@OpenHome@@V?$allocator@PBVBrx@OpenHome@@@std@@@std@@IBEXXZ 004351c0 f i libohNetCore:Http.obj
 0001:000341f0       ??0?$allocator@PBVBrx@OpenHome@@@std@@QAE@ABV01@@Z 004351f0 f i libohNetCore:Http.obj
 0001:00034210       ?allocate@?$allocator@PAVIHttpHeader@OpenHome@@@std@@QAEPAPAVIHttpHeader@OpenHome@@I@Z 00435210 f i libohNetCore:Http.obj
 0001:00034240       ?max_size@?$allocator@PAVIHttpHeader@OpenHome@@@std@@QBEIXZ 00435240 f i libohNetCore:Http.obj
 0001:00034290       ?allocate@?$allocator@PBVBrx@OpenHome@@@std@@QAEPAPBVBrx@OpenHome@@I@Z 00435290 f i libohNetCore:Http.obj
 0001:000342c0       ?max_size@?$allocator@PBVBrx@OpenHome@@@std@@QBEIXZ 004352c0 f i libohNetCore:Http.obj
 0001:00034310       ??0?$Bws@$0MI@@OpenHome@@QAE@XZ 00435310 f i libohNetCore:Http.obj
 0001:00034350       ?Ptr@?$Bws@$0MI@@OpenHome@@UBEPBEXZ 00435350 f i libohNetCore:Http.obj
 0001:00034370       ??0?$Bws@$0GE@@OpenHome@@QAE@XZ 00435370 f i libohNetCore:Http.obj
 0001:000343b0       ?Ptr@?$Bws@$0GE@@OpenHome@@UBEPBEXZ 004353b0 f i libohNetCore:Http.obj
 0001:000343d0       ??0?$Bws@$0BL@@OpenHome@@QAE@XZ 004353d0 f i libohNetCore:Http.obj
 0001:00034410       ?Ptr@?$Bws@$0BL@@OpenHome@@UBEPBEXZ 00435410 f i libohNetCore:Http.obj
 0001:00034430       ??0?$Bws@$0CP@@OpenHome@@QAE@XZ 00435430 f i libohNetCore:Http.obj
 0001:00034470       ?Ptr@?$Bws@$0CP@@OpenHome@@UBEPBEXZ 00435470 f i libohNetCore:Http.obj
 0001:00034490       ??0?$Bws@$0BA@@OpenHome@@QAE@XZ 00435490 f i libohNetCore:Http.obj
 0001:000344d0       ?Ptr@?$Bws@$0BA@@OpenHome@@UBEPBEXZ 004354d0 f i libohNetCore:Http.obj
 0001:000344f0       ??$addressof@PAVIHttpHeader@OpenHome@@@std@@YGPAPAVIHttpHeader@OpenHome@@AAPAV12@@Z 004354f0 f i libohNetCore:Http.obj
 0001:00034500       ??$forward@PAVIHttpHeader@OpenHome@@@std@@YG$$QAPAVIHttpHeader@OpenHome@@AAPAV12@@Z 00435500 f i libohNetCore:Http.obj
 0001:00034510       ??$_Cons_val@V?$allocator@PAVIHttpHeader@OpenHome@@@std@@PAVIHttpHeader@OpenHome@@PAV34@@std@@YGXAAV?$allocator@PAVIHttpHeader@OpenHome@@@0@PAPAVIHttpHeader@OpenHome@@$$QAPAV23@@Z 00435510 f i libohNetCore:Http.obj
 0001:00034540       ??$addressof@PBVBrx@OpenHome@@@std@@YGPAPBVBrx@OpenHome@@AAPBV12@@Z 00435540 f i libohNetCore:Http.obj
 0001:00034550       ??$forward@PBVBrx@OpenHome@@@std@@YG$$QAPBVBrx@OpenHome@@AAPBV12@@Z 00435550 f i libohNetCore:Http.obj
 0001:00034560       ??$_Cons_val@V?$allocator@PBVBrx@OpenHome@@@std@@PBVBrx@OpenHome@@PBV34@@std@@YGXAAV?$allocator@PBVBrx@OpenHome@@@0@PAPBVBrx@OpenHome@@$$QAPBV23@@Z 00435560 f i libohNetCore:Http.obj
 0001:00034590       ??$_Umove@PAPAVIHttpHeader@OpenHome@@@?$vector@PAVIHttpHeader@OpenHome@@V?$allocator@PAVIHttpHeader@OpenHome@@@std@@@std@@IAEPAPAVIHttpHeader@OpenHome@@PAPAV23@00@Z 00435590 f i libohNetCore:Http.obj
 0001:000345d0       ??$_Umove@PAPBVBrx@OpenHome@@@?$vector@PBVBrx@OpenHome@@V?$allocator@PBVBrx@OpenHome@@@std@@@std@@IAEPAPBVBrx@OpenHome@@PAPBV23@00@Z 004355d0 f i libohNetCore:Http.obj
 0001:00034610       ??$_Allocate@PAVIHttpHeader@OpenHome@@@std@@YGPAPAVIHttpHeader@OpenHome@@IPAPAV12@@Z 00435610 f i libohNetCore:Http.obj
 0001:00034690       ??$_Allocate@PBVBrx@OpenHome@@@std@@YGPAPBVBrx@OpenHome@@IPAPBV12@@Z 00435690 f i libohNetCore:Http.obj
 0001:00034710       ??_G?$Bws@$0MI@@OpenHome@@UAEPAXI@Z 00435710 f i libohNetCore:Http.obj
 0001:00034710       ??_E?$Bws@$0MI@@OpenHome@@UAEPAXI@Z 00435710 f i libohNetCore:Http.obj
 0001:00034750       ??_G?$Bws@$0GE@@OpenHome@@UAEPAXI@Z 00435750 f i libohNetCore:Http.obj
 0001:00034750       ??_E?$Bws@$0GE@@OpenHome@@UAEPAXI@Z 00435750 f i libohNetCore:Http.obj
 0001:00034790       ??_G?$Bws@$0BL@@OpenHome@@UAEPAXI@Z 00435790 f i libohNetCore:Http.obj
 0001:00034790       ??_E?$Bws@$0BL@@OpenHome@@UAEPAXI@Z 00435790 f i libohNetCore:Http.obj
 0001:000347d0       ??_G?$Bws@$0CP@@OpenHome@@UAEPAXI@Z 004357d0 f i libohNetCore:Http.obj
 0001:000347d0       ??_E?$Bws@$0CP@@OpenHome@@UAEPAXI@Z 004357d0 f i libohNetCore:Http.obj
 0001:00034810       ??_E?$Bws@$0BA@@OpenHome@@UAEPAXI@Z 00435810 f i libohNetCore:Http.obj
 0001:00034810       ??_G?$Bws@$0BA@@OpenHome@@UAEPAXI@Z 00435810 f i libohNetCore:Http.obj
 0001:00034850       ?construct@?$allocator@PAVIHttpHeader@OpenHome@@@std@@QAEXPAPAVIHttpHeader@OpenHome@@$$QAPAV34@@Z 00435850 f i libohNetCore:Http.obj
 0001:000348f0       ?construct@?$allocator@PBVBrx@OpenHome@@@std@@QAEXPAPBVBrx@OpenHome@@$$QAPBV34@@Z 004358f0 f i libohNetCore:Http.obj
 0001:00034990       ??$_Uninitialized_move@PAPAVIHttpHeader@OpenHome@@PAPAV12@V?$allocator@PAVIHttpHeader@OpenHome@@@std@@@std@@YGPAPAVIHttpHeader@OpenHome@@PAPAV12@00AAV?$allocator@PAVIHttpHeader@OpenHome@@@0@@Z 00435990 f i libohNetCore:Http.obj
 0001:000349e0       ??$_Uninitialized_move@PAPBVBrx@OpenHome@@PAPBV12@V?$allocator@PBVBrx@OpenHome@@@std@@@std@@YGPAPBVBrx@OpenHome@@PAPBV12@00AAV?$allocator@PBVBrx@OpenHome@@@0@@Z 004359e0 f i libohNetCore:Http.obj
 0001:00034a30       ??$_Val_type@PAPAVIHttpHeader@OpenHome@@@std@@YGPAPAVIHttpHeader@OpenHome@@PAPAV12@@Z 00435a30 f i libohNetCore:Http.obj
 0001:00034a40       ??$_Uninit_move@PAVIHttpHeader@OpenHome@@PAV12@PAV12@@std@@YGPAPAVIHttpHeader@OpenHome@@PAPAV12@00AAV?$allocator@PAVIHttpHeader@OpenHome@@@0@0U_Scalar_ptr_iterator_tag@0@@Z 00435a40 f i libohNetCore:Http.obj
 0001:00034ab0       ??$_Val_type@PAPBVBrx@OpenHome@@@std@@YGPAPBVBrx@OpenHome@@PAPBV12@@Z 00435ab0 f i libohNetCore:Http.obj
 0001:00034ac0       ??$_Uninit_move@PBVBrx@OpenHome@@PBV12@PBV12@@std@@YGPAPBVBrx@OpenHome@@PAPBV12@00AAV?$allocator@PBVBrx@OpenHome@@@0@0U_Scalar_ptr_iterator_tag@0@@Z 00435ac0 f i libohNetCore:Http.obj
 0001:00034b30       ??$_Debug_range@PAPAVIHttpHeader@OpenHome@@@std@@YGXPAPAVIHttpHeader@OpenHome@@0PB_WI@Z 00435b30 f i libohNetCore:Http.obj
 0001:00034b80       ??$_Debug_pointer@PAVIHttpHeader@OpenHome@@@std@@YGXPAPAVIHttpHeader@OpenHome@@PB_WI@Z 00435b80 f i libohNetCore:Http.obj
 0001:00034bb0       ??$_Debug_range@PAPBVBrx@OpenHome@@@std@@YGXPAPBVBrx@OpenHome@@0PB_WI@Z 00435bb0 f i libohNetCore:Http.obj
 0001:00034c00       ??$_Debug_pointer@PBVBrx@OpenHome@@@std@@YGXPAPBVBrx@OpenHome@@PB_WI@Z 00435c00 f i libohNetCore:Http.obj
 0001:00034c30       ??$_Iter_cat@PAPAVIHttpHeader@OpenHome@@@std@@YG?AUrandom_access_iterator_tag@0@ABQAPAVIHttpHeader@OpenHome@@@Z 00435c30 f i libohNetCore:Http.obj
 0001:00034c90       ??$_Debug_range2@PAPAVIHttpHeader@OpenHome@@@std@@YGXPAPAVIHttpHeader@OpenHome@@0PB_WIUrandom_access_iterator_tag@0@@Z 00435c90 f i libohNetCore:Http.obj
 0001:00034cf0       ??$_Iter_cat@PAPBVBrx@OpenHome@@@std@@YG?AUrandom_access_iterator_tag@0@ABQAPBVBrx@OpenHome@@@Z 00435cf0 f i libohNetCore:Http.obj
 0001:00034d50       ??$_Debug_range2@PAPBVBrx@OpenHome@@@std@@YGXPAPBVBrx@OpenHome@@0PB_WIUrandom_access_iterator_tag@0@@Z 00435d50 f i libohNetCore:Http.obj
 0001:00034db0       ??_EWriterHttpResponse@OpenHome@@WM@AEPAXI@Z 00435db0 f i libohNetCore:Http.obj
 0001:00034dc0       ??_EWriterHttpRequest@OpenHome@@WM@AEPAXI@Z 00435dc0 f i libohNetCore:Http.obj
 0001:00034dd0       ??_E?$Sws@$0BHHA@@OpenHome@@WM@AEPAXI@Z 00435dd0 f i libohNetCore:Http.obj
 0001:00034de0       ??0HttpStatusMaker@@QAE@IVBrn@OpenHome@@@Z 00435de0 f i libohNetCore:Http.obj
 0001:00034e70       ??1HttpStatusMaker@@QAE@XZ 00435e70 f i libohNetCore:Http.obj
 0001:00034ea0       ??0HttpStatus@OpenHome@@QAE@ABV01@@Z 00435ea0 f i libohNetCore:Http.obj
 0001:00034ef0       ?UpnpDomainToCanonical@Ssdp@Net@OpenHome@@SGXABVBrx@3@AAVBwx@3@@Z 00435ef0 f   libohNetCore:Ssdp.obj
 0001:00034f80       ?CanonicalDomainToUpnp@Ssdp@Net@OpenHome@@SGXABVBrx@3@AAVBwx@3@@Z 00435f80 f   libohNetCore:Ssdp.obj
 0001:00035010       ?WriteRoot@Ssdp@Net@OpenHome@@SGXAAVIWriter@3@@Z 00436010 f   libohNetCore:Ssdp.obj
 0001:00035040       ?WriteUuid@Ssdp@Net@OpenHome@@SGXAAVIWriter@3@ABVBrx@3@@Z 00436040 f   libohNetCore:Ssdp.obj
 0001:000350a0       ?WriteDeviceType@Ssdp@Net@OpenHome@@SGXAAVIWriter@3@ABVBrx@3@1I@Z 004360a0 f   libohNetCore:Ssdp.obj
 0001:00035230       ?WriteServiceType@Ssdp@Net@OpenHome@@SGXAAVIWriter@3@ABVBrx@3@1I@Z 00436230 f   libohNetCore:Ssdp.obj
 0001:000353c0       ?WriteMethodNotify@Ssdp@Net@OpenHome@@SGXAAVIWriterHttpMethod@3@@Z 004363c0 f   libohNetCore:Ssdp.obj
 0001:00035400       ?WriteMethodMsearch@Ssdp@Net@OpenHome@@SGXAAVIWriterHttpMethod@3@@Z 00436400 f   libohNetCore:Ssdp.obj
 0001:00035440       ?WriteHost@Ssdp@Net@OpenHome@@SGXAAVIWriterHttpHeader@3@@Z 00436440 f   libohNetCore:Ssdp.obj
 0001:00035470       ?WriteMan@Ssdp@Net@OpenHome@@SGXAAVIWriterHttpHeader@3@@Z 00436470 f   libohNetCore:Ssdp.obj
 0001:000354a0       ?WriteMx@Ssdp@Net@OpenHome@@SGXAAVIWriterHttpHeader@3@I@Z 004364a0 f   libohNetCore:Ssdp.obj
 0001:00035510       ?WriteSearchTypeRoot@Ssdp@Net@OpenHome@@SGXAAVIWriterHttpHeader@3@@Z 00436510 f   libohNetCore:Ssdp.obj
 0001:00035570       ?WriteSearchTypeUuid@Ssdp@Net@OpenHome@@SGXAAVIWriterHttpHeader@3@ABVBrx@3@@Z 00436570 f   libohNetCore:Ssdp.obj
 0001:000355d0       ?WriteSearchTypeDeviceType@Ssdp@Net@OpenHome@@SGXAAVIWriterHttpHeader@3@ABVBrx@3@1I@Z 004365d0 f   libohNetCore:Ssdp.obj
 0001:00035640       ?WriteSearchTypeServiceType@Ssdp@Net@OpenHome@@SGXAAVIWriterHttpHeader@3@ABVBrx@3@1I@Z 00436640 f   libohNetCore:Ssdp.obj
 0001:000356b0       ?WriteSearchTypeAll@Ssdp@Net@OpenHome@@SGXAAVIWriterHttpHeader@3@@Z 004366b0 f   libohNetCore:Ssdp.obj
 0001:000356e0       ?WriteServer@Ssdp@Net@OpenHome@@SGXAAVIWriterHttpHeader@3@@Z 004366e0 f   libohNetCore:Ssdp.obj
 0001:00035900       ?WriteMaxAge@Ssdp@Net@OpenHome@@SGXAAVIWriterHttpHeader@3@@Z 00436900 f   libohNetCore:Ssdp.obj
 0001:000359e0       ?WriteLocation@Ssdp@Net@OpenHome@@SGXAAVIWriterHttpHeader@3@ABVBrx@3@@Z 004369e0 f   libohNetCore:Ssdp.obj
 0001:00035a50       ?WriteSubTypeAlive@Ssdp@Net@OpenHome@@SGXAAVIWriterHttpHeader@3@@Z 00436a50 f   libohNetCore:Ssdp.obj
 0001:00035a80       ?WriteSubTypeByeBye@Ssdp@Net@OpenHome@@SGXAAVIWriterHttpHeader@3@@Z 00436a80 f   libohNetCore:Ssdp.obj
 0001:00035ab0       ?WriteStatus@Ssdp@Net@OpenHome@@SGXAAVIWriterHttpStatus@3@@Z 00436ab0 f   libohNetCore:Ssdp.obj
 0001:00035ae0       ?WriteExt@Ssdp@Net@OpenHome@@SGXAAVIWriterHttpHeader@3@@Z 00436ae0 f   libohNetCore:Ssdp.obj
 0001:00035b40       ?WriteNotificationTypeRoot@Ssdp@Net@OpenHome@@SGXAAVIWriterHttpHeader@3@@Z 00436b40 f   libohNetCore:Ssdp.obj
 0001:00035ba0       ?WriteNotificationTypeUuid@Ssdp@Net@OpenHome@@SGXAAVIWriterHttpHeader@3@ABVBrx@3@@Z 00436ba0 f   libohNetCore:Ssdp.obj
 0001:00035c00       ?WriteNotificationTypeDeviceType@Ssdp@Net@OpenHome@@SGXAAVIWriterHttpHeader@3@ABVBrx@3@1I@Z 00436c00 f   libohNetCore:Ssdp.obj
 0001:00035c70       ?WriteNotificationTypeServiceType@Ssdp@Net@OpenHome@@SGXAAVIWriterHttpHeader@3@ABVBrx@3@1I@Z 00436c70 f   libohNetCore:Ssdp.obj
 0001:00035ce0       ?WriteUsnRoot@Ssdp@Net@OpenHome@@SGXAAVIWriterHttpHeader@3@ABVBrx@3@@Z 00436ce0 f   libohNetCore:Ssdp.obj
 0001:00035d70       ?WriteUsnUuid@Ssdp@Net@OpenHome@@SGXAAVIWriterHttpHeader@3@ABVBrx@3@@Z 00436d70 f   libohNetCore:Ssdp.obj
 0001:00035dd0       ?WriteUsnDeviceType@Ssdp@Net@OpenHome@@SGXAAVIWriterHttpHeader@3@ABVBrx@3@1I1@Z 00436dd0 f   libohNetCore:Ssdp.obj
 0001:00035e60       ?WriteUsnServiceType@Ssdp@Net@OpenHome@@SGXAAVIWriterHttpHeader@3@ABVBrx@3@1I1@Z 00436e60 f   libohNetCore:Ssdp.obj
 0001:00035ef0       ?WriteConfigId@Ssdp@Net@OpenHome@@SGXAAVIWriterHttpHeader@3@I@Z 00436ef0 f   libohNetCore:Ssdp.obj
 0001:00035f60       ?WriteSearchPort@Ssdp@Net@OpenHome@@SGXAAVIWriterHttpHeader@3@I@Z 00436f60 f   libohNetCore:Ssdp.obj
 0001:00035fd0       ?ParseUrnDevice@Ssdp@Net@OpenHome@@SG_NABVBrx@3@AAVBrn@3@1AAI@Z 00436fd0 f   libohNetCore:Ssdp.obj
 0001:00036000       ?ParseUrnService@Ssdp@Net@OpenHome@@SG_NABVBrx@3@AAVBrn@3@1AAI@Z 00437000 f   libohNetCore:Ssdp.obj
 0001:00036030       ?ParseUrn@Ssdp@Net@OpenHome@@CG_NABVBrx@3@0AAVBrn@3@1AAI@Z 00437030 f   libohNetCore:Ssdp.obj
 0001:00036240       ?MaxAge@SsdpHeaderCacheControl@Net@OpenHome@@QBEIXZ 00437240 f   libohNetCore:Ssdp.obj
 0001:00036290       ?Recognise@SsdpHeaderCacheControl@Net@OpenHome@@EAE_NABVBrx@3@@Z 00437290 f   libohNetCore:Ssdp.obj
 0001:000362c0       ?Process@SsdpHeaderCacheControl@Net@OpenHome@@EAEXABVBrx@3@@Z 004372c0 f   libohNetCore:Ssdp.obj
 0001:000364b0       ?Recognise@SsdpHeaderServer@Net@OpenHome@@EAE_NABVBrx@3@@Z 004374b0 f   libohNetCore:Ssdp.obj
 0001:000364e0       ?Process@SsdpHeaderServer@Net@OpenHome@@EAEXABVBrx@3@@Z 004374e0 f   libohNetCore:Ssdp.obj
 0001:00036510       ?Target@SsdpHeaderSt@Net@OpenHome@@QBE?AW4ESsdpTarget@23@XZ 00437510 f   libohNetCore:Ssdp.obj
 0001:00036530       ?Uuid@SsdpHeaderSt@Net@OpenHome@@QBEABVBrx@3@XZ 00437530 f   libohNetCore:Ssdp.obj
 0001:00036550       ?Domain@SsdpHeaderSt@Net@OpenHome@@QBEABVBrx@3@XZ 00437550 f   libohNetCore:Ssdp.obj
 0001:00036570       ?Type@SsdpHeaderSt@Net@OpenHome@@QBEABVBrx@3@XZ 00437570 f   libohNetCore:Ssdp.obj
 0001:00036590       ?Version@SsdpHeaderSt@Net@OpenHome@@QBE?BIXZ 00437590 f   libohNetCore:Ssdp.obj
 0001:000365b0       ?Recognise@SsdpHeaderSt@Net@OpenHome@@EAE_NABVBrx@3@@Z 004375b0 f   libohNetCore:Ssdp.obj
 0001:000365e0       ?Process@SsdpHeaderSt@Net@OpenHome@@EAEXABVBrx@3@@Z 004375e0 f   libohNetCore:Ssdp.obj
 0001:00036be0       ?Target@SsdpHeaderNt@Net@OpenHome@@QBE?AW4ESsdpTarget@23@XZ 00437be0 f   libohNetCore:Ssdp.obj
 0001:00036c00       ?Uuid@SsdpHeaderNt@Net@OpenHome@@QBEABVBrx@3@XZ 00437c00 f   libohNetCore:Ssdp.obj
 0001:00036c20       ?Domain@SsdpHeaderNt@Net@OpenHome@@QBEABVBrx@3@XZ 00437c20 f   libohNetCore:Ssdp.obj
 0001:00036c40       ?Type@SsdpHeaderNt@Net@OpenHome@@QBEABVBrx@3@XZ 00437c40 f   libohNetCore:Ssdp.obj
 0001:00036c60       ?Version@SsdpHeaderNt@Net@OpenHome@@QBE?BIXZ 00437c60 f   libohNetCore:Ssdp.obj
 0001:00036c80       ?Recognise@SsdpHeaderNt@Net@OpenHome@@EAE_NABVBrx@3@@Z 00437c80 f   libohNetCore:Ssdp.obj
 0001:00036cb0       ?Process@SsdpHeaderNt@Net@OpenHome@@EAEXABVBrx@3@@Z 00437cb0 f   libohNetCore:Ssdp.obj
 0001:000372b0       ?Target@SsdpHeaderUsn@Net@OpenHome@@QBE?AW4ESsdpTarget@23@XZ 004382b0 f   libohNetCore:Ssdp.obj
 0001:000372d0       ?Uuid@SsdpHeaderUsn@Net@OpenHome@@QBEABVBrx@3@XZ 004382d0 f   libohNetCore:Ssdp.obj
 0001:000372f0       ?Domain@SsdpHeaderUsn@Net@OpenHome@@QBEABVBrx@3@XZ 004382f0 f   libohNetCore:Ssdp.obj
 0001:00037310       ?Type@SsdpHeaderUsn@Net@OpenHome@@QBEABVBrx@3@XZ 00438310 f   libohNetCore:Ssdp.obj
 0001:00037330       ?Version@SsdpHeaderUsn@Net@OpenHome@@QBE?BIXZ 00438330 f   libohNetCore:Ssdp.obj
 0001:00037350       ?Recognise@SsdpHeaderUsn@Net@OpenHome@@EAE_NABVBrx@3@@Z 00438350 f   libohNetCore:Ssdp.obj
 0001:00037380       ?Process@SsdpHeaderUsn@Net@OpenHome@@EAEXABVBrx@3@@Z 00438380 f   libohNetCore:Ssdp.obj
 0001:00037bb0       ?Recognise@SsdpHeaderHost@Net@OpenHome@@EAE_NABVBrx@3@@Z 00438bb0 f   libohNetCore:Ssdp.obj
 0001:00037be0       ?Process@SsdpHeaderHost@Net@OpenHome@@EAEXABVBrx@3@@Z 00438be0 f   libohNetCore:Ssdp.obj
 0001:00037cd0       ?Recognise@SsdpHeaderMan@Net@OpenHome@@EAE_NABVBrx@3@@Z 00438cd0 f   libohNetCore:Ssdp.obj
 0001:00037d00       ?Process@SsdpHeaderMan@Net@OpenHome@@EAEXABVBrx@3@@Z 00438d00 f   libohNetCore:Ssdp.obj
 0001:00037de0       ?Mx@SsdpHeaderMx@Net@OpenHome@@QBEIXZ 00438de0 f   libohNetCore:Ssdp.obj
 0001:00037e30       ?Recognise@SsdpHeaderMx@Net@OpenHome@@EAE_NABVBrx@3@@Z 00438e30 f   libohNetCore:Ssdp.obj
 0001:00037e60       ?Process@SsdpHeaderMx@Net@OpenHome@@EAEXABVBrx@3@@Z 00438e60 f   libohNetCore:Ssdp.obj
 0001:00037f50       ?Alive@SsdpHeaderNts@Net@OpenHome@@QBE_NXZ 00438f50 f   libohNetCore:Ssdp.obj
 0001:00037f70       ?Recognise@SsdpHeaderNts@Net@OpenHome@@EAE_NABVBrx@3@@Z 00438f70 f   libohNetCore:Ssdp.obj
 0001:00037fa0       ?Process@SsdpHeaderNts@Net@OpenHome@@EAEXABVBrx@3@@Z 00438fa0 f   libohNetCore:Ssdp.obj
 0001:000380a0       ?Recognise@SsdpHeaderExt@Net@OpenHome@@EAE_NABVBrx@3@@Z 004390a0 f   libohNetCore:Ssdp.obj
 0001:000380d0       ?Process@SsdpHeaderExt@Net@OpenHome@@EAEXABVBrx@3@@Z 004390d0 f   libohNetCore:Ssdp.obj
 0001:000381b0       ??0SsdpWriterMsearchRequest@Net@OpenHome@@QAE@AAVIWriter@2@@Z 004391b0 f   libohNetCore:Ssdp.obj
 0001:000381e0       ?MsearchRoot@SsdpWriterMsearchRequest@Net@OpenHome@@QAEXI@Z 004391e0 f   libohNetCore:Ssdp.obj
 0001:00038230       ?MsearchUuid@SsdpWriterMsearchRequest@Net@OpenHome@@QAEXABVBrx@3@I@Z 00439230 f   libohNetCore:Ssdp.obj
 0001:00038280       ?MsearchDeviceType@SsdpWriterMsearchRequest@Net@OpenHome@@QAEXABVBrx@3@0II@Z 00439280 f   libohNetCore:Ssdp.obj
 0001:000382e0       ?MsearchServiceType@SsdpWriterMsearchRequest@Net@OpenHome@@QAEXABVBrx@3@0II@Z 004392e0 f   libohNetCore:Ssdp.obj
 0001:00038340       ?MsearchAll@SsdpWriterMsearchRequest@Net@OpenHome@@QAEXI@Z 00439340 f   libohNetCore:Ssdp.obj
 0001:00038390       ?Msearch@SsdpWriterMsearchRequest@Net@OpenHome@@AAEXI@Z 00439390 f   libohNetCore:Ssdp.obj
 0001:00038430       ??9Brx@OpenHome@@QBE_NABV01@@Z 00439430 f i libohNetCore:Ssdp.obj
 0001:00038470       ??0Sxx@OpenHome@@IAE@I@Z   00439470 f   libohNetCore:Stream.obj
 0001:000384c0       ??1Sxx@OpenHome@@MAE@XZ    004394c0 f   libohNetCore:Stream.obj
 0001:000384e0       ??0Srx@OpenHome@@IAE@IAAVIReaderSource@1@@Z 004394e0 f   libohNetCore:Stream.obj
 0001:00038540       ?Read@Srx@OpenHome@@UAE?AVBrn@2@I@Z 00439540 f   libohNetCore:Stream.obj
 0001:00038760       ?ReadUntil@Srx@OpenHome@@UAE?AVBrn@2@E@Z 00439760 f   libohNetCore:Stream.obj
 0001:000389f0       ?ReadFlush@Srx@OpenHome@@UAEXXZ 004399f0 f   libohNetCore:Stream.obj
 0001:00038a40       ?ReadInterrupt@Srx@OpenHome@@UAEXXZ 00439a40 f   libohNetCore:Stream.obj
 0001:00038a80       ?Snaffle@Srx@OpenHome@@QAE?AVBrn@2@XZ 00439a80 f   libohNetCore:Stream.obj
 0001:00038b80       ??0Srd@OpenHome@@QAE@IAAVIReaderSource@1@@Z 00439b80 f   libohNetCore:Stream.obj
 0001:00038c20       ?Ptr@Srd@OpenHome@@EAEPAEXZ 00439c20 f   libohNetCore:Stream.obj
 0001:00038c40       ??1Srd@OpenHome@@UAE@XZ    00439c40 f   libohNetCore:Stream.obj
 0001:00038cd0       ??0Swx@OpenHome@@IAE@IAAVIWriter@1@@Z 00439cd0 f   libohNetCore:Stream.obj
 0001:00038d30       ?Error@Swx@OpenHome@@AAEXXZ 00439d30 f   libohNetCore:Stream.obj
 0001:00038df0       ?Write@Swx@OpenHome@@UAEXE@Z 00439df0 f   libohNetCore:Stream.obj
 0001:00038f00       ?Write@Swx@OpenHome@@UAEXABVBrx@2@@Z 00439f00 f   libohNetCore:Stream.obj
 0001:00039040       ?WriteDrain@Swx@OpenHome@@AAEXXZ 0043a040 f   libohNetCore:Stream.obj
 0001:00039150       ?WriteFlush@Swx@OpenHome@@UAEXXZ 0043a150 f   libohNetCore:Stream.obj
 0001:000391a0       ??0Swd@OpenHome@@QAE@IAAVIWriter@1@@Z 0043a1a0 f   libohNetCore:Stream.obj
 0001:00039240       ?Ptr@Swd@OpenHome@@EAEPAEXZ 0043a240 f   libohNetCore:Stream.obj
 0001:00039260       ??1Swd@OpenHome@@UAE@XZ    0043a260 f   libohNetCore:Stream.obj
 0001:000392f0       ??0Swp@OpenHome@@QAE@AAVSrx@1@AAVIWriter@1@@Z 0043a2f0 f   libohNetCore:Stream.obj
 0001:00039340       ?Ptr@Swp@OpenHome@@EAEPAEXZ 0043a340 f   libohNetCore:Stream.obj
 0001:00039380       ??1Swp@OpenHome@@UAE@XZ    0043a380 f   libohNetCore:Stream.obj
 0001:000393c0       ??0ReaderBuffer@OpenHome@@QAE@XZ 0043a3c0 f   libohNetCore:Stream.obj
 0001:00039440       ?Set@ReaderBuffer@OpenHome@@QAEXABVBrx@2@@Z 0043a440 f   libohNetCore:Stream.obj
 0001:00039490       ?Read@ReaderBuffer@OpenHome@@UAE?AVBrn@2@I@Z 0043a490 f   libohNetCore:Stream.obj
 0001:000395e0       ?Bytes@ReaderBuffer@OpenHome@@QBEIXZ 0043a5e0 f   libohNetCore:Stream.obj
 0001:00039610       ?ReadRemaining@ReaderBuffer@OpenHome@@QAE?AVBrn@2@XZ 0043a610 f   libohNetCore:Stream.obj
 0001:00039700       ?ReadPartial@ReaderBuffer@OpenHome@@QAE?AVBrn@2@I@Z 0043a700 f   libohNetCore:Stream.obj
 0001:00039860       ?ReadUntil@ReaderBuffer@OpenHome@@UAE?AVBrn@2@E@Z 0043a860 f   libohNetCore:Stream.obj
 0001:000399a0       ?ReadFlush@ReaderBuffer@OpenHome@@UAEXXZ 0043a9a0 f   libohNetCore:Stream.obj
 0001:000399c0       ?ReadInterrupt@ReaderBuffer@OpenHome@@UAEXXZ 0043a9c0 f   libohNetCore:Stream.obj
 0001:000399e0       ??0WriterBuffer@OpenHome@@QAE@AAVBwx@1@@Z 0043a9e0 f   libohNetCore:Stream.obj
 0001:00039a60       ?Write@WriterBuffer@OpenHome@@UAEXE@Z 0043aa60 f   libohNetCore:Stream.obj
 0001:00039a90       ?Write@WriterBuffer@OpenHome@@UAEXABVBrx@2@@Z 0043aa90 f   libohNetCore:Stream.obj
 0001:00039ac0       ?WriteFlush@WriterBuffer@OpenHome@@UAEXXZ 0043aac0 f   libohNetCore:Stream.obj
 0001:00039ae0       ?Flush@WriterBuffer@OpenHome@@QAEXXZ 0043aae0 f   libohNetCore:Stream.obj
 0001:00039b10       ??0WriterBwh@OpenHome@@QAE@H@Z 0043ab10 f   libohNetCore:Stream.obj
 0001:00039ba0       ?TransferTo@WriterBwh@OpenHome@@QAEXAAVBwh@2@@Z 0043aba0 f   libohNetCore:Stream.obj
 0001:00039bd0       ?TransferTo@WriterBwh@OpenHome@@QAEXAAVBrh@2@@Z 0043abd0 f   libohNetCore:Stream.obj
 0001:00039c00       ?Write@WriterBwh@OpenHome@@QAEXPBD@Z 0043ac00 f   libohNetCore:Stream.obj
 0001:00039cc0       ?Write@WriterBwh@OpenHome@@UAEXE@Z 0043acc0 f   libohNetCore:Stream.obj
 0001:00039d90       ?Write@WriterBwh@OpenHome@@UAEXABVBrx@2@@Z 0043ad90 f   libohNetCore:Stream.obj
 0001:00039e30       ?WriteFlush@WriterBwh@OpenHome@@UAEXXZ 0043ae30 f   libohNetCore:Stream.obj
 0001:00039e50       ??0ReaderBinary@OpenHome@@QAE@AAVIReader@1@@Z 0043ae50 f   libohNetCore:Stream.obj
 0001:00039e90       ?Read@ReaderBinary@OpenHome@@QAE?BVBrn@2@I@Z 0043ae90 f   libohNetCore:Stream.obj
 0001:00039ef0       ?ReadUintBe@ReaderBinary@OpenHome@@QAEII@Z 0043aef0 f   libohNetCore:Stream.obj
 0001:0003a010       ?ReadIntBe@ReaderBinary@OpenHome@@QAEHI@Z 0043b010 f   libohNetCore:Stream.obj
 0001:0003a190       ?ReadUintLe@ReaderBinary@OpenHome@@QAEII@Z 0043b190 f   libohNetCore:Stream.obj
 0001:0003a2b0       ?ReadUint64Be@ReaderBinary@OpenHome@@QAE_KI@Z 0043b2b0 f   libohNetCore:Stream.obj
 0001:0003a3e0       ?ReadUint64Le@ReaderBinary@OpenHome@@QAE_KI@Z 0043b3e0 f   libohNetCore:Stream.obj
 0001:0003a500       ??0WriterBinary@OpenHome@@QAE@AAVIWriter@1@@Z 0043b500 f   libohNetCore:Stream.obj
 0001:0003a540       ?Write@WriterBinary@OpenHome@@QAEXABVBrx@2@@Z 0043b540 f   libohNetCore:Stream.obj
 0001:0003a580       ?WriteUint8@WriterBinary@OpenHome@@QAEXI@Z 0043b580 f   libohNetCore:Stream.obj
 0001:0003a5c0       ?WriteUint16Be@WriterBinary@OpenHome@@QAEXI@Z 0043b5c0 f   libohNetCore:Stream.obj
 0001:0003a620       ?WriteUint24Be@WriterBinary@OpenHome@@QAEXI@Z 0043b620 f   libohNetCore:Stream.obj
 0001:0003a6b0       ?WriteUint32Be@WriterBinary@OpenHome@@QAEXI@Z 0043b6b0 f   libohNetCore:Stream.obj
 0001:0003a760       ?WriteUint64Be@WriterBinary@OpenHome@@QAEX_K@Z 0043b760 f   libohNetCore:Stream.obj
 0001:0003a8d0       ?WriteInt8@WriterBinary@OpenHome@@QAEXH@Z 0043b8d0 f   libohNetCore:Stream.obj
 0001:0003a910       ?WriteInt16Be@WriterBinary@OpenHome@@QAEXH@Z 0043b910 f   libohNetCore:Stream.obj
 0001:0003a970       ?WriteInt24Be@WriterBinary@OpenHome@@QAEXH@Z 0043b970 f   libohNetCore:Stream.obj
 0001:0003aa00       ?WriteInt32Be@WriterBinary@OpenHome@@QAEXH@Z 0043ba00 f   libohNetCore:Stream.obj
 0001:0003aab0       ?WriteInt64Be@WriterBinary@OpenHome@@QAEX_J@Z 0043bab0 f   libohNetCore:Stream.obj
 0001:0003ac20       ??_ESxx@OpenHome@@MAEPAXI@Z 0043bc20 f i libohNetCore:Stream.obj
 0001:0003ac20       ??_GSxx@OpenHome@@MAEPAXI@Z 0043bc20 f i libohNetCore:Stream.obj
 0001:0003ac60       ??_GSrx@OpenHome@@UAEPAXI@Z 0043bc60 f i libohNetCore:Stream.obj
 0001:0003ac60       ??_ESrx@OpenHome@@UAEPAXI@Z 0043bc60 f i libohNetCore:Stream.obj
 0001:0003aca0       ??_GSrd@OpenHome@@UAEPAXI@Z 0043bca0 f i libohNetCore:Stream.obj
 0001:0003aca0       ??_ESrd@OpenHome@@UAEPAXI@Z 0043bca0 f i libohNetCore:Stream.obj
 0001:0003ace0       ??_GSwx@OpenHome@@UAEPAXI@Z 0043bce0 f i libohNetCore:Stream.obj
 0001:0003ace0       ??_ESwx@OpenHome@@UAEPAXI@Z 0043bce0 f i libohNetCore:Stream.obj
 0001:0003ad20       ??_ESwd@OpenHome@@UAEPAXI@Z 0043bd20 f i libohNetCore:Stream.obj
 0001:0003ad20       ??_GSwd@OpenHome@@UAEPAXI@Z 0043bd20 f i libohNetCore:Stream.obj
 0001:0003ad60       ??_GSwp@OpenHome@@UAEPAXI@Z 0043bd60 f i libohNetCore:Stream.obj
 0001:0003ad60       ??_ESwp@OpenHome@@UAEPAXI@Z 0043bd60 f i libohNetCore:Stream.obj
 0001:0003ada0       ??_EReaderBuffer@OpenHome@@UAEPAXI@Z 0043bda0 f i libohNetCore:Stream.obj
 0001:0003ada0       ??_GReaderBuffer@OpenHome@@UAEPAXI@Z 0043bda0 f i libohNetCore:Stream.obj
 0001:0003ade0       ??1ReaderBuffer@OpenHome@@UAE@XZ 0043bde0 f i libohNetCore:Stream.obj
 0001:0003ae50       ??_GWriterBuffer@OpenHome@@UAEPAXI@Z 0043be50 f i libohNetCore:Stream.obj
 0001:0003ae50       ??_EWriterBuffer@OpenHome@@UAEPAXI@Z 0043be50 f i libohNetCore:Stream.obj
 0001:0003ae90       ??1WriterBuffer@OpenHome@@UAE@XZ 0043be90 f i libohNetCore:Stream.obj
 0001:0003aec0       ??_GWriterBwh@OpenHome@@UAEPAXI@Z 0043bec0 f i libohNetCore:Stream.obj
 0001:0003aec0       ??_EWriterBwh@OpenHome@@UAEPAXI@Z 0043bec0 f i libohNetCore:Stream.obj
 0001:0003af00       ??1WriterBwh@OpenHome@@UAE@XZ 0043bf00 f i libohNetCore:Stream.obj
 0001:0003af70       ??_ESrx@OpenHome@@WM@AEPAXI@Z 0043bf70 f i libohNetCore:Stream.obj
 0001:0003af80       ??_ESwd@OpenHome@@WM@AEPAXI@Z 0043bf80 f i libohNetCore:Stream.obj
 0001:0003af90       ??_ESwp@OpenHome@@WM@AEPAXI@Z 0043bf90 f i libohNetCore:Stream.obj
 0001:0003afa0       ??_ESwx@OpenHome@@WM@AEPAXI@Z 0043bfa0 f i libohNetCore:Stream.obj
 0001:0003afb0       ??_ESrd@OpenHome@@WM@AEPAXI@Z 0043bfb0 f i libohNetCore:Stream.obj
 0001:0003afc0       ??0Parser@OpenHome@@QAE@XZ 0043bfc0 f   libohNetCore:Parser.obj
 0001:0003b000       ??0Parser@OpenHome@@QAE@ABVBrx@1@@Z 0043c000 f   libohNetCore:Parser.obj
 0001:0003b040       ?Set@Parser@OpenHome@@QAEXABVBrx@2@@Z 0043c040 f   libohNetCore:Parser.obj
 0001:0003b080       ?Finished@Parser@OpenHome@@QBE_NXZ 0043c080 f   libohNetCore:Parser.obj
 0001:0003b0c0       ?Restart@Parser@OpenHome@@QAEXXZ 0043c0c0 f   libohNetCore:Parser.obj
 0001:0003b0e0       ?At@Parser@OpenHome@@QAEDH@Z 0043c0e0 f   libohNetCore:Parser.obj
 0001:0003b120       ?Back@Parser@OpenHome@@QAEXI@Z 0043c120 f   libohNetCore:Parser.obj
 0001:0003b170       ?Forward@Parser@OpenHome@@QAEXI@Z 0043c170 f   libohNetCore:Parser.obj
 0001:0003b1c0       ?Remaining@Parser@OpenHome@@QAE?AVBrn@2@XZ 0043c1c0 f   libohNetCore:Parser.obj
 0001:0003b210       ?Next@Parser@OpenHome@@QAE?AVBrn@2@E@Z 0043c210 f   libohNetCore:Parser.obj
 0001:0003b390       ?Next@Parser@OpenHome@@QAE?AVBrn@2@XZ 0043c390 f   libohNetCore:Parser.obj
 0001:0003b3e0       ?NextNth@Parser@OpenHome@@QAE?AVBrn@2@IE@Z 0043c3e0 f   libohNetCore:Parser.obj
 0001:0003b460       ?NextNoTrim@Parser@OpenHome@@QAE?AVBrn@2@E@Z 0043c460 f   libohNetCore:Parser.obj
 0001:0003b560       ?NextLine@Parser@OpenHome@@QAE?AVBrn@2@XZ 0043c560 f   libohNetCore:Parser.obj
 0001:0003b700       ?NextToEnd@Parser@OpenHome@@QAE?AVBrn@2@XZ 0043c700 f   libohNetCore:Parser.obj
 0001:0003b840       ??_U@YAPAXI@Z              0043c840 f   libcpmtd:newaop.obj
 0001:0003b860       ?_Debug_message@std@@YAXPB_W0I@Z 0043c860 f   libcpmtd:stdthrow.obj
 0001:0003b890       ?_Debug_message@std@@YAXPBG0I@Z 0043c890 f   libcpmtd:stdthrow.obj
 0001:0003b8b0       ??0_Init_locks@std@@QAE@XZ 0043c8b0 f   libcpmtd:xlock.obj
 0001:0003b900       ??1_Init_locks@std@@QAE@XZ 0043c900 f   libcpmtd:xlock.obj
 0001:0003b950       ?_Init_locks_ctor@_Init_locks@std@@CAXPAV12@@Z 0043c950 f   libcpmtd:xlock.obj
 0001:0003b9a0       ?_Init_locks_dtor@_Init_locks@std@@CAXPAV12@@Z 0043c9a0 f   libcpmtd:xlock.obj
 0001:0003b9f0       ??0_Lockit@std@@QAE@XZ     0043c9f0 f   libcpmtd:xlock.obj
 0001:0003ba20       ??0_Lockit@std@@QAE@H@Z    0043ca20 f   libcpmtd:xlock.obj
 0001:0003ba60       ??1_Lockit@std@@QAE@XZ     0043ca60 f   libcpmtd:xlock.obj
 0001:0003ba90       ?_Lockit_ctor@_Lockit@std@@CAXPAV12@@Z 0043ca90 f   libcpmtd:xlock.obj
 0001:0003bab0       ?_Lockit_ctor@_Lockit@std@@CAXPAV12@H@Z 0043cab0 f   libcpmtd:xlock.obj
 0001:0003bae0       ?_Lockit_dtor@_Lockit@std@@CAXPAV12@@Z 0043cae0 f   libcpmtd:xlock.obj
 0001:0003bb00       ?_Lockit_ctor@_Lockit@std@@SAXH@Z 0043cb00 f   libcpmtd:xlock.obj
 0001:0003bb20       ?_Lockit_dtor@_Lockit@std@@SAXH@Z 0043cb20 f   libcpmtd:xlock.obj
 0001:0003bb40       ?_Xinvalid_argument@std@@YAXPBD@Z 0043cb40 f   libcpmtd:xthrow.obj
 0001:0003bb70       ??0invalid_argument@std@@QAE@PBD@Z 0043cb70 f i libcpmtd:xthrow.obj
 0001:0003bba0       ??0logic_error@std@@QAE@PBD@Z 0043cba0 f i libcpmtd:xthrow.obj
 0001:0003bbd0       ??_Glogic_error@std@@UAEPAXI@Z 0043cbd0 f i libcpmtd:xthrow.obj
 0001:0003bbd0       ??_Elogic_error@std@@UAEPAXI@Z 0043cbd0 f i libcpmtd:xthrow.obj
 0001:0003bc00       ??1logic_error@std@@UAE@XZ 0043cc00 f i libcpmtd:xthrow.obj
 0001:0003bc20       ??_Ginvalid_argument@std@@UAEPAXI@Z 0043cc20 f i libcpmtd:xthrow.obj
 0001:0003bc20       ??_Einvalid_argument@std@@UAEPAXI@Z 0043cc20 f i libcpmtd:xthrow.obj
 0001:0003bc50       ??1invalid_argument@std@@UAE@XZ 0043cc50 f i libcpmtd:xthrow.obj
 0001:0003bc70       ??0invalid_argument@std@@QAE@ABV01@@Z 0043cc70 f i libcpmtd:xthrow.obj
 0001:0003bca0       ??0logic_error@std@@QAE@ABV01@@Z 0043cca0 f i libcpmtd:xthrow.obj
 0001:0003bcd0       ?_Xlength_error@std@@YAXPBD@Z 0043ccd0 f   libcpmtd:xthrow.obj
 0001:0003bd00       ??0length_error@std@@QAE@PBD@Z 0043cd00 f i libcpmtd:xthrow.obj
 0001:0003bd30       ??_Glength_error@std@@UAEPAXI@Z 0043cd30 f i libcpmtd:xthrow.obj
 0001:0003bd30       ??_Elength_error@std@@UAEPAXI@Z 0043cd30 f i libcpmtd:xthrow.obj
 0001:0003bd60       ??1length_error@std@@UAE@XZ 0043cd60 f i libcpmtd:xthrow.obj
 0001:0003bd80       ??0length_error@std@@QAE@ABV01@@Z 0043cd80 f i libcpmtd:xthrow.obj
 0001:0003bdb0       ?_Xout_of_range@std@@YAXPBD@Z 0043cdb0 f   libcpmtd:xthrow.obj
 0001:0003bde0       ??0out_of_range@std@@QAE@PBD@Z 0043cde0 f i libcpmtd:xthrow.obj
 0001:0003be10       ??_Eout_of_range@std@@UAEPAXI@Z 0043ce10 f i libcpmtd:xthrow.obj
 0001:0003be10       ??_Gout_of_range@std@@UAEPAXI@Z 0043ce10 f i libcpmtd:xthrow.obj
 0001:0003be40       ??1out_of_range@std@@UAE@XZ 0043ce40 f i libcpmtd:xthrow.obj
 0001:0003be60       ??0out_of_range@std@@QAE@ABV01@@Z 0043ce60 f i libcpmtd:xthrow.obj
 0001:0003be90       ?_Xoverflow_error@std@@YAXPBD@Z 0043ce90 f   libcpmtd:xthrow.obj
 0001:0003bec0       ??0overflow_error@std@@QAE@PBD@Z 0043cec0 f i libcpmtd:xthrow.obj
 0001:0003bef0       ??0runtime_error@std@@QAE@PBD@Z 0043cef0 f i libcpmtd:xthrow.obj
 0001:0003bf20       ??_Gruntime_error@std@@UAEPAXI@Z 0043cf20 f i libcpmtd:xthrow.obj
 0001:0003bf20       ??_Eruntime_error@std@@UAEPAXI@Z 0043cf20 f i libcpmtd:xthrow.obj
 0001:0003bf50       ??1runtime_error@std@@UAE@XZ 0043cf50 f i libcpmtd:xthrow.obj
 0001:0003bf70       ??_Goverflow_error@std@@UAEPAXI@Z 0043cf70 f i libcpmtd:xthrow.obj
 0001:0003bf70       ??_Eoverflow_error@std@@UAEPAXI@Z 0043cf70 f i libcpmtd:xthrow.obj
 0001:0003bfa0       ??1overflow_error@std@@UAE@XZ 0043cfa0 f i libcpmtd:xthrow.obj
 0001:0003bfc0       ??0overflow_error@std@@QAE@ABV01@@Z 0043cfc0 f i libcpmtd:xthrow.obj
 0001:0003bff0       ??0runtime_error@std@@QAE@ABV01@@Z 0043cff0 f i libcpmtd:xthrow.obj
 0001:0003c020       ?_Xruntime_error@std@@YAXPBD@Z 0043d020 f   libcpmtd:xthrow.obj
 0001:0003c050       __Once                     0043d050 f   libcpmtd:xmtx.obj
 0001:0003c0b0       __Mtxinit                  0043d0b0 f   libcpmtd:xmtx.obj
 0001:0003c0d0       __Mtxdst                   0043d0d0 f   libcpmtd:xmtx.obj
 0001:0003c0f0       __Mtxlock                  0043d0f0 f   libcpmtd:xmtx.obj
 0001:0003c110       __Mtxunlock                0043d110 f   libcpmtd:xmtx.obj
 0001:0003c130       ?_JumpToContinuation@@YGXPAXPAUEHRegistrationNode@@@Z 0043d130 f   LIBCMTD:_trnsctrl_.obj
 0001:0003c170       ?_CallMemberFunction0@@YGXPAX0@Z 0043d170 f   LIBCMTD:_trnsctrl_.obj
 0001:0003c180       ?_CallMemberFunction1@@YGXPAX00@Z 0043d180 f   LIBCMTD:_trnsctrl_.obj
 0001:0003c190       ?_CallMemberFunction2@@YGXPAX00H@Z 0043d190 f   LIBCMTD:_trnsctrl_.obj
 0001:0003c1a0       ?_UnwindNestedFrames@@YGXPAUEHRegistrationNode@@PAUEHExceptionRecord@@@Z 0043d1a0 f   LIBCMTD:_trnsctrl_.obj
 0001:0003c200       ___CxxFrameHandler         0043d200 f   LIBCMTD:_trnsctrl_.obj
 0001:0003c240       ___CxxFrameHandler3        0043d240 f   LIBCMTD:_trnsctrl_.obj
 0001:0003c280       ___CxxFrameHandler2        0043d280 f   LIBCMTD:_trnsctrl_.obj
 0001:0003c2c0       ___CxxLongjmpUnwind@4      0043d2c0 f   LIBCMTD:_trnsctrl_.obj
 0001:0003c2f0       ?_CallCatchBlock2@@YAPAXPAUEHRegistrationNode@@PBU_s_FuncInfo@@PAXHK@Z 0043d2f0 f   LIBCMTD:_trnsctrl_.obj
 0001:0003c3b0       ?_CallSETranslator@@YAHPAUEHExceptionRecord@@PAUEHRegistrationNode@@PAX2PBU_s_FuncInfo@@H1@Z 0043d3b0 f   LIBCMTD:_trnsctrl_.obj
 0001:0003c550       ?_GetRangeOfTrysToCheck@@YAPBU_s_TryBlockMapEntry@@PBU_s_FuncInfo@@HHPAI1@Z 0043d550 f   LIBCMTD:_trnsctrl_.obj
 0001:0003c5d0       __CreateFrameInfo          0043d5d0 f   LIBCMTD:_trnsctrl_.obj
 0001:0003c600       __IsExceptionObjectToBeDestroyed 0043d600 f   LIBCMTD:_trnsctrl_.obj
 0001:0003c630       __FindAndUnlinkFrame       0043d630 f   LIBCMTD:_trnsctrl_.obj
 0001:0003c690       __RTC_CheckEsp             0043d690 f   LIBCMTD:_stack_.obj
 0001:0003c6c0       @_RTC_CheckStackVars@8     0043d6c0 f   LIBCMTD:_stack_.obj
 0001:0003c730       @_RTC_AllocaHelper@12      0043d730 f   LIBCMTD:_stack_.obj
 0001:0003c770       @_RTC_CheckStackVars2@12   0043d770 f   LIBCMTD:_stack_.obj
 0001:0003c850       @__security_check_cookie@4 0043d850 f   LIBCMTD:secchk.obj
 0001:0003c860       __RTC_InitBase             0043d860 f   LIBCMTD:_init_.obj
 0001:0003c890       __RTC_Shutdown             0043d890 f   LIBCMTD:_init_.obj
 0001:0003c8b0       ?name@type_info@@QBEPBDPAU__type_info_node@@@Z 0043d8b0 f   LIBCMTD:typinfo.obj
 0001:0003c8d0       ??1type_info@@UAE@XZ       0043d8d0 f   LIBCMTD:typinfo.obj
 0001:0003c900       ??_Etype_info@@UAEPAXI@Z   0043d900 f i LIBCMTD:typinfo.obj
 0001:0003c900       ??_Gtype_info@@UAEPAXI@Z   0043d900 f i LIBCMTD:typinfo.obj
 0001:0003c930       ?_name_internal_method@type_info@@QBEPBDPAU__type_info_node@@@Z 0043d930 f   LIBCMTD:typinfo.obj
 0001:0003c950       ?_type_info_dtor_internal_method@type_info@@QAEXXZ 0043d950 f   LIBCMTD:typinfo.obj
 0001:0003c970       ??8type_info@@QBE_NABV0@@Z 0043d970 f   LIBCMTD:typinfo.obj
 0001:0003c9a0       ??9type_info@@QBE_NABV0@@Z 0043d9a0 f   LIBCMTD:typinfo.obj
 0001:0003c9d0       ?before@type_info@@QBEHABV1@@Z 0043d9d0 f   LIBCMTD:typinfo.obj
 0001:0003ca00       ?raw_name@type_info@@QBEPBDXZ 0043da00 f   LIBCMTD:typinfo.obj
 0001:0003ca20       ??0type_info@@AAE@ABV0@@Z  0043da20 f   LIBCMTD:typinfo.obj
 0001:0003ca40       ??4type_info@@AAEAAV0@ABV0@@Z 0043da40 f   LIBCMTD:typinfo.obj
 0001:0003ca60       ??3@YAXPAX@Z               0043da60 f   LIBCMTD:dbgdel.obj
 0001:0003cb50       ??2@YAPAXI@Z               0043db50 f   LIBCMTD:new.obj
 0001:0003cbd0       ??_V@YAXPAX@Z              0043dbd0 f   LIBCMTD:delete2.obj
 0001:0003cbf0       _memcpy                    0043dbf0 f   LIBCMTD:memcpy.obj
 0001:0003cf60       _mainCRTStartup            0043df60 f   LIBCMTD:crt0.obj
 0001:0003d1c0       __CxxThrowException@8      0043e1c0 f   LIBCMTD:throw.obj
 0001:0003d220       __purecall                 0043e220 f   LIBCMTD:purevirt.obj
 0001:0003d260       __set_purecall_handler     0043e260 f   LIBCMTD:purevirt.obj
 0001:0003d2a0       __get_purecall_handler     0043e2a0 f   LIBCMTD:purevirt.obj
 0001:0003d2c0       __wassert                  0043e2c0 f   LIBCMTD:wassert.obj
 0001:0003de50       __invoke_watson_if_error   0043ee50 f i LIBCMTD:wassert.obj
 0001:0003dec0       _abort                     0043eec0 f   LIBCMTD:abort.obj
 0001:0003df20       __set_abort_behavior       0043ef20 f   LIBCMTD:abort.obj
 0001:0003df50       _atol                      0043ef50 f   LIBCMTD:atox.obj
 0001:0003df70       __atol_l                   0043ef70 f   LIBCMTD:atox.obj
 0001:0003df90       _atoi                      0043ef90 f   LIBCMTD:atox.obj
 0001:0003dfb0       __atoi_l                   0043efb0 f   LIBCMTD:atox.obj
 0001:0003dfd0       __atoi64                   0043efd0 f   LIBCMTD:atox.obj
 0001:0003dff0       __atoi64_l                 0043eff0 f   LIBCMTD:atox.obj
 0001:0003e010       _getenv                    0043f010 f   LIBCMTD:getenv.obj
 0001:0003e160       __getenv_helper_nolock     0043f160 f   LIBCMTD:getenv.obj
 0001:0003e280       _getenv_s                  0043f280 f   LIBCMTD:getenv.obj
 0001:0003e4b0       __dupenv_s                 0043f4b0 f   LIBCMTD:getenv.obj
 0001:0003e4e0       __dupenv_s_dbg             0043f4e0 f   LIBCMTD:getenv.obj
 0001:0003e730       ??0exception@std@@QAE@XZ   0043f730 f   LIBCMTD:stdexcpt.obj
 0001:0003e760       ??_Eexception@std@@UAEPAXI@Z 0043f760 f i LIBCMTD:stdexcpt.obj
 0001:0003e760       ??_Gexception@std@@UAEPAXI@Z 0043f760 f i LIBCMTD:stdexcpt.obj
 0001:0003e790       ??0exception@std@@QAE@ABQBD@Z 0043f790 f   LIBCMTD:stdexcpt.obj
 0001:0003e7d0       ??0exception@std@@QAE@ABQBDH@Z 0043f7d0 f   LIBCMTD:stdexcpt.obj
 0001:0003e800       ??0exception@std@@QAE@ABV01@@Z 0043f800 f   LIBCMTD:stdexcpt.obj
 0001:0003e840       ??4exception@std@@QAEAAV01@ABV01@@Z 0043f840 f   LIBCMTD:stdexcpt.obj
 0001:0003e890       ??1exception@std@@UAE@XZ   0043f890 f   LIBCMTD:stdexcpt.obj
 0001:0003e8b0       ?what@exception@std@@UBEPBDXZ 0043f8b0 f   LIBCMTD:stdexcpt.obj
 0001:0003e8e0       ?_Copy_str@exception@std@@AAEXPBD@Z 0043f8e0 f   LIBCMTD:stdexcpt.obj
 0001:0003e950       ?_Tidy@exception@std@@AAEXXZ 0043f950 f   LIBCMTD:stdexcpt.obj
 0001:0003e990       ??0bad_cast@std@@QAE@PBD@Z 0043f990 f   LIBCMTD:stdexcpt.obj
 0001:0003e9c0       ??_Gbad_cast@std@@UAEPAXI@Z 0043f9c0 f i LIBCMTD:stdexcpt.obj
 0001:0003e9c0       ??_Ebad_cast@std@@UAEPAXI@Z 0043f9c0 f i LIBCMTD:stdexcpt.obj
 0001:0003e9f0       ??0bad_cast@std@@QAE@ABV01@@Z 0043f9f0 f   LIBCMTD:stdexcpt.obj
 0001:0003ea20       ??1bad_cast@std@@UAE@XZ    0043fa20 f   LIBCMTD:stdexcpt.obj
 0001:0003ea40       ??0bad_typeid@std@@QAE@PBD@Z 0043fa40 f   LIBCMTD:stdexcpt.obj
 0001:0003ea70       ??_Ebad_typeid@std@@UAEPAXI@Z 0043fa70 f i LIBCMTD:stdexcpt.obj
 0001:0003ea70       ??_Gbad_typeid@std@@UAEPAXI@Z 0043fa70 f i LIBCMTD:stdexcpt.obj
 0001:0003eaa0       ??0bad_typeid@std@@QAE@ABV01@@Z 0043faa0 f   LIBCMTD:stdexcpt.obj
 0001:0003ead0       ??1bad_typeid@std@@UAE@XZ  0043fad0 f   LIBCMTD:stdexcpt.obj
 0001:0003eaf0       ??0__non_rtti_object@std@@QAE@PBD@Z 0043faf0 f   LIBCMTD:stdexcpt.obj
 0001:0003eb20       ??_G__non_rtti_object@std@@UAEPAXI@Z 0043fb20 f i LIBCMTD:stdexcpt.obj
 0001:0003eb20       ??_E__non_rtti_object@std@@UAEPAXI@Z 0043fb20 f i LIBCMTD:stdexcpt.obj
 0001:0003eb50       ??0__non_rtti_object@std@@QAE@ABV01@@Z 0043fb50 f   LIBCMTD:stdexcpt.obj
 0001:0003eb80       ??1__non_rtti_object@std@@UAE@XZ 0043fb80 f   LIBCMTD:stdexcpt.obj
 0001:0003eba0       _strncpy                   0043fba0 f   LIBCMTD:strncpy.obj
 0001:0003ecd0       ??_M@YGXPAXIHP6EX0@Z@Z     0043fcd0 f   LIBCMTD:ehvecdtr.obj
 0001:0003ed90       ?__ArrayUnwind@@YGXPAXIHP6EX0@Z@Z 0043fd90 f   LIBCMTD:ehvecdtr.obj
 0001:0003ee50       _strlen                    0043fe50 f   LIBCMTD:strlen.obj
 0001:0003eee0       __snprintf                 0043fee0 f   LIBCMTD:snprintf.obj
 0001:0003f0b0       __snprintf_l               004400b0 f   LIBCMTD:snprintf.obj
 0001:0003f0e0       _fflush                    004400e0 f   LIBCMTD:fflush.obj
 0001:0003f180       __fflush_nolock            00440180 f   LIBCMTD:fflush.obj
 0001:0003f1e0       __flush                    004401e0 f   LIBCMTD:fflush.obj
 0001:0003f2a0       __flushall                 004402a0 f   LIBCMTD:fflush.obj
 0001:0003f470       _fprintf                   00440470 f   LIBCMTD:fprintf.obj
 0001:0003f710       __fprintf_l                00440710 f   LIBCMTD:fprintf.obj
 0001:0003f740       __fprintf_s_l              00440740 f   LIBCMTD:fprintf.obj
 0001:0003f770       _fprintf_s                 00440770 f   LIBCMTD:fprintf.obj
 0001:0003f7a0       __fprintf_p_l              004407a0 f   LIBCMTD:fprintf.obj
 0001:0003f7d0       __fprintf_p                004407d0 f   LIBCMTD:fprintf.obj
 0001:0003f800       ___iob_func                00440800 f   LIBCMTD:_file.obj
 0001:0003f810       ___initstdio               00440810 f   LIBCMTD:_file.obj
 0001:0003f960       ___endstdio                00440960 f   LIBCMTD:_file.obj
 0001:0003f990       __lock_file                00440990 f   LIBCMTD:_file.obj
 0001:0003f9f0       __lock_file2               004409f0 f   LIBCMTD:_file.obj
 0001:0003fa30       __unlock_file              00440a30 f   LIBCMTD:_file.obj
 0001:0003fa90       __unlock_file2             00440a90 f   LIBCMTD:_file.obj
 0001:0003fad0       __initp_misc_invarg        00440ad0 f   LIBCMTD:invarg.obj
 0001:0003fae0       __invalid_parameter        00440ae0 f   LIBCMTD:invarg.obj
 0001:0003fb40       __invoke_watson            00440b40 f   LIBCMTD:invarg.obj
 0001:0003fb70       __call_reportfault         00440b70 f   LIBCMTD:invarg.obj
 0001:0003fcc0       __set_invalid_parameter_handler 00440cc0 f   LIBCMTD:invarg.obj
 0001:0003fd00       __get_invalid_parameter_handler 00440d00 f   LIBCMTD:invarg.obj
 0001:0003fd30       ?_invalid_parameter@@YAXPBG00II@Z 00440d30 f   LIBCMTD:invarg.obj
 0001:0003fd60       ?_invoke_watson@@YAXPBG00II@Z 00440d60 f   LIBCMTD:invarg.obj
 0001:0003fd90       __CrtSetReportHookW2       00440d90 f   LIBCMTD:dbgrptw.obj
 0001:000400c0       __CrtDbgReportW            004410c0 f   LIBCMTD:dbgrptw.obj
 0001:00040100       __CrtDbgReportWV           00441100 f i LIBCMTD:dbgrptw.obj
 0001:00040130       ___crtMessageWindowW       00441130 f   LIBCMTD:dbgrptw.obj
 0001:00040530       __invoke_watson_if_oneof   00441530 f i LIBCMTD:dbgrptw.obj
 0001:00040570       ?_CrtDbgReportW@@YAHHPBGH00ZZ 00441570 f   LIBCMTD:dbgrptw.obj
 0001:000405b0       _strcmp                    004415b0 f   LIBCMTD:strcmp.obj
 0001:00040640       __allshl                   00441640 f   LIBCMTD:llshl.obj
 0001:00040660       _free                      00441660 f   LIBCMTD:dbgfree.obj
 0001:00040680       __aulldiv                  00441680 f   LIBCMTD:ulldiv.obj
 0001:000406f0       _memset                    004416f0 f   LIBCMTD:memset.obj
 0001:00040770       _calloc                    00441770 f   LIBCMTD:dbgcalloc.obj
 0001:000407a0       _malloc                    004417a0 f   LIBCMTD:dbgmalloc.obj
 0001:000407d0       _memcmp                    004417d0 f   LIBCMTD:memcmp.obj
 0001:00041240       _memmove                   00442240 f   LIBCMTD:memmove.obj
 0001:000415b0       __onexit                   004425b0 f   LIBCMTD:onexit.obj
 0001:00041780       _atexit                    00442780 f   LIBCMTD:onexit.obj
 0001:000417a0       ___onexitinit              004427a0 f   LIBCMTD:onexit.obj
 0001:00041800       __allrem                   00442800 f   LIBCMTD:llrem.obj
 0001:000418c0       __time64                   004428c0 f   LIBCMTD:time64.obj
 0001:00041940       _srand                     00442940 f   LIBCMTD:rand.obj
 0001:00041960       _rand                      00442960 f   LIBCMTD:rand.obj
 0001:000419a0       __alldiv                   004429a0 f   LIBCMTD:lldiv.obj
 0001:00041a50       __aullrem                  00442a50 f   LIBCMTD:ullrem.obj
 0001:00041ad0       __allmul                   00442ad0 f   LIBCMTD:llmul.obj
 0001:00041b10       __aullshr                  00442b10 f   LIBCMTD:ullshr.obj
 0001:00041b30       __allshr                   00442b30 f   LIBCMTD:llshr.obj
 0001:00041b60       ___InternalCxxFrameHandler 00442b60 f   LIBCMTD:frame.obj
 0001:00042160       ??0bad_exception@std@@QAE@PBD@Z 00443160 f i LIBCMTD:frame.obj
 0001:00042190       ??1bad_exception@std@@UAE@XZ 00443190 f i LIBCMTD:frame.obj
 0001:000421b0       ??_Ebad_exception@std@@UAEPAXI@Z 004431b0 f i LIBCMTD:frame.obj
 0001:000421b0       ??_Gbad_exception@std@@UAEPAXI@Z 004431b0 f i LIBCMTD:frame.obj
 0001:000421e0       ??0bad_exception@std@@QAE@ABV01@@Z 004431e0 f i LIBCMTD:frame.obj
 0001:000423a0       ___TypeMatch               004433a0 f   LIBCMTD:frame.obj
 0001:00042450       ___FrameUnwindFilter       00443450 f   LIBCMTD:frame.obj
 0001:000424d0       ___FrameUnwindToState      004434d0 f   LIBCMTD:frame.obj
 0001:00042a10       ___BuildCatchObjectHelper  00443a10 f   LIBCMTD:frame.obj
 0001:00042c80       ___BuildCatchObject        00443c80 f   LIBCMTD:frame.obj
 0001:00042d90       ___DestructExceptionObject 00443d90 f   LIBCMTD:frame.obj
 0001:00042e40       ___AdjustPointer           00443e40 f   LIBCMTD:frame.obj
 0001:00042e90       ?__uncaught_exception@@YA_NXZ 00443e90 f   LIBCMTD:frame.obj
 0001:00042eb0       ___CxxExceptionFilter      00443eb0 f   LIBCMTD:frame.obj
 0001:000430b0       ___CxxRegisterExceptionObject 004440b0 f   LIBCMTD:frame.obj
 0001:000431e0       ___CxxDetectRethrow        004441e0 f   LIBCMTD:frame.obj
 0001:00043270       ___CxxUnregisterExceptionObject 00444270 f   LIBCMTD:frame.obj
 0001:000433f0       ___CxxQueryExceptionSize   004443f0 f   LIBCMTD:frame.obj
 0001:00043400       ___CxxCallUnwindDtor       00444400 f   LIBCMTD:frame.obj
 0001:00043480       ___CxxCallUnwindDelDtor    00444480 f   LIBCMTD:frame.obj
 0001:00043500       ___CxxCallUnwindStdDelDtor 00444500 f   LIBCMTD:frame.obj
 0001:00043580       ___CxxCallUnwindVecDtor    00444580 f   LIBCMTD:frame.obj
 0001:000437b0       ?_is_exception_typeof@@YAHABVtype_info@@PAU_EXCEPTION_POINTERS@@@Z 004447b0 f   LIBCMTD:frame.obj
 0001:00043890       __CallSettingFrame@12      00444890 f   LIBCMTD:lowhelpr.obj
 0001:000438b7       __NLG_Return               004448b7     LIBCMTD:lowhelpr.obj
 0001:000438e0       __encoded_null             004448e0 f   LIBCMTD:tidtable.obj
 0001:000438f0       ___crtTlsAlloc@4           004448f0 f   LIBCMTD:tidtable.obj
 0001:00043900       ___fls_getvalue@4          00444900 f   LIBCMTD:tidtable.obj
 0001:00043920       ___get_flsindex            00444920 f   LIBCMTD:tidtable.obj
 0001:00043930       ___set_flsgetvalue         00444930 f   LIBCMTD:tidtable.obj
 0001:00043980       ___fls_setvalue@8          00444980 f   LIBCMTD:tidtable.obj
 0001:000439a0       __mtinit                   004449a0 f   LIBCMTD:tidtable.obj
 0001:00043ba0       __mtterm                   00444ba0 f   LIBCMTD:tidtable.obj
 0001:00043c00       __initptd                  00444c00 f   LIBCMTD:tidtable.obj
 0001:00043d30       __getptd_noexit            00444d30 f   LIBCMTD:tidtable.obj
 0001:00043df0       __getptd                   00444df0 f   LIBCMTD:tidtable.obj
 0001:00043e20       __freefls@4                00444e20 f   LIBCMTD:tidtable.obj
 0001:00044030       __freeptd                  00445030 f   LIBCMTD:tidtable.obj
 0001:000440b0       ___threadid                004450b0 f   LIBCMTD:tidtable.obj
 0001:000440c0       ___threadhandle            004450c0 f   LIBCMTD:tidtable.obj
 0001:000440d0       __initp_eh_hooks           004450d0 f   LIBCMTD:hooks.obj
 0001:000440f0       ?terminate@@YAXXZ          004450f0 f   LIBCMTD:hooks.obj
 0001:00044170       ?unexpected@@YAXXZ         00445170 f   LIBCMTD:hooks.obj
 0001:000441a0       ?_inconsistency@@YAXXZ     004451a0 f   LIBCMTD:hooks.obj
 0001:00044230       ?_RTC_Failure@@YAXPAXH@Z   00445230 f   LIBCMTD:_error_.obj
 0001:000445e0       ?_RTC_StackFailure@@YAXPAXPBD@Z 004455e0 f   LIBCMTD:_error_.obj
 0001:000446e0       ?_RTC_AllocaFailure@@YAXPAXPAU_RTC_ALLOCA_NODE@@H@Z 004456e0 f   LIBCMTD:_error_.obj
 0001:00044890       __RTC_UninitUse            00445890 f   LIBCMTD:_error_.obj
 0001:00044980       ___report_gsfailure        00445980 f   LIBCMTD:gs_report.obj
 0001:00044a90       __RTC_NumErrors            00445a90 f   LIBCMTD:_userapi_.obj
 0001:00044aa0       __RTC_GetErrDesc           00445aa0 f   LIBCMTD:_userapi_.obj
 0001:00044ac0       __RTC_SetErrorType         00445ac0 f   LIBCMTD:_userapi_.obj
 0001:00044af0       __RTC_SetErrorFunc         00445af0 f   LIBCMTD:_userapi_.obj
 0001:00044b10       __RTC_SetErrorFuncW        00445b10 f   LIBCMTD:_userapi_.obj
 0001:00044b30       ?_RTC_GetErrorFunc@@YAP6AHHPBDH00ZZPBX@Z 00445b30 f   LIBCMTD:_userapi_.obj
 0001:00044b40       ?_RTC_GetErrorFuncW@@YAP6AHHPB_WH00ZZPBX@Z 00445b40 f   LIBCMTD:_userapi_.obj
 0001:00044b50       __chkesp                   00445b50 f   LIBCMTD:chkesp.obj
 0001:00044b90       __CRT_RTC_INIT             00445b90 f   LIBCMTD:chkesp.obj
 0001:00044ba0       __CRT_RTC_INITW            00445ba0 f   LIBCMTD:chkesp.obj
 0001:00044bb0       ?_Type_info_dtor@type_info@@CAXPAV1@@Z 00445bb0 f   LIBCMTD:typname.obj
 0001:00044cc0       ?_Name_base@type_info@@CAPBDPBV1@PAU__type_info_node@@@Z 00445cc0 f   LIBCMTD:typname.obj
 0001:00044e70       ?_Type_info_dtor_internal@type_info@@CAXPAV1@@Z 00445e70 f   LIBCMTD:typname.obj
 0001:00044f80       ___unDNameHelper           00445f80 f   LIBCMTD:typname.obj
 0001:00044fc0       ?_Name_base_internal@type_info@@CAPBDPBV1@PAU__type_info_node@@@Z 00445fc0 f   LIBCMTD:typname.obj
 0001:00045180       ___clean_type_info_names_internal 00446180 f   LIBCMTD:typname.obj
 0001:00045240       __mtinitlocks              00446240 f   LIBCMTD:mlock.obj
 0001:000452d0       __mtdeletelocks            004462d0 f   LIBCMTD:mlock.obj
 0001:00045390       __mtinitlocknum            00446390 f   LIBCMTD:mlock.obj
 0001:000454e0       __lock                     004464e0 f   LIBCMTD:mlock.obj
 0001:00045520       __unlock                   00446520 f   LIBCMTD:mlock.obj
 0001:00045540       __lockerr_exit             00446540 f   LIBCMTD:mlock.obj
 0001:00045560       __malloc_dbg               00446560 f   LIBCMTD:dbgheap.obj
 0001:00045590       __nh_malloc                00446590 f   LIBCMTD:dbgheap.obj
 0001:000455b0       __nh_malloc_dbg            004465b0 f   LIBCMTD:dbgheap.obj
 0001:00045690       __heap_alloc               00446690 f   LIBCMTD:dbgheap.obj
 0001:00045a70       __heap_alloc_dbg           00446a70 f   LIBCMTD:dbgheap.obj
 0001:00045ad0       __calloc_dbg_impl          00446ad0 f   LIBCMTD:dbgheap.obj
 0001:00045b50       __calloc_dbg               00446b50 f   LIBCMTD:dbgheap.obj
 0001:00045bb0       __recalloc                 00446bb0 f   LIBCMTD:dbgheap.obj
 0001:00045be0       __realloc_dbg              00446be0 f   LIBCMTD:dbgheap.obj
 0001:00046280       __recalloc_dbg             00447280 f   LIBCMTD:dbgheap.obj
 0001:00046330       __expand                   00447330 f   LIBCMTD:dbgheap.obj
 0001:00046360       __expand_dbg               00447360 f   LIBCMTD:dbgheap.obj
 0001:00046470       __free_nolock              00447470 f   LIBCMTD:dbgheap.obj
 0001:00046490       __free_dbg                 00447490 f   LIBCMTD:dbgheap.obj
 0001:00046510       __free_dbg_nolock          00447510 f   LIBCMTD:dbgheap.obj
 0001:000469f0       __msize                    004479f0 f   LIBCMTD:dbgheap.obj
 0001:00046a10       __msize_dbg                00447a10 f   LIBCMTD:dbgheap.obj
 0001:00046c00       __CrtSetBreakAlloc         00447c00 f   LIBCMTD:dbgheap.obj
 0001:00046c20       __CrtSetDbgBlockType       00447c20 f   LIBCMTD:dbgheap.obj
 0001:00046d10       __CrtSetAllocHook          00447d10 f   LIBCMTD:dbgheap.obj
 0001:00046d30       __CrtGetAllocHook          00447d30 f   LIBCMTD:dbgheap.obj
 0001:00046d80       __CrtCheckMemory           00447d80 f   LIBCMTD:dbgheap.obj
 0001:000471e0       __CrtSetDbgFlag            004481e0 f   LIBCMTD:dbgheap.obj
 0001:00047330       __CrtDoForAllClientObjects 00448330 f   LIBCMTD:dbgheap.obj
 0001:00047450       __CrtIsValidPointer        00448450 f   LIBCMTD:dbgheap.obj
 0001:00047460       __CrtIsValidHeapPointer    00448460 f   LIBCMTD:dbgheap.obj
 0001:000474b0       __CrtIsMemoryBlock         004484b0 f   LIBCMTD:dbgheap.obj
 0001:00047620       __CrtReportBlockType       00448620 f   LIBCMTD:dbgheap.obj
 0001:00047650       __CrtSetDumpClient         00448650 f   LIBCMTD:dbgheap.obj
 0001:00047670       __CrtGetDumpClient         00448670 f   LIBCMTD:dbgheap.obj
 0001:00047680       __CrtMemCheckpoint         00448680 f   LIBCMTD:dbgheap.obj
 0001:000478a0       __CrtMemDifference         004488a0 f   LIBCMTD:dbgheap.obj
 0001:00047ac0       __CrtMemDumpAllObjectsSince 00448ac0 f   LIBCMTD:dbgheap.obj
 0001:00047b00       ??0_LocaleUpdate@@QAE@PAUlocaleinfo_struct@@@Z 00448b00 f i LIBCMTD:dbgheap.obj
 0001:00047be0       ??1_LocaleUpdate@@QAE@XZ   00448be0 f i LIBCMTD:dbgheap.obj
 0001:00047c10       ?GetLocaleT@_LocaleUpdate@@QAEPAUlocaleinfo_struct@@XZ 00448c10 f i LIBCMTD:dbgheap.obj
 0001:000480d0       __CrtDumpMemoryLeaks       004490d0 f   LIBCMTD:dbgheap.obj
 0001:00048150       __CrtMemDumpStatistics     00449150 f   LIBCMTD:dbgheap.obj
 0001:00048260       __aligned_malloc           00449260 f   LIBCMTD:dbgheap.obj
 0001:00048280       __aligned_malloc_dbg       00449280 f   LIBCMTD:dbgheap.obj
 0001:000482b0       __aligned_realloc          004492b0 f   LIBCMTD:dbgheap.obj
 0001:000482e0       __aligned_recalloc         004492e0 f   LIBCMTD:dbgheap.obj
 0001:00048310       __aligned_realloc_dbg      00449310 f   LIBCMTD:dbgheap.obj
 0001:00048340       __aligned_recalloc_dbg     00449340 f   LIBCMTD:dbgheap.obj
 0001:00048370       __aligned_offset_malloc    00449370 f   LIBCMTD:dbgheap.obj
 0001:00048390       __aligned_offset_malloc_dbg 00449390 f   LIBCMTD:dbgheap.obj
 0001:00048550       __aligned_offset_realloc   00449550 f   LIBCMTD:dbgheap.obj
 0001:00048580       __aligned_offset_recalloc  00449580 f   LIBCMTD:dbgheap.obj
 0001:000485b0       __aligned_offset_realloc_dbg 004495b0 f   LIBCMTD:dbgheap.obj
 0001:000488a0       __aligned_offset_recalloc_dbg 004498a0 f   LIBCMTD:dbgheap.obj
 0001:00048960       __aligned_free             00449960 f   LIBCMTD:dbgheap.obj
 0001:00048980       __aligned_free_dbg         00449980 f   LIBCMTD:dbgheap.obj
 0001:00048a30       __CrtSetDebugFillThreshold 00449a30 f   LIBCMTD:dbgheap.obj
 0001:00048a50       __CrtSetCheckCount         00449a50 f   LIBCMTD:dbgheap.obj
 0001:00048a70       __CrtGetCheckCount         00449a70 f   LIBCMTD:dbgheap.obj
 0001:00048a80       __aligned_msize            00449a80 f   LIBCMTD:dbgheap.obj
 0001:00048aa0       __aligned_msize_dbg        00449aa0 f   LIBCMTD:dbgheap.obj
 0001:00048bb0       __except_handler4          00449bb0 f   LIBCMTD:chandler4.obj
 0001:00048dd0       __initp_heap_handler       00449dd0 f   LIBCMTD:handler.obj
 0001:00048de0       ?_set_new_handler@@YAP6AHI@ZP6AHI@Z@Z 00449de0 f   LIBCMTD:handler.obj
 0001:00048e20       ?_set_new_handler@@YAP6AHI@ZH@Z 00449e20 f   LIBCMTD:handler.obj
 0001:00048e60       ?_query_new_handler@@YAP6AHI@ZXZ 00449e60 f   LIBCMTD:handler.obj
 0001:00048e80       __callnewh                 00449e80 f   LIBCMTD:handler.obj
 0001:00048ec0       __VEC_memcpy               00449ec0 f   LIBCMTD:p4_memcpy.obj
 0001:00048fd0       ___sse2_available_init     00449fd0 f   LIBCMTD:cpu_disp.obj
 0001:00048ff0       ?__CxxUnhandledExceptionFilter@@YGJPAU_EXCEPTION_POINTERS@@@Z 00449ff0 f   LIBCMTD:unhandld.obj
 0001:00049060       ___CxxSetUnhandledExceptionFilter 0044a060 f   LIBCMTD:unhandld.obj
 0001:00049080       ___security_init_cookie    0044a080 f   LIBCMTD:gs_support.obj
 0001:00049160       __cinit                    0044a160 f   LIBCMTD:crt0dat.obj
 0001:00049200       _exit                      0044a200 f   LIBCMTD:crt0dat.obj
 0001:00049220       __exit                     0044a220 f   LIBCMTD:crt0dat.obj
 0001:00049240       __cexit                    0044a240 f   LIBCMTD:crt0dat.obj
 0001:00049260       __c_exit                   0044a260 f   LIBCMTD:crt0dat.obj
 0001:00049280       __amsg_exit                0044a280 f   LIBCMTD:crt0dat.obj
 0001:000492b0       ___freeCrtMemory           0044a2b0 f   LIBCMTD:crt0dat.obj
 0001:000495f0       ___crtCorExitProcess       0044a5f0 f   LIBCMTD:crt0dat.obj
 0001:00049630       ___crtExitProcess          0044a630 f   LIBCMTD:crt0dat.obj
 0001:00049650       __lockexit                 0044a650 f   LIBCMTD:crt0dat.obj
 0001:00049670       __unlockexit               0044a670 f   LIBCMTD:crt0dat.obj
 0001:00049690       __init_pointers            0044a690 f   LIBCMTD:crt0dat.obj
 0001:00049720       __initterm_e               0044a720 f   LIBCMTD:crt0dat.obj
 0001:00049760       __get_wpgmptr              0044a760 f   LIBCMTD:crt0dat.obj
 0001:00049850       __get_pgmptr               0044a850 f   LIBCMTD:crt0dat.obj
 0001:00049940       ___CppXcptFilter           0044a940 f   LIBCMTD:winxfltr.obj
 0001:00049970       __XcptFilter               0044a970 f   LIBCMTD:winxfltr.obj
 0001:00049bd0       __setenvp                  0044abd0 f   LIBCMTD:stdenvp.obj
 0001:00049d70       __setargv                  0044ad70 f   LIBCMTD:stdargv.obj
 0001:00049e90       __set_pgmptr               0044ae90 f i LIBCMTD:stdargv.obj
 0001:0004a200       ___crtGetEnvironmentStringsA 0044b200 f   LIBCMTD:a_env.obj
 0001:0004a300       __ioinit                   0044b300 f   LIBCMTD:ioinit.obj
 0001:0004a710       __ioterm                   0044b710 f   LIBCMTD:ioinit.obj
 0001:0004a7b0       __RTC_Initialize           0044b7b0 f   LIBCMTD:_initsect_.obj
 0001:0004a7e0       __RTC_Terminate            0044b7e0 f   LIBCMTD:_initsect_.obj
 0001:0004a810       __heap_init                0044b810 f   LIBCMTD:heapinit.obj
 0001:0004a850       __heap_term                0044b850 f   LIBCMTD:heapinit.obj
 0001:0004a870       __get_heap_handle          0044b870 f   LIBCMTD:heapinit.obj
 0001:0004a8b0       __FF_MSGBANNER             0044b8b0 f   LIBCMTD:crt0msg.obj
 0001:0004a900       __GET_RTERRMSG             0044b900 f   LIBCMTD:crt0msg.obj
 0001:0004a950       __NMSG_WRITE               0044b950 f   LIBCMTD:crt0msg.obj
 0001:0004ac90       ___getlocaleinfo           0044bc90 f   LIBCMTD:inithelp.obj
 0001:0004af70       __initp_misc_purevirt      0044bf70 f   LIBCMTD:inithelp.obj
 0001:0004af80       __initp_misc_winsig        0044bf80 f   LIBCMTD:winsig.obj
 0001:0004afb0       _signal                    0044bfb0 f   LIBCMTD:winsig.obj
 0001:0004b450       _raise                     0044c450 f   LIBCMTD:winsig.obj
 0001:0004b7c0       ___get_sigabrt             0044c7c0 f   LIBCMTD:winsig.obj
 0001:0004b7e0       ___fpecode                 0044c7e0 f   LIBCMTD:winsig.obj
 0001:0004b7f0       ___pxcptinfoptrs           0044c7f0 f   LIBCMTD:winsig.obj
 0001:0004b800       ___crtMessageBoxW          0044c800 f   LIBCMTD:crtmboxw.obj
 0001:0004ba20       __itow_s                   0044ca20 f   LIBCMTD:xtows.obj
 0001:0004be00       __ltow_s                   0044ce00 f   LIBCMTD:xtows.obj
 0001:0004be40       __ultow_s                  0044ce40 f   LIBCMTD:xtows.obj
 0001:0004be60       __i64tow_s                 0044ce60 f   LIBCMTD:xtows.obj
 0001:0004c280       __ui64tow_s                0044d280 f   LIBCMTD:xtows.obj
 0001:0004c2a0       _wcsncat_s                 0044d2a0 f   LIBCMTD:wcsncat_s.obj
 0001:0004c750       _wcsncpy_s                 0044d750 f   LIBCMTD:wcsncpy_s.obj
 0001:0004cb60       _wcscat_s                  0044db60 f   LIBCMTD:wcscat_s.obj
 0001:0004cf50       _wcscpy_s                  0044df50 f   LIBCMTD:wcscpy_s.obj
 0001:0004d230       _fwprintf                  0044e230 f   LIBCMTD:fwprintf.obj
 0001:0004d3b0       __fwprintf_l               0044e3b0 f   LIBCMTD:fwprintf.obj
 0001:0004d3e0       __fwprintf_s_l             0044e3e0 f   LIBCMTD:fwprintf.obj
 0001:0004d410       _fwprintf_s                0044e410 f   LIBCMTD:fwprintf.obj
 0001:0004d440       __fwprintf_p_l             0044e440 f   LIBCMTD:fwprintf.obj
 0001:0004d470       __fwprintf_p               0044e470 f   LIBCMTD:fwprintf.obj
 0001:0004d4a0       _setvbuf                   0044e4a0 f   LIBCMTD:setvbuf.obj
 0001:0004d770       _wcslen                    0044e770 f   LIBCMTD:wcslen.obj
 0001:0004d7a0       __set_error_mode           0044e7a0 f   LIBCMTD:errmode.obj
 0001:0004d860       ___set_app_type            0044e860 f   LIBCMTD:errmode.obj
 0001:0004d870       __vswprintf_helper         0044e870 f   LIBCMTD:vswprnc.obj
 0001:0004dad0       __vswprintf_c              0044ead0 f   LIBCMTD:vswprnc.obj
 0001:0004db20       __vswprintf_c_l            0044eb20 f   LIBCMTD:vswprnc.obj
 0001:0004db70       __vswprintf_s_l            0044eb70 f   LIBCMTD:vswprnc.obj
 0001:0004dde0       _vswprintf_s               0044ede0 f   LIBCMTD:vswprnc.obj
 0001:0004de10       __vsnwprintf_s_l           0044ee10 f   LIBCMTD:vswprnc.obj
 0001:0004e1c0       __vsnwprintf_s             0044f1c0 f   LIBCMTD:vswprnc.obj
 0001:0004e1f0       __vswprintf_p              0044f1f0 f   LIBCMTD:vswprnc.obj
 0001:0004e240       __vswprintf_p_l            0044f240 f   LIBCMTD:vswprnc.obj
 0001:0004e290       _strtol                    0044f290 f   LIBCMTD:strtol.obj
 0001:0004e7c0       __strtol_l                 0044f7c0 f   LIBCMTD:strtol.obj
 0001:0004e7f0       _strtoul                   0044f7f0 f   LIBCMTD:strtol.obj
 0001:0004e840       __strtoul_l                0044f840 f   LIBCMTD:strtol.obj
 0001:0004e870       __strtoi64                 0044f870 f   LIBCMTD:strtoq.obj
 0001:0004ede0       __strtoi64_l               0044fde0 f   LIBCMTD:strtoq.obj
 0001:0004ee10       __strtoui64                0044fe10 f   LIBCMTD:strtoq.obj
 0001:0004ee60       __strtoui64_l              0044fe60 f   LIBCMTD:strtoq.obj
 0001:0004ee90       _strnlen                   0044fe90 f   LIBCMTD:strlen_s.obj
 0001:0004eed0       __dosmaperr                0044fed0 f   LIBCMTD:dosmap.obj
 0001:0004ef00       __get_errno_from_oserr     0044ff00 f   LIBCMTD:dosmap.obj
 0001:0004ef80       __set_errno                0044ff80 f   LIBCMTD:dosmap.obj
 0001:0004efb0       __get_errno                0044ffb0 f   LIBCMTD:dosmap.obj
 0001:0004f030       __set_doserrno             00450030 f   LIBCMTD:dosmap.obj
 0001:0004f060       __get_doserrno             00450060 f   LIBCMTD:dosmap.obj
 0001:0004f0e0       __errno                    004500e0 f   LIBCMTD:dosmap.obj
 0001:0004f110       ___doserrno                00450110 f   LIBCMTD:dosmap.obj
 0001:0004f140       __mbsnbicoll_l             00450140 f   LIBCMTD:mbsnbico.obj
 0001:0004f380       __mbsnbicoll               00450380 f   LIBCMTD:mbsnbico.obj
 0001:0004f3a0       ___wtomb_environ           004503a0 f   LIBCMTD:wtombenv.obj
 0001:0004f490       _strcpy_s                  00450490 f   LIBCMTD:strcpy_s.obj
 0001:0004f770       __flsbuf                   00450770 f   LIBCMTD:_flsbuf.obj
 0001:0004fa30       __output_l                 00450a30 f   LIBCMTD:output.obj
 0001:00050e70       _get_int_arg               00451e70 f i LIBCMTD:output.obj
 0001:00050e90       _get_int64_arg             00451e90 f i LIBCMTD:output.obj
 0001:00050eb0       _get_short_arg             00451eb0 f i LIBCMTD:output.obj
 0001:00050ed0       __vsnprintf_l              00451ed0 f   LIBCMTD:vsnprint.obj
 0001:00051090       _vsnprintf                 00452090 f   LIBCMTD:vsnprint.obj
 0001:00051090       __vsnprintf                00452090 f   LIBCMTD:vsnprint.obj
 0001:000510c0       __commit                   004520c0 f   LIBCMTD:commit.obj
 0001:000512e0       __fileno                   004522e0 f   LIBCMTD:fileno.obj
 0001:00051360       __write                    00452360 f   LIBCMTD:write.obj
 0001:00051590       __write_nolock             00452590 f   LIBCMTD:write.obj
 0001:000520d0       __stbuf                    004530d0 f   LIBCMTD:_sftbuf.obj
 0001:00052230       __ftbuf                    00453230 f   LIBCMTD:_sftbuf.obj
 0001:000522c0       _vfprintf_helper           004532c0 f   LIBCMTD:vfprintf.obj
 0001:00052560       __vfprintf_l               00453560 f   LIBCMTD:vfprintf.obj
 0001:00052590       __vfprintf_s_l             00453590 f   LIBCMTD:vfprintf.obj
 0001:000525c0       __vfprintf_p_l             004535c0 f   LIBCMTD:vfprintf.obj
 0001:000525f0       _vfprintf                  004535f0 f   LIBCMTD:vfprintf.obj
 0001:00052620       _vfprintf_s                00453620 f   LIBCMTD:vfprintf.obj
 0001:00052650       __vfprintf_p               00453650 f   LIBCMTD:vfprintf.obj
 0001:00052680       __fcloseall                00453680 f   LIBCMTD:closeall.obj
 0001:000527b0       __CrtDefaultAllocHook      004537b0 f   LIBCMTD:dbghook.obj
 0001:000527c0       __crt_debugger_hook        004537c0 f   LIBCMTD:dbghook.obj
 0001:000527e0       __CrtDbgBreak              004537e0 f   LIBCMTD:dbgrptt.obj
 0001:000527f0       __CrtSetReportMode         004537f0 f   LIBCMTD:dbgrptt.obj
 0001:00052930       __CrtSetReportFile         00453930 f   LIBCMTD:dbgrptt.obj
 0001:00052a30       __CrtSetReportHook         00453a30 f   LIBCMTD:dbgrptt.obj
 0001:00052a50       __CrtGetReportHook         00453a50 f   LIBCMTD:dbgrptt.obj
 0001:00052a60       __VCrtDbgReportA           00453a60 f   LIBCMTD:dbgrptt.obj
 0001:00053290       __VCrtDbgReportW           00454290 f   LIBCMTD:dbgrptt.obj
 0001:00053bc0       __swprintf                 00454bc0 f   LIBCMTD:swprintf.obj
 0001:00053dc0       ___swprintf_l              00454dc0 f   LIBCMTD:swprintf.obj
 0001:00053df0       _swprintf_s                00454df0 f   LIBCMTD:swprintf.obj
 0001:00053e20       __snwprintf_s              00454e20 f   LIBCMTD:swprintf.obj
 0001:00053e50       __swprintf_p               00454e50 f   LIBCMTD:swprintf.obj
 0001:00053e80       __swprintf_s_l             00454e80 f   LIBCMTD:swprintf.obj
 0001:00053eb0       __snwprintf_s_l            00454eb0 f   LIBCMTD:swprintf.obj
 0001:00053ee0       __swprintf_p_l             00454ee0 f   LIBCMTD:swprintf.obj
 0001:00053f10       __scwprintf                00454f10 f   LIBCMTD:swprintf.obj
 0001:00053f30       __scwprintf_p              00454f30 f   LIBCMTD:swprintf.obj
 0001:00053f50       __scwprintf_l              00454f50 f   LIBCMTD:swprintf.obj
 0001:00053f80       __scwprintf_p_l            00454f80 f   LIBCMTD:swprintf.obj
 0001:00053fb0       _memcpy_s                  00454fb0 f   LIBCMTD:memcpy_s.obj
 0001:00054140       __alloca_probe             00455140     LIBCMTD:chkstk.obj
 0001:00054140       __chkstk                   00455140 f   LIBCMTD:chkstk.obj
 0001:00054170       __VEC_memzero              00455170 f   LIBCMTD:p4_memset.obj
 0001:00054230       ?_ValidateRead@@YAHPBXI@Z  00455230 f   LIBCMTD:validate.obj
 0001:00054260       ?_ValidateWrite@@YAHPAXI@Z 00455260 f   LIBCMTD:validate.obj
 0001:00054290       ?_ValidateExecute@@YAHP6GHXZ@Z 00455290 f   LIBCMTD:validate.obj
 0001:000542c0       __global_unwind2           004552c0 f   LIBCMTD:exsup.obj
 0001:00054325       __local_unwind2            00455325 f   LIBCMTD:exsup.obj
 0001:000543a9       __abnormal_termination     004553a9 f   LIBCMTD:exsup.obj
 0001:000543cc       __NLG_Notify1              004553cc f   LIBCMTD:exsup.obj
 0001:000543d5       __NLG_Notify               004553d5 f   LIBCMTD:exsup.obj
 0001:000543ec       __NLG_Dispatch             004553ec     LIBCMTD:exsup.obj
 0001:000543ec       __NLG_Dispatch2            004553ec     LIBCMTD:exsup.obj
 0001:000543f4       __NLG_Call                 004553f4 f   LIBCMTD:exsup.obj
 0001:000543f6       __NLG_Return2              004553f6     LIBCMTD:exsup.obj
 0001:00054400       ___addlocaleref            00455400 f   LIBCMTD:localref.obj
 0001:00054520       ___removelocaleref         00455520 f   LIBCMTD:localref.obj
 0001:00054650       ___freetlocinfo            00455650 f   LIBCMTD:localref.obj
 0001:00054930       __updatetlocinfoEx_nolock  00455930 f   LIBCMTD:localref.obj
 0001:000549b0       ___updatetlocinfo          004559b0 f   LIBCMTD:localref.obj
 0001:00054a80       ___updatetmbcinfo          00455a80 f   LIBCMTD:mbctype.obj
 0001:00054b90       __setmbcp                  00455b90 f   LIBCMTD:mbctype.obj
 0001:00054f40       __setmbcp_nolock           00455f40 f   LIBCMTD:mbctype.obj
 0001:00055730       __getmbcp                  00456730 f   LIBCMTD:mbctype.obj
 0001:000557a0       ___initmbctable            004567a0 f   LIBCMTD:mbctype.obj
 0001:000557d0       ?_RTC_GetSrcLine@@YAHPAEPA_WKPAH1K@Z 004567d0 f   LIBCMTD:_pdblkup_.obj
 0001:00055c80       __CrtSetReportHook2        00456c80 f   LIBCMTD:dbgrpt.obj
 0001:00055fb0       __CrtDbgReport             00456fb0 f   LIBCMTD:dbgrpt.obj
 0001:00055ff0       __CrtDbgReportV            00456ff0 f i LIBCMTD:dbgrpt.obj
 0001:00056020       ___crtMessageWindowA       00457020 f   LIBCMTD:dbgrpt.obj
 0001:00056420       ___unDName                 00457420 f   LIBCMTD:undname.obj
 0001:00056500       ?Constructor@_HeapManager@@QAEXP6APAXI@ZP6AXPAX@Z@Z 00457500 f i LIBCMTD:undname.obj
 0001:00056540       ?Destructor@_HeapManager@@QAEXXZ 00457540 f i LIBCMTD:undname.obj
 0001:00056590       ___unDNameEx               00457590 f   LIBCMTD:undname.obj
 0001:00056670       ??0UnDecorator@@QAE@PADPBDHP6APADJ@ZK@Z 00457670 f i LIBCMTD:undname.obj
 0001:00056710       ??BUnDecorator@@QAEPADXZ   00457710 f i LIBCMTD:undname.obj
 0001:00056940       ?dbGetString@DName@@QBEPADXZ 00457940 f   LIBCMTD:undname.obj
 0001:00056970       ?getDecoratedName@UnDecorator@@CA?AVDName@@XZ 00457970 f   LIBCMTD:undname.obj
 0001:00056c80       ?getSymbolName@UnDecorator@@CA?AVDName@@XZ 00457c80 f i LIBCMTD:undname.obj
 0001:00056d00       ?getZName@UnDecorator@@CA?AVDName@@_N0@Z 00457d00 f   LIBCMTD:undname.obj
 0001:00056fa0       ?getOperatorName@UnDecorator@@CA?AVDName@@_NPA_N@Z 00457fa0 f i LIBCMTD:undname.obj
 0001:00057910       ?getStringEncoding@UnDecorator@@CA?AVDName@@PADH@Z 00458910 f   LIBCMTD:undname.obj
 0001:00057a10       ?getScope@UnDecorator@@CA?AVDName@@XZ 00458a10 f   LIBCMTD:undname.obj
 0001:00057df0       ?getSignedDimension@UnDecorator@@CA?AVDName@@XZ 00458df0 f   LIBCMTD:undname.obj
 0001:00057e70       ?getDimension@UnDecorator@@CA?AVDName@@_N@Z 00458e70 f   LIBCMTD:undname.obj
 0001:00058120       ?getNumberOfDimensions@UnDecorator@@CAHXZ 00459120 f   LIBCMTD:undname.obj
 0001:00058220       ?getTemplateName@UnDecorator@@CA?AVDName@@_N@Z 00459220 f   LIBCMTD:undname.obj
 0001:000583e0       ?getTemplateArgumentList@UnDecorator@@CA?AVDName@@XZ 004593e0 f   LIBCMTD:undname.obj
 0001:00058660       ?getTemplateConstant@UnDecorator@@CA?AVDName@@XZ 00459660 f   LIBCMTD:undname.obj
 0001:00058af0       ?composeDeclaration@UnDecorator@@CA?AVDName@@ABV2@@Z 00459af0 f i LIBCMTD:undname.obj
 0001:0005a0f0       ?getTypeEncoding@UnDecorator@@CAHXZ 0045b0f0 f i LIBCMTD:undname.obj
 0001:0005ab30       ?getBasedType@UnDecorator@@CA?AVDName@@XZ 0045bb30 f   LIBCMTD:undname.obj
 0001:0005abf0       ?getScopedName@UnDecorator@@CA?AVDName@@XZ 0045bbf0 f   LIBCMTD:undname.obj
 0001:0005ad10       ?getCallingConvention@UnDecorator@@CA?AVDName@@XZ 0045bd10 f   LIBCMTD:undname.obj
 0001:0005ae90       ?getReturnType@UnDecorator@@CA?AVDName@@PAV2@@Z 0045be90 f   LIBCMTD:undname.obj
 0001:0005aee0       ?getDataType@UnDecorator@@CA?AVDName@@PAV2@@Z 0045bee0 f   LIBCMTD:undname.obj
 0001:0005b000       ?getPrimaryDataType@UnDecorator@@CA?AVDName@@ABV2@@Z 0045c000 f   LIBCMTD:undname.obj
 0001:0005b3a0       ?getArgumentTypes@UnDecorator@@CA?AVDName@@XZ 0045c3a0 f   LIBCMTD:undname.obj
 0001:0005b500       ?getArgumentList@UnDecorator@@CA?AVDName@@XZ 0045c500 f   LIBCMTD:undname.obj
 0001:0005b650       ?getThrowTypes@UnDecorator@@CA?AVDName@@XZ 0045c650 f   LIBCMTD:undname.obj
 0001:0005b700       ?getBasicDataType@UnDecorator@@CA?AVDName@@ABV2@@Z 0045c700 f   LIBCMTD:undname.obj
 0001:0005bcc0       ?getECSUDataType@UnDecorator@@CA?AVDName@@XZ 0045ccc0 f   LIBCMTD:undname.obj
 0001:0005be90       ?getECSUName@UnDecorator@@CA?AVDName@@XZ 0045ce90 f i LIBCMTD:undname.obj
 0001:0005beb0       ?getEnumType@UnDecorator@@CA?AVDName@@XZ 0045ceb0 f i LIBCMTD:undname.obj
 0001:0005c000       ?getFunctionIndirectType@UnDecorator@@CA?AVDName@@ABV2@@Z 0045d000 f   LIBCMTD:undname.obj
 0001:0005c440       ?getPtrRefType@UnDecorator@@CA?AVDName@@ABV2@0PBD@Z 0045d440 f   LIBCMTD:undname.obj
 0001:0005c5a0       ?getExtendedDataIndirectType@UnDecorator@@CA?AVDName@@AAPBDAA_NH@Z 0045d5a0 f   LIBCMTD:undname.obj
 0001:0005c7c0       ?getDataIndirectType@UnDecorator@@CA?AVDName@@ABV2@PBD0H@Z 0045d7c0 f   LIBCMTD:undname.obj
 0001:0005cec0       ?getPtrRefDataType@UnDecorator@@CA?AVDName@@ABV2@H@Z 0045dec0 f i LIBCMTD:undname.obj
 0001:0005d000       ?getArrayType@UnDecorator@@CA?AVDName@@ABV2@@Z 0045e000 f i LIBCMTD:undname.obj
 0001:0005d230       ?getLexicalFrame@UnDecorator@@CA?AVDName@@XZ 0045e230 f i LIBCMTD:undname.obj
 0001:0005d270       ?getThisType@UnDecorator@@CA?AVDName@@XZ 0045e270 f i LIBCMTD:undname.obj
 0001:0005d2b0       ?getPointerType@UnDecorator@@CA?AVDName@@ABV2@0@Z 0045e2b0 f i LIBCMTD:undname.obj
 0001:0005d2e0       ?getPointerTypeArray@UnDecorator@@CA?AVDName@@ABV2@0@Z 0045e2e0 f i LIBCMTD:undname.obj
 0001:0005d310       ?getReferenceType@UnDecorator@@CA?AVDName@@ABV2@0PBD@Z 0045e310 f i LIBCMTD:undname.obj
 0001:0005d340       ?getDisplacement@UnDecorator@@CA?AVDName@@XZ 0045e340 f i LIBCMTD:undname.obj
 0001:0005d360       ?getCallIndex@UnDecorator@@CA?AVDName@@XZ 0045e360 f i LIBCMTD:undname.obj
 0001:0005d380       ?getGuardNumber@UnDecorator@@CA?AVDName@@XZ 0045e380 f i LIBCMTD:undname.obj
 0001:0005d3a0       ?getVbTableType@UnDecorator@@CA?AVDName@@ABV2@@Z 0045e3a0 f i LIBCMTD:undname.obj
 0001:0005d3c0       ?getVCallThunkType@UnDecorator@@CA?AVDName@@XZ 0045e3c0 f i LIBCMTD:undname.obj
 0001:0005d420       ?getVfTableType@UnDecorator@@CA?AVDName@@ABV2@@Z 0045e420 f i LIBCMTD:undname.obj
 0001:0005d5e0       ?getStorageConvention@UnDecorator@@CA?AVDName@@XZ 0045e5e0 f i LIBCMTD:undname.obj
 0001:0005d600       ?getDataIndirectType@UnDecorator@@CA?AVDName@@XZ 0045e600 f i LIBCMTD:undname.obj
 0001:0005d640       ?getVdispMapType@UnDecorator@@CA?AVDName@@ABV2@@Z 0045e640 f i LIBCMTD:undname.obj
 0001:0005d6b0       ?getExternalDataType@UnDecorator@@CA?AVDName@@ABV2@@Z 0045e6b0 f i LIBCMTD:undname.obj
 0001:0005d740       ?doMSKeywords@UnDecorator@@SAHXZ 0045e740 f i LIBCMTD:undname.obj
 0001:0005d760       ?doPtr64@UnDecorator@@SAHXZ 0045e760 f i LIBCMTD:undname.obj
 0001:0005d780       ?doFunctionReturns@UnDecorator@@SAHXZ 0045e780 f i LIBCMTD:undname.obj
 0001:0005d7a0       ?doAllocationModel@UnDecorator@@SAHXZ 0045e7a0 f i LIBCMTD:undname.obj
 0001:0005d7c0       ?doAllocationLanguage@UnDecorator@@SAHXZ 0045e7c0 f i LIBCMTD:undname.obj
 0001:0005d7e0       ?doThisTypes@UnDecorator@@SAHXZ 0045e7e0 f i LIBCMTD:undname.obj
 0001:0005d800       ?doAccessSpecifiers@UnDecorator@@SAHXZ 0045e800 f i LIBCMTD:undname.obj
 0001:0005d820       ?doThrowTypes@UnDecorator@@SAHXZ 0045e820 f i LIBCMTD:undname.obj
 0001:0005d840       ?doMemberTypes@UnDecorator@@SAHXZ 0045e840 f i LIBCMTD:undname.obj
 0001:0005d860       ?doNameOnly@UnDecorator@@SAHXZ 0045e860 f i LIBCMTD:undname.obj
 0001:0005d880       ?doTypeOnly@UnDecorator@@SAHXZ 0045e880 f i LIBCMTD:undname.obj
 0001:0005d8a0       ?haveTemplateParameters@UnDecorator@@SAHXZ 0045e8a0 f i LIBCMTD:undname.obj
 0001:0005d8c0       ?doEcsu@UnDecorator@@SAHXZ 0045e8c0 f i LIBCMTD:undname.obj
 0001:0005d8e0       ?doEllipsis@UnDecorator@@SAHXZ 0045e8e0 f i LIBCMTD:undname.obj
 0001:0005d900       ?UScore@UnDecorator@@SAPBDW4Tokens@@@Z 0045e900 f   LIBCMTD:undname.obj
 0001:0005d930       ?doUnderScore@UnDecorator@@SAHXZ 0045e930 f i LIBCMTD:undname.obj
 0001:0005d950       ??2@YAPAXIAAV_HeapManager@@H@Z 0045e950 f i LIBCMTD:undname.obj
 0001:0005d970       ?getMemory@_HeapManager@@QAEPAXIH@Z 0045e970 f   LIBCMTD:undname.obj
 0001:0005da80       ??0Block@_HeapManager@@QAE@XZ 0045ea80 f i LIBCMTD:undname.obj
 0001:0005daa0       ??H@YA?AVDName@@DABV0@@Z   0045eaa0 f i LIBCMTD:undname.obj
 0001:0005dad0       ??H@YA?AVDName@@W4DNameStatus@@ABV0@@Z 0045ead0 f i LIBCMTD:undname.obj
 0001:0005db00       ??H@YA?AVDName@@PBDABV0@@Z 0045eb00 f i LIBCMTD:undname.obj
 0001:0005db30       ??0DName@@QAE@XZ           0045eb30 f i LIBCMTD:undname.obj
 0001:0005dbf0       ??0DName@@QAE@D@Z          0045ebf0 f   LIBCMTD:undname.obj
 0001:0005dcd0       ??0DName@@QAE@ABV0@@Z      0045ecd0 f i LIBCMTD:undname.obj
 0001:0005dd00       ??0DName@@QAE@PAV0@@Z      0045ed00 f   LIBCMTD:undname.obj
 0001:0005de30       ??0DName@@QAE@PBD@Z        0045ee30 f   LIBCMTD:undname.obj
 0001:0005df20       ??0DName@@QAE@AAPBDD@Z     0045ef20 f   LIBCMTD:undname.obj
 0001:0005e1e0       ?doNoIdentCharCheck@UnDecorator@@SAHXZ 0045f1e0 f i LIBCMTD:undname.obj
 0001:0005e200       ??0DName@@QAE@_K@Z         0045f200 f   LIBCMTD:undname.obj
 0001:0005e340       ??0DName@@QAE@_J@Z         0045f340 f   LIBCMTD:undname.obj
 0001:0005e4c0       ??0DName@@QAE@W4DNameStatus@@@Z 0045f4c0 f   LIBCMTD:undname.obj
 0001:0005e5e0       ?isValid@DName@@QBEHXZ     0045f5e0 f i LIBCMTD:undname.obj
 0001:0005e610       ?isEmpty@DName@@QBEHXZ     0045f610 f i LIBCMTD:undname.obj
 0001:0005e630       ?status@DName@@QBE?AW4DNameStatus@@XZ 0045f630 f i LIBCMTD:undname.obj
 0001:0005e650       ?setPtrRef@DName@@QAEAAV1@XZ 0045f650 f i LIBCMTD:undname.obj
 0001:0005e680       ?isPtrRef@DName@@QBEHXZ    0045f680 f i LIBCMTD:undname.obj
 0001:0005e6a0       ?isUDC@DName@@QBEHXZ       0045f6a0 f i LIBCMTD:undname.obj
 0001:0005e6e0       ?setIsUDC@DName@@QAEXXZ    0045f6e0 f i LIBCMTD:undname.obj
 0001:0005e710       ?isUDTThunk@DName@@QBEHXZ  0045f710 f i LIBCMTD:undname.obj
 0001:0005e750       ?setIsArray@DName@@QAEXXZ  0045f750 f i LIBCMTD:undname.obj
 0001:0005e770       ?isArray@DName@@QBEHXZ     0045f770 f i LIBCMTD:undname.obj
 0001:0005e790       ?isNoTE@DName@@QBEHXZ      0045f790 f i LIBCMTD:undname.obj
 0001:0005e7b0       ?setIsNoTE@DName@@QAEXXZ   0045f7b0 f i LIBCMTD:undname.obj
 0001:0005e7d0       ?isPinPtr@DName@@QBEHXZ    0045f7d0 f i LIBCMTD:undname.obj
 0001:0005e7f0       ?setIsPinPtr@DName@@QAEXXZ 0045f7f0 f i LIBCMTD:undname.obj
 0001:0005e810       ?isComArray@DName@@QBEHXZ  0045f810 f i LIBCMTD:undname.obj
 0001:0005e830       ?setIsComArray@DName@@QAEXXZ 0045f830 f i LIBCMTD:undname.obj
 0001:0005e850       ?isVCallThunk@DName@@QBEHXZ 0045f850 f i LIBCMTD:undname.obj
 0001:0005e870       ?setIsVCallThunk@DName@@QAEXXZ 0045f870 f i LIBCMTD:undname.obj
 0001:0005e890       ?length@DName@@QBEHXZ      0045f890 f i LIBCMTD:undname.obj
 0001:0005e8c0       ?getLastChar@DName@@QBEDXZ 0045f8c0 f i LIBCMTD:undname.obj
 0001:0005e8f0       ?getString@DName@@QBEPADPADH@Z 0045f8f0 f i LIBCMTD:undname.obj
 0001:0005e980       ?getString@DName@@QBEPADPAD0@Z 0045f980 f i LIBCMTD:undname.obj
 0001:0005e9c0       ??HDName@@QBE?AV0@D@Z      0045f9c0 f   LIBCMTD:undname.obj
 0001:0005ea00       ??HDName@@QBE?AV0@PBD@Z    0045fa00 f   LIBCMTD:undname.obj
 0001:0005ea40       ??HDName@@QBE?AV0@ABV0@@Z  0045fa40 f   LIBCMTD:undname.obj
 0001:0005ea80       ??HDName@@QBE?AV0@PAV0@@Z  0045fa80 f   LIBCMTD:undname.obj
 0001:0005eac0       ??HDName@@QBE?AV0@W4DNameStatus@@@Z 0045fac0 f   LIBCMTD:undname.obj
 0001:0005eb00       ?append@DName@@AAEXPAVDNameNode@@@Z 0045fb00 f   LIBCMTD:undname.obj
 0001:0005eb90       ??YDName@@QAEAAV0@D@Z      0045fb90 f   LIBCMTD:undname.obj
 0001:0005ec20       ??YDName@@QAEAAV0@PBD@Z    0045fc20 f   LIBCMTD:undname.obj
 0001:0005ecc0       ??YDName@@QAEAAV0@ABV0@@Z  0045fcc0 f   LIBCMTD:undname.obj
 0001:0005ed30       ??YDName@@QAEAAV0@PAV0@@Z  0045fd30 f   LIBCMTD:undname.obj
 0001:0005edf0       ??YDName@@QAEAAV0@W4DNameStatus@@@Z 0045fdf0 f   LIBCMTD:undname.obj
 0001:0005ee60       ??_5DName@@QAEAAV0@ABV0@@Z 0045fe60 f   LIBCMTD:undname.obj
 0001:0005eec0       ??4DName@@QAEAAV0@D@Z      0045fec0 f i LIBCMTD:undname.obj
 0001:0005efa0       ??4DName@@QAEAAV0@PBD@Z    0045ffa0 f   LIBCMTD:undname.obj
 0001:0005f080       ??4DName@@QAEAAV0@ABV0@@Z  00460080 f   LIBCMTD:undname.obj
 0001:0005f0b0       ??4DName@@QAEAAV0@PAV0@@Z  004600b0 f   LIBCMTD:undname.obj
 0001:0005f1f0       ??4DName@@QAEAAV0@W4DNameStatus@@@Z 004601f0 f   LIBCMTD:undname.obj
 0001:0005f2f0       ?doPchar@DName@@AAEXPBDH@Z 004602f0 f   LIBCMTD:undname.obj
 0001:0005f430       ?isFull@Replicator@@QBEHXZ 00460430 f i LIBCMTD:undname.obj
 0001:0005f450       ??0Replicator@@QAE@XZ      00460450 f i LIBCMTD:undname.obj
 0001:0005f470       ??YReplicator@@QAEAAV0@ABVDName@@@Z 00460470 f   LIBCMTD:undname.obj
 0001:0005f500       ??AReplicator@@QBE?AVDName@@H@Z 00460500 f   LIBCMTD:undname.obj
 0001:0005f570       ??0DNameNode@@IAE@XZ       00460570 f   LIBCMTD:undname.obj
 0001:0005f590       ??0charNode@@QAE@D@Z       00460590 f   LIBCMTD:undname.obj
 0001:0005f5c0       ?length@charNode@@UBEHXZ   004605c0 f i LIBCMTD:undname.obj
 0001:0005f5e0       ?getLastChar@charNode@@UBEDXZ 004605e0 f i LIBCMTD:undname.obj
 0001:0005f600       ?getString@charNode@@UBEPADPAD0@Z 00460600 f i LIBCMTD:undname.obj
 0001:0005f630       ??0pcharNode@@QAE@PBDH@Z   00460630 f   LIBCMTD:undname.obj
 0001:0005f6c0       ?length@pcharNode@@UBEHXZ  004606c0 f i LIBCMTD:undname.obj
 0001:0005f6e0       ?getLastChar@pcharNode@@UBEDXZ 004606e0 f i LIBCMTD:undname.obj
 0001:0005f720       ?getString@pcharNode@@UBEPADPAD0@Z 00460720 f i LIBCMTD:undname.obj
 0001:0005f750       ?getStringHelper@@YAPADPAD00H@Z 00460750 f i LIBCMTD:undname.obj
 0001:0005f790       ??0pDNameNode@@QAE@PAVDName@@@Z 00460790 f   LIBCMTD:undname.obj
 0001:0005f7f0       ?length@pDNameNode@@UBEHXZ 004607f0 f i LIBCMTD:undname.obj
 0001:0005f830       ?getLastChar@pDNameNode@@UBEDXZ 00460830 f i LIBCMTD:undname.obj
 0001:0005f860       ?getString@pDNameNode@@UBEPADPAD0@Z 00460860 f i LIBCMTD:undname.obj
 0001:0005f8a0       ??0DNameStatusNode@@AAE@W4DNameStatus@@@Z 004608a0 f   LIBCMTD:undname.obj
 0001:0005f8f0       ?length@DNameStatusNode@@UBEHXZ 004608f0 f i LIBCMTD:undname.obj
 0001:0005f910       ?getLastChar@DNameStatusNode@@UBEDXZ 00460910 f i LIBCMTD:undname.obj
 0001:0005f930       ?getString@DNameStatusNode@@UBEPADPAD0@Z 00460930 f i LIBCMTD:undname.obj
 0001:0005f970       ?make@DNameStatusNode@@SAPAV1@W4DNameStatus@@@Z 00460970 f i LIBCMTD:undname.obj
 0001:0005fa20       ??0pairNode@@QAE@PAVDNameNode@@0@Z 00460a20 f   LIBCMTD:undname.obj
 0001:0005fa60       ?length@pairNode@@UBEHXZ   00460a60 f i LIBCMTD:undname.obj
 0001:0005fab0       ?getLastChar@pairNode@@UBEDXZ 00460ab0 f i LIBCMTD:undname.obj
 0001:0005fb00       ?getString@pairNode@@UBEPADPAD0@Z 00460b00 f i LIBCMTD:undname.obj
 0001:0005fc40       __malloc_base              00460c40 f   LIBCMTD:malloc.obj
 0001:0005fcd0       __heap_alloc_base          00460cd0 f i LIBCMTD:malloc.obj
 0001:0005fd30       __free_base                00460d30 f   LIBCMTD:free.obj
 0001:0005fd80       __local_unwind4            00460d80 f   LIBCMTD:exsup4.obj
 0001:0005fe56       __seh_longjmp_unwind4@4    00460e56 f   LIBCMTD:exsup4.obj
 0001:0005fe72       @_EH4_CallFilterFunc@8     00460e72 f   LIBCMTD:exsup4.obj
 0001:0005fe89       @_EH4_TransferToHandler@8  00460e89 f   LIBCMTD:exsup4.obj
 0001:0005fea2       @_EH4_GlobalUnwind2@8      00460ea2 f   LIBCMTD:exsup4.obj
 0001:0005febb       @_EH4_LocalUnwind@16       00460ebb f   LIBCMTD:exsup4.obj
 0001:0005fee0       __expand_base              00460ee0 f   LIBCMTD:expand.obj
 0001:00060040       __realloc_base             00461040 f   LIBCMTD:realloc.obj
 0001:00060140       __heapchk                  00461140 f   LIBCMTD:heapchk.obj
 0001:00060170       __heapset                  00461170 f   LIBCMTD:heapchk.obj
 0001:00060180       _sprintf                   00461180 f   LIBCMTD:sprintf.obj
 0001:00060320       __sprintf_l                00461320 f   LIBCMTD:sprintf.obj
 0001:00060350       _sprintf_s                 00461350 f   LIBCMTD:sprintf.obj
 0001:00060380       __sprintf_s_l              00461380 f   LIBCMTD:sprintf.obj
 0001:000603b0       __snprintf_s               004613b0 f   LIBCMTD:sprintf.obj
 0001:000603e0       __snprintf_s_l             004613e0 f   LIBCMTD:sprintf.obj
 0001:00060410       __sprintf_p                00461410 f   LIBCMTD:sprintf.obj
 0001:00060440       __sprintf_p_l              00461440 f   LIBCMTD:sprintf.obj
 0001:00060470       __scprintf                 00461470 f   LIBCMTD:sprintf.obj
 0001:00060490       __scprintf_p               00461490 f   LIBCMTD:sprintf.obj
 0001:000604b0       __scprintf_l               004614b0 f   LIBCMTD:sprintf.obj
 0001:000604e0       __scprintf_p_l             004614e0 f   LIBCMTD:sprintf.obj
 0001:00060510       __chvalidator              00461510 f   LIBCMTD:isctype.obj
 0001:00060560       __chvalidator_l            00461560 f   LIBCMTD:isctype.obj
 0001:00060610       __isctype_l                00461610 f   LIBCMTD:isctype.obj
 0001:00060730       __isctype                  00461730 f   LIBCMTD:isctype.obj
 0001:00060770       __ValidateImageBase        00461770 f   LIBCMTD:pesect.obj
 0001:000607d0       __FindPESection            004617d0 f   LIBCMTD:pesect.obj
 0001:00060850       __IsNonwritableInCurrentImage 00461850 f   LIBCMTD:pesect.obj
 0001:00060970       __initp_misc_cfltcvt_tab   00461970 f   LIBCMTD:cmiscdat.obj
 0001:000609b0       __initp_misc_rand_s        004619b0 f   LIBCMTD:rand_s.obj
 0001:000609c0       _rand_s                    004619c0 f   LIBCMTD:rand_s.obj
 0001:00060be0       __ismbbkalnum_l            00461be0 f   LIBCMTD:ismbbyte.obj
 0001:00060c00       __ismbbkalnum              00461c00 f   LIBCMTD:ismbbyte.obj
 0001:00060c20       __ismbbkprint_l            00461c20 f   LIBCMTD:ismbbyte.obj
 0001:00060c40       __ismbbkprint              00461c40 f   LIBCMTD:ismbbyte.obj
 0001:00060c60       __ismbbkpunct_l            00461c60 f   LIBCMTD:ismbbyte.obj
 0001:00060c80       __ismbbkpunct              00461c80 f   LIBCMTD:ismbbyte.obj
 0001:00060ca0       __ismbbalnum_l             00461ca0 f   LIBCMTD:ismbbyte.obj
 0001:00060cc0       __ismbbalnum               00461cc0 f   LIBCMTD:ismbbyte.obj
 0001:00060ce0       __ismbbalpha_l             00461ce0 f   LIBCMTD:ismbbyte.obj
 0001:00060d00       __ismbbalpha               00461d00 f   LIBCMTD:ismbbyte.obj
 0001:00060d20       __ismbbgraph_l             00461d20 f   LIBCMTD:ismbbyte.obj
 0001:00060d40       __ismbbgraph               00461d40 f   LIBCMTD:ismbbyte.obj
 0001:00060d60       __ismbbprint_l             00461d60 f   LIBCMTD:ismbbyte.obj
 0001:00060d80       __ismbbprint               00461d80 f   LIBCMTD:ismbbyte.obj
 0001:00060da0       __ismbbpunct_l             00461da0 f   LIBCMTD:ismbbyte.obj
 0001:00060dc0       __ismbbpunct               00461dc0 f   LIBCMTD:ismbbyte.obj
 0001:00060de0       __ismbblead_l              00461de0 f   LIBCMTD:ismbbyte.obj
 0001:00060e00       __ismbblead                00461e00 f   LIBCMTD:ismbbyte.obj
 0001:00060e20       __ismbbtrail_l             00461e20 f   LIBCMTD:ismbbyte.obj
 0001:00060e40       __ismbbtrail               00461e40 f   LIBCMTD:ismbbyte.obj
 0001:00060e60       __ismbbkana_l              00461e60 f   LIBCMTD:ismbbyte.obj
 0001:00060ed0       __ismbbkana                00461ed0 f   LIBCMTD:ismbbyte.obj
 0001:00060fc0       _strncpy_s                 00461fc0 f   LIBCMTD:strncpy_s.obj
 0001:000613b0       ___crtGetLocaleInfoA       004623b0 f   LIBCMTD:a_loc.obj
 0001:00061510       __MarkAllocaS              00462510 f i LIBCMTD:a_loc.obj
 0001:00061540       __freea                    00462540 f i LIBCMTD:a_loc.obj
 0001:000615b0       __woutput_l                004625b0 f   LIBCMTD:woutput.obj
 0001:00062780       _vfwprintf_helper          00463780 f   LIBCMTD:vfwprint.obj
 0001:00062900       __vfwprintf_l              00463900 f   LIBCMTD:vfwprint.obj
 0001:00062930       __vfwprintf_s_l            00463930 f   LIBCMTD:vfwprint.obj
 0001:00062960       __vfwprintf_p_l            00463960 f   LIBCMTD:vfwprint.obj
 0001:00062990       _vfwprintf                 00463990 f   LIBCMTD:vfwprint.obj
 0001:000629c0       _vfwprintf_s               004639c0 f   LIBCMTD:vfwprint.obj
 0001:000629f0       __vfwprintf_p              004639f0 f   LIBCMTD:vfwprint.obj
 0001:00062a20       __freebuf                  00463a20 f   LIBCMTD:_freebuf.obj
 0001:00062ab0       __woutput_s_l              00463ab0 f   LIBCMTD:woutputs.obj
 0001:00063dd0       __validate_param_reuseW    00464dd0 f   LIBCMTD:woutputp.obj
 0001:00064040       __woutput_p_l              00465040 f   LIBCMTD:woutputp.obj
 0001:00067790       ____setlc_active_func      00468790 f   LIBCMTD:setlocal.obj
 0001:000677a0       ____unguarded_readlc_active_add_func 004687a0 f   LIBCMTD:setlocal.obj
 0001:000677b0       __configthreadlocale       004687b0 f   LIBCMTD:setlocal.obj
 0001:000678c0       __locterm                  004688c0 f   LIBCMTD:setlocal.obj
 0001:00067960       __free_locale              00468960 f   LIBCMTD:setlocal.obj
 0001:00067aa0       ___free_locale             00468aa0 f   LIBCMTD:setlocal.obj
 0001:00067ac0       __create_locale            00468ac0 f   LIBCMTD:setlocal.obj
 0001:00067cf0       ___create_locale           00468cf0 f   LIBCMTD:setlocal.obj
 0001:00067d10       __get_current_locale       00468d10 f   LIBCMTD:setlocal.obj
 0001:00067e30       ___get_current_locale      00468e30 f   LIBCMTD:setlocal.obj
 0001:00067e40       _setlocale                 00468e40 f   LIBCMTD:setlocal.obj
 0001:00068cf0       __expandlocale             00469cf0 f   LIBCMTD:setlocal.obj
 0001:00068fa0       ___init_dummy              00469fa0 f   LIBCMTD:setlocal.obj
 0001:00068fb0       __strcats                  00469fb0 f   LIBCMTD:setlocal.obj
 0001:00069030       ___lc_strtolc              0046a030 f   LIBCMTD:setlocal.obj
 0001:00069230       ___lc_lctostr              0046a230 f   LIBCMTD:setlocal.obj
 0001:000692d0       ___crtCompareStringA       0046a2d0 f   LIBCMTD:a_cmp.obj
 0001:00069710       __strnicoll_l              0046a710 f   LIBCMTD:strnicol.obj
 0001:00069960       __strnicoll                0046a960 f   LIBCMTD:strnicol.obj
 0001:000699a0       ___crtsetenv               0046a9a0 f   LIBCMTD:setenv.obj
 0001:0006a020       __lseeki64                 0046b020 f   LIBCMTD:lseeki64.obj
 0001:0006a270       __lseeki64_nolock          0046b270 f   LIBCMTD:lseeki64.obj
 0001:0006a360       __getbuf                   0046b360 f   LIBCMTD:_getbuf.obj
 0001:0006a430       __isatty                   0046b430 f   LIBCMTD:isatty.obj
 0001:0006a4f0       _printf                    0046b4f0 f   LIBCMTD:printf.obj
 0001:0006a630       __printf_l                 0046b630 f   LIBCMTD:printf.obj
 0001:0006a660       __printf_s_l               0046b660 f   LIBCMTD:printf.obj
 0001:0006a690       _printf_s                  0046b690 f   LIBCMTD:printf.obj
 0001:0006a6c0       __printf_p_l               0046b6c0 f   LIBCMTD:printf.obj
 0001:0006a6f0       __printf_p                 0046b6f0 f   LIBCMTD:printf.obj
 0001:0006a720       __set_printf_count_output  0046b720 f   LIBCMTD:printf.obj
 0001:0006a770       __get_printf_count_output  0046b770 f   LIBCMTD:printf.obj
 0001:0006a790       __wctomb_s_l               0046b790 f   LIBCMTD:wctomb.obj
 0001:0006aa90       _wctomb_s                  0046ba90 f   LIBCMTD:wctomb.obj
 0001:0006aac0       __wctomb_l                 0046bac0 f   LIBCMTD:wctomb.obj
 0001:0006ab40       _wctomb                    0046bb40 f   LIBCMTD:wctomb.obj
 0001:0006ab90       __isleadbyte_l             0046bb90 f i LIBCMTD:_wctype.obj
 0001:0006abe0       _isleadbyte                0046bbe0 f i LIBCMTD:_wctype.obj
 0001:0006ac00       __iswalpha_l               0046bc00 f i LIBCMTD:_wctype.obj
 0001:0006ac20       _iswalpha                  0046bc20 f i LIBCMTD:_wctype.obj
 0001:0006ac40       __iswupper_l               0046bc40 f i LIBCMTD:_wctype.obj
 0001:0006ac60       _iswupper                  0046bc60 f i LIBCMTD:_wctype.obj
 0001:0006ac80       __iswlower_l               0046bc80 f i LIBCMTD:_wctype.obj
 0001:0006aca0       _iswlower                  0046bca0 f i LIBCMTD:_wctype.obj
 0001:0006acc0       __iswdigit_l               0046bcc0 f i LIBCMTD:_wctype.obj
 0001:0006ace0       _iswdigit                  0046bce0 f i LIBCMTD:_wctype.obj
 0001:0006ad00       __iswxdigit_l              0046bd00 f i LIBCMTD:_wctype.obj
 0001:0006ad20       _iswxdigit                 0046bd20 f i LIBCMTD:_wctype.obj
 0001:0006ad40       __iswspace_l               0046bd40 f i LIBCMTD:_wctype.obj
 0001:0006ad60       _iswspace                  0046bd60 f i LIBCMTD:_wctype.obj
 0001:0006ad80       __iswpunct_l               0046bd80 f i LIBCMTD:_wctype.obj
 0001:0006ada0       _iswpunct                  0046bda0 f i LIBCMTD:_wctype.obj
 0001:0006adc0       __iswalnum_l               0046bdc0 f i LIBCMTD:_wctype.obj
 0001:0006ade0       _iswalnum                  0046bde0 f i LIBCMTD:_wctype.obj
 0001:0006ae00       __iswprint_l               0046be00 f i LIBCMTD:_wctype.obj
 0001:0006ae20       _iswprint                  0046be20 f i LIBCMTD:_wctype.obj
 0001:0006ae40       __iswgraph_l               0046be40 f i LIBCMTD:_wctype.obj
 0001:0006ae60       _iswgraph                  0046be60 f i LIBCMTD:_wctype.obj
 0001:0006ae80       __iswcntrl_l               0046be80 f i LIBCMTD:_wctype.obj
 0001:0006aea0       _iswcntrl                  0046bea0 f i LIBCMTD:_wctype.obj
 0001:0006aec0       _iswascii                  0046bec0 f i LIBCMTD:_wctype.obj
 0001:0006aee0       __iswcsym_l                0046bee0 f i LIBCMTD:_wctype.obj
 0001:0006af20       ___iswcsym                 0046bf20 f i LIBCMTD:_wctype.obj
 0001:0006af60       __iswcsymf_l               0046bf60 f i LIBCMTD:_wctype.obj
 0001:0006afa0       ___iswcsymf                0046bfa0 f i LIBCMTD:_wctype.obj
 0001:0006b000       __alloc_osfhnd             0046c000 f   LIBCMTD:osfinfo.obj
 0001:0006b2b0       __set_osfhnd               0046c2b0 f   LIBCMTD:osfinfo.obj
 0001:0006b380       __free_osfhnd              0046c380 f   LIBCMTD:osfinfo.obj
 0001:0006b470       __get_osfhandle            0046c470 f   LIBCMTD:osfinfo.obj
 0001:0006b5e0       __open_osfhandle           0046c5e0 f   LIBCMTD:osfinfo.obj
 0001:0006b810       ___lock_fhandle            0046c810 f   LIBCMTD:osfinfo.obj
 0001:0006b910       __unlock_fhandle           0046c910 f   LIBCMTD:osfinfo.obj
 0001:0006b940       __putwch                   0046c940 f   LIBCMTD:putwch.obj
 0001:0006b9d0       __putwch_nolock            0046c9d0 f   LIBCMTD:putwch.obj
 0001:0006ba20       __mbtowc_l                 0046ca20 f   LIBCMTD:mbtowc.obj
 0001:0006bc40       _mbtowc                    0046cc40 f   LIBCMTD:mbtowc.obj
 0001:0006bc60       __output_s_l               0046cc60 f   LIBCMTD:outputs.obj
 0001:0006d1f0       __validate_param_reuseA    0046e1f0 f   LIBCMTD:outputp.obj
 0001:0006d480       __output_p_l               0046e480 f   LIBCMTD:outputp.obj
 0001:00071050       _get_crtdouble_arg         00472050 f i LIBCMTD:outputp.obj
 0001:00071070       _fclose                    00472070 f   LIBCMTD:fclose.obj
 0001:00071180       __fclose_nolock            00472180 f   LIBCMTD:fclose.obj
 0001:00071280       __mbstowcs_l_helper        00472280 f   LIBCMTD:mbstowcs.obj
 0001:000715d0       __mbstowcs_l               004725d0 f   LIBCMTD:mbstowcs.obj
 0001:000715f0       _mbstowcs                  004725f0 f   LIBCMTD:mbstowcs.obj
 0001:00071640       __mbstowcs_s_l             00472640 f   LIBCMTD:mbstowcs.obj
 0001:000719c0       _mbstowcs_s                004729c0 f   LIBCMTD:mbstowcs.obj
 0001:000719f0       _strcat_s                  004729f0 f   LIBCMTD:strcat_s.obj
 0001:00071dd0       __vsnprintf_helper         00472dd0 f   LIBCMTD:vsnprnc.obj
 0001:00071fc0       __vsnprintf_c              00472fc0 f   LIBCMTD:vsnprnc.obj
 0001:00072010       __vsnprintf_c_l            00473010 f   LIBCMTD:vsnprnc.obj
 0001:00072060       __vsprintf_s_l             00473060 f   LIBCMTD:vsnprnc.obj
 0001:000722d0       _vsprintf_s                004732d0 f   LIBCMTD:vsnprnc.obj
 0001:00072300       __vsnprintf_s_l            00473300 f   LIBCMTD:vsnprnc.obj
 0001:000726a0       __vsnprintf_s              004736a0 f   LIBCMTD:vsnprnc.obj
 0001:000726d0       __vsprintf_p               004736d0 f   LIBCMTD:vsnprnc.obj
 0001:00072720       __vsprintf_p_l             00473720 f   LIBCMTD:vsnprnc.obj
 0001:00072770       __itoa_s                   00473770 f   LIBCMTD:xtoas.obj
 0001:00072b40       __ltoa_s                   00473b40 f   LIBCMTD:xtoas.obj
 0001:00072b80       __ultoa_s                  00473b80 f   LIBCMTD:xtoas.obj
 0001:00072ba0       __i64toa_s                 00473ba0 f   LIBCMTD:xtoas.obj
 0001:00072fa0       __ui64toa_s                00473fa0 f   LIBCMTD:xtoas.obj
 0001:00072fc0       __wcstombs_l_helper        00473fc0 f   LIBCMTD:wcstombs.obj
 0001:00073500       __wcstombs_l               00474500 f   LIBCMTD:wcstombs.obj
 0001:00073520       _wcstombs                  00474520 f   LIBCMTD:wcstombs.obj
 0001:00073540       __wcstombs_s_l             00474540 f   LIBCMTD:wcstombs.obj
 0001:00073870       _wcstombs_s                00474870 f   LIBCMTD:wcstombs.obj
 0001:000738a0       __vswprintf_l              004748a0 f   LIBCMTD:vswprint.obj
 0001:00073a90       __vswprintf                00474a90 f   LIBCMTD:vswprint.obj
 0001:00073ab0       ___vswprintf_l             00474ab0 f   LIBCMTD:vswprint.obj
 0001:00073ad0       __vscwprintf_helper        00474ad0 f   LIBCMTD:vswprint.obj
 0001:00073bb0       __vscwprintf               00474bb0 f   LIBCMTD:vswprint.obj
 0001:00073bd0       __vscwprintf_l             00474bd0 f   LIBCMTD:vswprint.obj
 0001:00073bf0       __vscwprintf_p             00474bf0 f   LIBCMTD:vswprint.obj
 0001:00073c10       __vscwprintf_p_l           00474c10 f   LIBCMTD:vswprint.obj
 0001:00073c30       ___init_time               00474c30 f   LIBCMTD:inittime.obj
 0001:00074960       ___free_lc_time            00475960 f   LIBCMTD:inittime.obj
 0001:00074fd0       ___init_numeric            00475fd0 f   LIBCMTD:initnum.obj
 0001:00075380       ___free_lconv_num          00476380 f   LIBCMTD:initnum.obj
 0001:00075430       ___init_monetary           00476430 f   LIBCMTD:initmon.obj
 0001:00075a20       ___free_lconv_mon          00476a20 f   LIBCMTD:initmon.obj
 0001:00075bd0       _localeconv                00476bd0 f   LIBCMTD:lconv.obj
 0001:00075c20       ___pwctype_func            00476c20 f   LIBCMTD:ctype.obj
 0001:00075c30       ___pctype_func             00476c30 f   LIBCMTD:ctype.obj
 0001:00075c80       ___crtLCMapStringA         00476c80 f   LIBCMTD:a_map.obj
 0001:00075fc0       ___crtGetStringTypeA       00476fc0 f   LIBCMTD:a_str.obj
 0001:00076130       ___crtMessageBoxA          00477130 f   LIBCMTD:crtmbox.obj
 0001:00076350       __vsprintf_l               00477350 f   LIBCMTD:vsprintf.obj
 0001:000764f0       _vsprintf                  004774f0 f   LIBCMTD:vsprintf.obj
 0001:00076510       __vscprintf_helper         00477510 f   LIBCMTD:vsprintf.obj
 0001:000765f0       __vscprintf                004775f0 f   LIBCMTD:vsprintf.obj
 0001:00076610       __vscprintf_l              00477610 f   LIBCMTD:vsprintf.obj
 0001:00076630       __vscprintf_p              00477630 f   LIBCMTD:vsprintf.obj
 0001:00076650       __vscprintf_p_l            00477650 f   LIBCMTD:vsprintf.obj
 0001:00076670       __fptrap                   00477670 f   LIBCMTD:crt0fp.obj
 0001:00076690       _fputwc                    00477690 f   LIBCMTD:fputwc.obj
 0001:00076790       __fputwc_nolock            00477790 f   LIBCMTD:fputwc.obj
 0001:00076a80       _putwc                     00477a80 f   LIBCMTD:fputwc.obj
 0001:00076aa0       _wcstol                    00477aa0 f   LIBCMTD:wcstol.obj
 0001:00076e70       __wcstol_l                 00477e70 f   LIBCMTD:wcstol.obj
 0001:00076e90       _wcstoul                   00477e90 f   LIBCMTD:wcstol.obj
 0001:00076eb0       __wcstoul_l                00477eb0 f   LIBCMTD:wcstol.obj
 0001:00076ed0       ___init_ctype              00477ed0 f   LIBCMTD:initctyp.obj
 0001:00077480       ____mb_cur_max_func        00478480 f   LIBCMTD:initctyp.obj
 0001:000774d0       ____mb_cur_max_l_func      004784d0 f   LIBCMTD:initctyp.obj
 0001:00077500       ____lc_codepage_func       00478500 f   LIBCMTD:initctyp.obj
 0001:00077550       ____lc_collate_cp_func     00478550 f   LIBCMTD:initctyp.obj
 0001:000775a0       ____lc_handle_func         004785a0 f   LIBCMTD:initctyp.obj
 0001:000775f0       ___init_collate            004785f0 f   LIBCMTD:initcoll.obj
 0001:00077600       _strcspn                   00478600 f   LIBCMTD:strcspn.obj
 0001:00077650       _strncmp                   00478650 f   LIBCMTD:strncmp.obj
 0001:000777d0       _strpbrk                   004787d0 f   LIBCMTD:strpbrk.obj
 0001:00077810       ___get_qualified_locale    00478810 f   LIBCMTD:getqloc.obj
 0001:00078670       __strnicmp_l               00479670 f   LIBCMTD:strnicmp.obj
 0001:000788b0       __strnicmp                 004798b0 f   LIBCMTD:strnicmp.obj
 0001:00078a40       __mbschr_l                 00479a40 f   LIBCMTD:mbschr.obj
 0001:00078bd0       __mbschr                   00479bd0 f   LIBCMTD:mbschr.obj
 0001:00078bf0       _vprintf_helper            00479bf0 f   LIBCMTD:vprintf.obj
 0001:00078d10       __vprintf_l                00479d10 f   LIBCMTD:vprintf.obj
 0001:00078d30       __vprintf_s_l              00479d30 f   LIBCMTD:vprintf.obj
 0001:00078d50       __vprintf_p_l              00479d50 f   LIBCMTD:vprintf.obj
 0001:00078d70       _vprintf                   00479d70 f   LIBCMTD:vprintf.obj
 0001:00078d90       _vprintf_s                 00479d90 f   LIBCMTD:vprintf.obj
 0001:00078db0       __vprintf_p                00479db0 f   LIBCMTD:vprintf.obj
 0001:00078dd0       __iswctype_l               00479dd0 f   LIBCMTD:iswctype.obj
 0001:00078df0       _iswctype                  00479df0 f   LIBCMTD:iswctype.obj
 0001:00078e50       _is_wctype                 00479e50 f   LIBCMTD:iswctype.obj
 0001:00078e70       ___initconout              00479e70 f   LIBCMTD:initcon.obj
 0001:00078ea0       ___termconout              00479ea0 f   LIBCMTD:initcon.obj
 0001:00078ed0       __close                    00479ed0 f   LIBCMTD:close.obj
 0001:000790e0       __close_nolock             0047a0e0 f   LIBCMTD:close.obj
 0001:000791b0       __flswbuf                  0047a1b0 f   LIBCMTD:_flswbuf.obj
 0001:00079490       __wchartodigit             0047a490 f   LIBCMTD:wchtodig.obj
 0001:000797c0       __stricmp_l                0047a7c0 f   LIBCMTD:stricmp.obj
 0001:00079970       ___ascii_stricmp           0047a970 f   LIBCMTD:stricmp.obj
 0001:000799f0       __stricmp                  0047a9f0 f   LIBCMTD:stricmp.obj
 0001:00079b00       __tolower                  0047ab00 f   LIBCMTD:tolower.obj
 0001:00079b10       __tolower_l                0047ab10 f   LIBCMTD:tolower.obj
 0001:00079cf0       _tolower                   0047acf0 f   LIBCMTD:tolower.obj
 0001:00079d40       ___ascii_strnicmp          0047ad40 f   LIBCMTD:_strnicm.obj
 0001:00079dc0       _strchr                    0047adc0 f   LIBCMTD:strchr.obj
 0001:00079dc6       ___from_strstr_to_strchr   0047adc6     LIBCMTD:strchr.obj
 0001:00079e7e       _TlsFree@4                 0047ae7e f   kernel32:KERNEL32.dll
 0001:00079e84       _TlsAlloc@0                0047ae84 f   kernel32:KERNEL32.dll
 0001:00079e8a       _GetSystemTimeAsFileTime@4 0047ae8a f   kernel32:KERNEL32.dll
 0001:00079e90       _CloseHandle@4             0047ae90 f   kernel32:KERNEL32.dll
 0001:00079e96       _WaitForSingleObject@8     0047ae96 f   kernel32:KERNEL32.dll
 0001:00079e9c       _GetVersionExA@4           0047ae9c f   kernel32:KERNEL32.dll
 0001:00079ea2       _CreateSemaphoreA@16       0047aea2 f   kernel32:KERNEL32.dll
 0001:00079ea8       _ReleaseSemaphore@12       0047aea8 f   kernel32:KERNEL32.dll
 0001:00079eae       _InitializeCriticalSection@4 0047aeae f   kernel32:KERNEL32.dll
 0001:00079eb4       _DeleteCriticalSection@4   0047aeb4 f   kernel32:KERNEL32.dll
 0001:00079eba       _LeaveCriticalSection@4    0047aeba f   kernel32:KERNEL32.dll
 0001:00079ec0       _EnterCriticalSection@4    0047aec0 f   kernel32:KERNEL32.dll
 0001:00079ec6       _TlsSetValue@8             0047aec6 f   kernel32:KERNEL32.dll
 0001:00079ecc       _SetThreadPriority@8       0047aecc f   kernel32:KERNEL32.dll
 0001:00079ed2       _CreateThread@24           0047aed2 f   kernel32:KERNEL32.dll
 0001:00079ed8       _TlsGetValue@4             0047aed8 f   kernel32:KERNEL32.dll
 0001:00079ede       _InterlockedIncrement@4    0047aede f   kernel32:KERNEL32.dll
 0001:00079ee4       _InterlockedDecrement@4    0047aee4 f   kernel32:KERNEL32.dll
 0001:00079eea       _Sleep@4                   0047aeea f   kernel32:KERNEL32.dll
 0001:00079ef0       _InterlockedExchange@8     0047aef0 f   kernel32:KERNEL32.dll
 0001:00079ef6       _RtlUnwind@16              0047aef6 f   kernel32:KERNEL32.dll
 0001:00079efc       _GetCommandLineA@0         0047aefc f   kernel32:KERNEL32.dll
 0001:00079f02       _HeapSetInformation@16     0047af02 f   kernel32:KERNEL32.dll
 0001:00079f08       _RaiseException@16         0047af08 f   kernel32:KERNEL32.dll
 0001:00079f0e       _DecodePointer@4           0047af0e f   kernel32:KERNEL32.dll
 0001:00079f14       _EncodePointer@4           0047af14 f   kernel32:KERNEL32.dll
 0001:00079f1a       _GetModuleFileNameW@12     0047af1a f   kernel32:KERNEL32.dll
 0001:00079f20       _WriteConsoleW@20          0047af20 f   kernel32:KERNEL32.dll
 0001:00079f26       _GetFileType@4             0047af26 f   kernel32:KERNEL32.dll
 0001:00079f2c       _GetStdHandle@4            0047af2c f   kernel32:KERNEL32.dll
 0001:00079f32       _TerminateProcess@8        0047af32 f   kernel32:KERNEL32.dll
 0001:00079f38       _GetCurrentProcess@0       0047af38 f   kernel32:KERNEL32.dll
 0001:00079f3e       _UnhandledExceptionFilter@4 0047af3e f   kernel32:KERNEL32.dll
 0001:00079f44       _SetUnhandledExceptionFilter@4 0047af44 f   kernel32:KERNEL32.dll
 0001:00079f4a       _IsDebuggerPresent@0       0047af4a f   kernel32:KERNEL32.dll
 0001:00079f50       _GetCurrentThreadId@0      0047af50 f   kernel32:KERNEL32.dll
 0001:00079f56       _GetProcAddress@8          0047af56 f   kernel32:KERNEL32.dll
 0001:00079f5c       _GetModuleHandleW@4        0047af5c f   kernel32:KERNEL32.dll
 0001:00079f62       _SetLastError@4            0047af62 f   kernel32:KERNEL32.dll
 0001:00079f68       _GetLastError@0            0047af68 f   kernel32:KERNEL32.dll
 0001:00079f6e       _GetCurrentThread@0        0047af6e f   kernel32:KERNEL32.dll
 0001:00079f74       _WideCharToMultiByte@32    0047af74 f   kernel32:KERNEL32.dll
 0001:00079f7a       _MultiByteToWideChar@24    0047af7a f   kernel32:KERNEL32.dll
 0001:00079f80       _lstrlenA@4                0047af80 f   kernel32:KERNEL32.dll
 0001:00079f86       _LoadLibraryW@4            0047af86 f   kernel32:KERNEL32.dll
 0001:00079f8c       _InitializeCriticalSectionAndSpinCount@8 0047af8c f   kernel32:KERNEL32.dll
 0001:00079f92       _FatalAppExitA@8           0047af92 f   kernel32:KERNEL32.dll
 0001:00079f98       _HeapValidate@12           0047af98 f   kernel32:KERNEL32.dll
 0001:00079f9e       _IsBadReadPtr@8            0047af9e f   kernel32:KERNEL32.dll
 0001:00079fa4       _IsProcessorFeaturePresent@4 0047afa4 f   kernel32:KERNEL32.dll
 0001:00079faa       _QueryPerformanceCounter@4 0047afaa f   kernel32:KERNEL32.dll
 0001:00079fb0       _GetTickCount@0            0047afb0 f   kernel32:KERNEL32.dll
 0001:00079fb6       _GetCurrentProcessId@0     0047afb6 f   kernel32:KERNEL32.dll
 0001:00079fbc       _ExitProcess@4             0047afbc f   kernel32:KERNEL32.dll
 0001:00079fc2       _GetModuleFileNameA@12     0047afc2 f   kernel32:KERNEL32.dll
 0001:00079fc8       _FreeEnvironmentStringsW@4 0047afc8 f   kernel32:KERNEL32.dll
 0001:00079fce       _GetEnvironmentStringsW@0  0047afce f   kernel32:KERNEL32.dll
 0001:00079fd4       _SetHandleCount@4          0047afd4 f   kernel32:KERNEL32.dll
 0001:00079fda       _GetStartupInfoW@4         0047afda f   kernel32:KERNEL32.dll
 0001:00079fe0       _HeapCreate@12             0047afe0 f   kernel32:KERNEL32.dll
 0001:00079fe6       _HeapDestroy@4             0047afe6 f   kernel32:KERNEL32.dll
 0001:00079fec       _WriteFile@20              0047afec f   kernel32:KERNEL32.dll
 0001:00079ff2       _GetLocaleInfoW@16         0047aff2 f   kernel32:KERNEL32.dll
 0001:00079ff8       _SetConsoleCtrlHandler@8   0047aff8 f   kernel32:KERNEL32.dll
 0001:00079ffe       _FlushFileBuffers@4        0047affe f   kernel32:KERNEL32.dll
 0001:0007a004       _GetConsoleCP@0            0047b004 f   kernel32:KERNEL32.dll
 0001:0007a00a       _GetConsoleMode@8          0047b00a f   kernel32:KERNEL32.dll
 0001:0007a010       _OutputDebugStringA@4      0047b010 f   kernel32:KERNEL32.dll
 0001:0007a016       _OutputDebugStringW@4      0047b016 f   kernel32:KERNEL32.dll
 0001:0007a01c       _GetACP@0                  0047b01c f   kernel32:KERNEL32.dll
 0001:0007a022       _GetOEMCP@0                0047b022 f   kernel32:KERNEL32.dll
 0001:0007a028       _GetCPInfo@8               0047b028 f   kernel32:KERNEL32.dll
 0001:0007a02e       _IsValidCodePage@4         0047b02e f   kernel32:KERNEL32.dll
 0001:0007a034       _HeapFree@12               0047b034 f   kernel32:KERNEL32.dll
 0001:0007a03a       _HeapAlloc@12              0047b03a f   kernel32:KERNEL32.dll
 0001:0007a040       _GetProcessHeap@0          0047b040 f   kernel32:KERNEL32.dll
 0001:0007a046       _VirtualQuery@12           0047b046 f   kernel32:KERNEL32.dll
 0001:0007a04c       _FreeLibrary@4             0047b04c f   kernel32:KERNEL32.dll
 0001:0007a052       _HeapReAlloc@16            0047b052 f   kernel32:KERNEL32.dll
 0001:0007a058       _HeapSize@12               0047b058 f   kernel32:KERNEL32.dll
 0001:0007a05e       _HeapQueryInformation@20   0047b05e f   kernel32:KERNEL32.dll
 0001:0007a064       _CompareStringW@24         0047b064 f   kernel32:KERNEL32.dll
 0001:0007a06a       _SetEnvironmentVariableA@8 0047b06a f   kernel32:KERNEL32.dll
 0001:0007a070       _SetFilePointer@16         0047b070 f   kernel32:KERNEL32.dll
 0001:0007a076       _SetStdHandle@8            0047b076 f   kernel32:KERNEL32.dll
 0001:0007a07c       _LCMapStringW@24           0047b07c f   kernel32:KERNEL32.dll
 0001:0007a082       _GetStringTypeW@16         0047b082 f   kernel32:KERNEL32.dll
 0001:0007a088       _GetLocaleInfoA@16         0047b088 f   kernel32:KERNEL32.dll
 0001:0007a08e       _IsValidLocale@8           0047b08e f   kernel32:KERNEL32.dll
 0001:0007a094       _EnumSystemLocalesA@8      0047b094 f   kernel32:KERNEL32.dll
 0001:0007a09a       _GetUserDefaultLCID@0      0047b09a f   kernel32:KERNEL32.dll
 0001:0007a0a0       _CreateFileW@28            0047b0a0 f   kernel32:KERNEL32.dll
 0001:0007a0a6       _WSAStartup@8              0047b0a6 f   Ws2_32:WS2_32.dll
 0001:0007a0ac       _WSACleanup@0              0047b0ac f   Ws2_32:WS2_32.dll
 0001:0007a0b2       _closesocket@4             0047b0b2 f   Ws2_32:WS2_32.dll
 0001:0007a0b8       _WSACloseEvent@4           0047b0b8 f   Ws2_32:WS2_32.dll
 0001:0007a0be       _WSASetEvent@4             0047b0be f   Ws2_32:WS2_32.dll
 0001:0007a0c4       _socket@12                 0047b0c4 f   Ws2_32:WS2_32.dll
 0001:0007a0ca       _WSACreateEvent@0          0047b0ca f   Ws2_32:WS2_32.dll
 0001:0007a0d0       _bind@12                   0047b0d0 f   Ws2_32:WS2_32.dll
 0001:0007a0d6       _getsockname@12            0047b0d6 f   Ws2_32:WS2_32.dll
 0001:0007a0dc       _WSAWaitForMultipleEvents@20 0047b0dc f   Ws2_32:WS2_32.dll
 0001:0007a0e2       _connect@12                0047b0e2 f   Ws2_32:WS2_32.dll
 0001:0007a0e8       _WSAEventSelect@12         0047b0e8 f   Ws2_32:WS2_32.dll
 0001:0007a0ee       _ioctlsocket@12            0047b0ee f   Ws2_32:WS2_32.dll
 0001:0007a0f4       _send@16                   0047b0f4 f   Ws2_32:WS2_32.dll
 0001:0007a0fa       _sendto@24                 0047b0fa f   Ws2_32:WS2_32.dll
 0001:0007a100       _WSAGetLastError@0         0047b100 f   Ws2_32:WS2_32.dll
 0001:0007a106       _recv@16                   0047b106 f   Ws2_32:WS2_32.dll
 0001:0007a10c       _recvfrom@24               0047b10c f   Ws2_32:WS2_32.dll
 0001:0007a112       _WSAResetEvent@4           0047b112 f   Ws2_32:WS2_32.dll
 0001:0007a118       _listen@8                  0047b118 f   Ws2_32:WS2_32.dll
 0001:0007a11e       _accept@12                 0047b11e f   Ws2_32:WS2_32.dll
 0001:0007a124       _gethostbyname@4           0047b124 f   Ws2_32:WS2_32.dll
 0001:0007a12a       _setsockopt@20             0047b12a f   Ws2_32:WS2_32.dll
 0001:0007a130       _WSAIoctl@36               0047b130 f   Ws2_32:WS2_32.dll
 0001:0007a136       _GetIfTable@12             0047b136 f   Iphlpapi:IPHLPAPI.DLL
 0001:0007a13c       _GetIpAddrTable@12         0047b13c f   Iphlpapi:IPHLPAPI.DLL
 0001:0007a150       ?Log@Logger@@QAEXPBD@Z     0047b150 f   libTestFramework:Main.obj
 0001:0007a1a0       _main                      0047b1a0 f   libTestFramework:Main.obj
 0001:0007a2b0       ??$MakeFunctorMsg@VLogger@@V1@@OpenHome@@YG?AV?$MemberTranslatorMsg@VLogger@@P81@AEXPBD@Z@0@AAVLogger@@ABQ82@AEXPBD@Z@Z 0047b2b0 f i libTestFramework:Main.obj
 0001:0007a2e0       ??0?$MemberTranslatorMsg@VLogger@@P81@AEXPBD@Z@OpenHome@@QAE@AAVLogger@@ABQ82@AEXPBD@Z@Z 0047b2e0 f i libTestFramework:Main.obj
 0001:0007a320       ?Thunk@?$MemberTranslatorMsg@VLogger@@P81@AEXPBD@Z@OpenHome@@SGXABVFunctorMsg@2@PBD@Z 0047b320 f i libTestFramework:Main.obj
 0002:00000000       __imp__GetIpAddrTable@12   00485000     Iphlpapi:IPHLPAPI.DLL
 0002:00000004       __imp__GetIfTable@12       00485004     Iphlpapi:IPHLPAPI.DLL
 0002:00000008       \177IPHLPAPI_NULL_THUNK_DATA 00485008     Iphlpapi:IPHLPAPI.DLL
 0002:0000000c       __imp__CloseHandle@4       0048500c     kernel32:KERNEL32.dll
 0002:00000010       __imp__WaitForSingleObject@8 00485010     kernel32:KERNEL32.dll
 0002:00000014       __imp__GetVersionExA@4     00485014     kernel32:KERNEL32.dll
 0002:00000018       __imp__CreateSemaphoreA@16 00485018     kernel32:KERNEL32.dll
 0002:0000001c       __imp__ReleaseSemaphore@12 0048501c     kernel32:KERNEL32.dll
 0002:00000020       __imp__InitializeCriticalSection@4 00485020     kernel32:KERNEL32.dll
 0002:00000024       __imp__DeleteCriticalSection@4 00485024     kernel32:KERNEL32.dll
 0002:00000028       __imp__LeaveCriticalSection@4 00485028     kernel32:KERNEL32.dll
 0002:0000002c       __imp__EnterCriticalSection@4 0048502c     kernel32:KERNEL32.dll
 0002:00000030       __imp__TlsSetValue@8       00485030     kernel32:KERNEL32.dll
 0002:00000034       __imp__SetThreadPriority@8 00485034     kernel32:KERNEL32.dll
 0002:00000038       __imp__CreateThread@24     00485038     kernel32:KERNEL32.dll
 0002:0000003c       __imp__TlsGetValue@4       0048503c     kernel32:KERNEL32.dll
 0002:00000040       __imp__InterlockedIncrement@4 00485040     kernel32:KERNEL32.dll
 0002:00000044       __imp__InterlockedDecrement@4 00485044     kernel32:KERNEL32.dll
 0002:00000048       __imp__Sleep@4             00485048     kernel32:KERNEL32.dll
 0002:0000004c       __imp__InterlockedExchange@8 0048504c     kernel32:KERNEL32.dll
 0002:00000050       __imp__RtlUnwind@16        00485050     kernel32:KERNEL32.dll
 0002:00000054       __imp__GetCommandLineA@0   00485054     kernel32:KERNEL32.dll
 0002:00000058       __imp__HeapSetInformation@16 00485058     kernel32:KERNEL32.dll
 0002:0000005c       __imp__RaiseException@16   0048505c     kernel32:KERNEL32.dll
 0002:00000060       __imp__DecodePointer@4     00485060     kernel32:KERNEL32.dll
 0002:00000064       __imp__EncodePointer@4     00485064     kernel32:KERNEL32.dll
 0002:00000068       __imp__GetModuleFileNameW@12 00485068     kernel32:KERNEL32.dll
 0002:0000006c       __imp__WriteConsoleW@20    0048506c     kernel32:KERNEL32.dll
 0002:00000070       __imp__GetFileType@4       00485070     kernel32:KERNEL32.dll
 0002:00000074       __imp__GetStdHandle@4      00485074     kernel32:KERNEL32.dll
 0002:00000078       __imp__TerminateProcess@8  00485078     kernel32:KERNEL32.dll
 0002:0000007c       __imp__GetCurrentProcess@0 0048507c     kernel32:KERNEL32.dll
 0002:00000080       __imp__UnhandledExceptionFilter@4 00485080     kernel32:KERNEL32.dll
 0002:00000084       __imp__SetUnhandledExceptionFilter@4 00485084     kernel32:KERNEL32.dll
 0002:00000088       __imp__IsDebuggerPresent@0 00485088     kernel32:KERNEL32.dll
 0002:0000008c       __imp__GetCurrentThreadId@0 0048508c     kernel32:KERNEL32.dll
 0002:00000090       __imp__GetProcAddress@8    00485090     kernel32:KERNEL32.dll
 0002:00000094       __imp__GetModuleHandleW@4  00485094     kernel32:KERNEL32.dll
 0002:00000098       __imp__SetLastError@4      00485098     kernel32:KERNEL32.dll
 0002:0000009c       __imp__GetLastError@0      0048509c     kernel32:KERNEL32.dll
 0002:000000a0       __imp__GetCurrentThread@0  004850a0     kernel32:KERNEL32.dll
 0002:000000a4       __imp__WideCharToMultiByte@32 004850a4     kernel32:KERNEL32.dll
 0002:000000a8       __imp__MultiByteToWideChar@24 004850a8     kernel32:KERNEL32.dll
 0002:000000ac       __imp__lstrlenA@4          004850ac     kernel32:KERNEL32.dll
 0002:000000b0       __imp__LoadLibraryW@4      004850b0     kernel32:KERNEL32.dll
 0002:000000b4       __imp__InitializeCriticalSectionAndSpinCount@8 004850b4     kernel32:KERNEL32.dll
 0002:000000b8       __imp__FatalAppExitA@8     004850b8     kernel32:KERNEL32.dll
 0002:000000bc       __imp__GetSystemTimeAsFileTime@4 004850bc     kernel32:KERNEL32.dll
 0002:000000c0       __imp__IsBadReadPtr@8      004850c0     kernel32:KERNEL32.dll
 0002:000000c4       __imp__IsProcessorFeaturePresent@4 004850c4     kernel32:KERNEL32.dll
 0002:000000c8       __imp__QueryPerformanceCounter@4 004850c8     kernel32:KERNEL32.dll
 0002:000000cc       __imp__GetTickCount@0      004850cc     kernel32:KERNEL32.dll
 0002:000000d0       __imp__GetCurrentProcessId@0 004850d0     kernel32:KERNEL32.dll
 0002:000000d4       __imp__ExitProcess@4       004850d4     kernel32:KERNEL32.dll
 0002:000000d8       __imp__GetModuleFileNameA@12 004850d8     kernel32:KERNEL32.dll
 0002:000000dc       __imp__FreeEnvironmentStringsW@4 004850dc     kernel32:KERNEL32.dll
 0002:000000e0       __imp__GetEnvironmentStringsW@0 004850e0     kernel32:KERNEL32.dll
 0002:000000e4       __imp__SetHandleCount@4    004850e4     kernel32:KERNEL32.dll
 0002:000000e8       __imp__GetStartupInfoW@4   004850e8     kernel32:KERNEL32.dll
 0002:000000ec       __imp__HeapCreate@12       004850ec     kernel32:KERNEL32.dll
 0002:000000f0       __imp__HeapDestroy@4       004850f0     kernel32:KERNEL32.dll
 0002:000000f4       __imp__WriteFile@20        004850f4     kernel32:KERNEL32.dll
 0002:000000f8       __imp__GetLocaleInfoW@16   004850f8     kernel32:KERNEL32.dll
 0002:000000fc       __imp__SetConsoleCtrlHandler@8 004850fc     kernel32:KERNEL32.dll
 0002:00000100       __imp__FlushFileBuffers@4  00485100     kernel32:KERNEL32.dll
 0002:00000104       __imp__GetConsoleCP@0      00485104     kernel32:KERNEL32.dll
 0002:00000108       __imp__GetConsoleMode@8    00485108     kernel32:KERNEL32.dll
 0002:0000010c       __imp__OutputDebugStringA@4 0048510c     kernel32:KERNEL32.dll
 0002:00000110       __imp__OutputDebugStringW@4 00485110     kernel32:KERNEL32.dll
 0002:00000114       __imp__GetACP@0            00485114     kernel32:KERNEL32.dll
 0002:00000118       __imp__GetOEMCP@0          00485118     kernel32:KERNEL32.dll
 0002:0000011c       __imp__GetCPInfo@8         0048511c     kernel32:KERNEL32.dll
 0002:00000120       __imp__IsValidCodePage@4   00485120     kernel32:KERNEL32.dll
 0002:00000124       __imp__HeapFree@12         00485124     kernel32:KERNEL32.dll
 0002:00000128       __imp__HeapAlloc@12        00485128     kernel32:KERNEL32.dll
 0002:0000012c       __imp__GetProcessHeap@0    0048512c     kernel32:KERNEL32.dll
 0002:00000130       __imp__VirtualQuery@12     00485130     kernel32:KERNEL32.dll
 0002:00000134       __imp__FreeLibrary@4       00485134     kernel32:KERNEL32.dll
 0002:00000138       __imp__HeapReAlloc@16      00485138     kernel32:KERNEL32.dll
 0002:0000013c       __imp__HeapSize@12         0048513c     kernel32:KERNEL32.dll
 0002:00000140       __imp__HeapQueryInformation@20 00485140     kernel32:KERNEL32.dll
 0002:00000144       __imp__CompareStringW@24   00485144     kernel32:KERNEL32.dll
 0002:00000148       __imp__SetEnvironmentVariableA@8 00485148     kernel32:KERNEL32.dll
 0002:0000014c       __imp__SetFilePointer@16   0048514c     kernel32:KERNEL32.dll
 0002:00000150       __imp__SetStdHandle@8      00485150     kernel32:KERNEL32.dll
 0002:00000154       __imp__LCMapStringW@24     00485154     kernel32:KERNEL32.dll
 0002:00000158       __imp__GetStringTypeW@16   00485158     kernel32:KERNEL32.dll
 0002:0000015c       __imp__GetLocaleInfoA@16   0048515c     kernel32:KERNEL32.dll
 0002:00000160       __imp__IsValidLocale@8     00485160     kernel32:KERNEL32.dll
 0002:00000164       __imp__EnumSystemLocalesA@8 00485164     kernel32:KERNEL32.dll
 0002:00000168       __imp__GetUserDefaultLCID@0 00485168     kernel32:KERNEL32.dll
 0002:0000016c       __imp__CreateFileW@28      0048516c     kernel32:KERNEL32.dll
 0002:00000170       __imp__TlsAlloc@0          00485170     kernel32:KERNEL32.dll
 0002:00000174       __imp__HeapValidate@12     00485174     kernel32:KERNEL32.dll
 0002:00000178       __imp__TlsFree@4           00485178     kernel32:KERNEL32.dll
 0002:0000017c       \177KERNEL32_NULL_THUNK_DATA 0048517c     kernel32:KERNEL32.dll
 0002:00000180       __imp__WSACloseEvent@4     00485180     Ws2_32:WS2_32.dll
 0002:00000184       __imp__WSASetEvent@4       00485184     Ws2_32:WS2_32.dll
 0002:00000188       __imp__socket@12           00485188     Ws2_32:WS2_32.dll
 0002:0000018c       __imp__WSACreateEvent@0    0048518c     Ws2_32:WS2_32.dll
 0002:00000190       __imp__bind@12             00485190     Ws2_32:WS2_32.dll
 0002:00000194       __imp__getsockname@12      00485194     Ws2_32:WS2_32.dll
 0002:00000198       __imp__WSAWaitForMultipleEvents@20 00485198     Ws2_32:WS2_32.dll
 0002:0000019c       __imp__connect@12          0048519c     Ws2_32:WS2_32.dll
 0002:000001a0       __imp__WSAEventSelect@12   004851a0     Ws2_32:WS2_32.dll
 0002:000001a4       __imp__ioctlsocket@12      004851a4     Ws2_32:WS2_32.dll
 0002:000001a8       __imp__send@16             004851a8     Ws2_32:WS2_32.dll
 0002:000001ac       __imp__sendto@24           004851ac     Ws2_32:WS2_32.dll
 0002:000001b0       __imp__WSAGetLastError@0   004851b0     Ws2_32:WS2_32.dll
 0002:000001b4       __imp__recv@16             004851b4     Ws2_32:WS2_32.dll
 0002:000001b8       __imp__recvfrom@24         004851b8     Ws2_32:WS2_32.dll
 0002:000001bc       __imp__WSAResetEvent@4     004851bc     Ws2_32:WS2_32.dll
 0002:000001c0       __imp__listen@8            004851c0     Ws2_32:WS2_32.dll
 0002:000001c4       __imp__accept@12           004851c4     Ws2_32:WS2_32.dll
 0002:000001c8       __imp__gethostbyname@4     004851c8     Ws2_32:WS2_32.dll
 0002:000001cc       __imp__setsockopt@20       004851cc     Ws2_32:WS2_32.dll
 0002:000001d0       __imp__WSAIoctl@36         004851d0     Ws2_32:WS2_32.dll
 0002:000001d4       __imp__WSACleanup@0        004851d4     Ws2_32:WS2_32.dll
 0002:000001d8       __imp__WSAStartup@8        004851d8     Ws2_32:WS2_32.dll
 0002:000001dc       __imp__closesocket@4       004851dc     Ws2_32:WS2_32.dll
 0002:000001e0       \177WS2_32_NULL_THUNK_DATA 004851e0     Ws2_32:WS2_32.dll
 0002:000001e4       ___xc_a                    004851e4     LIBCMTD:crt0init.obj
 0002:00000480       ___xc_z                    00485480     LIBCMTD:crt0init.obj
 0002:00000484       ___xi_a                    00485484     LIBCMTD:crt0init.obj
 0002:0000049c       ___xi_z                    0048549c     LIBCMTD:crt0init.obj
 0002:000004a0       ___xp_a                    004854a0     LIBCMTD:crt0init.obj
 0002:000004b0       ___xp_z                    004854b0     LIBCMTD:crt0init.obj
 0002:000004b4       ___xt_a                    004854b4     LIBCMTD:crt0init.obj
 0002:000004b8       ___xt_z                    004854b8     LIBCMTD:crt0init.obj
 0002:000004dc       ?kFudgeFactor@Functor@OpenHome@@2IB 004854dc     TestFifo.obj
 0002:000004e0       ?kFudgeFactor@FunctorAsync@Net@OpenHome@@2IB 004854e0     TestFifo.obj
 0002:000004e4       ?kFudgeFactor@FunctorMsg@OpenHome@@2IB 004854e4     TestFifo.obj
 0002:000004e8       ?has_denorm@_Num_base@std@@2W4float_denorm_style@2@B 004854e8     TestFifo.obj
 0002:000004ec       ?has_denorm_loss@_Num_base@std@@2_NB 004854ec     TestFifo.obj
 0002:000004ed       ?has_infinity@_Num_base@std@@2_NB 004854ed     TestFifo.obj
 0002:000004ee       ?has_quiet_NaN@_Num_base@std@@2_NB 004854ee     TestFifo.obj
 0002:000004ef       ?has_signaling_NaN@_Num_base@std@@2_NB 004854ef     TestFifo.obj
 0002:000004f0       ?is_bounded@_Num_base@std@@2_NB 004854f0     TestFifo.obj
 0002:000004f1       ?is_exact@_Num_base@std@@2_NB 004854f1     TestFifo.obj
 0002:000004f2       ?is_iec559@_Num_base@std@@2_NB 004854f2     TestFifo.obj
 0002:000004f3       ?is_integer@_Num_base@std@@2_NB 004854f3     TestFifo.obj
 0002:000004f4       ?is_modulo@_Num_base@std@@2_NB 004854f4     TestFifo.obj
 0002:000004f5       ?is_signed@_Num_base@std@@2_NB 004854f5     TestFifo.obj
 0002:000004f6       ?is_specialized@_Num_base@std@@2_NB 004854f6     TestFifo.obj
 0002:000004f7       ?tinyness_before@_Num_base@std@@2_NB 004854f7     TestFifo.obj
 0002:000004f8       ?traps@_Num_base@std@@2_NB 004854f8     TestFifo.obj
 0002:000004fc       ?round_style@_Num_base@std@@2W4float_round_style@2@B 004854fc     TestFifo.obj
 0002:00000500       ?digits@_Num_base@std@@2HB 00485500     TestFifo.obj
 0002:00000504       ?digits10@_Num_base@std@@2HB 00485504     TestFifo.obj
 0002:00000508       ?max_digits10@_Num_base@std@@2HB 00485508     TestFifo.obj
 0002:0000050c       ?max_exponent@_Num_base@std@@2HB 0048550c     TestFifo.obj
 0002:00000510       ?max_exponent10@_Num_base@std@@2HB 00485510     TestFifo.obj
 0002:00000514       ?min_exponent@_Num_base@std@@2HB 00485514     TestFifo.obj
 0002:00000518       ?min_exponent10@_Num_base@std@@2HB 00485518     TestFifo.obj
 0002:0000051c       ?radix@_Num_base@std@@2HB  0048551c     TestFifo.obj
 0002:00000520       ?is_bounded@_Num_int_base@std@@2_NB 00485520     TestFifo.obj
 0002:00000521       ?is_exact@_Num_int_base@std@@2_NB 00485521     TestFifo.obj
 0002:00000522       ?is_integer@_Num_int_base@std@@2_NB 00485522     TestFifo.obj
 0002:00000523       ?is_modulo@_Num_int_base@std@@2_NB 00485523     TestFifo.obj
 0002:00000524       ?is_specialized@_Num_int_base@std@@2_NB 00485524     TestFifo.obj
 0002:00000528       ?radix@_Num_int_base@std@@2HB 00485528     TestFifo.obj
 0002:0000052c       ?has_denorm@_Num_float_base@std@@2W4float_denorm_style@2@B 0048552c     TestFifo.obj
 0002:00000530       ?has_denorm_loss@_Num_float_base@std@@2_NB 00485530     TestFifo.obj
 0002:00000531       ?has_infinity@_Num_float_base@std@@2_NB 00485531     TestFifo.obj
 0002:00000532       ?has_quiet_NaN@_Num_float_base@std@@2_NB 00485532     TestFifo.obj
 0002:00000533       ?has_signaling_NaN@_Num_float_base@std@@2_NB 00485533     TestFifo.obj
 0002:00000534       ?is_bounded@_Num_float_base@std@@2_NB 00485534     TestFifo.obj
 0002:00000535       ?is_exact@_Num_float_base@std@@2_NB 00485535     TestFifo.obj
 0002:00000536       ?is_iec559@_Num_float_base@std@@2_NB 00485536     TestFifo.obj
 0002:00000537       ?is_integer@_Num_float_base@std@@2_NB 00485537     TestFifo.obj
 0002:00000538       ?is_modulo@_Num_float_base@std@@2_NB 00485538     TestFifo.obj
 0002:00000539       ?is_signed@_Num_float_base@std@@2_NB 00485539     TestFifo.obj
 0002:0000053a       ?is_specialized@_Num_float_base@std@@2_NB 0048553a     TestFifo.obj
 0002:0000053b       ?tinyness_before@_Num_float_base@std@@2_NB 0048553b     TestFifo.obj
 0002:0000053c       ?traps@_Num_float_base@std@@2_NB 0048553c     TestFifo.obj
 0002:00000540       ?round_style@_Num_float_base@std@@2W4float_round_style@2@B 00485540     TestFifo.obj
 0002:00000544       ?radix@_Num_float_base@std@@2HB 00485544     TestFifo.obj
 0002:00000548       ?is_signed@?$numeric_limits@D@std@@2_NB 00485548     TestFifo.obj
 0002:0000054c       ?digits@?$numeric_limits@D@std@@2HB 0048554c     TestFifo.obj
 0002:00000550       ?digits10@?$numeric_limits@D@std@@2HB 00485550     TestFifo.obj
 0002:00000554       ?max_digits10@?$numeric_limits@D@std@@2HB 00485554     TestFifo.obj
 0002:00000558       ?is_signed@?$numeric_limits@_W@std@@2_NB 00485558     TestFifo.obj
 0002:0000055c       ?digits@?$numeric_limits@_W@std@@2HB 0048555c     TestFifo.obj
 0002:00000560       ?digits10@?$numeric_limits@_W@std@@2HB 00485560     TestFifo.obj
 0002:00000564       ?max_digits10@?$numeric_limits@_W@std@@2HB 00485564     TestFifo.obj
 0002:00000568       ?is_modulo@?$numeric_limits@_N@std@@2_NB 00485568     TestFifo.obj
 0002:00000569       ?is_signed@?$numeric_limits@_N@std@@2_NB 00485569     TestFifo.obj
 0002:0000056c       ?digits@?$numeric_limits@_N@std@@2HB 0048556c     TestFifo.obj
 0002:00000570       ?digits10@?$numeric_limits@_N@std@@2HB 00485570     TestFifo.obj
 0002:00000574       ?max_digits10@?$numeric_limits@_N@std@@2HB 00485574     TestFifo.obj
 0002:00000578       ?is_signed@?$numeric_limits@C@std@@2_NB 00485578     TestFifo.obj
 0002:0000057c       ?digits@?$numeric_limits@C@std@@2HB 0048557c     TestFifo.obj
 0002:00000580       ?digits10@?$numeric_limits@C@std@@2HB 00485580     TestFifo.obj
 0002:00000584       ?max_digits10@?$numeric_limits@C@std@@2HB 00485584     TestFifo.obj
 0002:00000588       ?is_signed@?$numeric_limits@E@std@@2_NB 00485588     TestFifo.obj
 0002:0000058c       ?digits@?$numeric_limits@E@std@@2HB 0048558c     TestFifo.obj
 0002:00000590       ?digits10@?$numeric_limits@E@std@@2HB 00485590     TestFifo.obj
 0002:00000594       ?max_digits10@?$numeric_limits@E@std@@2HB 00485594     TestFifo.obj
 0002:00000598       ?is_signed@?$numeric_limits@F@std@@2_NB 00485598     TestFifo.obj
 0002:0000059c       ?digits@?$numeric_limits@F@std@@2HB 0048559c     TestFifo.obj
 0002:000005a0       ?digits10@?$numeric_limits@F@std@@2HB 004855a0     TestFifo.obj
 0002:000005a4       ?max_digits10@?$numeric_limits@F@std@@2HB 004855a4     TestFifo.obj
 0002:000005a8       ?is_signed@?$numeric_limits@G@std@@2_NB 004855a8     TestFifo.obj
 0002:000005ac       ?digits@?$numeric_limits@G@std@@2HB 004855ac     TestFifo.obj
 0002:000005b0       ?digits10@?$numeric_limits@G@std@@2HB 004855b0     TestFifo.obj
 0002:000005b4       ?max_digits10@?$numeric_limits@G@std@@2HB 004855b4     TestFifo.obj
 0002:000005b8       ?is_signed@?$numeric_limits@H@std@@2_NB 004855b8     TestFifo.obj
 0002:000005bc       ?digits@?$numeric_limits@H@std@@2HB 004855bc     TestFifo.obj
 0002:000005c0       ?digits10@?$numeric_limits@H@std@@2HB 004855c0     TestFifo.obj
 0002:000005c4       ?max_digits10@?$numeric_limits@H@std@@2HB 004855c4     TestFifo.obj
 0002:000005c8       ?is_signed@?$numeric_limits@I@std@@2_NB 004855c8     TestFifo.obj
 0002:000005cc       ?digits@?$numeric_limits@I@std@@2HB 004855cc     TestFifo.obj
 0002:000005d0       ?digits10@?$numeric_limits@I@std@@2HB 004855d0     TestFifo.obj
 0002:000005d4       ?max_digits10@?$numeric_limits@I@std@@2HB 004855d4     TestFifo.obj
 0002:000005d8       ?is_signed@?$numeric_limits@J@std@@2_NB 004855d8     TestFifo.obj
 0002:000005dc       ?digits@?$numeric_limits@J@std@@2HB 004855dc     TestFifo.obj
 0002:000005e0       ?digits10@?$numeric_limits@J@std@@2HB 004855e0     TestFifo.obj
 0002:000005e4       ?max_digits10@?$numeric_limits@J@std@@2HB 004855e4     TestFifo.obj
 0002:000005e8       ?is_signed@?$numeric_limits@K@std@@2_NB 004855e8     TestFifo.obj
 0002:000005ec       ?digits@?$numeric_limits@K@std@@2HB 004855ec     TestFifo.obj
 0002:000005f0       ?digits10@?$numeric_limits@K@std@@2HB 004855f0     TestFifo.obj
 0002:000005f4       ?max_digits10@?$numeric_limits@K@std@@2HB 004855f4     TestFifo.obj
 0002:000005f8       ?is_signed@?$numeric_limits@_J@std@@2_NB 004855f8     TestFifo.obj
 0002:000005fc       ?digits@?$numeric_limits@_J@std@@2HB 004855fc     TestFifo.obj
 0002:00000600       ?digits10@?$numeric_limits@_J@std@@2HB 00485600     TestFifo.obj
 0002:00000604       ?max_digits10@?$numeric_limits@_J@std@@2HB 00485604     TestFifo.obj
 0002:00000608       ?is_signed@?$numeric_limits@_K@std@@2_NB 00485608     TestFifo.obj
 0002:0000060c       ?digits@?$numeric_limits@_K@std@@2HB 0048560c     TestFifo.obj
 0002:00000610       ?digits10@?$numeric_limits@_K@std@@2HB 00485610     TestFifo.obj
 0002:00000614       ?max_digits10@?$numeric_limits@_K@std@@2HB 00485614     TestFifo.obj
 0002:00000618       ?digits@?$numeric_limits@M@std@@2HB 00485618     TestFifo.obj
 0002:0000061c       ?digits10@?$numeric_limits@M@std@@2HB 0048561c     TestFifo.obj
 0002:00000620       ?max_digits10@?$numeric_limits@M@std@@2HB 00485620     TestFifo.obj
 0002:00000624       ?max_exponent@?$numeric_limits@M@std@@2HB 00485624     TestFifo.obj
 0002:00000628       ?max_exponent10@?$numeric_limits@M@std@@2HB 00485628     TestFifo.obj
 0002:0000062c       ?min_exponent@?$numeric_limits@M@std@@2HB 0048562c     TestFifo.obj
 0002:00000630       ?min_exponent10@?$numeric_limits@M@std@@2HB 00485630     TestFifo.obj
 0002:00000634       ?digits@?$numeric_limits@N@std@@2HB 00485634     TestFifo.obj
 0002:00000638       ?digits10@?$numeric_limits@N@std@@2HB 00485638     TestFifo.obj
 0002:0000063c       ?max_digits10@?$numeric_limits@N@std@@2HB 0048563c     TestFifo.obj
 0002:00000640       ?max_exponent@?$numeric_limits@N@std@@2HB 00485640     TestFifo.obj
 0002:00000644       ?max_exponent10@?$numeric_limits@N@std@@2HB 00485644     TestFifo.obj
 0002:00000648       ?min_exponent@?$numeric_limits@N@std@@2HB 00485648     TestFifo.obj
 0002:0000064c       ?min_exponent10@?$numeric_limits@N@std@@2HB 0048564c     TestFifo.obj
 0002:00000650       ?digits@?$numeric_limits@O@std@@2HB 00485650     TestFifo.obj
 0002:00000654       ?digits10@?$numeric_limits@O@std@@2HB 00485654     TestFifo.obj
 0002:00000658       ?max_digits10@?$numeric_limits@O@std@@2HB 00485658     TestFifo.obj
 0002:0000065c       ?max_exponent@?$numeric_limits@O@std@@2HB 0048565c     TestFifo.obj
 0002:00000660       ?max_exponent10@?$numeric_limits@O@std@@2HB 00485660     TestFifo.obj
 0002:00000664       ?min_exponent@?$numeric_limits@O@std@@2HB 00485664     TestFifo.obj
 0002:00000668       ?min_exponent10@?$numeric_limits@O@std@@2HB 00485668     TestFifo.obj
 0002:0000066c       ?value@?$integral_constant@_N$0A@@tr1@std@@2_NB 0048566c     TestFifo.obj
 0002:0000066d       ?value@?$integral_constant@_N$00@tr1@std@@2_NB 0048566d     TestFifo.obj
 0002:00000670       ?value@?$integral_constant@I$0A@@tr1@std@@2IB 00485670     TestFifo.obj
 0002:00000674       ?_Rank@?$_Arithmetic_traits@_N@std@@2HB 00485674     TestFifo.obj
 0002:00000678       ?_Rank@?$_Arithmetic_traits@D@std@@2HB 00485678     TestFifo.obj
 0002:0000067c       ?_Rank@?$_Arithmetic_traits@C@std@@2HB 0048567c     TestFifo.obj
 0002:00000680       ?_Rank@?$_Arithmetic_traits@E@std@@2HB 00485680     TestFifo.obj
 0002:00000684       ?_Rank@?$_Arithmetic_traits@F@std@@2HB 00485684     TestFifo.obj
 0002:00000688       ?_Rank@?$_Arithmetic_traits@G@std@@2HB 00485688     TestFifo.obj
 0002:0000068c       ?_Rank@?$_Arithmetic_traits@H@std@@2HB 0048568c     TestFifo.obj
 0002:00000690       ?_Rank@?$_Arithmetic_traits@I@std@@2HB 00485690     TestFifo.obj
 0002:00000694       ?_Rank@?$_Arithmetic_traits@J@std@@2HB 00485694     TestFifo.obj
 0002:00000698       ?_Rank@?$_Arithmetic_traits@K@std@@2HB 00485698     TestFifo.obj
 0002:0000069c       ?_Rank@?$_Arithmetic_traits@_J@std@@2HB 0048569c     TestFifo.obj
 0002:000006a0       ?_Rank@?$_Arithmetic_traits@_K@std@@2HB 004856a0     TestFifo.obj
 0002:000006a4       ?_Rank@?$_Arithmetic_traits@M@std@@2HB 004856a4     TestFifo.obj
 0002:000006a8       ?_Rank@?$_Arithmetic_traits@N@std@@2HB 004856a8     TestFifo.obj
 0002:000006ac       ?_Rank@?$_Arithmetic_traits@O@std@@2HB 004856ac     TestFifo.obj
 0002:000006b0       ?kNone@Debug@OpenHome@@2IB 004856b0     TestFifo.obj
 0002:000006b4       ?kError@Debug@OpenHome@@2IB 004856b4     TestFifo.obj
 0002:000006b8       ?kThread@Debug@OpenHome@@2IB 004856b8     TestFifo.obj
 0002:000006bc       ?kNetwork@Debug@OpenHome@@2IB 004856bc     TestFifo.obj
 0002:000006c0       ?kTimer@Debug@OpenHome@@2IB 004856c0     TestFifo.obj
 0002:000006c4       ?kSsdpMulticast@Debug@OpenHome@@2IB 004856c4     TestFifo.obj
 0002:000006c8       ?kSsdpUnicast@Debug@OpenHome@@2IB 004856c8     TestFifo.obj
 0002:000006cc       ?kHttp@Debug@OpenHome@@2IB 004856cc     TestFifo.obj
 0002:000006d0       ?kDevice@Debug@OpenHome@@2IB 004856d0     TestFifo.obj
 0002:000006d4       ?kXmlFetch@Debug@OpenHome@@2IB 004856d4     TestFifo.obj
 0002:000006d8       ?kService@Debug@OpenHome@@2IB 004856d8     TestFifo.obj
 0002:000006dc       ?kEvent@Debug@OpenHome@@2IB 004856dc     TestFifo.obj
 0002:000006e0       ?kTopology@Debug@OpenHome@@2IB 004856e0     TestFifo.obj
 0002:000006e4       ?kDvInvocation@Debug@OpenHome@@2IB 004856e4     TestFifo.obj
 0002:000006e8       ?kDvEvent@Debug@OpenHome@@2IB 004856e8     TestFifo.obj
 0002:000006ec       ?kDvWebSocket@Debug@OpenHome@@2IB 004856ec     TestFifo.obj
 0002:000006f0       ?kMedia@Debug@OpenHome@@2IB 004856f0     TestFifo.obj
 0002:000006f4       ?kBonjour@Debug@OpenHome@@2IB 004856f4     TestFifo.obj
 0002:000006f8       ?kAll@Debug@OpenHome@@2IB  004856f8     TestFifo.obj
 0002:000006fc       ?kVerbose@Debug@OpenHome@@2IB 004856fc     TestFifo.obj
 0002:00000700       ?kMaxDebugPrintBytes@Debug@OpenHome@@0IB 00485700     TestFifo.obj
 0002:00000704       ?kWaitForever@Semaphore@OpenHome@@2IB 00485704     TestFifo.obj
 0002:00000708       ?kNameBytes@Thread@OpenHome@@1IB 00485708     TestFifo.obj
 0002:0000164c       ??_7ThreadSafetyTests@@6B@ 0048664c     TestFifo.obj
 0002:00001654       ??_C@_04BKMDBJIC@THST?$AA@ 00486654     TestFifo.obj
 0002:00001660       ??_7SuiteFifoBasic@@6B@    00486660     TestFifo.obj
 0002:00001668       ??_C@_0CD@FDDADHLP@Single?5threaded?5basic?5Fifo?5testi@ 00486668     TestFifo.obj
 0002:00001690       ??_7SuiteFifoThreadSafety@@6B@ 00486690     TestFifo.obj
 0002:00001698       ??_C@_0CO@HOGGPBKP@Fifo?5thread?5safety?5multiple?5writ@ 00486698     TestFifo.obj
 0002:000016cc       ??_7SuiteFifoLiteBasic@@6B@ 004866cc     TestFifo.obj
 0002:000016d4       ??_C@_0BB@KFHGIBIN@FifoLite?5testing?$AA@ 004866d4     TestFifo.obj
 0002:000016e8       ?kMaxAddressBytes@Endpoint@OpenHome@@2IB 004866e8     libTestFramework:TestFramework.obj
 0002:000016ec       ?kMaxEndpointBytes@Endpoint@OpenHome@@2IB 004866ec     libTestFramework:TestFramework.obj
 0002:000016f0       ?kLogNone@Socket@OpenHome@@0IB 004866f0     libTestFramework:TestFramework.obj
 0002:000016f4       ?kLogPlainText@Socket@OpenHome@@0IB 004866f4     libTestFramework:TestFramework.obj
 0002:000016f8       ?kLogHex@Socket@OpenHome@@0IB 004866f8     libTestFramework:TestFramework.obj
 0002:00001900       ??_C@_0BA@KCEOBHMI@AssertionFailed?$AA@ 00486900     libTestFramework:TestFramework.obj
 0002:00001914       ??_7Suite@TestFramework@OpenHome@@6B@ 00486914     libTestFramework:TestFramework.obj
 0002:000019a4       ??_C@_0O@JBIEMMJM@FifoReadError?$AA@ 004869a4     libohNetCore:Fifo.obj
 0002:000019b4       ?kListenerIdNull@NetworkAdapterList@OpenHome@@2IB 004869b4     libohNetCore:Thread.obj
 0002:000019b8       ?kNul@Ascii@OpenHome@@2EB  004869b8     libohNetCore:Thread.obj
 0002:000019b9       ?kSoh@Ascii@OpenHome@@2EB  004869b9     libohNetCore:Thread.obj
 0002:000019ba       ?kStx@Ascii@OpenHome@@2EB  004869ba     libohNetCore:Thread.obj
 0002:000019bb       ?kEtx@Ascii@OpenHome@@2EB  004869bb     libohNetCore:Thread.obj
 0002:000019bc       ?kEot@Ascii@OpenHome@@2EB  004869bc     libohNetCore:Thread.obj
 0002:000019bd       ?kEnq@Ascii@OpenHome@@2EB  004869bd     libohNetCore:Thread.obj
 0002:000019be       ?kAck@Ascii@OpenHome@@2EB  004869be     libohNetCore:Thread.obj
 0002:000019bf       ?kBel@Ascii@OpenHome@@2EB  004869bf     libohNetCore:Thread.obj
 0002:000019c0       ?kBs@Ascii@OpenHome@@2EB   004869c0     libohNetCore:Thread.obj
 0002:000019c1       ?kHt@Ascii@OpenHome@@2EB   004869c1     libohNetCore:Thread.obj
 0002:000019c2       ?kLf@Ascii@OpenHome@@2EB   004869c2     libohNetCore:Thread.obj
 0002:000019c3       ?kVt@Ascii@OpenHome@@2EB   004869c3     libohNetCore:Thread.obj
 0002:000019c4       ?kFf@Ascii@OpenHome@@2EB   004869c4     libohNetCore:Thread.obj
 0002:000019c5       ?kCr@Ascii@OpenHome@@2EB   004869c5     libohNetCore:Thread.obj
 0002:000019c6       ?kSo@Ascii@OpenHome@@2EB   004869c6     libohNetCore:Thread.obj
 0002:000019c7       ?kSi@Ascii@OpenHome@@2EB   004869c7     libohNetCore:Thread.obj
 0002:000019c8       ?kDle@Ascii@OpenHome@@2EB  004869c8     libohNetCore:Thread.obj
 0002:000019c9       ?kDc1@Ascii@OpenHome@@2EB  004869c9     libohNetCore:Thread.obj
 0002:000019ca       ?kDc2@Ascii@OpenHome@@2EB  004869ca     libohNetCore:Thread.obj
 0002:000019cb       ?kDc3@Ascii@OpenHome@@2EB  004869cb     libohNetCore:Thread.obj
 0002:000019cc       ?kDc4@Ascii@OpenHome@@2EB  004869cc     libohNetCore:Thread.obj
 0002:000019cd       ?kNak@Ascii@OpenHome@@2EB  004869cd     libohNetCore:Thread.obj
 0002:000019ce       ?kSyn@Ascii@OpenHome@@2EB  004869ce     libohNetCore:Thread.obj
 0002:000019cf       ?kEtb@Ascii@OpenHome@@2EB  004869cf     libohNetCore:Thread.obj
 0002:000019d0       ?kCan@Ascii@OpenHome@@2EB  004869d0     libohNetCore:Thread.obj
 0002:000019d1       ?kEm@Ascii@OpenHome@@2EB   004869d1     libohNetCore:Thread.obj
 0002:000019d2       ?kSub@Ascii@OpenHome@@2EB  004869d2     libohNetCore:Thread.obj
 0002:000019d3       ?kEsc@Ascii@OpenHome@@2EB  004869d3     libohNetCore:Thread.obj
 0002:000019d4       ?kFs@Ascii@OpenHome@@2EB   004869d4     libohNetCore:Thread.obj
 0002:000019d5       ?kGs@Ascii@OpenHome@@2EB   004869d5     libohNetCore:Thread.obj
 0002:000019d6       ?kRs@Ascii@OpenHome@@2EB   004869d6     libohNetCore:Thread.obj
 0002:000019d7       ?kUs@Ascii@OpenHome@@2EB   004869d7     libohNetCore:Thread.obj
 0002:000019d8       ?kSp@Ascii@OpenHome@@2EB   004869d8     libohNetCore:Thread.obj
 0002:000019d9       ?kDel@Ascii@OpenHome@@2EB  004869d9     libohNetCore:Thread.obj
 0002:000019dc       ?kMaxIntStringBytes@Ascii@OpenHome@@2IB 004869dc     libohNetCore:Thread.obj
 0002:000019e0       ?kMaxUintStringBytes@Ascii@OpenHome@@2IB 004869e0     libohNetCore:Thread.obj
 0002:000019e4       ?kMaxInt64StringBytes@Ascii@OpenHome@@2IB 004869e4     libohNetCore:Thread.obj
 0002:000019e8       ?kMaxUint64StringBytes@Ascii@OpenHome@@2IB 004869e8     libohNetCore:Thread.obj
 0002:000019ec       ?kMaxUintHexStringBytes@Ascii@OpenHome@@2IB 004869ec     libohNetCore:Thread.obj
 0002:000019f0       ?kMaxByteHexStringBytes@Ascii@OpenHome@@2IB 004869f0     libohNetCore:Thread.obj
 0002:000019f4       ?kMaxDirLevels@Uri@OpenHome@@2IB 004869f4     libohNetCore:Thread.obj
 0002:000019f8       ?kMaxUriBytes@Uri@OpenHome@@2IB 004869f8     libohNetCore:Thread.obj
 0002:000019fc       ?kInformationCodes@HttpStatus@OpenHome@@2IB 004869fc     libohNetCore:Thread.obj
 0002:00001a00       ?kSuccessCodes@HttpStatus@OpenHome@@2IB 00486a00     libohNetCore:Thread.obj
 0002:00001a04       ?kRedirectionCodes@HttpStatus@OpenHome@@2IB 00486a04     libohNetCore:Thread.obj
 0002:00001a08       ?kClientErrorCodes@HttpStatus@OpenHome@@2IB 00486a08     libohNetCore:Thread.obj
 0002:00001a0c       ?kServerErrorCodes@HttpStatus@OpenHome@@2IB 00486a0c     libohNetCore:Thread.obj
 0002:00001a10       ?kMaxMethodBytes@ReaderHttpRequest@OpenHome@@0IB 00486a10     libohNetCore:Thread.obj
 0002:00001a14       ?kMaxUriBytes@ReaderHttpRequest@OpenHome@@0IB 00486a14     libohNetCore:Thread.obj
 0002:00001a18       ?kMaxDescriptionBytes@ReaderHttpResponse@OpenHome@@2IB 00486a18     libohNetCore:Thread.obj
 0002:00001a1c       ?kMaxUriBytes@ReaderHttpResponse@OpenHome@@2IB 00486a1c     libohNetCore:Thread.obj
 0002:00001a20       ?kMaxLocationBytes@HttpHeaderLocation@OpenHome@@0IB 00486a20     libohNetCore:Thread.obj
 0002:00001a24       ?kMaxTypeBytes@HttpHeaderContentType@OpenHome@@0IB 00486a24     libohNetCore:Thread.obj
 0002:00001a28       ?kMaxBufferBytes@WriterHttpChunked@OpenHome@@0IB 00486a28     libohNetCore:Thread.obj
 0002:00001a2c       ?kMaxUuidBytes@SsdpHeaderSt@Net@OpenHome@@0IB 00486a2c     libohNetCore:Thread.obj
 0002:00001a30       ?kMaxDomainBytes@SsdpHeaderSt@Net@OpenHome@@0IB 00486a30     libohNetCore:Thread.obj
 0002:00001a34       ?kMaxTypeBytes@SsdpHeaderSt@Net@OpenHome@@0IB 00486a34     libohNetCore:Thread.obj
 0002:00001a38       ?kMaxUuidBytes@SsdpHeaderNt@Net@OpenHome@@0IB 00486a38     libohNetCore:Thread.obj
 0002:00001a3c       ?kMaxDomainBytes@SsdpHeaderNt@Net@OpenHome@@0IB 00486a3c     libohNetCore:Thread.obj
 0002:00001a40       ?kMaxTypeBytes@SsdpHeaderNt@Net@OpenHome@@0IB 00486a40     libohNetCore:Thread.obj
 0002:00001a44       ?kMaxUuidBytes@SsdpHeaderUsn@Net@OpenHome@@0IB 00486a44     libohNetCore:Thread.obj
 0002:00001a48       ?kMaxDomainBytes@SsdpHeaderUsn@Net@OpenHome@@0IB 00486a48     libohNetCore:Thread.obj
 0002:00001a4c       ?kMaxTypeBytes@SsdpHeaderUsn@Net@OpenHome@@0IB 00486a4c     libohNetCore:Thread.obj
 0002:00001a50       ?kMinMsearchSeconds@SsdpWriterMsearchRequest@Net@OpenHome@@0IB 00486a50     libohNetCore:Thread.obj
 0002:00001a54       ?kMaxMsearchSeconds@SsdpWriterMsearchRequest@Net@OpenHome@@0IB 00486a54     libohNetCore:Thread.obj
 0002:00001a58       ?kMaxBufferBytes@SsdpNotifier@Net@OpenHome@@0IB 00486a58     libohNetCore:Thread.obj
 0002:00001a5c       ?kTimeToLive@SsdpNotifier@Net@OpenHome@@0IB 00486a5c     libohNetCore:Thread.obj
 0002:00001a60       ?kMaxBufferBytes@SsdpMsearchResponder@Net@OpenHome@@0IB 00486a60     libohNetCore:Thread.obj
 0002:00001a64       ?kPriority@SsdpListener@Net@OpenHome@@0IB 00486a64     libohNetCore:Thread.obj
 0002:00001a68       ?kMaxBufferBytes@SsdpListenerMulticast@Net@OpenHome@@0IB 00486a68     libohNetCore:Thread.obj
 0002:00001a6c       ?kRecvBufBytes@SsdpListenerMulticast@Net@OpenHome@@0IB 00486a6c     libohNetCore:Thread.obj
 0002:00001a70       ?kMaxBufferBytes@SsdpListenerUnicast@Net@OpenHome@@0IB 00486a70     libohNetCore:Thread.obj
 0002:00001a74       ?kRecvBufBytes@SsdpListenerUnicast@Net@OpenHome@@0IB 00486a74     libohNetCore:Thread.obj
 0002:00001b88       ?kDefaultStackBytes@Thread@OpenHome@@2IB 00486b88     libohNetCore:Thread.obj
 0002:00001d04       ??_7Semaphore@OpenHome@@6B@ 00486d04     libohNetCore:Thread.obj
 0002:00001d0c       ??_7bad_alloc@std@@6B@     00486d0c     libohNetCore:Thread.obj
 0002:00001d14       ??_C@_0P@GHFPNOJB@bad?5allocation?$AA@ 00486d14     libohNetCore:Thread.obj
 0002:00001d24       ??_C@_0CO@DMLLNKJC@C?3?2git?2ohnet?2Upnp?2Build?2Include?2@ 00486d24     libohNetCore:Thread.obj
 0002:00001d54       ??_C@_07MKALMBDJ@Timeout?$AA@ 00486d54     libohNetCore:Thread.obj
 0002:00001d60       ??_7Mutex@OpenHome@@6B@    00486d60     libohNetCore:Thread.obj
 0002:00001d68       ??_7Brhz@OpenHome@@6B@     00486d68     libohNetCore:Thread.obj
 0002:00001d74       ??_7Brv@OpenHome@@6B@      00486d74     libohNetCore:Thread.obj
 0002:00001d80       ??_7Brx@OpenHome@@6B@      00486d80     libohNetCore:Thread.obj
 0002:00001d8c       ??_7Thread@OpenHome@@6B@   00486d8c     libohNetCore:Thread.obj
 0002:00001d94       ??_C@_0L@IHFNCMJO@ThreadKill?$AA@ 00486d94     libohNetCore:Thread.obj
 0002:00001da4       ??_7ThreadFunctor@OpenHome@@6B@ 00486da4     libohNetCore:Thread.obj
 0002:00001db0       ??_7?$Bws@$04@OpenHome@@6B@ 00486db0     libohNetCore:Thread.obj
 0002:00002010       ??_7DefaultAsyncHandler@Net@OpenHome@@6B@ 00487010     libohNetCore:OhNet.obj
 0002:00002018       ??_7IAsyncOutput@Net@OpenHome@@6B@ 00487018     libohNetCore:OhNet.obj
 0002:0000201c       ??_C@_1BO@MEPPHOO@?$AA?$CC?$AAo?$AAu?$AAt?$AA?5?$AAo?$AAf?$AA?5?$AAr?$AAa?$AAn?$AAg?$AAe?$AA?$CC?$AA?$AA@ 0048701c     libohNetCore:OhNet.obj
 0002:00002040       ??_C@_1OG@JCALBKPI@?$AAs?$AAt?$AAd?$AA?3?$AA?3?$AAv?$AAe?$AAc?$AAt?$AAo?$AAr?$AA?$DM?$AAc?$AAl?$AAa?$AAs?$AAs?$AA?5?$AAO?$AAp?$AAe?$AAn?$AAH?$AAo?$AAm?$AAe?$AA?3?$AA?3?$AAN?$AAe?$AAt?$AAw@ 00487040     libohNetCore:OhNet.obj
 0002:00002128       ??_C@_1FG@IBPIFFN@?$AA?$CC?$AAS?$AAt?$AAa?$AAn?$AAd?$AAa?$AAr?$AAd?$AA?5?$AAC?$AA?$CL?$AA?$CL?$AA?5?$AAL?$AAi?$AAb?$AAr?$AAa?$AAr?$AAi?$AAe?$AAs?$AA?5?$AAO?$AAu?$AAt?$AA?5?$AAo?$AAf?$AA?5?$AAR@ 00487128     libohNetCore:OhNet.obj
 0002:00002180       ??_C@_0CE@OFMIGAMM@Standard?5C?$CL?$CL?5Libraries?5Out?5of?5Ra@ 00487180     libohNetCore:OhNet.obj
 0002:000021a4       ??_C@_1DM@LHGCHCBA@?$AAv?$AAe?$AAc?$AAt?$AAo?$AAr?$AA?5?$AAs?$AAu?$AAb?$AAs?$AAc?$AAr?$AAi?$AAp?$AAt?$AA?5?$AAo?$AAu?$AAt?$AA?5?$AAo?$AAf?$AA?5?$AAr?$AAa?$AAn?$AAg?$AAe?$AA?$AA@ 004871a4     libohNetCore:OhNet.obj
 0002:000021e0       ??_C@_1IM@KDKPEFIN@?$AAc?$AA?3?$AA?2?$AAP?$AAr?$AAo?$AAg?$AAr?$AAa?$AAm?$AA?5?$AAF?$AAi?$AAl?$AAe?$AAs?$AA?5?$AA?$CI?$AAx?$AA8?$AA6?$AA?$CJ?$AA?2?$AAM?$AAi?$AAc?$AAr?$AAo?$AAs?$AAo?$AAf?$AAt@ 004871e0     libohNetCore:OhNet.obj
 0002:000022b0       ??_7?$Bws@$0EAB@@OpenHome@@6B@ 004872b0     libohNetCore:Printer.obj
 0002:000025ac       ??_7TimerManager@OpenHome@@6B@ 004875ac     libohNetCore:Timer.obj
 0002:000025bc       ??_7?$QueueSorted@VTimer@OpenHome@@@OpenHome@@6B@ 004875bc     libohNetCore:Timer.obj
 0002:000027b0       ??_7Brn@OpenHome@@6B@      004877b0     libohNetCore:Buffer.obj
 0002:000027bc       ??_7Brh@OpenHome@@6B@      004877bc     libohNetCore:Buffer.obj
 0002:000027c8       ??_7Bwx@OpenHome@@6B@      004877c8     libohNetCore:Buffer.obj
 0002:000027d0       ??_C@_0P@CONMHKFL@BufferOverflow?$AA@ 004877d0     libohNetCore:Buffer.obj
 0002:000027e0       ??_C@_0L@KPHCNFND@BufferFull?$AA@ 004877e0     libohNetCore:Buffer.obj
 0002:000027f0       ??_7Bwn@OpenHome@@6B@      004877f0     libohNetCore:Buffer.obj
 0002:000027fc       ??_7Bwh@OpenHome@@6B@      004877fc     libohNetCore:Buffer.obj
 0002:00002804       ?kOhNetMimeTypeCss@@3QBDB  00487804     libohNetCore:Stack.obj
 0002:00002810       ?kOhNetMimeTypeHtml@@3QBDB 00487810     libohNetCore:Stack.obj
 0002:0000281c       ?kOhNetMimeTypeJs@@3QBDB   0048781c     libohNetCore:Stack.obj
 0002:00002838       ?kOhNetMimeTypeXml@@3QBDB  00487838     libohNetCore:Stack.obj
 0002:00002848       ?kOhNetMimeTypeBmp@@3QBDB  00487848     libohNetCore:Stack.obj
 0002:00002854       ?kOhNetMimeTypeGif@@3QBDB  00487854     libohNetCore:Stack.obj
 0002:00002860       ?kOhNetMimeTypeJpeg@@3QBDB 00487860     libohNetCore:Stack.obj
 0002:0000286c       ?kOhNetMimeTypePng@@3QBDB  0048786c     libohNetCore:Stack.obj
 0002:00002940       ??_C@_1DC@POOIKBAO@?$AAI?$AAT?$AAE?$AAR?$AAA?$AAT?$AAO?$AAR?$AA?5?$AAL?$AAI?$AAS?$AAT?$AA?5?$AAC?$AAO?$AAR?$AAR?$AAU?$AAP?$AAT?$AAE?$AAD?$AA?$CB?$AA?$AA@ 00487940     libohNetCore:Stack.obj
 0002:00002978       ??_C@_1JA@CNICBDKP@?$AAc?$AA?3?$AA?2?$AAP?$AAr?$AAo?$AAg?$AAr?$AAa?$AAm?$AA?5?$AAF?$AAi?$AAl?$AAe?$AAs?$AA?5?$AA?$CI?$AAx?$AA8?$AA6?$AA?$CJ?$AA?2?$AAM?$AAi?$AAc?$AAr?$AAo?$AAs?$AAo?$AAf?$AAt@ 00487978     libohNetCore:Stack.obj
 0002:00002a08       ??_C@_1EK@PPDBPCAN@?$AAm?$AAa?$AAp?$AA?1?$AAs?$AAe?$AAt?$AA?5?$AAe?$AAr?$AAa?$AAs?$AAe?$AA?5?$AAi?$AAt?$AAe?$AAr?$AAa?$AAt?$AAo?$AAr?$AA?5?$AAo?$AAu?$AAt?$AAs?$AAi?$AAd?$AAe?$AA?5?$AAr@ 00487a08     libohNetCore:Stack.obj
 0002:00002a58       ??_C@_1IK@CBDBGEL@?$AAc?$AA?3?$AA?2?$AAP?$AAr?$AAo?$AAg?$AAr?$AAa?$AAm?$AA?5?$AAF?$AAi?$AAl?$AAe?$AAs?$AA?5?$AA?$CI?$AAx?$AA8?$AA6?$AA?$CJ?$AA?2?$AAM?$AAi?$AAc?$AAr?$AAo?$AAs?$AAo?$AAf?$AAt@ 00487a58     libohNetCore:Stack.obj
 0002:00002ae8       ??_C@_1BAC@KDFNAFOI@?$AAs?$AAt?$AAd?$AA?3?$AA?3?$AAv?$AAe?$AAc?$AAt?$AAo?$AAr?$AA?$DM?$AAc?$AAl?$AAa?$AAs?$AAs?$AA?5?$AAO?$AAp?$AAe?$AAn?$AAH?$AAo?$AAm?$AAe?$AA?3?$AA?3?$AAN?$AAe?$AAt?$AA?3@ 00487ae8     libohNetCore:Stack.obj
 0002:00002bf0       ??_C@_1EI@HGIDLLCM@?$AAv?$AAe?$AAc?$AAt?$AAo?$AAr?$AA?5?$AAe?$AAr?$AAa?$AAs?$AAe?$AA?5?$AAi?$AAt?$AAe?$AAr?$AAa?$AAt?$AAo?$AAr?$AA?5?$AAo?$AAu?$AAt?$AAs?$AAi?$AAd?$AAe?$AA?5?$AAr?$AAa@ 00487bf0     libohNetCore:Stack.obj
 0002:00002c38       ??_C@_1CDO@JFIJPCE@?$AAs?$AAt?$AAd?$AA?3?$AA?3?$AA_?$AAT?$AAr?$AAe?$AAe?$AA_?$AAc?$AAo?$AAn?$AAs?$AAt?$AA_?$AAi?$AAt?$AAe?$AAr?$AAa?$AAt?$AAo?$AAr?$AA?$DM?$AAc?$AAl?$AAa?$AAs?$AAs?$AA?5@ 00487c38     libohNetCore:Stack.obj
 0002:00002e78       ??_C@_1EG@EHJFMBHJ@?$AAm?$AAa?$AAp?$AA?1?$AAs?$AAe?$AAt?$AA?5?$AAi?$AAt?$AAe?$AAr?$AAa?$AAt?$AAo?$AAr?$AA?5?$AAn?$AAo?$AAt?$AA?5?$AAi?$AAn?$AAc?$AAr?$AAe?$AAm?$AAe?$AAn?$AAt?$AAa?$AAb@ 00487e78     libohNetCore:Stack.obj
 0002:00002ec0       ??_C@_1CG@JNLFBNGN@?$AA?$CC?$AAi?$AAn?$AAv?$AAa?$AAl?$AAi?$AAd?$AA?5?$AAa?$AAr?$AAg?$AAu?$AAm?$AAe?$AAn?$AAt?$AA?$CC?$AA?$AA@ 00487ec0     libohNetCore:Stack.obj
 0002:00002ee8       ??_C@_1CDO@KJKFHGOB@?$AAs?$AAt?$AAd?$AA?3?$AA?3?$AA_?$AAT?$AAr?$AAe?$AAe?$AA_?$AAc?$AAo?$AAn?$AAs?$AAt?$AA_?$AAi?$AAt?$AAe?$AAr?$AAa?$AAt?$AAo?$AAr?$AA?$DM?$AAc?$AAl?$AAa?$AAs?$AAs?$AA?5@ 00487ee8     libohNetCore:Stack.obj
 0002:00003128       ??_C@_1FO@GJIHNDLM@?$AA?$CC?$AAS?$AAt?$AAa?$AAn?$AAd?$AAa?$AAr?$AAd?$AA?5?$AAC?$AA?$CL?$AA?$CL?$AA?5?$AAL?$AAi?$AAb?$AAr?$AAa?$AAr?$AAi?$AAe?$AAs?$AA?5?$AAI?$AAn?$AAv?$AAa?$AAl?$AAi?$AAd?$AA?5@ 00488128     libohNetCore:Stack.obj
 0002:00003188       ??_C@_0CI@FNPHFCCM@Standard?5C?$CL?$CL?5Libraries?5Invalid?5A@ 00488188     libohNetCore:Stack.obj
 0002:000031b0       ??_C@_1DO@CFEEPGGJ@?$AAm?$AAa?$AAp?$AA?1?$AAs?$AAe?$AAt?$AA?5?$AAi?$AAt?$AAe?$AAr?$AAa?$AAt?$AAo?$AAr?$AAs?$AA?5?$AAi?$AAn?$AAc?$AAo?$AAm?$AAp?$AAa?$AAt?$AAi?$AAb?$AAl?$AAe?$AA?$AA@ 004881b0     libohNetCore:Stack.obj
 0002:000031f0       ??_C@_1BHO@EGFLFDNA@?$AAs?$AAt?$AAd?$AA?3?$AA?3?$AA_?$AAT?$AAr?$AAe?$AAe?$AA_?$AAc?$AAo?$AAn?$AAs?$AAt?$AA_?$AAi?$AAt?$AAe?$AAr?$AAa?$AAt?$AAo?$AAr?$AA?$DM?$AAc?$AAl?$AAa?$AAs?$AAs?$AA?5@ 004881f0     libohNetCore:Stack.obj
 0002:00003370       ??_C@_1BHO@OGKGLKBF@?$AAs?$AAt?$AAd?$AA?3?$AA?3?$AA_?$AAT?$AAr?$AAe?$AAe?$AA_?$AAc?$AAo?$AAn?$AAs?$AAt?$AA_?$AAi?$AAt?$AAe?$AAr?$AAa?$AAt?$AAo?$AAr?$AA?$DM?$AAc?$AAl?$AAa?$AAs?$AAs?$AA?5@ 00488370     libohNetCore:Stack.obj
 0002:000034f0       ??_C@_0BD@OLBABOEK@vector?$DMT?$DO?5too?5long?$AA@ 004884f0     libohNetCore:Stack.obj
 0002:00003508       ??_C@_1BFE@LJAAGJKJ@?$AAs?$AAt?$AAd?$AA?3?$AA?3?$AA_?$AAV?$AAe?$AAc?$AAt?$AAo?$AAr?$AA_?$AAc?$AAo?$AAn?$AAs?$AAt?$AA_?$AAi?$AAt?$AAe?$AAr?$AAa?$AAt?$AAo?$AAr?$AA?$DM?$AAc?$AAl?$AAa?$AAs@ 00488508     libohNetCore:Stack.obj
 0002:00003660       ??_C@_1EM@FKAOCOMF@?$AAv?$AAe?$AAc?$AAt?$AAo?$AAr?$AA?5?$AAi?$AAt?$AAe?$AAr?$AAa?$AAt?$AAo?$AAr?$AA?5?$AA?$CL?$AA?5?$AAo?$AAf?$AAf?$AAs?$AAe?$AAt?$AA?5?$AAo?$AAu?$AAt?$AA?5?$AAo?$AAf?$AA?5@ 00488660     libohNetCore:Stack.obj
 0002:000036b0       ??_C@_1CDM@BDKCLKAO@?$AAs?$AAt?$AAd?$AA?3?$AA?3?$AA_?$AAT?$AAr?$AAe?$AAe?$AA_?$AAc?$AAo?$AAn?$AAs?$AAt?$AA_?$AAi?$AAt?$AAe?$AAr?$AAa?$AAt?$AAo?$AAr?$AA?$DM?$AAc?$AAl?$AAa?$AAs?$AAs?$AA?5@ 004886b0     libohNetCore:Stack.obj
 0002:000038f0       ??_C@_1EI@FHEHNNNM@?$AAm?$AAa?$AAp?$AA?1?$AAs?$AAe?$AAt?$AA?5?$AAi?$AAt?$AAe?$AAr?$AAa?$AAt?$AAo?$AAr?$AA?5?$AAn?$AAo?$AAt?$AA?5?$AAd?$AAe?$AAr?$AAe?$AAf?$AAe?$AAr?$AAe?$AAn?$AAc?$AAa@ 004888f0     libohNetCore:Stack.obj
 0002:00003938       ??_C@_1BHM@PLAJNGCA@?$AAs?$AAt?$AAd?$AA?3?$AA?3?$AA_?$AAT?$AAr?$AAe?$AAe?$AA_?$AAc?$AAo?$AAn?$AAs?$AAt?$AA_?$AAi?$AAt?$AAe?$AAr?$AAa?$AAt?$AAo?$AAr?$AA?$DM?$AAc?$AAl?$AAa?$AAs?$AAs?$AA?5@ 00488938     libohNetCore:Stack.obj
 0002:00003ab4       ??_C@_1CE@IGJMOCCK@?$AAi?$AAn?$AAv?$AAa?$AAl?$AAi?$AAd?$AA?5?$AAo?$AAp?$AAe?$AAr?$AAa?$AAt?$AAo?$AAr?$AA?$DM?$AA?$AA@ 00488ab4     libohNetCore:Stack.obj
 0002:00003ad8       ??_C@_0BE@JONHPENG@map?1set?$DMT?$DO?5too?5long?$AA@ 00488ad8     libohNetCore:Stack.obj
 0002:00003af0       ??_C@_1CDO@PKGKCDOF@?$AAs?$AAt?$AAd?$AA?3?$AA?3?$AA_?$AAT?$AAr?$AAe?$AAe?$AA_?$AAc?$AAo?$AAn?$AAs?$AAt?$AA_?$AAi?$AAt?$AAe?$AAr?$AAa?$AAt?$AAo?$AAr?$AA?$DM?$AAc?$AAl?$AAa?$AAs?$AAs?$AA?5@ 00488af0     libohNetCore:Stack.obj
 0002:00003d30       ??_C@_1EG@OKCGOALM@?$AAm?$AAa?$AAp?$AA?1?$AAs?$AAe?$AAt?$AA?5?$AAi?$AAt?$AAe?$AAr?$AAa?$AAt?$AAo?$AAr?$AA?5?$AAn?$AAo?$AAt?$AA?5?$AAd?$AAe?$AAc?$AAr?$AAe?$AAm?$AAe?$AAn?$AAt?$AAa?$AAb@ 00488d30     libohNetCore:Stack.obj
 0002:00003d78       ??_C@_1BHO@LFGJOPBB@?$AAs?$AAt?$AAd?$AA?3?$AA?3?$AA_?$AAT?$AAr?$AAe?$AAe?$AA_?$AAc?$AAo?$AAn?$AAs?$AAt?$AA_?$AAi?$AAt?$AAe?$AAr?$AAa?$AAt?$AAo?$AAr?$AA?$DM?$AAc?$AAl?$AAa?$AAs?$AAs?$AA?5@ 00488d78     libohNetCore:Stack.obj
 0002:00003ef8       ??_C@_1IM@NNHEMJIG@?$AAc?$AA?3?$AA?2?$AAP?$AAr?$AAo?$AAg?$AAr?$AAa?$AAm?$AA?5?$AAF?$AAi?$AAl?$AAe?$AAs?$AA?5?$AA?$CI?$AAx?$AA8?$AA6?$AA?$CJ?$AA?2?$AAM?$AAi?$AAc?$AAr?$AAo?$AAs?$AAo?$AAf?$AAt@ 00488ef8     libohNetCore:Stack.obj
 0002:00003f84       ??_C@_1CK@EOPGIILJ@?$AAi?$AAn?$AAv?$AAa?$AAl?$AAi?$AAd?$AA?5?$AAn?$AAu?$AAl?$AAl?$AA?5?$AAp?$AAo?$AAi?$AAn?$AAt?$AAe?$AAr?$AA?$AA@ 00488f84     libohNetCore:Stack.obj
 0002:00003fb0       ??_C@_1CO@DGLIKNHI@?$AAi?$AAn?$AAv?$AAa?$AAl?$AAi?$AAd?$AA?5?$AAi?$AAt?$AAe?$AAr?$AAa?$AAt?$AAo?$AAr?$AA?5?$AAr?$AAa?$AAn?$AAg?$AAe?$AA?$AA@ 00488fb0     libohNetCore:Stack.obj
 0002:000053f4       ??_7Socket@OpenHome@@6B@   0048a3f4     libohNetCore:Network.obj
 0002:000053f8       ??_C@_0N@PKFCJHGH@NetworkError?$AA@ 0048a3f8     libohNetCore:Network.obj
 0002:0000540c       ??_7SocketTcp@OpenHome@@6BIReaderSource@1@@ 0048a40c     libohNetCore:Network.obj
 0002:00005420       ??_7SocketTcp@OpenHome@@6BIWriter@1@@ 0048a420     libohNetCore:Network.obj
 0002:00005434       ??_7SocketTcp@OpenHome@@6BSocket@1@@ 0048a434     libohNetCore:Network.obj
 0002:0000543c       ??_7IReaderSource@OpenHome@@6B@ 0048a43c     libohNetCore:Network.obj
 0002:00005450       ??_7IWriter@OpenHome@@6B@  0048a450     libohNetCore:Network.obj
 0002:00005460       ??_C@_0M@EKPFGEJB@WriterError?$AA@ 0048a460     libohNetCore:Network.obj
 0002:0000546c       ??_C@_0M@OKIMMAEM@ReaderError?$AA@ 0048a46c     libohNetCore:Network.obj
 0002:0000547c       ??_7SocketTcpServer@OpenHome@@6B@ 0048a47c     libohNetCore:Network.obj
 0002:00005484       ??_7SocketTcpSession@OpenHome@@6BIReaderSource@1@@ 0048a484     libohNetCore:Network.obj
 0002:00005498       ??_7SocketTcpSession@OpenHome@@6BIWriter@1@@ 0048a498     libohNetCore:Network.obj
 0002:000054ac       ??_7SocketTcpSession@OpenHome@@6BSocket@1@@ 0048a4ac     libohNetCore:Network.obj
 0002:000054b8       ??_7SocketUdp@OpenHome@@6B@ 0048a4b8     libohNetCore:Network.obj
 0002:000054c0       ??_7SocketUdpMulticast@OpenHome@@6B@ 0048a4c0     libohNetCore:Network.obj
 0002:000054c8       ??_7UdpReader@OpenHome@@6B@ 0048a4c8     libohNetCore:Network.obj
 0002:000054dc       ??_7UdpWriter@OpenHome@@6B@ 0048a4dc     libohNetCore:Network.obj
 0002:000054f0       ??_C@_1OO@LKOOOFKI@?$AAs?$AAt?$AAd?$AA?3?$AA?3?$AAv?$AAe?$AAc?$AAt?$AAo?$AAr?$AA?$DM?$AAc?$AAl?$AAa?$AAs?$AAs?$AA?5?$AAO?$AAp?$AAe?$AAn?$AAH?$AAo?$AAm?$AAe?$AA?3?$AA?3?$AAS?$AAo?$AAc?$AAk@ 0048a4f0     libohNetCore:Network.obj
 0002:000055e0       ??_C@_1DA@JIKEAPDO@?$AAv?$AAe?$AAc?$AAt?$AAo?$AAr?$AA?5?$AAe?$AAm?$AAp?$AAt?$AAy?$AA?5?$AAb?$AAe?$AAf?$AAo?$AAr?$AAe?$AA?5?$AAp?$AAo?$AAp?$AA?$AA@ 0048a5e0     libohNetCore:Network.obj
 0002:00005648       ??_C@_1BOI@EOEFLMOE@?$AAs?$AAt?$AAd?$AA?3?$AA?3?$AA_?$AAT?$AAr?$AAe?$AAe?$AA_?$AAc?$AAo?$AAn?$AAs?$AAt?$AA_?$AAi?$AAt?$AAe?$AAr?$AAa?$AAt?$AAo?$AAr?$AA?$DM?$AAc?$AAl?$AAa?$AAs?$AAs?$AA?5@ 0048a648     libohNetCore:NetworkAdapterList.obj
 0002:00005830       ??_C@_1BOI@OOLIFFCB@?$AAs?$AAt?$AAd?$AA?3?$AA?3?$AA_?$AAT?$AAr?$AAe?$AAe?$AA_?$AAc?$AAo?$AAn?$AAs?$AAt?$AA_?$AAi?$AAt?$AAe?$AAr?$AAa?$AAt?$AAo?$AAr?$AA?$DM?$AAc?$AAl?$AAa?$AAs?$AAs?$AA?5@ 0048a830     libohNetCore:NetworkAdapterList.obj
 0002:00005a18       ??_C@_1BOG@PFAGBIKH@?$AAs?$AAt?$AAd?$AA?3?$AA?3?$AA_?$AAT?$AAr?$AAe?$AAe?$AA_?$AAc?$AAo?$AAn?$AAs?$AAt?$AA_?$AAi?$AAt?$AAe?$AAr?$AAa?$AAt?$AAo?$AAr?$AA?$DM?$AAc?$AAl?$AAa?$AAs?$AAs?$AA?5@ 0048aa18     libohNetCore:NetworkAdapterList.obj
 0002:00005c00       ??_C@_1BOI@LNHHAACF@?$AAs?$AAt?$AAd?$AA?3?$AA?3?$AA_?$AAT?$AAr?$AAe?$AAe?$AA_?$AAc?$AAo?$AAn?$AAs?$AAt?$AA_?$AAi?$AAt?$AAe?$AAr?$AAa?$AAt?$AAo?$AAr?$AA?$DM?$AAc?$AAl?$AAa?$AAs?$AAs?$AA?5@ 0048ac00     libohNetCore:NetworkAdapterList.obj
 0002:00005e60       ??_C@_0L@OOOPLAPK@QueueEmpty?$AA@ 0048ae60     libohNetCore:Queue.obj
 0002:00005e70       ??_7QueueSortedBase@OpenHome@@6B@ 0048ae70     libohNetCore:Queue.obj
 0002:00006358       ??_7SsdpSocketReader@Net@OpenHome@@6BIReaderSource@2@@ 0048b358     libohNetCore:Discovery.obj
 0002:0000636c       ??_7SsdpSocketReader@Net@OpenHome@@6BSocketUdpMulticast@2@@ 0048b36c     libohNetCore:Discovery.obj
 0002:00006374       ??_7SsdpListener@Net@OpenHome@@6B@ 0048b374     libohNetCore:Discovery.obj
 0002:00006380       ??_7SsdpHeaderCacheControl@Net@OpenHome@@6B@ 0048b380     libohNetCore:Discovery.obj
 0002:00006394       ??_7HttpHeaderLocation@OpenHome@@6B@ 0048b394     libohNetCore:Discovery.obj
 0002:000063a8       ??_7SsdpHeaderServer@Net@OpenHome@@6B@ 0048b3a8     libohNetCore:Discovery.obj
 0002:000063bc       ??_7SsdpHeaderSt@Net@OpenHome@@6B@ 0048b3bc     libohNetCore:Discovery.obj
 0002:000063d0       ??_7SsdpHeaderUsn@Net@OpenHome@@6B@ 0048b3d0     libohNetCore:Discovery.obj
 0002:000063e4       ??_7IHttpHeader@OpenHome@@6B@ 0048b3e4     libohNetCore:Discovery.obj
 0002:000063f8       ??_7SsdpListenerMulticast@Net@OpenHome@@6B@ 0048b3f8     libohNetCore:Discovery.obj
 0002:00006404       ??_7SsdpHeaderHost@Net@OpenHome@@6B@ 0048b404     libohNetCore:Discovery.obj
 0002:00006418       ??_7SsdpHeaderMan@Net@OpenHome@@6B@ 0048b418     libohNetCore:Discovery.obj
 0002:0000642c       ??_7SsdpHeaderMx@Net@OpenHome@@6B@ 0048b42c     libohNetCore:Discovery.obj
 0002:00006440       ??_7SsdpHeaderNt@Net@OpenHome@@6B@ 0048b440     libohNetCore:Discovery.obj
 0002:00006454       ??_7SsdpHeaderNts@Net@OpenHome@@6B@ 0048b454     libohNetCore:Discovery.obj
 0002:00006468       ??_7IReader@OpenHome@@6B@  0048b468     libohNetCore:Discovery.obj
 0002:0000647c       ??_C@_04KNJCAJOB@SSDM?$AA@ 0048b47c     libohNetCore:Discovery.obj
 0002:00006488       ??_7SsdpListenerUnicast@Net@OpenHome@@6B@ 0048b488     libohNetCore:Discovery.obj
 0002:00006494       ??_7SsdpHeaderExt@Net@OpenHome@@6B@ 0048b494     libohNetCore:Discovery.obj
 0002:000064a8       ??_7IWriterHttpMethod@OpenHome@@6B@ 0048b4a8     libohNetCore:Discovery.obj
 0002:000064b4       ??_7IWriterHttpHeader@OpenHome@@6B@ 0048b4b4     libohNetCore:Discovery.obj
 0002:000064d4       ??_7IWriterAscii@OpenHome@@6B@ 0048b4d4     libohNetCore:Discovery.obj
 0002:00006518       ??_7?$Sws@$0EAA@@OpenHome@@6BIWriter@1@@ 0048b518     libohNetCore:Discovery.obj
 0002:0000652c       ??_7?$Sws@$0EAA@@OpenHome@@6BSxx@1@@ 0048b52c     libohNetCore:Discovery.obj
 0002:00006538       ??_C@_1BFC@MEFHADCK@?$AAs?$AAt?$AAd?$AA?3?$AA?3?$AAv?$AAe?$AAc?$AAt?$AAo?$AAr?$AA?$DM?$AAc?$AAl?$AAa?$AAs?$AAs?$AA?5?$AAO?$AAp?$AAe?$AAn?$AAH?$AAo?$AAm?$AAe?$AA?3?$AA?3?$AAN?$AAe?$AAt?$AA?3@ 0048b538     libohNetCore:Discovery.obj
 0002:00006690       ??_C@_1BFG@DKMCFOOJ@?$AAs?$AAt?$AAd?$AA?3?$AA?3?$AAv?$AAe?$AAc?$AAt?$AAo?$AAr?$AA?$DM?$AAc?$AAl?$AAa?$AAs?$AAs?$AA?5?$AAO?$AAp?$AAe?$AAn?$AAH?$AAo?$AAm?$AAe?$AA?3?$AA?3?$AAN?$AAe?$AAt?$AA?3@ 0048b690     libohNetCore:Discovery.obj
 0002:000067ec       ??_7?$Srs@$0EAA@@OpenHome@@6BIReader@1@@ 0048b7ec     libohNetCore:Discovery.obj
 0002:00006804       ??_7?$Srs@$0EAA@@OpenHome@@6BSxx@1@@ 0048b804     libohNetCore:Discovery.obj
 0002:00006810       ??_C@_1BKC@MFHILGBM@?$AAs?$AAt?$AAd?$AA?3?$AA?3?$AA_?$AAV?$AAe?$AAc?$AAt?$AAo?$AAr?$AA_?$AAc?$AAo?$AAn?$AAs?$AAt?$AA_?$AAi?$AAt?$AAe?$AAr?$AAa?$AAt?$AAo?$AAr?$AA?$DM?$AAc?$AAl?$AAa?$AAs@ 0048b810     libohNetCore:Discovery.obj
 0002:000069b8       ??_C@_1EG@FOHJJHAC@?$AAv?$AAe?$AAc?$AAt?$AAo?$AAr?$AA?5?$AAi?$AAt?$AAe?$AAr?$AAa?$AAt?$AAo?$AAr?$AA?5?$AAn?$AAo?$AAt?$AA?5?$AAd?$AAe?$AAr?$AAe?$AAf?$AAe?$AAr?$AAe?$AAn?$AAc?$AAa?$AAb@ 0048b9b8     libohNetCore:Discovery.obj
 0002:00006a00       ??_C@_1BKG@ELBCJCGE@?$AAs?$AAt?$AAd?$AA?3?$AA?3?$AA_?$AAV?$AAe?$AAc?$AAt?$AAo?$AAr?$AA_?$AAc?$AAo?$AAn?$AAs?$AAt?$AA_?$AAi?$AAt?$AAe?$AAr?$AAa?$AAt?$AAo?$AAr?$AA?$DM?$AAc?$AAl?$AAa?$AAs@ 0048ba00     libohNetCore:Discovery.obj
 0002:00006ba8       ??_C@_1BKE@HIBKHFAG@?$AAs?$AAt?$AAd?$AA?3?$AA?3?$AA_?$AAV?$AAe?$AAc?$AAt?$AAo?$AAr?$AA_?$AAc?$AAo?$AAn?$AAs?$AAt?$AA_?$AAi?$AAt?$AAe?$AAr?$AAa?$AAt?$AAo?$AAr?$AA?$DM?$AAc?$AAl?$AAa?$AAs@ 0048bba8     libohNetCore:Discovery.obj
 0002:00006d50       ??_C@_1EE@EJDKCLKB@?$AAv?$AAe?$AAc?$AAt?$AAo?$AAr?$AA?5?$AAi?$AAt?$AAe?$AAr?$AAa?$AAt?$AAo?$AAr?$AA?5?$AAn?$AAo?$AAt?$AA?5?$AAi?$AAn?$AAc?$AAr?$AAe?$AAm?$AAe?$AAn?$AAt?$AAa?$AAb?$AAl@ 0048bd50     libohNetCore:Discovery.obj
 0002:00006d98       ??_C@_1BJM@IABICBIB@?$AAs?$AAt?$AAd?$AA?3?$AA?3?$AA_?$AAV?$AAe?$AAc?$AAt?$AAo?$AAr?$AA_?$AAc?$AAo?$AAn?$AAs?$AAt?$AA_?$AAi?$AAt?$AAe?$AAr?$AAa?$AAt?$AAo?$AAr?$AA?$DM?$AAc?$AAl?$AAa?$AAs@ 0048bd98     libohNetCore:Discovery.obj
 0002:00006f34       ??_C@_1DM@HINDPMBP@?$AAv?$AAe?$AAc?$AAt?$AAo?$AAr?$AA?5?$AAi?$AAt?$AAe?$AAr?$AAa?$AAt?$AAo?$AAr?$AAs?$AA?5?$AAi?$AAn?$AAc?$AAo?$AAm?$AAp?$AAa?$AAt?$AAi?$AAb?$AAl?$AAe?$AA?$AA@ 0048bf34     libohNetCore:Discovery.obj
 0002:00006f70       ??_C@_1BKI@KDPPOMED@?$AAs?$AAt?$AAd?$AA?3?$AA?3?$AA_?$AAV?$AAe?$AAc?$AAt?$AAo?$AAr?$AA_?$AAc?$AAo?$AAn?$AAs?$AAt?$AA_?$AAi?$AAt?$AAe?$AAr?$AAa?$AAt?$AAo?$AAr?$AA?$DM?$AAc?$AAl?$AAa?$AAs@ 0048bf70     libohNetCore:Discovery.obj
 0002:00007118       ??_C@_1BKA@BDMGFPIO@?$AAs?$AAt?$AAd?$AA?3?$AA?3?$AA_?$AAV?$AAe?$AAc?$AAt?$AAo?$AAr?$AA_?$AAc?$AAo?$AAn?$AAs?$AAt?$AA_?$AAi?$AAt?$AAe?$AAr?$AAa?$AAt?$AAo?$AAr?$AA?$DM?$AAc?$AAl?$AAa?$AAs@ 0048c118     libohNetCore:Discovery.obj
 0002:000072bc       ??_7?$Bws@$0DOI@@OpenHome@@6B@ 0048c2bc     libohNetCore:Discovery.obj
 0002:000072c8       ??_7?$Bws@$0EA@@OpenHome@@6B@ 0048c2c8     libohNetCore:Discovery.obj
 0002:00007848       ??_C@_0L@GJJHGOGO@AsciiError?$AA@ 0048c848     libohNetCore:Ascii.obj
 0002:00007858       ??_7ReaderAscii@OpenHome@@6B@ 0048c858     libohNetCore:Ascii.obj
 0002:00007874       ??_7WriterAscii@OpenHome@@6B@ 0048c874     libohNetCore:Ascii.obj
 0002:000078b8       ??_7?$Bws@$09@OpenHome@@6B@ 0048c8b8     libohNetCore:Ascii.obj
 0002:000078c4       ??_7?$Bws@$0BE@@OpenHome@@6B@ 0048c8c4     libohNetCore:Ascii.obj
 0002:000078d0       ??_7?$Bws@$0L@@OpenHome@@6B@ 0048c8d0     libohNetCore:Ascii.obj
 0002:000078dc       ??_7?$Bws@$07@OpenHome@@6B@ 0048c8dc     libohNetCore:Ascii.obj
 0002:000078e8       ??_7?$Bws@$01@OpenHome@@6B@ 0048c8e8     libohNetCore:Ascii.obj
 0002:000080ac       ??_C@_09LLBGNKEL@HttpError?$AA@ 0048d0ac     libohNetCore:Http.obj
 0002:000080bc       ??_7ReaderHttpResponse@OpenHome@@6B@ 0048d0bc     libohNetCore:Http.obj
 0002:000080c4       ??_7WriterHttpField@OpenHome@@6B@ 0048d0c4     libohNetCore:Http.obj
 0002:00008108       ??_7WriterHttpHeader@OpenHome@@6B@ 0048d108     libohNetCore:Http.obj
 0002:00008124       ??_7WriterHttpRequest@OpenHome@@6BIWriterHttpMethod@1@@ 0048d124     libohNetCore:Http.obj
 0002:00008130       ??_7WriterHttpRequest@OpenHome@@6BWriterHttpHeader@1@@ 0048d130     libohNetCore:Http.obj
 0002:0000814c       ??_7WriterHttpResponse@OpenHome@@6BIWriterHttpStatus@1@@ 0048d14c     libohNetCore:Http.obj
 0002:00008158       ??_7WriterHttpResponse@OpenHome@@6BWriterHttpHeader@1@@ 0048d158     libohNetCore:Http.obj
 0002:00008174       ??_7IWriterHttpStatus@OpenHome@@6B@ 0048d174     libohNetCore:Http.obj
 0002:00008180       ??_7HttpHeader@OpenHome@@6B@ 0048d180     libohNetCore:Http.obj
 0002:00008194       ??_7WriterHttpChunked@OpenHome@@6B@ 0048d194     libohNetCore:Http.obj
 0002:000081a8       ??_C@_1NK@KMBABFAN@?$AAs?$AAt?$AAd?$AA?3?$AA?3?$AAv?$AAe?$AAc?$AAt?$AAo?$AAr?$AA?$DM?$AAc?$AAl?$AAa?$AAs?$AAs?$AA?5?$AAO?$AAp?$AAe?$AAn?$AAH?$AAo?$AAm?$AAe?$AA?3?$AA?3?$AAI?$AAH?$AAt?$AAt@ 0048d1a8     libohNetCore:Http.obj
 0002:00008288       ??_C@_1NC@JMMDDDNI@?$AAs?$AAt?$AAd?$AA?3?$AA?3?$AAv?$AAe?$AAc?$AAt?$AAo?$AAr?$AA?$DM?$AAc?$AAl?$AAa?$AAs?$AAs?$AA?5?$AAO?$AAp?$AAe?$AAn?$AAH?$AAo?$AAm?$AAe?$AA?3?$AA?3?$AAB?$AAr?$AAx?$AA?5@ 0048d288     libohNetCore:Http.obj
 0002:00008360       ??_7?$Sws@$0BHHA@@OpenHome@@6BIWriter@1@@ 0048d360     libohNetCore:Http.obj
 0002:00008374       ??_7?$Sws@$0BHHA@@OpenHome@@6BSxx@1@@ 0048d374     libohNetCore:Http.obj
 0002:00008380       ??_7?$Bws@$0MI@@OpenHome@@6B@ 0048d380     libohNetCore:Http.obj
 0002:0000838c       ??_7?$Bws@$0GE@@OpenHome@@6B@ 0048d38c     libohNetCore:Http.obj
 0002:00008398       ??_7?$Bws@$0BL@@OpenHome@@6B@ 0048d398     libohNetCore:Http.obj
 0002:000083a4       ??_7?$Bws@$0CP@@OpenHome@@6B@ 0048d3a4     libohNetCore:Http.obj
 0002:000083b0       ??_7?$Bws@$0BA@@OpenHome@@6B@ 0048d3b0     libohNetCore:Http.obj
 0002:000083c3       ?kUrnSeparator@Ssdp@Net@OpenHome@@2EB 0048d3c3     libohNetCore:Ssdp.obj
 0002:00008478       ?kMulticastPort@Ssdp@Net@OpenHome@@2IB 0048d478     libohNetCore:Ssdp.obj
 0002:0000885c       ??_7Sxx@OpenHome@@6B@      0048d85c     libohNetCore:Stream.obj
 0002:00008868       ??_7Srx@OpenHome@@6BIReader@1@@ 0048d868     libohNetCore:Stream.obj
 0002:00008880       ??_7Srx@OpenHome@@6BSxx@1@@ 0048d880     libohNetCore:Stream.obj
 0002:0000888c       ??_7Srd@OpenHome@@6BIReader@1@@ 0048d88c     libohNetCore:Stream.obj
 0002:000088a4       ??_7Srd@OpenHome@@6BSxx@1@@ 0048d8a4     libohNetCore:Stream.obj
 0002:000088b0       ??_7Swx@OpenHome@@6BIWriter@1@@ 0048d8b0     libohNetCore:Stream.obj
 0002:000088c4       ??_7Swx@OpenHome@@6BSxx@1@@ 0048d8c4     libohNetCore:Stream.obj
 0002:000088d0       ??_7Swd@OpenHome@@6BIWriter@1@@ 0048d8d0     libohNetCore:Stream.obj
 0002:000088e4       ??_7Swd@OpenHome@@6BSxx@1@@ 0048d8e4     libohNetCore:Stream.obj
 0002:000088f0       ??_7Swp@OpenHome@@6BIWriter@1@@ 0048d8f0     libohNetCore:Stream.obj
 0002:00008904       ??_7Swp@OpenHome@@6BSxx@1@@ 0048d904     libohNetCore:Stream.obj
 0002:00008910       ??_7ReaderBuffer@OpenHome@@6B@ 0048d910     libohNetCore:Stream.obj
 0002:00008928       ??_7WriterBuffer@OpenHome@@6B@ 0048d928     libohNetCore:Stream.obj
 0002:0000893c       ??_7WriterBwh@OpenHome@@6B@ 0048d93c     libohNetCore:Stream.obj
 0002:00008978       ??_7invalid_argument@std@@6B@ 0048d978     libcpmtd:xthrow.obj
 0002:00008984       ??_7logic_error@std@@6B@   0048d984     libcpmtd:xthrow.obj
 0002:00008990       ??_7length_error@std@@6B@  0048d990     libcpmtd:xthrow.obj
 0002:0000899c       ??_7out_of_range@std@@6B@  0048d99c     libcpmtd:xthrow.obj
 0002:000089a8       ??_7overflow_error@std@@6B@ 0048d9a8     libcpmtd:xthrow.obj
 0002:000089b4       ??_7runtime_error@std@@6B@ 0048d9b4     libcpmtd:xthrow.obj
 0002:000089bc       ?ProcessDetach@NativeDll@<CrtImplementationDetails>@@0IB 0048d9bc     LIBCMTD:_trnsctrl_.obj
 0002:000089c0       ?ProcessAttach@NativeDll@<CrtImplementationDetails>@@0IB 0048d9c0     LIBCMTD:_trnsctrl_.obj
 0002:000089c4       ?ThreadAttach@NativeDll@<CrtImplementationDetails>@@0IB 0048d9c4     LIBCMTD:_trnsctrl_.obj
 0002:000089c8       ?ThreadDetach@NativeDll@<CrtImplementationDetails>@@0IB 0048d9c8     LIBCMTD:_trnsctrl_.obj
 0002:000089cc       ?ProcessVerifier@NativeDll@<CrtImplementationDetails>@@0IB 0048d9cc     LIBCMTD:_trnsctrl_.obj
 0002:000089d4       ??_7type_info@@6B@         0048d9d4     LIBCMTD:typinfo.obj
 0002:000089d8       ??_C@_1GE@BDAODJCD@?$AAf?$AA?3?$AA?2?$AAd?$AAd?$AA?2?$AAv?$AAc?$AAt?$AAo?$AAo?$AAl?$AAs?$AA?2?$AAc?$AAr?$AAt?$AA_?$AAb?$AAl?$AAd?$AA?2?$AAs?$AAe?$AAl?$AAf?$AA_?$AAx?$AA8?$AA6?$AA?2?$AAc@ 0048d9d8     LIBCMTD:dbgdel.obj
 0002:00008a40       ??_C@_1EO@LHDAJOCM@?$AA_?$AAB?$AAL?$AAO?$AAC?$AAK?$AA_?$AAT?$AAY?$AAP?$AAE?$AA_?$AAI?$AAS?$AA_?$AAV?$AAA?$AAL?$AAI?$AAD?$AA?$CI?$AAp?$AAH?$AAe?$AAa?$AAd?$AA?9?$AA?$DO?$AAn?$AAB?$AAl?$AAo@ 0048da40     LIBCMTD:dbgdel.obj
 0002:00008ab0       ??_C@_15IABLJNFO@?$AA?6?$AA?6?$AA?$AA@ 0048dab0     LIBCMTD:wassert.obj
 0002:00008ab8       ??_C@_13LBAGMAIH@?$AA?6?$AA?$AA@ 0048dab8     LIBCMTD:wassert.obj
 0002:00008abc       ??_C@_17LGKOMLJ@?$AA?4?$AA?4?$AA?4?$AA?$AA@ 0048dabc     LIBCMTD:wassert.obj
 0002:00008ac8       ??_C@_1EK@MBDPDCGA@?$AAM?$AAi?$AAc?$AAr?$AAo?$AAs?$AAo?$AAf?$AAt?$AA?5?$AAV?$AAi?$AAs?$AAu?$AAa?$AAl?$AA?5?$AAC?$AA?$CL?$AA?$CL?$AA?5?$AAR?$AAu?$AAn?$AAt?$AAi?$AAm?$AAe?$AA?5?$AAL?$AAi?$AAb@ 0048dac8     LIBCMTD:wassert.obj
 0002:00008b18       ??_C@_1HK@POCJMFGK@?$AA?$CI?$AAP?$AAr?$AAe?$AAs?$AAs?$AA?5?$AAR?$AAe?$AAt?$AAr?$AAy?$AA?5?$AAt?$AAo?$AA?5?$AAd?$AAe?$AAb?$AAu?$AAg?$AA?5?$AAt?$AAh?$AAe?$AA?5?$AAa?$AAp?$AAp?$AAl?$AAi?$AAc@ 0048db18     LIBCMTD:wassert.obj
 0002:00008b98       ??_C@_1LO@HBAMOOPN@?$AAw?$AAc?$AAs?$AAc?$AAa?$AAt?$AA_?$AAs?$AA?$CI?$AAa?$AAs?$AAs?$AAe?$AAr?$AAt?$AAb?$AAu?$AAf?$AA?0?$AA?5?$AA?$CI?$AA6?$AA0?$AA?5?$AA?$CK?$AA?5?$AA9?$AA?$CJ?$AA?0?$AA?5?$AAL?$AA?$CC@ 0048db98     LIBCMTD:wassert.obj
 0002:00008c58       ??_C@_1FG@GMPCGFKH@?$AAw?$AAc?$AAs?$AAc?$AAa?$AAt?$AA_?$AAs?$AA?$CI?$AAa?$AAs?$AAs?$AAe?$AAr?$AAt?$AAb?$AAu?$AAf?$AA?0?$AA?5?$AA?$CI?$AA6?$AA0?$AA?5?$AA?$CK?$AA?5?$AA9?$AA?$CJ?$AA?0?$AA?5?$AAd?$AAb@ 0048dc58     LIBCMTD:wassert.obj
 0002:00008cb0       ??_C@_1OA@EGMLFBHJ@?$AAF?$AAo?$AAr?$AA?5?$AAi?$AAn?$AAf?$AAo?$AAr?$AAm?$AAa?$AAt?$AAi?$AAo?$AAn?$AA?5?$AAo?$AAn?$AA?5?$AAh?$AAo?$AAw?$AA?5?$AAy?$AAo?$AAu?$AAr?$AA?5?$AAp?$AAr?$AAo?$AAg@ 0048dcb0     LIBCMTD:wassert.obj
 0002:00008d90       ??_C@_1BCO@FMFFDPPF@?$AAw?$AAc?$AAs?$AAc?$AAa?$AAt?$AA_?$AAs?$AA?$CI?$AAa?$AAs?$AAs?$AAe?$AAr?$AAt?$AAb?$AAu?$AAf?$AA?0?$AA?5?$AA?$CI?$AA6?$AA0?$AA?5?$AA?$CK?$AA?5?$AA9?$AA?$CJ?$AA?0?$AA?5?$AAL?$AA?$CC@ 0048dd90     LIBCMTD:wassert.obj
 0002:00008ec0       ??_C@_1EM@MBEKCGIC@?$AAw?$AAc?$AAs?$AAc?$AAa?$AAt?$AA_?$AAs?$AA?$CI?$AA?5?$AAa?$AAs?$AAs?$AAe?$AAr?$AAt?$AAb?$AAu?$AAf?$AA?0?$AA?5?$AA?$CI?$AA6?$AA0?$AA?5?$AA?$CK?$AA?5?$AA9?$AA?$CJ?$AA?0?$AA?5?$AAe@ 0048dec0     LIBCMTD:wassert.obj
 0002:00008f10       ??_C@_1CHM@CEIMNDLH@?$AAw?$AAc?$AAs?$AAn?$AAc?$AAa?$AAt?$AA_?$AAs?$AA?$CI?$AA?5?$AAa?$AAs?$AAs?$AAe?$AAr?$AAt?$AAb?$AAu?$AAf?$AA?0?$AA?5?$AA?$CI?$AA6?$AA0?$AA?5?$AA?$CK?$AA?5?$AA9?$AA?$CJ?$AA?0?$AA?5@ 0048df10     LIBCMTD:wassert.obj
 0002:0000918c       ??_C@_1BK@PEDCIPMA@?$AAE?$AAx?$AAp?$AAr?$AAe?$AAs?$AAs?$AAi?$AAo?$AAn?$AA?3?$AA?5?$AA?$AA@ 0048e18c     LIBCMTD:wassert.obj
 0002:000091a8       ??_C@_1GC@HOBBPFHJ@?$AAw?$AAc?$AAs?$AAc?$AAa?$AAt?$AA_?$AAs?$AA?$CI?$AA?5?$AAa?$AAs?$AAs?$AAe?$AAr?$AAt?$AAb?$AAu?$AAf?$AA?0?$AA?5?$AA?$CI?$AA6?$AA0?$AA?5?$AA?$CK?$AA?5?$AA9?$AA?$CJ?$AA?0?$AA?5?$AAL@ 0048e1a8     LIBCMTD:wassert.obj
 0002:00009210       ??_C@_1KG@CFEIMPNH@?$AA_?$AAi?$AAt?$AAo?$AAw?$AA_?$AAs?$AA?$CI?$AA?5?$AAl?$AAi?$AAn?$AAe?$AAn?$AAo?$AA?0?$AA?5?$AAa?$AAs?$AAs?$AAe?$AAr?$AAt?$AAb?$AAu?$AAf?$AA?5?$AA?$CL?$AA?5?$AAw?$AAc?$AAs@ 0048e210     LIBCMTD:wassert.obj
 0002:000092b8       ??_C@_1O@KCAFKHJE@?$AAL?$AAi?$AAn?$AAe?$AA?3?$AA?5?$AA?$AA@ 0048e2b8     LIBCMTD:wassert.obj
 0002:000092c8       ??_C@_1FG@NHDGJLMI@?$AAw?$AAc?$AAs?$AAc?$AAa?$AAt?$AA_?$AAs?$AA?$CI?$AA?5?$AAa?$AAs?$AAs?$AAe?$AAr?$AAt?$AAb?$AAu?$AAf?$AA?0?$AA?5?$AA?$CI?$AA6?$AA0?$AA?5?$AA?$CK?$AA?5?$AA9?$AA?$CJ?$AA?0?$AA?5?$AAL@ 0048e2c8     LIBCMTD:wassert.obj
 0002:00009320       ??_C@_1FE@IIFBBPFI@?$AAw?$AAc?$AAs?$AAc?$AAa?$AAt?$AA_?$AAs?$AA?$CI?$AA?5?$AAa?$AAs?$AAs?$AAe?$AAr?$AAt?$AAb?$AAu?$AAf?$AA?0?$AA?5?$AA?$CI?$AA6?$AA0?$AA?5?$AA?$CK?$AA?5?$AA9?$AA?$CJ?$AA?0?$AA?5?$AAf@ 0048e320     LIBCMTD:wassert.obj
 0002:00009378       ??_C@_1IC@CFFJBMAD@?$AAw?$AAc?$AAs?$AAc?$AAa?$AAt?$AA_?$AAs?$AA?$CI?$AA?5?$AAa?$AAs?$AAs?$AAe?$AAr?$AAt?$AAb?$AAu?$AAf?$AA?0?$AA?5?$AA?$CI?$AA6?$AA0?$AA?5?$AA?$CK?$AA?5?$AA9?$AA?$CJ?$AA?0?$AA?5?$AAp@ 0048e378     LIBCMTD:wassert.obj
 0002:00009400       ??_C@_1HG@OJJMBIKO@?$AAw?$AAc?$AAs?$AAn?$AAc?$AAa?$AAt?$AA_?$AAs?$AA?$CI?$AA?5?$AAa?$AAs?$AAs?$AAe?$AAr?$AAt?$AAb?$AAu?$AAf?$AA?0?$AA?5?$AA?$CI?$AA6?$AA0?$AA?5?$AA?$CK?$AA?5?$AA9?$AA?$CJ?$AA?0?$AA?5@ 0048e400     LIBCMTD:wassert.obj
 0002:00009478       ??_C@_1GO@BIHLMMND@?$AAw?$AAc?$AAs?$AAn?$AAc?$AAa?$AAt?$AA_?$AAs?$AA?$CI?$AA?5?$AAa?$AAs?$AAs?$AAe?$AAr?$AAt?$AAb?$AAu?$AAf?$AA?0?$AA?5?$AA?$CI?$AA6?$AA0?$AA?5?$AA?$CK?$AA?5?$AA9?$AA?$CJ?$AA?0?$AA?5@ 0048e478     LIBCMTD:wassert.obj
 0002:000094e8       ??_C@_1FO@IJLLDBEB@?$AAw?$AAc?$AAs?$AAc?$AAa?$AAt?$AA_?$AAs?$AA?$CI?$AA?5?$AAa?$AAs?$AAs?$AAe?$AAr?$AAt?$AAb?$AAu?$AAf?$AA?0?$AA?5?$AA?$CI?$AA6?$AA0?$AA?5?$AA?$CK?$AA?5?$AA9?$AA?$CJ?$AA?0?$AA?5?$AAp@ 0048e4e8     LIBCMTD:wassert.obj
 0002:00009548       ??_C@_1FG@CLEECKIJ@?$AAw?$AAc?$AAs?$AAc?$AAa?$AAt?$AA_?$AAs?$AA?$CI?$AA?5?$AAa?$AAs?$AAs?$AAe?$AAr?$AAt?$AAb?$AAu?$AAf?$AA?0?$AA?5?$AA?$CI?$AA6?$AA0?$AA?5?$AA?$CK?$AA?5?$AA9?$AA?$CJ?$AA?0?$AA?5?$AAd@ 0048e548     LIBCMTD:wassert.obj
 0002:000095a0       ??_C@_1GG@PMHOPJKA@?$AAw?$AAc?$AAs?$AAn?$AAc?$AAa?$AAt?$AA_?$AAs?$AA?$CI?$AA?5?$AAa?$AAs?$AAs?$AAe?$AAr?$AAt?$AAb?$AAu?$AAf?$AA?0?$AA?5?$AA?$CI?$AA6?$AA0?$AA?5?$AA?$CK?$AA?5?$AA9?$AA?$CJ?$AA?0?$AA?5@ 0048e5a0     LIBCMTD:wassert.obj
 0002:00009608       ??_C@_1O@HEMHKNDC@?$AAF?$AAi?$AAl?$AAe?$AA?3?$AA?5?$AA?$AA@ 0048e608     LIBCMTD:wassert.obj
 0002:00009618       ??_C@_1FG@HIDBOJF@?$AAw?$AAc?$AAs?$AAc?$AAa?$AAt?$AA_?$AAs?$AA?$CI?$AA?5?$AAa?$AAs?$AAs?$AAe?$AAr?$AAt?$AAb?$AAu?$AAf?$AA?0?$AA?5?$AA?$CI?$AA6?$AA0?$AA?5?$AA?$CK?$AA?5?$AA9?$AA?$CJ?$AA?0?$AA?5?$AAL@ 0048e618     LIBCMTD:wassert.obj
 0002:00009670       ??_C@_1FC@FFKGGIKO@?$AAw?$AAc?$AAs?$AAc?$AAa?$AAt?$AA_?$AAs?$AA?$CI?$AA?5?$AAa?$AAs?$AAs?$AAe?$AAr?$AAt?$AAb?$AAu?$AAf?$AA?0?$AA?5?$AA?$CI?$AA6?$AA0?$AA?5?$AA?$CK?$AA?5?$AA9?$AA?$CJ?$AA?0?$AA?5?$AAn@ 0048e670     LIBCMTD:wassert.obj
 0002:000096c8       ??_C@_1EK@BDNABPEK@?$AAw?$AAc?$AAs?$AAc?$AAa?$AAt?$AA_?$AAs?$AA?$CI?$AA?5?$AAa?$AAs?$AAs?$AAe?$AAr?$AAt?$AAb?$AAu?$AAf?$AA?0?$AA?5?$AA?$CI?$AA6?$AA0?$AA?5?$AA?$CK?$AA?5?$AA9?$AA?$CJ?$AA?0?$AA?5?$AAp@ 0048e6c8     LIBCMTD:wassert.obj
 0002:00009718       ??_C@_1HK@JKBDGMGN@?$AAw?$AAc?$AAs?$AAn?$AAc?$AAp?$AAy?$AA_?$AAs?$AA?$CI?$AA?5?$AAp?$AAc?$AAh?$AA?0?$AA?5?$AA?$CI?$AA2?$AA6?$AA0?$AA?5?$AA?$CL?$AA?5?$AA1?$AA?$CJ?$AA?5?$AA?9?$AA?5?$AA?$CI?$AAp?$AAc?$AAh@ 0048e718     LIBCMTD:wassert.obj
 0002:00009794       ??_C@_1CO@EAEJAADC@?$AA?$DM?$AAp?$AAr?$AAo?$AAg?$AAr?$AAa?$AAm?$AA?5?$AAn?$AAa?$AAm?$AAe?$AA?5?$AAu?$AAn?$AAk?$AAn?$AAo?$AAw?$AAn?$AA?$DO?$AA?$AA@ 0048e794     LIBCMTD:wassert.obj
 0002:000097c8       ??_C@_1HA@EPFCONEE@?$AAw?$AAc?$AAs?$AAc?$AAp?$AAy?$AA_?$AAs?$AA?$CI?$AA?5?$AAp?$AAr?$AAo?$AAg?$AAn?$AAa?$AAm?$AAe?$AA?0?$AA?5?$AA2?$AA6?$AA0?$AA?5?$AA?$CL?$AA?5?$AA1?$AA?0?$AA?5?$AAL?$AA?$CC?$AA?$DM@ 0048e7c8     LIBCMTD:wassert.obj
 0002:00009838       ??_C@_1BE@PHKBBGE@?$AAP?$AAr?$AAo?$AAg?$AAr?$AAa?$AAm?$AA?3?$AA?5?$AA?$AA@ 0048e838     LIBCMTD:wassert.obj
 0002:00009850       ??_C@_1FM@LKICECBD@?$AAw?$AAc?$AAs?$AAc?$AAa?$AAt?$AA_?$AAs?$AA?$CI?$AA?5?$AAa?$AAs?$AAs?$AAe?$AAr?$AAt?$AAb?$AAu?$AAf?$AA?0?$AA?5?$AA?$CI?$AA6?$AA0?$AA?5?$AA?$CK?$AA?5?$AA9?$AA?$CJ?$AA?0?$AA?5?$AAL@ 0048e850     LIBCMTD:wassert.obj
 0002:000098b0       ??_C@_1FI@JIGMFG@?$AAw?$AAc?$AAs?$AAc?$AAa?$AAt?$AA_?$AAs?$AA?$CI?$AA?5?$AAa?$AAs?$AAs?$AAe?$AAr?$AAt?$AAb?$AAu?$AAf?$AA?0?$AA?5?$AA?$CI?$AA6?$AA0?$AA?5?$AA?$CK?$AA?5?$AA9?$AA?$CJ?$AA?0?$AA?5?$AAd@ 0048e8b0     LIBCMTD:wassert.obj
 0002:00009908       ??_C@_1CE@OJBNHDMO@?$AAA?$AAs?$AAs?$AAe?$AAr?$AAt?$AAi?$AAo?$AAn?$AA?5?$AAf?$AAa?$AAi?$AAl?$AAe?$AAd?$AA?$CB?$AA?$AA@ 0048e908     LIBCMTD:wassert.obj
 0002:00009930       ??_C@_1GM@EFCJNBAA@?$AAw?$AAc?$AAs?$AAc?$AAp?$AAy?$AA_?$AAs?$AA?$CI?$AA?5?$AAa?$AAs?$AAs?$AAe?$AAr?$AAt?$AAb?$AAu?$AAf?$AA?0?$AA?5?$AA?$CI?$AA6?$AA0?$AA?5?$AA?$CK?$AA?5?$AA9?$AA?$CJ?$AA?0?$AA?5?$AAL@ 0048e930     LIBCMTD:wassert.obj
 0002:0000999c       ??_C@_1BC@LNOOMFNA@?$AA_?$AAw?$AAa?$AAs?$AAs?$AAe?$AAr?$AAt?$AA?$AA@ 0048e99c     LIBCMTD:wassert.obj
 0002:000099b0       ??_C@_1GA@COEIABIF@?$AAf?$AA?3?$AA?2?$AAd?$AAd?$AA?2?$AAv?$AAc?$AAt?$AAo?$AAo?$AAl?$AAs?$AA?2?$AAc?$AAr?$AAt?$AA_?$AAb?$AAl?$AAd?$AA?2?$AAs?$AAe?$AAl?$AAf?$AA_?$AAx?$AA8?$AA6?$AA?2?$AAc@ 0048e9b0     LIBCMTD:wassert.obj
 0002:00009a10       ??_C@_1FA@HILOOCMA@?$AA?$CI?$AA_?$AAt?$AAc?$AAs?$AAn?$AAl?$AAe?$AAn?$AA?$CI?$AAo?$AAp?$AAt?$AAi?$AAo?$AAn?$AA?0?$AA?5?$AA_?$AAM?$AAA?$AAX?$AA_?$AAE?$AAN?$AAV?$AA?$CJ?$AA?5?$AA?$DM?$AA?5?$AA_?$AAM@ 0048ea10     LIBCMTD:getenv.obj
 0002:00009a60       ??_C@_1O@GMKGKCJO@?$AAg?$AAe?$AAt?$AAe?$AAn?$AAv?$AA?$AA@ 0048ea60     LIBCMTD:getenv.obj
 0002:00009a70       ??_C@_1GA@IPPICGKB@?$AAf?$AA?3?$AA?2?$AAd?$AAd?$AA?2?$AAv?$AAc?$AAt?$AAo?$AAo?$AAl?$AAs?$AA?2?$AAc?$AAr?$AAt?$AA_?$AAb?$AAl?$AAd?$AA?2?$AAs?$AAe?$AAl?$AAf?$AA_?$AAx?$AA8?$AA6?$AA?2?$AAc@ 0048ea70     LIBCMTD:getenv.obj
 0002:00009ad0       ??_C@_1CC@FKAOHHLO@?$AA?$CI?$AAo?$AAp?$AAt?$AAi?$AAo?$AAn?$AA?5?$AA?$CB?$AA?$DN?$AA?5?$AAN?$AAU?$AAL?$AAL?$AA?$CJ?$AA?$AA@ 0048ead0     LIBCMTD:getenv.obj
 0002:00009af8       ??_C@_1GI@JBIFPFJH@?$AA_?$AAt?$AAc?$AAs?$AAn?$AAl?$AAe?$AAn?$AA?$CI?$AA?$CK?$AAs?$AAe?$AAa?$AAr?$AAc?$AAh?$AA?5?$AA?$CL?$AA?5?$AAl?$AAe?$AAn?$AAg?$AAt?$AAh?$AA?5?$AA?$CL?$AA?5?$AA1?$AA?0?$AA?5?$AA_@ 0048eaf8     LIBCMTD:getenv.obj
 0002:00009b60       ??_C@_1EI@HHOBPCFK@?$AAs?$AAt?$AAr?$AAc?$AAp?$AAy?$AA_?$AAs?$AA?$CI?$AAb?$AAu?$AAf?$AAf?$AAe?$AAr?$AA?0?$AA?5?$AAs?$AAi?$AAz?$AAe?$AAI?$AAn?$AAT?$AAC?$AAh?$AAa?$AAr?$AAs?$AA?0?$AA?5?$AAs@ 0048eb60     LIBCMTD:getenv.obj
 0002:00009ba8       ??_C@_1JM@NLPGJJPH@?$AA?$CI?$AAb?$AAu?$AAf?$AAf?$AAe?$AAr?$AA?5?$AA?$CB?$AA?$DN?$AA?5?$AAN?$AAU?$AAL?$AAL?$AA?5?$AA?$CG?$AA?$CG?$AA?5?$AAs?$AAi?$AAz?$AAe?$AAI?$AAn?$AAT?$AAC?$AAh?$AAa?$AAr?$AAs?$AA?5@ 0048eba8     LIBCMTD:getenv.obj
 0002:00009c44       ??_C@_1CC@BAJKDIIF@?$AA_?$AAg?$AAe?$AAt?$AAe?$AAn?$AAv?$AA_?$AAs?$AA_?$AAh?$AAe?$AAl?$AAp?$AAe?$AAr?$AA?$AA@ 0048ec44     LIBCMTD:getenv.obj
 0002:00009c68       ??_C@_1CK@PIKDAOCL@?$AAp?$AAR?$AAe?$AAt?$AAu?$AAr?$AAn?$AAV?$AAa?$AAl?$AAu?$AAe?$AA?5?$AA?$CB?$AA?$DN?$AA?5?$AAN?$AAU?$AAL?$AAL?$AA?$AA@ 0048ec68     LIBCMTD:getenv.obj
 0002:00009c94       ??_C@_1DM@GNKNEGJO@?$AAs?$AAt?$AAr?$AAc?$AAp?$AAy?$AA_?$AAs?$AA?$CI?$AA?$CK?$AAp?$AAB?$AAu?$AAf?$AAf?$AAe?$AAr?$AA?0?$AA?5?$AAs?$AAi?$AAz?$AAe?$AA?0?$AA?5?$AAs?$AAt?$AAr?$AA?$CJ?$AA?$AA@ 0048ec94     LIBCMTD:getenv.obj
 0002:00009cd0       ??_C@_1CA@GDBKELOE@?$AAv?$AAa?$AAr?$AAn?$AAa?$AAm?$AAe?$AA?5?$AA?$CB?$AA?$DN?$AA?5?$AAN?$AAU?$AAL?$AAL?$AA?$AA@ 0048ecd0     LIBCMTD:getenv.obj
 0002:00009cf0       ??_C@_1CC@KPLOPIEM@?$AA_?$AAd?$AAu?$AAp?$AAe?$AAn?$AAv?$AA_?$AAs?$AA_?$AAh?$AAe?$AAl?$AAp?$AAe?$AAr?$AA?$AA@ 0048ecf0     LIBCMTD:getenv.obj
 0002:00009d14       ??_C@_1CA@FHNFMDOJ@?$AAp?$AAB?$AAu?$AAf?$AAf?$AAe?$AAr?$AA?5?$AA?$CB?$AA?$DN?$AA?5?$AAN?$AAU?$AAL?$AAL?$AA?$AA@ 0048ed14     LIBCMTD:getenv.obj
 0002:00009d38       ??_7exception@std@@6B@     0048ed38     LIBCMTD:stdexcpt.obj
 0002:00009d40       ??_C@_0BC@EOODALEL@Unknown?5exception?$AA@ 0048ed40     LIBCMTD:stdexcpt.obj
 0002:00009d58       ??_7bad_cast@std@@6B@      0048ed58     LIBCMTD:stdexcpt.obj
 0002:00009d64       ??_7bad_typeid@std@@6B@    0048ed64     LIBCMTD:stdexcpt.obj
 0002:00009d70       ??_7__non_rtti_object@std@@6B@ 0048ed70     LIBCMTD:stdexcpt.obj
 0002:00009d78       ??_C@_1EC@FABAOFFO@?$AA?$CI?$AAc?$AAo?$AAu?$AAn?$AAt?$AA?5?$AA?$DN?$AA?$DN?$AA?5?$AA0?$AA?$CJ?$AA?5?$AA?$HM?$AA?$HM?$AA?5?$AA?$CI?$AAs?$AAt?$AAr?$AAi?$AAn?$AAg?$AA?5?$AA?$CB?$AA?$DN?$AA?5?$AAN?$AAU?$AAL?$AAL?$AA?$CJ@ 0048ed78     LIBCMTD:snprintf.obj
 0002:00009dbc       ??_C@_1BE@CHNFPLHD@?$AA_?$AAs?$AAn?$AAp?$AAr?$AAi?$AAn?$AAt?$AAf?$AA?$AA@ 0048edbc     LIBCMTD:snprintf.obj
 0002:00009dd0       ??_C@_1GC@BMNPEKNN@?$AAf?$AA?3?$AA?2?$AAd?$AAd?$AA?2?$AAv?$AAc?$AAt?$AAo?$AAo?$AAl?$AAs?$AA?2?$AAc?$AAr?$AAt?$AA_?$AAb?$AAl?$AAd?$AA?2?$AAs?$AAe?$AAl?$AAf?$AA_?$AAx?$AA8?$AA6?$AA?2?$AAc@ 0048edd0     LIBCMTD:snprintf.obj
 0002:00009e34       ??_C@_1CC@MGIEJOME@?$AA?$CI?$AAf?$AAo?$AAr?$AAm?$AAa?$AAt?$AA?5?$AA?$CB?$AA?$DN?$AA?5?$AAN?$AAU?$AAL?$AAL?$AA?$CJ?$AA?$AA@ 0048ee34     LIBCMTD:snprintf.obj
 0002:00009e58       ??_C@_1BAA@ODEGEDCK@?$AA?$CI?$AA?5?$AA?$CI?$AA_?$AAS?$AAt?$AAr?$AAe?$AAa?$AAm?$AA?9?$AA?$DO?$AA_?$AAf?$AAl?$AAa?$AAg?$AA?5?$AA?$CG?$AA?5?$AA_?$AAI?$AAO?$AAS?$AAT?$AAR?$AAG?$AA?$CJ?$AA?5?$AA?$HM?$AA?$HM?$AA?5@ 0048ee58     LIBCMTD:fprintf.obj
 0002:00009f58       ??_C@_1BA@DNOHIGNM@?$AAf?$AAp?$AAr?$AAi?$AAn?$AAt?$AAf?$AA?$AA@ 0048ef58     LIBCMTD:fprintf.obj
 0002:00009f68       ??_C@_1GC@NHJDDBOH@?$AAf?$AA?3?$AA?2?$AAd?$AAd?$AA?2?$AAv?$AAc?$AAt?$AAo?$AAo?$AAl?$AAs?$AA?2?$AAc?$AAr?$AAt?$AA_?$AAb?$AAl?$AAd?$AA?2?$AAs?$AAe?$AAl?$AAf?$AA_?$AAx?$AA8?$AA6?$AA?2?$AAc@ 0048ef68     LIBCMTD:fprintf.obj
 0002:00009fcc       ??_C@_1BM@JMKHIAHP@?$AA?$CI?$AAs?$AAt?$AAr?$AA?5?$AA?$CB?$AA?$DN?$AA?5?$AAN?$AAU?$AAL?$AAL?$AA?$CJ?$AA?$AA@ 0048efcc     LIBCMTD:fprintf.obj
 0002:00009fe8       ??_C@_0CP@BNKDODJJ@f?3?2dd?2vctools?2crt_bld?2self_x86?2c@ 0048efe8     LIBCMTD:_file.obj
 0002:0000a018       ??_C@_1CC@CGHMNGDG@?$AAA?$AAs?$AAs?$AAe?$AAr?$AAt?$AAi?$AAo?$AAn?$AA?5?$AAF?$AAa?$AAi?$AAl?$AAe?$AAd?$AA?$AA@ 0048f018     LIBCMTD:dbgrptw.obj
 0002:0000a03c       ??_C@_1M@ILHOPKA@?$AAE?$AAr?$AAr?$AAo?$AAr?$AA?$AA@ 0048f03c     LIBCMTD:dbgrptw.obj
 0002:0000a048       ??_C@_1BA@GLMCNLEM@?$AAW?$AAa?$AAr?$AAn?$AAi?$AAn?$AAg?$AA?$AA@ 0048f048     LIBCMTD:dbgrptw.obj
 0002:0000a064       ??_C@_0DA@PCCBBBID@f?3?2dd?2vctools?2crt_bld?2self_x86?2c@ 0048f064     LIBCMTD:dbgrptw.obj
 0002:0000a098       ??_C@_1FI@PHIAFFHM@?$AA?$CI?$AA?$CC?$AAT?$AAh?$AAe?$AA?5?$AAh?$AAo?$AAo?$AAk?$AA?5?$AAf?$AAu?$AAn?$AAc?$AAt?$AAi?$AAo?$AAn?$AA?5?$AAi?$AAs?$AA?5?$AAn?$AAo?$AAt?$AA?5?$AAi?$AAn?$AA?5?$AAt?$AAh@ 0048f098     LIBCMTD:dbgrptw.obj
 0002:0000a0f0       ??_C@_1CG@JBJEFOCM@?$AAp?$AAf?$AAn?$AAN?$AAe?$AAw?$AAH?$AAo?$AAo?$AAk?$AA?5?$AA?$CB?$AA?$DN?$AA?5?$AAN?$AAU?$AAL?$AAL?$AA?$AA@ 0048f0f0     LIBCMTD:dbgrptw.obj
 0002:0000a118       ??_C@_1CI@IIHEAKEI@?$AA_?$AAC?$AAr?$AAt?$AAS?$AAe?$AAt?$AAR?$AAe?$AAp?$AAo?$AAr?$AAt?$AAH?$AAo?$AAo?$AAk?$AAW?$AA2?$AA?$AA@ 0048f118     LIBCMTD:dbgrptw.obj
 0002:0000a140       ??_C@_1GA@IBJGKIFE@?$AAf?$AA?3?$AA?2?$AAd?$AAd?$AA?2?$AAv?$AAc?$AAt?$AAo?$AAo?$AAl?$AAs?$AA?2?$AAc?$AAr?$AAt?$AA_?$AAb?$AAl?$AAd?$AA?2?$AAs?$AAe?$AAl?$AAf?$AA_?$AAx?$AA8?$AA6?$AA?2?$AAc@ 0048f140     LIBCMTD:dbgrptw.obj
 0002:0000a1a0       ??_C@_1HI@OFEHGPPC@?$AAm?$AAo?$AAd?$AAe?$AA?5?$AA?$DN?$AA?$DN?$AA?5?$AA_?$AAC?$AAR?$AAT?$AA_?$AAR?$AAP?$AAT?$AAH?$AAO?$AAO?$AAK?$AA_?$AAI?$AAN?$AAS?$AAT?$AAA?$AAL?$AAL?$AA?5?$AA?$HM?$AA?$HM?$AA?5@ 0048f1a0     LIBCMTD:dbgrptw.obj
 0002:0000a218       ??_C@_1EG@PEOEAKBB@?$AAM?$AAi?$AAc?$AAr?$AAo?$AAs?$AAo?$AAf?$AAt?$AA?5?$AAV?$AAi?$AAs?$AAu?$AAa?$AAl?$AA?5?$AAC?$AA?$CL?$AA?$CL?$AA?5?$AAD?$AAe?$AAb?$AAu?$AAg?$AA?5?$AAL?$AAi?$AAb?$AAr?$AAa@ 0048f218     LIBCMTD:dbgrptw.obj
 0002:0000a260       ??_C@_1FG@BBOLDHGF@?$AA_?$AAC?$AAr?$AAt?$AAD?$AAb?$AAg?$AAR?$AAe?$AAp?$AAo?$AAr?$AAt?$AA?3?$AA?5?$AAS?$AAt?$AAr?$AAi?$AAn?$AAg?$AA?5?$AAt?$AAo?$AAo?$AA?5?$AAl?$AAo?$AAn?$AAg?$AA?5?$AAo@ 0048f260     LIBCMTD:dbgrptw.obj
 0002:0000a2b8       ??_C@_1JI@EACPGHID@?$AAw?$AAc?$AAs?$AAc?$AAp?$AAy?$AA_?$AAs?$AA?$CI?$AAs?$AAz?$AAO?$AAu?$AAt?$AAM?$AAe?$AAs?$AAs?$AAa?$AAg?$AAe?$AA?0?$AA?5?$AA4?$AA0?$AA9?$AA6?$AA?0?$AA?5?$AAL?$AA?$CC?$AA_@ 0048f2b8     LIBCMTD:dbgrptw.obj
 0002:0000a350       ??_C@_1BI@KALLJECN@?$AA?$CI?$AA?$CK?$AA_?$AAe?$AAr?$AAr?$AAn?$AAo?$AA?$CI?$AA?$CJ?$AA?$CJ?$AA?$AA@ 0048f350     LIBCMTD:dbgrptw.obj
 0002:0000a368       ??_C@_1KK@MEFMPOLM@?$AAD?$AAe?$AAb?$AAu?$AAg?$AA?5?$AA?$CF?$AAs?$AA?$CB?$AA?6?$AA?6?$AAP?$AAr?$AAo?$AAg?$AAr?$AAa?$AAm?$AA?3?$AA?5?$AA?$CF?$AAs?$AA?$CF?$AAs?$AA?$CF?$AAs?$AA?$CF?$AAs?$AA?$CF?$AAs?$AA?$CF?$AAs@ 0048f368     LIBCMTD:dbgrptw.obj
 0002:0000a414       ??_C@_1BE@CGCJKGHI@?$AA?6?$AAM?$AAo?$AAd?$AAu?$AAl?$AAe?$AA?3?$AA?5?$AA?$AA@ 0048f414     LIBCMTD:dbgrptw.obj
 0002:0000a428       ??_C@_1BA@LNHECFIM@?$AA?6?$AAF?$AAi?$AAl?$AAe?$AA?3?$AA?5?$AA?$AA@ 0048f428     LIBCMTD:dbgrptw.obj
 0002:0000a438       ??_C@_1BA@GLLGCPCK@?$AA?6?$AAL?$AAi?$AAn?$AAe?$AA?3?$AA?5?$AA?$AA@ 0048f438     LIBCMTD:dbgrptw.obj
 0002:0000a448       ??_C@_11LOCGONAA@?$AA?$AA@ 0048f448     LIBCMTD:dbgrptw.obj
 0002:0000a450       ??_C@_1OG@PMPPFHAF@?$AA?6?$AA?6?$AAF?$AAo?$AAr?$AA?5?$AAi?$AAn?$AAf?$AAo?$AAr?$AAm?$AAa?$AAt?$AAi?$AAo?$AAn?$AA?5?$AAo?$AAn?$AA?5?$AAh?$AAo?$AAw?$AA?5?$AAy?$AAo?$AAu?$AAr?$AA?5?$AAp?$AAr@ 0048f450     LIBCMTD:dbgrptw.obj
 0002:0000a538       ??_C@_1NO@LECLLHOL@?$AAm?$AAe?$AAm?$AAc?$AAp?$AAy?$AA_?$AAs?$AA?$CI?$AAs?$AAz?$AAS?$AAh?$AAo?$AAr?$AAt?$AAP?$AAr?$AAo?$AAg?$AAN?$AAa?$AAm?$AAe?$AA?0?$AA?5?$AAs?$AAi?$AAz?$AAe?$AAo?$AAf@ 0048f538     LIBCMTD:dbgrptw.obj
 0002:0000a618       ??_C@_1GI@DEDNNLCI@?$AAw?$AAc?$AAs?$AAc?$AAp?$AAy?$AA_?$AAs?$AA?$CI?$AAs?$AAz?$AAE?$AAx?$AAe?$AAN?$AAa?$AAm?$AAe?$AA?0?$AA?5?$AA2?$AA6?$AA0?$AA?0?$AA?5?$AAL?$AA?$CC?$AA?$DM?$AAp?$AAr?$AAo?$AAg@ 0048f618     LIBCMTD:dbgrptw.obj
 0002:0000a680       ??_C@_1CI@PGJIFDEK@?$AA_?$AA_?$AAc?$AAr?$AAt?$AAM?$AAe?$AAs?$AAs?$AAa?$AAg?$AAe?$AAW?$AAi?$AAn?$AAd?$AAo?$AAw?$AAW?$AA?$AA@ 0048f680     LIBCMTD:dbgrptw.obj
 0002:0000a6a8       ??_C@_0DA@HMCPFNKN@f?3?2dd?2vctools?2crt_bld?2self_x86?2c@ 0048f6a8     LIBCMTD:onexit.obj
 0002:0000a6d8       __pDestructExceptionObject 0048f6d8     LIBCMTD:frame.obj
 0002:0000a6dc       ??_C@_0O@DPKOEFFH@bad?5exception?$AA@ 0048f6dc     LIBCMTD:frame.obj
 0002:0000a6f0       ??_7bad_exception@std@@6B@ 0048f6f0     LIBCMTD:frame.obj
 0002:0000a6f8       ??_C@_0DC@LMJHGCKC@f?3?2dd?2vctools?2crt_bld?2self_x86?2c@ 0048f6f8     LIBCMTD:tidtable.obj
 0002:0000a72c       ??_C@_07PEJMOBNF@FlsFree?$AA@ 0048f72c     LIBCMTD:tidtable.obj
 0002:0000a734       ??_C@_0M@JCPCPOEF@FlsSetValue?$AA@ 0048f734     LIBCMTD:tidtable.obj
 0002:0000a740       ??_C@_0M@GDNOONDI@FlsGetValue?$AA@ 0048f740     LIBCMTD:tidtable.obj
 0002:0000a74c       ??_C@_08KNHFBNJ@FlsAlloc?$AA@ 0048f74c     LIBCMTD:tidtable.obj
 0002:0000a758       ??_C@_1BK@DBDEIDLH@?$AAK?$AAE?$AAR?$AAN?$AAE?$AAL?$AA3?$AA2?$AA?4?$AAD?$AAL?$AAL?$AA?$AA@ 0048f758     LIBCMTD:tidtable.obj
 0002:0000a774       ??_C@_0BO@GNIAFIKK@Unknown?5Runtime?5Check?5Error?6?$AN?$AA@ 0048f774     LIBCMTD:_error_.obj
 0002:0000a794       ??_C@_0CM@NGINOKPC@Stack?5memory?5around?5_alloca?5was?5@ 0048f794     LIBCMTD:_error_.obj
 0002:0000a7c0       ??_C@_0DG@HKJMLLLP@A?5local?5variable?5was?5used?5before@ 0048f7c0     LIBCMTD:_error_.obj
 0002:0000a7f8       ??_C@_0BN@FFOINMNJ@Stack?5memory?5was?5corrupted?6?$AN?$AA@ 0048f7f8     LIBCMTD:_error_.obj
 0002:0000a818       ??_C@_0BBN@GPMLNJCF@A?5cast?5to?5a?5smaller?5data?5type?5ha@ 0048f818     LIBCMTD:_error_.obj
 0002:0000a938       ??_C@_0NN@NGPKDKPD@The?5value?5of?5ESP?5was?5not?5properl@ 0048f938     LIBCMTD:_error_.obj
 0002:0000aab4       ??_C@_0CA@IODNCDPG@Run?9Time?5Check?5Failure?5?$CD?$CFd?5?9?5?$CFs?$AA@ 0048fab4     LIBCMTD:_error_.obj
 0002:0000aad4       ??_C@_0BE@GNBOBNCK@Unknown?5Module?5Name?$AA@ 0048fad4     LIBCMTD:_error_.obj
 0002:0000aae8       ??_C@_0BB@PFFGGCJP@Unknown?5Filename?$AA@ 0048fae8     LIBCMTD:_error_.obj
 0002:0000ab00       ??_C@_1EA@NFKNIFJP@?$AAR?$AAu?$AAn?$AA?9?$AAT?$AAi?$AAm?$AAe?$AA?5?$AAC?$AAh?$AAe?$AAc?$AAk?$AA?5?$AAF?$AAa?$AAi?$AAl?$AAu?$AAr?$AAe?$AA?5?$AA?$CD?$AA?$CF?$AAd?$AA?5?$AA?9?$AA?5?$AA?$CF?$AAs?$AA?$AA@ 0048fb00     LIBCMTD:_error_.obj
 0002:0000ab40       ??_C@_1GM@OLMCBDMB@?$AAR?$AAu?$AAn?$AAt?$AAi?$AAm?$AAe?$AA?5?$AAC?$AAh?$AAe?$AAc?$AAk?$AA?5?$AAE?$AAr?$AAr?$AAo?$AAr?$AA?4?$AA?6?$AA?$AN?$AA?5?$AAU?$AAn?$AAa?$AAb?$AAl?$AAe?$AA?5?$AAt?$AAo@ 0048fb40     LIBCMTD:_error_.obj
 0002:0000abac       ??_C@_0CG@IAFNJNEE@Stack?5corrupted?5near?5unknown?5var@ 0048fbac     LIBCMTD:_error_.obj
 0002:0000abd8       ??_C@_0EJ@LJKNEOLN@Stack?5area?5around?5_alloca?5memory@ 0048fbd8     LIBCMTD:_error_.obj
 0002:0000ac24       ??_C@_08KJEDNCKC@?$CFs?$CFs?$CFs?$CFs?$AA@ 0048fc24     LIBCMTD:_error_.obj
 0002:0000ac30       ??_C@_02LLMPMKNF@?$DO?5?$AA@ 0048fc30     LIBCMTD:_error_.obj
 0002:0000ac34       ??_C@_01EEMJAFIK@?6?$AA@   0048fc34     LIBCMTD:_error_.obj
 0002:0000ac38       ??_C@_0BC@KIBAILCI@?$CFs?$CFs?$CFp?$CFs?$CFld?$CFs?$CFd?$CFs?$AA@ 0048fc38     LIBCMTD:_error_.obj
 0002:0000ac50       ??_C@_0EI@CLEPFNGI@Stack?5area?5around?5_alloca?5memory@ 0048fc50     LIBCMTD:_error_.obj
 0002:0000ac98       ??_C@_0N@MHFFIMFG@?6Address?3?50x?$AA@ 0048fc98     LIBCMTD:_error_.obj
 0002:0000aca8       ??_C@_07DFDJCKFN@?6Size?3?5?$AA@ 0048fca8     LIBCMTD:_error_.obj
 0002:0000acb0       ??_C@_0CK@DKGBICFE@?6Allocation?5number?5within?5this?5f@ 0048fcb0     LIBCMTD:_error_.obj
 0002:0000acdc       ??_C@_08OMAHNMHJ@?6Data?3?5?$DM?$AA@ 0048fcdc     LIBCMTD:_error_.obj
 0002:0000ace8       ??_C@_09FOPFMPEJ@wsprintfA?$AA@ 0048fce8     LIBCMTD:_error_.obj
 0002:0000acf4       ??_C@_1BG@OILDLIOJ@?$AAu?$AAs?$AAe?$AAr?$AA3?$AA2?$AA?4?$AAd?$AAl?$AAl?$AA?$AA@ 0048fcf4     LIBCMTD:_error_.obj
 0002:0000ad0c       ??_C@_05MKKEDADM@?$CF?42X?5?$AA@ 0048fd0c     LIBCMTD:_error_.obj
 0002:0000ad14       ??_C@_0DE@OHJBPMBP@A?5variable?5is?5being?5used?5without@ 0048fd14     LIBCMTD:_error_.obj
 0002:0000ad50       ??_C@_0BP@OGBCLIBO@Stack?5around?5_alloca?5corrupted?$AA@ 0048fd50     LIBCMTD:_userapi_.obj
 0002:0000ad70       ??_C@_0CK@CNLNOEPB@Local?5variable?5used?5before?5initi@ 0048fd70     LIBCMTD:_userapi_.obj
 0002:0000ad9c       ??_C@_0BI@CIGMDCBH@Stack?5memory?5corruption?$AA@ 0048fd9c     LIBCMTD:_userapi_.obj
 0002:0000adb4       ??_C@_0CK@FEGOIOPB@Cast?5to?5smaller?5type?5causing?5los@ 0048fdb4     LIBCMTD:_userapi_.obj
 0002:0000ade0       ??_C@_0BJ@HEGAHDFO@Stack?5pointer?5corruption?$AA@ 0048fde0     LIBCMTD:_userapi_.obj
 0002:0000ae10       ??_C@_0DP@CBBAPGOP@f?3?2dd?2vctools?2crt_bld?2self_x86?2c@ 0048fe10     LIBCMTD:chkesp.obj
 0002:0000ae4f       ??_C@_00CNPNBAHC@?$AA@     0048fe4f     LIBCMTD:chkesp.obj
 0002:0000ae50       ??_C@_0NM@DNEDKLDF@The?5value?5of?5ESP?5was?5not?5properl@ 0048fe50     LIBCMTD:chkesp.obj
 0002:0000af30       ??_C@_1HG@KNCBMCDD@?$AAf?$AA?3?$AA?2?$AAd?$AAd?$AA?2?$AAv?$AAc?$AAt?$AAo?$AAo?$AAl?$AAs?$AA?2?$AAc?$AAr?$AAt?$AA_?$AAb?$AAl?$AAd?$AA?2?$AAs?$AAe?$AAl?$AAf?$AA_?$AAx?$AA8?$AA6?$AA?2?$AAc@ 0048ff30     LIBCMTD:typname.obj
 0002:0000afa8       ??_C@_1CK@GELGGBDK@?$AAp?$AAN?$AAo?$AAd?$AAe?$AA?9?$AA?$DO?$AA_?$AAN?$AAe?$AAx?$AAt?$AA?5?$AA?$CB?$AA?$DN?$AA?5?$AAN?$AAU?$AAL?$AAL?$AA?$AA@ 0048ffa8     LIBCMTD:typname.obj
 0002:0000afd8       ??_C@_1JK@NAFNEPGC@?$AAs?$AAt?$AAr?$AAc?$AAp?$AAy?$AA_?$AAs?$AA?5?$AA?$CI?$AA?$CI?$AAc?$AAh?$AAa?$AAr?$AA?5?$AA?$CK?$AA?$CJ?$AA?$CI?$AA?$CI?$AAt?$AAy?$AAp?$AAe?$AA_?$AAi?$AAn?$AAf?$AAo?$AA?5?$AA?$CK?$AA?$CJ@ 0048ffd8     LIBCMTD:typname.obj
 0002:0000b074       ??_C@_1CM@OOICDMK@?$AAt?$AAy?$AAp?$AAe?$AA_?$AAi?$AAn?$AAf?$AAo?$AA?3?$AA?3?$AA_?$AAN?$AAa?$AAm?$AAe?$AA_?$AAb?$AAa?$AAs?$AAe?$AA?$AA@ 00490074     LIBCMTD:typname.obj
 0002:0000b0a0       ??_C@_1GI@EAJKJPED@?$AAs?$AAt?$AAr?$AAc?$AAp?$AAy?$AA_?$AAs?$AA?5?$AA?$CI?$AAp?$AAT?$AAm?$AAp?$AAT?$AAy?$AAp?$AAe?$AAN?$AAa?$AAm?$AAe?$AA?0?$AA?5?$AAl?$AAe?$AAn?$AA?$CL?$AA2?$AA?0?$AA?5?$AA?$CI@ 004900a0     LIBCMTD:typname.obj
 0002:0000b108       ??_C@_1DO@OJJLFJPE@?$AAt?$AAy?$AAp?$AAe?$AA_?$AAi?$AAn?$AAf?$AAo?$AA?3?$AA?3?$AA_?$AAN?$AAa?$AAm?$AAe?$AA_?$AAb?$AAa?$AAs?$AAe?$AA_?$AAi?$AAn?$AAt?$AAe?$AAr?$AAn?$AAa?$AAl?$AA?$AA@ 00490108     LIBCMTD:typname.obj
 0002:0000b148       ??_C@_0CP@MKONOLCI@f?3?2dd?2vctools?2crt_bld?2self_x86?2c@ 00490148     LIBCMTD:mlock.obj
 0002:0000b178       ??_C@_06PJIGMIJB@Client?$AA@ 00490178     LIBCMTD:dbgheap.obj
 0002:0000b180       ??_C@_06KMEJCCGM@Ignore?$AA@ 00490180     LIBCMTD:dbgheap.obj
 0002:0000b188       ??_C@_03OGPFLFLO@CRT?$AA@  00490188     LIBCMTD:dbgheap.obj
 0002:0000b18c       ??_C@_06EFAGIKOH@Normal?$AA@ 0049018c     LIBCMTD:dbgheap.obj
 0002:0000b194       ??_C@_04HJMOFLDF@Free?$AA@ 00490194     LIBCMTD:dbgheap.obj
 0002:0000b1b0       ??_C@_0DC@JEMAGEKG@Error?3?5memory?5allocation?3?5bad?5me@ 004901b0     LIBCMTD:dbgheap.obj
 0002:0000b1e4       ??_C@_0CF@BICKFLAF@Invalid?5allocation?5size?3?5?$CFIu?5byt@ 004901e4     LIBCMTD:dbgheap.obj
 0002:0000b20c       ??_C@_02DKCKIIND@?$CFs?$AA@ 0049020c     LIBCMTD:dbgheap.obj
 0002:0000b210       ??_C@_0CB@CCLOLAHO@Client?5hook?5allocation?5failure?4?6@ 00490210     LIBCMTD:dbgheap.obj
 0002:0000b234       ??_C@_0DF@BBEGIFEK@Client?5hook?5allocation?5failure?5a@ 00490234     LIBCMTD:dbgheap.obj
 0002:0000b270       ??_C@_1GC@DNJKKEAA@?$AAf?$AA?3?$AA?2?$AAd?$AAd?$AA?2?$AAv?$AAc?$AAt?$AAo?$AAo?$AAl?$AAs?$AA?2?$AAc?$AAr?$AAt?$AA_?$AAb?$AAl?$AAd?$AA?2?$AAs?$AAe?$AAl?$AAf?$AA_?$AAx?$AA8?$AA6?$AA?2?$AAc@ 00490270     LIBCMTD:dbgheap.obj
 0002:0000b2d4       ??_C@_1CE@LJFEPPMP@?$AA_?$AAC?$AAr?$AAt?$AAC?$AAh?$AAe?$AAc?$AAk?$AAM?$AAe?$AAm?$AAo?$AAr?$AAy?$AA?$CI?$AA?$CJ?$AA?$AA@ 004902d4     LIBCMTD:dbgheap.obj
 0002:0000b2f8       ??_C@_1DE@KOOKLFBB@?$AA_?$AAp?$AAF?$AAi?$AAr?$AAs?$AAt?$AAB?$AAl?$AAo?$AAc?$AAk?$AA?5?$AA?$DN?$AA?$DN?$AA?5?$AAp?$AAO?$AAl?$AAd?$AAB?$AAl?$AAo?$AAc?$AAk?$AA?$AA@ 004902f8     LIBCMTD:dbgheap.obj
 0002:0000b32c       ??_C@_1DC@GEFKNOOL@?$AA_?$AAp?$AAL?$AAa?$AAs?$AAt?$AAB?$AAl?$AAo?$AAc?$AAk?$AA?5?$AA?$DN?$AA?$DN?$AA?5?$AAp?$AAO?$AAl?$AAd?$AAB?$AAl?$AAo?$AAc?$AAk?$AA?$AA@ 0049032c     LIBCMTD:dbgheap.obj
 0002:0000b360       ??_C@_1GE@PCKLOLAO@?$AAf?$AAR?$AAe?$AAa?$AAl?$AAl?$AAo?$AAc?$AA?5?$AA?$HM?$AA?$HM?$AA?5?$AA?$CI?$AA?$CB?$AAf?$AAR?$AAe?$AAa?$AAl?$AAl?$AAo?$AAc?$AA?5?$AA?$CG?$AA?$CG?$AA?5?$AAp?$AAN?$AAe?$AAw?$AAB?$AAl@ 00490360     LIBCMTD:dbgheap.obj
 0002:0000b3c4       ??_C@_0DA@HFBKENN@Error?3?5possible?5heap?5corruption?5@ 004903c4     LIBCMTD:dbgheap.obj
 0002:0000b3f8       ??_C@_1IK@DCPKDGNH@?$AAp?$AAO?$AAl?$AAd?$AAB?$AAl?$AAo?$AAc?$AAk?$AA?9?$AA?$DO?$AAn?$AAL?$AAi?$AAn?$AAe?$AA?5?$AA?$DN?$AA?$DN?$AA?5?$AAI?$AAG?$AAN?$AAO?$AAR?$AAE?$AA_?$AAL?$AAI?$AAN?$AAE?$AA?5@ 004903f8     LIBCMTD:dbgheap.obj
 0002:0000b488       ??_C@_1EE@GFOPCECE@?$AA_?$AAC?$AAr?$AAt?$AAI?$AAs?$AAV?$AAa?$AAl?$AAi?$AAd?$AAH?$AAe?$AAa?$AAp?$AAP?$AAo?$AAi?$AAn?$AAt?$AAe?$AAr?$AA?$CI?$AAp?$AAU?$AAs?$AAe?$AAr?$AAD?$AAa?$AAt?$AAa@ 00490488     LIBCMTD:dbgheap.obj
 0002:0000b4d0       ??_C@_0EM@LGFLMAGJ@The?5Block?5at?50x?$CFp?5was?5allocated?5@ 004904d0     LIBCMTD:dbgheap.obj
 0002:0000b520       ??_C@_0FA@EFEIGJKG@Error?3?5memory?5allocation?3?5bad?5me@ 00490520     LIBCMTD:dbgheap.obj
 0002:0000b570       ??_C@_0ED@GPCPBAGP@Invalid?5allocation?5size?3?5?$CFIu?5byt@ 00490570     LIBCMTD:dbgheap.obj
 0002:0000b5b4       ??_C@_0CE@DOFMDOL@Client?5hook?5re?9allocation?5failur@ 004905b4     LIBCMTD:dbgheap.obj
 0002:0000b5d8       ??_C@_0DI@KKJPDPGM@Client?5hook?5re?9allocation?5failur@ 004905d8     LIBCMTD:dbgheap.obj
 0002:0000b610       ??_C@_1BI@HAPNGHDP@?$AA_?$AAe?$AAx?$AAp?$AAa?$AAn?$AAd?$AA_?$AAd?$AAb?$AAg?$AA?$AA@ 00490610     LIBCMTD:dbgheap.obj
 0002:0000b628       ??_C@_1CE@CJACEFBA@?$AAp?$AAU?$AAs?$AAe?$AAr?$AAD?$AAa?$AAt?$AAa?$AA?5?$AA?$CB?$AA?$DN?$AA?5?$AAN?$AAU?$AAL?$AAL?$AA?$AA@ 00490628     LIBCMTD:dbgheap.obj
 0002:0000b64c       ??_C@_1CM@MMAADDMD@?$AA_?$AAp?$AAF?$AAi?$AAr?$AAs?$AAt?$AAB?$AAl?$AAo?$AAc?$AAk?$AA?5?$AA?$DN?$AA?$DN?$AA?5?$AAp?$AAH?$AAe?$AAa?$AAd?$AA?$AA@ 0049064c     LIBCMTD:dbgheap.obj
 0002:0000b678       ??_C@_1CK@DMAGEMBG@?$AA_?$AAp?$AAL?$AAa?$AAs?$AAt?$AAB?$AAl?$AAo?$AAc?$AAk?$AA?5?$AA?$DN?$AA?$DN?$AA?5?$AAp?$AAH?$AAe?$AAa?$AAd?$AA?$AA@ 00490678     LIBCMTD:dbgheap.obj
 0002:0000b6a4       ??_C@_1DM@ODCJIDCP@?$AAp?$AAH?$AAe?$AAa?$AAd?$AA?9?$AA?$DO?$AAn?$AAB?$AAl?$AAo?$AAc?$AAk?$AAU?$AAs?$AAe?$AA?5?$AA?$DN?$AA?$DN?$AA?5?$AAn?$AAB?$AAl?$AAo?$AAc?$AAk?$AAU?$AAs?$AAe?$AA?$AA@ 004906a4     LIBCMTD:dbgheap.obj
 0002:0000b6e0       ??_C@_1HK@HPCBMDFG@?$AAp?$AAH?$AAe?$AAa?$AAd?$AA?9?$AA?$DO?$AAn?$AAL?$AAi?$AAn?$AAe?$AA?5?$AA?$DN?$AA?$DN?$AA?5?$AAI?$AAG?$AAN?$AAO?$AAR?$AAE?$AA_?$AAL?$AAI?$AAN?$AAE?$AA?5?$AA?$CG?$AA?$CG?$AA?5?$AAp@ 004906e0     LIBCMTD:dbgheap.obj
 0002:0000b760       ??_C@_0IG@LEMBDCJK@HEAP?5CORRUPTION?5DETECTED?3?5after?5@ 00490760     LIBCMTD:dbgheap.obj
 0002:0000b7e8       ??_C@_0KE@MBMNHHHN@HEAP?5CORRUPTION?5DETECTED?3?5after?5@ 004907e8     LIBCMTD:dbgheap.obj
 0002:0000b890       ??_C@_0IK@PJCGLBOB@HEAP?5CORRUPTION?5DETECTED?3?5before@ 00490890     LIBCMTD:dbgheap.obj
 0002:0000b920       ??_C@_0KI@JGFOHMEB@HEAP?5CORRUPTION?5DETECTED?3?5before@ 00490920     LIBCMTD:dbgheap.obj
 0002:0000b9c8       ??_C@_0BL@KEIPLFAC@Client?5hook?5free?5failure?4?6?$AA@ 004909c8     LIBCMTD:dbgheap.obj
 0002:0000b9e8       ??_C@_0EJ@HEIBCIMJ@The?5Block?5at?50x?$CFp?5was?5allocated?5@ 004909e8     LIBCMTD:dbgheap.obj
 0002:0000ba34       ??_C@_1BG@MBKOGDLD@?$AA_?$AAm?$AAs?$AAi?$AAz?$AAe?$AA_?$AAd?$AAb?$AAg?$AA?$AA@ 00490a34     LIBCMTD:dbgheap.obj
 0002:0000ba4c       ??_C@_0CI@JMLBEDHJ@?$CFhs?5located?5at?50x?$CFp?5is?5?$CFIu?5bytes@ 00490a4c     LIBCMTD:dbgheap.obj
 0002:0000ba78       ??_C@_0EG@DGJMPDBH@?$CFhs?5located?5at?50x?$CFp?5is?5?$CFIu?5bytes@ 00490a78     LIBCMTD:dbgheap.obj
 0002:0000bac0       ??_C@_0IC@BBJIOOJH@HEAP?5CORRUPTION?5DETECTED?3?5on?5top@ 00490ac0     LIBCMTD:dbgheap.obj
 0002:0000bb48       ??_C@_0KA@IHNJJKPL@HEAP?5CORRUPTION?5DETECTED?3?5on?5top@ 00490b48     LIBCMTD:dbgheap.obj
 0002:0000bbe8       ??_C@_07OHKEFPKJ@DAMAGED?$AA@ 00490be8     LIBCMTD:dbgheap.obj
 0002:0000bbf0       ??_C@_0CL@HNNNMKMJ@_heapchk?5fails?5with?5unknown?5retu@ 00490bf0     LIBCMTD:dbgheap.obj
 0002:0000bc1c       ??_C@_0CC@MFFCHFHO@_heapchk?5fails?5with?5_HEAPBADPTR?4@ 00490c1c     LIBCMTD:dbgheap.obj
 0002:0000bc40       ??_C@_0CC@MJGLGBDG@_heapchk?5fails?5with?5_HEAPBADEND?4@ 00490c40     LIBCMTD:dbgheap.obj
 0002:0000bc64       ??_C@_0CD@CPKEAPBD@_heapchk?5fails?5with?5_HEAPBADNODE@ 00490c64     LIBCMTD:dbgheap.obj
 0002:0000bc88       ??_C@_0CE@MKKHMBMK@_heapchk?5fails?5with?5_HEAPBADBEGI@ 00490c88     LIBCMTD:dbgheap.obj
 0002:0000bcac       ??_C@_1BO@GJFDNMNF@?$AA_?$AAC?$AAr?$AAt?$AAS?$AAe?$AAt?$AAD?$AAb?$AAg?$AAF?$AAl?$AAa?$AAg?$AA?$AA@ 00490cac     LIBCMTD:dbgheap.obj
 0002:0000bcd0       ??_C@_1BHO@NNANJNF@?$AA?$CI?$AAf?$AAN?$AAe?$AAw?$AAB?$AAi?$AAt?$AAs?$AA?$DN?$AA?$DN?$AA_?$AAC?$AAR?$AAT?$AAD?$AAB?$AAG?$AA_?$AAR?$AAE?$AAP?$AAO?$AAR?$AAT?$AA_?$AAF?$AAL?$AAA?$AAG?$AA?$CJ?$AA?5@ 00490cd0     LIBCMTD:dbgheap.obj
 0002:0000be50       ??_C@_1DE@GJCKCKEC@?$AA_?$AAC?$AAr?$AAt?$AAD?$AAo?$AAF?$AAo?$AAr?$AAA?$AAl?$AAl?$AAC?$AAl?$AAi?$AAe?$AAn?$AAt?$AAO?$AAb?$AAj?$AAe?$AAc?$AAt?$AAs?$AA?$AA@ 00490e50     LIBCMTD:dbgheap.obj
 0002:0000be84       ??_C@_1BI@CJGCEEDL@?$AAp?$AAf?$AAn?$AA?5?$AA?$CB?$AA?$DN?$AA?5?$AAN?$AAU?$AAL?$AAL?$AA?$AA@ 00490e84     LIBCMTD:dbgheap.obj
 0002:0000be9c       ??_C@_0CB@EAAIGELO@Bad?5memory?5block?5found?5at?50x?$CFp?4?6@ 00490e9c     LIBCMTD:dbgheap.obj
 0002:0000bec0       ??_C@_0DP@LEFMFBOD@Bad?5memory?5block?5found?5at?50x?$CFp?4?6@ 00490ec0     LIBCMTD:dbgheap.obj
 0002:0000bf00       ??_C@_1CE@NJJKELF@?$AA_?$AAC?$AAr?$AAt?$AAM?$AAe?$AAm?$AAC?$AAh?$AAe?$AAc?$AAk?$AAp?$AAo?$AAi?$AAn?$AAt?$AA?$AA@ 00490f00     LIBCMTD:dbgheap.obj
 0002:0000bf24       ??_C@_1BM@MIMANDHC@?$AAs?$AAt?$AAa?$AAt?$AAe?$AA?5?$AA?$CB?$AA?$DN?$AA?5?$AAN?$AAU?$AAL?$AAL?$AA?$AA@ 00490f24     LIBCMTD:dbgheap.obj
 0002:0000bf40       ??_C@_1CC@DFPEDFBP@?$AAn?$AAe?$AAw?$AAS?$AAt?$AAa?$AAt?$AAe?$AA?5?$AA?$CB?$AA?$DN?$AA?5?$AAN?$AAU?$AAL?$AAL?$AA?$AA@ 00490f40     LIBCMTD:dbgheap.obj
 0002:0000bf64       ??_C@_1CC@DHPFEMMN@?$AAo?$AAl?$AAd?$AAS?$AAt?$AAa?$AAt?$AAe?$AA?5?$AA?$CB?$AA?$DN?$AA?5?$AAN?$AAU?$AAL?$AAL?$AA?$AA@ 00490f64     LIBCMTD:dbgheap.obj
 0002:0000bf88       ??_C@_1CE@PDIENACM@?$AA_?$AAC?$AAr?$AAt?$AAM?$AAe?$AAm?$AAD?$AAi?$AAf?$AAf?$AAe?$AAr?$AAe?$AAn?$AAc?$AAe?$AA?$AA@ 00490f88     LIBCMTD:dbgheap.obj
 0002:0000bfac       ??_C@_0BH@GFGKJDCO@Object?5dump?5complete?4?6?$AA@ 00490fac     LIBCMTD:dbgheap.obj
 0002:0000bfc4       ??_C@_0DA@MDLBNIBM@crt?5block?5at?50x?$CFp?0?5subtype?5?$CFx?0?5?$CF@ 00490fc4     LIBCMTD:dbgheap.obj
 0002:0000bff4       ??_C@_0CH@FAGDDGPN@normal?5block?5at?50x?$CFp?0?5?$CFIu?5bytes?5@ 00490ff4     LIBCMTD:dbgheap.obj
 0002:0000c01c       ??_C@_0DD@GHNAAKBB@client?5block?5at?50x?$CFp?0?5subtype?5?$CFx@ 0049101c     LIBCMTD:dbgheap.obj
 0002:0000c050       ??_C@_06PKLGBFGM@?$HL?$CFld?$HN?5?$AA@ 00491050     LIBCMTD:dbgheap.obj
 0002:0000c058       ??_C@_0L@JMEFFCCJ@?$CFhs?$CI?$CFd?$CJ?5?3?5?$AA@ 00491058     LIBCMTD:dbgheap.obj
 0002:0000c064       ??_C@_0BE@OIEFNFL@?$CDFile?5Error?$CD?$CI?$CFd?$CJ?5?3?5?$AA@ 00491064     LIBCMTD:dbgheap.obj
 0002:0000c078       ??_C@_0BE@KCIPKCIA@Dumping?5objects?5?9?$DO?6?$AA@ 00491078     LIBCMTD:dbgheap.obj
 0002:0000c08c       ??_C@_0BA@HJBKCELP@?5Data?3?5?$DM?$CFs?$DO?5?$CFs?6?$AA@ 0049108c     LIBCMTD:dbgheap.obj
 0002:0000c09c       ??_C@_1CG@LPFIACGM@?$AA_?$AAp?$AAr?$AAi?$AAn?$AAt?$AAM?$AAe?$AAm?$AAB?$AAl?$AAo?$AAc?$AAk?$AAD?$AAa?$AAt?$AAa?$AA?$AA@ 0049109c     LIBCMTD:dbgheap.obj
 0002:0000c0c4       ??_C@_0BI@JBFPOEJA@Detected?5memory?5leaks?$CB?6?$AA@ 004910c4     LIBCMTD:dbgheap.obj
 0002:0000c0dc       ??_C@_0BP@DEDHGGGI@Total?5allocations?3?5?$CFId?5bytes?4?6?$AA@ 004910dc     LIBCMTD:dbgheap.obj
 0002:0000c0fc       ??_C@_0CB@BLHDAFNE@Largest?5number?5used?3?5?$CFId?5bytes?4?6@ 004910fc     LIBCMTD:dbgheap.obj
 0002:0000c120       ??_C@_0BO@DACNIABB@?$CFId?5bytes?5in?5?$CFId?5?$CFhs?5Blocks?4?6?$AA@ 00491120     LIBCMTD:dbgheap.obj
 0002:0000c140       ??_C@_1CM@MPNIBKGK@?$AA_?$AAC?$AAr?$AAt?$AAM?$AAe?$AAm?$AAD?$AAu?$AAm?$AAp?$AAS?$AAt?$AAa?$AAt?$AAi?$AAs?$AAt?$AAi?$AAc?$AAs?$AA?$AA@ 00491140     LIBCMTD:dbgheap.obj
 0002:0000c16c       ??_C@_1DK@LFLKFPDA@?$AAo?$AAf?$AAf?$AAs?$AAe?$AAt?$AA?5?$AA?$DN?$AA?$DN?$AA?5?$AA0?$AA?5?$AA?$HM?$AA?$HM?$AA?5?$AAo?$AAf?$AAf?$AAs?$AAe?$AAt?$AA?5?$AA?$DM?$AA?5?$AAs?$AAi?$AAz?$AAe?$AA?$AA@ 0049116c     LIBCMTD:dbgheap.obj
 0002:0000c1a8       ??_C@_1DG@DONCJBBJ@?$AA_?$AAa?$AAl?$AAi?$AAg?$AAn?$AAe?$AAd?$AA_?$AAo?$AAf?$AAf?$AAs?$AAe?$AAt?$AA_?$AAm?$AAa?$AAl?$AAl?$AAo?$AAc?$AA_?$AAd?$AAb?$AAg?$AA?$AA@ 004911a8     LIBCMTD:dbgheap.obj
 0002:0000c1e0       ??_C@_1CE@NPMGPNNP@?$AAI?$AAS?$AA_?$AA2?$AA_?$AAP?$AAO?$AAW?$AA_?$AAN?$AA?$CI?$AAa?$AAl?$AAi?$AAg?$AAn?$AA?$CJ?$AA?$AA@ 004911e0     LIBCMTD:dbgheap.obj
 0002:0000c204       ??_C@_1DI@NINIKFFK@?$AA_?$AAa?$AAl?$AAi?$AAg?$AAn?$AAe?$AAd?$AA_?$AAo?$AAf?$AAf?$AAs?$AAe?$AAt?$AA_?$AAr?$AAe?$AAa?$AAl?$AAl?$AAo?$AAc?$AA_?$AAd?$AAb?$AAg?$AA?$AA@ 00491204     LIBCMTD:dbgheap.obj
 0002:0000c23c       ??_C@_0DL@PGHMMKNE@Damage?5before?50x?$CFp?5which?5was?5all@ 0049123c     LIBCMTD:dbgheap.obj
 0002:0000c278       ??_C@_0EI@NDNJMAJK@The?5block?5at?50x?$CFp?5was?5not?5alloca@ 00491278     LIBCMTD:dbgheap.obj
 0002:0000c2c0       ??_C@_0EF@PGELACII@The?5block?5at?50x?$CFp?5was?5not?5alloca@ 004912c0     LIBCMTD:dbgheap.obj
 0002:0000c308       ??_C@_1CG@CEGMHIMN@?$AA_?$AAa?$AAl?$AAi?$AAg?$AAn?$AAe?$AAd?$AA_?$AAm?$AAs?$AAi?$AAz?$AAe?$AA_?$AAd?$AAb?$AAg?$AA?$AA@ 00491308     LIBCMTD:dbgheap.obj
 0002:0000c330       ??_C@_1CC@MOBIKHH@?$AAm?$AAe?$AAm?$AAb?$AAl?$AAo?$AAc?$AAk?$AA?5?$AA?$CB?$AA?$DN?$AA?5?$AAN?$AAU?$AAL?$AAL?$AA?$AA@ 00491330     LIBCMTD:dbgheap.obj
 0002:0000c358       ??_C@_1GG@CDHAPCGF@?$AAf?$AA?3?$AA?2?$AAd?$AAd?$AA?2?$AAv?$AAc?$AAt?$AAo?$AAo?$AAl?$AAs?$AA?2?$AAc?$AAr?$AAt?$AA_?$AAb?$AAl?$AAd?$AA?2?$AAs?$AAe?$AAl?$AAf?$AA_?$AAx?$AA8?$AA6?$AA?2?$AAc@ 00491358     LIBCMTD:handler.obj
 0002:0000c3c0       ??_C@_1BC@JLLICHIC@?$AAp?$AAn?$AAh?$AA?5?$AA?$DN?$AA?$DN?$AA?5?$AA0?$AA?$AA@ 004913c0     LIBCMTD:handler.obj
 0002:0000c3d4       ??_C@_0P@MIGLKIOC@CorExitProcess?$AA@ 004913d4     LIBCMTD:crt0dat.obj
 0002:0000c3e4       ??_C@_1BI@BGOHAHKC@?$AAm?$AAs?$AAc?$AAo?$AAr?$AAe?$AAe?$AA?4?$AAd?$AAl?$AAl?$AA?$AA@ 004913e4     LIBCMTD:crt0dat.obj
 0002:0000c3fc       ??_C@_1CC@CDIPMFPD@?$AA_?$AAw?$AAp?$AAg?$AAm?$AAp?$AAt?$AAr?$AA?5?$AA?$CB?$AA?$DN?$AA?5?$AAN?$AAU?$AAL?$AAL?$AA?$AA@ 004913fc     LIBCMTD:crt0dat.obj
 0002:0000c420       ??_C@_1BK@PNLDCCDP@?$AA_?$AAg?$AAe?$AAt?$AA_?$AAw?$AAp?$AAg?$AAm?$AAp?$AAt?$AAr?$AA?$AA@ 00491420     LIBCMTD:crt0dat.obj
 0002:0000c440       ??_C@_1GC@DGCPEDNJ@?$AAf?$AA?3?$AA?2?$AAd?$AAd?$AA?2?$AAv?$AAc?$AAt?$AAo?$AAo?$AAl?$AAs?$AA?2?$AAc?$AAr?$AAt?$AA_?$AAb?$AAl?$AAd?$AA?2?$AAs?$AAe?$AAl?$AAf?$AA_?$AAx?$AA8?$AA6?$AA?2?$AAc@ 00491440     LIBCMTD:crt0dat.obj
 0002:0000c4a4       ??_C@_1BO@LKEBEKJP@?$AAp?$AAV?$AAa?$AAl?$AAu?$AAe?$AA?5?$AA?$CB?$AA?$DN?$AA?5?$AAN?$AAU?$AAL?$AAL?$AA?$AA@ 004914a4     LIBCMTD:crt0dat.obj
 0002:0000c4c4       ??_C@_1CA@BBNAFCKO@?$AA_?$AAp?$AAg?$AAm?$AAp?$AAt?$AAr?$AA?5?$AA?$CB?$AA?$DN?$AA?5?$AAN?$AAU?$AAL?$AAL?$AA?$AA@ 004914c4     LIBCMTD:crt0dat.obj
 0002:0000c4e4       ??_C@_1BI@COAAPHJK@?$AA_?$AAg?$AAe?$AAt?$AA_?$AAp?$AAg?$AAm?$AAp?$AAt?$AAr?$AA?$AA@ 004914e4     LIBCMTD:crt0dat.obj
 0002:0000c500       __XcptActTab               00491500     LIBCMTD:winxfltr.obj
 0002:0000c590       __First_FPE_Indx           00491590     LIBCMTD:winxfltr.obj
 0002:0000c594       __Num_FPE                  00491594     LIBCMTD:winxfltr.obj
 0002:0000c598       __XcptActTabSize           00491598     LIBCMTD:winxfltr.obj
 0002:0000c59c       __XcptActTabCount          0049159c     LIBCMTD:winxfltr.obj
 0002:0000c5a0       ??_C@_1DE@MMOGFGHF@?$AAs?$AAt?$AAr?$AAc?$AAp?$AAy?$AA_?$AAs?$AA?$CI?$AA?$CK?$AAe?$AAn?$AAv?$AA?0?$AA?5?$AAc?$AAc?$AAh?$AAa?$AAr?$AAs?$AA?0?$AA?5?$AAp?$AA?$CJ?$AA?$AA@ 004915a0     LIBCMTD:stdenvp.obj
 0002:0000c5d4       ??_C@_1BC@GHMCNHHL@?$AA_?$AAs?$AAe?$AAt?$AAe?$AAn?$AAv?$AAp?$AA?$AA@ 004915d4     LIBCMTD:stdenvp.obj
 0002:0000c5e8       ??_C@_1GC@DGBFLDBN@?$AAf?$AA?3?$AA?2?$AAd?$AAd?$AA?2?$AAv?$AAc?$AAt?$AAo?$AAo?$AAl?$AAs?$AA?2?$AAc?$AAr?$AAt?$AA_?$AAb?$AAl?$AAd?$AA?2?$AAs?$AAe?$AAl?$AAf?$AA_?$AAx?$AA8?$AA6?$AA?2?$AAc@ 004915e8     LIBCMTD:stdenvp.obj
 0002:0000c64c       ??_C@_0DB@BMEBJJKP@f?3?2dd?2vctools?2crt_bld?2self_x86?2c@ 0049164c     LIBCMTD:stdenvp.obj
 0002:0000c680       ??_C@_0DB@OEPBJOLC@f?3?2dd?2vctools?2crt_bld?2self_x86?2c@ 00491680     LIBCMTD:stdargv.obj
 0002:0000c6b4       ??_C@_0CP@PPLBCJDN@f?3?2dd?2vctools?2crt_bld?2self_x86?2c@ 004916b4     LIBCMTD:a_env.obj
 0002:0000c6e4       ??_C@_0DA@NBLAKPEL@f?3?2dd?2vctools?2crt_bld?2self_x86?2c@ 004916e4     LIBCMTD:ioinit.obj
 0002:0000c718       ??_C@_1GE@JDDMFOID@?$AAf?$AA?3?$AA?2?$AAd?$AAd?$AA?2?$AAv?$AAc?$AAt?$AAo?$AAo?$AAl?$AAs?$AA?2?$AAc?$AAr?$AAt?$AA_?$AAb?$AAl?$AAd?$AA?2?$AAs?$AAe?$AAl?$AAf?$AA_?$AAx?$AA8?$AA6?$AA?2?$AAc@ 00491718     LIBCMTD:heapinit.obj
 0002:0000c77c       ??_C@_1BC@DENNNKIM@?$AA_?$AAc?$AAr?$AAt?$AAh?$AAe?$AAa?$AAp?$AA?$AA@ 0049177c     LIBCMTD:heapinit.obj
 0002:0000c790       ??_C@_1BO@BKOMIGKJ@?$AAr?$AAu?$AAn?$AAt?$AAi?$AAm?$AAe?$AA?5?$AAe?$AAr?$AAr?$AAo?$AAr?$AA?5?$AA?$AA@ 00491790     LIBCMTD:crt0msg.obj
 0002:0000c7b0       ??_C@_15JNBOKNOG@?$AA?$AN?$AA?6?$AA?$AA@ 004917b0     LIBCMTD:crt0msg.obj
 0002:0000c7b8       ??_C@_1BM@JBBEPPHI@?$AAT?$AAL?$AAO?$AAS?$AAS?$AA?5?$AAe?$AAr?$AAr?$AAo?$AAr?$AA?$AN?$AA?6?$AA?$AA@ 004917b8     LIBCMTD:crt0msg.obj
