 TestDvTestBasic

 Timestamp is 4e1c1b95 (Tue Jul 12 11:01:57 2011)

 Preferred load address is 00400000

 Start         Length     Name                   Class
 0001:00000000 000fb50cH .text                   CODE
 0001:000fb510 0000d6d3H .text$x                 CODE
 0001:00108bf0 00003d8eH .text$yc                CODE
 0001:0010c980 00001a31H .text$yd                CODE
 0002:00000000 00000220H .idata$5                DATA
 0002:00000220 00000004H .CRT$XCA                DATA
 0002:00000224 00000004H .CRT$XCC                DATA
 0002:00000228 00000340H .CRT$XCU                DATA
 0002:00000568 00000004H .CRT$XCZ                DATA
 0002:0000056c 00000004H .CRT$XIA                DATA
 0002:00000570 00000010H .CRT$XIC                DATA
 0002:00000580 00000004H .CRT$XIY                DATA
 0002:00000584 00000004H .CRT$XIZ                DATA
 0002:00000588 00000004H .CRT$XPA                DATA
 0002:0000058c 00000008H .CRT$XPX                DATA
 0002:00000594 00000004H .CRT$XPXA               DATA
 0002:00000598 00000004H .CRT$XPZ                DATA
 0002:0000059c 00000004H .CRT$XTA                DATA
 0002:000005a0 00000004H .CRT$XTZ                DATA
 0002:000005b0 0001ee48H .rdata                  DATA
 0002:0001f3f8 00000056H .rdata$debug            DATA
 0002:0001f450 000042e0H .rdata$r                DATA
 0002:00023730 00000fd0H .rdata$sxdata           DATA
 0002:00024700 00000004H .rtc$IAA                DATA
 0002:00024704 000000ccH .rtc$IMZ                DATA
 0002:000247d0 00000004H .rtc$IZZ                DATA
 0002:000247d4 00000004H .rtc$TAA                DATA
 0002:000247d8 000000ccH .rtc$TMZ                DATA
 0002:000248a4 00000004H .rtc$TZZ                DATA
 0002:000248a8 0000f67cH .xdata$x                DATA
 0002:00033f24 0000003cH .idata$2                DATA
 0002:00033f60 00000014H .idata$3                DATA
 0002:00033f74 00000220H .idata$4                DATA
 0002:00034194 0000089eH .idata$6                DATA
 0002:00034a40 000012e5H .edata                  DATA
 0003:00000000 00007fa0H .data                   DATA
 0003:00007fa0 000034ecH .bss                    DATA

  Address         Publics by Value              Rva+Base       Lib:Object

 0000:00000000       __except_list              00000000     <absolute>
 0000:000003f4       ___safe_se_handler_count   000003f4     <absolute>
 0000:00000000       ___ImageBase               00400000     <linker-defined>
 0001:00000000       ??0ProviderTestBasic@@QAE@AAVDvDevice@Net@OpenHome@@@Z 00401000 f   TestDvTestBasic.obj
 0001:00000140       ?Increment@ProviderTestBasic@@EAEXAAVIInvocationResponse@Net@OpenHome@@IIAAVIInvocationResponseUint@34@@Z 00401140 f   TestDvTestBasic.obj
 0001:000001b0       ?Decrement@ProviderTestBasic@@EAEXAAVIInvocationResponse@Net@OpenHome@@IHAAVIInvocationResponseInt@34@@Z 004011b0 f   TestDvTestBasic.obj
 0001:00000220       ?Toggle@ProviderTestBasic@@EAEXAAVIInvocationResponse@Net@OpenHome@@I_NAAVIInvocationResponseBool@34@@Z 00401220 f   TestDvTestBasic.obj
 0001:00000290       ?EchoString@ProviderTestBasic@@EAEXAAVIInvocationResponse@Net@OpenHome@@IABVBrx@4@AAVIInvocationResponseString@34@@Z 00401290 f   TestDvTestBasic.obj
 0001:00000310       ?EchoBinary@ProviderTestBasic@@EAEXAAVIInvocationResponse@Net@OpenHome@@IABVBrx@4@AAVIInvocationResponseBinary@34@@Z 00401310 f   TestDvTestBasic.obj
 0001:00000390       ?SetUint@ProviderTestBasic@@EAEXAAVIInvocationResponse@Net@OpenHome@@II@Z 00401390 f   TestDvTestBasic.obj
 0001:000003f0       ?GetUint@ProviderTestBasic@@EAEXAAVIInvocationResponse@Net@OpenHome@@IAAVIInvocationResponseUint@34@@Z 004013f0 f   TestDvTestBasic.obj
 0001:000004a0       ?SetInt@ProviderTestBasic@@EAEXAAVIInvocationResponse@Net@OpenHome@@IH@Z 004014a0 f   TestDvTestBasic.obj
 0001:00000500       ?GetInt@ProviderTestBasic@@EAEXAAVIInvocationResponse@Net@OpenHome@@IAAVIInvocationResponseInt@34@@Z 00401500 f   TestDvTestBasic.obj
 0001:000005b0       ?SetBool@ProviderTestBasic@@EAEXAAVIInvocationResponse@Net@OpenHome@@I_N@Z 004015b0 f   TestDvTestBasic.obj
 0001:00000610       ?GetBool@ProviderTestBasic@@EAEXAAVIInvocationResponse@Net@OpenHome@@IAAVIInvocationResponseBool@34@@Z 00401610 f   TestDvTestBasic.obj
 0001:000006c0       ?SetMultiple@ProviderTestBasic@@EAEXAAVIInvocationResponse@Net@OpenHome@@IIH_N@Z 004016c0 f   TestDvTestBasic.obj
 0001:00000750       ?SetString@ProviderTestBasic@@EAEXAAVIInvocationResponse@Net@OpenHome@@IABVBrx@4@@Z 00401750 f   TestDvTestBasic.obj
 0001:000007b0       ?GetString@ProviderTestBasic@@EAEXAAVIInvocationResponse@Net@OpenHome@@IAAVIInvocationResponseString@34@@Z 004017b0 f   TestDvTestBasic.obj
 0001:000008c0       ?SetBinary@ProviderTestBasic@@EAEXAAVIInvocationResponse@Net@OpenHome@@IABVBrx@4@@Z 004018c0 f   TestDvTestBasic.obj
 0001:00000920       ?GetBinary@ProviderTestBasic@@EAEXAAVIInvocationResponse@Net@OpenHome@@IAAVIInvocationResponseBinary@34@@Z 00401920 f   TestDvTestBasic.obj
 0001:00000a30       ?WriteFile@ProviderTestBasic@@EAEXAAVIInvocationResponse@Net@OpenHome@@IABVBrx@4@1@Z 00401a30 f   TestDvTestBasic.obj
 0001:00000b40       ?Shutdown@ProviderTestBasic@@EAEXAAVIInvocationResponse@Net@OpenHome@@I@Z 00401b40 f   TestDvTestBasic.obj
 0001:00000ba0       ??0DeviceBasic@@QAE@ABVBrx@OpenHome@@@Z 00401ba0 f   TestDvTestBasic.obj
 0001:00000d90       ??1DeviceBasic@@UAE@XZ     00401d90 f   TestDvTestBasic.obj
 0001:00000e80       ?WriteResource@DeviceBasic@@EAEXABVBrx@OpenHome@@IAAV?$vector@PADV?$allocator@PAD@std@@@std@@AAVIResourceWriter@Net@3@@Z 00401e80 f   TestDvTestBasic.obj
 0001:000012d0       ?Main@Runner@TestFramework@OpenHome@@SGXHQAPADPAVInitialisationParams@Net@3@@Z 004022d0 f   TestDvTestBasic.obj
 0001:00001630       ??1DvProviderOpenhomeOrgTestBasic1@Net@OpenHome@@UAE@XZ 00402630 f i TestDvTestBasic.obj
 0001:00001660       ??_GDvProviderOpenhomeOrgTestBasic1@Net@OpenHome@@UAEPAXI@Z 00402660 f i TestDvTestBasic.obj
 0001:00001660       ??_EDvProviderOpenhomeOrgTestBasic1@Net@OpenHome@@UAEPAXI@Z 00402660 f i TestDvTestBasic.obj
 0001:000016a0       ??_GProviderTestBasic@@UAEPAXI@Z 004026a0 f i TestDvTestBasic.obj
 0001:000016a0       ??_EProviderTestBasic@@UAEPAXI@Z 004026a0 f i TestDvTestBasic.obj
 0001:000016e0       ??1ProviderTestBasic@@UAE@XZ 004026e0 f i TestDvTestBasic.obj
 0001:00001710       ??0Brhz@OpenHome@@QAE@XZ   00402710 f i TestDvTestBasic.obj
 0001:00001740       ??0Brv@OpenHome@@IAE@XZ    00402740 f i TestDvTestBasic.obj
 0001:000017c0       ??0INonCopyable@OpenHome@@IAE@XZ 004027c0 f i TestDvTestBasic.obj
 0001:000017e0       ??1Brx@OpenHome@@UAE@XZ    004027e0 f i TestDvTestBasic.obj
 0001:00001800       ??_GBrx@OpenHome@@UAEPAXI@Z 00402800 f i TestDvTestBasic.obj
 0001:00001800       ??_EBrx@OpenHome@@UAEPAXI@Z 00402800 f i TestDvTestBasic.obj
 0001:00001840       ??_EBrv@OpenHome@@UAEPAXI@Z 00402840 f i TestDvTestBasic.obj
 0001:000018c0       ??0Brx@OpenHome@@IAE@I@Z   004028c0 f i TestDvTestBasic.obj
 0001:000018f0       ??_EBrhz@OpenHome@@UAEPAXI@Z 004028f0 f i TestDvTestBasic.obj
 0001:000018f0       ??_GBrhz@OpenHome@@UAEPAXI@Z 004028f0 f i TestDvTestBasic.obj
 0001:00001930       ??1Brhz@OpenHome@@UAE@XZ   00402930 f i TestDvTestBasic.obj
 0001:00001960       ??0Brh@OpenHome@@QAE@XZ    00402960 f i TestDvTestBasic.obj
 0001:00001990       ??_EBrh@OpenHome@@UAEPAXI@Z 00402990 f i TestDvTestBasic.obj
 0001:00001990       ??_GBrh@OpenHome@@UAEPAXI@Z 00402990 f i TestDvTestBasic.obj
 0001:000019d0       ??1Brh@OpenHome@@UAE@XZ    004029d0 f i TestDvTestBasic.obj
 0001:00001a00       ?Bytes@Brx@OpenHome@@QBEIXZ 00402a00 f i TestDvTestBasic.obj
 0001:00001a20       ??1Brn@OpenHome@@UAE@XZ    00402a20 f i TestDvTestBasic.obj
 0001:00001a50       ??1IResourceManager@Net@OpenHome@@UAE@XZ 00402a50 f i TestDvTestBasic.obj
 0001:00001a70       ??_EIResourceManager@Net@OpenHome@@UAEPAXI@Z 00402a70 f i TestDvTestBasic.obj
 0001:00001a70       ??_GIResourceManager@Net@OpenHome@@UAEPAXI@Z 00402a70 f i TestDvTestBasic.obj
 0001:00001ab0       ??_EDeviceBasic@@UAEPAXI@Z 00402ab0 f i TestDvTestBasic.obj
 0001:00001ab0       ??_GDeviceBasic@@UAEPAXI@Z 00402ab0 f i TestDvTestBasic.obj
 0001:00001af0       ??0IResourceManager@Net@OpenHome@@QAE@XZ 00402af0 f i TestDvTestBasic.obj
 0001:00001b10       ??_GDvDeviceStandard@Net@OpenHome@@QAEPAXI@Z 00402b10 f i TestDvTestBasic.obj
 0001:00001b50       ??1DvDeviceStandard@Net@OpenHome@@QAE@XZ 00402b50 f i TestDvTestBasic.obj
 0001:00001b80       ??0Brn@OpenHome@@QAE@XZ    00402b80 f i TestDvTestBasic.obj
 0001:00001bc0       ??_EBrn@OpenHome@@UAEPAXI@Z 00402bc0 f i TestDvTestBasic.obj
 0001:00001bc0       ??_GBrn@OpenHome@@UAEPAXI@Z 00402bc0 f i TestDvTestBasic.obj
 0001:00001c00       ?Set@Brn@OpenHome@@QAEXABVBrx@2@@Z 00402c00 f i TestDvTestBasic.obj
 0001:00001c50       ?Append@Bwx@OpenHome@@QAEXE@Z 00402c50 f i TestDvTestBasic.obj
 0001:00001c80       ??ABwx@OpenHome@@QAEAAEI@Z 00402c80 f i TestDvTestBasic.obj
 0001:00001cb0       ??1OptionString@TestFramework@OpenHome@@QAE@XZ 00402cb0 f i TestDvTestBasic.obj
 0001:00001d30       ??1OptionBool@TestFramework@OpenHome@@QAE@XZ 00402d30 f i TestDvTestBasic.obj
 0001:00001d60       ?SetPropertyVarUint@DvProviderOpenhomeOrgTestBasic1@Net@OpenHome@@QAE_NI@Z 00402d60 f   DvOpenhomeOrgTestBasic1.obj
 0001:00001da0       ?GetPropertyVarUint@DvProviderOpenhomeOrgTestBasic1@Net@OpenHome@@QAEXAAI@Z 00402da0 f   DvOpenhomeOrgTestBasic1.obj
 0001:00001dd0       ?SetPropertyVarInt@DvProviderOpenhomeOrgTestBasic1@Net@OpenHome@@QAE_NH@Z 00402dd0 f   DvOpenhomeOrgTestBasic1.obj
 0001:00001e10       ?GetPropertyVarInt@DvProviderOpenhomeOrgTestBasic1@Net@OpenHome@@QAEXAAH@Z 00402e10 f   DvOpenhomeOrgTestBasic1.obj
 0001:00001e40       ?SetPropertyVarBool@DvProviderOpenhomeOrgTestBasic1@Net@OpenHome@@QAE_N_N@Z 00402e40 f   DvOpenhomeOrgTestBasic1.obj
 0001:00001e80       ?GetPropertyVarBool@DvProviderOpenhomeOrgTestBasic1@Net@OpenHome@@QAEXAA_N@Z 00402e80 f   DvOpenhomeOrgTestBasic1.obj
 0001:00001eb0       ?SetPropertyVarStr@DvProviderOpenhomeOrgTestBasic1@Net@OpenHome@@QAE_NABVBrx@3@@Z 00402eb0 f   DvOpenhomeOrgTestBasic1.obj
 0001:00001ef0       ?GetPropertyVarStr@DvProviderOpenhomeOrgTestBasic1@Net@OpenHome@@QAEXAAVBrhz@3@@Z 00402ef0 f   DvOpenhomeOrgTestBasic1.obj
 0001:00001f30       ?SetPropertyVarBin@DvProviderOpenhomeOrgTestBasic1@Net@OpenHome@@QAE_NABVBrx@3@@Z 00402f30 f   DvOpenhomeOrgTestBasic1.obj
 0001:00001f70       ?GetPropertyVarBin@DvProviderOpenhomeOrgTestBasic1@Net@OpenHome@@QAEXAAVBrh@3@@Z 00402f70 f   DvOpenhomeOrgTestBasic1.obj
 0001:00001fb0       ??0DvProviderOpenhomeOrgTestBasic1@Net@OpenHome@@IAE@AAVDvDevice@12@@Z 00402fb0 f   DvOpenhomeOrgTestBasic1.obj
 0001:00002330       ?EnableActionIncrement@DvProviderOpenhomeOrgTestBasic1@Net@OpenHome@@IAEXXZ 00403330 f   DvOpenhomeOrgTestBasic1.obj
 0001:00002500       ?EnableActionDecrement@DvProviderOpenhomeOrgTestBasic1@Net@OpenHome@@IAEXXZ 00403500 f   DvOpenhomeOrgTestBasic1.obj
 0001:000026e0       ?EnableActionToggle@DvProviderOpenhomeOrgTestBasic1@Net@OpenHome@@IAEXXZ 004036e0 f   DvOpenhomeOrgTestBasic1.obj
 0001:000028a0       ?EnableActionEchoString@DvProviderOpenhomeOrgTestBasic1@Net@OpenHome@@IAEXXZ 004038a0 f   DvOpenhomeOrgTestBasic1.obj
 0001:00002a60       ?EnableActionEchoBinary@DvProviderOpenhomeOrgTestBasic1@Net@OpenHome@@IAEXXZ 00403a60 f   DvOpenhomeOrgTestBasic1.obj
 0001:00002c20       ?EnableActionSetUint@DvProviderOpenhomeOrgTestBasic1@Net@OpenHome@@IAEXXZ 00403c20 f   DvOpenhomeOrgTestBasic1.obj
 0001:00002da0       ?EnableActionGetUint@DvProviderOpenhomeOrgTestBasic1@Net@OpenHome@@IAEXXZ 00403da0 f   DvOpenhomeOrgTestBasic1.obj
 0001:00002f20       ?EnableActionSetInt@DvProviderOpenhomeOrgTestBasic1@Net@OpenHome@@IAEXXZ 00403f20 f   DvOpenhomeOrgTestBasic1.obj
 0001:000030a0       ?EnableActionGetInt@DvProviderOpenhomeOrgTestBasic1@Net@OpenHome@@IAEXXZ 004040a0 f   DvOpenhomeOrgTestBasic1.obj
 0001:00003220       ?EnableActionSetBool@DvProviderOpenhomeOrgTestBasic1@Net@OpenHome@@IAEXXZ 00404220 f   DvOpenhomeOrgTestBasic1.obj
 0001:000033a0       ?EnableActionGetBool@DvProviderOpenhomeOrgTestBasic1@Net@OpenHome@@IAEXXZ 004043a0 f   DvOpenhomeOrgTestBasic1.obj
 0001:00003520       ?EnableActionSetMultiple@DvProviderOpenhomeOrgTestBasic1@Net@OpenHome@@IAEXXZ 00404520 f   DvOpenhomeOrgTestBasic1.obj
 0001:00003740       ?EnableActionSetString@DvProviderOpenhomeOrgTestBasic1@Net@OpenHome@@IAEXXZ 00404740 f   DvOpenhomeOrgTestBasic1.obj
 0001:000038c0       ?EnableActionGetString@DvProviderOpenhomeOrgTestBasic1@Net@OpenHome@@IAEXXZ 004048c0 f   DvOpenhomeOrgTestBasic1.obj
 0001:00003a40       ?EnableActionSetBinary@DvProviderOpenhomeOrgTestBasic1@Net@OpenHome@@IAEXXZ 00404a40 f   DvOpenhomeOrgTestBasic1.obj
 0001:00003bc0       ?EnableActionGetBinary@DvProviderOpenhomeOrgTestBasic1@Net@OpenHome@@IAEXXZ 00404bc0 f   DvOpenhomeOrgTestBasic1.obj
 0001:00003d40       ?EnableActionToggleBool@DvProviderOpenhomeOrgTestBasic1@Net@OpenHome@@IAEXXZ 00404d40 f   DvOpenhomeOrgTestBasic1.obj
 0001:00003e70       ?EnableActionWriteFile@DvProviderOpenhomeOrgTestBasic1@Net@OpenHome@@IAEXXZ 00404e70 f   DvOpenhomeOrgTestBasic1.obj
 0001:00004030       ?EnableActionShutdown@DvProviderOpenhomeOrgTestBasic1@Net@OpenHome@@IAEXXZ 00405030 f   DvOpenhomeOrgTestBasic1.obj
 0001:00004160       ?DoIncrement@DvProviderOpenhomeOrgTestBasic1@Net@OpenHome@@AAEXAAVIDviInvocation@23@I@Z 00405160 f   DvOpenhomeOrgTestBasic1.obj
 0001:000042b0       ?DoDecrement@DvProviderOpenhomeOrgTestBasic1@Net@OpenHome@@AAEXAAVIDviInvocation@23@I@Z 004052b0 f   DvOpenhomeOrgTestBasic1.obj
 0001:00004400       ?DoToggle@DvProviderOpenhomeOrgTestBasic1@Net@OpenHome@@AAEXAAVIDviInvocation@23@I@Z 00405400 f   DvOpenhomeOrgTestBasic1.obj
 0001:00004550       ?DoEchoString@DvProviderOpenhomeOrgTestBasic1@Net@OpenHome@@AAEXAAVIDviInvocation@23@I@Z 00405550 f   DvOpenhomeOrgTestBasic1.obj
 0001:000046d0       ?DoEchoBinary@DvProviderOpenhomeOrgTestBasic1@Net@OpenHome@@AAEXAAVIDviInvocation@23@I@Z 004056d0 f   DvOpenhomeOrgTestBasic1.obj
 0001:00004850       ?DoSetUint@DvProviderOpenhomeOrgTestBasic1@Net@OpenHome@@AAEXAAVIDviInvocation@23@I@Z 00405850 f   DvOpenhomeOrgTestBasic1.obj
 0001:00004970       ?DoGetUint@DvProviderOpenhomeOrgTestBasic1@Net@OpenHome@@AAEXAAVIDviInvocation@23@I@Z 00405970 f   DvOpenhomeOrgTestBasic1.obj
 0001:00004aa0       ?DoSetInt@DvProviderOpenhomeOrgTestBasic1@Net@OpenHome@@AAEXAAVIDviInvocation@23@I@Z 00405aa0 f   DvOpenhomeOrgTestBasic1.obj
 0001:00004bc0       ?DoGetInt@DvProviderOpenhomeOrgTestBasic1@Net@OpenHome@@AAEXAAVIDviInvocation@23@I@Z 00405bc0 f   DvOpenhomeOrgTestBasic1.obj
 0001:00004cf0       ?DoSetBool@DvProviderOpenhomeOrgTestBasic1@Net@OpenHome@@AAEXAAVIDviInvocation@23@I@Z 00405cf0 f   DvOpenhomeOrgTestBasic1.obj
 0001:00004e10       ?DoGetBool@DvProviderOpenhomeOrgTestBasic1@Net@OpenHome@@AAEXAAVIDviInvocation@23@I@Z 00405e10 f   DvOpenhomeOrgTestBasic1.obj
 0001:00004f40       ?DoSetMultiple@DvProviderOpenhomeOrgTestBasic1@Net@OpenHome@@AAEXAAVIDviInvocation@23@I@Z 00405f40 f   DvOpenhomeOrgTestBasic1.obj
 0001:000050b0       ?DoSetString@DvProviderOpenhomeOrgTestBasic1@Net@OpenHome@@AAEXAAVIDviInvocation@23@I@Z 004060b0 f   DvOpenhomeOrgTestBasic1.obj
 0001:000051f0       ?DoGetString@DvProviderOpenhomeOrgTestBasic1@Net@OpenHome@@AAEXAAVIDviInvocation@23@I@Z 004061f0 f   DvOpenhomeOrgTestBasic1.obj
 0001:00005320       ?DoSetBinary@DvProviderOpenhomeOrgTestBasic1@Net@OpenHome@@AAEXAAVIDviInvocation@23@I@Z 00406320 f   DvOpenhomeOrgTestBasic1.obj
 0001:00005460       ?DoGetBinary@DvProviderOpenhomeOrgTestBasic1@Net@OpenHome@@AAEXAAVIDviInvocation@23@I@Z 00406460 f   DvOpenhomeOrgTestBasic1.obj
 0001:00005590       ?DoToggleBool@DvProviderOpenhomeOrgTestBasic1@Net@OpenHome@@AAEXAAVIDviInvocation@23@I@Z 00406590 f   DvOpenhomeOrgTestBasic1.obj
 0001:00005690       ?DoWriteFile@DvProviderOpenhomeOrgTestBasic1@Net@OpenHome@@AAEXAAVIDviInvocation@23@I@Z 00406690 f   DvOpenhomeOrgTestBasic1.obj
 0001:00005820       ?DoShutdown@DvProviderOpenhomeOrgTestBasic1@Net@OpenHome@@AAEXAAVIDviInvocation@23@I@Z 00406820 f   DvOpenhomeOrgTestBasic1.obj
 0001:00005920       ?Increment@DvProviderOpenhomeOrgTestBasic1@Net@OpenHome@@EAEXAAVIInvocationResponse@23@IIAAVIInvocationResponseUint@23@@Z 00406920 f   DvOpenhomeOrgTestBasic1.obj
 0001:00005950       ?Decrement@DvProviderOpenhomeOrgTestBasic1@Net@OpenHome@@EAEXAAVIInvocationResponse@23@IHAAVIInvocationResponseInt@23@@Z 00406950 f   DvOpenhomeOrgTestBasic1.obj
 0001:00005980       ?Toggle@DvProviderOpenhomeOrgTestBasic1@Net@OpenHome@@EAEXAAVIInvocationResponse@23@I_NAAVIInvocationResponseBool@23@@Z 00406980 f   DvOpenhomeOrgTestBasic1.obj
 0001:000059b0       ?EchoString@DvProviderOpenhomeOrgTestBasic1@Net@OpenHome@@EAEXAAVIInvocationResponse@23@IABVBrx@3@AAVIInvocationResponseString@23@@Z 004069b0 f   DvOpenhomeOrgTestBasic1.obj
 0001:000059e0       ?EchoBinary@DvProviderOpenhomeOrgTestBasic1@Net@OpenHome@@EAEXAAVIInvocationResponse@23@IABVBrx@3@AAVIInvocationResponseBinary@23@@Z 004069e0 f   DvOpenhomeOrgTestBasic1.obj
 0001:00005a10       ?SetUint@DvProviderOpenhomeOrgTestBasic1@Net@OpenHome@@EAEXAAVIInvocationResponse@23@II@Z 00406a10 f   DvOpenhomeOrgTestBasic1.obj
 0001:00005a40       ?GetUint@DvProviderOpenhomeOrgTestBasic1@Net@OpenHome@@EAEXAAVIInvocationResponse@23@IAAVIInvocationResponseUint@23@@Z 00406a40 f   DvOpenhomeOrgTestBasic1.obj
 0001:00005a70       ?SetInt@DvProviderOpenhomeOrgTestBasic1@Net@OpenHome@@EAEXAAVIInvocationResponse@23@IH@Z 00406a70 f   DvOpenhomeOrgTestBasic1.obj
 0001:00005aa0       ?GetInt@DvProviderOpenhomeOrgTestBasic1@Net@OpenHome@@EAEXAAVIInvocationResponse@23@IAAVIInvocationResponseInt@23@@Z 00406aa0 f   DvOpenhomeOrgTestBasic1.obj
 0001:00005ad0       ?SetBool@DvProviderOpenhomeOrgTestBasic1@Net@OpenHome@@EAEXAAVIInvocationResponse@23@I_N@Z 00406ad0 f   DvOpenhomeOrgTestBasic1.obj
 0001:00005b00       ?GetBool@DvProviderOpenhomeOrgTestBasic1@Net@OpenHome@@EAEXAAVIInvocationResponse@23@IAAVIInvocationResponseBool@23@@Z 00406b00 f   DvOpenhomeOrgTestBasic1.obj
 0001:00005b30       ?SetMultiple@DvProviderOpenhomeOrgTestBasic1@Net@OpenHome@@EAEXAAVIInvocationResponse@23@IIH_N@Z 00406b30 f   DvOpenhomeOrgTestBasic1.obj
 0001:00005b60       ?SetString@DvProviderOpenhomeOrgTestBasic1@Net@OpenHome@@EAEXAAVIInvocationResponse@23@IABVBrx@3@@Z 00406b60 f   DvOpenhomeOrgTestBasic1.obj
 0001:00005b90       ?GetString@DvProviderOpenhomeOrgTestBasic1@Net@OpenHome@@EAEXAAVIInvocationResponse@23@IAAVIInvocationResponseString@23@@Z 00406b90 f   DvOpenhomeOrgTestBasic1.obj
 0001:00005bc0       ?SetBinary@DvProviderOpenhomeOrgTestBasic1@Net@OpenHome@@EAEXAAVIInvocationResponse@23@IABVBrx@3@@Z 00406bc0 f   DvOpenhomeOrgTestBasic1.obj
 0001:00005bf0       ?GetBinary@DvProviderOpenhomeOrgTestBasic1@Net@OpenHome@@EAEXAAVIInvocationResponse@23@IAAVIInvocationResponseBinary@23@@Z 00406bf0 f   DvOpenhomeOrgTestBasic1.obj
 0001:00005c20       ?ToggleBool@DvProviderOpenhomeOrgTestBasic1@Net@OpenHome@@EAEXAAVIInvocationResponse@23@I@Z 00406c20 f   DvOpenhomeOrgTestBasic1.obj
 0001:00005c50       ?WriteFile@DvProviderOpenhomeOrgTestBasic1@Net@OpenHome@@EAEXAAVIInvocationResponse@23@IABVBrx@3@1@Z 00406c50 f   DvOpenhomeOrgTestBasic1.obj
 0001:00005c80       ?Shutdown@DvProviderOpenhomeOrgTestBasic1@Net@OpenHome@@EAEXAAVIInvocationResponse@23@I@Z 00406c80 f   DvOpenhomeOrgTestBasic1.obj
 0001:00005cb0       ?Set@Brhz@OpenHome@@QAEXABVBrx@2@@Z 00406cb0 f i DvOpenhomeOrgTestBasic1.obj
 0001:00005d00       ?Set@Brh@OpenHome@@QAEXABVBrx@2@@Z 00406d00 f i DvOpenhomeOrgTestBasic1.obj
 0001:00005d50       ??1InvocationResponse@Net@OpenHome@@UAE@XZ 00406d50 f i DvOpenhomeOrgTestBasic1.obj
 0001:00005d80       ??1IInvocationResponse@Net@OpenHome@@UAE@XZ 00406d80 f i DvOpenhomeOrgTestBasic1.obj
 0001:00005da0       ??_EIInvocationResponse@Net@OpenHome@@UAEPAXI@Z 00406da0 f i DvOpenhomeOrgTestBasic1.obj
 0001:00005da0       ??_GIInvocationResponse@Net@OpenHome@@UAEPAXI@Z 00406da0 f i DvOpenhomeOrgTestBasic1.obj
 0001:00005de0       ??1InvocationResponseUint@Net@OpenHome@@UAE@XZ 00406de0 f i DvOpenhomeOrgTestBasic1.obj
 0001:00005e10       ??1IInvocationResponseUint@Net@OpenHome@@UAE@XZ 00406e10 f i DvOpenhomeOrgTestBasic1.obj
 0001:00005e30       ??_EIInvocationResponseUint@Net@OpenHome@@UAEPAXI@Z 00406e30 f i DvOpenhomeOrgTestBasic1.obj
 0001:00005e30       ??_GIInvocationResponseUint@Net@OpenHome@@UAEPAXI@Z 00406e30 f i DvOpenhomeOrgTestBasic1.obj
 0001:00005e70       ??1InvocationResponseInt@Net@OpenHome@@UAE@XZ 00406e70 f i DvOpenhomeOrgTestBasic1.obj
 0001:00005ea0       ??1IInvocationResponseInt@Net@OpenHome@@UAE@XZ 00406ea0 f i DvOpenhomeOrgTestBasic1.obj
 0001:00005ec0       ??_GIInvocationResponseInt@Net@OpenHome@@UAEPAXI@Z 00406ec0 f i DvOpenhomeOrgTestBasic1.obj
 0001:00005ec0       ??_EIInvocationResponseInt@Net@OpenHome@@UAEPAXI@Z 00406ec0 f i DvOpenhomeOrgTestBasic1.obj
 0001:00005f00       ??1InvocationResponseBool@Net@OpenHome@@UAE@XZ 00406f00 f i DvOpenhomeOrgTestBasic1.obj
 0001:00005f30       ??1IInvocationResponseBool@Net@OpenHome@@UAE@XZ 00406f30 f i DvOpenhomeOrgTestBasic1.obj
 0001:00005f50       ??_GIInvocationResponseBool@Net@OpenHome@@UAEPAXI@Z 00406f50 f i DvOpenhomeOrgTestBasic1.obj
 0001:00005f50       ??_EIInvocationResponseBool@Net@OpenHome@@UAEPAXI@Z 00406f50 f i DvOpenhomeOrgTestBasic1.obj
 0001:00005f90       ??1InvocationResponseString@Net@OpenHome@@UAE@XZ 00406f90 f i DvOpenhomeOrgTestBasic1.obj
 0001:00005fc0       ??1IInvocationResponseString@Net@OpenHome@@UAE@XZ 00406fc0 f i DvOpenhomeOrgTestBasic1.obj
 0001:00005ff0       ??1IWriter@OpenHome@@UAE@XZ 00406ff0 f i DvOpenhomeOrgTestBasic1.obj
 0001:00006010       ??_GIWriter@OpenHome@@UAEPAXI@Z 00407010 f i DvOpenhomeOrgTestBasic1.obj
 0001:00006010       ??_EIWriter@OpenHome@@UAEPAXI@Z 00407010 f i DvOpenhomeOrgTestBasic1.obj
 0001:00006050       ??_EIInvocationResponseString@Net@OpenHome@@UAEPAXI@Z 00407050 f i DvOpenhomeOrgTestBasic1.obj
 0001:00006050       ??_GIInvocationResponseString@Net@OpenHome@@UAEPAXI@Z 00407050 f i DvOpenhomeOrgTestBasic1.obj
 0001:00006090       ??1InvocationResponseBinary@Net@OpenHome@@UAE@XZ 00407090 f i DvOpenhomeOrgTestBasic1.obj
 0001:000060c0       ??1IInvocationResponseBinary@Net@OpenHome@@UAE@XZ 004070c0 f i DvOpenhomeOrgTestBasic1.obj
 0001:000060f0       ??_GIInvocationResponseBinary@Net@OpenHome@@UAEPAXI@Z 004070f0 f i DvOpenhomeOrgTestBasic1.obj
 0001:000060f0       ??_EIInvocationResponseBinary@Net@OpenHome@@UAEPAXI@Z 004070f0 f i DvOpenhomeOrgTestBasic1.obj
 0001:00006130       ??$MakeFunctorDviInvocation@VDvProviderOpenhomeOrgTestBasic1@Net@OpenHome@@V123@@Net@OpenHome@@YG?AV?$MemberTranslatorDviInvocation@VDvProviderOpenhomeOrgTestBasic1@Net@OpenHome@@P8123@AEXAAVIDviInvocation@23@I@Z@01@AAVDvProviderOpenhomeOrgTestBasic1@01@ABQ8301@AEXAAVIDviInvocation@01@I@Z@Z 00407130 f i DvOpenhomeOrgTestBasic1.obj
 0001:00006160       ??0?$MemberTranslatorDviInvocation@VDvProviderOpenhomeOrgTestBasic1@Net@OpenHome@@P8123@AEXAAVIDviInvocation@23@I@Z@Net@OpenHome@@QAE@AAVDvProviderOpenhomeOrgTestBasic1@12@ABQ8312@AEXAAVIDviInvocation@12@I@Z@Z 00407160 f i DvOpenhomeOrgTestBasic1.obj
 0001:000061a0       ??0FunctorDviInvocation@Net@OpenHome@@IAE@P6GXABV012@AAVIDviInvocation@12@I@ZPBX3I@Z 004071a0 f i DvOpenhomeOrgTestBasic1.obj
 0001:000061f0       ?Thunk@?$MemberTranslatorDviInvocation@VDvProviderOpenhomeOrgTestBasic1@Net@OpenHome@@P8123@AEXAAVIDviInvocation@23@I@Z@Net@OpenHome@@SGXABVFunctorDviInvocation@23@AAVIDviInvocation@23@I@Z 004071f0 f i DvOpenhomeOrgTestBasic1.obj
 0001:00006240       ?Log@TestConsole@@QAEXPBD@Z 00407240 f   libTestFramework:TestFramework.obj
 0001:00006270       ?AssertHandlerTest@TestFramework@OpenHome@@YGXPBDI@Z 00407270 f   libTestFramework:TestFramework.obj
 0001:00006320       ??0Suite@TestFramework@OpenHome@@IAE@PBD@Z 00407320 f   libTestFramework:TestFramework.obj
 0001:00006360       ??1Suite@TestFramework@OpenHome@@MAE@XZ 00407360 f   libTestFramework:TestFramework.obj
 0001:00006380       ?Description@Suite@TestFramework@OpenHome@@QBEPBDXZ 00407380 f   libTestFramework:TestFramework.obj
 0001:000063a0       ??0Runner@TestFramework@OpenHome@@QAE@PBD@Z 004073a0 f   libTestFramework:TestFramework.obj
 0001:000063e0       ??1Runner@TestFramework@OpenHome@@QAE@XZ 004073e0 f   libTestFramework:TestFramework.obj
 0001:00006400       ?Add@Runner@TestFramework@OpenHome@@QAEXPAVSuite@23@@Z 00407400 f   libTestFramework:TestFramework.obj
 0001:00006480       ?Run@Runner@TestFramework@OpenHome@@QAEXXZ 00407480 f   libTestFramework:TestFramework.obj
 0001:00006730       ?Fail@TestFramework@OpenHome@@YGXPBDI00@Z 00407730 f   libTestFramework:TestFramework.obj
 0001:00006790       ?Succeed@TestFramework@OpenHome@@YGXPBDI@Z 00407790 f   libTestFramework:TestFramework.obj
 0001:000067c0       ?SucceedQuietly@TestFramework@OpenHome@@YGXPBDI@Z 004077c0 f   libTestFramework:TestFramework.obj
 0001:000067f0       ?TimeStart@TestFramework@OpenHome@@YGIXZ 004077f0 f   libTestFramework:TestFramework.obj
 0001:00006810       ?TimeStop@TestFramework@OpenHome@@YGII@Z 00407810 f   libTestFramework:TestFramework.obj
 0001:00006840       ?Print@TestFramework@OpenHome@@YAHPBDZZ 00407840 f   libTestFramework:TestFramework.obj
 0001:00006900       ?Print@TestFramework@OpenHome@@YGHPBDPAD@Z 00407900 f   libTestFramework:TestFramework.obj
 0001:000069b0       ?Print@TestFramework@OpenHome@@YGHABVBrx@2@@Z 004079b0 f   libTestFramework:TestFramework.obj
 0001:00006a60       ?PrintHex@TestFramework@OpenHome@@YGHABVBrx@2@@Z 00407a60 f   libTestFramework:TestFramework.obj
 0001:00006b10       ??0Blocker@TestFramework@OpenHome@@QAE@XZ 00407b10 f   libTestFramework:TestFramework.obj
 0001:00006c10       ??1Blocker@TestFramework@OpenHome@@QAE@XZ 00407c10 f   libTestFramework:TestFramework.obj
 0001:00006cb0       ?Wait@Blocker@TestFramework@OpenHome@@QAEXI@Z 00407cb0 f   libTestFramework:TestFramework.obj
 0001:00006cf0       ?TimerExpired@Blocker@TestFramework@OpenHome@@AAEXXZ 00407cf0 f   libTestFramework:TestFramework.obj
 0001:00006d20       ?ConsoleWrite@Os@OpenHome@@SGXPBD@Z 00407d20 f i libTestFramework:TestFramework.obj
 0001:00006d40       ??0AssertionFailed@OpenHome@@QAE@PBDI@Z 00407d40 f i libTestFramework:TestFramework.obj
 0001:00006d80       ??1AssertionFailed@OpenHome@@QAE@XZ 00407d80 f i libTestFramework:TestFramework.obj
 0001:00006db0       ??_ESuite@TestFramework@OpenHome@@MAEPAXI@Z 00407db0 f i libTestFramework:TestFramework.obj
 0001:00006db0       ??_GSuite@TestFramework@OpenHome@@MAEPAXI@Z 00407db0 f i libTestFramework:TestFramework.obj
 0001:00006df0       ?TimeInMs@Os@OpenHome@@SGIXZ 00407df0 f i libTestFramework:TestFramework.obj
 0001:00006e10       ?TimeInUs@Os@OpenHome@@SG_KXZ 00407e10 f i libTestFramework:TestFramework.obj
 0001:00006e30       ??_GTimer@OpenHome@@QAEPAXI@Z 00407e30 f i libTestFramework:TestFramework.obj
 0001:00006e70       ??$MakeFunctorMsg@VTestConsole@@V1@@OpenHome@@YG?AV?$MemberTranslatorMsg@VTestConsole@@P81@AEXPBD@Z@0@AAVTestConsole@@ABQ82@AEXPBD@Z@Z 00407e70 f i libTestFramework:TestFramework.obj
 0001:00006ea0       ??$MakeFunctor@VBlocker@TestFramework@OpenHome@@XV123@@OpenHome@@YG?AV?$MemberTranslator@VBlocker@TestFramework@OpenHome@@P8123@AEXXZ@0@AAVBlocker@TestFramework@0@ABQ8230@AEXXZ@Z 00407ea0 f i libTestFramework:TestFramework.obj
 0001:00006ed0       ??0?$MemberTranslatorMsg@VTestConsole@@P81@AEXPBD@Z@OpenHome@@QAE@AAVTestConsole@@ABQ82@AEXPBD@Z@Z 00407ed0 f i libTestFramework:TestFramework.obj
 0001:00006f10       ??0FunctorMsg@OpenHome@@IAE@P6GXABV01@PBD@ZPBX3I@Z 00407f10 f i libTestFramework:TestFramework.obj
 0001:00006f60       ??0?$MemberTranslator@VBlocker@TestFramework@OpenHome@@P8123@AEXXZ@OpenHome@@QAE@AAVBlocker@TestFramework@1@ABQ8231@AEXXZ@Z 00407f60 f i libTestFramework:TestFramework.obj
 0001:00006fa0       ??0Functor@OpenHome@@IAE@P6GXABV01@@ZPBX2I@Z 00407fa0 f i libTestFramework:TestFramework.obj
 0001:00006ff0       ?Thunk@?$MemberTranslatorMsg@VTestConsole@@P81@AEXPBD@Z@OpenHome@@SGXABVFunctorMsg@2@PBD@Z 00407ff0 f i libTestFramework:TestFramework.obj
 0001:00007040       ?Thunk@?$MemberTranslator@VBlocker@TestFramework@OpenHome@@P8123@AEXXZ@OpenHome@@SGXABVFunctor@2@@Z 00408040 f i libTestFramework:TestFramework.obj
 0001:00007090       ??0Option@TestFramework@OpenHome@@QAE@PBD00@Z 00408090 f   libTestFramework:OptionParser.obj
 0001:000071e0       ??1Option@TestFramework@OpenHome@@QAE@XZ 004081e0 f   libTestFramework:OptionParser.obj
 0001:00007250       ?Match@Option@TestFramework@OpenHome@@QBE_NPBD@Z 00408250 f   libTestFramework:OptionParser.obj
 0001:000072c0       ?HelpText@Option@TestFramework@OpenHome@@QBEPBDXZ 004082c0 f   libTestFramework:OptionParser.obj
 0001:000072e0       ??0OptionString@TestFramework@OpenHome@@QAE@PBD0ABVBrx@2@0@Z 004082e0 f   libTestFramework:OptionParser.obj
 0001:00007380       ?Process@OptionString@TestFramework@OpenHome@@UAEXHQAPAD@Z 00408380 f   libTestFramework:OptionParser.obj
 0001:000073b0       ?Reset@OptionString@TestFramework@OpenHome@@UAEXXZ 004083b0 f   libTestFramework:OptionParser.obj
 0001:000073e0       ?ExpectedArgCount@OptionString@TestFramework@OpenHome@@UBEHXZ 004083e0 f   libTestFramework:OptionParser.obj
 0001:00007400       ?Value@OptionString@TestFramework@OpenHome@@QBEABVBrx@3@XZ 00408400 f   libTestFramework:OptionParser.obj
 0001:00007420       ?CString@OptionString@TestFramework@OpenHome@@QBEPBDXZ 00408420 f   libTestFramework:OptionParser.obj
 0001:00007450       ??0OptionInt@TestFramework@OpenHome@@QAE@PBD0H0@Z 00408450 f   libTestFramework:OptionParser.obj
 0001:000074a0       ?Process@OptionInt@TestFramework@OpenHome@@UAEXHQAPAD@Z 004084a0 f   libTestFramework:OptionParser.obj
 0001:00007560       ?Reset@OptionInt@TestFramework@OpenHome@@UAEXXZ 00408560 f   libTestFramework:OptionParser.obj
 0001:00007580       ?ExpectedArgCount@OptionInt@TestFramework@OpenHome@@UBEHXZ 00408580 f   libTestFramework:OptionParser.obj
 0001:000075a0       ?Value@OptionInt@TestFramework@OpenHome@@QBEHXZ 004085a0 f   libTestFramework:OptionParser.obj
 0001:000075c0       ??0OptionUint@TestFramework@OpenHome@@QAE@PBD0I0@Z 004085c0 f   libTestFramework:OptionParser.obj
 0001:00007610       ?Process@OptionUint@TestFramework@OpenHome@@UAEXHQAPAD@Z 00408610 f   libTestFramework:OptionParser.obj
 0001:000076d0       ?Reset@OptionUint@TestFramework@OpenHome@@UAEXXZ 004086d0 f   libTestFramework:OptionParser.obj
 0001:000076f0       ?ExpectedArgCount@OptionUint@TestFramework@OpenHome@@UBEHXZ 004086f0 f   libTestFramework:OptionParser.obj
 0001:00007710       ?Value@OptionUint@TestFramework@OpenHome@@QBEIXZ 00408710 f   libTestFramework:OptionParser.obj
 0001:00007730       ??0OptionBool@TestFramework@OpenHome@@QAE@PBD00@Z 00408730 f   libTestFramework:OptionParser.obj
 0001:00007780       ?Process@OptionBool@TestFramework@OpenHome@@UAEXHQAPAD@Z 00408780 f   libTestFramework:OptionParser.obj
 0001:000077a0       ?Reset@OptionBool@TestFramework@OpenHome@@UAEXXZ 004087a0 f   libTestFramework:OptionParser.obj
 0001:000077c0       ?ExpectedArgCount@OptionBool@TestFramework@OpenHome@@UBEHXZ 004087c0 f   libTestFramework:OptionParser.obj
 0001:000077e0       ?Value@OptionBool@TestFramework@OpenHome@@QBE_NXZ 004087e0 f   libTestFramework:OptionParser.obj
 0001:00007800       ??0OptionParser@TestFramework@OpenHome@@QAE@XZ 00408800 f   libTestFramework:OptionParser.obj
 0001:000078b0       ??1OptionParser@TestFramework@OpenHome@@QAE@XZ 004088b0 f   libTestFramework:OptionParser.obj
 0001:00007950       ?AddOption@OptionParser@TestFramework@OpenHome@@QAEXPAVOption@23@@Z 00408950 f   libTestFramework:OptionParser.obj
 0001:00007980       ?Parse@OptionParser@TestFramework@OpenHome@@QAE_NHQAPAD@Z 00408980 f   libTestFramework:OptionParser.obj
 0001:00007d30       ?HelpDisplayed@OptionParser@TestFramework@OpenHome@@QAE_NXZ 00408d30 f   libTestFramework:OptionParser.obj
 0001:00007d60       ?DisplayHelp@OptionParser@TestFramework@OpenHome@@QAEXXZ 00408d60 f   libTestFramework:OptionParser.obj
 0001:00007e00       ?SetUsage@OptionParser@TestFramework@OpenHome@@QAEXPBD@Z 00408e00 f   libTestFramework:OptionParser.obj
 0001:00007e90       ?PosArgs@OptionParser@TestFramework@OpenHome@@QAEAAV?$vector@PADV?$allocator@PAD@std@@@std@@XZ 00408e90 f   libTestFramework:OptionParser.obj
 0001:00007eb0       ?Find@OptionParser@TestFramework@OpenHome@@AAEPAVOption@23@PBD@Z 00408eb0 f   libTestFramework:OptionParser.obj
 0001:00007f40       ?CString@Brhz@OpenHome@@QBEPBDXZ 00408f40 f i libTestFramework:OptionParser.obj
 0001:00007f60       ??1?$Bws@$0L@@OpenHome@@UAE@XZ 00408f60 f i libTestFramework:OptionParser.obj
 0001:00007f90       ??1Bwx@OpenHome@@UAE@XZ    00408f90 f i libTestFramework:OptionParser.obj
 0001:00007fc0       ??1?$Bws@$09@OpenHome@@UAE@XZ 00408fc0 f i libTestFramework:OptionParser.obj
 0001:00007ff0       ??0OptionParserError@OpenHome@@QAE@PBDI@Z 00408ff0 f i libTestFramework:OptionParser.obj
 0001:00008030       ??1OptionParserError@OpenHome@@QAE@XZ 00409030 f i libTestFramework:OptionParser.obj
 0001:00008060       ??0?$vector@PAVOption@TestFramework@OpenHome@@V?$allocator@PAVOption@TestFramework@OpenHome@@@std@@@std@@QAE@XZ 00409060 f i libTestFramework:OptionParser.obj
 0001:000080a0       ??1?$vector@PAVOption@TestFramework@OpenHome@@V?$allocator@PAVOption@TestFramework@OpenHome@@@std@@@std@@QAE@XZ 004090a0 f i libTestFramework:OptionParser.obj
 0001:00008110       ?size@?$vector@PAVOption@TestFramework@OpenHome@@V?$allocator@PAVOption@TestFramework@OpenHome@@@std@@@std@@QBEIXZ 00409110 f i libTestFramework:OptionParser.obj
 0001:00008140       ??A?$vector@PAVOption@TestFramework@OpenHome@@V?$allocator@PAVOption@TestFramework@OpenHome@@@std@@@std@@QAEAAPAVOption@TestFramework@OpenHome@@I@Z 00409140 f i libTestFramework:OptionParser.obj
 0001:000081e0       ?push_back@?$vector@PAVOption@TestFramework@OpenHome@@V?$allocator@PAVOption@TestFramework@OpenHome@@@std@@@std@@QAEXABQAVOption@TestFramework@OpenHome@@@Z 004091e0 f i libTestFramework:OptionParser.obj
 0001:000082f0       ??0?$vector@PADV?$allocator@PAD@std@@@std@@QAE@XZ 004092f0 f i libTestFramework:OptionParser.obj
 0001:00008330       ??1?$vector@PADV?$allocator@PAD@std@@@std@@QAE@XZ 00409330 f i libTestFramework:OptionParser.obj
 0001:000083a0       ?push_back@?$vector@PADV?$allocator@PAD@std@@@std@@QAEXABQAD@Z 004093a0 f i libTestFramework:OptionParser.obj
 0001:000084b0       ?clear@?$vector@PADV?$allocator@PAD@std@@@std@@QAEXXZ 004094b0 f i libTestFramework:OptionParser.obj
 0001:000085b0       ??1?$_Vector_iterator@V?$_Vector_val@PADV?$allocator@PAD@std@@@std@@@std@@QAE@XZ 004095b0 f i libTestFramework:OptionParser.obj
 0001:000085e0       ??0?$_Vector_const_iterator@V?$_Vector_val@PADV?$allocator@PAD@std@@@std@@@std@@QAE@ABV01@@Z 004095e0 f i libTestFramework:OptionParser.obj
 0001:00008620       ??1?$_Vector_const_iterator@V?$_Vector_val@PADV?$allocator@PAD@std@@@std@@@std@@QAE@XZ 00409620 f i libTestFramework:OptionParser.obj
 0001:00008650       ??0?$_Iterator012@Urandom_access_iterator_tag@std@@PADHPBQADABQADU_Iterator_base12@2@@std@@QAE@ABU01@@Z 00409650 f i libTestFramework:OptionParser.obj
 0001:00008680       ??0_Iterator_base12@std@@QAE@ABU01@@Z 00409680 f i libTestFramework:OptionParser.obj
 0001:000086c0       ??4_Iterator_base12@std@@QAEAAU01@ABU01@@Z 004096c0 f i libTestFramework:OptionParser.obj
 0001:00008700       ?_Adopt@_Iterator_base12@std@@QAEXPBU_Container_base12@2@@Z 00409700 f i libTestFramework:OptionParser.obj
 0001:000087f0       ?_Orphan_me@_Iterator_base12@std@@QAEXXZ 004097f0 f i libTestFramework:OptionParser.obj
 0001:00008880       ??1?$_Iterator012@Urandom_access_iterator_tag@std@@PADHPBQADABQADU_Iterator_base12@2@@std@@QAE@XZ 00409880 f i libTestFramework:OptionParser.obj
 0001:000088b0       ??1_Iterator_base12@std@@QAE@XZ 004098b0 f i libTestFramework:OptionParser.obj
 0001:00008960       ?_Inside@?$vector@PAVOption@TestFramework@OpenHome@@V?$allocator@PAVOption@TestFramework@OpenHome@@@std@@@std@@IBE_NPBQAVOption@TestFramework@OpenHome@@@Z 00409960 f i libTestFramework:OptionParser.obj
 0001:000089b0       ?_Reserve@?$vector@PAVOption@TestFramework@OpenHome@@V?$allocator@PAVOption@TestFramework@OpenHome@@@std@@@std@@IAEXI@Z 004099b0 f i libTestFramework:OptionParser.obj
 0001:00008a30       ?_Tidy@?$vector@PAVOption@TestFramework@OpenHome@@V?$allocator@PAVOption@TestFramework@OpenHome@@@std@@@std@@IAEXXZ 00409a30 f i libTestFramework:OptionParser.obj
 0001:00008ac0       ?_Orphan_all@_Container_base12@std@@QAEXXZ 00409ac0 f i libTestFramework:OptionParser.obj
 0001:00008b70       ?_Orphan_range@?$vector@PAVOption@TestFramework@OpenHome@@V?$allocator@PAVOption@TestFramework@OpenHome@@@std@@@std@@IBEXPAPAVOption@TestFramework@OpenHome@@0@Z 00409b70 f i libTestFramework:OptionParser.obj
 0001:00008c80       ?_Getpfirst@_Container_base12@std@@QBEPAPAU_Iterator_base12@2@XZ 00409c80 f i libTestFramework:OptionParser.obj
 0001:00008cc0       ?_Clrcont@_Iterator_base12@std@@QAEXXZ 00409cc0 f i libTestFramework:OptionParser.obj
 0001:00008ce0       ?_Getpnext@_Iterator_base12@std@@QAEPAPAU12@XZ 00409ce0 f i libTestFramework:OptionParser.obj
 0001:00008d00       ??0?$_Vector_val@PAVOption@TestFramework@OpenHome@@V?$allocator@PAVOption@TestFramework@OpenHome@@@std@@@std@@QAE@V?$allocator@PAVOption@TestFramework@OpenHome@@@1@@Z 00409d00 f i libTestFramework:OptionParser.obj
 0001:00008e20       ??0_Container_proxy@std@@QAE@XZ 00409e20 f i libTestFramework:OptionParser.obj
 0001:00008e50       ??0_Container_base12@std@@QAE@XZ 00409e50 f i libTestFramework:OptionParser.obj
 0001:00008e70       ??1_Container_base12@std@@QAE@XZ 00409e70 f i libTestFramework:OptionParser.obj
 0001:00008ea0       ??1?$_Vector_val@PAVOption@TestFramework@OpenHome@@V?$allocator@PAVOption@TestFramework@OpenHome@@@std@@@std@@QAE@XZ 00409ea0 f i libTestFramework:OptionParser.obj
 0001:00008f80       ??0?$allocator@PAVOption@TestFramework@OpenHome@@@std@@QAE@XZ 00409f80 f i libTestFramework:OptionParser.obj
 0001:00008fa0       ?begin@?$vector@PADV?$allocator@PAD@std@@@std@@QAE?AV?$_Vector_iterator@V?$_Vector_val@PADV?$allocator@PAD@std@@@std@@@2@XZ 00409fa0 f i libTestFramework:OptionParser.obj
 0001:00008ff0       ?end@?$vector@PADV?$allocator@PAD@std@@@std@@QAE?AV?$_Vector_iterator@V?$_Vector_val@PADV?$allocator@PAD@std@@@std@@@2@XZ 00409ff0 f i libTestFramework:OptionParser.obj
 0001:00009040       ?erase@?$vector@PADV?$allocator@PAD@std@@@std@@QAE?AV?$_Vector_iterator@V?$_Vector_val@PADV?$allocator@PAD@std@@@std@@@2@V?$_Vector_const_iterator@V?$_Vector_val@PADV?$allocator@PAD@std@@@std@@@2@0@Z 0040a040 f i libTestFramework:OptionParser.obj
 0001:00009230       ?_Getcont@_Iterator_base12@std@@QBEPBU_Container_base12@2@XZ 0040a230 f i libTestFramework:OptionParser.obj
 0001:00009270       ?_Inside@?$vector@PADV?$allocator@PAD@std@@@std@@IBE_NPBQAD@Z 0040a270 f i libTestFramework:OptionParser.obj
 0001:000092c0       ?_Reserve@?$vector@PADV?$allocator@PAD@std@@@std@@IAEXI@Z 0040a2c0 f i libTestFramework:OptionParser.obj
 0001:00009340       ?_Tidy@?$vector@PADV?$allocator@PAD@std@@@std@@IAEXXZ 0040a340 f i libTestFramework:OptionParser.obj
 0001:000093d0       ?_Orphan_range@?$vector@PADV?$allocator@PAD@std@@@std@@IBEXPAPAD0@Z 0040a3d0 f i libTestFramework:OptionParser.obj
 0001:000094e0       ??0?$_Vector_val@PADV?$allocator@PAD@std@@@std@@QAE@V?$allocator@PAD@1@@Z 0040a4e0 f i libTestFramework:OptionParser.obj
 0001:00009600       ??1?$_Vector_val@PADV?$allocator@PAD@std@@@std@@QAE@XZ 0040a600 f i libTestFramework:OptionParser.obj
 0001:000096e0       ??0?$allocator@PAD@std@@QAE@XZ 0040a6e0 f i libTestFramework:OptionParser.obj
 0001:00009700       ??0?$_Vector_iterator@V?$_Vector_val@PADV?$allocator@PAD@std@@@std@@@std@@QAE@ABV01@@Z 0040a700 f i libTestFramework:OptionParser.obj
 0001:00009730       ?reserve@?$vector@PAVOption@TestFramework@OpenHome@@V?$allocator@PAVOption@TestFramework@OpenHome@@@std@@@std@@QAEXI@Z 0040a730 f i libTestFramework:OptionParser.obj
 0001:000098a0       ?capacity@?$vector@PAVOption@TestFramework@OpenHome@@V?$allocator@PAVOption@TestFramework@OpenHome@@@std@@@std@@QBEIXZ 0040a8a0 f i libTestFramework:OptionParser.obj
 0001:000098d0       ?max_size@?$vector@PAVOption@TestFramework@OpenHome@@V?$allocator@PAVOption@TestFramework@OpenHome@@@std@@@std@@QBEIXZ 0040a8d0 f i libTestFramework:OptionParser.obj
 0001:00009900       ?_Destroy@?$vector@PAVOption@TestFramework@OpenHome@@V?$allocator@PAVOption@TestFramework@OpenHome@@@std@@@std@@IAEXPAPAVOption@TestFramework@OpenHome@@0@Z 0040a900 f i libTestFramework:OptionParser.obj
 0001:00009940       ?_Grow_to@?$vector@PAVOption@TestFramework@OpenHome@@V?$allocator@PAVOption@TestFramework@OpenHome@@@std@@@std@@IBEII@Z 0040a940 f i libTestFramework:OptionParser.obj
 0001:000099c0       ?_Xlen@?$vector@PAVOption@TestFramework@OpenHome@@V?$allocator@PAVOption@TestFramework@OpenHome@@@std@@@std@@IBEXXZ 0040a9c0 f i libTestFramework:OptionParser.obj
 0001:000099f0       ??0?$allocator@PAVOption@TestFramework@OpenHome@@@std@@QAE@ABV01@@Z 0040a9f0 f i libTestFramework:OptionParser.obj
 0001:00009a10       ?deallocate@?$allocator@PAVOption@TestFramework@OpenHome@@@std@@QAEXPAPAVOption@TestFramework@OpenHome@@I@Z 0040aa10 f i libTestFramework:OptionParser.obj
 0001:00009a40       ?reserve@?$vector@PADV?$allocator@PAD@std@@@std@@QAEXI@Z 0040aa40 f i libTestFramework:OptionParser.obj
 0001:00009bb0       ?capacity@?$vector@PADV?$allocator@PAD@std@@@std@@QBEIXZ 0040abb0 f i libTestFramework:OptionParser.obj
 0001:00009be0       ?_Make_iter@?$vector@PADV?$allocator@PAD@std@@@std@@QBE?AV?$_Vector_iterator@V?$_Vector_val@PADV?$allocator@PAD@std@@@std@@@2@V?$_Vector_const_iterator@V?$_Vector_val@PADV?$allocator@PAD@std@@@std@@@2@@Z 0040abe0 f i libTestFramework:OptionParser.obj
 0001:00009c70       ?size@?$vector@PADV?$allocator@PAD@std@@@std@@QBEIXZ 0040ac70 f i libTestFramework:OptionParser.obj
 0001:00009ca0       ?max_size@?$vector@PADV?$allocator@PAD@std@@@std@@QBEIXZ 0040aca0 f i libTestFramework:OptionParser.obj
 0001:00009cd0       ?_Destroy@?$vector@PADV?$allocator@PAD@std@@@std@@IAEXPAPAD0@Z 0040acd0 f i libTestFramework:OptionParser.obj
 0001:00009d10       ?_Grow_to@?$vector@PADV?$allocator@PAD@std@@@std@@IBEII@Z 0040ad10 f i libTestFramework:OptionParser.obj
 0001:00009d90       ?_Xlen@?$vector@PADV?$allocator@PAD@std@@@std@@IBEXXZ 0040ad90 f i libTestFramework:OptionParser.obj
 0001:00009dc0       ??0?$allocator@PAD@std@@QAE@ABV01@@Z 0040adc0 f i libTestFramework:OptionParser.obj
 0001:00009de0       ?deallocate@?$allocator@PAD@std@@QAEXPAPADI@Z 0040ade0 f i libTestFramework:OptionParser.obj
 0001:00009e10       ??0?$_Vector_iterator@V?$_Vector_val@PADV?$allocator@PAD@std@@@std@@@std@@QAE@PAPADPBU_Container_base12@1@@Z 0040ae10 f i libTestFramework:OptionParser.obj
 0001:00009e50       ??9?$_Vector_const_iterator@V?$_Vector_val@PADV?$allocator@PAD@std@@@std@@@std@@QBE_NABV01@@Z 0040ae50 f i libTestFramework:OptionParser.obj
 0001:00009e90       ??M?$_Vector_const_iterator@V?$_Vector_val@PADV?$allocator@PAD@std@@@std@@@std@@QBE_NABV01@@Z 0040ae90 f i libTestFramework:OptionParser.obj
 0001:00009ed0       ?deallocate@?$allocator@U_Container_proxy@std@@@std@@QAEXPAU_Container_proxy@2@I@Z 0040aed0 f i libTestFramework:OptionParser.obj
 0001:00009f00       ?allocate@?$allocator@U_Container_proxy@std@@@std@@QAEPAU_Container_proxy@2@I@Z 0040af00 f i libTestFramework:OptionParser.obj
 0001:00009f30       ?allocate@?$allocator@PAVOption@TestFramework@OpenHome@@@std@@QAEPAPAVOption@TestFramework@OpenHome@@I@Z 0040af30 f i libTestFramework:OptionParser.obj
 0001:00009f60       ?max_size@?$allocator@PAVOption@TestFramework@OpenHome@@@std@@QBEIXZ 0040af60 f i libTestFramework:OptionParser.obj
 0001:00009fb0       ?allocate@?$allocator@PAD@std@@QAEPAPADI@Z 0040afb0 f i libTestFramework:OptionParser.obj
 0001:00009fe0       ?max_size@?$allocator@PAD@std@@QBEIXZ 0040afe0 f i libTestFramework:OptionParser.obj
 0001:0000a030       ??0?$_Vector_const_iterator@V?$_Vector_val@PADV?$allocator@PAD@std@@@std@@@std@@QAE@PAPADPBU_Container_base12@1@@Z 0040b030 f i libTestFramework:OptionParser.obj
 0001:0000a0b0       ??8?$_Vector_const_iterator@V?$_Vector_val@PADV?$allocator@PAD@std@@@std@@@std@@QBE_NABV01@@Z 0040b0b0 f i libTestFramework:OptionParser.obj
 0001:0000a0f0       ?_Compat@?$_Vector_const_iterator@V?$_Vector_val@PADV?$allocator@PAD@std@@@std@@@std@@QBEXABV12@@Z 0040b0f0 f i libTestFramework:OptionParser.obj
 0001:0000a1a0       ??0?$_Iterator012@Urandom_access_iterator_tag@std@@PADHPBQADABQADU_Iterator_base12@2@@std@@QAE@XZ 0040b1a0 f i libTestFramework:OptionParser.obj
 0001:0000a1d0       ??0_Iterator_base12@std@@QAE@XZ 0040b1d0 f i libTestFramework:OptionParser.obj
 0001:0000a200       ??0?$Bws@$0L@@OpenHome@@QAE@PBD@Z 0040b200 f i libTestFramework:OptionParser.obj
 0001:0000a280       ?Ptr@?$Bws@$0L@@OpenHome@@UBEPBEXZ 0040b280 f i libTestFramework:OptionParser.obj
 0001:0000a2a0       ??0?$Bws@$09@OpenHome@@QAE@PBD@Z 0040b2a0 f i libTestFramework:OptionParser.obj
 0001:0000a320       ?Ptr@?$Bws@$09@OpenHome@@UBEPBEXZ 0040b320 f i libTestFramework:OptionParser.obj
 0001:0000a340       ??$addressof@QAVOption@TestFramework@OpenHome@@@std@@YGPBQAVOption@TestFramework@OpenHome@@ABQAV123@@Z 0040b340 f i libTestFramework:OptionParser.obj
 0001:0000a350       ??$_Cons_val@V?$allocator@PAVOption@TestFramework@OpenHome@@@std@@PAVOption@TestFramework@OpenHome@@AAPAV345@@std@@YGXAAV?$allocator@PAVOption@TestFramework@OpenHome@@@0@PAPAVOption@TestFramework@OpenHome@@AAPAV234@@Z 0040b350 f i libTestFramework:OptionParser.obj
 0001:0000a380       ??$_Cons_val@V?$allocator@PAVOption@TestFramework@OpenHome@@@std@@PAVOption@TestFramework@OpenHome@@ABQAV345@@std@@YGXAAV?$allocator@PAVOption@TestFramework@OpenHome@@@0@PAPAVOption@TestFramework@OpenHome@@ABQAV234@@Z 0040b380 f i libTestFramework:OptionParser.obj
 0001:0000a3b0       ??$addressof@QAD@std@@YGPBQADABQAD@Z 0040b3b0 f i libTestFramework:OptionParser.obj
 0001:0000a3c0       ??$_Cons_val@V?$allocator@PAD@std@@PADAAPAD@std@@YGXAAV?$allocator@PAD@0@PAPADAAPAD@Z 0040b3c0 f i libTestFramework:OptionParser.obj
 0001:0000a3f0       ??$_Cons_val@V?$allocator@PAD@std@@PADABQAD@std@@YGXAAV?$allocator@PAD@0@PAPADABQAD@Z 0040b3f0 f i libTestFramework:OptionParser.obj
 0001:0000a420       ??$?0PAVOption@TestFramework@OpenHome@@@?$allocator@U_Container_proxy@std@@@std@@QAE@ABV?$allocator@PAVOption@TestFramework@OpenHome@@@1@@Z 0040b420 f i libTestFramework:OptionParser.obj
 0001:0000a440       ??$_Cons_val@V?$allocator@U_Container_proxy@std@@@std@@U_Container_proxy@2@U32@@std@@YGXAAV?$allocator@U_Container_proxy@std@@@0@PAU_Container_proxy@0@$$QAU20@@Z 0040b440 f i libTestFramework:OptionParser.obj
 0001:0000a470       ??$_Dest_val@V?$allocator@U_Container_proxy@std@@@std@@U_Container_proxy@2@@std@@YGXAAV?$allocator@U_Container_proxy@std@@@0@PAU_Container_proxy@0@@Z 0040b470 f i libTestFramework:OptionParser.obj
 0001:0000a490       ??$_Move@PAPADPAPAD@std@@YGPAPADPAPAD00@Z 0040b490 f i libTestFramework:OptionParser.obj
 0001:0000a4e0       ??$?0PAD@?$allocator@U_Container_proxy@std@@@std@@QAE@ABV?$allocator@PAD@1@@Z 0040b4e0 f i libTestFramework:OptionParser.obj
 0001:0000a500       ??$_Umove@PAPAVOption@TestFramework@OpenHome@@@?$vector@PAVOption@TestFramework@OpenHome@@V?$allocator@PAVOption@TestFramework@OpenHome@@@std@@@std@@IAEPAPAVOption@TestFramework@OpenHome@@PAPAV234@00@Z 0040b500 f i libTestFramework:OptionParser.obj
 0001:0000a540       ??$_Destroy_range@V?$allocator@PAVOption@TestFramework@OpenHome@@@std@@@std@@YGXPAPAVOption@TestFramework@OpenHome@@0AAV?$allocator@PAVOption@TestFramework@OpenHome@@@0@@Z 0040b540 f i libTestFramework:OptionParser.obj
 0001:0000a590       ??$_Umove@PAPAD@?$vector@PADV?$allocator@PAD@std@@@std@@IAEPAPADPAPAD00@Z 0040b590 f i libTestFramework:OptionParser.obj
 0001:0000a5d0       ??$_Destroy_range@V?$allocator@PAD@std@@@std@@YGXPAPAD0AAV?$allocator@PAD@0@@Z 0040b5d0 f i libTestFramework:OptionParser.obj
 0001:0000a620       ??$_Allocate@U_Container_proxy@std@@@std@@YGPAU_Container_proxy@0@IPAU10@@Z 0040b620 f i libTestFramework:OptionParser.obj
 0001:0000a6a0       ??0bad_alloc@std@@QAE@PBD@Z 0040b6a0 f i libTestFramework:OptionParser.obj
 0001:0000a6e0       ??1bad_alloc@std@@UAE@XZ   0040b6e0 f i libTestFramework:OptionParser.obj
 0001:0000a710       ??_Ebad_alloc@std@@UAEPAXI@Z 0040b710 f i libTestFramework:OptionParser.obj
 0001:0000a710       ??_Gbad_alloc@std@@UAEPAXI@Z 0040b710 f i libTestFramework:OptionParser.obj
 0001:0000a750       ??$_Allocate@PAVOption@TestFramework@OpenHome@@@std@@YGPAPAVOption@TestFramework@OpenHome@@IPAPAV123@@Z 0040b750 f i libTestFramework:OptionParser.obj
 0001:0000a7d0       ??$_Allocate@PAD@std@@YGPAPADIPAPAD@Z 0040b7d0 f i libTestFramework:OptionParser.obj
 0001:0000a850       ??_E?$Bws@$0L@@OpenHome@@UAEPAXI@Z 0040b850 f i libTestFramework:OptionParser.obj
 0001:0000a850       ??_G?$Bws@$0L@@OpenHome@@UAEPAXI@Z 0040b850 f i libTestFramework:OptionParser.obj
 0001:0000a890       ??_G?$Bws@$09@OpenHome@@UAEPAXI@Z 0040b890 f i libTestFramework:OptionParser.obj
 0001:0000a890       ??_E?$Bws@$09@OpenHome@@UAEPAXI@Z 0040b890 f i libTestFramework:OptionParser.obj
 0001:0000a8d0       ??0bad_alloc@std@@QAE@ABV01@@Z 0040b8d0 f i libTestFramework:OptionParser.obj
 0001:0000a910       ?construct@?$allocator@PAVOption@TestFramework@OpenHome@@@std@@QAEXPAPAVOption@TestFramework@OpenHome@@ABQAV345@@Z 0040b910 f i libTestFramework:OptionParser.obj
 0001:0000a940       ?construct@?$allocator@PAD@std@@QAEXPAPADABQAD@Z 0040b940 f i libTestFramework:OptionParser.obj
 0001:0000a970       ?construct@?$allocator@U_Container_proxy@std@@@std@@QAEXPAU_Container_proxy@2@$$QAU32@@Z 0040b970 f i libTestFramework:OptionParser.obj
 0001:0000aa20       ??2@YAPAXIPAX@Z            0040ba20 f i libTestFramework:OptionParser.obj
 0001:0000aa30       ??3@YAXPAX0@Z              0040ba30 f i libTestFramework:OptionParser.obj
 0001:0000aa40       ?destroy@?$allocator@U_Container_proxy@std@@@std@@QAEXPAU_Container_proxy@2@@Z 0040ba40 f i libTestFramework:OptionParser.obj
 0001:0000aa70       ??$forward@AAPAVOption@TestFramework@OpenHome@@@std@@YGAAPAVOption@TestFramework@OpenHome@@AAPAV123@@Z 0040ba70 f i libTestFramework:OptionParser.obj
 0001:0000aa80       ??$construct@AAPAVOption@TestFramework@OpenHome@@@?$allocator@PAVOption@TestFramework@OpenHome@@@std@@QAEXPAPAVOption@TestFramework@OpenHome@@AAPAV234@@Z 0040ba80 f i libTestFramework:OptionParser.obj
 0001:0000ab20       ??$forward@ABQAVOption@TestFramework@OpenHome@@@std@@YGABQAVOption@TestFramework@OpenHome@@ABQAV123@@Z 0040bb20 f i libTestFramework:OptionParser.obj
 0001:0000ab30       ??$forward@AAPAD@std@@YGAAPADAAPAD@Z 0040bb30 f i libTestFramework:OptionParser.obj
 0001:0000ab40       ??$construct@AAPAD@?$allocator@PAD@std@@QAEXPAPADAAPAD@Z 0040bb40 f i libTestFramework:OptionParser.obj
 0001:0000abe0       ??$forward@ABQAD@std@@YGABQADABQAD@Z 0040bbe0 f i libTestFramework:OptionParser.obj
 0001:0000abf0       ??$forward@U_Container_proxy@std@@@std@@YG$$QAU_Container_proxy@0@AAU10@@Z 0040bbf0 f i libTestFramework:OptionParser.obj
 0001:0000ac00       ??$_Ptr_cat@PADPAD@std@@YG?AU_Scalar_ptr_iterator_tag@0@PAPAD0@Z 0040bc00 f i libTestFramework:OptionParser.obj
 0001:0000ac60       ??$_Move@PAPADPAPAD@std@@YGPAPADPAPAD00U_Scalar_ptr_iterator_tag@0@@Z 0040bc60 f i libTestFramework:OptionParser.obj
 0001:0000acb0       ??$_Uninitialized_move@PAPAVOption@TestFramework@OpenHome@@PAPAV123@V?$allocator@PAVOption@TestFramework@OpenHome@@@std@@@std@@YGPAPAVOption@TestFramework@OpenHome@@PAPAV123@00AAV?$allocator@PAVOption@TestFramework@OpenHome@@@0@@Z 0040bcb0 f i libTestFramework:OptionParser.obj
 0001:0000ad00       ??$_Ptr_cat@PAVOption@TestFramework@OpenHome@@PAV123@@std@@YG?AU_Scalar_ptr_iterator_tag@0@PAPAVOption@TestFramework@OpenHome@@0@Z 0040bd00 f i libTestFramework:OptionParser.obj
 0001:0000ad60       ??$_Destroy_range@V?$allocator@PAVOption@TestFramework@OpenHome@@@std@@@std@@YGXPAPAVOption@TestFramework@OpenHome@@0AAV?$allocator@PAVOption@TestFramework@OpenHome@@@0@U_Scalar_ptr_iterator_tag@0@@Z 0040bd60 f i libTestFramework:OptionParser.obj
 0001:0000ad70       ??$_Uninitialized_move@PAPADPAPADV?$allocator@PAD@std@@@std@@YGPAPADPAPAD00AAV?$allocator@PAD@0@@Z 0040bd70 f i libTestFramework:OptionParser.obj
 0001:0000adc0       ??$_Destroy_range@V?$allocator@PAD@std@@@std@@YGXPAPAD0AAV?$allocator@PAD@0@U_Scalar_ptr_iterator_tag@0@@Z 0040bdc0 f i libTestFramework:OptionParser.obj
 0001:0000add0       ??$_Construct@PAVOption@TestFramework@OpenHome@@ABQAV123@@std@@YGXPAPAVOption@TestFramework@OpenHome@@ABQAV123@@Z 0040bdd0 f i libTestFramework:OptionParser.obj
 0001:0000ae80       ??$_Construct@PADABQAD@std@@YGXPAPADABQAD@Z 0040be80 f i libTestFramework:OptionParser.obj
 0001:0000af30       ??$_Destroy@U_Container_proxy@std@@@std@@YGXPAU_Container_proxy@0@@Z 0040bf30 f i libTestFramework:OptionParser.obj
 0001:0000af40       ??$_Val_type@PAPAVOption@TestFramework@OpenHome@@@std@@YGPAPAVOption@TestFramework@OpenHome@@PAPAV123@@Z 0040bf40 f i libTestFramework:OptionParser.obj
 0001:0000af50       ??$_Uninit_move@PAVOption@TestFramework@OpenHome@@PAV123@PAV123@@std@@YGPAPAVOption@TestFramework@OpenHome@@PAPAV123@00AAV?$allocator@PAVOption@TestFramework@OpenHome@@@0@0U_Scalar_ptr_iterator_tag@0@@Z 0040bf50 f i libTestFramework:OptionParser.obj
 0001:0000afc0       ??$_Val_type@PAPAD@std@@YGPAPADPAPAD@Z 0040bfc0 f i libTestFramework:OptionParser.obj
 0001:0000afd0       ??$_Uninit_move@PADPADPAD@std@@YGPAPADPAPAD00AAV?$allocator@PAD@0@0U_Scalar_ptr_iterator_tag@0@@Z 0040bfd0 f i libTestFramework:OptionParser.obj
 0001:0000b040       ??$_Debug_range@PAPAVOption@TestFramework@OpenHome@@@std@@YGXPAPAVOption@TestFramework@OpenHome@@0PB_WI@Z 0040c040 f i libTestFramework:OptionParser.obj
 0001:0000b090       ??$_Debug_pointer@PAVOption@TestFramework@OpenHome@@@std@@YGXPAPAVOption@TestFramework@OpenHome@@PB_WI@Z 0040c090 f i libTestFramework:OptionParser.obj
 0001:0000b0c0       ??$_Debug_range@PAPAD@std@@YGXPAPAD0PB_WI@Z 0040c0c0 f i libTestFramework:OptionParser.obj
 0001:0000b110       ??$_Debug_pointer@PAD@std@@YGXPAPADPB_WI@Z 0040c110 f i libTestFramework:OptionParser.obj
 0001:0000b140       ??$_Iter_cat@PAPAVOption@TestFramework@OpenHome@@@std@@YG?AUrandom_access_iterator_tag@0@ABQAPAVOption@TestFramework@OpenHome@@@Z 0040c140 f i libTestFramework:OptionParser.obj
 0001:0000b1a0       ??$_Debug_range2@PAPAVOption@TestFramework@OpenHome@@@std@@YGXPAPAVOption@TestFramework@OpenHome@@0PB_WIUrandom_access_iterator_tag@0@@Z 0040c1a0 f i libTestFramework:OptionParser.obj
 0001:0000b200       ??$_Iter_cat@PAPAD@std@@YG?AUrandom_access_iterator_tag@0@ABQAPAD@Z 0040c200 f i libTestFramework:OptionParser.obj
 0001:0000b260       ??$_Debug_range2@PAPAD@std@@YGXPAPAD0PB_WIUrandom_access_iterator_tag@0@@Z 0040c260 f i libTestFramework:OptionParser.obj
 0001:0000b2c0       ?Empty@Brx@OpenHome@@SGABVBrn@2@XZ 0040c2c0 f   libohNetCore:Buffer.obj
 0001:0000b2d0       ?Equals@Brx@OpenHome@@QBE_NABV12@@Z 0040c2d0 f   libohNetCore:Buffer.obj
 0001:0000b350       ?At@Brx@OpenHome@@QBEABEI@Z 0040c350 f   libohNetCore:Buffer.obj
 0001:0000b3b0       ?Split@Brx@OpenHome@@QBE?AVBrn@2@I@Z 0040c3b0 f   libohNetCore:Buffer.obj
 0001:0000b440       ?Split@Brx@OpenHome@@QBE?AVBrn@2@II@Z 0040c440 f   libohNetCore:Buffer.obj
 0001:0000b4c0       ?BeginsWith@Brx@OpenHome@@QBE_NABV12@@Z 0040c4c0 f   libohNetCore:Buffer.obj
 0001:0000b540       ??0Brn@OpenHome@@QAE@PBD@Z 0040c540 f   libohNetCore:Buffer.obj
 0001:0000b590       ?Set@Brn@OpenHome@@QAEXPBD@Z 0040c590 f   libohNetCore:Buffer.obj
 0001:0000b5d0       ?Ptr@Brn@OpenHome@@UBEPBEXZ 0040c5d0 f   libohNetCore:Buffer.obj
 0001:0000b610       ??1Brv@OpenHome@@UAE@XZ    0040c610 f   libohNetCore:Buffer.obj
 0001:0000b650       ?Ptr@Brv@OpenHome@@UBEPBEXZ 0040c650 f   libohNetCore:Buffer.obj
 0001:0000b670       ??0Brh@OpenHome@@QAE@ABVBrx@1@@Z 0040c670 f   libohNetCore:Buffer.obj
 0001:0000b6f0       ??0Brh@OpenHome@@QAE@PBD@Z 0040c6f0 f   libohNetCore:Buffer.obj
 0001:0000b770       ?Set@Brh@OpenHome@@QAEXPBEI@Z 0040c770 f   libohNetCore:Buffer.obj
 0001:0000b7d0       ?Set@Brh@OpenHome@@QAEXPBD@Z 0040c7d0 f   libohNetCore:Buffer.obj
 0001:0000b810       ?TransferTo@Brh@OpenHome@@QAEXAAV12@@Z 0040c810 f   libohNetCore:Buffer.obj
 0001:0000b870       ?Extract@Brh@OpenHome@@QAEPADXZ 0040c870 f   libohNetCore:Buffer.obj
 0001:0000b8b0       ??0Brhz@OpenHome@@QAE@ABVBrx@1@@Z 0040c8b0 f   libohNetCore:Buffer.obj
 0001:0000b930       ??0Brhz@OpenHome@@QAE@PBD@Z 0040c930 f   libohNetCore:Buffer.obj
 0001:0000b9b0       ?Set@Brhz@OpenHome@@QAEXPBEI@Z 0040c9b0 f   libohNetCore:Buffer.obj
 0001:0000ba70       ?Set@Brhz@OpenHome@@QAEXPBD@Z 0040ca70 f   libohNetCore:Buffer.obj
 0001:0000bab0       ?Shrink@Brhz@OpenHome@@QAEXI@Z 0040cab0 f   libohNetCore:Buffer.obj
 0001:0000bb50       ?TransferTo@Brhz@OpenHome@@QAEXAAVBrh@2@@Z 0040cb50 f   libohNetCore:Buffer.obj
 0001:0000bbb0       ?TransferTo@Brhz@OpenHome@@QAEXAAV12@@Z 0040cbb0 f   libohNetCore:Buffer.obj
 0001:0000bc10       ?Transfer@Brhz@OpenHome@@QAEPADXZ 0040cc10 f   libohNetCore:Buffer.obj
 0001:0000bc50       ??0Bwx@OpenHome@@IAE@II@Z  0040cc50 f   libohNetCore:Buffer.obj
 0001:0000bcf0       ?Replace@Bwx@OpenHome@@QAEXABVBrx@2@@Z 0040ccf0 f   libohNetCore:Buffer.obj
 0001:0000bd80       ?ReplaceThrow@Bwx@OpenHome@@QAEXABVBrx@2@@Z 0040cd80 f   libohNetCore:Buffer.obj
 0001:0000bea0       ?Replace@Bwx@OpenHome@@QAEXPBEI@Z 0040cea0 f   libohNetCore:Buffer.obj
 0001:0000bf10       ?Replace@Bwx@OpenHome@@QAEXPBD@Z 0040cf10 f   libohNetCore:Buffer.obj
 0001:0000bfa0       ?Append@Bwx@OpenHome@@QAEXPBD@Z 0040cfa0 f   libohNetCore:Buffer.obj
 0001:0000bfe0       ?Append@Bwx@OpenHome@@QAEXABVBrx@2@@Z 0040cfe0 f   libohNetCore:Buffer.obj
 0001:0000c030       ?Append@Bwx@OpenHome@@QAEXPBEI@Z 0040d030 f   libohNetCore:Buffer.obj
 0001:0000c0c0       ?AppendPrintf@Bwx@OpenHome@@QAAXPBDZZ 0040d0c0 f   libohNetCore:Buffer.obj
 0001:0000c200       ?PtrZ@Bwx@OpenHome@@QBEPBDXZ 0040d200 f   libohNetCore:Buffer.obj
 0001:0000c280       ?Fill@Bwx@OpenHome@@QAEXE@Z 0040d280 f   libohNetCore:Buffer.obj
 0001:0000c2d0       ?SetBytes@Bwx@OpenHome@@QAEXI@Z 0040d2d0 f   libohNetCore:Buffer.obj
 0001:0000c320       ?At@Bwx@OpenHome@@QAEAAEI@Z 0040d320 f   libohNetCore:Buffer.obj
 0001:0000c380       ??0Bwn@OpenHome@@QAE@XZ    0040d380 f   libohNetCore:Buffer.obj
 0001:0000c3c0       ??0Bwn@OpenHome@@QAE@ABVBwx@1@@Z 0040d3c0 f   libohNetCore:Buffer.obj
 0001:0000c460       ??0Bwn@OpenHome@@QAE@ABV01@@Z 0040d460 f   libohNetCore:Buffer.obj
 0001:0000c500       ??0Bwn@OpenHome@@QAE@PBEI@Z 0040d500 f   libohNetCore:Buffer.obj
 0001:0000c550       ??0Bwn@OpenHome@@QAE@PBEII@Z 0040d550 f   libohNetCore:Buffer.obj
 0001:0000c5a0       ??0Bwn@OpenHome@@QAE@PBDI@Z 0040d5a0 f   libohNetCore:Buffer.obj
 0001:0000c5f0       ??0Bwn@OpenHome@@QAE@PBDII@Z 0040d5f0 f   libohNetCore:Buffer.obj
 0001:0000c640       ?Set@Bwn@OpenHome@@QAEXABVBwx@2@@Z 0040d640 f   libohNetCore:Buffer.obj
 0001:0000c6a0       ?Set@Bwn@OpenHome@@QAEXPBEI@Z 0040d6a0 f   libohNetCore:Buffer.obj
 0001:0000c6d0       ?Set@Bwn@OpenHome@@QAEXPBEII@Z 0040d6d0 f   libohNetCore:Buffer.obj
 0001:0000c720       ?Ptr@Bwn@OpenHome@@UBEPBEXZ 0040d720 f   libohNetCore:Buffer.obj
 0001:0000c740       ??0Bwh@OpenHome@@QAE@XZ    0040d740 f   libohNetCore:Buffer.obj
 0001:0000c780       ??0Bwh@OpenHome@@QAE@I@Z   0040d780 f   libohNetCore:Buffer.obj
 0001:0000c7d0       ??0Bwh@OpenHome@@QAE@II@Z  0040d7d0 f   libohNetCore:Buffer.obj
 0001:0000c820       ??1Bwh@OpenHome@@UAE@XZ    0040d820 f   libohNetCore:Buffer.obj
 0001:0000c860       ?Ptr@Bwh@OpenHome@@UBEPBEXZ 0040d860 f   libohNetCore:Buffer.obj
 0001:0000c8a0       ??0Bwh@OpenHome@@QAE@PBD@Z 0040d8a0 f   libohNetCore:Buffer.obj
 0001:0000c940       ??0Bwh@OpenHome@@QAE@PBEI@Z 0040d940 f   libohNetCore:Buffer.obj
 0001:0000c9e0       ??0Bwh@OpenHome@@QAE@ABVBrx@1@@Z 0040d9e0 f   libohNetCore:Buffer.obj
 0001:0000ca80       ??0Bwh@OpenHome@@QAE@ABV01@@Z 0040da80 f   libohNetCore:Buffer.obj
 0001:0000cb20       ?Grow@Bwh@OpenHome@@QAEXI@Z 0040db20 f   libohNetCore:Buffer.obj
 0001:0000cbd0       ?TransferTo@Bwh@OpenHome@@QAEXAAVBrh@2@@Z 0040dbd0 f   libohNetCore:Buffer.obj
 0001:0000cc30       ?TransferTo@Bwh@OpenHome@@QAEXAAVBrhz@2@@Z 0040dc30 f   libohNetCore:Buffer.obj
 0001:0000cc90       ?TransferTo@Bwh@OpenHome@@QAEXAAV12@@Z 0040dc90 f   libohNetCore:Buffer.obj
 0001:0000ccf0       ??RBufferCmp@OpenHome@@QBE_NABVBrx@1@0@Z 0040dcf0 f   libohNetCore:Buffer.obj
 0001:0000cdf0       ??0Brn@OpenHome@@QAE@PBEI@Z 0040ddf0 f i libohNetCore:Buffer.obj
 0001:0000ce30       ?MaxBytes@Bwx@OpenHome@@QBEIXZ 0040de30 f i libohNetCore:Buffer.obj
 0001:0000ce50       ??_GBwx@OpenHome@@UAEPAXI@Z 0040de50 f i libohNetCore:Buffer.obj
 0001:0000ce50       ??_EBwx@OpenHome@@UAEPAXI@Z 0040de50 f i libohNetCore:Buffer.obj
 0001:0000ce90       ??0BufferOverflow@OpenHome@@QAE@PBDI@Z 0040de90 f i libohNetCore:Buffer.obj
 0001:0000ced0       ??1BufferOverflow@OpenHome@@QAE@XZ 0040ded0 f i libohNetCore:Buffer.obj
 0001:0000cf00       ??0BufferFull@OpenHome@@QAE@PBDI@Z 0040df00 f i libohNetCore:Buffer.obj
 0001:0000cf40       ??1BufferFull@OpenHome@@QAE@XZ 0040df40 f i libohNetCore:Buffer.obj
 0001:0000cf70       ??_GBwn@OpenHome@@UAEPAXI@Z 0040df70 f i libohNetCore:Buffer.obj
 0001:0000cf70       ??_EBwn@OpenHome@@UAEPAXI@Z 0040df70 f i libohNetCore:Buffer.obj
 0001:0000cfb0       ??1Bwn@OpenHome@@UAE@XZ    0040dfb0 f i libohNetCore:Buffer.obj
 0001:0000cfe0       ??_EBwh@OpenHome@@UAEPAXI@Z 0040dfe0 f i libohNetCore:Buffer.obj
 0001:0000cfe0       ??_GBwh@OpenHome@@UAEPAXI@Z 0040dfe0 f i libohNetCore:Buffer.obj
 0001:0000d020       ?PropertiesLock@DvProvider@Net@OpenHome@@QAEXXZ 0040e020 f   libohNetCore:DvProvider.obj
 0001:0000d070       ?PropertiesUnlock@DvProvider@Net@OpenHome@@QAEXXZ 0040e070 f   libohNetCore:DvProvider.obj
 0001:0000d0f0       ??0DvProvider@Net@OpenHome@@IAE@AAVDviDevice@12@PBD1I@Z 0040e0f0 f   libohNetCore:DvProvider.obj
 0001:0000d1c0       ??1DvProvider@Net@OpenHome@@MAE@XZ 0040e1c0 f   libohNetCore:DvProvider.obj
 0001:0000d1e0       ?SetPropertyInt@DvProvider@Net@OpenHome@@IAE_NAAVPropertyInt@23@H@Z 0040e1e0 f   libohNetCore:DvProvider.obj
 0001:0000d220       ?SetPropertyUint@DvProvider@Net@OpenHome@@IAE_NAAVPropertyUint@23@I@Z 0040e220 f   libohNetCore:DvProvider.obj
 0001:0000d260       ?SetPropertyBool@DvProvider@Net@OpenHome@@IAE_NAAVPropertyBool@23@_N@Z 0040e260 f   libohNetCore:DvProvider.obj
 0001:0000d2a0       ?SetPropertyString@DvProvider@Net@OpenHome@@IAE_NAAVPropertyString@23@ABVBrx@3@@Z 0040e2a0 f   libohNetCore:DvProvider.obj
 0001:0000d2e0       ?SetPropertyBinary@DvProvider@Net@OpenHome@@IAE_NAAVPropertyBinary@23@ABVBrx@3@@Z 0040e2e0 f   libohNetCore:DvProvider.obj
 0001:0000d320       ?TryPublishUpdate@DvProvider@Net@OpenHome@@AAEXXZ 0040e320 f   libohNetCore:DvProvider.obj
 0001:0000d3a0       ??_EDvProvider@Net@OpenHome@@MAEPAXI@Z 0040e3a0 f i libohNetCore:DvProvider.obj
 0001:0000d420       ??0DvDevice@Net@OpenHome@@QAE@ABVBrx@2@@Z 0040e420 f   libohNetCore:DvDevice.obj
 0001:0000d4d0       ??0DvDevice@Net@OpenHome@@IAE@XZ 0040e4d0 f   libohNetCore:DvDevice.obj
 0001:0000d4f0       ??1DvDevice@Net@OpenHome@@QAE@XZ 0040e4f0 f   libohNetCore:DvDevice.obj
 0001:0000d520       ?Device@DvDevice@Net@OpenHome@@QAEAAVDviDevice@23@XZ 0040e520 f   libohNetCore:DvDevice.obj
 0001:0000d540       ?Udn@DvDevice@Net@OpenHome@@QBEABVBrx@3@XZ 0040e540 f   libohNetCore:DvDevice.obj
 0001:0000d570       ?Enabled@DvDevice@Net@OpenHome@@QBE_NXZ 0040e570 f   libohNetCore:DvDevice.obj
 0001:0000d5a0       ?SetEnabled@DvDevice@Net@OpenHome@@QAEXXZ 0040e5a0 f   libohNetCore:DvDevice.obj
 0001:0000d5d0       ?SetDisabled@DvDevice@Net@OpenHome@@QAEXVFunctor@3@@Z 0040e5d0 f   libohNetCore:DvDevice.obj
 0001:0000d620       ?GetAttribute@DvDevice@Net@OpenHome@@QBEXPBDPAPBD@Z 0040e620 f   libohNetCore:DvDevice.obj
 0001:0000d650       ?SetAttribute@DvDevice@Net@OpenHome@@QAEXPBD0@Z 0040e650 f   libohNetCore:DvDevice.obj
 0001:0000d680       ?SetXmlExtension@DvDevice@Net@OpenHome@@QAEXPBD@Z 0040e680 f   libohNetCore:DvDevice.obj
 0001:0000d6b0       ??0DvDeviceStandard@Net@OpenHome@@QAE@ABVBrx@2@@Z 0040e6b0 f   libohNetCore:DvDevice.obj
 0001:0000d770       ??0DvDeviceStandard@Net@OpenHome@@QAE@ABVBrx@2@AAVIResourceManager@12@@Z 0040e770 f   libohNetCore:DvDevice.obj
 0001:0000d830       ??0Stack@Net@OpenHome@@QAE@XZ 0040e830 f   libohNetCore:Stack.obj
 0001:0000d930       ??0Stack@Net@OpenHome@@QAE@PAVInitialisationParams@12@@Z 0040e930 f   libohNetCore:Stack.obj
 0001:0000db50       ?Destroy@Stack@Net@OpenHome@@SGXXZ 0040eb50 f   libohNetCore:Stack.obj
 0001:0000dbb0       ??1Stack@Net@OpenHome@@AAE@XZ 0040ebb0 f   libohNetCore:Stack.obj
 0001:0000ddc0       ?IsInitialised@Stack@Net@OpenHome@@SG_NXZ 0040edc0 f   libohNetCore:Stack.obj
 0001:0000dde0       ?GetVersion@Stack@Net@OpenHome@@SGXAAI0@Z 0040ede0 f   libohNetCore:Stack.obj
 0001:0000de00       ?TimerManager@Stack@Net@OpenHome@@SGAAV03@XZ 0040ee00 f   libohNetCore:Stack.obj
 0001:0000de10       ?Mutex@Stack@Net@OpenHome@@SGAAV03@XZ 0040ee10 f   libohNetCore:Stack.obj
 0001:0000de20       ?NetworkAdapterList@Stack@Net@OpenHome@@SGAAV03@XZ 0040ee20 f   libohNetCore:Stack.obj
 0001:0000de30       ?MulticastListenerClaim@Stack@Net@OpenHome@@SGAAVSsdpListenerMulticast@23@I@Z 0040ee30 f   libohNetCore:Stack.obj
 0001:0000dfe0       ?MulticastListenerRelease@Stack@Net@OpenHome@@SGXI@Z 0040efe0 f   libohNetCore:Stack.obj
 0001:0000e180       ?SequenceNumber@Stack@Net@OpenHome@@SGIXZ 0040f180 f   libohNetCore:Stack.obj
 0001:0000e1e0       ?InitParams@Stack@Net@OpenHome@@SGAAVInitialisationParams@23@XZ 0040f1e0 f   libohNetCore:Stack.obj
 0001:0000e1f0       ?AddObject@Stack@Net@OpenHome@@SGXPAXPBD@Z 0040f1f0 f   libohNetCore:Stack.obj
 0001:0000e220       ?RemoveObject@Stack@Net@OpenHome@@SGXPAXPBD@Z 0040f220 f   libohNetCore:Stack.obj
 0001:0000e250       ?ListObjects@Stack@Net@OpenHome@@SGXXZ 0040f250 f   libohNetCore:Stack.obj
 0001:0000e270       ?DoAddObject@Stack@Net@OpenHome@@AAEXPAXPBD@Z 0040f270 f   libohNetCore:Stack.obj
 0001:0000e4d0       ?DoRemoveObject@Stack@Net@OpenHome@@AAEXPAXPBD@Z 0040f4d0 f   libohNetCore:Stack.obj
 0001:0000e770       ?DoListObjects@Stack@Net@OpenHome@@AAEXXZ 0040f770 f   libohNetCore:Stack.obj
 0001:0000e980       ?SetCpiStack@Stack@Net@OpenHome@@CGXPAVIStack@23@@Z 0040f980 f   libohNetCore:Stack.obj
 0001:0000e9a0       ?SetDviStack@Stack@Net@OpenHome@@CGXPAVIStack@23@@Z 0040f9a0 f   libohNetCore:Stack.obj
 0001:0000e9c0       ?CpiStack@Stack@Net@OpenHome@@CGPAVIStack@23@XZ 0040f9c0 f   libohNetCore:Stack.obj
 0001:0000e9d0       ?DviStack@Stack@Net@OpenHome@@CGPAVIStack@23@XZ 0040f9d0 f   libohNetCore:Stack.obj
 0001:0000e9e0       ??0MListener@Stack@Net@OpenHome@@QAE@I@Z 0040f9e0 f   libohNetCore:Stack.obj
 0001:0000ea20       ?Listener@MListener@Stack@Net@OpenHome@@QAEAAVSsdpListenerMulticast@34@XZ 0040fa20 f   libohNetCore:Stack.obj
 0001:0000ea40       ?Interface@MListener@Stack@Net@OpenHome@@QBEIXZ 0040fa40 f   libohNetCore:Stack.obj
 0001:0000ea70       ?AddRef@MListener@Stack@Net@OpenHome@@QAEXXZ 0040fa70 f   libohNetCore:Stack.obj
 0001:0000eaa0       ?RemoveRef@MListener@Stack@Net@OpenHome@@QAE_NXZ 0040faa0 f   libohNetCore:Stack.obj
 0001:0000eae0       ??0ObjectType@Stack@Net@OpenHome@@QAE@PBD@Z 0040fae0 f   libohNetCore:Stack.obj
 0001:0000eb50       ??1ObjectType@Stack@Net@OpenHome@@QAE@XZ 0040fb50 f   libohNetCore:Stack.obj
 0001:0000ebe0       ??1?$map@VBrn@OpenHome@@PAVObjectType@Stack@Net@2@VBufferCmp@2@V?$allocator@U?$pair@$$CBVBrn@OpenHome@@PAVObjectType@Stack@Net@2@@std@@@std@@@std@@QAE@XZ 0040fbe0 f i libohNetCore:Stack.obj
 0001:0000ec10       ??BFunctor@OpenHome@@QBE_NXZ 0040fc10 f i libohNetCore:Stack.obj
 0001:0000ec50       ??_GStack@Net@OpenHome@@AAEPAXI@Z 0040fc50 f i libohNetCore:Stack.obj
 0001:0000ec90       ??_GNetworkAdapterList@OpenHome@@QAEPAXI@Z 0040fc90 f i libohNetCore:Stack.obj
 0001:0000ecd0       ??_GInitialisationParams@Net@OpenHome@@QAEPAXI@Z 0040fcd0 f i libohNetCore:Stack.obj
 0001:0000ed10       ??_GMListener@Stack@Net@OpenHome@@QAEPAXI@Z 0040fd10 f i libohNetCore:Stack.obj
 0001:0000ed50       ??1?$_Vector_iterator@V?$_Vector_val@PAVMListener@Stack@Net@OpenHome@@V?$allocator@PAVMListener@Stack@Net@OpenHome@@@std@@@std@@@std@@QAE@XZ 0040fd50 f i libohNetCore:Stack.obj
 0001:0000ed80       ??0?$_Vector_const_iterator@V?$_Vector_val@PAVMListener@Stack@Net@OpenHome@@V?$allocator@PAVMListener@Stack@Net@OpenHome@@@std@@@std@@@std@@QAE@ABV01@@Z 0040fd80 f i libohNetCore:Stack.obj
 0001:0000edc0       ??1?$_Vector_const_iterator@V?$_Vector_val@PAVMListener@Stack@Net@OpenHome@@V?$allocator@PAVMListener@Stack@Net@OpenHome@@@std@@@std@@@std@@QAE@XZ 0040fdc0 f i libohNetCore:Stack.obj
 0001:0000edf0       ??1MListener@Stack@Net@OpenHome@@QAE@XZ 0040fdf0 f i libohNetCore:Stack.obj
 0001:0000ee20       ??0?$_Iterator012@Urandom_access_iterator_tag@std@@PAVMListener@Stack@Net@OpenHome@@HPBQAV3456@ABQAV3456@U_Iterator_base12@2@@std@@QAE@ABU01@@Z 0040fe20 f i libohNetCore:Stack.obj
 0001:0000ee50       ??1?$_Iterator012@Urandom_access_iterator_tag@std@@PAVMListener@Stack@Net@OpenHome@@HPBQAV3456@ABQAV3456@U_Iterator_base12@2@@std@@QAE@XZ 0040fe50 f i libohNetCore:Stack.obj
 0001:0000ee80       ?Name@ObjectType@Stack@Net@OpenHome@@QAEABVBrx@4@XZ 0040fe80 f i libohNetCore:Stack.obj
 0001:0000eea0       ?Map@ObjectType@Stack@Net@OpenHome@@QAEAAV?$map@PAXPAXU?$less@PAX@std@@V?$allocator@U?$pair@QAXPAX@std@@@2@@std@@XZ 0040fea0 f i libohNetCore:Stack.obj
 0001:0000eec0       ??1?$_Tree_iterator@V?$_Tree_val@V?$_Tmap_traits@VBrn@OpenHome@@PAVObjectType@Stack@Net@2@VBufferCmp@2@V?$allocator@U?$pair@$$CBVBrn@OpenHome@@PAVObjectType@Stack@Net@2@@std@@@std@@$0A@@std@@@std@@@std@@QAE@XZ 0040fec0 f i libohNetCore:Stack.obj
 0001:0000eef0       ??1?$pair@VBrn@OpenHome@@PAVObjectType@Stack@Net@2@@std@@QAE@XZ 0040fef0 f i libohNetCore:Stack.obj
 0001:0000ef20       ??1?$pair@V?$_Tree_iterator@V?$_Tree_val@V?$_Tmap_traits@VBrn@OpenHome@@PAVObjectType@Stack@Net@2@VBufferCmp@2@V?$allocator@U?$pair@$$CBVBrn@OpenHome@@PAVObjectType@Stack@Net@2@@std@@@std@@$0A@@std@@@std@@@std@@_N@std@@QAE@XZ 0040ff20 f i libohNetCore:Stack.obj
 0001:0000ef50       ??1?$pair@V?$_Tree_iterator@V?$_Tree_val@V?$_Tmap_traits@PAXPAXU?$less@PAX@std@@V?$allocator@U?$pair@QAXPAX@std@@@2@$0A@@std@@@std@@@std@@_N@std@@QAE@XZ 0040ff50 f i libohNetCore:Stack.obj
 0001:0000ef80       ??1?$_Tree_const_iterator@V?$_Tree_val@V?$_Tmap_traits@VBrn@OpenHome@@PAVObjectType@Stack@Net@2@VBufferCmp@2@V?$allocator@U?$pair@$$CBVBrn@OpenHome@@PAVObjectType@Stack@Net@2@@std@@@std@@$0A@@std@@@std@@@std@@QAE@XZ 0040ff80 f i libohNetCore:Stack.obj
 0001:0000efb0       ??1?$_Pair_base@VBrn@OpenHome@@PAVObjectType@Stack@Net@2@@std@@QAE@XZ 0040ffb0 f i libohNetCore:Stack.obj
 0001:0000efe0       ??1?$_Pair_base@V?$_Tree_iterator@V?$_Tree_val@V?$_Tmap_traits@VBrn@OpenHome@@PAVObjectType@Stack@Net@2@VBufferCmp@2@V?$allocator@U?$pair@$$CBVBrn@OpenHome@@PAVObjectType@Stack@Net@2@@std@@@std@@$0A@@std@@@std@@@std@@_N@std@@QAE@XZ 0040ffe0 f i libohNetCore:Stack.obj
 0001:0000f010       ??1?$_Pair_base@V?$_Tree_iterator@V?$_Tree_val@V?$_Tmap_traits@PAXPAXU?$less@PAX@std@@V?$allocator@U?$pair@QAXPAX@std@@@2@$0A@@std@@@std@@@std@@_N@std@@QAE@XZ 00410010 f i libohNetCore:Stack.obj
 0001:0000f040       ??1?$_Tree_unchecked_const_iterator@V?$_Tree_val@V?$_Tmap_traits@VBrn@OpenHome@@PAVObjectType@Stack@Net@2@VBufferCmp@2@V?$allocator@U?$pair@$$CBVBrn@OpenHome@@PAVObjectType@Stack@Net@2@@std@@@std@@$0A@@std@@@std@@U_Iterator_base12@2@@std@@QAE@XZ 00410040 f i libohNetCore:Stack.obj
 0001:0000f070       ??1?$_Tree_iterator@V?$_Tree_val@V?$_Tmap_traits@PAXPAXU?$less@PAX@std@@V?$allocator@U?$pair@QAXPAX@std@@@2@$0A@@std@@@std@@@std@@QAE@XZ 00410070 f i libohNetCore:Stack.obj
 0001:0000f0a0       ??1?$_Iterator012@Ubidirectional_iterator_tag@std@@U?$pair@$$CBVBrn@OpenHome@@PAVObjectType@Stack@Net@2@@2@HPBU32@ABU32@U_Iterator_base12@2@@std@@QAE@XZ 004100a0 f i libohNetCore:Stack.obj
 0001:0000f0d0       ??1?$_Tree_const_iterator@V?$_Tree_val@V?$_Tmap_traits@PAXPAXU?$less@PAX@std@@V?$allocator@U?$pair@QAXPAX@std@@@2@$0A@@std@@@std@@@std@@QAE@XZ 004100d0 f i libohNetCore:Stack.obj
 0001:0000f100       ??1?$_Tree_unchecked_const_iterator@V?$_Tree_val@V?$_Tmap_traits@PAXPAXU?$less@PAX@std@@V?$allocator@U?$pair@QAXPAX@std@@@2@$0A@@std@@@std@@U_Iterator_base12@2@@std@@QAE@XZ 00410100 f i libohNetCore:Stack.obj
 0001:0000f130       ??1?$_Iterator012@Ubidirectional_iterator_tag@std@@U?$pair@QAXPAX@2@HPBU32@ABU32@U_Iterator_base12@2@@std@@QAE@XZ 00410130 f i libohNetCore:Stack.obj
 0001:0000f160       ??0?$_Tree_const_iterator@V?$_Tree_val@V?$_Tmap_traits@PAXPAXU?$less@PAX@std@@V?$allocator@U?$pair@QAXPAX@std@@@2@$0A@@std@@@std@@@std@@QAE@ABV01@@Z 00410160 f i libohNetCore:Stack.obj
 0001:0000f190       ??_GObjectType@Stack@Net@OpenHome@@QAEPAXI@Z 00410190 f i libohNetCore:Stack.obj
 0001:0000f1d0       ??0?$_Tree_const_iterator@V?$_Tree_val@V?$_Tmap_traits@VBrn@OpenHome@@PAVObjectType@Stack@Net@2@VBufferCmp@2@V?$allocator@U?$pair@$$CBVBrn@OpenHome@@PAVObjectType@Stack@Net@2@@std@@@std@@$0A@@std@@@std@@@std@@QAE@ABV01@@Z 004101d0 f i libohNetCore:Stack.obj
 0001:0000f200       ??0?$_Tree_unchecked_const_iterator@V?$_Tree_val@V?$_Tmap_traits@PAXPAXU?$less@PAX@std@@V?$allocator@U?$pair@QAXPAX@std@@@2@$0A@@std@@@std@@U_Iterator_base12@2@@std@@QAE@ABV01@@Z 00410200 f i libohNetCore:Stack.obj
 0001:0000f240       ??0?$_Tree_unchecked_const_iterator@V?$_Tree_val@V?$_Tmap_traits@VBrn@OpenHome@@PAVObjectType@Stack@Net@2@VBufferCmp@2@V?$allocator@U?$pair@$$CBVBrn@OpenHome@@PAVObjectType@Stack@Net@2@@std@@@std@@$0A@@std@@@std@@U_Iterator_base12@2@@std@@QAE@ABV01@@Z 00410240 f i libohNetCore:Stack.obj
 0001:0000f280       ??0?$_Iterator012@Ubidirectional_iterator_tag@std@@U?$pair@QAXPAX@2@HPBU32@ABU32@U_Iterator_base12@2@@std@@QAE@ABU01@@Z 00410280 f i libohNetCore:Stack.obj
 0001:0000f2b0       ??0?$_Iterator012@Ubidirectional_iterator_tag@std@@U?$pair@$$CBVBrn@OpenHome@@PAVObjectType@Stack@Net@2@@2@HPBU32@ABU32@U_Iterator_base12@2@@std@@QAE@ABU01@@Z 004102b0 f i libohNetCore:Stack.obj
 0001:0000f2e0       ??1?$map@PAXPAXU?$less@PAX@std@@V?$allocator@U?$pair@QAXPAX@std@@@2@@std@@QAE@XZ 004102e0 f i libohNetCore:Stack.obj
 0001:0000f310       ??0?$map@PAXPAXU?$less@PAX@std@@V?$allocator@U?$pair@QAXPAX@std@@@2@@std@@QAE@XZ 00410310 f i libohNetCore:Stack.obj
 0001:0000f350       ??1?$_Tree@V?$_Tmap_traits@PAXPAXU?$less@PAX@std@@V?$allocator@U?$pair@QAXPAX@std@@@2@$0A@@std@@@std@@QAE@XZ 00410350 f i libohNetCore:Stack.obj
 0001:0000f3c0       ?begin@?$_Tree@V?$_Tmap_traits@PAXPAXU?$less@PAX@std@@V?$allocator@U?$pair@QAXPAX@std@@@2@$0A@@std@@@std@@QAE?AV?$_Tree_iterator@V?$_Tree_val@V?$_Tmap_traits@PAXPAXU?$less@PAX@std@@V?$allocator@U?$pair@QAXPAX@std@@@2@$0A@@std@@@std@@@2@XZ 004103c0 f i libohNetCore:Stack.obj
 0001:0000f420       ?end@?$_Tree@V?$_Tmap_traits@PAXPAXU?$less@PAX@std@@V?$allocator@U?$pair@QAXPAX@std@@@2@$0A@@std@@@std@@QAE?AV?$_Tree_iterator@V?$_Tree_val@V?$_Tmap_traits@PAXPAXU?$less@PAX@std@@V?$allocator@U?$pair@QAXPAX@std@@@2@$0A@@std@@@std@@@2@XZ 00410420 f i libohNetCore:Stack.obj
 0001:0000f470       ?size@?$_Tree@V?$_Tmap_traits@PAXPAXU?$less@PAX@std@@V?$allocator@U?$pair@QAXPAX@std@@@2@$0A@@std@@@std@@QBEIXZ 00410470 f i libohNetCore:Stack.obj
 0001:0000f490       ?erase@?$_Tree@V?$_Tmap_traits@PAXPAXU?$less@PAX@std@@V?$allocator@U?$pair@QAXPAX@std@@@2@$0A@@std@@@std@@QAE?AV?$_Tree_iterator@V?$_Tree_val@V?$_Tmap_traits@PAXPAXU?$less@PAX@std@@V?$allocator@U?$pair@QAXPAX@std@@@2@$0A@@std@@@std@@@2@V?$_Tree_const_iterator@V?$_Tree_val@V?$_Tmap_traits@PAXPAXU?$less@PAX@std@@V?$allocator@U?$pair@QAXPAX@std@@@2@$0A@@std@@@std@@@2@@Z 00410490 f i libohNetCore:Stack.obj
 0001:0000fba0       ?find@?$_Tree@V?$_Tmap_traits@PAXPAXU?$less@PAX@std@@V?$allocator@U?$pair@QAXPAX@std@@@2@$0A@@std@@@std@@QAE?AV?$_Tree_iterator@V?$_Tree_val@V?$_Tmap_traits@PAXPAXU?$less@PAX@std@@V?$allocator@U?$pair@QAXPAX@std@@@2@$0A@@std@@@std@@@2@ABQAX@Z 00410ba0 f i libohNetCore:Stack.obj
 0001:0000fd80       ??0?$vector@PAVMListener@Stack@Net@OpenHome@@V?$allocator@PAVMListener@Stack@Net@OpenHome@@@std@@@std@@QAE@XZ 00410d80 f i libohNetCore:Stack.obj
 0001:0000fdc0       ??1?$vector@PAVMListener@Stack@Net@OpenHome@@V?$allocator@PAVMListener@Stack@Net@OpenHome@@@std@@@std@@QAE@XZ 00410dc0 f i libohNetCore:Stack.obj
 0001:0000fe30       ?begin@?$vector@PAVMListener@Stack@Net@OpenHome@@V?$allocator@PAVMListener@Stack@Net@OpenHome@@@std@@@std@@QAE?AV?$_Vector_iterator@V?$_Vector_val@PAVMListener@Stack@Net@OpenHome@@V?$allocator@PAVMListener@Stack@Net@OpenHome@@@std@@@std@@@2@XZ 00410e30 f i libohNetCore:Stack.obj
 0001:0000fe80       ?size@?$vector@PAVMListener@Stack@Net@OpenHome@@V?$allocator@PAVMListener@Stack@Net@OpenHome@@@std@@@std@@QBEIXZ 00410e80 f i libohNetCore:Stack.obj
 0001:0000feb0       ??A?$vector@PAVMListener@Stack@Net@OpenHome@@V?$allocator@PAVMListener@Stack@Net@OpenHome@@@std@@@std@@QAEAAPAVMListener@Stack@Net@OpenHome@@I@Z 00410eb0 f i libohNetCore:Stack.obj
 0001:0000ff50       ?push_back@?$vector@PAVMListener@Stack@Net@OpenHome@@V?$allocator@PAVMListener@Stack@Net@OpenHome@@@std@@@std@@QAEXABQAVMListener@Stack@Net@OpenHome@@@Z 00410f50 f i libohNetCore:Stack.obj
 0001:00010060       ?erase@?$vector@PAVMListener@Stack@Net@OpenHome@@V?$allocator@PAVMListener@Stack@Net@OpenHome@@@std@@@std@@QAE?AV?$_Vector_iterator@V?$_Vector_val@PAVMListener@Stack@Net@OpenHome@@V?$allocator@PAVMListener@Stack@Net@OpenHome@@@std@@@std@@@2@V?$_Vector_const_iterator@V?$_Vector_val@PAVMListener@Stack@Net@OpenHome@@V?$allocator@PAVMListener@Stack@Net@OpenHome@@@std@@@std@@@2@@Z 00411060 f i libohNetCore:Stack.obj
 0001:00010190       ??0?$map@VBrn@OpenHome@@PAVObjectType@Stack@Net@2@VBufferCmp@2@V?$allocator@U?$pair@$$CBVBrn@OpenHome@@PAVObjectType@Stack@Net@2@@std@@@std@@@std@@QAE@XZ 00411190 f i libohNetCore:Stack.obj
 0001:000101e0       ??1?$_Tree@V?$_Tmap_traits@VBrn@OpenHome@@PAVObjectType@Stack@Net@2@VBufferCmp@2@V?$allocator@U?$pair@$$CBVBrn@OpenHome@@PAVObjectType@Stack@Net@2@@std@@@std@@$0A@@std@@@std@@QAE@XZ 004111e0 f i libohNetCore:Stack.obj
 0001:00010250       ?begin@?$_Tree@V?$_Tmap_traits@VBrn@OpenHome@@PAVObjectType@Stack@Net@2@VBufferCmp@2@V?$allocator@U?$pair@$$CBVBrn@OpenHome@@PAVObjectType@Stack@Net@2@@std@@@std@@$0A@@std@@@std@@QAE?AV?$_Tree_iterator@V?$_Tree_val@V?$_Tmap_traits@VBrn@OpenHome@@PAVObjectType@Stack@Net@2@VBufferCmp@2@V?$allocator@U?$pair@$$CBVBrn@OpenHome@@PAVObjectType@Stack@Net@2@@std@@@std@@$0A@@std@@@std@@@2@XZ 00411250 f i libohNetCore:Stack.obj
 0001:000102b0       ?end@?$_Tree@V?$_Tmap_traits@VBrn@OpenHome@@PAVObjectType@Stack@Net@2@VBufferCmp@2@V?$allocator@U?$pair@$$CBVBrn@OpenHome@@PAVObjectType@Stack@Net@2@@std@@@std@@$0A@@std@@@std@@QAE?AV?$_Tree_iterator@V?$_Tree_val@V?$_Tmap_traits@VBrn@OpenHome@@PAVObjectType@Stack@Net@2@VBufferCmp@2@V?$allocator@U?$pair@$$CBVBrn@OpenHome@@PAVObjectType@Stack@Net@2@@std@@@std@@$0A@@std@@@std@@@2@XZ 004112b0 f i libohNetCore:Stack.obj
 0001:00010300       ?size@?$_Tree@V?$_Tmap_traits@VBrn@OpenHome@@PAVObjectType@Stack@Net@2@VBufferCmp@2@V?$allocator@U?$pair@$$CBVBrn@OpenHome@@PAVObjectType@Stack@Net@2@@std@@@std@@$0A@@std@@@std@@QBEIXZ 00411300 f i libohNetCore:Stack.obj
 0001:00010320       ?erase@?$_Tree@V?$_Tmap_traits@VBrn@OpenHome@@PAVObjectType@Stack@Net@2@VBufferCmp@2@V?$allocator@U?$pair@$$CBVBrn@OpenHome@@PAVObjectType@Stack@Net@2@@std@@@std@@$0A@@std@@@std@@QAE?AV?$_Tree_iterator@V?$_Tree_val@V?$_Tmap_traits@VBrn@OpenHome@@PAVObjectType@Stack@Net@2@VBufferCmp@2@V?$allocator@U?$pair@$$CBVBrn@OpenHome@@PAVObjectType@Stack@Net@2@@std@@@std@@$0A@@std@@@std@@@2@V?$_Tree_const_iterator@V?$_Tree_val@V?$_Tmap_traits@VBrn@OpenHome@@PAVObjectType@Stack@Net@2@VBufferCmp@2@V?$allocator@U?$pair@$$CBVBrn@OpenHome@@PAVObjectType@Stack@Net@2@@std@@@std@@$0A@@std@@@std@@@2@@Z 00411320 f i libohNetCore:Stack.obj
 0001:00010a30       ?find@?$_Tree@V?$_Tmap_traits@VBrn@OpenHome@@PAVObjectType@Stack@Net@2@VBufferCmp@2@V?$allocator@U?$pair@$$CBVBrn@OpenHome@@PAVObjectType@Stack@Net@2@@std@@@std@@$0A@@std@@@std@@QAE?AV?$_Tree_iterator@V?$_Tree_val@V?$_Tmap_traits@VBrn@OpenHome@@PAVObjectType@Stack@Net@2@VBufferCmp@2@V?$allocator@U?$pair@$$CBVBrn@OpenHome@@PAVObjectType@Stack@Net@2@@std@@@std@@$0A@@std@@@std@@@2@ABVBrn@OpenHome@@@Z 00411a30 f i libohNetCore:Stack.obj
 0001:00010c10       ??H?$_Vector_iterator@V?$_Vector_val@PAVMListener@Stack@Net@OpenHome@@V?$allocator@PAVMListener@Stack@Net@OpenHome@@@std@@@std@@@std@@QBE?AV01@H@Z 00411c10 f i libohNetCore:Stack.obj
 0001:00010cf0       ??C?$_Tree_iterator@V?$_Tree_val@V?$_Tmap_traits@VBrn@OpenHome@@PAVObjectType@Stack@Net@2@VBufferCmp@2@V?$allocator@U?$pair@$$CBVBrn@OpenHome@@PAVObjectType@Stack@Net@2@@std@@@std@@$0A@@std@@@std@@@std@@QBEPAU?$pair@$$CBVBrn@OpenHome@@PAVObjectType@Stack@Net@2@@1@XZ 00411cf0 f i libohNetCore:Stack.obj
 0001:00010d20       ??E?$_Tree_iterator@V?$_Tree_val@V?$_Tmap_traits@VBrn@OpenHome@@PAVObjectType@Stack@Net@2@VBufferCmp@2@V?$allocator@U?$pair@$$CBVBrn@OpenHome@@PAVObjectType@Stack@Net@2@@std@@@std@@$0A@@std@@@std@@@std@@QAE?AV01@H@Z 00411d20 f i libohNetCore:Stack.obj
 0001:00010df0       ??9?$_Tree_const_iterator@V?$_Tree_val@V?$_Tmap_traits@VBrn@OpenHome@@PAVObjectType@Stack@Net@2@VBufferCmp@2@V?$allocator@U?$pair@$$CBVBrn@OpenHome@@PAVObjectType@Stack@Net@2@@std@@@std@@$0A@@std@@@std@@@std@@QBE_NABV01@@Z 00411df0 f i libohNetCore:Stack.obj
 0001:00010e30       ??C?$_Tree_iterator@V?$_Tree_val@V?$_Tmap_traits@PAXPAXU?$less@PAX@std@@V?$allocator@U?$pair@QAXPAX@std@@@2@$0A@@std@@@std@@@std@@QBEPAU?$pair@QAXPAX@1@XZ 00411e30 f i libohNetCore:Stack.obj
 0001:00010e60       ??E?$_Tree_iterator@V?$_Tree_val@V?$_Tmap_traits@PAXPAXU?$less@PAX@std@@V?$allocator@U?$pair@QAXPAX@std@@@2@$0A@@std@@@std@@@std@@QAE?AV01@H@Z 00411e60 f i libohNetCore:Stack.obj
 0001:00010f30       ??9?$_Tree_const_iterator@V?$_Tree_val@V?$_Tmap_traits@PAXPAXU?$less@PAX@std@@V?$allocator@U?$pair@QAXPAX@std@@@2@$0A@@std@@@std@@@std@@QBE_NABV01@@Z 00411f30 f i libohNetCore:Stack.obj
 0001:00010f70       ??0?$_Tree_iterator@V?$_Tree_val@V?$_Tmap_traits@PAXPAXU?$less@PAX@std@@V?$allocator@U?$pair@QAXPAX@std@@@2@$0A@@std@@@std@@@std@@QAE@ABV01@@Z 00411f70 f i libohNetCore:Stack.obj
 0001:00010fa0       ??0?$_Tree_iterator@V?$_Tree_val@V?$_Tmap_traits@VBrn@OpenHome@@PAVObjectType@Stack@Net@2@VBufferCmp@2@V?$allocator@U?$pair@$$CBVBrn@OpenHome@@PAVObjectType@Stack@Net@2@@std@@@std@@$0A@@std@@@std@@@std@@QAE@ABV01@@Z 00411fa0 f i libohNetCore:Stack.obj
 0001:00010fd0       ??0?$_Vector_iterator@V?$_Vector_val@PAVMListener@Stack@Net@OpenHome@@V?$allocator@PAVMListener@Stack@Net@OpenHome@@@std@@@std@@@std@@QAE@ABV01@@Z 00411fd0 f i libohNetCore:Stack.obj
 0001:00011000       ??0?$_Tree@V?$_Tmap_traits@PAXPAXU?$less@PAX@std@@V?$allocator@U?$pair@QAXPAX@std@@@2@$0A@@std@@@std@@QAE@ABU?$less@PAX@1@ABV?$allocator@U?$pair@QAXPAX@std@@@1@@Z 00412000 f i libohNetCore:Stack.obj
 0001:00011050       ?lower_bound@?$_Tree@V?$_Tmap_traits@PAXPAXU?$less@PAX@std@@V?$allocator@U?$pair@QAXPAX@std@@@2@$0A@@std@@@std@@QAE?AV?$_Tree_iterator@V?$_Tree_val@V?$_Tmap_traits@PAXPAXU?$less@PAX@std@@V?$allocator@U?$pair@QAXPAX@std@@@2@$0A@@std@@@std@@@2@ABQAX@Z 00412050 f i libohNetCore:Stack.obj
 0001:000110b0       ?_Lmost@?$_Tree@V?$_Tmap_traits@PAXPAXU?$less@PAX@std@@V?$allocator@U?$pair@QAXPAX@std@@@2@$0A@@std@@@std@@IBEAAPAU_Node@?$_Tree_nod@V?$_Tmap_traits@PAXPAXU?$less@PAX@std@@V?$allocator@U?$pair@QAXPAX@std@@@2@$0A@@std@@@2@XZ 004120b0 f i libohNetCore:Stack.obj
 0001:000110e0       ?_Lrotate@?$_Tree@V?$_Tmap_traits@PAXPAXU?$less@PAX@std@@V?$allocator@U?$pair@QAXPAX@std@@@2@$0A@@std@@@std@@IAEXPAU_Node@?$_Tree_nod@V?$_Tmap_traits@PAXPAXU?$less@PAX@std@@V?$allocator@U?$pair@QAXPAX@std@@@2@$0A@@std@@@2@@Z 004120e0 f i libohNetCore:Stack.obj
 0001:00011200       ?_Rmost@?$_Tree@V?$_Tmap_traits@PAXPAXU?$less@PAX@std@@V?$allocator@U?$pair@QAXPAX@std@@@2@$0A@@std@@@std@@IBEAAPAU_Node@?$_Tree_nod@V?$_Tmap_traits@PAXPAXU?$less@PAX@std@@V?$allocator@U?$pair@QAXPAX@std@@@2@$0A@@std@@@2@XZ 00412200 f i libohNetCore:Stack.obj
 0001:00011230       ?_Root@?$_Tree@V?$_Tmap_traits@PAXPAXU?$less@PAX@std@@V?$allocator@U?$pair@QAXPAX@std@@@2@$0A@@std@@@std@@IBEAAPAU_Node@?$_Tree_nod@V?$_Tmap_traits@PAXPAXU?$less@PAX@std@@V?$allocator@U?$pair@QAXPAX@std@@@2@$0A@@std@@@2@XZ 00412230 f i libohNetCore:Stack.obj
 0001:00011260       ?_Rrotate@?$_Tree@V?$_Tmap_traits@PAXPAXU?$less@PAX@std@@V?$allocator@U?$pair@QAXPAX@std@@@2@$0A@@std@@@std@@IAEXPAU_Node@?$_Tree_nod@V?$_Tmap_traits@PAXPAXU?$less@PAX@std@@V?$allocator@U?$pair@QAXPAX@std@@@2@$0A@@std@@@2@@Z 00412260 f i libohNetCore:Stack.obj
 0001:00011380       ?_Orphan_ptr@?$_Tree@V?$_Tmap_traits@PAXPAXU?$less@PAX@std@@V?$allocator@U?$pair@QAXPAX@std@@@2@$0A@@std@@@std@@IBEXAAV12@PAU_Node@?$_Tree_nod@V?$_Tmap_traits@PAXPAXU?$less@PAX@std@@V?$allocator@U?$pair@QAXPAX@std@@@2@$0A@@std@@@2@@Z 00412380 f i libohNetCore:Stack.obj
 0001:00011490       ?_Tidy@?$_Tree@V?$_Tmap_traits@PAXPAXU?$less@PAX@std@@V?$allocator@U?$pair@QAXPAX@std@@@2@$0A@@std@@@std@@IAEXXZ 00412490 f i libohNetCore:Stack.obj
 0001:00011590       ??1?$_Tree_val@V?$_Tmap_traits@PAXPAXU?$less@PAX@std@@V?$allocator@U?$pair@QAXPAX@std@@@2@$0A@@std@@@std@@QAE@XZ 00412590 f i libohNetCore:Stack.obj
 0001:00011600       ?_Color@?$_Tree_val@V?$_Tmap_traits@PAXPAXU?$less@PAX@std@@V?$allocator@U?$pair@QAXPAX@std@@@2@$0A@@std@@@std@@SGAADPAU_Node@?$_Tree_nod@V?$_Tmap_traits@PAXPAXU?$less@PAX@std@@V?$allocator@U?$pair@QAXPAX@std@@@2@$0A@@std@@@2@@Z 00412600 f i libohNetCore:Stack.obj
 0001:00011610       ?_Isnil@?$_Tree_val@V?$_Tmap_traits@PAXPAXU?$less@PAX@std@@V?$allocator@U?$pair@QAXPAX@std@@@2@$0A@@std@@@std@@SGAADPAU_Node@?$_Tree_nod@V?$_Tmap_traits@PAXPAXU?$less@PAX@std@@V?$allocator@U?$pair@QAXPAX@std@@@2@$0A@@std@@@2@@Z 00412610 f i libohNetCore:Stack.obj
 0001:00011620       ?_Key@?$_Tree_val@V?$_Tmap_traits@PAXPAXU?$less@PAX@std@@V?$allocator@U?$pair@QAXPAX@std@@@2@$0A@@std@@@std@@SGAAPAXPAU_Node@?$_Tree_nod@V?$_Tmap_traits@PAXPAXU?$less@PAX@std@@V?$allocator@U?$pair@QAXPAX@std@@@2@$0A@@std@@@2@@Z 00412620 f i libohNetCore:Stack.obj
 0001:00011640       ?_Left@?$_Tree_val@V?$_Tmap_traits@PAXPAXU?$less@PAX@std@@V?$allocator@U?$pair@QAXPAX@std@@@2@$0A@@std@@@std@@SGAAPAU_Node@?$_Tree_nod@V?$_Tmap_traits@PAXPAXU?$less@PAX@std@@V?$allocator@U?$pair@QAXPAX@std@@@2@$0A@@std@@@2@PAU342@@Z 00412640 f i libohNetCore:Stack.obj
 0001:00011650       ?_Parent@?$_Tree_val@V?$_Tmap_traits@PAXPAXU?$less@PAX@std@@V?$allocator@U?$pair@QAXPAX@std@@@2@$0A@@std@@@std@@SGAAPAU_Node@?$_Tree_nod@V?$_Tmap_traits@PAXPAXU?$less@PAX@std@@V?$allocator@U?$pair@QAXPAX@std@@@2@$0A@@std@@@2@PAU342@@Z 00412650 f i libohNetCore:Stack.obj
 0001:00011660       ?_Right@?$_Tree_val@V?$_Tmap_traits@PAXPAXU?$less@PAX@std@@V?$allocator@U?$pair@QAXPAX@std@@@2@$0A@@std@@@std@@SGAAPAU_Node@?$_Tree_nod@V?$_Tmap_traits@PAXPAXU?$less@PAX@std@@V?$allocator@U?$pair@QAXPAX@std@@@2@$0A@@std@@@2@PAU342@@Z 00412660 f i libohNetCore:Stack.obj
 0001:00011670       ?_Myval@?$_Tree_val@V?$_Tmap_traits@PAXPAXU?$less@PAX@std@@V?$allocator@U?$pair@QAXPAX@std@@@2@$0A@@std@@@std@@SGAAU?$pair@QAXPAX@2@PAU_Node@?$_Tree_nod@V?$_Tmap_traits@PAXPAXU?$less@PAX@std@@V?$allocator@U?$pair@QAXPAX@std@@@2@$0A@@std@@@2@@Z 00412670 f i libohNetCore:Stack.obj
 0001:00011680       ?_Max@?$_Tree_val@V?$_Tmap_traits@PAXPAXU?$less@PAX@std@@V?$allocator@U?$pair@QAXPAX@std@@@2@$0A@@std@@@std@@SGPAU_Node@?$_Tree_nod@V?$_Tmap_traits@PAXPAXU?$less@PAX@std@@V?$allocator@U?$pair@QAXPAX@std@@@2@$0A@@std@@@2@PAU342@@Z 00412680 f i libohNetCore:Stack.obj
 0001:000116c0       ?_Min@?$_Tree_val@V?$_Tmap_traits@PAXPAXU?$less@PAX@std@@V?$allocator@U?$pair@QAXPAX@std@@@2@$0A@@std@@@std@@SGPAU_Node@?$_Tree_nod@V?$_Tmap_traits@PAXPAXU?$less@PAX@std@@V?$allocator@U?$pair@QAXPAX@std@@@2@$0A@@std@@@2@PAU342@@Z 004126c0 f i libohNetCore:Stack.obj
 0001:00011700       ??0?$allocator@U?$pair@QAXPAX@std@@@std@@QAE@XZ 00412700 f i libohNetCore:Stack.obj
 0001:00011720       ?deallocate@?$allocator@U_Node@?$_Tree_nod@V?$_Tmap_traits@PAXPAXU?$less@PAX@std@@V?$allocator@U?$pair@QAXPAX@std@@@2@$0A@@std@@@std@@@std@@QAEXPAU_Node@?$_Tree_nod@V?$_Tmap_traits@PAXPAXU?$less@PAX@std@@V?$allocator@U?$pair@QAXPAX@std@@@2@$0A@@std@@@2@I@Z 00412720 f i libohNetCore:Stack.obj
 0001:00011750       ?_Make_iter@?$vector@PAVMListener@Stack@Net@OpenHome@@V?$allocator@PAVMListener@Stack@Net@OpenHome@@@std@@@std@@QBE?AV?$_Vector_iterator@V?$_Vector_val@PAVMListener@Stack@Net@OpenHome@@V?$allocator@PAVMListener@Stack@Net@OpenHome@@@std@@@std@@@2@V?$_Vector_const_iterator@V?$_Vector_val@PAVMListener@Stack@Net@OpenHome@@V?$allocator@PAVMListener@Stack@Net@OpenHome@@@std@@@std@@@2@@Z 00412750 f i libohNetCore:Stack.obj
 0001:000117e0       ?_Destroy@?$vector@PAVMListener@Stack@Net@OpenHome@@V?$allocator@PAVMListener@Stack@Net@OpenHome@@@std@@@std@@IAEXPAPAVMListener@Stack@Net@OpenHome@@0@Z 004127e0 f i libohNetCore:Stack.obj
 0001:00011820       ?_Inside@?$vector@PAVMListener@Stack@Net@OpenHome@@V?$allocator@PAVMListener@Stack@Net@OpenHome@@@std@@@std@@IBE_NPBQAVMListener@Stack@Net@OpenHome@@@Z 00412820 f i libohNetCore:Stack.obj
 0001:00011870       ?_Reserve@?$vector@PAVMListener@Stack@Net@OpenHome@@V?$allocator@PAVMListener@Stack@Net@OpenHome@@@std@@@std@@IAEXI@Z 00412870 f i libohNetCore:Stack.obj
 0001:000118f0       ?_Tidy@?$vector@PAVMListener@Stack@Net@OpenHome@@V?$allocator@PAVMListener@Stack@Net@OpenHome@@@std@@@std@@IAEXXZ 004128f0 f i libohNetCore:Stack.obj
 0001:00011980       ?_Orphan_range@?$vector@PAVMListener@Stack@Net@OpenHome@@V?$allocator@PAVMListener@Stack@Net@OpenHome@@@std@@@std@@IBEXPAPAVMListener@Stack@Net@OpenHome@@0@Z 00412980 f i libohNetCore:Stack.obj
 0001:00011a90       ??0?$_Vector_val@PAVMListener@Stack@Net@OpenHome@@V?$allocator@PAVMListener@Stack@Net@OpenHome@@@std@@@std@@QAE@V?$allocator@PAVMListener@Stack@Net@OpenHome@@@1@@Z 00412a90 f i libohNetCore:Stack.obj
 0001:00011bb0       ??1?$_Vector_val@PAVMListener@Stack@Net@OpenHome@@V?$allocator@PAVMListener@Stack@Net@OpenHome@@@std@@@std@@QAE@XZ 00412bb0 f i libohNetCore:Stack.obj
 0001:00011c90       ??0?$allocator@PAVMListener@Stack@Net@OpenHome@@@std@@QAE@XZ 00412c90 f i libohNetCore:Stack.obj
 0001:00011cb0       ??0?$_Tree@V?$_Tmap_traits@VBrn@OpenHome@@PAVObjectType@Stack@Net@2@VBufferCmp@2@V?$allocator@U?$pair@$$CBVBrn@OpenHome@@PAVObjectType@Stack@Net@2@@std@@@std@@$0A@@std@@@std@@QAE@ABVBufferCmp@OpenHome@@ABV?$allocator@U?$pair@$$CBVBrn@OpenHome@@PAVObjectType@Stack@Net@2@@std@@@1@@Z 00412cb0 f i libohNetCore:Stack.obj
 0001:00011d00       ?lower_bound@?$_Tree@V?$_Tmap_traits@VBrn@OpenHome@@PAVObjectType@Stack@Net@2@VBufferCmp@2@V?$allocator@U?$pair@$$CBVBrn@OpenHome@@PAVObjectType@Stack@Net@2@@std@@@std@@$0A@@std@@@std@@QAE?AV?$_Tree_iterator@V?$_Tree_val@V?$_Tmap_traits@VBrn@OpenHome@@PAVObjectType@Stack@Net@2@VBufferCmp@2@V?$allocator@U?$pair@$$CBVBrn@OpenHome@@PAVObjectType@Stack@Net@2@@std@@@std@@$0A@@std@@@std@@@2@ABVBrn@OpenHome@@@Z 00412d00 f i libohNetCore:Stack.obj
 0001:00011d60       ?_Lmost@?$_Tree@V?$_Tmap_traits@VBrn@OpenHome@@PAVObjectType@Stack@Net@2@VBufferCmp@2@V?$allocator@U?$pair@$$CBVBrn@OpenHome@@PAVObjectType@Stack@Net@2@@std@@@std@@$0A@@std@@@std@@IBEAAPAU_Node@?$_Tree_nod@V?$_Tmap_traits@VBrn@OpenHome@@PAVObjectType@Stack@Net@2@VBufferCmp@2@V?$allocator@U?$pair@$$CBVBrn@OpenHome@@PAVObjectType@Stack@Net@2@@std@@@std@@$0A@@std@@@2@XZ 00412d60 f i libohNetCore:Stack.obj
 0001:00011d90       ?_Lrotate@?$_Tree@V?$_Tmap_traits@VBrn@OpenHome@@PAVObjectType@Stack@Net@2@VBufferCmp@2@V?$allocator@U?$pair@$$CBVBrn@OpenHome@@PAVObjectType@Stack@Net@2@@std@@@std@@$0A@@std@@@std@@IAEXPAU_Node@?$_Tree_nod@V?$_Tmap_traits@VBrn@OpenHome@@PAVObjectType@Stack@Net@2@VBufferCmp@2@V?$allocator@U?$pair@$$CBVBrn@OpenHome@@PAVObjectType@Stack@Net@2@@std@@@std@@$0A@@std@@@2@@Z 00412d90 f i libohNetCore:Stack.obj
 0001:00011eb0       ?_Rmost@?$_Tree@V?$_Tmap_traits@VBrn@OpenHome@@PAVObjectType@Stack@Net@2@VBufferCmp@2@V?$allocator@U?$pair@$$CBVBrn@OpenHome@@PAVObjectType@Stack@Net@2@@std@@@std@@$0A@@std@@@std@@IBEAAPAU_Node@?$_Tree_nod@V?$_Tmap_traits@VBrn@OpenHome@@PAVObjectType@Stack@Net@2@VBufferCmp@2@V?$allocator@U?$pair@$$CBVBrn@OpenHome@@PAVObjectType@Stack@Net@2@@std@@@std@@$0A@@std@@@2@XZ 00412eb0 f i libohNetCore:Stack.obj
 0001:00011ee0       ?_Root@?$_Tree@V?$_Tmap_traits@VBrn@OpenHome@@PAVObjectType@Stack@Net@2@VBufferCmp@2@V?$allocator@U?$pair@$$CBVBrn@OpenHome@@PAVObjectType@Stack@Net@2@@std@@@std@@$0A@@std@@@std@@IBEAAPAU_Node@?$_Tree_nod@V?$_Tmap_traits@VBrn@OpenHome@@PAVObjectType@Stack@Net@2@VBufferCmp@2@V?$allocator@U?$pair@$$CBVBrn@OpenHome@@PAVObjectType@Stack@Net@2@@std@@@std@@$0A@@std@@@2@XZ 00412ee0 f i libohNetCore:Stack.obj
 0001:00011f10       ?_Rrotate@?$_Tree@V?$_Tmap_traits@VBrn@OpenHome@@PAVObjectType@Stack@Net@2@VBufferCmp@2@V?$allocator@U?$pair@$$CBVBrn@OpenHome@@PAVObjectType@Stack@Net@2@@std@@@std@@$0A@@std@@@std@@IAEXPAU_Node@?$_Tree_nod@V?$_Tmap_traits@VBrn@OpenHome@@PAVObjectType@Stack@Net@2@VBufferCmp@2@V?$allocator@U?$pair@$$CBVBrn@OpenHome@@PAVObjectType@Stack@Net@2@@std@@@std@@$0A@@std@@@2@@Z 00412f10 f i libohNetCore:Stack.obj
 0001:00012030       ?_Orphan_ptr@?$_Tree@V?$_Tmap_traits@VBrn@OpenHome@@PAVObjectType@Stack@Net@2@VBufferCmp@2@V?$allocator@U?$pair@$$CBVBrn@OpenHome@@PAVObjectType@Stack@Net@2@@std@@@std@@$0A@@std@@@std@@IBEXAAV12@PAU_Node@?$_Tree_nod@V?$_Tmap_traits@VBrn@OpenHome@@PAVObjectType@Stack@Net@2@VBufferCmp@2@V?$allocator@U?$pair@$$CBVBrn@OpenHome@@PAVObjectType@Stack@Net@2@@std@@@std@@$0A@@std@@@2@@Z 00413030 f i libohNetCore:Stack.obj
 0001:00012140       ?_Tidy@?$_Tree@V?$_Tmap_traits@VBrn@OpenHome@@PAVObjectType@Stack@Net@2@VBufferCmp@2@V?$allocator@U?$pair@$$CBVBrn@OpenHome@@PAVObjectType@Stack@Net@2@@std@@@std@@$0A@@std@@@std@@IAEXXZ 00413140 f i libohNetCore:Stack.obj
 0001:00012240       ??1?$_Tree_val@V?$_Tmap_traits@VBrn@OpenHome@@PAVObjectType@Stack@Net@2@VBufferCmp@2@V?$allocator@U?$pair@$$CBVBrn@OpenHome@@PAVObjectType@Stack@Net@2@@std@@@std@@$0A@@std@@@std@@QAE@XZ 00413240 f i libohNetCore:Stack.obj
 0001:000122b0       ?_Color@?$_Tree_val@V?$_Tmap_traits@VBrn@OpenHome@@PAVObjectType@Stack@Net@2@VBufferCmp@2@V?$allocator@U?$pair@$$CBVBrn@OpenHome@@PAVObjectType@Stack@Net@2@@std@@@std@@$0A@@std@@@std@@SGAADPAU_Node@?$_Tree_nod@V?$_Tmap_traits@VBrn@OpenHome@@PAVObjectType@Stack@Net@2@VBufferCmp@2@V?$allocator@U?$pair@$$CBVBrn@OpenHome@@PAVObjectType@Stack@Net@2@@std@@@std@@$0A@@std@@@2@@Z 004132b0 f i libohNetCore:Stack.obj
 0001:000122c0       ?_Isnil@?$_Tree_val@V?$_Tmap_traits@VBrn@OpenHome@@PAVObjectType@Stack@Net@2@VBufferCmp@2@V?$allocator@U?$pair@$$CBVBrn@OpenHome@@PAVObjectType@Stack@Net@2@@std@@@std@@$0A@@std@@@std@@SGAADPAU_Node@?$_Tree_nod@V?$_Tmap_traits@VBrn@OpenHome@@PAVObjectType@Stack@Net@2@VBufferCmp@2@V?$allocator@U?$pair@$$CBVBrn@OpenHome@@PAVObjectType@Stack@Net@2@@std@@@std@@$0A@@std@@@2@@Z 004132c0 f i libohNetCore:Stack.obj
 0001:000122d0       ?_Key@?$_Tree_val@V?$_Tmap_traits@VBrn@OpenHome@@PAVObjectType@Stack@Net@2@VBufferCmp@2@V?$allocator@U?$pair@$$CBVBrn@OpenHome@@PAVObjectType@Stack@Net@2@@std@@@std@@$0A@@std@@@std@@SGAAVBrn@OpenHome@@PAU_Node@?$_Tree_nod@V?$_Tmap_traits@VBrn@OpenHome@@PAVObjectType@Stack@Net@2@VBufferCmp@2@V?$allocator@U?$pair@$$CBVBrn@OpenHome@@PAVObjectType@Stack@Net@2@@std@@@std@@$0A@@std@@@2@@Z 004132d0 f i libohNetCore:Stack.obj
 0001:000122f0       ?_Left@?$_Tree_val@V?$_Tmap_traits@VBrn@OpenHome@@PAVObjectType@Stack@Net@2@VBufferCmp@2@V?$allocator@U?$pair@$$CBVBrn@OpenHome@@PAVObjectType@Stack@Net@2@@std@@@std@@$0A@@std@@@std@@SGAAPAU_Node@?$_Tree_nod@V?$_Tmap_traits@VBrn@OpenHome@@PAVObjectType@Stack@Net@2@VBufferCmp@2@V?$allocator@U?$pair@$$CBVBrn@OpenHome@@PAVObjectType@Stack@Net@2@@std@@@std@@$0A@@std@@@2@PAU342@@Z 004132f0 f i libohNetCore:Stack.obj
 0001:00012300       ?_Parent@?$_Tree_val@V?$_Tmap_traits@VBrn@OpenHome@@PAVObjectType@Stack@Net@2@VBufferCmp@2@V?$allocator@U?$pair@$$CBVBrn@OpenHome@@PAVObjectType@Stack@Net@2@@std@@@std@@$0A@@std@@@std@@SGAAPAU_Node@?$_Tree_nod@V?$_Tmap_traits@VBrn@OpenHome@@PAVObjectType@Stack@Net@2@VBufferCmp@2@V?$allocator@U?$pair@$$CBVBrn@OpenHome@@PAVObjectType@Stack@Net@2@@std@@@std@@$0A@@std@@@2@PAU342@@Z 00413300 f i libohNetCore:Stack.obj
 0001:00012310       ?_Right@?$_Tree_val@V?$_Tmap_traits@VBrn@OpenHome@@PAVObjectType@Stack@Net@2@VBufferCmp@2@V?$allocator@U?$pair@$$CBVBrn@OpenHome@@PAVObjectType@Stack@Net@2@@std@@@std@@$0A@@std@@@std@@SGAAPAU_Node@?$_Tree_nod@V?$_Tmap_traits@VBrn@OpenHome@@PAVObjectType@Stack@Net@2@VBufferCmp@2@V?$allocator@U?$pair@$$CBVBrn@OpenHome@@PAVObjectType@Stack@Net@2@@std@@@std@@$0A@@std@@@2@PAU342@@Z 00413310 f i libohNetCore:Stack.obj
 0001:00012320       ?_Myval@?$_Tree_val@V?$_Tmap_traits@VBrn@OpenHome@@PAVObjectType@Stack@Net@2@VBufferCmp@2@V?$allocator@U?$pair@$$CBVBrn@OpenHome@@PAVObjectType@Stack@Net@2@@std@@@std@@$0A@@std@@@std@@SGAAU?$pair@$$CBVBrn@OpenHome@@PAVObjectType@Stack@Net@2@@2@PAU_Node@?$_Tree_nod@V?$_Tmap_traits@VBrn@OpenHome@@PAVObjectType@Stack@Net@2@VBufferCmp@2@V?$allocator@U?$pair@$$CBVBrn@OpenHome@@PAVObjectType@Stack@Net@2@@std@@@std@@$0A@@std@@@2@@Z 00413320 f i libohNetCore:Stack.obj
 0001:00012330       ?_Max@?$_Tree_val@V?$_Tmap_traits@VBrn@OpenHome@@PAVObjectType@Stack@Net@2@VBufferCmp@2@V?$allocator@U?$pair@$$CBVBrn@OpenHome@@PAVObjectType@Stack@Net@2@@std@@@std@@$0A@@std@@@std@@SGPAU_Node@?$_Tree_nod@V?$_Tmap_traits@VBrn@OpenHome@@PAVObjectType@Stack@Net@2@VBufferCmp@2@V?$allocator@U?$pair@$$CBVBrn@OpenHome@@PAVObjectType@Stack@Net@2@@std@@@std@@$0A@@std@@@2@PAU342@@Z 00413330 f i libohNetCore:Stack.obj
 0001:00012370       ?_Min@?$_Tree_val@V?$_Tmap_traits@VBrn@OpenHome@@PAVObjectType@Stack@Net@2@VBufferCmp@2@V?$allocator@U?$pair@$$CBVBrn@OpenHome@@PAVObjectType@Stack@Net@2@@std@@@std@@$0A@@std@@@std@@SGPAU_Node@?$_Tree_nod@V?$_Tmap_traits@VBrn@OpenHome@@PAVObjectType@Stack@Net@2@VBufferCmp@2@V?$allocator@U?$pair@$$CBVBrn@OpenHome@@PAVObjectType@Stack@Net@2@@std@@@std@@$0A@@std@@@2@PAU342@@Z 00413370 f i libohNetCore:Stack.obj
 0001:000123b0       ??0?$allocator@U?$pair@$$CBVBrn@OpenHome@@PAVObjectType@Stack@Net@2@@std@@@std@@QAE@XZ 004133b0 f i libohNetCore:Stack.obj
 0001:000123d0       ?deallocate@?$allocator@U_Node@?$_Tree_nod@V?$_Tmap_traits@VBrn@OpenHome@@PAVObjectType@Stack@Net@2@VBufferCmp@2@V?$allocator@U?$pair@$$CBVBrn@OpenHome@@PAVObjectType@Stack@Net@2@@std@@@std@@$0A@@std@@@std@@@std@@QAEXPAU_Node@?$_Tree_nod@V?$_Tmap_traits@VBrn@OpenHome@@PAVObjectType@Stack@Net@2@VBufferCmp@2@V?$allocator@U?$pair@$$CBVBrn@OpenHome@@PAVObjectType@Stack@Net@2@@std@@@std@@$0A@@std@@@2@I@Z 004133d0 f i libohNetCore:Stack.obj
 0001:00012400       ??0?$_Vector_iterator@V?$_Vector_val@PAVMListener@Stack@Net@OpenHome@@V?$allocator@PAVMListener@Stack@Net@OpenHome@@@std@@@std@@@std@@QAE@PAPAVMListener@Stack@Net@OpenHome@@PBU_Container_base12@1@@Z 00413400 f i libohNetCore:Stack.obj
 0001:00012440       ??Y?$_Vector_iterator@V?$_Vector_val@PAVMListener@Stack@Net@OpenHome@@V?$allocator@PAVMListener@Stack@Net@OpenHome@@@std@@@std@@@std@@QAEAAV01@H@Z 00413440 f i libohNetCore:Stack.obj
 0001:00012470       ??0?$_Tree_iterator@V?$_Tree_val@V?$_Tmap_traits@VBrn@OpenHome@@PAVObjectType@Stack@Net@2@VBufferCmp@2@V?$allocator@U?$pair@$$CBVBrn@OpenHome@@PAVObjectType@Stack@Net@2@@std@@@std@@$0A@@std@@@std@@@std@@QAE@PAU_Node@?$_Tree_nod@V?$_Tmap_traits@VBrn@OpenHome@@PAVObjectType@Stack@Net@2@VBufferCmp@2@V?$allocator@U?$pair@$$CBVBrn@OpenHome@@PAVObjectType@Stack@Net@2@@std@@@std@@$0A@@std@@@1@PBV?$_Tree_val@V?$_Tmap_traits@VBrn@OpenHome@@PAVObjectType@Stack@Net@2@VBufferCmp@2@V?$allocator@U?$pair@$$CBVBrn@OpenHome@@PAVObjectType@Stack@Net@2@@std@@@std@@$0A@@std@@@1@@Z 00413470 f i libohNetCore:Stack.obj
 0001:000124b0       ??D?$_Tree_iterator@V?$_Tree_val@V?$_Tmap_traits@VBrn@OpenHome@@PAVObjectType@Stack@Net@2@VBufferCmp@2@V?$allocator@U?$pair@$$CBVBrn@OpenHome@@PAVObjectType@Stack@Net@2@@std@@@std@@$0A@@std@@@std@@@std@@QBEAAU?$pair@$$CBVBrn@OpenHome@@PAVObjectType@Stack@Net@2@@1@XZ 004134b0 f i libohNetCore:Stack.obj
 0001:000124e0       ??E?$_Tree_iterator@V?$_Tree_val@V?$_Tmap_traits@VBrn@OpenHome@@PAVObjectType@Stack@Net@2@VBufferCmp@2@V?$allocator@U?$pair@$$CBVBrn@OpenHome@@PAVObjectType@Stack@Net@2@@std@@@std@@$0A@@std@@@std@@@std@@QAEAAV01@XZ 004134e0 f i libohNetCore:Stack.obj
 0001:00012510       ??E?$_Tree_const_iterator@V?$_Tree_val@V?$_Tmap_traits@VBrn@OpenHome@@PAVObjectType@Stack@Net@2@VBufferCmp@2@V?$allocator@U?$pair@$$CBVBrn@OpenHome@@PAVObjectType@Stack@Net@2@@std@@@std@@$0A@@std@@@std@@@std@@QAEAAV01@XZ 00413510 f i libohNetCore:Stack.obj
 0001:000125d0       ??8?$_Tree_const_iterator@V?$_Tree_val@V?$_Tmap_traits@VBrn@OpenHome@@PAVObjectType@Stack@Net@2@VBufferCmp@2@V?$allocator@U?$pair@$$CBVBrn@OpenHome@@PAVObjectType@Stack@Net@2@@std@@@std@@$0A@@std@@@std@@@std@@QBE_NABV01@@Z 004135d0 f i libohNetCore:Stack.obj
 0001:00012690       ?_Mynode@?$_Tree_unchecked_const_iterator@V?$_Tree_val@V?$_Tmap_traits@VBrn@OpenHome@@PAVObjectType@Stack@Net@2@VBufferCmp@2@V?$allocator@U?$pair@$$CBVBrn@OpenHome@@PAVObjectType@Stack@Net@2@@std@@@std@@$0A@@std@@@std@@U_Iterator_base12@2@@std@@QBEPAU_Node@?$_Tree_nod@V?$_Tmap_traits@VBrn@OpenHome@@PAVObjectType@Stack@Net@2@VBufferCmp@2@V?$allocator@U?$pair@$$CBVBrn@OpenHome@@PAVObjectType@Stack@Net@2@@std@@@std@@$0A@@std@@@2@XZ 00413690 f i libohNetCore:Stack.obj
 0001:000126b0       ??0?$_Tree_iterator@V?$_Tree_val@V?$_Tmap_traits@PAXPAXU?$less@PAX@std@@V?$allocator@U?$pair@QAXPAX@std@@@2@$0A@@std@@@std@@@std@@QAE@PAU_Node@?$_Tree_nod@V?$_Tmap_traits@PAXPAXU?$less@PAX@std@@V?$allocator@U?$pair@QAXPAX@std@@@2@$0A@@std@@@1@PBV?$_Tree_val@V?$_Tmap_traits@PAXPAXU?$less@PAX@std@@V?$allocator@U?$pair@QAXPAX@std@@@2@$0A@@std@@@1@@Z 004136b0 f i libohNetCore:Stack.obj
 0001:000126f0       ??D?$_Tree_iterator@V?$_Tree_val@V?$_Tmap_traits@PAXPAXU?$less@PAX@std@@V?$allocator@U?$pair@QAXPAX@std@@@2@$0A@@std@@@std@@@std@@QBEAAU?$pair@QAXPAX@1@XZ 004136f0 f i libohNetCore:Stack.obj
 0001:00012720       ??E?$_Tree_iterator@V?$_Tree_val@V?$_Tmap_traits@PAXPAXU?$less@PAX@std@@V?$allocator@U?$pair@QAXPAX@std@@@2@$0A@@std@@@std@@@std@@QAEAAV01@XZ 00413720 f i libohNetCore:Stack.obj
 0001:00012750       ??E?$_Tree_const_iterator@V?$_Tree_val@V?$_Tmap_traits@PAXPAXU?$less@PAX@std@@V?$allocator@U?$pair@QAXPAX@std@@@2@$0A@@std@@@std@@@std@@QAEAAV01@XZ 00413750 f i libohNetCore:Stack.obj
 0001:00012810       ??8?$_Tree_const_iterator@V?$_Tree_val@V?$_Tmap_traits@PAXPAXU?$less@PAX@std@@V?$allocator@U?$pair@QAXPAX@std@@@2@$0A@@std@@@std@@@std@@QBE_NABV01@@Z 00413810 f i libohNetCore:Stack.obj
 0001:000128d0       ?_Mynode@?$_Tree_unchecked_const_iterator@V?$_Tree_val@V?$_Tmap_traits@PAXPAXU?$less@PAX@std@@V?$allocator@U?$pair@QAXPAX@std@@@2@$0A@@std@@@std@@U_Iterator_base12@2@@std@@QBEPAU_Node@?$_Tree_nod@V?$_Tmap_traits@PAXPAXU?$less@PAX@std@@V?$allocator@U?$pair@QAXPAX@std@@@2@$0A@@std@@@2@XZ 004138d0 f i libohNetCore:Stack.obj
 0001:000128f0       ?erase@?$_Tree@V?$_Tmap_traits@PAXPAXU?$less@PAX@std@@V?$allocator@U?$pair@QAXPAX@std@@@2@$0A@@std@@@std@@QAE?AV?$_Tree_iterator@V?$_Tree_val@V?$_Tmap_traits@PAXPAXU?$less@PAX@std@@V?$allocator@U?$pair@QAXPAX@std@@@2@$0A@@std@@@std@@@2@V?$_Tree_const_iterator@V?$_Tree_val@V?$_Tmap_traits@PAXPAXU?$less@PAX@std@@V?$allocator@U?$pair@QAXPAX@std@@@2@$0A@@std@@@std@@@2@0@Z 004138f0 f i libohNetCore:Stack.obj
 0001:00012af0       ?_Lbound@?$_Tree@V?$_Tmap_traits@PAXPAXU?$less@PAX@std@@V?$allocator@U?$pair@QAXPAX@std@@@2@$0A@@std@@@std@@IAEPAU_Node@?$_Tree_nod@V?$_Tmap_traits@PAXPAXU?$less@PAX@std@@V?$allocator@U?$pair@QAXPAX@std@@@2@$0A@@std@@@2@ABQAX@Z 00413af0 f i libohNetCore:Stack.obj
 0001:00012ba0       ??0?$_Tree_val@V?$_Tmap_traits@PAXPAXU?$less@PAX@std@@V?$allocator@U?$pair@QAXPAX@std@@@2@$0A@@std@@@std@@QAE@ABU?$less@PAX@1@V?$allocator@U?$pair@QAXPAX@std@@@1@@Z 00413ba0 f i libohNetCore:Stack.obj
 0001:00012ca0       ??1?$_Tree_nod@V?$_Tmap_traits@PAXPAXU?$less@PAX@std@@V?$allocator@U?$pair@QAXPAX@std@@@2@$0A@@std@@@std@@QAE@XZ 00413ca0 f i libohNetCore:Stack.obj
 0001:00012d80       ??0?$allocator@U?$pair@QAXPAX@std@@@std@@QAE@ABV01@@Z 00413d80 f i libohNetCore:Stack.obj
 0001:00012da0       ?reserve@?$vector@PAVMListener@Stack@Net@OpenHome@@V?$allocator@PAVMListener@Stack@Net@OpenHome@@@std@@@std@@QAEXI@Z 00413da0 f i libohNetCore:Stack.obj
 0001:00012f10       ?capacity@?$vector@PAVMListener@Stack@Net@OpenHome@@V?$allocator@PAVMListener@Stack@Net@OpenHome@@@std@@@std@@QBEIXZ 00413f10 f i libohNetCore:Stack.obj
 0001:00012f40       ?max_size@?$vector@PAVMListener@Stack@Net@OpenHome@@V?$allocator@PAVMListener@Stack@Net@OpenHome@@@std@@@std@@QBEIXZ 00413f40 f i libohNetCore:Stack.obj
 0001:00012f70       ?_Grow_to@?$vector@PAVMListener@Stack@Net@OpenHome@@V?$allocator@PAVMListener@Stack@Net@OpenHome@@@std@@@std@@IBEII@Z 00413f70 f i libohNetCore:Stack.obj
 0001:00013000       ?_Xlen@?$vector@PAVMListener@Stack@Net@OpenHome@@V?$allocator@PAVMListener@Stack@Net@OpenHome@@@std@@@std@@IBEXXZ 00414000 f i libohNetCore:Stack.obj
 0001:00013030       ??0?$allocator@PAVMListener@Stack@Net@OpenHome@@@std@@QAE@ABV01@@Z 00414030 f i libohNetCore:Stack.obj
 0001:00013050       ?deallocate@?$allocator@PAVMListener@Stack@Net@OpenHome@@@std@@QAEXPAPAVMListener@Stack@Net@OpenHome@@I@Z 00414050 f i libohNetCore:Stack.obj
 0001:00013080       ?erase@?$_Tree@V?$_Tmap_traits@VBrn@OpenHome@@PAVObjectType@Stack@Net@2@VBufferCmp@2@V?$allocator@U?$pair@$$CBVBrn@OpenHome@@PAVObjectType@Stack@Net@2@@std@@@std@@$0A@@std@@@std@@QAE?AV?$_Tree_iterator@V?$_Tree_val@V?$_Tmap_traits@VBrn@OpenHome@@PAVObjectType@Stack@Net@2@VBufferCmp@2@V?$allocator@U?$pair@$$CBVBrn@OpenHome@@PAVObjectType@Stack@Net@2@@std@@@std@@$0A@@std@@@std@@@2@V?$_Tree_const_iterator@V?$_Tree_val@V?$_Tmap_traits@VBrn@OpenHome@@PAVObjectType@Stack@Net@2@VBufferCmp@2@V?$allocator@U?$pair@$$CBVBrn@OpenHome@@PAVObjectType@Stack@Net@2@@std@@@std@@$0A@@std@@@std@@@2@0@Z 00414080 f i libohNetCore:Stack.obj
 0001:00013280       ?_Lbound@?$_Tree@V?$_Tmap_traits@VBrn@OpenHome@@PAVObjectType@Stack@Net@2@VBufferCmp@2@V?$allocator@U?$pair@$$CBVBrn@OpenHome@@PAVObjectType@Stack@Net@2@@std@@@std@@$0A@@std@@@std@@IAEPAU_Node@?$_Tree_nod@V?$_Tmap_traits@VBrn@OpenHome@@PAVObjectType@Stack@Net@2@VBufferCmp@2@V?$allocator@U?$pair@$$CBVBrn@OpenHome@@PAVObjectType@Stack@Net@2@@std@@@std@@$0A@@std@@@2@ABVBrn@OpenHome@@@Z 00414280 f i libohNetCore:Stack.obj
 0001:00013330       ??0?$_Tree_val@V?$_Tmap_traits@VBrn@OpenHome@@PAVObjectType@Stack@Net@2@VBufferCmp@2@V?$allocator@U?$pair@$$CBVBrn@OpenHome@@PAVObjectType@Stack@Net@2@@std@@@std@@$0A@@std@@@std@@QAE@ABVBufferCmp@OpenHome@@V?$allocator@U?$pair@$$CBVBrn@OpenHome@@PAVObjectType@Stack@Net@2@@std@@@1@@Z 00414330 f i libohNetCore:Stack.obj
 0001:00013430       ??1?$_Tree_nod@V?$_Tmap_traits@VBrn@OpenHome@@PAVObjectType@Stack@Net@2@VBufferCmp@2@V?$allocator@U?$pair@$$CBVBrn@OpenHome@@PAVObjectType@Stack@Net@2@@std@@@std@@$0A@@std@@@std@@QAE@XZ 00414430 f i libohNetCore:Stack.obj
 0001:00013510       ??0?$allocator@U?$pair@$$CBVBrn@OpenHome@@PAVObjectType@Stack@Net@2@@std@@@std@@QAE@ABV01@@Z 00414510 f i libohNetCore:Stack.obj
 0001:00013530       ??0?$_Vector_const_iterator@V?$_Vector_val@PAVMListener@Stack@Net@OpenHome@@V?$allocator@PAVMListener@Stack@Net@OpenHome@@@std@@@std@@@std@@QAE@PAPAVMListener@Stack@Net@OpenHome@@PBU_Container_base12@1@@Z 00414530 f i libohNetCore:Stack.obj
 0001:000135b0       ??Y?$_Vector_const_iterator@V?$_Vector_val@PAVMListener@Stack@Net@OpenHome@@V?$allocator@PAVMListener@Stack@Net@OpenHome@@@std@@@std@@@std@@QAEAAV01@H@Z 004145b0 f i libohNetCore:Stack.obj
 0001:00013690       ??0?$_Tree_const_iterator@V?$_Tree_val@V?$_Tmap_traits@VBrn@OpenHome@@PAVObjectType@Stack@Net@2@VBufferCmp@2@V?$allocator@U?$pair@$$CBVBrn@OpenHome@@PAVObjectType@Stack@Net@2@@std@@@std@@$0A@@std@@@std@@@std@@QAE@PAU_Node@?$_Tree_nod@V?$_Tmap_traits@VBrn@OpenHome@@PAVObjectType@Stack@Net@2@VBufferCmp@2@V?$allocator@U?$pair@$$CBVBrn@OpenHome@@PAVObjectType@Stack@Net@2@@std@@@std@@$0A@@std@@@1@PBV?$_Tree_val@V?$_Tmap_traits@VBrn@OpenHome@@PAVObjectType@Stack@Net@2@VBufferCmp@2@V?$allocator@U?$pair@$$CBVBrn@OpenHome@@PAVObjectType@Stack@Net@2@@std@@@std@@$0A@@std@@@1@@Z 00414690 f i libohNetCore:Stack.obj
 0001:000136d0       ??D?$_Tree_const_iterator@V?$_Tree_val@V?$_Tmap_traits@VBrn@OpenHome@@PAVObjectType@Stack@Net@2@VBufferCmp@2@V?$allocator@U?$pair@$$CBVBrn@OpenHome@@PAVObjectType@Stack@Net@2@@std@@@std@@$0A@@std@@@std@@@std@@QBEABU?$pair@$$CBVBrn@OpenHome@@PAVObjectType@Stack@Net@2@@1@XZ 004146d0 f i libohNetCore:Stack.obj
 0001:00013790       ??E?$_Tree_unchecked_const_iterator@V?$_Tree_val@V?$_Tmap_traits@VBrn@OpenHome@@PAVObjectType@Stack@Net@2@VBufferCmp@2@V?$allocator@U?$pair@$$CBVBrn@OpenHome@@PAVObjectType@Stack@Net@2@@std@@@std@@$0A@@std@@@std@@U_Iterator_base12@2@@std@@QAEAAV01@XZ 00414790 f i libohNetCore:Stack.obj
 0001:00013850       ??0?$_Tree_const_iterator@V?$_Tree_val@V?$_Tmap_traits@PAXPAXU?$less@PAX@std@@V?$allocator@U?$pair@QAXPAX@std@@@2@$0A@@std@@@std@@@std@@QAE@PAU_Node@?$_Tree_nod@V?$_Tmap_traits@PAXPAXU?$less@PAX@std@@V?$allocator@U?$pair@QAXPAX@std@@@2@$0A@@std@@@1@PBV?$_Tree_val@V?$_Tmap_traits@PAXPAXU?$less@PAX@std@@V?$allocator@U?$pair@QAXPAX@std@@@2@$0A@@std@@@1@@Z 00414850 f i libohNetCore:Stack.obj
 0001:00013890       ??D?$_Tree_const_iterator@V?$_Tree_val@V?$_Tmap_traits@PAXPAXU?$less@PAX@std@@V?$allocator@U?$pair@QAXPAX@std@@@2@$0A@@std@@@std@@@std@@QBEABU?$pair@QAXPAX@1@XZ 00414890 f i libohNetCore:Stack.obj
 0001:00013950       ??E?$_Tree_unchecked_const_iterator@V?$_Tree_val@V?$_Tmap_traits@PAXPAXU?$less@PAX@std@@V?$allocator@U?$pair@QAXPAX@std@@@2@$0A@@std@@@std@@U_Iterator_base12@2@@std@@QAEAAV01@XZ 00414950 f i libohNetCore:Stack.obj
 0001:00013a10       ??1?$_Tmap_traits@PAXPAXU?$less@PAX@std@@V?$allocator@U?$pair@QAXPAX@std@@@2@$0A@@std@@QAE@XZ 00414a10 f i libohNetCore:Stack.obj
 0001:00013a40       ??1?$_Tmap_traits@VBrn@OpenHome@@PAVObjectType@Stack@Net@2@VBufferCmp@2@V?$allocator@U?$pair@$$CBVBrn@OpenHome@@PAVObjectType@Stack@Net@2@@std@@@std@@$0A@@std@@QAE@XZ 00414a40 f i libohNetCore:Stack.obj
 0001:00013a70       ??0?$_Iterator012@Urandom_access_iterator_tag@std@@PAVMListener@Stack@Net@OpenHome@@HPBQAV3456@ABQAV3456@U_Iterator_base12@2@@std@@QAE@XZ 00414a70 f i libohNetCore:Stack.obj
 0001:00013aa0       ?clear@?$_Tree@V?$_Tmap_traits@PAXPAXU?$less@PAX@std@@V?$allocator@U?$pair@QAXPAX@std@@@2@$0A@@std@@@std@@QAEXXZ 00414aa0 f i libohNetCore:Stack.obj
 0001:00013b20       ??0?$_Tree_nod@V?$_Tmap_traits@PAXPAXU?$less@PAX@std@@V?$allocator@U?$pair@QAXPAX@std@@@2@$0A@@std@@@std@@QAE@ABU?$less@PAX@1@V?$allocator@U?$pair@QAXPAX@std@@@1@@Z 00414b20 f i libohNetCore:Stack.obj
 0001:00013c30       ?allocate@?$allocator@U_Node@?$_Tree_nod@V?$_Tmap_traits@PAXPAXU?$less@PAX@std@@V?$allocator@U?$pair@QAXPAX@std@@@2@$0A@@std@@@std@@@std@@QAEPAU_Node@?$_Tree_nod@V?$_Tmap_traits@PAXPAXU?$less@PAX@std@@V?$allocator@U?$pair@QAXPAX@std@@@2@$0A@@std@@@2@I@Z 00414c30 f i libohNetCore:Stack.obj
 0001:00013c60       ?allocate@?$allocator@PAVMListener@Stack@Net@OpenHome@@@std@@QAEPAPAVMListener@Stack@Net@OpenHome@@I@Z 00414c60 f i libohNetCore:Stack.obj
 0001:00013c90       ?max_size@?$allocator@PAVMListener@Stack@Net@OpenHome@@@std@@QBEIXZ 00414c90 f i libohNetCore:Stack.obj
 0001:00013ce0       ?clear@?$_Tree@V?$_Tmap_traits@VBrn@OpenHome@@PAVObjectType@Stack@Net@2@VBufferCmp@2@V?$allocator@U?$pair@$$CBVBrn@OpenHome@@PAVObjectType@Stack@Net@2@@std@@@std@@$0A@@std@@@std@@QAEXXZ 00414ce0 f i libohNetCore:Stack.obj
 0001:00013d60       ??0?$_Tree_nod@V?$_Tmap_traits@VBrn@OpenHome@@PAVObjectType@Stack@Net@2@VBufferCmp@2@V?$allocator@U?$pair@$$CBVBrn@OpenHome@@PAVObjectType@Stack@Net@2@@std@@@std@@$0A@@std@@@std@@QAE@ABVBufferCmp@OpenHome@@V?$allocator@U?$pair@$$CBVBrn@OpenHome@@PAVObjectType@Stack@Net@2@@std@@@1@@Z 00414d60 f i libohNetCore:Stack.obj
 0001:00013e70       ?allocate@?$allocator@U_Node@?$_Tree_nod@V?$_Tmap_traits@VBrn@OpenHome@@PAVObjectType@Stack@Net@2@VBufferCmp@2@V?$allocator@U?$pair@$$CBVBrn@OpenHome@@PAVObjectType@Stack@Net@2@@std@@@std@@$0A@@std@@@std@@@std@@QAEPAU_Node@?$_Tree_nod@V?$_Tmap_traits@VBrn@OpenHome@@PAVObjectType@Stack@Net@2@VBufferCmp@2@V?$allocator@U?$pair@$$CBVBrn@OpenHome@@PAVObjectType@Stack@Net@2@@std@@@std@@$0A@@std@@@2@I@Z 00414e70 f i libohNetCore:Stack.obj
 0001:00013ea0       ??E?$_Tree_const_iterator@V?$_Tree_val@V?$_Tmap_traits@VBrn@OpenHome@@PAVObjectType@Stack@Net@2@VBufferCmp@2@V?$allocator@U?$pair@$$CBVBrn@OpenHome@@PAVObjectType@Stack@Net@2@@std@@@std@@$0A@@std@@@std@@@std@@QAE?AV01@H@Z 00414ea0 f i libohNetCore:Stack.obj
 0001:00013f70       ??0?$_Tree_unchecked_const_iterator@V?$_Tree_val@V?$_Tmap_traits@VBrn@OpenHome@@PAVObjectType@Stack@Net@2@VBufferCmp@2@V?$allocator@U?$pair@$$CBVBrn@OpenHome@@PAVObjectType@Stack@Net@2@@std@@@std@@$0A@@std@@@std@@U_Iterator_base12@2@@std@@QAE@PAU_Node@?$_Tree_nod@V?$_Tmap_traits@VBrn@OpenHome@@PAVObjectType@Stack@Net@2@VBufferCmp@2@V?$allocator@U?$pair@$$CBVBrn@OpenHome@@PAVObjectType@Stack@Net@2@@std@@@std@@$0A@@std@@@1@PBV?$_Tree_val@V?$_Tmap_traits@VBrn@OpenHome@@PAVObjectType@Stack@Net@2@VBufferCmp@2@V?$allocator@U?$pair@$$CBVBrn@OpenHome@@PAVObjectType@Stack@Net@2@@std@@@std@@$0A@@std@@@1@@Z 00414f70 f i libohNetCore:Stack.obj
 0001:00013ff0       ??E?$_Tree_const_iterator@V?$_Tree_val@V?$_Tmap_traits@PAXPAXU?$less@PAX@std@@V?$allocator@U?$pair@QAXPAX@std@@@2@$0A@@std@@@std@@@std@@QAE?AV01@H@Z 00414ff0 f i libohNetCore:Stack.obj
 0001:000140c0       ??0?$_Tree_unchecked_const_iterator@V?$_Tree_val@V?$_Tmap_traits@PAXPAXU?$less@PAX@std@@V?$allocator@U?$pair@QAXPAX@std@@@2@$0A@@std@@@std@@U_Iterator_base12@2@@std@@QAE@PAU_Node@?$_Tree_nod@V?$_Tmap_traits@PAXPAXU?$less@PAX@std@@V?$allocator@U?$pair@QAXPAX@std@@@2@$0A@@std@@@1@PBV?$_Tree_val@V?$_Tmap_traits@PAXPAXU?$less@PAX@std@@V?$allocator@U?$pair@QAXPAX@std@@@2@$0A@@std@@@1@@Z 004150c0 f i libohNetCore:Stack.obj
 0001:00014140       ??0?$_Iterator012@Ubidirectional_iterator_tag@std@@U?$pair@$$CBVBrn@OpenHome@@PAVObjectType@Stack@Net@2@@2@HPBU32@ABU32@U_Iterator_base12@2@@std@@QAE@XZ 00415140 f i libohNetCore:Stack.obj
 0001:00014170       ??0?$_Iterator012@Ubidirectional_iterator_tag@std@@U?$pair@QAXPAX@2@HPBU32@ABU32@U_Iterator_base12@2@@std@@QAE@XZ 00415170 f i libohNetCore:Stack.obj
 0001:000141a0       ?_Erase@?$_Tree@V?$_Tmap_traits@PAXPAXU?$less@PAX@std@@V?$allocator@U?$pair@QAXPAX@std@@@2@$0A@@std@@@std@@IAEXPAU_Node@?$_Tree_nod@V?$_Tmap_traits@PAXPAXU?$less@PAX@std@@V?$allocator@U?$pair@QAXPAX@std@@@2@$0A@@std@@@2@@Z 004151a0 f i libohNetCore:Stack.obj
 0001:00014240       ??0?$_Tmap_traits@PAXPAXU?$less@PAX@std@@V?$allocator@U?$pair@QAXPAX@std@@@2@$0A@@std@@QAE@U?$less@PAX@1@@Z 00415240 f i libohNetCore:Stack.obj
 0001:00014270       ?_Erase@?$_Tree@V?$_Tmap_traits@VBrn@OpenHome@@PAVObjectType@Stack@Net@2@VBufferCmp@2@V?$allocator@U?$pair@$$CBVBrn@OpenHome@@PAVObjectType@Stack@Net@2@@std@@@std@@$0A@@std@@@std@@IAEXPAU_Node@?$_Tree_nod@V?$_Tmap_traits@VBrn@OpenHome@@PAVObjectType@Stack@Net@2@VBufferCmp@2@V?$allocator@U?$pair@$$CBVBrn@OpenHome@@PAVObjectType@Stack@Net@2@@std@@@std@@$0A@@std@@@2@@Z 00415270 f i libohNetCore:Stack.obj
 0001:00014310       ??0?$_Tmap_traits@VBrn@OpenHome@@PAVObjectType@Stack@Net@2@VBufferCmp@2@V?$allocator@U?$pair@$$CBVBrn@OpenHome@@PAVObjectType@Stack@Net@2@@std@@@std@@$0A@@std@@QAE@VBufferCmp@OpenHome@@@Z 00415310 f i libohNetCore:Stack.obj
 0001:00014340       ??$?0AAVBrn@OpenHome@@AAPAVObjectType@Stack@Net@1@@?$pair@VBrn@OpenHome@@PAVObjectType@Stack@Net@2@@std@@QAE@AAVBrn@OpenHome@@AAPAVObjectType@Stack@Net@3@@Z 00415340 f i libohNetCore:Stack.obj
 0001:00014380       ??$insert@U?$pair@VBrn@OpenHome@@PAVObjectType@Stack@Net@2@@std@@@?$_Tree@V?$_Tmap_traits@VBrn@OpenHome@@PAVObjectType@Stack@Net@2@VBufferCmp@2@V?$allocator@U?$pair@$$CBVBrn@OpenHome@@PAVObjectType@Stack@Net@2@@std@@@std@@$0A@@std@@@std@@QAE?AU?$pair@V?$_Tree_iterator@V?$_Tree_val@V?$_Tmap_traits@VBrn@OpenHome@@PAVObjectType@Stack@Net@2@VBufferCmp@2@V?$allocator@U?$pair@$$CBVBrn@OpenHome@@PAVObjectType@Stack@Net@2@@std@@@std@@$0A@@std@@@std@@@std@@_N@1@$$QAU?$pair@VBrn@OpenHome@@PAVObjectType@Stack@Net@2@@1@@Z 00415380 f i libohNetCore:Stack.obj
 0001:000143e0       ??$?0AAPAXAAPAX@?$pair@PAXPAX@std@@QAE@AAPAX0@Z 004153e0 f i libohNetCore:Stack.obj
 0001:00014420       ??$insert@U?$pair@PAXPAX@std@@@?$_Tree@V?$_Tmap_traits@PAXPAXU?$less@PAX@std@@V?$allocator@U?$pair@QAXPAX@std@@@2@$0A@@std@@@std@@QAE?AU?$pair@V?$_Tree_iterator@V?$_Tree_val@V?$_Tmap_traits@PAXPAXU?$less@PAX@std@@V?$allocator@U?$pair@QAXPAX@std@@@2@$0A@@std@@@std@@@std@@_N@1@$$QAU?$pair@PAXPAX@1@@Z 00415420 f i libohNetCore:Stack.obj
 0001:00014480       ??$swap@D@std@@YGXAAD0@Z   00415480 f i libohNetCore:Stack.obj
 0001:00014510       ??$addressof@U?$pair@QAXPAX@std@@@std@@YGPAU?$pair@QAXPAX@0@AAU10@@Z 00415510 f i libohNetCore:Stack.obj
 0001:00014520       ??$_Dest_val@V?$allocator@U?$pair@QAXPAX@std@@@std@@U?$pair@QAXPAX@2@@std@@YGXAAV?$allocator@U?$pair@QAXPAX@std@@@0@PAU?$pair@QAXPAX@0@@Z 00415520 f i libohNetCore:Stack.obj
 0001:00014540       ??$_Debug_lt_pred@U?$less@PAX@std@@PAXPAX@std@@YG_NU?$less@PAX@0@ABQAXAAPAXPB_WI@Z 00415540 f i libohNetCore:Stack.obj
 0001:000145a0       ??$addressof@QAVMListener@Stack@Net@OpenHome@@@std@@YGPBQAVMListener@Stack@Net@OpenHome@@ABQAV1234@@Z 004155a0 f i libohNetCore:Stack.obj
 0001:000145b0       ??$_Cons_val@V?$allocator@PAVMListener@Stack@Net@OpenHome@@@std@@PAVMListener@Stack@Net@OpenHome@@AAPAV3456@@std@@YGXAAV?$allocator@PAVMListener@Stack@Net@OpenHome@@@0@PAPAVMListener@Stack@Net@OpenHome@@AAPAV2345@@Z 004155b0 f i libohNetCore:Stack.obj
 0001:000145e0       ??$_Cons_val@V?$allocator@PAVMListener@Stack@Net@OpenHome@@@std@@PAVMListener@Stack@Net@OpenHome@@ABQAV3456@@std@@YGXAAV?$allocator@PAVMListener@Stack@Net@OpenHome@@@0@PAPAVMListener@Stack@Net@OpenHome@@ABQAV2345@@Z 004155e0 f i libohNetCore:Stack.obj
 0001:00014610       ??$_Move@PAPAVMListener@Stack@Net@OpenHome@@PAPAV1234@@std@@YGPAPAVMListener@Stack@Net@OpenHome@@PAPAV1234@00@Z 00415610 f i libohNetCore:Stack.obj
 0001:00014660       ??$addressof@U?$pair@$$CBVBrn@OpenHome@@PAVObjectType@Stack@Net@2@@std@@@std@@YGPAU?$pair@$$CBVBrn@OpenHome@@PAVObjectType@Stack@Net@2@@0@AAU10@@Z 00415660 f i libohNetCore:Stack.obj
 0001:00014670       ??$_Dest_val@V?$allocator@U?$pair@$$CBVBrn@OpenHome@@PAVObjectType@Stack@Net@2@@std@@@std@@U?$pair@$$CBVBrn@OpenHome@@PAVObjectType@Stack@Net@2@@2@@std@@YGXAAV?$allocator@U?$pair@$$CBVBrn@OpenHome@@PAVObjectType@Stack@Net@2@@std@@@0@PAU?$pair@$$CBVBrn@OpenHome@@PAVObjectType@Stack@Net@2@@0@@Z 00415670 f i libohNetCore:Stack.obj
 0001:00014690       ??$_Debug_lt_pred@VBufferCmp@OpenHome@@VBrn@2@V32@@std@@YG_NVBufferCmp@OpenHome@@ABVBrn@2@AAV32@PB_WI@Z 00415690 f i libohNetCore:Stack.obj
 0001:000146f0       ??$_Kfn@QAXPAX@?$_Tmap_traits@PAXPAXU?$less@PAX@std@@V?$allocator@U?$pair@QAXPAX@std@@@2@$0A@@std@@SGABQAXABU?$pair@QAXPAX@1@@Z 004156f0 f i libohNetCore:Stack.obj
 0001:00014700       ??$_Destroy_range@V?$allocator@PAVMListener@Stack@Net@OpenHome@@@std@@@std@@YGXPAPAVMListener@Stack@Net@OpenHome@@0AAV?$allocator@PAVMListener@Stack@Net@OpenHome@@@0@@Z 00415700 f i libohNetCore:Stack.obj
 0001:00014750       ??$?0PAVMListener@Stack@Net@OpenHome@@@?$allocator@U_Container_proxy@std@@@std@@QAE@ABV?$allocator@PAVMListener@Stack@Net@OpenHome@@@1@@Z 00415750 f i libohNetCore:Stack.obj
 0001:00014770       ??$_Kfn@$$CBVBrn@OpenHome@@PAVObjectType@Stack@Net@2@@?$_Tmap_traits@VBrn@OpenHome@@PAVObjectType@Stack@Net@2@VBufferCmp@2@V?$allocator@U?$pair@$$CBVBrn@OpenHome@@PAVObjectType@Stack@Net@2@@std@@@std@@$0A@@std@@SGABVBrn@OpenHome@@ABU?$pair@$$CBVBrn@OpenHome@@PAVObjectType@Stack@Net@2@@1@@Z 00415770 f i libohNetCore:Stack.obj
 0001:00014780       ??$_Debug_lt_pred@U?$less@PAX@std@@PAXPAX@std@@YG_NU?$less@PAX@0@AAPAXABQAXPB_WI@Z 00415780 f i libohNetCore:Stack.obj
 0001:000147e0       ??$?0U_Node@?$_Tree_nod@V?$_Tmap_traits@PAXPAXU?$less@PAX@std@@V?$allocator@U?$pair@QAXPAX@std@@@2@$0A@@std@@@std@@@?$allocator@U_Container_proxy@std@@@std@@QAE@ABV?$allocator@U_Node@?$_Tree_nod@V?$_Tmap_traits@PAXPAXU?$less@PAX@std@@V?$allocator@U?$pair@QAXPAX@std@@@2@$0A@@std@@@std@@@1@@Z 004157e0 f i libohNetCore:Stack.obj
 0001:00014800       ??$_Umove@PAPAVMListener@Stack@Net@OpenHome@@@?$vector@PAVMListener@Stack@Net@OpenHome@@V?$allocator@PAVMListener@Stack@Net@OpenHome@@@std@@@std@@IAEPAPAVMListener@Stack@Net@OpenHome@@PAPAV2345@00@Z 00415800 f i libohNetCore:Stack.obj
 0001:00014840       ??$_Debug_lt_pred@VBufferCmp@OpenHome@@VBrn@2@V32@@std@@YG_NVBufferCmp@OpenHome@@AAVBrn@2@ABV32@PB_WI@Z 00415840 f i libohNetCore:Stack.obj
 0001:000148a0       ??$?0U_Node@?$_Tree_nod@V?$_Tmap_traits@VBrn@OpenHome@@PAVObjectType@Stack@Net@2@VBufferCmp@2@V?$allocator@U?$pair@$$CBVBrn@OpenHome@@PAVObjectType@Stack@Net@2@@std@@@std@@$0A@@std@@@std@@@?$allocator@U_Container_proxy@std@@@std@@QAE@ABV?$allocator@U_Node@?$_Tree_nod@V?$_Tmap_traits@VBrn@OpenHome@@PAVObjectType@Stack@Net@2@VBufferCmp@2@V?$allocator@U?$pair@$$CBVBrn@OpenHome@@PAVObjectType@Stack@Net@2@@std@@@std@@$0A@@std@@@std@@@1@@Z 004158a0 f i libohNetCore:Stack.obj
 0001:000148c0       ??$?0U?$pair@QAXPAX@std@@@?$allocator@U_Node@?$_Tree_nod@V?$_Tmap_traits@PAXPAXU?$less@PAX@std@@V?$allocator@U?$pair@QAXPAX@std@@@2@$0A@@std@@@std@@@std@@QAE@ABV?$allocator@U?$pair@QAXPAX@std@@@1@@Z 004158c0 f i libohNetCore:Stack.obj
 0001:000148e0       ??$_Allocate@U_Node@?$_Tree_nod@V?$_Tmap_traits@PAXPAXU?$less@PAX@std@@V?$allocator@U?$pair@QAXPAX@std@@@2@$0A@@std@@@std@@@std@@YGPAU_Node@?$_Tree_nod@V?$_Tmap_traits@PAXPAXU?$less@PAX@std@@V?$allocator@U?$pair@QAXPAX@std@@@2@$0A@@std@@@0@IPAU120@@Z 004158e0 f i libohNetCore:Stack.obj
 0001:00014960       ??$_Allocate@PAVMListener@Stack@Net@OpenHome@@@std@@YGPAPAVMListener@Stack@Net@OpenHome@@IPAPAV1234@@Z 00415960 f i libohNetCore:Stack.obj
 0001:000149e0       ??$?0U?$pair@$$CBVBrn@OpenHome@@PAVObjectType@Stack@Net@2@@std@@@?$allocator@U_Node@?$_Tree_nod@V?$_Tmap_traits@VBrn@OpenHome@@PAVObjectType@Stack@Net@2@VBufferCmp@2@V?$allocator@U?$pair@$$CBVBrn@OpenHome@@PAVObjectType@Stack@Net@2@@std@@@std@@$0A@@std@@@std@@@std@@QAE@ABV?$allocator@U?$pair@$$CBVBrn@OpenHome@@PAVObjectType@Stack@Net@2@@std@@@1@@Z 004159e0 f i libohNetCore:Stack.obj
 0001:00014a00       ??$_Allocate@U_Node@?$_Tree_nod@V?$_Tmap_traits@VBrn@OpenHome@@PAVObjectType@Stack@Net@2@VBufferCmp@2@V?$allocator@U?$pair@$$CBVBrn@OpenHome@@PAVObjectType@Stack@Net@2@@std@@@std@@$0A@@std@@@std@@@std@@YGPAU_Node@?$_Tree_nod@V?$_Tmap_traits@VBrn@OpenHome@@PAVObjectType@Stack@Net@2@VBufferCmp@2@V?$allocator@U?$pair@$$CBVBrn@OpenHome@@PAVObjectType@Stack@Net@2@@std@@@std@@$0A@@std@@@0@IPAU120@@Z 00415a00 f i libohNetCore:Stack.obj
 0001:00014a80       ?_Linsert@?$_Tree@V?$_Tmap_traits@PAXPAXU?$less@PAX@std@@V?$allocator@U?$pair@QAXPAX@std@@@2@$0A@@std@@@std@@QAE?AU?$pair@V?$_Tree_iterator@V?$_Tree_val@V?$_Tmap_traits@PAXPAXU?$less@PAX@std@@V?$allocator@U?$pair@QAXPAX@std@@@2@$0A@@std@@@std@@@std@@_N@2@PAU_Node@?$_Tree_nod@V?$_Tmap_traits@PAXPAXU?$less@PAX@std@@V?$allocator@U?$pair@QAXPAX@std@@@2@$0A@@std@@@2@_N@Z 00415a80 f i libohNetCore:Stack.obj
 0001:00014e60       ?destroy@?$allocator@U?$pair@QAXPAX@std@@@std@@QAEXPAU?$pair@QAXPAX@2@@Z 00415e60 f i libohNetCore:Stack.obj
 0001:00014e90       ??R?$less@PAX@std@@QBE_NABQAX0@Z 00415e90 f i libohNetCore:Stack.obj
 0001:00014ec0       ?construct@?$allocator@PAVMListener@Stack@Net@OpenHome@@@std@@QAEXPAPAVMListener@Stack@Net@OpenHome@@ABQAV3456@@Z 00415ec0 f i libohNetCore:Stack.obj
 0001:00014ef0       ?_Linsert@?$_Tree@V?$_Tmap_traits@VBrn@OpenHome@@PAVObjectType@Stack@Net@2@VBufferCmp@2@V?$allocator@U?$pair@$$CBVBrn@OpenHome@@PAVObjectType@Stack@Net@2@@std@@@std@@$0A@@std@@@std@@QAE?AU?$pair@V?$_Tree_iterator@V?$_Tree_val@V?$_Tmap_traits@VBrn@OpenHome@@PAVObjectType@Stack@Net@2@VBufferCmp@2@V?$allocator@U?$pair@$$CBVBrn@OpenHome@@PAVObjectType@Stack@Net@2@@std@@@std@@$0A@@std@@@std@@@std@@_N@2@PAU_Node@?$_Tree_nod@V?$_Tmap_traits@VBrn@OpenHome@@PAVObjectType@Stack@Net@2@VBufferCmp@2@V?$allocator@U?$pair@$$CBVBrn@OpenHome@@PAVObjectType@Stack@Net@2@@std@@@std@@$0A@@std@@@2@_N@Z 00415ef0 f i libohNetCore:Stack.obj
 0001:000152d0       ?destroy@?$allocator@U?$pair@$$CBVBrn@OpenHome@@PAVObjectType@Stack@Net@2@@std@@@std@@QAEXPAU?$pair@$$CBVBrn@OpenHome@@PAVObjectType@Stack@Net@2@@2@@Z 004162d0 f i libohNetCore:Stack.obj
 0001:00015300       ?_Insert@?$_Tree@V?$_Tmap_traits@PAXPAXU?$less@PAX@std@@V?$allocator@U?$pair@QAXPAX@std@@@2@$0A@@std@@@std@@IAE?AV?$_Tree_iterator@V?$_Tree_val@V?$_Tmap_traits@PAXPAXU?$less@PAX@std@@V?$allocator@U?$pair@QAXPAX@std@@@2@$0A@@std@@@std@@@2@_NPAU_Node@?$_Tree_nod@V?$_Tmap_traits@PAXPAXU?$less@PAX@std@@V?$allocator@U?$pair@QAXPAX@std@@@2@$0A@@std@@@2@1@Z 00416300 f i libohNetCore:Stack.obj
 0001:000156c0       ?_Insert@?$_Tree@V?$_Tmap_traits@VBrn@OpenHome@@PAVObjectType@Stack@Net@2@VBufferCmp@2@V?$allocator@U?$pair@$$CBVBrn@OpenHome@@PAVObjectType@Stack@Net@2@@std@@@std@@$0A@@std@@@std@@IAE?AV?$_Tree_iterator@V?$_Tree_val@V?$_Tmap_traits@VBrn@OpenHome@@PAVObjectType@Stack@Net@2@VBufferCmp@2@V?$allocator@U?$pair@$$CBVBrn@OpenHome@@PAVObjectType@Stack@Net@2@@std@@@std@@$0A@@std@@@std@@@2@_NPAU_Node@?$_Tree_nod@V?$_Tmap_traits@VBrn@OpenHome@@PAVObjectType@Stack@Net@2@VBufferCmp@2@V?$allocator@U?$pair@$$CBVBrn@OpenHome@@PAVObjectType@Stack@Net@2@@std@@@std@@$0A@@std@@@2@1@Z 004166c0 f i libohNetCore:Stack.obj
 0001:00015a80       ??F?$_Tree_iterator@V?$_Tree_val@V?$_Tmap_traits@VBrn@OpenHome@@PAVObjectType@Stack@Net@2@VBufferCmp@2@V?$allocator@U?$pair@$$CBVBrn@OpenHome@@PAVObjectType@Stack@Net@2@@std@@@std@@$0A@@std@@@std@@@std@@QAEAAV01@XZ 00416a80 f i libohNetCore:Stack.obj
 0001:00015ab0       ??0?$pair@V?$_Tree_iterator@V?$_Tree_val@V?$_Tmap_traits@VBrn@OpenHome@@PAVObjectType@Stack@Net@2@VBufferCmp@2@V?$allocator@U?$pair@$$CBVBrn@OpenHome@@PAVObjectType@Stack@Net@2@@std@@@std@@$0A@@std@@@std@@@std@@_N@std@@QAE@$$QAV?$_Tree_iterator@V?$_Tree_val@V?$_Tmap_traits@VBrn@OpenHome@@PAVObjectType@Stack@Net@2@VBufferCmp@2@V?$allocator@U?$pair@$$CBVBrn@OpenHome@@PAVObjectType@Stack@Net@2@@std@@@std@@$0A@@std@@@std@@@1@$$QA_N@Z 00416ab0 f i libohNetCore:Stack.obj
 0001:00015af0       ??0?$pair@V?$_Tree_iterator@V?$_Tree_val@V?$_Tmap_traits@PAXPAXU?$less@PAX@std@@V?$allocator@U?$pair@QAXPAX@std@@@2@$0A@@std@@@std@@@std@@_N@std@@QAE@$$QAV?$_Tree_iterator@V?$_Tree_val@V?$_Tmap_traits@PAXPAXU?$less@PAX@std@@V?$allocator@U?$pair@QAXPAX@std@@@2@$0A@@std@@@std@@@1@$$QA_N@Z 00416af0 f i libohNetCore:Stack.obj
 0001:00015b30       ??F?$_Tree_iterator@V?$_Tree_val@V?$_Tmap_traits@PAXPAXU?$less@PAX@std@@V?$allocator@U?$pair@QAXPAX@std@@@2@$0A@@std@@@std@@@std@@QAEAAV01@XZ 00416b30 f i libohNetCore:Stack.obj
 0001:00015b60       ?max_size@?$_Tree@V?$_Tmap_traits@PAXPAXU?$less@PAX@std@@V?$allocator@U?$pair@QAXPAX@std@@@2@$0A@@std@@@std@@QBEIXZ 00416b60 f i libohNetCore:Stack.obj
 0001:00015b90       ?max_size@?$_Tree@V?$_Tmap_traits@VBrn@OpenHome@@PAVObjectType@Stack@Net@2@VBufferCmp@2@V?$allocator@U?$pair@$$CBVBrn@OpenHome@@PAVObjectType@Stack@Net@2@@std@@@std@@$0A@@std@@@std@@QBEIXZ 00416b90 f i libohNetCore:Stack.obj
 0001:00015bc0       ??F?$_Tree_const_iterator@V?$_Tree_val@V?$_Tmap_traits@VBrn@OpenHome@@PAVObjectType@Stack@Net@2@VBufferCmp@2@V?$allocator@U?$pair@$$CBVBrn@OpenHome@@PAVObjectType@Stack@Net@2@@std@@@std@@$0A@@std@@@std@@@std@@QAEAAV01@XZ 00416bc0 f i libohNetCore:Stack.obj
 0001:00015ce0       ??0?$_Pair_base@V?$_Tree_iterator@V?$_Tree_val@V?$_Tmap_traits@VBrn@OpenHome@@PAVObjectType@Stack@Net@2@VBufferCmp@2@V?$allocator@U?$pair@$$CBVBrn@OpenHome@@PAVObjectType@Stack@Net@2@@std@@@std@@$0A@@std@@@std@@@std@@_N@std@@QAE@$$QAV?$_Tree_iterator@V?$_Tree_val@V?$_Tmap_traits@VBrn@OpenHome@@PAVObjectType@Stack@Net@2@VBufferCmp@2@V?$allocator@U?$pair@$$CBVBrn@OpenHome@@PAVObjectType@Stack@Net@2@@std@@@std@@$0A@@std@@@std@@@1@$$QA_N@Z 00416ce0 f i libohNetCore:Stack.obj
 0001:00015d60       ??0?$_Pair_base@V?$_Tree_iterator@V?$_Tree_val@V?$_Tmap_traits@PAXPAXU?$less@PAX@std@@V?$allocator@U?$pair@QAXPAX@std@@@2@$0A@@std@@@std@@@std@@_N@std@@QAE@$$QAV?$_Tree_iterator@V?$_Tree_val@V?$_Tmap_traits@PAXPAXU?$less@PAX@std@@V?$allocator@U?$pair@QAXPAX@std@@@2@$0A@@std@@@std@@@1@$$QA_N@Z 00416d60 f i libohNetCore:Stack.obj
 0001:00015de0       ??F?$_Tree_const_iterator@V?$_Tree_val@V?$_Tmap_traits@PAXPAXU?$less@PAX@std@@V?$allocator@U?$pair@QAXPAX@std@@@2@$0A@@std@@@std@@@std@@QAEAAV01@XZ 00416de0 f i libohNetCore:Stack.obj
 0001:00015f00       ?max_size@?$allocator@U?$pair@QAXPAX@std@@@std@@QBEIXZ 00416f00 f i libohNetCore:Stack.obj
 0001:00015f50       ?max_size@?$allocator@U?$pair@$$CBVBrn@OpenHome@@PAVObjectType@Stack@Net@2@@std@@@std@@QBEIXZ 00416f50 f i libohNetCore:Stack.obj
 0001:00015fa0       ??F?$_Tree_unchecked_const_iterator@V?$_Tree_val@V?$_Tmap_traits@VBrn@OpenHome@@PAVObjectType@Stack@Net@2@VBufferCmp@2@V?$allocator@U?$pair@$$CBVBrn@OpenHome@@PAVObjectType@Stack@Net@2@@std@@@std@@$0A@@std@@@std@@U_Iterator_base12@2@@std@@QAEAAV01@XZ 00416fa0 f i libohNetCore:Stack.obj
 0001:00016090       ??F?$_Tree_unchecked_const_iterator@V?$_Tree_val@V?$_Tmap_traits@PAXPAXU?$less@PAX@std@@V?$allocator@U?$pair@QAXPAX@std@@@2@$0A@@std@@@std@@U_Iterator_base12@2@@std@@QAEAAV01@XZ 00417090 f i libohNetCore:Stack.obj
 0001:00016180       ??$forward@AAVBrn@OpenHome@@@std@@YGAAVBrn@OpenHome@@AAV12@@Z 00417180 f i libohNetCore:Stack.obj
 0001:00016190       ??$forward@AAPAVObjectType@Stack@Net@OpenHome@@@std@@YGAAPAVObjectType@Stack@Net@OpenHome@@AAPAV1234@@Z 00417190 f i libohNetCore:Stack.obj
 0001:000161a0       ??$?0AAVBrn@OpenHome@@AAPAVObjectType@Stack@Net@1@@?$_Pair_base@VBrn@OpenHome@@PAVObjectType@Stack@Net@2@@std@@QAE@AAVBrn@OpenHome@@AAPAVObjectType@Stack@Net@3@@Z 004171a0 f i libohNetCore:Stack.obj
 0001:00016220       ??0Brn@OpenHome@@QAE@ABV01@@Z 00417220 f i libohNetCore:Stack.obj
 0001:000162b0       ??0Brx@OpenHome@@IAE@ABV01@@Z 004172b0 f i libohNetCore:Stack.obj
 0001:000162f0       ??$forward@U?$pair@VBrn@OpenHome@@PAVObjectType@Stack@Net@2@@std@@@std@@YG$$QAU?$pair@VBrn@OpenHome@@PAVObjectType@Stack@Net@2@@0@AAU10@@Z 004172f0 f i libohNetCore:Stack.obj
 0001:00016300       ??$_Buynode@U?$pair@VBrn@OpenHome@@PAVObjectType@Stack@Net@2@@std@@@?$_Tree_val@V?$_Tmap_traits@VBrn@OpenHome@@PAVObjectType@Stack@Net@2@VBufferCmp@2@V?$allocator@U?$pair@$$CBVBrn@OpenHome@@PAVObjectType@Stack@Net@2@@std@@@std@@$0A@@std@@@std@@QAEPAU_Node@?$_Tree_nod@V?$_Tmap_traits@VBrn@OpenHome@@PAVObjectType@Stack@Net@2@VBufferCmp@2@V?$allocator@U?$pair@$$CBVBrn@OpenHome@@PAVObjectType@Stack@Net@2@@std@@@std@@$0A@@std@@@1@$$QAU?$pair@VBrn@OpenHome@@PAVObjectType@Stack@Net@2@@1@@Z 00417300 f i libohNetCore:Stack.obj
 0001:000163e0       ??$forward@AAPAX@std@@YGAAPAXAAPAX@Z 004173e0 f i libohNetCore:Stack.obj
 0001:000163f0       ??$?0AAPAXAAPAX@?$_Pair_base@PAXPAX@std@@QAE@AAPAX0@Z 004173f0 f i libohNetCore:Stack.obj
 0001:00016440       ??$forward@U?$pair@PAXPAX@std@@@std@@YG$$QAU?$pair@PAXPAX@0@AAU10@@Z 00417440 f i libohNetCore:Stack.obj
 0001:00016450       ??$_Buynode@U?$pair@PAXPAX@std@@@?$_Tree_val@V?$_Tmap_traits@PAXPAXU?$less@PAX@std@@V?$allocator@U?$pair@QAXPAX@std@@@2@$0A@@std@@@std@@QAEPAU_Node@?$_Tree_nod@V?$_Tmap_traits@PAXPAXU?$less@PAX@std@@V?$allocator@U?$pair@QAXPAX@std@@@2@$0A@@std@@@1@$$QAU?$pair@PAXPAX@1@@Z 00417450 f i libohNetCore:Stack.obj
 0001:00016530       ??$_Move@AAD@std@@YG$$QADAAD@Z 00417530 f i libohNetCore:Stack.obj
 0001:00016540       ??$forward@AAPAVMListener@Stack@Net@OpenHome@@@std@@YGAAPAVMListener@Stack@Net@OpenHome@@AAPAV1234@@Z 00417540 f i libohNetCore:Stack.obj
 0001:00016550       ??$construct@AAPAVMListener@Stack@Net@OpenHome@@@?$allocator@PAVMListener@Stack@Net@OpenHome@@@std@@QAEXPAPAVMListener@Stack@Net@OpenHome@@AAPAV2345@@Z 00417550 f i libohNetCore:Stack.obj
 0001:000165f0       ??$forward@ABQAVMListener@Stack@Net@OpenHome@@@std@@YGABQAVMListener@Stack@Net@OpenHome@@ABQAV1234@@Z 004175f0 f i libohNetCore:Stack.obj
 0001:00016600       ??$_Ptr_cat@PAVMListener@Stack@Net@OpenHome@@PAV1234@@std@@YG?AU_Scalar_ptr_iterator_tag@0@PAPAVMListener@Stack@Net@OpenHome@@0@Z 00417600 f i libohNetCore:Stack.obj
 0001:00016660       ??$_Move@PAPAVMListener@Stack@Net@OpenHome@@PAPAV1234@@std@@YGPAPAVMListener@Stack@Net@OpenHome@@PAPAV1234@00U_Scalar_ptr_iterator_tag@0@@Z 00417660 f i libohNetCore:Stack.obj
 0001:000166b0       ??$_Destroy_range@V?$allocator@PAVMListener@Stack@Net@OpenHome@@@std@@@std@@YGXPAPAVMListener@Stack@Net@OpenHome@@0AAV?$allocator@PAVMListener@Stack@Net@OpenHome@@@0@U_Scalar_ptr_iterator_tag@0@@Z 004176b0 f i libohNetCore:Stack.obj
 0001:000166c0       ??$_Uninitialized_move@PAPAVMListener@Stack@Net@OpenHome@@PAPAV1234@V?$allocator@PAVMListener@Stack@Net@OpenHome@@@std@@@std@@YGPAPAVMListener@Stack@Net@OpenHome@@PAPAV1234@00AAV?$allocator@PAVMListener@Stack@Net@OpenHome@@@0@@Z 004176c0 f i libohNetCore:Stack.obj
 0001:00016710       ??$?0AAV?$_Tree_iterator@V?$_Tree_val@V?$_Tmap_traits@PAXPAXU?$less@PAX@std@@V?$allocator@U?$pair@QAXPAX@std@@@2@$0A@@std@@@std@@@std@@_N@?$pair@V?$_Tree_iterator@V?$_Tree_val@V?$_Tmap_traits@PAXPAXU?$less@PAX@std@@V?$allocator@U?$pair@QAXPAX@std@@@2@$0A@@std@@@std@@@std@@_N@std@@QAE@AAV?$_Tree_iterator@V?$_Tree_val@V?$_Tmap_traits@PAXPAXU?$less@PAX@std@@V?$allocator@U?$pair@QAXPAX@std@@@2@$0A@@std@@@std@@@1@$$QA_N@Z 00417710 f i libohNetCore:Stack.obj
 0001:00016750       ??$_Destroy@U?$pair@QAXPAX@std@@@std@@YGXPAU?$pair@QAXPAX@0@@Z 00417750 f i libohNetCore:Stack.obj
 0001:00016760       ??$_Construct@PAVMListener@Stack@Net@OpenHome@@ABQAV1234@@std@@YGXPAPAVMListener@Stack@Net@OpenHome@@ABQAV1234@@Z 00417760 f i libohNetCore:Stack.obj
 0001:00016810       ??$?0AAV?$_Tree_iterator@V?$_Tree_val@V?$_Tmap_traits@VBrn@OpenHome@@PAVObjectType@Stack@Net@2@VBufferCmp@2@V?$allocator@U?$pair@$$CBVBrn@OpenHome@@PAVObjectType@Stack@Net@2@@std@@@std@@$0A@@std@@@std@@@std@@_N@?$pair@V?$_Tree_iterator@V?$_Tree_val@V?$_Tmap_traits@VBrn@OpenHome@@PAVObjectType@Stack@Net@2@VBufferCmp@2@V?$allocator@U?$pair@$$CBVBrn@OpenHome@@PAVObjectType@Stack@Net@2@@std@@@std@@$0A@@std@@@std@@@std@@_N@std@@QAE@AAV?$_Tree_iterator@V?$_Tree_val@V?$_Tmap_traits@VBrn@OpenHome@@PAVObjectType@Stack@Net@2@VBufferCmp@2@V?$allocator@U?$pair@$$CBVBrn@OpenHome@@PAVObjectType@Stack@Net@2@@std@@@std@@$0A@@std@@@std@@@1@$$QA_N@Z 00417810 f i libohNetCore:Stack.obj
 0001:00016850       ??$_Destroy@U?$pair@$$CBVBrn@OpenHome@@PAVObjectType@Stack@Net@2@@std@@@std@@YGXPAU?$pair@$$CBVBrn@OpenHome@@PAVObjectType@Stack@Net@2@@0@@Z 00417850 f i libohNetCore:Stack.obj
 0001:00016870       ??$move@AAV?$_Tree_iterator@V?$_Tree_val@V?$_Tmap_traits@VBrn@OpenHome@@PAVObjectType@Stack@Net@2@VBufferCmp@2@V?$allocator@U?$pair@$$CBVBrn@OpenHome@@PAVObjectType@Stack@Net@2@@std@@@std@@$0A@@std@@@std@@@std@@@std@@YG$$QAV?$_Tree_iterator@V?$_Tree_val@V?$_Tmap_traits@VBrn@OpenHome@@PAVObjectType@Stack@Net@2@VBufferCmp@2@V?$allocator@U?$pair@$$CBVBrn@OpenHome@@PAVObjectType@Stack@Net@2@@std@@@std@@$0A@@std@@@std@@@0@AAV10@@Z 00417870 f i libohNetCore:Stack.obj
 0001:00016880       ??$move@AA_N@std@@YG$$QA_NAA_N@Z 00417880 f i libohNetCore:Stack.obj
 0001:00016890       ??$move@AAV?$_Tree_iterator@V?$_Tree_val@V?$_Tmap_traits@PAXPAXU?$less@PAX@std@@V?$allocator@U?$pair@QAXPAX@std@@@2@$0A@@std@@@std@@@std@@@std@@YG$$QAV?$_Tree_iterator@V?$_Tree_val@V?$_Tmap_traits@PAXPAXU?$less@PAX@std@@V?$allocator@U?$pair@QAXPAX@std@@@2@$0A@@std@@@std@@@0@AAV10@@Z 00417890 f i libohNetCore:Stack.obj
 0001:000168a0       ??_G?$pair@$$CBVBrn@OpenHome@@PAVObjectType@Stack@Net@2@@std@@QAEPAXI@Z 004178a0 f i libohNetCore:Stack.obj
 0001:000168e0       ??1?$pair@$$CBVBrn@OpenHome@@PAVObjectType@Stack@Net@2@@std@@QAE@XZ 004178e0 f i libohNetCore:Stack.obj
 0001:00016910       ??1?$_Pair_base@$$CBVBrn@OpenHome@@PAVObjectType@Stack@Net@2@@std@@QAE@XZ 00417910 f i libohNetCore:Stack.obj
 0001:00016940       ?_Buynode@?$_Tree_val@V?$_Tmap_traits@PAXPAXU?$less@PAX@std@@V?$allocator@U?$pair@QAXPAX@std@@@2@$0A@@std@@@std@@QAEPAU_Node@?$_Tree_nod@V?$_Tmap_traits@PAXPAXU?$less@PAX@std@@V?$allocator@U?$pair@QAXPAX@std@@@2@$0A@@std@@@2@XZ 00417940 f i libohNetCore:Stack.obj
 0001:000169d0       ?_Buynode@?$_Tree_val@V?$_Tmap_traits@VBrn@OpenHome@@PAVObjectType@Stack@Net@2@VBufferCmp@2@V?$allocator@U?$pair@$$CBVBrn@OpenHome@@PAVObjectType@Stack@Net@2@@std@@@std@@$0A@@std@@@std@@QAEPAU_Node@?$_Tree_nod@V?$_Tmap_traits@VBrn@OpenHome@@PAVObjectType@Stack@Net@2@VBufferCmp@2@V?$allocator@U?$pair@$$CBVBrn@OpenHome@@PAVObjectType@Stack@Net@2@@std@@@std@@$0A@@std@@@2@XZ 004179d0 f i libohNetCore:Stack.obj
 0001:00016a60       ??$_Cons_val@V?$allocator@U?$pair@$$CBVBrn@OpenHome@@PAVObjectType@Stack@Net@2@@std@@@std@@U?$pair@$$CBVBrn@OpenHome@@PAVObjectType@Stack@Net@2@@2@U?$pair@VBrn@OpenHome@@PAVObjectType@Stack@Net@2@@2@@std@@YGXAAV?$allocator@U?$pair@$$CBVBrn@OpenHome@@PAVObjectType@Stack@Net@2@@std@@@0@PAU?$pair@$$CBVBrn@OpenHome@@PAVObjectType@Stack@Net@2@@0@$$QAU?$pair@VBrn@OpenHome@@PAVObjectType@Stack@Net@2@@0@@Z 00417a60 f i libohNetCore:Stack.obj
 0001:00016a90       ??$_Cons_val@V?$allocator@U?$pair@QAXPAX@std@@@std@@U?$pair@QAXPAX@2@U?$pair@PAXPAX@2@@std@@YGXAAV?$allocator@U?$pair@QAXPAX@std@@@0@PAU?$pair@QAXPAX@0@$$QAU?$pair@PAXPAX@0@@Z 00417a90 f i libohNetCore:Stack.obj
 0001:00016ac0       ??$_Val_type@PAPAVMListener@Stack@Net@OpenHome@@@std@@YGPAPAVMListener@Stack@Net@OpenHome@@PAPAV1234@@Z 00417ac0 f i libohNetCore:Stack.obj
 0001:00016ad0       ??$_Uninit_move@PAVMListener@Stack@Net@OpenHome@@PAV1234@PAV1234@@std@@YGPAPAVMListener@Stack@Net@OpenHome@@PAPAV1234@00AAV?$allocator@PAVMListener@Stack@Net@OpenHome@@@0@0U_Scalar_ptr_iterator_tag@0@@Z 00417ad0 f i libohNetCore:Stack.obj
 0001:00016b40       ??$forward@AAV?$_Tree_iterator@V?$_Tree_val@V?$_Tmap_traits@PAXPAXU?$less@PAX@std@@V?$allocator@U?$pair@QAXPAX@std@@@2@$0A@@std@@@std@@@std@@@std@@YGAAV?$_Tree_iterator@V?$_Tree_val@V?$_Tmap_traits@PAXPAXU?$less@PAX@std@@V?$allocator@U?$pair@QAXPAX@std@@@2@$0A@@std@@@std@@@0@AAV10@@Z 00417b40 f i libohNetCore:Stack.obj
 0001:00016b50       ??$forward@_N@std@@YG$$QA_NAA_N@Z 00417b50 f i libohNetCore:Stack.obj
 0001:00016b60       ??$?0AAV?$_Tree_iterator@V?$_Tree_val@V?$_Tmap_traits@PAXPAXU?$less@PAX@std@@V?$allocator@U?$pair@QAXPAX@std@@@2@$0A@@std@@@std@@@std@@_N@?$_Pair_base@V?$_Tree_iterator@V?$_Tree_val@V?$_Tmap_traits@PAXPAXU?$less@PAX@std@@V?$allocator@U?$pair@QAXPAX@std@@@2@$0A@@std@@@std@@@std@@_N@std@@QAE@AAV?$_Tree_iterator@V?$_Tree_val@V?$_Tmap_traits@PAXPAXU?$less@PAX@std@@V?$allocator@U?$pair@QAXPAX@std@@@2@$0A@@std@@@std@@@1@$$QA_N@Z 00417b60 f i libohNetCore:Stack.obj
 0001:00016be0       ??$forward@AAV?$_Tree_iterator@V?$_Tree_val@V?$_Tmap_traits@VBrn@OpenHome@@PAVObjectType@Stack@Net@2@VBufferCmp@2@V?$allocator@U?$pair@$$CBVBrn@OpenHome@@PAVObjectType@Stack@Net@2@@std@@@std@@$0A@@std@@@std@@@std@@@std@@YGAAV?$_Tree_iterator@V?$_Tree_val@V?$_Tmap_traits@VBrn@OpenHome@@PAVObjectType@Stack@Net@2@VBufferCmp@2@V?$allocator@U?$pair@$$CBVBrn@OpenHome@@PAVObjectType@Stack@Net@2@@std@@@std@@$0A@@std@@@std@@@0@AAV10@@Z 00417be0 f i libohNetCore:Stack.obj
 0001:00016bf0       ??$?0AAV?$_Tree_iterator@V?$_Tree_val@V?$_Tmap_traits@VBrn@OpenHome@@PAVObjectType@Stack@Net@2@VBufferCmp@2@V?$allocator@U?$pair@$$CBVBrn@OpenHome@@PAVObjectType@Stack@Net@2@@std@@@std@@$0A@@std@@@std@@@std@@_N@?$_Pair_base@V?$_Tree_iterator@V?$_Tree_val@V?$_Tmap_traits@VBrn@OpenHome@@PAVObjectType@Stack@Net@2@VBufferCmp@2@V?$allocator@U?$pair@$$CBVBrn@OpenHome@@PAVObjectType@Stack@Net@2@@std@@@std@@$0A@@std@@@std@@@std@@_N@std@@QAE@AAV?$_Tree_iterator@V?$_Tree_val@V?$_Tmap_traits@VBrn@OpenHome@@PAVObjectType@Stack@Net@2@VBufferCmp@2@V?$allocator@U?$pair@$$CBVBrn@OpenHome@@PAVObjectType@Stack@Net@2@@std@@@std@@$0A@@std@@@std@@@1@$$QA_N@Z 00417bf0 f i libohNetCore:Stack.obj
 0001:00016c70       ??$construct@U?$pair@VBrn@OpenHome@@PAVObjectType@Stack@Net@2@@std@@@?$allocator@U?$pair@$$CBVBrn@OpenHome@@PAVObjectType@Stack@Net@2@@std@@@std@@QAEXPAU?$pair@$$CBVBrn@OpenHome@@PAVObjectType@Stack@Net@2@@1@$$QAU?$pair@VBrn@OpenHome@@PAVObjectType@Stack@Net@2@@1@@Z 00417c70 f i libohNetCore:Stack.obj
 0001:00016d10       ??$construct@U?$pair@PAXPAX@std@@@?$allocator@U?$pair@QAXPAX@std@@@std@@QAEXPAU?$pair@QAXPAX@1@$$QAU?$pair@PAXPAX@1@@Z 00417d10 f i libohNetCore:Stack.obj
 0001:00016db0       ??$_Debug_range@PAPAVMListener@Stack@Net@OpenHome@@@std@@YGXPAPAVMListener@Stack@Net@OpenHome@@0PB_WI@Z 00417db0 f i libohNetCore:Stack.obj
 0001:00016e00       ??$_Debug_pointer@PAVMListener@Stack@Net@OpenHome@@@std@@YGXPAPAVMListener@Stack@Net@OpenHome@@PB_WI@Z 00417e00 f i libohNetCore:Stack.obj
 0001:00016e30       ??$?0VBrn@OpenHome@@PAVObjectType@Stack@Net@1@@?$pair@$$CBVBrn@OpenHome@@PAVObjectType@Stack@Net@2@@std@@QAE@$$QAU?$pair@VBrn@OpenHome@@PAVObjectType@Stack@Net@2@@1@@Z 00417e30 f i libohNetCore:Stack.obj
 0001:00016e70       ??$?0PAXPAX@?$pair@QAXPAX@std@@QAE@$$QAU?$pair@PAXPAX@1@@Z 00417e70 f i libohNetCore:Stack.obj
 0001:00016eb0       ??$_Iter_cat@PAPAVMListener@Stack@Net@OpenHome@@@std@@YG?AUrandom_access_iterator_tag@0@ABQAPAVMListener@Stack@Net@OpenHome@@@Z 00417eb0 f i libohNetCore:Stack.obj
 0001:00016f10       ??$_Debug_range2@PAPAVMListener@Stack@Net@OpenHome@@@std@@YGXPAPAVMListener@Stack@Net@OpenHome@@0PB_WIUrandom_access_iterator_tag@0@@Z 00417f10 f i libohNetCore:Stack.obj
 0001:00016f70       ??$forward@VBrn@OpenHome@@@std@@YG$$QAVBrn@OpenHome@@AAV12@@Z 00417f70 f i libohNetCore:Stack.obj
 0001:00016f80       ??$forward@PAVObjectType@Stack@Net@OpenHome@@@std@@YG$$QAPAVObjectType@Stack@Net@OpenHome@@AAPAV1234@@Z 00417f80 f i libohNetCore:Stack.obj
 0001:00016f90       ??$?0VBrn@OpenHome@@PAVObjectType@Stack@Net@1@@?$_Pair_base@$$CBVBrn@OpenHome@@PAVObjectType@Stack@Net@2@@std@@QAE@$$QAVBrn@OpenHome@@$$QAPAVObjectType@Stack@Net@3@@Z 00417f90 f i libohNetCore:Stack.obj
 0001:00017010       ??$forward@PAX@std@@YG$$QAPAXAAPAX@Z 00418010 f i libohNetCore:Stack.obj
 0001:00017020       ??$?0PAXPAX@?$_Pair_base@QAXPAX@std@@QAE@$$QAPAX0@Z 00418020 f i libohNetCore:Stack.obj
 0001:00017070       ??0NetworkAdapter@OpenHome@@QAE@IIPBD@Z 00418070 f   libohNetCore:OhNet.obj
 0001:00017110       ??1NetworkAdapter@OpenHome@@AAE@XZ 00418110 f   libohNetCore:OhNet.obj
 0001:00017180       ?AddRef@NetworkAdapter@OpenHome@@QAEXXZ 00418180 f   libohNetCore:OhNet.obj
 0001:000171d0       ?RemoveRef@NetworkAdapter@OpenHome@@QAEXXZ 004181d0 f   libohNetCore:OhNet.obj
 0001:00017260       ?Address@NetworkAdapter@OpenHome@@QBEIXZ 00418260 f   libohNetCore:OhNet.obj
 0001:00017280       ?Subnet@NetworkAdapter@OpenHome@@QBEIXZ 00418280 f   libohNetCore:OhNet.obj
 0001:000172a0       ?Mask@NetworkAdapter@OpenHome@@QBEIXZ 004182a0 f   libohNetCore:OhNet.obj
 0001:000172c0       ?ContainsAddress@NetworkAdapter@OpenHome@@QAE_NI@Z 004182c0 f   libohNetCore:OhNet.obj
 0001:00017300       ?Name@NetworkAdapter@OpenHome@@QBEPBDXZ 00418300 f   libohNetCore:OhNet.obj
 0001:00017340       ?FullName@NetworkAdapter@OpenHome@@QBEPADXZ 00418340 f   libohNetCore:OhNet.obj
 0001:000174a0       ?Log@DefaultLogger@Net@OpenHome@@QAEXPBD@Z 004184a0 f   libohNetCore:OhNet.obj
 0001:000174f0       ?LogError@DefaultAsyncHandler@Net@OpenHome@@QAEXAAVIAsync@23@@Z 004184f0 f   libohNetCore:OhNet.obj
 0001:00017550       ?Output@DefaultAsyncHandler@Net@OpenHome@@EAEXPBD0@Z 00418550 f   libohNetCore:OhNet.obj
 0001:00017590       ?Create@InitialisationParams@Net@OpenHome@@SGPAV123@XZ 00418590 f   libohNetCore:OhNet.obj
 0001:00017630       ??1InitialisationParams@Net@OpenHome@@QAE@XZ 00418630 f   libohNetCore:OhNet.obj
 0001:00017690       ?SetLogOutput@InitialisationParams@Net@OpenHome@@QAEXVFunctorMsg@3@@Z 00418690 f   libohNetCore:OhNet.obj
 0001:000176c0       ?SetFatalErrorHandler@InitialisationParams@Net@OpenHome@@QAEXVFunctorMsg@3@@Z 004186c0 f   libohNetCore:OhNet.obj
 0001:00017720       ?SetAsyncBeginHandler@InitialisationParams@Net@OpenHome@@QAEXVFunctorAsync@23@@Z 00418720 f   libohNetCore:OhNet.obj
 0001:00017760       ?SetAsyncEndHandler@InitialisationParams@Net@OpenHome@@QAEXVFunctorAsync@23@@Z 00418760 f   libohNetCore:OhNet.obj
 0001:000177a0       ?SetAsyncErrorHandler@InitialisationParams@Net@OpenHome@@QAEXVFunctorAsync@23@@Z 004187a0 f   libohNetCore:OhNet.obj
 0001:000177e0       ?SetSubnetListChangedListener@InitialisationParams@Net@OpenHome@@QAEXVFunctor@3@@Z 004187e0 f   libohNetCore:OhNet.obj
 0001:00017820       ?SetTcpConnectTimeout@InitialisationParams@Net@OpenHome@@QAEXI@Z 00418820 f   libohNetCore:OhNet.obj
 0001:00017860       ?SetMsearchTime@InitialisationParams@Net@OpenHome@@QAEXI@Z 00418860 f   libohNetCore:OhNet.obj
 0001:000178b0       ?SetMsearchTtl@InitialisationParams@Net@OpenHome@@QAEXI@Z 004188b0 f   libohNetCore:OhNet.obj
 0001:000178f0       ?SetNumEventSessionThreads@InitialisationParams@Net@OpenHome@@QAEXI@Z 004188f0 f   libohNetCore:OhNet.obj
 0001:00017940       ?SetNumXmlFetcherThreads@InitialisationParams@Net@OpenHome@@QAEXI@Z 00418940 f   libohNetCore:OhNet.obj
 0001:00017990       ?SetNumActionInvokerThreads@InitialisationParams@Net@OpenHome@@QAEXI@Z 00418990 f   libohNetCore:OhNet.obj
 0001:000179e0       ?SetNumInvocations@InitialisationParams@Net@OpenHome@@QAEXI@Z 004189e0 f   libohNetCore:OhNet.obj
 0001:00017a20       ?SetNumSubscriberThreads@InitialisationParams@Net@OpenHome@@QAEXI@Z 00418a20 f   libohNetCore:OhNet.obj
 0001:00017a70       ?SetPendingSubscriptionTimeout@InitialisationParams@Net@OpenHome@@QAEXI@Z 00418a70 f   libohNetCore:OhNet.obj
 0001:00017ab0       ?SetFreeExternalCallback@InitialisationParams@Net@OpenHome@@QAEXP6GXPAX@Z@Z 00418ab0 f   libohNetCore:OhNet.obj
 0001:00017ad0       ?SetUseLoopbackNetworkAdapter@InitialisationParams@Net@OpenHome@@QAEXXZ 00418ad0 f   libohNetCore:OhNet.obj
 0001:00017af0       ?SetDvMaxUpdateTime@InitialisationParams@Net@OpenHome@@QAEXI@Z 00418af0 f   libohNetCore:OhNet.obj
 0001:00017b10       ?SetDvNumServerThreads@InitialisationParams@Net@OpenHome@@QAEXI@Z 00418b10 f   libohNetCore:OhNet.obj
 0001:00017b60       ?SetDvNumPublisherThreads@InitialisationParams@Net@OpenHome@@QAEXI@Z 00418b60 f   libohNetCore:OhNet.obj
 0001:00017bb0       ?SetDvNumWebSocketThreads@InitialisationParams@Net@OpenHome@@QAEXI@Z 00418bb0 f   libohNetCore:OhNet.obj
 0001:00017c00       ?SetDvWebSocketPort@InitialisationParams@Net@OpenHome@@QAEXI@Z 00418c00 f   libohNetCore:OhNet.obj
 0001:00017c20       ?SetDvEnableBonjour@InitialisationParams@Net@OpenHome@@QAEXXZ 00418c20 f   libohNetCore:OhNet.obj
 0001:00017c40       ?LogOutput@InitialisationParams@Net@OpenHome@@QAEAAVFunctorMsg@3@XZ 00418c40 f   libohNetCore:OhNet.obj
 0001:00017c60       ?FatalErrorHandler@InitialisationParams@Net@OpenHome@@QAEAAVFunctorMsg@3@XZ 00418c60 f   libohNetCore:OhNet.obj
 0001:00017c80       ?AsyncBeginHandler@InitialisationParams@Net@OpenHome@@QAEAAVFunctorAsync@23@XZ 00418c80 f   libohNetCore:OhNet.obj
 0001:00017ca0       ?AsyncEndHandler@InitialisationParams@Net@OpenHome@@QAEAAVFunctorAsync@23@XZ 00418ca0 f   libohNetCore:OhNet.obj
 0001:00017cc0       ?AsyncErrorHandler@InitialisationParams@Net@OpenHome@@QAEAAVFunctorAsync@23@XZ 00418cc0 f   libohNetCore:OhNet.obj
 0001:00017ce0       ?SubnetListChangedListener@InitialisationParams@Net@OpenHome@@QAEAAVFunctor@3@XZ 00418ce0 f   libohNetCore:OhNet.obj
 0001:00017d00       ?TcpConnectTimeoutMs@InitialisationParams@Net@OpenHome@@QBEIXZ 00418d00 f   libohNetCore:OhNet.obj
 0001:00017d20       ?MsearchTimeSecs@InitialisationParams@Net@OpenHome@@QBEIXZ 00418d20 f   libohNetCore:OhNet.obj
 0001:00017d40       ?MsearchTtl@InitialisationParams@Net@OpenHome@@QBEIXZ 00418d40 f   libohNetCore:OhNet.obj
 0001:00017d60       ?NumEventSessionThreads@InitialisationParams@Net@OpenHome@@QBEIXZ 00418d60 f   libohNetCore:OhNet.obj
 0001:00017d80       ?NumXmlFetcherThreads@InitialisationParams@Net@OpenHome@@QBEIXZ 00418d80 f   libohNetCore:OhNet.obj
 0001:00017da0       ?NumActionInvokerThreads@InitialisationParams@Net@OpenHome@@QBEIXZ 00418da0 f   libohNetCore:OhNet.obj
 0001:00017dc0       ?NumInvocations@InitialisationParams@Net@OpenHome@@QBEIXZ 00418dc0 f   libohNetCore:OhNet.obj
 0001:00017de0       ?NumSubscriberThreads@InitialisationParams@Net@OpenHome@@QBEIXZ 00418de0 f   libohNetCore:OhNet.obj
 0001:00017e00       ?PendingSubscriptionTimeoutMs@InitialisationParams@Net@OpenHome@@QBEIXZ 00418e00 f   libohNetCore:OhNet.obj
 0001:00017e20       ?FreeExternal@InitialisationParams@Net@OpenHome@@QBEP6GXPAX@ZXZ 00418e20 f   libohNetCore:OhNet.obj
 0001:00017e40       ?UseLoopbackNetworkAdapter@InitialisationParams@Net@OpenHome@@QBE_NXZ 00418e40 f   libohNetCore:OhNet.obj
 0001:00017e60       ?DvMaxUpdateTimeSecs@InitialisationParams@Net@OpenHome@@QBEIXZ 00418e60 f   libohNetCore:OhNet.obj
 0001:00017e80       ?DvNumServerThreads@InitialisationParams@Net@OpenHome@@QBEIXZ 00418e80 f   libohNetCore:OhNet.obj
 0001:00017ea0       ?DvNumPublisherThreads@InitialisationParams@Net@OpenHome@@QBEIXZ 00418ea0 f   libohNetCore:OhNet.obj
 0001:00017ec0       ?DvNumWebSocketThreads@InitialisationParams@Net@OpenHome@@QBEIXZ 00418ec0 f   libohNetCore:OhNet.obj
 0001:00017ee0       ?DvWebSocketPort@InitialisationParams@Net@OpenHome@@QBEIXZ 00418ee0 f   libohNetCore:OhNet.obj
 0001:00017f00       ?DvIsBonjourEnabled@InitialisationParams@Net@OpenHome@@QBE_NXZ 00418f00 f   libohNetCore:OhNet.obj
 0001:00017f20       ??0InitialisationParams@Net@OpenHome@@AAE@XZ 00418f20 f   libohNetCore:OhNet.obj
 0001:00018190       ?FatalErrorHandlerDefault@InitialisationParams@Net@OpenHome@@AAEXPBD@Z 00419190 f   libohNetCore:OhNet.obj
 0001:000181c0       ?Initialise@UpnpLibrary@Net@OpenHome@@SGXPAVInitialisationParams@23@@Z 004191c0 f   libohNetCore:OhNet.obj
 0001:000182c0       ?InitialiseMinimal@UpnpLibrary@Net@OpenHome@@SGXPAVInitialisationParams@23@@Z 004192c0 f   libohNetCore:OhNet.obj
 0001:00018360       ?Close@UpnpLibrary@Net@OpenHome@@SGXXZ 00419360 f   libohNetCore:OhNet.obj
 0001:00018380       ?CreateSubnetList@UpnpLibrary@Net@OpenHome@@SGPAV?$vector@PAVNetworkAdapter@OpenHome@@V?$allocator@PAVNetworkAdapter@OpenHome@@@std@@@std@@XZ 00419380 f   libohNetCore:OhNet.obj
 0001:000183a0       ?DestroySubnetList@UpnpLibrary@Net@OpenHome@@SGXPAV?$vector@PAVNetworkAdapter@OpenHome@@V?$allocator@PAVNetworkAdapter@OpenHome@@@std@@@std@@@Z 004193a0 f   libohNetCore:OhNet.obj
 0001:00018430       ?SetCurrentSubnet@UpnpLibrary@Net@OpenHome@@SGXI@Z 00419430 f   libohNetCore:OhNet.obj
 0001:00018450       ?CurrentSubnetAdapter@UpnpLibrary@Net@OpenHome@@SGPAVNetworkAdapter@3@XZ 00419450 f   libohNetCore:OhNet.obj
 0001:00018470       ??_GNetworkAdapter@OpenHome@@AAEPAXI@Z 00419470 f i libohNetCore:OhNet.obj
 0001:000184b0       ?Append@Bwx@OpenHome@@QAEXD@Z 004194b0 f i libohNetCore:OhNet.obj
 0001:000184e0       ??BFunctorMsg@OpenHome@@QBE_NXZ 004194e0 f i libohNetCore:OhNet.obj
 0001:00018520       ??0Functor@OpenHome@@QAE@XZ 00419520 f i libohNetCore:OhNet.obj
 0001:00018550       ??0FunctorAsync@Net@OpenHome@@QAE@XZ 00419550 f i libohNetCore:OhNet.obj
 0001:00018580       ??0FunctorMsg@OpenHome@@QAE@XZ 00419580 f i libohNetCore:OhNet.obj
 0001:000185b0       ??0DefaultAsyncHandler@Net@OpenHome@@QAE@XZ 004195b0 f i libohNetCore:OhNet.obj
 0001:000185e0       ??0IAsyncOutput@Net@OpenHome@@QAE@XZ 004195e0 f i libohNetCore:OhNet.obj
 0001:00018600       ?Quit@Os@OpenHome@@SGXXZ   00419600 f i libohNetCore:OhNet.obj
 0001:00018620       ??0bad_alloc@std@@QAE@XZ   00419620 f i libohNetCore:OhNet.obj
 0001:00018670       ?Create@Os@OpenHome@@SGHXZ 00419670 f i libohNetCore:OhNet.obj
 0001:00018690       ?Destroy@Os@OpenHome@@SGXXZ 00419690 f i libohNetCore:OhNet.obj
 0001:000186b0       ??_G?$vector@PAVNetworkAdapter@OpenHome@@V?$allocator@PAVNetworkAdapter@OpenHome@@@std@@@std@@QAEPAXI@Z 004196b0 f i libohNetCore:OhNet.obj
 0001:000186f0       ??1?$vector@PAVNetworkAdapter@OpenHome@@V?$allocator@PAVNetworkAdapter@OpenHome@@@std@@@std@@QAE@XZ 004196f0 f i libohNetCore:OhNet.obj
 0001:00018760       ?size@?$vector@PAVNetworkAdapter@OpenHome@@V?$allocator@PAVNetworkAdapter@OpenHome@@@std@@@std@@QBEIXZ 00419760 f i libohNetCore:OhNet.obj
 0001:00018790       ??A?$vector@PAVNetworkAdapter@OpenHome@@V?$allocator@PAVNetworkAdapter@OpenHome@@@std@@@std@@QAEAAPAVNetworkAdapter@OpenHome@@I@Z 00419790 f i libohNetCore:OhNet.obj
 0001:00018830       ?_Tidy@?$vector@PAVNetworkAdapter@OpenHome@@V?$allocator@PAVNetworkAdapter@OpenHome@@@std@@@std@@IAEXXZ 00419830 f i libohNetCore:OhNet.obj
 0001:000188c0       ??1?$_Vector_val@PAVNetworkAdapter@OpenHome@@V?$allocator@PAVNetworkAdapter@OpenHome@@@std@@@std@@QAE@XZ 004198c0 f i libohNetCore:OhNet.obj
 0001:000189a0       ?_Destroy@?$vector@PAVNetworkAdapter@OpenHome@@V?$allocator@PAVNetworkAdapter@OpenHome@@@std@@@std@@IAEXPAPAVNetworkAdapter@OpenHome@@0@Z 004199a0 f i libohNetCore:OhNet.obj
 0001:000189e0       ?deallocate@?$allocator@PAVNetworkAdapter@OpenHome@@@std@@QAEXPAPAVNetworkAdapter@OpenHome@@I@Z 004199e0 f i libohNetCore:OhNet.obj
 0001:00018a10       ??$MakeFunctorMsg@VDefaultLogger@Net@OpenHome@@V123@@OpenHome@@YG?AV?$MemberTranslatorMsg@VDefaultLogger@Net@OpenHome@@P8123@AEXPBD@Z@0@AAVDefaultLogger@Net@0@ABQ8230@AEXPBD@Z@Z 00419a10 f i libohNetCore:OhNet.obj
 0001:00018a40       ??$MakeFunctorAsync@VDefaultAsyncHandler@Net@OpenHome@@V123@@Net@OpenHome@@YG?AV?$MemberTranslatorAsync@VDefaultAsyncHandler@Net@OpenHome@@P8123@AEXAAVIAsync@23@@Z@01@AAVDefaultAsyncHandler@01@ABQ8301@AEXAAVIAsync@01@@Z@Z 00419a40 f i libohNetCore:OhNet.obj
 0001:00018a70       ??$MakeFunctorMsg@VInitialisationParams@Net@OpenHome@@V123@@OpenHome@@YG?AV?$MemberTranslatorMsg@VInitialisationParams@Net@OpenHome@@P8123@AEXPBD@Z@0@AAVInitialisationParams@Net@0@ABQ8230@AEXPBD@Z@Z 00419a70 f i libohNetCore:OhNet.obj
 0001:00018aa0       ??$?0PAVNetworkAdapter@OpenHome@@@?$allocator@U_Container_proxy@std@@@std@@QAE@ABV?$allocator@PAVNetworkAdapter@OpenHome@@@1@@Z 00419aa0 f i libohNetCore:OhNet.obj
 0001:00018ac0       ??$_Destroy_range@V?$allocator@PAVNetworkAdapter@OpenHome@@@std@@@std@@YGXPAPAVNetworkAdapter@OpenHome@@0AAV?$allocator@PAVNetworkAdapter@OpenHome@@@0@@Z 00419ac0 f i libohNetCore:OhNet.obj
 0001:00018b10       ??0?$MemberTranslatorMsg@VDefaultLogger@Net@OpenHome@@P8123@AEXPBD@Z@OpenHome@@QAE@AAVDefaultLogger@Net@1@ABQ8231@AEXPBD@Z@Z 00419b10 f i libohNetCore:OhNet.obj
 0001:00018b50       ??0?$MemberTranslatorAsync@VDefaultAsyncHandler@Net@OpenHome@@P8123@AEXAAVIAsync@23@@Z@Net@OpenHome@@QAE@AAVDefaultAsyncHandler@12@ABQ8312@AEXAAVIAsync@12@@Z@Z 00419b50 f i libohNetCore:OhNet.obj
 0001:00018b90       ??0FunctorAsync@Net@OpenHome@@IAE@P6GXABV012@AAVIAsync@12@@ZPBX3I@Z 00419b90 f i libohNetCore:OhNet.obj
 0001:00018be0       ??0?$MemberTranslatorMsg@VInitialisationParams@Net@OpenHome@@P8123@AEXPBD@Z@OpenHome@@QAE@AAVInitialisationParams@Net@1@ABQ8231@AEXPBD@Z@Z 00419be0 f i libohNetCore:OhNet.obj
 0001:00018c20       ?Thunk@?$MemberTranslatorMsg@VDefaultLogger@Net@OpenHome@@P8123@AEXPBD@Z@OpenHome@@SGXABVFunctorMsg@2@PBD@Z 00419c20 f i libohNetCore:OhNet.obj
 0001:00018c70       ?Thunk@?$MemberTranslatorAsync@VDefaultAsyncHandler@Net@OpenHome@@P8123@AEXAAVIAsync@23@@Z@Net@OpenHome@@SGXABVFunctorAsync@23@AAVIAsync@23@@Z 00419c70 f i libohNetCore:OhNet.obj
 0001:00018cc0       ?Thunk@?$MemberTranslatorMsg@VInitialisationParams@Net@OpenHome@@P8123@AEXPBD@Z@OpenHome@@SGXABVFunctorMsg@2@PBD@Z 00419cc0 f i libohNetCore:OhNet.obj
 0001:00018d10       ??$_Ptr_cat@PAVNetworkAdapter@OpenHome@@PAV12@@std@@YG?AU_Scalar_ptr_iterator_tag@0@PAPAVNetworkAdapter@OpenHome@@0@Z 00419d10 f i libohNetCore:OhNet.obj
 0001:00018d70       ??$_Destroy_range@V?$allocator@PAVNetworkAdapter@OpenHome@@@std@@@std@@YGXPAPAVNetworkAdapter@OpenHome@@0AAV?$allocator@PAVNetworkAdapter@OpenHome@@@0@U_Scalar_ptr_iterator_tag@0@@Z 00419d70 f i libohNetCore:OhNet.obj
 0001:00018d80       ?StartDv@UpnpLibrary@Net@OpenHome@@SGXXZ 00419d80 f   libohNetCore:OhNetDv.obj
 0001:00018e10       ??0Parameter@Net@OpenHome@@IAE@PBDW4EType@012@@Z 00419e10 f   libohNetCore:Service.obj
 0001:00018e60       ??1Parameter@Net@OpenHome@@UAE@XZ 00419e60 f   libohNetCore:Service.obj
 0001:00018e90       ?Name@Parameter@Net@OpenHome@@QBEABVBrx@3@XZ 00419e90 f   libohNetCore:Service.obj
 0001:00018eb0       ?Type@Parameter@Net@OpenHome@@QBE?AW4EType@123@XZ 00419eb0 f   libohNetCore:Service.obj
 0001:00018ed0       ?ValidateBool@Parameter@Net@OpenHome@@UBEX_N@Z 00419ed0 f   libohNetCore:Service.obj
 0001:00018f00       ?ValidateInt@Parameter@Net@OpenHome@@UBEXH@Z 00419f00 f   libohNetCore:Service.obj
 0001:00018f30       ?ValidateUint@Parameter@Net@OpenHome@@UBEXI@Z 00419f30 f   libohNetCore:Service.obj
 0001:00018f60       ?ValidateString@Parameter@Net@OpenHome@@UBEXABVBrx@3@@Z 00419f60 f   libohNetCore:Service.obj
 0001:00018f90       ?ValidateBinary@Parameter@Net@OpenHome@@UBEXABVBrx@3@@Z 00419f90 f   libohNetCore:Service.obj
 0001:00018fc0       ??0ParameterBool@Net@OpenHome@@QAE@PBD@Z 00419fc0 f   libohNetCore:Service.obj
 0001:00019000       ??1ParameterBool@Net@OpenHome@@UAE@XZ 0041a000 f   libohNetCore:Service.obj
 0001:00019030       ?ValidateBool@ParameterBool@Net@OpenHome@@UBEX_N@Z 0041a030 f   libohNetCore:Service.obj
 0001:00019050       ??0ParameterInt@Net@OpenHome@@QAE@PBDHHH@Z 0041a050 f   libohNetCore:Service.obj
 0001:00019120       ??1ParameterInt@Net@OpenHome@@UAE@XZ 0041a120 f   libohNetCore:Service.obj
 0001:00019150       ?ValidateInt@ParameterInt@Net@OpenHome@@UBEXH@Z 0041a150 f   libohNetCore:Service.obj
 0001:00019230       ?MinValue@ParameterInt@Net@OpenHome@@QBEHXZ 0041a230 f   libohNetCore:Service.obj
 0001:00019250       ?MaxValue@ParameterInt@Net@OpenHome@@QBEHXZ 0041a250 f   libohNetCore:Service.obj
 0001:00019270       ?Step@ParameterInt@Net@OpenHome@@QBEHXZ 0041a270 f   libohNetCore:Service.obj
 0001:00019290       ??0ParameterUint@Net@OpenHome@@QAE@PBDIII@Z 0041a290 f   libohNetCore:Service.obj
 0001:00019360       ??1ParameterUint@Net@OpenHome@@UAE@XZ 0041a360 f   libohNetCore:Service.obj
 0001:00019390       ?ValidateUint@ParameterUint@Net@OpenHome@@UBEXI@Z 0041a390 f   libohNetCore:Service.obj
 0001:00019480       ?MinValue@ParameterUint@Net@OpenHome@@QBEIXZ 0041a480 f   libohNetCore:Service.obj
 0001:000194a0       ?MaxValue@ParameterUint@Net@OpenHome@@QBEIXZ 0041a4a0 f   libohNetCore:Service.obj
 0001:000194c0       ?Step@ParameterUint@Net@OpenHome@@QBEIXZ 0041a4c0 f   libohNetCore:Service.obj
 0001:000194e0       ??0ParameterString@Net@OpenHome@@QAE@PBD@Z 0041a4e0 f   libohNetCore:Service.obj
 0001:00019560       ??0ParameterString@Net@OpenHome@@QAE@PBDPAPADI@Z 0041a560 f   libohNetCore:Service.obj
 0001:000196f0       ??1ParameterString@Net@OpenHome@@UAE@XZ 0041a6f0 f   libohNetCore:Service.obj
 0001:00019870       ?ValidateString@ParameterString@Net@OpenHome@@UBEXABVBrx@3@@Z 0041a870 f   libohNetCore:Service.obj
 0001:000199f0       ?AllowedValues@ParameterString@Net@OpenHome@@QBEABV?$map@VBrn@OpenHome@@PAVBrh@2@VBufferCmp@2@V?$allocator@U?$pair@$$CBVBrn@OpenHome@@PAVBrh@2@@std@@@std@@@std@@XZ 0041a9f0 f   libohNetCore:Service.obj
 0001:00019a10       ??0ParameterBinary@Net@OpenHome@@QAE@PBD@Z 0041aa10 f   libohNetCore:Service.obj
 0001:00019a50       ??1ParameterBinary@Net@OpenHome@@UAE@XZ 0041aa50 f   libohNetCore:Service.obj
 0001:00019a80       ?ValidateBinary@ParameterBinary@Net@OpenHome@@UBEXABVBrx@3@@Z 0041aa80 f   libohNetCore:Service.obj
 0001:00019aa0       ??0ParameterRelated@Net@OpenHome@@QAE@PBDABVProperty@12@@Z 0041aaa0 f   libohNetCore:Service.obj
 0001:00019af0       ??1ParameterRelated@Net@OpenHome@@UAE@XZ 0041aaf0 f   libohNetCore:Service.obj
 0001:00019b20       ?Related@ParameterRelated@Net@OpenHome@@QBEABVProperty@23@XZ 0041ab20 f   libohNetCore:Service.obj
 0001:00019b40       ?Parameter@Property@Net@OpenHome@@QBEABV023@XZ 0041ab40 f   libohNetCore:Service.obj
 0001:00019b60       ?SequenceNumber@Property@Net@OpenHome@@QBEIXZ 0041ab60 f   libohNetCore:Service.obj
 0001:00019b80       ?ReportChanged@Property@Net@OpenHome@@QAE_NXZ 0041ab80 f   libohNetCore:Service.obj
 0001:00019bc0       ??0Property@Net@OpenHome@@IAE@PAVParameter@12@AAVFunctor@2@@Z 0041abc0 f   libohNetCore:Service.obj
 0001:00019c60       ??0Property@Net@OpenHome@@IAE@PAVParameter@12@@Z 0041ac60 f   libohNetCore:Service.obj
 0001:00019cf0       ?Construct@Property@Net@OpenHome@@AAEXPAVParameter@23@@Z 0041acf0 f   libohNetCore:Service.obj
 0001:00019d60       ??1Property@Net@OpenHome@@UAE@XZ 0041ad60 f   libohNetCore:Service.obj
 0001:00019dd0       ??0PropertyString@Net@OpenHome@@QAE@PBDAAVFunctor@2@@Z 0041add0 f   libohNetCore:Service.obj
 0001:00019ea0       ??0PropertyString@Net@OpenHome@@QAE@PAVParameter@12@@Z 0041aea0 f   libohNetCore:Service.obj
 0001:00019f20       ??1PropertyString@Net@OpenHome@@UAE@XZ 0041af20 f   libohNetCore:Service.obj
 0001:00019f90       ?Value@PropertyString@Net@OpenHome@@QBEABVBrx@3@XZ 0041af90 f   libohNetCore:Service.obj
 0001:0001a060       ?Process@PropertyString@Net@OpenHome@@UAEXAAVIOutputProcessor@23@ABVBrx@3@@Z 0041b060 f   libohNetCore:Service.obj
 0001:0001a1a0       ?SetValue@PropertyString@Net@OpenHome@@QAE_NABVBrx@3@@Z 0041b1a0 f   libohNetCore:Service.obj
 0001:0001a2a0       ?Write@PropertyString@Net@OpenHome@@UAEXAAVIPropertyWriter@23@@Z 0041b2a0 f   libohNetCore:Service.obj
 0001:0001a2f0       ??0PropertyInt@Net@OpenHome@@QAE@PBDAAVFunctor@2@@Z 0041b2f0 f   libohNetCore:Service.obj
 0001:0001a3b0       ??0PropertyInt@Net@OpenHome@@QAE@PAVParameter@12@@Z 0041b3b0 f   libohNetCore:Service.obj
 0001:0001a3f0       ??1PropertyInt@Net@OpenHome@@UAE@XZ 0041b3f0 f   libohNetCore:Service.obj
 0001:0001a420       ?Value@PropertyInt@Net@OpenHome@@QBEHXZ 0041b420 f   libohNetCore:Service.obj
 0001:0001a490       ?Process@PropertyInt@Net@OpenHome@@UAEXAAVIOutputProcessor@23@ABVBrx@3@@Z 0041b490 f   libohNetCore:Service.obj
 0001:0001a590       ?SetValue@PropertyInt@Net@OpenHome@@QAE_NH@Z 0041b590 f   libohNetCore:Service.obj
 0001:0001a680       ?Write@PropertyInt@Net@OpenHome@@UAEXAAVIPropertyWriter@23@@Z 0041b680 f   libohNetCore:Service.obj
 0001:0001a6d0       ??0PropertyUint@Net@OpenHome@@QAE@PBDAAVFunctor@2@@Z 0041b6d0 f   libohNetCore:Service.obj
 0001:0001a790       ??0PropertyUint@Net@OpenHome@@QAE@PAVParameter@12@@Z 0041b790 f   libohNetCore:Service.obj
 0001:0001a7d0       ??1PropertyUint@Net@OpenHome@@UAE@XZ 0041b7d0 f   libohNetCore:Service.obj
 0001:0001a800       ?Value@PropertyUint@Net@OpenHome@@QBEIXZ 0041b800 f   libohNetCore:Service.obj
 0001:0001a870       ?Process@PropertyUint@Net@OpenHome@@UAEXAAVIOutputProcessor@23@ABVBrx@3@@Z 0041b870 f   libohNetCore:Service.obj
 0001:0001a970       ?SetValue@PropertyUint@Net@OpenHome@@QAE_NI@Z 0041b970 f   libohNetCore:Service.obj
 0001:0001aa60       ?Write@PropertyUint@Net@OpenHome@@UAEXAAVIPropertyWriter@23@@Z 0041ba60 f   libohNetCore:Service.obj
 0001:0001aab0       ??0PropertyBool@Net@OpenHome@@QAE@PBDAAVFunctor@2@@Z 0041bab0 f   libohNetCore:Service.obj
 0001:0001ab60       ??0PropertyBool@Net@OpenHome@@QAE@PAVParameter@12@@Z 0041bb60 f   libohNetCore:Service.obj
 0001:0001aba0       ??1PropertyBool@Net@OpenHome@@UAE@XZ 0041bba0 f   libohNetCore:Service.obj
 0001:0001abd0       ?Value@PropertyBool@Net@OpenHome@@QBE_NXZ 0041bbd0 f   libohNetCore:Service.obj
 0001:0001ac40       ?Process@PropertyBool@Net@OpenHome@@UAEXAAVIOutputProcessor@23@ABVBrx@3@@Z 0041bc40 f   libohNetCore:Service.obj
 0001:0001ad40       ?SetValue@PropertyBool@Net@OpenHome@@QAE_N_N@Z 0041bd40 f   libohNetCore:Service.obj
 0001:0001ae40       ?Write@PropertyBool@Net@OpenHome@@UAEXAAVIPropertyWriter@23@@Z 0041be40 f   libohNetCore:Service.obj
 0001:0001ae90       ??0PropertyBinary@Net@OpenHome@@QAE@PBDAAVFunctor@2@@Z 0041be90 f   libohNetCore:Service.obj
 0001:0001af60       ??0PropertyBinary@Net@OpenHome@@QAE@PAVParameter@12@@Z 0041bf60 f   libohNetCore:Service.obj
 0001:0001afe0       ??1PropertyBinary@Net@OpenHome@@UAE@XZ 0041bfe0 f   libohNetCore:Service.obj
 0001:0001b050       ?Value@PropertyBinary@Net@OpenHome@@QBEABVBrx@3@XZ 0041c050 f   libohNetCore:Service.obj
 0001:0001b120       ?Process@PropertyBinary@Net@OpenHome@@UAEXAAVIOutputProcessor@23@ABVBrx@3@@Z 0041c120 f   libohNetCore:Service.obj
 0001:0001b270       ?SetValue@PropertyBinary@Net@OpenHome@@QAE_NABVBrx@3@@Z 0041c270 f   libohNetCore:Service.obj
 0001:0001b370       ?Write@PropertyBinary@Net@OpenHome@@UAEXAAVIPropertyWriter@23@@Z 0041c370 f   libohNetCore:Service.obj
 0001:0001b3c0       ??0Action@Net@OpenHome@@QAE@PBD@Z 0041c3c0 f   libohNetCore:Service.obj
 0001:0001b440       ??1Action@Net@OpenHome@@QAE@XZ 0041c440 f   libohNetCore:Service.obj
 0001:0001b5b0       ?AddInputParameter@Action@Net@OpenHome@@QAEXPAVParameter@23@@Z 0041c5b0 f   libohNetCore:Service.obj
 0001:0001b5e0       ?AddOutputParameter@Action@Net@OpenHome@@QAEXPAVParameter@23@@Z 0041c5e0 f   libohNetCore:Service.obj
 0001:0001b610       ?Name@Action@Net@OpenHome@@QBEABVBrx@3@XZ 0041c610 f   libohNetCore:Service.obj
 0001:0001b630       ?InputParameters@Action@Net@OpenHome@@QBEABV?$vector@PAVParameter@Net@OpenHome@@V?$allocator@PAVParameter@Net@OpenHome@@@std@@@std@@XZ 0041c630 f   libohNetCore:Service.obj
 0001:0001b650       ?OutputParameters@Action@Net@OpenHome@@QBEABV?$vector@PAVParameter@Net@OpenHome@@V?$allocator@PAVParameter@Net@OpenHome@@@std@@@std@@XZ 0041c650 f   libohNetCore:Service.obj
 0001:0001b670       ??0ServiceType@Net@OpenHome@@QAE@PBD0I@Z 0041c670 f   libohNetCore:Service.obj
 0001:0001b730       ??0ServiceType@Net@OpenHome@@QAE@ABV012@@Z 0041c730 f   libohNetCore:Service.obj
 0001:0001b810       ??1ServiceType@Net@OpenHome@@QAE@XZ 0041c810 f   libohNetCore:Service.obj
 0001:0001b8c0       ?Domain@ServiceType@Net@OpenHome@@QBEABVBrx@3@XZ 0041c8c0 f   libohNetCore:Service.obj
 0001:0001b8e0       ?Name@ServiceType@Net@OpenHome@@QBEABVBrx@3@XZ 0041c8e0 f   libohNetCore:Service.obj
 0001:0001b900       ?Version@ServiceType@Net@OpenHome@@QBEIXZ 0041c900 f   libohNetCore:Service.obj
 0001:0001b920       ?FullName@ServiceType@Net@OpenHome@@QBEABVBrx@3@XZ 0041c920 f   libohNetCore:Service.obj
 0001:0001ba30       ?FullNameUpnp@ServiceType@Net@OpenHome@@QBEABVBrx@3@XZ 0041ca30 f   libohNetCore:Service.obj
 0001:0001bbe0       ?PathUpnp@ServiceType@Net@OpenHome@@QBEABVBrx@3@XZ 0041cbe0 f   libohNetCore:Service.obj
 0001:0001bcc0       ?ServiceId@ServiceType@Net@OpenHome@@QBEABVBrx@3@XZ 0041ccc0 f   libohNetCore:Service.obj
 0001:0001be80       ??0Service@Net@OpenHome@@IAE@PBD0I@Z 0041ce80 f   libohNetCore:Service.obj
 0001:0001bec0       ?ServiceType@Service@Net@OpenHome@@QBEABV023@XZ 0041cec0 f   libohNetCore:Service.obj
 0001:0001bee0       ??_EParameter@Net@OpenHome@@UAEPAXI@Z 0041cee0 f i libohNetCore:Service.obj
 0001:0001bee0       ??_GParameter@Net@OpenHome@@UAEPAXI@Z 0041cee0 f i libohNetCore:Service.obj
 0001:0001bf20       ??_EParameterBool@Net@OpenHome@@UAEPAXI@Z 0041cf20 f i libohNetCore:Service.obj
 0001:0001bfa0       ??_EParameterInt@Net@OpenHome@@UAEPAXI@Z 0041cfa0 f i libohNetCore:Service.obj
 0001:0001c020       ??0ParameterValidationError@OpenHome@@QAE@PBDI@Z 0041d020 f i libohNetCore:Service.obj
 0001:0001c060       ??1ParameterValidationError@OpenHome@@QAE@XZ 0041d060 f i libohNetCore:Service.obj
 0001:0001c090       ??_EParameterUint@Net@OpenHome@@UAEPAXI@Z 0041d090 f i libohNetCore:Service.obj
 0001:0001c110       ??_EParameterString@Net@OpenHome@@UAEPAXI@Z 0041d110 f i libohNetCore:Service.obj
 0001:0001c190       ??0Brn@OpenHome@@QAE@ABVBrx@1@@Z 0041d190 f i libohNetCore:Service.obj
 0001:0001c220       ??1?$map@VBrn@OpenHome@@PAVBrh@2@VBufferCmp@2@V?$allocator@U?$pair@$$CBVBrn@OpenHome@@PAVBrh@2@@std@@@std@@@std@@QAE@XZ 0041d220 f i libohNetCore:Service.obj
 0001:0001c250       ??1?$pair@VBrn@OpenHome@@PAVBrh@2@@std@@QAE@XZ 0041d250 f i libohNetCore:Service.obj
 0001:0001c280       ??1?$pair@V?$_Tree_iterator@V?$_Tree_val@V?$_Tmap_traits@VBrn@OpenHome@@PAVBrh@2@VBufferCmp@2@V?$allocator@U?$pair@$$CBVBrn@OpenHome@@PAVBrh@2@@std@@@std@@$0A@@std@@@std@@@std@@_N@std@@QAE@XZ 0041d280 f i libohNetCore:Service.obj
 0001:0001c2b0       ??1?$_Pair_base@VBrn@OpenHome@@PAVBrh@2@@std@@QAE@XZ 0041d2b0 f i libohNetCore:Service.obj
 0001:0001c2e0       ??1?$_Pair_base@V?$_Tree_iterator@V?$_Tree_val@V?$_Tmap_traits@VBrn@OpenHome@@PAVBrh@2@VBufferCmp@2@V?$allocator@U?$pair@$$CBVBrn@OpenHome@@PAVBrh@2@@std@@@std@@$0A@@std@@@std@@@std@@_N@std@@QAE@XZ 0041d2e0 f i libohNetCore:Service.obj
 0001:0001c310       ??1?$_Tree_iterator@V?$_Tree_val@V?$_Tmap_traits@VBrn@OpenHome@@PAVBrh@2@VBufferCmp@2@V?$allocator@U?$pair@$$CBVBrn@OpenHome@@PAVBrh@2@@std@@@std@@$0A@@std@@@std@@@std@@QAE@XZ 0041d310 f i libohNetCore:Service.obj
 0001:0001c340       ??1?$_Tree_const_iterator@V?$_Tree_val@V?$_Tmap_traits@VBrn@OpenHome@@PAVBrh@2@VBufferCmp@2@V?$allocator@U?$pair@$$CBVBrn@OpenHome@@PAVBrh@2@@std@@@std@@$0A@@std@@@std@@@std@@QAE@XZ 0041d340 f i libohNetCore:Service.obj
 0001:0001c370       ??1?$_Tree_unchecked_const_iterator@V?$_Tree_val@V?$_Tmap_traits@VBrn@OpenHome@@PAVBrh@2@VBufferCmp@2@V?$allocator@U?$pair@$$CBVBrn@OpenHome@@PAVBrh@2@@std@@@std@@$0A@@std@@@std@@U_Iterator_base12@2@@std@@QAE@XZ 0041d370 f i libohNetCore:Service.obj
 0001:0001c3a0       ??1?$_Iterator012@Ubidirectional_iterator_tag@std@@U?$pair@$$CBVBrn@OpenHome@@PAVBrh@2@@2@HPBU32@ABU32@U_Iterator_base12@2@@std@@QAE@XZ 0041d3a0 f i libohNetCore:Service.obj
 0001:0001c3d0       ??_EParameterBinary@Net@OpenHome@@UAEPAXI@Z 0041d3d0 f i libohNetCore:Service.obj
 0001:0001c450       ??_EParameterRelated@Net@OpenHome@@UAEPAXI@Z 0041d450 f i libohNetCore:Service.obj
 0001:0001c4d0       ??RFunctor@OpenHome@@QBEXXZ 0041d4d0 f i libohNetCore:Service.obj
 0001:0001c510       ??_GProperty@Net@OpenHome@@UAEPAXI@Z 0041d510 f i libohNetCore:Service.obj
 0001:0001c510       ??_EProperty@Net@OpenHome@@UAEPAXI@Z 0041d510 f i libohNetCore:Service.obj
 0001:0001c550       ??_EPropertyString@Net@OpenHome@@UAEPAXI@Z 0041d550 f i libohNetCore:Service.obj
 0001:0001c5d0       ??9Brx@OpenHome@@QBE_NABV01@@Z 0041d5d0 f i libohNetCore:Service.obj
 0001:0001c610       ??_EPropertyInt@Net@OpenHome@@UAEPAXI@Z 0041d610 f i libohNetCore:Service.obj
 0001:0001c690       ??_EPropertyUint@Net@OpenHome@@UAEPAXI@Z 0041d690 f i libohNetCore:Service.obj
 0001:0001c710       ??_EPropertyBool@Net@OpenHome@@UAEPAXI@Z 0041d710 f i libohNetCore:Service.obj
 0001:0001c790       ??_EPropertyBinary@Net@OpenHome@@UAEPAXI@Z 0041d790 f i libohNetCore:Service.obj
 0001:0001c810       ??0?$map@VBrn@OpenHome@@PAVBrh@2@VBufferCmp@2@V?$allocator@U?$pair@$$CBVBrn@OpenHome@@PAVBrh@2@@std@@@std@@@std@@QAE@XZ 0041d810 f i libohNetCore:Service.obj
 0001:0001c860       ??1?$_Tree@V?$_Tmap_traits@VBrn@OpenHome@@PAVBrh@2@VBufferCmp@2@V?$allocator@U?$pair@$$CBVBrn@OpenHome@@PAVBrh@2@@std@@@std@@$0A@@std@@@std@@QAE@XZ 0041d860 f i libohNetCore:Service.obj
 0001:0001c8d0       ?begin@?$_Tree@V?$_Tmap_traits@VBrn@OpenHome@@PAVBrh@2@VBufferCmp@2@V?$allocator@U?$pair@$$CBVBrn@OpenHome@@PAVBrh@2@@std@@@std@@$0A@@std@@@std@@QAE?AV?$_Tree_iterator@V?$_Tree_val@V?$_Tmap_traits@VBrn@OpenHome@@PAVBrh@2@VBufferCmp@2@V?$allocator@U?$pair@$$CBVBrn@OpenHome@@PAVBrh@2@@std@@@std@@$0A@@std@@@std@@@2@XZ 0041d8d0 f i libohNetCore:Service.obj
 0001:0001c930       ?end@?$_Tree@V?$_Tmap_traits@VBrn@OpenHome@@PAVBrh@2@VBufferCmp@2@V?$allocator@U?$pair@$$CBVBrn@OpenHome@@PAVBrh@2@@std@@@std@@$0A@@std@@@std@@QAE?AV?$_Tree_iterator@V?$_Tree_val@V?$_Tmap_traits@VBrn@OpenHome@@PAVBrh@2@VBufferCmp@2@V?$allocator@U?$pair@$$CBVBrn@OpenHome@@PAVBrh@2@@std@@@std@@$0A@@std@@@std@@@2@XZ 0041d930 f i libohNetCore:Service.obj
 0001:0001c980       ?end@?$_Tree@V?$_Tmap_traits@VBrn@OpenHome@@PAVBrh@2@VBufferCmp@2@V?$allocator@U?$pair@$$CBVBrn@OpenHome@@PAVBrh@2@@std@@@std@@$0A@@std@@@std@@QBE?AV?$_Tree_const_iterator@V?$_Tree_val@V?$_Tmap_traits@VBrn@OpenHome@@PAVBrh@2@VBufferCmp@2@V?$allocator@U?$pair@$$CBVBrn@OpenHome@@PAVBrh@2@@std@@@std@@$0A@@std@@@std@@@2@XZ 0041d980 f i libohNetCore:Service.obj
 0001:0001c9d0       ?size@?$_Tree@V?$_Tmap_traits@VBrn@OpenHome@@PAVBrh@2@VBufferCmp@2@V?$allocator@U?$pair@$$CBVBrn@OpenHome@@PAVBrh@2@@std@@@std@@$0A@@std@@@std@@QBEIXZ 0041d9d0 f i libohNetCore:Service.obj
 0001:0001c9f0       ?find@?$_Tree@V?$_Tmap_traits@VBrn@OpenHome@@PAVBrh@2@VBufferCmp@2@V?$allocator@U?$pair@$$CBVBrn@OpenHome@@PAVBrh@2@@std@@@std@@$0A@@std@@@std@@QBE?AV?$_Tree_const_iterator@V?$_Tree_val@V?$_Tmap_traits@VBrn@OpenHome@@PAVBrh@2@VBufferCmp@2@V?$allocator@U?$pair@$$CBVBrn@OpenHome@@PAVBrh@2@@std@@@std@@$0A@@std@@@std@@@2@ABVBrn@OpenHome@@@Z 0041d9f0 f i libohNetCore:Service.obj
 0001:0001cbd0       ??0?$vector@PAVParameter@Net@OpenHome@@V?$allocator@PAVParameter@Net@OpenHome@@@std@@@std@@QAE@XZ 0041dbd0 f i libohNetCore:Service.obj
 0001:0001cc10       ??1?$vector@PAVParameter@Net@OpenHome@@V?$allocator@PAVParameter@Net@OpenHome@@@std@@@std@@QAE@XZ 0041dc10 f i libohNetCore:Service.obj
 0001:0001cc80       ?size@?$vector@PAVParameter@Net@OpenHome@@V?$allocator@PAVParameter@Net@OpenHome@@@std@@@std@@QBEIXZ 0041dc80 f i libohNetCore:Service.obj
 0001:0001ccb0       ??A?$vector@PAVParameter@Net@OpenHome@@V?$allocator@PAVParameter@Net@OpenHome@@@std@@@std@@QAEAAPAVParameter@Net@OpenHome@@I@Z 0041dcb0 f i libohNetCore:Service.obj
 0001:0001cd50       ?push_back@?$vector@PAVParameter@Net@OpenHome@@V?$allocator@PAVParameter@Net@OpenHome@@@std@@@std@@QAEXABQAVParameter@Net@OpenHome@@@Z 0041dd50 f i libohNetCore:Service.obj
 0001:0001ce60       ??C?$_Tree_iterator@V?$_Tree_val@V?$_Tmap_traits@VBrn@OpenHome@@PAVBrh@2@VBufferCmp@2@V?$allocator@U?$pair@$$CBVBrn@OpenHome@@PAVBrh@2@@std@@@std@@$0A@@std@@@std@@@std@@QBEPAU?$pair@$$CBVBrn@OpenHome@@PAVBrh@2@@1@XZ 0041de60 f i libohNetCore:Service.obj
 0001:0001ce90       ??E?$_Tree_iterator@V?$_Tree_val@V?$_Tmap_traits@VBrn@OpenHome@@PAVBrh@2@VBufferCmp@2@V?$allocator@U?$pair@$$CBVBrn@OpenHome@@PAVBrh@2@@std@@@std@@$0A@@std@@@std@@@std@@QAE?AV01@H@Z 0041de90 f i libohNetCore:Service.obj
 0001:0001cf60       ??8?$_Tree_const_iterator@V?$_Tree_val@V?$_Tmap_traits@VBrn@OpenHome@@PAVBrh@2@VBufferCmp@2@V?$allocator@U?$pair@$$CBVBrn@OpenHome@@PAVBrh@2@@std@@@std@@$0A@@std@@@std@@@std@@QBE_NABV01@@Z 0041df60 f i libohNetCore:Service.obj
 0001:0001d020       ??9?$_Tree_const_iterator@V?$_Tree_val@V?$_Tmap_traits@VBrn@OpenHome@@PAVBrh@2@VBufferCmp@2@V?$allocator@U?$pair@$$CBVBrn@OpenHome@@PAVBrh@2@@std@@@std@@$0A@@std@@@std@@@std@@QBE_NABV01@@Z 0041e020 f i libohNetCore:Service.obj
 0001:0001d060       ??0?$_Tree_const_iterator@V?$_Tree_val@V?$_Tmap_traits@VBrn@OpenHome@@PAVBrh@2@VBufferCmp@2@V?$allocator@U?$pair@$$CBVBrn@OpenHome@@PAVBrh@2@@std@@@std@@$0A@@std@@@std@@@std@@QAE@ABV01@@Z 0041e060 f i libohNetCore:Service.obj
 0001:0001d090       ??0?$_Tree_iterator@V?$_Tree_val@V?$_Tmap_traits@VBrn@OpenHome@@PAVBrh@2@VBufferCmp@2@V?$allocator@U?$pair@$$CBVBrn@OpenHome@@PAVBrh@2@@std@@@std@@$0A@@std@@@std@@@std@@QAE@ABV01@@Z 0041e090 f i libohNetCore:Service.obj
 0001:0001d0c0       ??0?$_Tree_unchecked_const_iterator@V?$_Tree_val@V?$_Tmap_traits@VBrn@OpenHome@@PAVBrh@2@VBufferCmp@2@V?$allocator@U?$pair@$$CBVBrn@OpenHome@@PAVBrh@2@@std@@@std@@$0A@@std@@@std@@U_Iterator_base12@2@@std@@QAE@ABV01@@Z 0041e0c0 f i libohNetCore:Service.obj
 0001:0001d100       ??0?$_Iterator012@Ubidirectional_iterator_tag@std@@U?$pair@$$CBVBrn@OpenHome@@PAVBrh@2@@2@HPBU32@ABU32@U_Iterator_base12@2@@std@@QAE@ABU01@@Z 0041e100 f i libohNetCore:Service.obj
 0001:0001d130       ??0?$_Tree@V?$_Tmap_traits@VBrn@OpenHome@@PAVBrh@2@VBufferCmp@2@V?$allocator@U?$pair@$$CBVBrn@OpenHome@@PAVBrh@2@@std@@@std@@$0A@@std@@@std@@QAE@ABVBufferCmp@OpenHome@@ABV?$allocator@U?$pair@$$CBVBrn@OpenHome@@PAVBrh@2@@std@@@1@@Z 0041e130 f i libohNetCore:Service.obj
 0001:0001d180       ?lower_bound@?$_Tree@V?$_Tmap_traits@VBrn@OpenHome@@PAVBrh@2@VBufferCmp@2@V?$allocator@U?$pair@$$CBVBrn@OpenHome@@PAVBrh@2@@std@@@std@@$0A@@std@@@std@@QBE?AV?$_Tree_const_iterator@V?$_Tree_val@V?$_Tmap_traits@VBrn@OpenHome@@PAVBrh@2@VBufferCmp@2@V?$allocator@U?$pair@$$CBVBrn@OpenHome@@PAVBrh@2@@std@@@std@@$0A@@std@@@std@@@2@ABVBrn@OpenHome@@@Z 0041e180 f i libohNetCore:Service.obj
 0001:0001d1e0       ?_Lmost@?$_Tree@V?$_Tmap_traits@VBrn@OpenHome@@PAVBrh@2@VBufferCmp@2@V?$allocator@U?$pair@$$CBVBrn@OpenHome@@PAVBrh@2@@std@@@std@@$0A@@std@@@std@@IBEAAPAU_Node@?$_Tree_nod@V?$_Tmap_traits@VBrn@OpenHome@@PAVBrh@2@VBufferCmp@2@V?$allocator@U?$pair@$$CBVBrn@OpenHome@@PAVBrh@2@@std@@@std@@$0A@@std@@@2@XZ 0041e1e0 f i libohNetCore:Service.obj
 0001:0001d210       ?_Tidy@?$_Tree@V?$_Tmap_traits@VBrn@OpenHome@@PAVBrh@2@VBufferCmp@2@V?$allocator@U?$pair@$$CBVBrn@OpenHome@@PAVBrh@2@@std@@@std@@$0A@@std@@@std@@IAEXXZ 0041e210 f i libohNetCore:Service.obj
 0001:0001d310       ??1?$_Tree_val@V?$_Tmap_traits@VBrn@OpenHome@@PAVBrh@2@VBufferCmp@2@V?$allocator@U?$pair@$$CBVBrn@OpenHome@@PAVBrh@2@@std@@@std@@$0A@@std@@@std@@QAE@XZ 0041e310 f i libohNetCore:Service.obj
 0001:0001d380       ?_Key@?$_Tree_val@V?$_Tmap_traits@VBrn@OpenHome@@PAVBrh@2@VBufferCmp@2@V?$allocator@U?$pair@$$CBVBrn@OpenHome@@PAVBrh@2@@std@@@std@@$0A@@std@@@std@@SGAAVBrn@OpenHome@@PAU_Node@?$_Tree_nod@V?$_Tmap_traits@VBrn@OpenHome@@PAVBrh@2@VBufferCmp@2@V?$allocator@U?$pair@$$CBVBrn@OpenHome@@PAVBrh@2@@std@@@std@@$0A@@std@@@2@@Z 0041e380 f i libohNetCore:Service.obj
 0001:0001d3a0       ??0?$allocator@U?$pair@$$CBVBrn@OpenHome@@PAVBrh@2@@std@@@std@@QAE@XZ 0041e3a0 f i libohNetCore:Service.obj
 0001:0001d3c0       ?_Inside@?$vector@PAVParameter@Net@OpenHome@@V?$allocator@PAVParameter@Net@OpenHome@@@std@@@std@@IBE_NPBQAVParameter@Net@OpenHome@@@Z 0041e3c0 f i libohNetCore:Service.obj
 0001:0001d410       ?_Reserve@?$vector@PAVParameter@Net@OpenHome@@V?$allocator@PAVParameter@Net@OpenHome@@@std@@@std@@IAEXI@Z 0041e410 f i libohNetCore:Service.obj
 0001:0001d490       ?_Tidy@?$vector@PAVParameter@Net@OpenHome@@V?$allocator@PAVParameter@Net@OpenHome@@@std@@@std@@IAEXXZ 0041e490 f i libohNetCore:Service.obj
 0001:0001d520       ?_Orphan_range@?$vector@PAVParameter@Net@OpenHome@@V?$allocator@PAVParameter@Net@OpenHome@@@std@@@std@@IBEXPAPAVParameter@Net@OpenHome@@0@Z 0041e520 f i libohNetCore:Service.obj
 0001:0001d630       ??0?$_Vector_val@PAVParameter@Net@OpenHome@@V?$allocator@PAVParameter@Net@OpenHome@@@std@@@std@@QAE@V?$allocator@PAVParameter@Net@OpenHome@@@1@@Z 0041e630 f i libohNetCore:Service.obj
 0001:0001d750       ??1?$_Vector_val@PAVParameter@Net@OpenHome@@V?$allocator@PAVParameter@Net@OpenHome@@@std@@@std@@QAE@XZ 0041e750 f i libohNetCore:Service.obj
 0001:0001d830       ??0?$allocator@PAVParameter@Net@OpenHome@@@std@@QAE@XZ 0041e830 f i libohNetCore:Service.obj
 0001:0001d850       ??0?$_Tree_iterator@V?$_Tree_val@V?$_Tmap_traits@VBrn@OpenHome@@PAVBrh@2@VBufferCmp@2@V?$allocator@U?$pair@$$CBVBrn@OpenHome@@PAVBrh@2@@std@@@std@@$0A@@std@@@std@@@std@@QAE@PAU_Node@?$_Tree_nod@V?$_Tmap_traits@VBrn@OpenHome@@PAVBrh@2@VBufferCmp@2@V?$allocator@U?$pair@$$CBVBrn@OpenHome@@PAVBrh@2@@std@@@std@@$0A@@std@@@1@PBV?$_Tree_val@V?$_Tmap_traits@VBrn@OpenHome@@PAVBrh@2@VBufferCmp@2@V?$allocator@U?$pair@$$CBVBrn@OpenHome@@PAVBrh@2@@std@@@std@@$0A@@std@@@1@@Z 0041e850 f i libohNetCore:Service.obj
 0001:0001d890       ??D?$_Tree_iterator@V?$_Tree_val@V?$_Tmap_traits@VBrn@OpenHome@@PAVBrh@2@VBufferCmp@2@V?$allocator@U?$pair@$$CBVBrn@OpenHome@@PAVBrh@2@@std@@@std@@$0A@@std@@@std@@@std@@QBEAAU?$pair@$$CBVBrn@OpenHome@@PAVBrh@2@@1@XZ 0041e890 f i libohNetCore:Service.obj
 0001:0001d8c0       ??E?$_Tree_iterator@V?$_Tree_val@V?$_Tmap_traits@VBrn@OpenHome@@PAVBrh@2@VBufferCmp@2@V?$allocator@U?$pair@$$CBVBrn@OpenHome@@PAVBrh@2@@std@@@std@@$0A@@std@@@std@@@std@@QAEAAV01@XZ 0041e8c0 f i libohNetCore:Service.obj
 0001:0001d8f0       ??0?$_Tree_const_iterator@V?$_Tree_val@V?$_Tmap_traits@VBrn@OpenHome@@PAVBrh@2@VBufferCmp@2@V?$allocator@U?$pair@$$CBVBrn@OpenHome@@PAVBrh@2@@std@@@std@@$0A@@std@@@std@@@std@@QAE@PAU_Node@?$_Tree_nod@V?$_Tmap_traits@VBrn@OpenHome@@PAVBrh@2@VBufferCmp@2@V?$allocator@U?$pair@$$CBVBrn@OpenHome@@PAVBrh@2@@std@@@std@@$0A@@std@@@1@PBV?$_Tree_val@V?$_Tmap_traits@VBrn@OpenHome@@PAVBrh@2@VBufferCmp@2@V?$allocator@U?$pair@$$CBVBrn@OpenHome@@PAVBrh@2@@std@@@std@@$0A@@std@@@1@@Z 0041e8f0 f i libohNetCore:Service.obj
 0001:0001d930       ?_Mynode@?$_Tree_unchecked_const_iterator@V?$_Tree_val@V?$_Tmap_traits@VBrn@OpenHome@@PAVBrh@2@VBufferCmp@2@V?$allocator@U?$pair@$$CBVBrn@OpenHome@@PAVBrh@2@@std@@@std@@$0A@@std@@@std@@U_Iterator_base12@2@@std@@QBEPAU_Node@?$_Tree_nod@V?$_Tmap_traits@VBrn@OpenHome@@PAVBrh@2@VBufferCmp@2@V?$allocator@U?$pair@$$CBVBrn@OpenHome@@PAVBrh@2@@std@@@std@@$0A@@std@@@2@XZ 0041e930 f i libohNetCore:Service.obj
 0001:0001d950       ?erase@?$_Tree@V?$_Tmap_traits@VBrn@OpenHome@@PAVBrh@2@VBufferCmp@2@V?$allocator@U?$pair@$$CBVBrn@OpenHome@@PAVBrh@2@@std@@@std@@$0A@@std@@@std@@QAE?AV?$_Tree_iterator@V?$_Tree_val@V?$_Tmap_traits@VBrn@OpenHome@@PAVBrh@2@VBufferCmp@2@V?$allocator@U?$pair@$$CBVBrn@OpenHome@@PAVBrh@2@@std@@@std@@$0A@@std@@@std@@@2@V?$_Tree_const_iterator@V?$_Tree_val@V?$_Tmap_traits@VBrn@OpenHome@@PAVBrh@2@VBufferCmp@2@V?$allocator@U?$pair@$$CBVBrn@OpenHome@@PAVBrh@2@@std@@@std@@$0A@@std@@@std@@@2@0@Z 0041e950 f i libohNetCore:Service.obj
 0001:0001db50       ?_Lbound@?$_Tree@V?$_Tmap_traits@VBrn@OpenHome@@PAVBrh@2@VBufferCmp@2@V?$allocator@U?$pair@$$CBVBrn@OpenHome@@PAVBrh@2@@std@@@std@@$0A@@std@@@std@@IBEPAU_Node@?$_Tree_nod@V?$_Tmap_traits@VBrn@OpenHome@@PAVBrh@2@VBufferCmp@2@V?$allocator@U?$pair@$$CBVBrn@OpenHome@@PAVBrh@2@@std@@@std@@$0A@@std@@@2@ABVBrn@OpenHome@@@Z 0041eb50 f i libohNetCore:Service.obj
 0001:0001dc00       ??0?$_Tree_val@V?$_Tmap_traits@VBrn@OpenHome@@PAVBrh@2@VBufferCmp@2@V?$allocator@U?$pair@$$CBVBrn@OpenHome@@PAVBrh@2@@std@@@std@@$0A@@std@@@std@@QAE@ABVBufferCmp@OpenHome@@V?$allocator@U?$pair@$$CBVBrn@OpenHome@@PAVBrh@2@@std@@@1@@Z 0041ec00 f i libohNetCore:Service.obj
 0001:0001dd00       ?_Left@?$_Tree_val@V?$_Tmap_traits@VBrn@OpenHome@@PAVBrh@2@VBufferCmp@2@V?$allocator@U?$pair@$$CBVBrn@OpenHome@@PAVBrh@2@@std@@@std@@$0A@@std@@@std@@SGAAPAU_Node@?$_Tree_nod@V?$_Tmap_traits@VBrn@OpenHome@@PAVBrh@2@VBufferCmp@2@V?$allocator@U?$pair@$$CBVBrn@OpenHome@@PAVBrh@2@@std@@@std@@$0A@@std@@@2@PAU342@@Z 0041ed00 f i libohNetCore:Service.obj
 0001:0001dd10       ?_Myval@?$_Tree_val@V?$_Tmap_traits@VBrn@OpenHome@@PAVBrh@2@VBufferCmp@2@V?$allocator@U?$pair@$$CBVBrn@OpenHome@@PAVBrh@2@@std@@@std@@$0A@@std@@@std@@SGAAU?$pair@$$CBVBrn@OpenHome@@PAVBrh@2@@2@PAU_Node@?$_Tree_nod@V?$_Tmap_traits@VBrn@OpenHome@@PAVBrh@2@VBufferCmp@2@V?$allocator@U?$pair@$$CBVBrn@OpenHome@@PAVBrh@2@@std@@@std@@$0A@@std@@@2@@Z 0041ed10 f i libohNetCore:Service.obj
 0001:0001dd20       ??1?$_Tree_nod@V?$_Tmap_traits@VBrn@OpenHome@@PAVBrh@2@VBufferCmp@2@V?$allocator@U?$pair@$$CBVBrn@OpenHome@@PAVBrh@2@@std@@@std@@$0A@@std@@@std@@QAE@XZ 0041ed20 f i libohNetCore:Service.obj
 0001:0001de00       ??0?$allocator@U?$pair@$$CBVBrn@OpenHome@@PAVBrh@2@@std@@@std@@QAE@ABV01@@Z 0041ee00 f i libohNetCore:Service.obj
 0001:0001de20       ?deallocate@?$allocator@U_Node@?$_Tree_nod@V?$_Tmap_traits@VBrn@OpenHome@@PAVBrh@2@VBufferCmp@2@V?$allocator@U?$pair@$$CBVBrn@OpenHome@@PAVBrh@2@@std@@@std@@$0A@@std@@@std@@@std@@QAEXPAU_Node@?$_Tree_nod@V?$_Tmap_traits@VBrn@OpenHome@@PAVBrh@2@VBufferCmp@2@V?$allocator@U?$pair@$$CBVBrn@OpenHome@@PAVBrh@2@@std@@@std@@$0A@@std@@@2@I@Z 0041ee20 f i libohNetCore:Service.obj
 0001:0001de50       ?reserve@?$vector@PAVParameter@Net@OpenHome@@V?$allocator@PAVParameter@Net@OpenHome@@@std@@@std@@QAEXI@Z 0041ee50 f i libohNetCore:Service.obj
 0001:0001dfc0       ?capacity@?$vector@PAVParameter@Net@OpenHome@@V?$allocator@PAVParameter@Net@OpenHome@@@std@@@std@@QBEIXZ 0041efc0 f i libohNetCore:Service.obj
 0001:0001dff0       ?max_size@?$vector@PAVParameter@Net@OpenHome@@V?$allocator@PAVParameter@Net@OpenHome@@@std@@@std@@QBEIXZ 0041eff0 f i libohNetCore:Service.obj
 0001:0001e020       ?_Destroy@?$vector@PAVParameter@Net@OpenHome@@V?$allocator@PAVParameter@Net@OpenHome@@@std@@@std@@IAEXPAPAVParameter@Net@OpenHome@@0@Z 0041f020 f i libohNetCore:Service.obj
 0001:0001e060       ?_Grow_to@?$vector@PAVParameter@Net@OpenHome@@V?$allocator@PAVParameter@Net@OpenHome@@@std@@@std@@IBEII@Z 0041f060 f i libohNetCore:Service.obj
 0001:0001e0e0       ?_Xlen@?$vector@PAVParameter@Net@OpenHome@@V?$allocator@PAVParameter@Net@OpenHome@@@std@@@std@@IBEXXZ 0041f0e0 f i libohNetCore:Service.obj
 0001:0001e110       ??0?$allocator@PAVParameter@Net@OpenHome@@@std@@QAE@ABV01@@Z 0041f110 f i libohNetCore:Service.obj
 0001:0001e130       ?deallocate@?$allocator@PAVParameter@Net@OpenHome@@@std@@QAEXPAPAVParameter@Net@OpenHome@@I@Z 0041f130 f i libohNetCore:Service.obj
 0001:0001e160       ??D?$_Tree_const_iterator@V?$_Tree_val@V?$_Tmap_traits@VBrn@OpenHome@@PAVBrh@2@VBufferCmp@2@V?$allocator@U?$pair@$$CBVBrn@OpenHome@@PAVBrh@2@@std@@@std@@$0A@@std@@@std@@@std@@QBEABU?$pair@$$CBVBrn@OpenHome@@PAVBrh@2@@1@XZ 0041f160 f i libohNetCore:Service.obj
 0001:0001e220       ??E?$_Tree_const_iterator@V?$_Tree_val@V?$_Tmap_traits@VBrn@OpenHome@@PAVBrh@2@VBufferCmp@2@V?$allocator@U?$pair@$$CBVBrn@OpenHome@@PAVBrh@2@@std@@@std@@$0A@@std@@@std@@@std@@QAEAAV01@XZ 0041f220 f i libohNetCore:Service.obj
 0001:0001e2e0       ??0?$_Tree_unchecked_const_iterator@V?$_Tree_val@V?$_Tmap_traits@VBrn@OpenHome@@PAVBrh@2@VBufferCmp@2@V?$allocator@U?$pair@$$CBVBrn@OpenHome@@PAVBrh@2@@std@@@std@@$0A@@std@@@std@@U_Iterator_base12@2@@std@@QAE@PAU_Node@?$_Tree_nod@V?$_Tmap_traits@VBrn@OpenHome@@PAVBrh@2@VBufferCmp@2@V?$allocator@U?$pair@$$CBVBrn@OpenHome@@PAVBrh@2@@std@@@std@@$0A@@std@@@1@PBV?$_Tree_val@V?$_Tmap_traits@VBrn@OpenHome@@PAVBrh@2@VBufferCmp@2@V?$allocator@U?$pair@$$CBVBrn@OpenHome@@PAVBrh@2@@std@@@std@@$0A@@std@@@1@@Z 0041f2e0 f i libohNetCore:Service.obj
 0001:0001e360       ??1?$_Tmap_traits@VBrn@OpenHome@@PAVBrh@2@VBufferCmp@2@V?$allocator@U?$pair@$$CBVBrn@OpenHome@@PAVBrh@2@@std@@@std@@$0A@@std@@QAE@XZ 0041f360 f i libohNetCore:Service.obj
 0001:0001e390       ??0?$_Iterator012@Ubidirectional_iterator_tag@std@@U?$pair@$$CBVBrn@OpenHome@@PAVBrh@2@@2@HPBU32@ABU32@U_Iterator_base12@2@@std@@QAE@XZ 0041f390 f i libohNetCore:Service.obj
 0001:0001e3c0       ?erase@?$_Tree@V?$_Tmap_traits@VBrn@OpenHome@@PAVBrh@2@VBufferCmp@2@V?$allocator@U?$pair@$$CBVBrn@OpenHome@@PAVBrh@2@@std@@@std@@$0A@@std@@@std@@QAE?AV?$_Tree_iterator@V?$_Tree_val@V?$_Tmap_traits@VBrn@OpenHome@@PAVBrh@2@VBufferCmp@2@V?$allocator@U?$pair@$$CBVBrn@OpenHome@@PAVBrh@2@@std@@@std@@$0A@@std@@@std@@@2@V?$_Tree_const_iterator@V?$_Tree_val@V?$_Tmap_traits@VBrn@OpenHome@@PAVBrh@2@VBufferCmp@2@V?$allocator@U?$pair@$$CBVBrn@OpenHome@@PAVBrh@2@@std@@@std@@$0A@@std@@@std@@@2@@Z 0041f3c0 f i libohNetCore:Service.obj
 0001:0001ead0       ?clear@?$_Tree@V?$_Tmap_traits@VBrn@OpenHome@@PAVBrh@2@VBufferCmp@2@V?$allocator@U?$pair@$$CBVBrn@OpenHome@@PAVBrh@2@@std@@@std@@$0A@@std@@@std@@QAEXXZ 0041fad0 f i libohNetCore:Service.obj
 0001:0001eb50       ?_Root@?$_Tree@V?$_Tmap_traits@VBrn@OpenHome@@PAVBrh@2@VBufferCmp@2@V?$allocator@U?$pair@$$CBVBrn@OpenHome@@PAVBrh@2@@std@@@std@@$0A@@std@@@std@@IBEAAPAU_Node@?$_Tree_nod@V?$_Tmap_traits@VBrn@OpenHome@@PAVBrh@2@VBufferCmp@2@V?$allocator@U?$pair@$$CBVBrn@OpenHome@@PAVBrh@2@@std@@@std@@$0A@@std@@@2@XZ 0041fb50 f i libohNetCore:Service.obj
 0001:0001eb80       ?_Color@?$_Tree_val@V?$_Tmap_traits@VBrn@OpenHome@@PAVBrh@2@VBufferCmp@2@V?$allocator@U?$pair@$$CBVBrn@OpenHome@@PAVBrh@2@@std@@@std@@$0A@@std@@@std@@SGAADPAU_Node@?$_Tree_nod@V?$_Tmap_traits@VBrn@OpenHome@@PAVBrh@2@VBufferCmp@2@V?$allocator@U?$pair@$$CBVBrn@OpenHome@@PAVBrh@2@@std@@@std@@$0A@@std@@@2@@Z 0041fb80 f i libohNetCore:Service.obj
 0001:0001eb90       ?_Isnil@?$_Tree_val@V?$_Tmap_traits@VBrn@OpenHome@@PAVBrh@2@VBufferCmp@2@V?$allocator@U?$pair@$$CBVBrn@OpenHome@@PAVBrh@2@@std@@@std@@$0A@@std@@@std@@SGAADPAU_Node@?$_Tree_nod@V?$_Tmap_traits@VBrn@OpenHome@@PAVBrh@2@VBufferCmp@2@V?$allocator@U?$pair@$$CBVBrn@OpenHome@@PAVBrh@2@@std@@@std@@$0A@@std@@@2@@Z 0041fb90 f i libohNetCore:Service.obj
 0001:0001eba0       ?_Parent@?$_Tree_val@V?$_Tmap_traits@VBrn@OpenHome@@PAVBrh@2@VBufferCmp@2@V?$allocator@U?$pair@$$CBVBrn@OpenHome@@PAVBrh@2@@std@@@std@@$0A@@std@@@std@@SGAAPAU_Node@?$_Tree_nod@V?$_Tmap_traits@VBrn@OpenHome@@PAVBrh@2@VBufferCmp@2@V?$allocator@U?$pair@$$CBVBrn@OpenHome@@PAVBrh@2@@std@@@std@@$0A@@std@@@2@PAU342@@Z 0041fba0 f i libohNetCore:Service.obj
 0001:0001ebb0       ?_Right@?$_Tree_val@V?$_Tmap_traits@VBrn@OpenHome@@PAVBrh@2@VBufferCmp@2@V?$allocator@U?$pair@$$CBVBrn@OpenHome@@PAVBrh@2@@std@@@std@@$0A@@std@@@std@@SGAAPAU_Node@?$_Tree_nod@V?$_Tmap_traits@VBrn@OpenHome@@PAVBrh@2@VBufferCmp@2@V?$allocator@U?$pair@$$CBVBrn@OpenHome@@PAVBrh@2@@std@@@std@@$0A@@std@@@2@PAU342@@Z 0041fbb0 f i libohNetCore:Service.obj
 0001:0001ebc0       ??0?$_Tree_nod@V?$_Tmap_traits@VBrn@OpenHome@@PAVBrh@2@VBufferCmp@2@V?$allocator@U?$pair@$$CBVBrn@OpenHome@@PAVBrh@2@@std@@@std@@$0A@@std@@@std@@QAE@ABVBufferCmp@OpenHome@@V?$allocator@U?$pair@$$CBVBrn@OpenHome@@PAVBrh@2@@std@@@1@@Z 0041fbc0 f i libohNetCore:Service.obj
 0001:0001ecd0       ?allocate@?$allocator@U_Node@?$_Tree_nod@V?$_Tmap_traits@VBrn@OpenHome@@PAVBrh@2@VBufferCmp@2@V?$allocator@U?$pair@$$CBVBrn@OpenHome@@PAVBrh@2@@std@@@std@@$0A@@std@@@std@@@std@@QAEPAU_Node@?$_Tree_nod@V?$_Tmap_traits@VBrn@OpenHome@@PAVBrh@2@VBufferCmp@2@V?$allocator@U?$pair@$$CBVBrn@OpenHome@@PAVBrh@2@@std@@@std@@$0A@@std@@@2@I@Z 0041fcd0 f i libohNetCore:Service.obj
 0001:0001ed00       ?allocate@?$allocator@PAVParameter@Net@OpenHome@@@std@@QAEPAPAVParameter@Net@OpenHome@@I@Z 0041fd00 f i libohNetCore:Service.obj
 0001:0001ed30       ?max_size@?$allocator@PAVParameter@Net@OpenHome@@@std@@QBEIXZ 0041fd30 f i libohNetCore:Service.obj
 0001:0001ed80       ??E?$_Tree_const_iterator@V?$_Tree_val@V?$_Tmap_traits@VBrn@OpenHome@@PAVBrh@2@VBufferCmp@2@V?$allocator@U?$pair@$$CBVBrn@OpenHome@@PAVBrh@2@@std@@@std@@$0A@@std@@@std@@@std@@QAE?AV01@H@Z 0041fd80 f i libohNetCore:Service.obj
 0001:0001ee50       ??E?$_Tree_unchecked_const_iterator@V?$_Tree_val@V?$_Tmap_traits@VBrn@OpenHome@@PAVBrh@2@VBufferCmp@2@V?$allocator@U?$pair@$$CBVBrn@OpenHome@@PAVBrh@2@@std@@@std@@$0A@@std@@@std@@U_Iterator_base12@2@@std@@QAEAAV01@XZ 0041fe50 f i libohNetCore:Service.obj
 0001:0001ef10       ?_Erase@?$_Tree@V?$_Tmap_traits@VBrn@OpenHome@@PAVBrh@2@VBufferCmp@2@V?$allocator@U?$pair@$$CBVBrn@OpenHome@@PAVBrh@2@@std@@@std@@$0A@@std@@@std@@IAEXPAU_Node@?$_Tree_nod@V?$_Tmap_traits@VBrn@OpenHome@@PAVBrh@2@VBufferCmp@2@V?$allocator@U?$pair@$$CBVBrn@OpenHome@@PAVBrh@2@@std@@@std@@$0A@@std@@@2@@Z 0041ff10 f i libohNetCore:Service.obj
 0001:0001efb0       ?_Lrotate@?$_Tree@V?$_Tmap_traits@VBrn@OpenHome@@PAVBrh@2@VBufferCmp@2@V?$allocator@U?$pair@$$CBVBrn@OpenHome@@PAVBrh@2@@std@@@std@@$0A@@std@@@std@@IAEXPAU_Node@?$_Tree_nod@V?$_Tmap_traits@VBrn@OpenHome@@PAVBrh@2@VBufferCmp@2@V?$allocator@U?$pair@$$CBVBrn@OpenHome@@PAVBrh@2@@std@@@std@@$0A@@std@@@2@@Z 0041ffb0 f i libohNetCore:Service.obj
 0001:0001f0d0       ?_Rmost@?$_Tree@V?$_Tmap_traits@VBrn@OpenHome@@PAVBrh@2@VBufferCmp@2@V?$allocator@U?$pair@$$CBVBrn@OpenHome@@PAVBrh@2@@std@@@std@@$0A@@std@@@std@@IBEAAPAU_Node@?$_Tree_nod@V?$_Tmap_traits@VBrn@OpenHome@@PAVBrh@2@VBufferCmp@2@V?$allocator@U?$pair@$$CBVBrn@OpenHome@@PAVBrh@2@@std@@@std@@$0A@@std@@@2@XZ 004200d0 f i libohNetCore:Service.obj
 0001:0001f100       ?_Rrotate@?$_Tree@V?$_Tmap_traits@VBrn@OpenHome@@PAVBrh@2@VBufferCmp@2@V?$allocator@U?$pair@$$CBVBrn@OpenHome@@PAVBrh@2@@std@@@std@@$0A@@std@@@std@@IAEXPAU_Node@?$_Tree_nod@V?$_Tmap_traits@VBrn@OpenHome@@PAVBrh@2@VBufferCmp@2@V?$allocator@U?$pair@$$CBVBrn@OpenHome@@PAVBrh@2@@std@@@std@@$0A@@std@@@2@@Z 00420100 f i libohNetCore:Service.obj
 0001:0001f220       ?_Orphan_ptr@?$_Tree@V?$_Tmap_traits@VBrn@OpenHome@@PAVBrh@2@VBufferCmp@2@V?$allocator@U?$pair@$$CBVBrn@OpenHome@@PAVBrh@2@@std@@@std@@$0A@@std@@@std@@IBEXAAV12@PAU_Node@?$_Tree_nod@V?$_Tmap_traits@VBrn@OpenHome@@PAVBrh@2@VBufferCmp@2@V?$allocator@U?$pair@$$CBVBrn@OpenHome@@PAVBrh@2@@std@@@std@@$0A@@std@@@2@@Z 00420220 f i libohNetCore:Service.obj
 0001:0001f330       ?_Max@?$_Tree_val@V?$_Tmap_traits@VBrn@OpenHome@@PAVBrh@2@VBufferCmp@2@V?$allocator@U?$pair@$$CBVBrn@OpenHome@@PAVBrh@2@@std@@@std@@$0A@@std@@@std@@SGPAU_Node@?$_Tree_nod@V?$_Tmap_traits@VBrn@OpenHome@@PAVBrh@2@VBufferCmp@2@V?$allocator@U?$pair@$$CBVBrn@OpenHome@@PAVBrh@2@@std@@@std@@$0A@@std@@@2@PAU342@@Z 00420330 f i libohNetCore:Service.obj
 0001:0001f370       ?_Min@?$_Tree_val@V?$_Tmap_traits@VBrn@OpenHome@@PAVBrh@2@VBufferCmp@2@V?$allocator@U?$pair@$$CBVBrn@OpenHome@@PAVBrh@2@@std@@@std@@$0A@@std@@@std@@SGPAU_Node@?$_Tree_nod@V?$_Tmap_traits@VBrn@OpenHome@@PAVBrh@2@VBufferCmp@2@V?$allocator@U?$pair@$$CBVBrn@OpenHome@@PAVBrh@2@@std@@@std@@$0A@@std@@@2@PAU342@@Z 00420370 f i libohNetCore:Service.obj
 0001:0001f3b0       ??0?$_Tmap_traits@VBrn@OpenHome@@PAVBrh@2@VBufferCmp@2@V?$allocator@U?$pair@$$CBVBrn@OpenHome@@PAVBrh@2@@std@@@std@@$0A@@std@@QAE@VBufferCmp@OpenHome@@@Z 004203b0 f i libohNetCore:Service.obj
 0001:0001f3e0       ??$?0AAVBrn@OpenHome@@AAPAVBrh@1@@?$pair@VBrn@OpenHome@@PAVBrh@2@@std@@QAE@AAVBrn@OpenHome@@AAPAVBrh@3@@Z 004203e0 f i libohNetCore:Service.obj
 0001:0001f420       ??$insert@U?$pair@VBrn@OpenHome@@PAVBrh@2@@std@@@?$_Tree@V?$_Tmap_traits@VBrn@OpenHome@@PAVBrh@2@VBufferCmp@2@V?$allocator@U?$pair@$$CBVBrn@OpenHome@@PAVBrh@2@@std@@@std@@$0A@@std@@@std@@QAE?AU?$pair@V?$_Tree_iterator@V?$_Tree_val@V?$_Tmap_traits@VBrn@OpenHome@@PAVBrh@2@VBufferCmp@2@V?$allocator@U?$pair@$$CBVBrn@OpenHome@@PAVBrh@2@@std@@@std@@$0A@@std@@@std@@@std@@_N@1@$$QAU?$pair@VBrn@OpenHome@@PAVBrh@2@@1@@Z 00420420 f i libohNetCore:Service.obj
 0001:0001f480       ??$addressof@QAVParameter@Net@OpenHome@@@std@@YGPBQAVParameter@Net@OpenHome@@ABQAV123@@Z 00420480 f i libohNetCore:Service.obj
 0001:0001f490       ??$_Cons_val@V?$allocator@PAVParameter@Net@OpenHome@@@std@@PAVParameter@Net@OpenHome@@AAPAV345@@std@@YGXAAV?$allocator@PAVParameter@Net@OpenHome@@@0@PAPAVParameter@Net@OpenHome@@AAPAV234@@Z 00420490 f i libohNetCore:Service.obj
 0001:0001f4c0       ??$_Cons_val@V?$allocator@PAVParameter@Net@OpenHome@@@std@@PAVParameter@Net@OpenHome@@ABQAV345@@std@@YGXAAV?$allocator@PAVParameter@Net@OpenHome@@@0@PAPAVParameter@Net@OpenHome@@ABQAV234@@Z 004204c0 f i libohNetCore:Service.obj
 0001:0001f4f0       ??$_Kfn@$$CBVBrn@OpenHome@@PAVBrh@2@@?$_Tmap_traits@VBrn@OpenHome@@PAVBrh@2@VBufferCmp@2@V?$allocator@U?$pair@$$CBVBrn@OpenHome@@PAVBrh@2@@std@@@std@@$0A@@std@@SGABVBrn@OpenHome@@ABU?$pair@$$CBVBrn@OpenHome@@PAVBrh@2@@1@@Z 004204f0 f i libohNetCore:Service.obj
 0001:0001f500       ??$?0PAVParameter@Net@OpenHome@@@?$allocator@U_Container_proxy@std@@@std@@QAE@ABV?$allocator@PAVParameter@Net@OpenHome@@@1@@Z 00420500 f i libohNetCore:Service.obj
 0001:0001f520       ??$?0U_Node@?$_Tree_nod@V?$_Tmap_traits@VBrn@OpenHome@@PAVBrh@2@VBufferCmp@2@V?$allocator@U?$pair@$$CBVBrn@OpenHome@@PAVBrh@2@@std@@@std@@$0A@@std@@@std@@@?$allocator@U_Container_proxy@std@@@std@@QAE@ABV?$allocator@U_Node@?$_Tree_nod@V?$_Tmap_traits@VBrn@OpenHome@@PAVBrh@2@VBufferCmp@2@V?$allocator@U?$pair@$$CBVBrn@OpenHome@@PAVBrh@2@@std@@@std@@$0A@@std@@@std@@@1@@Z 00420520 f i libohNetCore:Service.obj
 0001:0001f540       ??$_Umove@PAPAVParameter@Net@OpenHome@@@?$vector@PAVParameter@Net@OpenHome@@V?$allocator@PAVParameter@Net@OpenHome@@@std@@@std@@IAEPAPAVParameter@Net@OpenHome@@PAPAV234@00@Z 00420540 f i libohNetCore:Service.obj
 0001:0001f580       ??$_Destroy_range@V?$allocator@PAVParameter@Net@OpenHome@@@std@@@std@@YGXPAPAVParameter@Net@OpenHome@@0AAV?$allocator@PAVParameter@Net@OpenHome@@@0@@Z 00420580 f i libohNetCore:Service.obj
 0001:0001f5d0       ??$addressof@U?$pair@$$CBVBrn@OpenHome@@PAVBrh@2@@std@@@std@@YGPAU?$pair@$$CBVBrn@OpenHome@@PAVBrh@2@@0@AAU10@@Z 004205d0 f i libohNetCore:Service.obj
 0001:0001f5e0       ??$_Dest_val@V?$allocator@U?$pair@$$CBVBrn@OpenHome@@PAVBrh@2@@std@@@std@@U?$pair@$$CBVBrn@OpenHome@@PAVBrh@2@@2@@std@@YGXAAV?$allocator@U?$pair@$$CBVBrn@OpenHome@@PAVBrh@2@@std@@@0@PAU?$pair@$$CBVBrn@OpenHome@@PAVBrh@2@@0@@Z 004205e0 f i libohNetCore:Service.obj
 0001:0001f600       ??$?0U?$pair@$$CBVBrn@OpenHome@@PAVBrh@2@@std@@@?$allocator@U_Node@?$_Tree_nod@V?$_Tmap_traits@VBrn@OpenHome@@PAVBrh@2@VBufferCmp@2@V?$allocator@U?$pair@$$CBVBrn@OpenHome@@PAVBrh@2@@std@@@std@@$0A@@std@@@std@@@std@@QAE@ABV?$allocator@U?$pair@$$CBVBrn@OpenHome@@PAVBrh@2@@std@@@1@@Z 00420600 f i libohNetCore:Service.obj
 0001:0001f620       ??$_Allocate@U_Node@?$_Tree_nod@V?$_Tmap_traits@VBrn@OpenHome@@PAVBrh@2@VBufferCmp@2@V?$allocator@U?$pair@$$CBVBrn@OpenHome@@PAVBrh@2@@std@@@std@@$0A@@std@@@std@@@std@@YGPAU_Node@?$_Tree_nod@V?$_Tmap_traits@VBrn@OpenHome@@PAVBrh@2@VBufferCmp@2@V?$allocator@U?$pair@$$CBVBrn@OpenHome@@PAVBrh@2@@std@@@std@@$0A@@std@@@0@IPAU120@@Z 00420620 f i libohNetCore:Service.obj
 0001:0001f6a0       ??$_Allocate@PAVParameter@Net@OpenHome@@@std@@YGPAPAVParameter@Net@OpenHome@@IPAPAV123@@Z 004206a0 f i libohNetCore:Service.obj
 0001:0001f720       ?_Linsert@?$_Tree@V?$_Tmap_traits@VBrn@OpenHome@@PAVBrh@2@VBufferCmp@2@V?$allocator@U?$pair@$$CBVBrn@OpenHome@@PAVBrh@2@@std@@@std@@$0A@@std@@@std@@QAE?AU?$pair@V?$_Tree_iterator@V?$_Tree_val@V?$_Tmap_traits@VBrn@OpenHome@@PAVBrh@2@VBufferCmp@2@V?$allocator@U?$pair@$$CBVBrn@OpenHome@@PAVBrh@2@@std@@@std@@$0A@@std@@@std@@@std@@_N@2@PAU_Node@?$_Tree_nod@V?$_Tmap_traits@VBrn@OpenHome@@PAVBrh@2@VBufferCmp@2@V?$allocator@U?$pair@$$CBVBrn@OpenHome@@PAVBrh@2@@std@@@std@@$0A@@std@@@2@_N@Z 00420720 f i libohNetCore:Service.obj
 0001:0001fb00       ?destroy@?$allocator@U?$pair@$$CBVBrn@OpenHome@@PAVBrh@2@@std@@@std@@QAEXPAU?$pair@$$CBVBrn@OpenHome@@PAVBrh@2@@2@@Z 00420b00 f i libohNetCore:Service.obj
 0001:0001fb30       ?construct@?$allocator@PAVParameter@Net@OpenHome@@@std@@QAEXPAPAVParameter@Net@OpenHome@@ABQAV345@@Z 00420b30 f i libohNetCore:Service.obj
 0001:0001fb60       ?_Insert@?$_Tree@V?$_Tmap_traits@VBrn@OpenHome@@PAVBrh@2@VBufferCmp@2@V?$allocator@U?$pair@$$CBVBrn@OpenHome@@PAVBrh@2@@std@@@std@@$0A@@std@@@std@@IAE?AV?$_Tree_iterator@V?$_Tree_val@V?$_Tmap_traits@VBrn@OpenHome@@PAVBrh@2@VBufferCmp@2@V?$allocator@U?$pair@$$CBVBrn@OpenHome@@PAVBrh@2@@std@@@std@@$0A@@std@@@std@@@2@_NPAU_Node@?$_Tree_nod@V?$_Tmap_traits@VBrn@OpenHome@@PAVBrh@2@VBufferCmp@2@V?$allocator@U?$pair@$$CBVBrn@OpenHome@@PAVBrh@2@@std@@@std@@$0A@@std@@@2@1@Z 00420b60 f i libohNetCore:Service.obj
 0001:0001ff20       ??0?$pair@V?$_Tree_iterator@V?$_Tree_val@V?$_Tmap_traits@VBrn@OpenHome@@PAVBrh@2@VBufferCmp@2@V?$allocator@U?$pair@$$CBVBrn@OpenHome@@PAVBrh@2@@std@@@std@@$0A@@std@@@std@@@std@@_N@std@@QAE@$$QAV?$_Tree_iterator@V?$_Tree_val@V?$_Tmap_traits@VBrn@OpenHome@@PAVBrh@2@VBufferCmp@2@V?$allocator@U?$pair@$$CBVBrn@OpenHome@@PAVBrh@2@@std@@@std@@$0A@@std@@@std@@@1@$$QA_N@Z 00420f20 f i libohNetCore:Service.obj
 0001:0001ff60       ??F?$_Tree_iterator@V?$_Tree_val@V?$_Tmap_traits@VBrn@OpenHome@@PAVBrh@2@VBufferCmp@2@V?$allocator@U?$pair@$$CBVBrn@OpenHome@@PAVBrh@2@@std@@@std@@$0A@@std@@@std@@@std@@QAEAAV01@XZ 00420f60 f i libohNetCore:Service.obj
 0001:0001ff90       ?max_size@?$_Tree@V?$_Tmap_traits@VBrn@OpenHome@@PAVBrh@2@VBufferCmp@2@V?$allocator@U?$pair@$$CBVBrn@OpenHome@@PAVBrh@2@@std@@@std@@$0A@@std@@@std@@QBEIXZ 00420f90 f i libohNetCore:Service.obj
 0001:0001ffc0       ??0?$_Pair_base@V?$_Tree_iterator@V?$_Tree_val@V?$_Tmap_traits@VBrn@OpenHome@@PAVBrh@2@VBufferCmp@2@V?$allocator@U?$pair@$$CBVBrn@OpenHome@@PAVBrh@2@@std@@@std@@$0A@@std@@@std@@@std@@_N@std@@QAE@$$QAV?$_Tree_iterator@V?$_Tree_val@V?$_Tmap_traits@VBrn@OpenHome@@PAVBrh@2@VBufferCmp@2@V?$allocator@U?$pair@$$CBVBrn@OpenHome@@PAVBrh@2@@std@@@std@@$0A@@std@@@std@@@1@$$QA_N@Z 00420fc0 f i libohNetCore:Service.obj
 0001:00020040       ??F?$_Tree_const_iterator@V?$_Tree_val@V?$_Tmap_traits@VBrn@OpenHome@@PAVBrh@2@VBufferCmp@2@V?$allocator@U?$pair@$$CBVBrn@OpenHome@@PAVBrh@2@@std@@@std@@$0A@@std@@@std@@@std@@QAEAAV01@XZ 00421040 f i libohNetCore:Service.obj
 0001:00020160       ?max_size@?$allocator@U?$pair@$$CBVBrn@OpenHome@@PAVBrh@2@@std@@@std@@QBEIXZ 00421160 f i libohNetCore:Service.obj
 0001:000201b0       ??F?$_Tree_unchecked_const_iterator@V?$_Tree_val@V?$_Tmap_traits@VBrn@OpenHome@@PAVBrh@2@VBufferCmp@2@V?$allocator@U?$pair@$$CBVBrn@OpenHome@@PAVBrh@2@@std@@@std@@$0A@@std@@@std@@U_Iterator_base12@2@@std@@QAEAAV01@XZ 004211b0 f i libohNetCore:Service.obj
 0001:000202a0       ??$forward@AAPAVBrh@OpenHome@@@std@@YGAAPAVBrh@OpenHome@@AAPAV12@@Z 004212a0 f i libohNetCore:Service.obj
 0001:000202b0       ??$?0AAVBrn@OpenHome@@AAPAVBrh@1@@?$_Pair_base@VBrn@OpenHome@@PAVBrh@2@@std@@QAE@AAVBrn@OpenHome@@AAPAVBrh@3@@Z 004212b0 f i libohNetCore:Service.obj
 0001:00020330       ??$forward@U?$pair@VBrn@OpenHome@@PAVBrh@2@@std@@@std@@YG$$QAU?$pair@VBrn@OpenHome@@PAVBrh@2@@0@AAU10@@Z 00421330 f i libohNetCore:Service.obj
 0001:00020340       ??$_Buynode@U?$pair@VBrn@OpenHome@@PAVBrh@2@@std@@@?$_Tree_val@V?$_Tmap_traits@VBrn@OpenHome@@PAVBrh@2@VBufferCmp@2@V?$allocator@U?$pair@$$CBVBrn@OpenHome@@PAVBrh@2@@std@@@std@@$0A@@std@@@std@@QAEPAU_Node@?$_Tree_nod@V?$_Tmap_traits@VBrn@OpenHome@@PAVBrh@2@VBufferCmp@2@V?$allocator@U?$pair@$$CBVBrn@OpenHome@@PAVBrh@2@@std@@@std@@$0A@@std@@@1@$$QAU?$pair@VBrn@OpenHome@@PAVBrh@2@@1@@Z 00421340 f i libohNetCore:Service.obj
 0001:00020420       ??$forward@AAPAVParameter@Net@OpenHome@@@std@@YGAAPAVParameter@Net@OpenHome@@AAPAV123@@Z 00421420 f i libohNetCore:Service.obj
 0001:00020430       ??$construct@AAPAVParameter@Net@OpenHome@@@?$allocator@PAVParameter@Net@OpenHome@@@std@@QAEXPAPAVParameter@Net@OpenHome@@AAPAV234@@Z 00421430 f i libohNetCore:Service.obj
 0001:000204d0       ??$forward@ABQAVParameter@Net@OpenHome@@@std@@YGABQAVParameter@Net@OpenHome@@ABQAV123@@Z 004214d0 f i libohNetCore:Service.obj
 0001:000204e0       ??$_Uninitialized_move@PAPAVParameter@Net@OpenHome@@PAPAV123@V?$allocator@PAVParameter@Net@OpenHome@@@std@@@std@@YGPAPAVParameter@Net@OpenHome@@PAPAV123@00AAV?$allocator@PAVParameter@Net@OpenHome@@@0@@Z 004214e0 f i libohNetCore:Service.obj
 0001:00020530       ??$_Ptr_cat@PAVParameter@Net@OpenHome@@PAV123@@std@@YG?AU_Scalar_ptr_iterator_tag@0@PAPAVParameter@Net@OpenHome@@0@Z 00421530 f i libohNetCore:Service.obj
 0001:00020590       ??$_Destroy_range@V?$allocator@PAVParameter@Net@OpenHome@@@std@@@std@@YGXPAPAVParameter@Net@OpenHome@@0AAV?$allocator@PAVParameter@Net@OpenHome@@@0@U_Scalar_ptr_iterator_tag@0@@Z 00421590 f i libohNetCore:Service.obj
 0001:000205a0       ??$?0AAV?$_Tree_iterator@V?$_Tree_val@V?$_Tmap_traits@VBrn@OpenHome@@PAVBrh@2@VBufferCmp@2@V?$allocator@U?$pair@$$CBVBrn@OpenHome@@PAVBrh@2@@std@@@std@@$0A@@std@@@std@@@std@@_N@?$pair@V?$_Tree_iterator@V?$_Tree_val@V?$_Tmap_traits@VBrn@OpenHome@@PAVBrh@2@VBufferCmp@2@V?$allocator@U?$pair@$$CBVBrn@OpenHome@@PAVBrh@2@@std@@@std@@$0A@@std@@@std@@@std@@_N@std@@QAE@AAV?$_Tree_iterator@V?$_Tree_val@V?$_Tmap_traits@VBrn@OpenHome@@PAVBrh@2@VBufferCmp@2@V?$allocator@U?$pair@$$CBVBrn@OpenHome@@PAVBrh@2@@std@@@std@@$0A@@std@@@std@@@1@$$QA_N@Z 004215a0 f i libohNetCore:Service.obj
 0001:000205e0       ??$_Destroy@U?$pair@$$CBVBrn@OpenHome@@PAVBrh@2@@std@@@std@@YGXPAU?$pair@$$CBVBrn@OpenHome@@PAVBrh@2@@0@@Z 004215e0 f i libohNetCore:Service.obj
 0001:00020600       ??$_Construct@PAVParameter@Net@OpenHome@@ABQAV123@@std@@YGXPAPAVParameter@Net@OpenHome@@ABQAV123@@Z 00421600 f i libohNetCore:Service.obj
 0001:000206b0       ??$move@AAV?$_Tree_iterator@V?$_Tree_val@V?$_Tmap_traits@VBrn@OpenHome@@PAVBrh@2@VBufferCmp@2@V?$allocator@U?$pair@$$CBVBrn@OpenHome@@PAVBrh@2@@std@@@std@@$0A@@std@@@std@@@std@@@std@@YG$$QAV?$_Tree_iterator@V?$_Tree_val@V?$_Tmap_traits@VBrn@OpenHome@@PAVBrh@2@VBufferCmp@2@V?$allocator@U?$pair@$$CBVBrn@OpenHome@@PAVBrh@2@@std@@@std@@$0A@@std@@@std@@@0@AAV10@@Z 004216b0 f i libohNetCore:Service.obj
 0001:000206c0       ??_G?$pair@$$CBVBrn@OpenHome@@PAVBrh@2@@std@@QAEPAXI@Z 004216c0 f i libohNetCore:Service.obj
 0001:00020700       ??1?$pair@$$CBVBrn@OpenHome@@PAVBrh@2@@std@@QAE@XZ 00421700 f i libohNetCore:Service.obj
 0001:00020730       ??1?$_Pair_base@$$CBVBrn@OpenHome@@PAVBrh@2@@std@@QAE@XZ 00421730 f i libohNetCore:Service.obj
 0001:00020760       ?_Buynode@?$_Tree_val@V?$_Tmap_traits@VBrn@OpenHome@@PAVBrh@2@VBufferCmp@2@V?$allocator@U?$pair@$$CBVBrn@OpenHome@@PAVBrh@2@@std@@@std@@$0A@@std@@@std@@QAEPAU_Node@?$_Tree_nod@V?$_Tmap_traits@VBrn@OpenHome@@PAVBrh@2@VBufferCmp@2@V?$allocator@U?$pair@$$CBVBrn@OpenHome@@PAVBrh@2@@std@@@std@@$0A@@std@@@2@XZ 00421760 f i libohNetCore:Service.obj
 0001:000207f0       ??$_Cons_val@V?$allocator@U?$pair@$$CBVBrn@OpenHome@@PAVBrh@2@@std@@@std@@U?$pair@$$CBVBrn@OpenHome@@PAVBrh@2@@2@U?$pair@VBrn@OpenHome@@PAVBrh@2@@2@@std@@YGXAAV?$allocator@U?$pair@$$CBVBrn@OpenHome@@PAVBrh@2@@std@@@0@PAU?$pair@$$CBVBrn@OpenHome@@PAVBrh@2@@0@$$QAU?$pair@VBrn@OpenHome@@PAVBrh@2@@0@@Z 004217f0 f i libohNetCore:Service.obj
 0001:00020820       ??$_Val_type@PAPAVParameter@Net@OpenHome@@@std@@YGPAPAVParameter@Net@OpenHome@@PAPAV123@@Z 00421820 f i libohNetCore:Service.obj
 0001:00020830       ??$_Uninit_move@PAVParameter@Net@OpenHome@@PAV123@PAV123@@std@@YGPAPAVParameter@Net@OpenHome@@PAPAV123@00AAV?$allocator@PAVParameter@Net@OpenHome@@@0@0U_Scalar_ptr_iterator_tag@0@@Z 00421830 f i libohNetCore:Service.obj
 0001:000208a0       ??$forward@AAV?$_Tree_iterator@V?$_Tree_val@V?$_Tmap_traits@VBrn@OpenHome@@PAVBrh@2@VBufferCmp@2@V?$allocator@U?$pair@$$CBVBrn@OpenHome@@PAVBrh@2@@std@@@std@@$0A@@std@@@std@@@std@@@std@@YGAAV?$_Tree_iterator@V?$_Tree_val@V?$_Tmap_traits@VBrn@OpenHome@@PAVBrh@2@VBufferCmp@2@V?$allocator@U?$pair@$$CBVBrn@OpenHome@@PAVBrh@2@@std@@@std@@$0A@@std@@@std@@@0@AAV10@@Z 004218a0 f i libohNetCore:Service.obj
 0001:000208b0       ??$?0AAV?$_Tree_iterator@V?$_Tree_val@V?$_Tmap_traits@VBrn@OpenHome@@PAVBrh@2@VBufferCmp@2@V?$allocator@U?$pair@$$CBVBrn@OpenHome@@PAVBrh@2@@std@@@std@@$0A@@std@@@std@@@std@@_N@?$_Pair_base@V?$_Tree_iterator@V?$_Tree_val@V?$_Tmap_traits@VBrn@OpenHome@@PAVBrh@2@VBufferCmp@2@V?$allocator@U?$pair@$$CBVBrn@OpenHome@@PAVBrh@2@@std@@@std@@$0A@@std@@@std@@@std@@_N@std@@QAE@AAV?$_Tree_iterator@V?$_Tree_val@V?$_Tmap_traits@VBrn@OpenHome@@PAVBrh@2@VBufferCmp@2@V?$allocator@U?$pair@$$CBVBrn@OpenHome@@PAVBrh@2@@std@@@std@@$0A@@std@@@std@@@1@$$QA_N@Z 004218b0 f i libohNetCore:Service.obj
 0001:00020930       ??$construct@U?$pair@VBrn@OpenHome@@PAVBrh@2@@std@@@?$allocator@U?$pair@$$CBVBrn@OpenHome@@PAVBrh@2@@std@@@std@@QAEXPAU?$pair@$$CBVBrn@OpenHome@@PAVBrh@2@@1@$$QAU?$pair@VBrn@OpenHome@@PAVBrh@2@@1@@Z 00421930 f i libohNetCore:Service.obj
 0001:000209d0       ??$_Debug_range@PAPAVParameter@Net@OpenHome@@@std@@YGXPAPAVParameter@Net@OpenHome@@0PB_WI@Z 004219d0 f i libohNetCore:Service.obj
 0001:00020a20       ??$_Debug_pointer@PAVParameter@Net@OpenHome@@@std@@YGXPAPAVParameter@Net@OpenHome@@PB_WI@Z 00421a20 f i libohNetCore:Service.obj
 0001:00020a50       ??$?0VBrn@OpenHome@@PAVBrh@1@@?$pair@$$CBVBrn@OpenHome@@PAVBrh@2@@std@@QAE@$$QAU?$pair@VBrn@OpenHome@@PAVBrh@2@@1@@Z 00421a50 f i libohNetCore:Service.obj
 0001:00020a90       ??$_Iter_cat@PAPAVParameter@Net@OpenHome@@@std@@YG?AUrandom_access_iterator_tag@0@ABQAPAVParameter@Net@OpenHome@@@Z 00421a90 f i libohNetCore:Service.obj
 0001:00020af0       ??$_Debug_range2@PAPAVParameter@Net@OpenHome@@@std@@YGXPAPAVParameter@Net@OpenHome@@0PB_WIUrandom_access_iterator_tag@0@@Z 00421af0 f i libohNetCore:Service.obj
 0001:00020b50       ??$forward@PAVBrh@OpenHome@@@std@@YG$$QAPAVBrh@OpenHome@@AAPAV12@@Z 00421b50 f i libohNetCore:Service.obj
 0001:00020b60       ??$?0VBrn@OpenHome@@PAVBrh@1@@?$_Pair_base@$$CBVBrn@OpenHome@@PAVBrh@2@@std@@QAE@$$QAVBrn@OpenHome@@$$QAPAVBrh@3@@Z 00421b60 f i libohNetCore:Service.obj
 0001:00020be0       ??0DvAction@Net@OpenHome@@QAE@PAVAction@12@VFunctorDviInvocation@12@@Z 00421be0 f   libohNetCore:DviService.obj
 0001:00020c20       ?Action@DvAction@Net@OpenHome@@QAEPAV023@XZ 00421c20 f   libohNetCore:DviService.obj
 0001:00020c40       ?Action@DvAction@Net@OpenHome@@QBEPBV023@XZ 00421c40 f   libohNetCore:DviService.obj
 0001:00020c60       ?Functor@DvAction@Net@OpenHome@@QBE?AVFunctorDviInvocation@23@XZ 00421c60 f   libohNetCore:DviService.obj
 0001:00020ca0       ??0DviService@Net@OpenHome@@QAE@PBD0I@Z 00421ca0 f   libohNetCore:DviService.obj
 0001:00020d90       ??1DviService@Net@OpenHome@@AAE@XZ 00421d90 f   libohNetCore:DviService.obj
 0001:00020fb0       ?AddRef@DviService@Net@OpenHome@@QAEXXZ 00421fb0 f   libohNetCore:DviService.obj
 0001:00021000       ?RemoveRef@DviService@Net@OpenHome@@QAEXXZ 00422000 f   libohNetCore:DviService.obj
 0001:000210a0       ?AddAction@DviService@Net@OpenHome@@QAEXPAVAction@23@VFunctorDviInvocation@23@@Z 004220a0 f   libohNetCore:DviService.obj
 0001:00021140       ?DvActions@DviService@Net@OpenHome@@QBEABV?$vector@VDvAction@Net@OpenHome@@V?$allocator@VDvAction@Net@OpenHome@@@std@@@std@@XZ 00422140 f   libohNetCore:DviService.obj
 0001:00021160       ?Invoke@DviService@Net@OpenHome@@QAEXAAVIDviInvocation@23@IABVBrx@3@@Z 00422160 f   libohNetCore:DviService.obj
 0001:00021290       ?PropertiesLock@DviService@Net@OpenHome@@QAEXXZ 00422290 f   libohNetCore:DviService.obj
 0001:000212c0       ?PropertiesUnlock@DviService@Net@OpenHome@@QAEXXZ 004222c0 f   libohNetCore:DviService.obj
 0001:000212f0       ?AddProperty@DviService@Net@OpenHome@@QAEXPAVProperty@23@@Z 004222f0 f   libohNetCore:DviService.obj
 0001:00021320       ?Properties@DviService@Net@OpenHome@@QBEABV?$vector@PAVProperty@Net@OpenHome@@V?$allocator@PAVProperty@Net@OpenHome@@@std@@@std@@XZ 00422320 f   libohNetCore:DviService.obj
 0001:00021340       ?PublishPropertyUpdates@DviService@Net@OpenHome@@QAEXXZ 00422340 f   libohNetCore:DviService.obj
 0001:000213c0       ?AddSubscription@DviService@Net@OpenHome@@QAEXPAVDviSubscription@23@@Z 004223c0 f   libohNetCore:DviService.obj
 0001:00021420       ?RemoveSubscription@DviService@Net@OpenHome@@QAEXABVBrx@3@@Z 00422420 f   libohNetCore:DviService.obj
 0001:000215a0       ??0InvocationResponse@Net@OpenHome@@QAE@AAVIDviInvocation@12@@Z 004225a0 f   libohNetCore:DviService.obj
 0001:00021620       ?Error@InvocationResponse@Net@OpenHome@@UAEXHABVBrx@3@@Z 00422620 f   libohNetCore:DviService.obj
 0001:00021670       ?Start@InvocationResponse@Net@OpenHome@@UAEXXZ 00422670 f   libohNetCore:DviService.obj
 0001:000216b0       ?End@InvocationResponse@Net@OpenHome@@UAEXXZ 004226b0 f   libohNetCore:DviService.obj
 0001:000216f0       ??0InvocationResponseBool@Net@OpenHome@@QAE@AAVIDviInvocation@12@PBD@Z 004226f0 f   libohNetCore:DviService.obj
 0001:00021780       ?Write@InvocationResponseBool@Net@OpenHome@@UAEX_N@Z 00422780 f   libohNetCore:DviService.obj
 0001:000217d0       ??0InvocationResponseUint@Net@OpenHome@@QAE@AAVIDviInvocation@12@PBD@Z 004227d0 f   libohNetCore:DviService.obj
 0001:00021860       ?Write@InvocationResponseUint@Net@OpenHome@@UAEXI@Z 00422860 f   libohNetCore:DviService.obj
 0001:000218b0       ??0InvocationResponseInt@Net@OpenHome@@QAE@AAVIDviInvocation@12@PBD@Z 004228b0 f   libohNetCore:DviService.obj
 0001:00021940       ?Write@InvocationResponseInt@Net@OpenHome@@UAEXH@Z 00422940 f   libohNetCore:DviService.obj
 0001:00021990       ??0InvocationResponseBinary@Net@OpenHome@@QAE@AAVIDviInvocation@12@PBD@Z 00422990 f   libohNetCore:DviService.obj
 0001:00021a20       ?CheckFirst@InvocationResponseBinary@Net@OpenHome@@AAEXXZ 00422a20 f   libohNetCore:DviService.obj
 0001:00021a80       ?Write@InvocationResponseBinary@Net@OpenHome@@UAEXE@Z 00422a80 f   libohNetCore:DviService.obj
 0001:00021ad0       ?Write@InvocationResponseBinary@Net@OpenHome@@UAEXABVBrx@3@@Z 00422ad0 f   libohNetCore:DviService.obj
 0001:00021b20       ?WriteFlush@InvocationResponseBinary@Net@OpenHome@@UAEXXZ 00422b20 f   libohNetCore:DviService.obj
 0001:00021b70       ??0InvocationResponseString@Net@OpenHome@@QAE@AAVIDviInvocation@12@PBD@Z 00422b70 f   libohNetCore:DviService.obj
 0001:00021c00       ?CheckFirst@InvocationResponseString@Net@OpenHome@@AAEXXZ 00422c00 f   libohNetCore:DviService.obj
 0001:00021c60       ?Write@InvocationResponseString@Net@OpenHome@@UAEXE@Z 00422c60 f   libohNetCore:DviService.obj
 0001:00021cb0       ?Write@InvocationResponseString@Net@OpenHome@@UAEXABVBrx@3@@Z 00422cb0 f   libohNetCore:DviService.obj
 0001:00021d00       ?WriteFlush@InvocationResponseString@Net@OpenHome@@UAEXXZ 00422d00 f   libohNetCore:DviService.obj
 0001:00021d50       ??1Service@Net@OpenHome@@IAE@XZ 00422d50 f i libohNetCore:DviService.obj
 0001:00021d80       ??_GAction@Net@OpenHome@@QAEPAXI@Z 00422d80 f i libohNetCore:DviService.obj
 0001:00021dc0       ??_GDviService@Net@OpenHome@@AAEPAXI@Z 00422dc0 f i libohNetCore:DviService.obj
 0001:00021e00       ??8Brx@OpenHome@@QBE_NABV01@@Z 00422e00 f i libohNetCore:DviService.obj
 0001:00021e30       ??RFunctorDviInvocation@Net@OpenHome@@QBEXAAVIDviInvocation@12@I@Z 00422e30 f i libohNetCore:DviService.obj
 0001:00021e70       ??1?$_Vector_iterator@V?$_Vector_val@PAVDviSubscription@Net@OpenHome@@V?$allocator@PAVDviSubscription@Net@OpenHome@@@std@@@std@@@std@@QAE@XZ 00422e70 f i libohNetCore:DviService.obj
 0001:00021ea0       ??0?$_Vector_const_iterator@V?$_Vector_val@PAVDviSubscription@Net@OpenHome@@V?$allocator@PAVDviSubscription@Net@OpenHome@@@std@@@std@@@std@@QAE@ABV01@@Z 00422ea0 f i libohNetCore:DviService.obj
 0001:00021ee0       ??1?$_Vector_const_iterator@V?$_Vector_val@PAVDviSubscription@Net@OpenHome@@V?$allocator@PAVDviSubscription@Net@OpenHome@@@std@@@std@@@std@@QAE@XZ 00422ee0 f i libohNetCore:DviService.obj
 0001:00021f10       ??0?$_Iterator012@Urandom_access_iterator_tag@std@@PAVDviSubscription@Net@OpenHome@@HPBQAV345@ABQAV345@U_Iterator_base12@2@@std@@QAE@ABU01@@Z 00422f10 f i libohNetCore:DviService.obj
 0001:00021f40       ??1?$_Iterator012@Urandom_access_iterator_tag@std@@PAVDviSubscription@Net@OpenHome@@HPBQAV345@ABQAV345@U_Iterator_base12@2@@std@@QAE@XZ 00422f40 f i libohNetCore:DviService.obj
 0001:00021f70       ??_EInvocationResponse@Net@OpenHome@@UAEPAXI@Z 00422f70 f i libohNetCore:DviService.obj
 0001:00021f70       ??_GInvocationResponse@Net@OpenHome@@UAEPAXI@Z 00422f70 f i libohNetCore:DviService.obj
 0001:00021fb0       ??0IInvocationResponse@Net@OpenHome@@QAE@XZ 00422fb0 f i libohNetCore:DviService.obj
 0001:00021fd0       ??_EInvocationResponseBool@Net@OpenHome@@UAEPAXI@Z 00422fd0 f i libohNetCore:DviService.obj
 0001:00021fd0       ??_GInvocationResponseBool@Net@OpenHome@@UAEPAXI@Z 00422fd0 f i libohNetCore:DviService.obj
 0001:00022010       ??0IInvocationResponseBool@Net@OpenHome@@QAE@XZ 00423010 f i libohNetCore:DviService.obj
 0001:00022030       ??_EInvocationResponseUint@Net@OpenHome@@UAEPAXI@Z 00423030 f i libohNetCore:DviService.obj
 0001:00022030       ??_GInvocationResponseUint@Net@OpenHome@@UAEPAXI@Z 00423030 f i libohNetCore:DviService.obj
 0001:00022070       ??0IInvocationResponseUint@Net@OpenHome@@QAE@XZ 00423070 f i libohNetCore:DviService.obj
 0001:00022090       ??_EInvocationResponseInt@Net@OpenHome@@UAEPAXI@Z 00423090 f i libohNetCore:DviService.obj
 0001:00022090       ??_GInvocationResponseInt@Net@OpenHome@@UAEPAXI@Z 00423090 f i libohNetCore:DviService.obj
 0001:000220d0       ??0IInvocationResponseInt@Net@OpenHome@@QAE@XZ 004230d0 f i libohNetCore:DviService.obj
 0001:000220f0       ??_EInvocationResponseBinary@Net@OpenHome@@UAEPAXI@Z 004230f0 f i libohNetCore:DviService.obj
 0001:000220f0       ??_GInvocationResponseBinary@Net@OpenHome@@UAEPAXI@Z 004230f0 f i libohNetCore:DviService.obj
 0001:00022130       ??0IInvocationResponseBinary@Net@OpenHome@@QAE@XZ 00423130 f i libohNetCore:DviService.obj
 0001:00022160       ??0IWriter@OpenHome@@QAE@XZ 00423160 f i libohNetCore:DviService.obj
 0001:00022180       ??_GInvocationResponseString@Net@OpenHome@@UAEPAXI@Z 00423180 f i libohNetCore:DviService.obj
 0001:00022180       ??_EInvocationResponseString@Net@OpenHome@@UAEPAXI@Z 00423180 f i libohNetCore:DviService.obj
 0001:000221c0       ??0IInvocationResponseString@Net@OpenHome@@QAE@XZ 004231c0 f i libohNetCore:DviService.obj
 0001:000221f0       ??0?$vector@VDvAction@Net@OpenHome@@V?$allocator@VDvAction@Net@OpenHome@@@std@@@std@@QAE@XZ 004231f0 f i libohNetCore:DviService.obj
 0001:00022230       ??1?$vector@VDvAction@Net@OpenHome@@V?$allocator@VDvAction@Net@OpenHome@@@std@@@std@@QAE@XZ 00423230 f i libohNetCore:DviService.obj
 0001:000222a0       ?size@?$vector@VDvAction@Net@OpenHome@@V?$allocator@VDvAction@Net@OpenHome@@@std@@@std@@QBEIXZ 004232a0 f i libohNetCore:DviService.obj
 0001:000222d0       ??A?$vector@VDvAction@Net@OpenHome@@V?$allocator@VDvAction@Net@OpenHome@@@std@@@std@@QAEAAVDvAction@Net@OpenHome@@I@Z 004232d0 f i libohNetCore:DviService.obj
 0001:00022370       ?push_back@?$vector@VDvAction@Net@OpenHome@@V?$allocator@VDvAction@Net@OpenHome@@@std@@@std@@QAEXABVDvAction@Net@OpenHome@@@Z 00423370 f i libohNetCore:DviService.obj
 0001:00022480       ??0?$vector@PAVProperty@Net@OpenHome@@V?$allocator@PAVProperty@Net@OpenHome@@@std@@@std@@QAE@XZ 00423480 f i libohNetCore:DviService.obj
 0001:000224c0       ??1?$vector@PAVProperty@Net@OpenHome@@V?$allocator@PAVProperty@Net@OpenHome@@@std@@@std@@QAE@XZ 004234c0 f i libohNetCore:DviService.obj
 0001:00022530       ?size@?$vector@PAVProperty@Net@OpenHome@@V?$allocator@PAVProperty@Net@OpenHome@@@std@@@std@@QBEIXZ 00423530 f i libohNetCore:DviService.obj
 0001:00022560       ??A?$vector@PAVProperty@Net@OpenHome@@V?$allocator@PAVProperty@Net@OpenHome@@@std@@@std@@QAEAAPAVProperty@Net@OpenHome@@I@Z 00423560 f i libohNetCore:DviService.obj
 0001:00022600       ?push_back@?$vector@PAVProperty@Net@OpenHome@@V?$allocator@PAVProperty@Net@OpenHome@@@std@@@std@@QAEXABQAVProperty@Net@OpenHome@@@Z 00423600 f i libohNetCore:DviService.obj
 0001:00022710       ??0?$vector@PAVDviSubscription@Net@OpenHome@@V?$allocator@PAVDviSubscription@Net@OpenHome@@@std@@@std@@QAE@XZ 00423710 f i libohNetCore:DviService.obj
 0001:00022750       ??1?$vector@PAVDviSubscription@Net@OpenHome@@V?$allocator@PAVDviSubscription@Net@OpenHome@@@std@@@std@@QAE@XZ 00423750 f i libohNetCore:DviService.obj
 0001:000227c0       ?begin@?$vector@PAVDviSubscription@Net@OpenHome@@V?$allocator@PAVDviSubscription@Net@OpenHome@@@std@@@std@@QAE?AV?$_Vector_iterator@V?$_Vector_val@PAVDviSubscription@Net@OpenHome@@V?$allocator@PAVDviSubscription@Net@OpenHome@@@std@@@std@@@2@XZ 004237c0 f i libohNetCore:DviService.obj
 0001:00022810       ?size@?$vector@PAVDviSubscription@Net@OpenHome@@V?$allocator@PAVDviSubscription@Net@OpenHome@@@std@@@std@@QBEIXZ 00423810 f i libohNetCore:DviService.obj
 0001:00022840       ??A?$vector@PAVDviSubscription@Net@OpenHome@@V?$allocator@PAVDviSubscription@Net@OpenHome@@@std@@@std@@QAEAAPAVDviSubscription@Net@OpenHome@@I@Z 00423840 f i libohNetCore:DviService.obj
 0001:000228e0       ?push_back@?$vector@PAVDviSubscription@Net@OpenHome@@V?$allocator@PAVDviSubscription@Net@OpenHome@@@std@@@std@@QAEXABQAVDviSubscription@Net@OpenHome@@@Z 004238e0 f i libohNetCore:DviService.obj
 0001:000229f0       ?erase@?$vector@PAVDviSubscription@Net@OpenHome@@V?$allocator@PAVDviSubscription@Net@OpenHome@@@std@@@std@@QAE?AV?$_Vector_iterator@V?$_Vector_val@PAVDviSubscription@Net@OpenHome@@V?$allocator@PAVDviSubscription@Net@OpenHome@@@std@@@std@@@2@V?$_Vector_const_iterator@V?$_Vector_val@PAVDviSubscription@Net@OpenHome@@V?$allocator@PAVDviSubscription@Net@OpenHome@@@std@@@std@@@2@@Z 004239f0 f i libohNetCore:DviService.obj
 0001:00022b20       ??H?$_Vector_iterator@V?$_Vector_val@PAVDviSubscription@Net@OpenHome@@V?$allocator@PAVDviSubscription@Net@OpenHome@@@std@@@std@@@std@@QBE?AV01@H@Z 00423b20 f i libohNetCore:DviService.obj
 0001:00022c00       ??0?$_Vector_iterator@V?$_Vector_val@PAVDviSubscription@Net@OpenHome@@V?$allocator@PAVDviSubscription@Net@OpenHome@@@std@@@std@@@std@@QAE@ABV01@@Z 00423c00 f i libohNetCore:DviService.obj
 0001:00022c30       ??0?$allocator@PAVDviSubscription@Net@OpenHome@@@std@@QAE@XZ 00423c30 f i libohNetCore:DviService.obj
 0001:00022c50       ?_Inside@?$vector@VDvAction@Net@OpenHome@@V?$allocator@VDvAction@Net@OpenHome@@@std@@@std@@IBE_NPBVDvAction@Net@OpenHome@@@Z 00423c50 f i libohNetCore:DviService.obj
 0001:00022ca0       ?_Reserve@?$vector@VDvAction@Net@OpenHome@@V?$allocator@VDvAction@Net@OpenHome@@@std@@@std@@IAEXI@Z 00423ca0 f i libohNetCore:DviService.obj
 0001:00022d20       ?_Tidy@?$vector@VDvAction@Net@OpenHome@@V?$allocator@VDvAction@Net@OpenHome@@@std@@@std@@IAEXXZ 00423d20 f i libohNetCore:DviService.obj
 0001:00022db0       ?_Orphan_range@?$vector@VDvAction@Net@OpenHome@@V?$allocator@VDvAction@Net@OpenHome@@@std@@@std@@IBEXPAVDvAction@Net@OpenHome@@0@Z 00423db0 f i libohNetCore:DviService.obj
 0001:00022ec0       ??0?$_Vector_val@VDvAction@Net@OpenHome@@V?$allocator@VDvAction@Net@OpenHome@@@std@@@std@@QAE@V?$allocator@VDvAction@Net@OpenHome@@@1@@Z 00423ec0 f i libohNetCore:DviService.obj
 0001:00022fe0       ??1?$_Vector_val@VDvAction@Net@OpenHome@@V?$allocator@VDvAction@Net@OpenHome@@@std@@@std@@QAE@XZ 00423fe0 f i libohNetCore:DviService.obj
 0001:000230c0       ??0?$allocator@VDvAction@Net@OpenHome@@@std@@QAE@XZ 004240c0 f i libohNetCore:DviService.obj
 0001:000230e0       ?_Inside@?$vector@PAVProperty@Net@OpenHome@@V?$allocator@PAVProperty@Net@OpenHome@@@std@@@std@@IBE_NPBQAVProperty@Net@OpenHome@@@Z 004240e0 f i libohNetCore:DviService.obj
 0001:00023130       ?_Reserve@?$vector@PAVProperty@Net@OpenHome@@V?$allocator@PAVProperty@Net@OpenHome@@@std@@@std@@IAEXI@Z 00424130 f i libohNetCore:DviService.obj
 0001:000231b0       ?_Tidy@?$vector@PAVProperty@Net@OpenHome@@V?$allocator@PAVProperty@Net@OpenHome@@@std@@@std@@IAEXXZ 004241b0 f i libohNetCore:DviService.obj
 0001:00023240       ?_Orphan_range@?$vector@PAVProperty@Net@OpenHome@@V?$allocator@PAVProperty@Net@OpenHome@@@std@@@std@@IBEXPAPAVProperty@Net@OpenHome@@0@Z 00424240 f i libohNetCore:DviService.obj
 0001:00023350       ??0?$_Vector_val@PAVProperty@Net@OpenHome@@V?$allocator@PAVProperty@Net@OpenHome@@@std@@@std@@QAE@V?$allocator@PAVProperty@Net@OpenHome@@@1@@Z 00424350 f i libohNetCore:DviService.obj
 0001:00023470       ??1?$_Vector_val@PAVProperty@Net@OpenHome@@V?$allocator@PAVProperty@Net@OpenHome@@@std@@@std@@QAE@XZ 00424470 f i libohNetCore:DviService.obj
 0001:00023550       ??0?$allocator@PAVProperty@Net@OpenHome@@@std@@QAE@XZ 00424550 f i libohNetCore:DviService.obj
 0001:00023570       ?_Make_iter@?$vector@PAVDviSubscription@Net@OpenHome@@V?$allocator@PAVDviSubscription@Net@OpenHome@@@std@@@std@@QBE?AV?$_Vector_iterator@V?$_Vector_val@PAVDviSubscription@Net@OpenHome@@V?$allocator@PAVDviSubscription@Net@OpenHome@@@std@@@std@@@2@V?$_Vector_const_iterator@V?$_Vector_val@PAVDviSubscription@Net@OpenHome@@V?$allocator@PAVDviSubscription@Net@OpenHome@@@std@@@std@@@2@@Z 00424570 f i libohNetCore:DviService.obj
 0001:00023600       ?_Destroy@?$vector@PAVDviSubscription@Net@OpenHome@@V?$allocator@PAVDviSubscription@Net@OpenHome@@@std@@@std@@IAEXPAPAVDviSubscription@Net@OpenHome@@0@Z 00424600 f i libohNetCore:DviService.obj
 0001:00023640       ?_Inside@?$vector@PAVDviSubscription@Net@OpenHome@@V?$allocator@PAVDviSubscription@Net@OpenHome@@@std@@@std@@IBE_NPBQAVDviSubscription@Net@OpenHome@@@Z 00424640 f i libohNetCore:DviService.obj
 0001:00023690       ?_Reserve@?$vector@PAVDviSubscription@Net@OpenHome@@V?$allocator@PAVDviSubscription@Net@OpenHome@@@std@@@std@@IAEXI@Z 00424690 f i libohNetCore:DviService.obj
 0001:00023710       ?_Tidy@?$vector@PAVDviSubscription@Net@OpenHome@@V?$allocator@PAVDviSubscription@Net@OpenHome@@@std@@@std@@IAEXXZ 00424710 f i libohNetCore:DviService.obj
 0001:000237a0       ?_Orphan_range@?$vector@PAVDviSubscription@Net@OpenHome@@V?$allocator@PAVDviSubscription@Net@OpenHome@@@std@@@std@@IBEXPAPAVDviSubscription@Net@OpenHome@@0@Z 004247a0 f i libohNetCore:DviService.obj
 0001:000238b0       ??0?$_Vector_val@PAVDviSubscription@Net@OpenHome@@V?$allocator@PAVDviSubscription@Net@OpenHome@@@std@@@std@@QAE@V?$allocator@PAVDviSubscription@Net@OpenHome@@@1@@Z 004248b0 f i libohNetCore:DviService.obj
 0001:000239d0       ??1?$_Vector_val@PAVDviSubscription@Net@OpenHome@@V?$allocator@PAVDviSubscription@Net@OpenHome@@@std@@@std@@QAE@XZ 004249d0 f i libohNetCore:DviService.obj
 0001:00023ab0       ??0?$_Vector_iterator@V?$_Vector_val@PAVDviSubscription@Net@OpenHome@@V?$allocator@PAVDviSubscription@Net@OpenHome@@@std@@@std@@@std@@QAE@PAPAVDviSubscription@Net@OpenHome@@PBU_Container_base12@1@@Z 00424ab0 f i libohNetCore:DviService.obj
 0001:00023af0       ??Y?$_Vector_iterator@V?$_Vector_val@PAVDviSubscription@Net@OpenHome@@V?$allocator@PAVDviSubscription@Net@OpenHome@@@std@@@std@@@std@@QAEAAV01@H@Z 00424af0 f i libohNetCore:DviService.obj
 0001:00023b20       ??0?$allocator@PAVDviSubscription@Net@OpenHome@@@std@@QAE@ABV01@@Z 00424b20 f i libohNetCore:DviService.obj
 0001:00023b40       ?deallocate@?$allocator@PAVDviSubscription@Net@OpenHome@@@std@@QAEXPAPAVDviSubscription@Net@OpenHome@@I@Z 00424b40 f i libohNetCore:DviService.obj
 0001:00023b70       ?reserve@?$vector@VDvAction@Net@OpenHome@@V?$allocator@VDvAction@Net@OpenHome@@@std@@@std@@QAEXI@Z 00424b70 f i libohNetCore:DviService.obj
 0001:00023cf0       ?capacity@?$vector@VDvAction@Net@OpenHome@@V?$allocator@VDvAction@Net@OpenHome@@@std@@@std@@QBEIXZ 00424cf0 f i libohNetCore:DviService.obj
 0001:00023d20       ?max_size@?$vector@VDvAction@Net@OpenHome@@V?$allocator@VDvAction@Net@OpenHome@@@std@@@std@@QBEIXZ 00424d20 f i libohNetCore:DviService.obj
 0001:00023d50       ?_Destroy@?$vector@VDvAction@Net@OpenHome@@V?$allocator@VDvAction@Net@OpenHome@@@std@@@std@@IAEXPAVDvAction@Net@OpenHome@@0@Z 00424d50 f i libohNetCore:DviService.obj
 0001:00023d90       ?_Grow_to@?$vector@VDvAction@Net@OpenHome@@V?$allocator@VDvAction@Net@OpenHome@@@std@@@std@@IBEII@Z 00424d90 f i libohNetCore:DviService.obj
 0001:00023e10       ?_Xlen@?$vector@VDvAction@Net@OpenHome@@V?$allocator@VDvAction@Net@OpenHome@@@std@@@std@@IBEXXZ 00424e10 f i libohNetCore:DviService.obj
 0001:00023e40       ??0?$allocator@VDvAction@Net@OpenHome@@@std@@QAE@ABV01@@Z 00424e40 f i libohNetCore:DviService.obj
 0001:00023e60       ?deallocate@?$allocator@VDvAction@Net@OpenHome@@@std@@QAEXPAVDvAction@Net@OpenHome@@I@Z 00424e60 f i libohNetCore:DviService.obj
 0001:00023e90       ?reserve@?$vector@PAVProperty@Net@OpenHome@@V?$allocator@PAVProperty@Net@OpenHome@@@std@@@std@@QAEXI@Z 00424e90 f i libohNetCore:DviService.obj
 0001:00024000       ?capacity@?$vector@PAVProperty@Net@OpenHome@@V?$allocator@PAVProperty@Net@OpenHome@@@std@@@std@@QBEIXZ 00425000 f i libohNetCore:DviService.obj
 0001:00024030       ?max_size@?$vector@PAVProperty@Net@OpenHome@@V?$allocator@PAVProperty@Net@OpenHome@@@std@@@std@@QBEIXZ 00425030 f i libohNetCore:DviService.obj
 0001:00024060       ?_Destroy@?$vector@PAVProperty@Net@OpenHome@@V?$allocator@PAVProperty@Net@OpenHome@@@std@@@std@@IAEXPAPAVProperty@Net@OpenHome@@0@Z 00425060 f i libohNetCore:DviService.obj
 0001:000240a0       ?_Grow_to@?$vector@PAVProperty@Net@OpenHome@@V?$allocator@PAVProperty@Net@OpenHome@@@std@@@std@@IBEII@Z 004250a0 f i libohNetCore:DviService.obj
 0001:00024120       ?_Xlen@?$vector@PAVProperty@Net@OpenHome@@V?$allocator@PAVProperty@Net@OpenHome@@@std@@@std@@IBEXXZ 00425120 f i libohNetCore:DviService.obj
 0001:00024150       ??0?$allocator@PAVProperty@Net@OpenHome@@@std@@QAE@ABV01@@Z 00425150 f i libohNetCore:DviService.obj
 0001:00024170       ?deallocate@?$allocator@PAVProperty@Net@OpenHome@@@std@@QAEXPAPAVProperty@Net@OpenHome@@I@Z 00425170 f i libohNetCore:DviService.obj
 0001:000241a0       ?reserve@?$vector@PAVDviSubscription@Net@OpenHome@@V?$allocator@PAVDviSubscription@Net@OpenHome@@@std@@@std@@QAEXI@Z 004251a0 f i libohNetCore:DviService.obj
 0001:00024310       ?capacity@?$vector@PAVDviSubscription@Net@OpenHome@@V?$allocator@PAVDviSubscription@Net@OpenHome@@@std@@@std@@QBEIXZ 00425310 f i libohNetCore:DviService.obj
 0001:00024340       ?max_size@?$vector@PAVDviSubscription@Net@OpenHome@@V?$allocator@PAVDviSubscription@Net@OpenHome@@@std@@@std@@QBEIXZ 00425340 f i libohNetCore:DviService.obj
 0001:00024370       ?_Grow_to@?$vector@PAVDviSubscription@Net@OpenHome@@V?$allocator@PAVDviSubscription@Net@OpenHome@@@std@@@std@@IBEII@Z 00425370 f i libohNetCore:DviService.obj
 0001:000243f0       ?_Xlen@?$vector@PAVDviSubscription@Net@OpenHome@@V?$allocator@PAVDviSubscription@Net@OpenHome@@@std@@@std@@IBEXXZ 004253f0 f i libohNetCore:DviService.obj
 0001:00024420       ??0?$_Vector_const_iterator@V?$_Vector_val@PAVDviSubscription@Net@OpenHome@@V?$allocator@PAVDviSubscription@Net@OpenHome@@@std@@@std@@@std@@QAE@PAPAVDviSubscription@Net@OpenHome@@PBU_Container_base12@1@@Z 00425420 f i libohNetCore:DviService.obj
 0001:000244a0       ??Y?$_Vector_const_iterator@V?$_Vector_val@PAVDviSubscription@Net@OpenHome@@V?$allocator@PAVDviSubscription@Net@OpenHome@@@std@@@std@@@std@@QAEAAV01@H@Z 004254a0 f i libohNetCore:DviService.obj
 0001:00024580       ??0?$_Iterator012@Urandom_access_iterator_tag@std@@PAVDviSubscription@Net@OpenHome@@HPBQAV345@ABQAV345@U_Iterator_base12@2@@std@@QAE@XZ 00425580 f i libohNetCore:DviService.obj
 0001:000245b0       ?allocate@?$allocator@PAVDviSubscription@Net@OpenHome@@@std@@QAEPAPAVDviSubscription@Net@OpenHome@@I@Z 004255b0 f i libohNetCore:DviService.obj
 0001:000245e0       ?max_size@?$allocator@PAVDviSubscription@Net@OpenHome@@@std@@QBEIXZ 004255e0 f i libohNetCore:DviService.obj
 0001:00024630       ?allocate@?$allocator@VDvAction@Net@OpenHome@@@std@@QAEPAVDvAction@Net@OpenHome@@I@Z 00425630 f i libohNetCore:DviService.obj
 0001:00024660       ?max_size@?$allocator@VDvAction@Net@OpenHome@@@std@@QBEIXZ 00425660 f i libohNetCore:DviService.obj
 0001:000246b0       ?allocate@?$allocator@PAVProperty@Net@OpenHome@@@std@@QAEPAPAVProperty@Net@OpenHome@@I@Z 004256b0 f i libohNetCore:DviService.obj
 0001:000246e0       ?max_size@?$allocator@PAVProperty@Net@OpenHome@@@std@@QBEIXZ 004256e0 f i libohNetCore:DviService.obj
 0001:00024730       ??$addressof@$$CBVDvAction@Net@OpenHome@@@std@@YGPBVDvAction@Net@OpenHome@@ABV123@@Z 00425730 f i libohNetCore:DviService.obj
 0001:00024740       ??$_Cons_val@V?$allocator@VDvAction@Net@OpenHome@@@std@@VDvAction@Net@OpenHome@@AAV345@@std@@YGXAAV?$allocator@VDvAction@Net@OpenHome@@@0@PAVDvAction@Net@OpenHome@@AAV234@@Z 00425740 f i libohNetCore:DviService.obj
 0001:00024770       ??$_Cons_val@V?$allocator@VDvAction@Net@OpenHome@@@std@@VDvAction@Net@OpenHome@@ABV345@@std@@YGXAAV?$allocator@VDvAction@Net@OpenHome@@@0@PAVDvAction@Net@OpenHome@@ABV234@@Z 00425770 f i libohNetCore:DviService.obj
 0001:000247a0       ??$addressof@QAVProperty@Net@OpenHome@@@std@@YGPBQAVProperty@Net@OpenHome@@ABQAV123@@Z 004257a0 f i libohNetCore:DviService.obj
 0001:000247b0       ??$_Cons_val@V?$allocator@PAVProperty@Net@OpenHome@@@std@@PAVProperty@Net@OpenHome@@AAPAV345@@std@@YGXAAV?$allocator@PAVProperty@Net@OpenHome@@@0@PAPAVProperty@Net@OpenHome@@AAPAV234@@Z 004257b0 f i libohNetCore:DviService.obj
 0001:000247e0       ??$_Cons_val@V?$allocator@PAVProperty@Net@OpenHome@@@std@@PAVProperty@Net@OpenHome@@ABQAV345@@std@@YGXAAV?$allocator@PAVProperty@Net@OpenHome@@@0@PAPAVProperty@Net@OpenHome@@ABQAV234@@Z 004257e0 f i libohNetCore:DviService.obj
 0001:00024810       ??$addressof@QAVDviSubscription@Net@OpenHome@@@std@@YGPBQAVDviSubscription@Net@OpenHome@@ABQAV123@@Z 00425810 f i libohNetCore:DviService.obj
 0001:00024820       ??$_Cons_val@V?$allocator@PAVDviSubscription@Net@OpenHome@@@std@@PAVDviSubscription@Net@OpenHome@@AAPAV345@@std@@YGXAAV?$allocator@PAVDviSubscription@Net@OpenHome@@@0@PAPAVDviSubscription@Net@OpenHome@@AAPAV234@@Z 00425820 f i libohNetCore:DviService.obj
 0001:00024850       ??$_Cons_val@V?$allocator@PAVDviSubscription@Net@OpenHome@@@std@@PAVDviSubscription@Net@OpenHome@@ABQAV345@@std@@YGXAAV?$allocator@PAVDviSubscription@Net@OpenHome@@@0@PAPAVDviSubscription@Net@OpenHome@@ABQAV234@@Z 00425850 f i libohNetCore:DviService.obj
 0001:00024880       ??$_Move@PAPAVDviSubscription@Net@OpenHome@@PAPAV123@@std@@YGPAPAVDviSubscription@Net@OpenHome@@PAPAV123@00@Z 00425880 f i libohNetCore:DviService.obj
 0001:000248d0       ??$?0VDvAction@Net@OpenHome@@@?$allocator@U_Container_proxy@std@@@std@@QAE@ABV?$allocator@VDvAction@Net@OpenHome@@@1@@Z 004258d0 f i libohNetCore:DviService.obj
 0001:000248f0       ??$?0PAVProperty@Net@OpenHome@@@?$allocator@U_Container_proxy@std@@@std@@QAE@ABV?$allocator@PAVProperty@Net@OpenHome@@@1@@Z 004258f0 f i libohNetCore:DviService.obj
 0001:00024910       ??$_Destroy_range@V?$allocator@PAVDviSubscription@Net@OpenHome@@@std@@@std@@YGXPAPAVDviSubscription@Net@OpenHome@@0AAV?$allocator@PAVDviSubscription@Net@OpenHome@@@0@@Z 00425910 f i libohNetCore:DviService.obj
 0001:00024960       ??$?0PAVDviSubscription@Net@OpenHome@@@?$allocator@U_Container_proxy@std@@@std@@QAE@ABV?$allocator@PAVDviSubscription@Net@OpenHome@@@1@@Z 00425960 f i libohNetCore:DviService.obj
 0001:00024980       ??$_Umove@PAVDvAction@Net@OpenHome@@@?$vector@VDvAction@Net@OpenHome@@V?$allocator@VDvAction@Net@OpenHome@@@std@@@std@@IAEPAVDvAction@Net@OpenHome@@PAV234@00@Z 00425980 f i libohNetCore:DviService.obj
 0001:000249c0       ??$_Destroy_range@V?$allocator@VDvAction@Net@OpenHome@@@std@@@std@@YGXPAVDvAction@Net@OpenHome@@0AAV?$allocator@VDvAction@Net@OpenHome@@@0@@Z 004259c0 f i libohNetCore:DviService.obj
 0001:00024a10       ??$_Umove@PAPAVProperty@Net@OpenHome@@@?$vector@PAVProperty@Net@OpenHome@@V?$allocator@PAVProperty@Net@OpenHome@@@std@@@std@@IAEPAPAVProperty@Net@OpenHome@@PAPAV234@00@Z 00425a10 f i libohNetCore:DviService.obj
 0001:00024a50       ??$_Destroy_range@V?$allocator@PAVProperty@Net@OpenHome@@@std@@@std@@YGXPAPAVProperty@Net@OpenHome@@0AAV?$allocator@PAVProperty@Net@OpenHome@@@0@@Z 00425a50 f i libohNetCore:DviService.obj
 0001:00024aa0       ??$_Umove@PAPAVDviSubscription@Net@OpenHome@@@?$vector@PAVDviSubscription@Net@OpenHome@@V?$allocator@PAVDviSubscription@Net@OpenHome@@@std@@@std@@IAEPAPAVDviSubscription@Net@OpenHome@@PAPAV234@00@Z 00425aa0 f i libohNetCore:DviService.obj
 0001:00024ae0       ??$_Allocate@PAVDviSubscription@Net@OpenHome@@@std@@YGPAPAVDviSubscription@Net@OpenHome@@IPAPAV123@@Z 00425ae0 f i libohNetCore:DviService.obj
 0001:00024b60       ??$_Allocate@VDvAction@Net@OpenHome@@@std@@YGPAVDvAction@Net@OpenHome@@IPAV123@@Z 00425b60 f i libohNetCore:DviService.obj
 0001:00024be0       ??$_Allocate@PAVProperty@Net@OpenHome@@@std@@YGPAPAVProperty@Net@OpenHome@@IPAPAV123@@Z 00425be0 f i libohNetCore:DviService.obj
 0001:00024c60       ?construct@?$allocator@PAVDviSubscription@Net@OpenHome@@@std@@QAEXPAPAVDviSubscription@Net@OpenHome@@ABQAV345@@Z 00425c60 f i libohNetCore:DviService.obj
 0001:00024c90       ?construct@?$allocator@VDvAction@Net@OpenHome@@@std@@QAEXPAVDvAction@Net@OpenHome@@ABV345@@Z 00425c90 f i libohNetCore:DviService.obj
 0001:00024cc0       ?construct@?$allocator@PAVProperty@Net@OpenHome@@@std@@QAEXPAPAVProperty@Net@OpenHome@@ABQAV345@@Z 00425cc0 f i libohNetCore:DviService.obj
 0001:00024cf0       ??$forward@AAVDvAction@Net@OpenHome@@@std@@YGAAVDvAction@Net@OpenHome@@AAV123@@Z 00425cf0 f i libohNetCore:DviService.obj
 0001:00024d00       ??$construct@AAVDvAction@Net@OpenHome@@@?$allocator@VDvAction@Net@OpenHome@@@std@@QAEXPAVDvAction@Net@OpenHome@@AAV234@@Z 00425d00 f i libohNetCore:DviService.obj
 0001:00024dc0       ??$forward@ABVDvAction@Net@OpenHome@@@std@@YGABVDvAction@Net@OpenHome@@ABV123@@Z 00425dc0 f i libohNetCore:DviService.obj
 0001:00024dd0       ??$forward@AAPAVProperty@Net@OpenHome@@@std@@YGAAPAVProperty@Net@OpenHome@@AAPAV123@@Z 00425dd0 f i libohNetCore:DviService.obj
 0001:00024de0       ??$construct@AAPAVProperty@Net@OpenHome@@@?$allocator@PAVProperty@Net@OpenHome@@@std@@QAEXPAPAVProperty@Net@OpenHome@@AAPAV234@@Z 00425de0 f i libohNetCore:DviService.obj
 0001:00024e80       ??$forward@ABQAVProperty@Net@OpenHome@@@std@@YGABQAVProperty@Net@OpenHome@@ABQAV123@@Z 00425e80 f i libohNetCore:DviService.obj
 0001:00024e90       ??$forward@AAPAVDviSubscription@Net@OpenHome@@@std@@YGAAPAVDviSubscription@Net@OpenHome@@AAPAV123@@Z 00425e90 f i libohNetCore:DviService.obj
 0001:00024ea0       ??$construct@AAPAVDviSubscription@Net@OpenHome@@@?$allocator@PAVDviSubscription@Net@OpenHome@@@std@@QAEXPAPAVDviSubscription@Net@OpenHome@@AAPAV234@@Z 00425ea0 f i libohNetCore:DviService.obj
 0001:00024f40       ??$forward@ABQAVDviSubscription@Net@OpenHome@@@std@@YGABQAVDviSubscription@Net@OpenHome@@ABQAV123@@Z 00425f40 f i libohNetCore:DviService.obj
 0001:00024f50       ??$_Ptr_cat@PAVDviSubscription@Net@OpenHome@@PAV123@@std@@YG?AU_Scalar_ptr_iterator_tag@0@PAPAVDviSubscription@Net@OpenHome@@0@Z 00425f50 f i libohNetCore:DviService.obj
 0001:00024fb0       ??$_Move@PAPAVDviSubscription@Net@OpenHome@@PAPAV123@@std@@YGPAPAVDviSubscription@Net@OpenHome@@PAPAV123@00U_Scalar_ptr_iterator_tag@0@@Z 00425fb0 f i libohNetCore:DviService.obj
 0001:00025000       ??$_Destroy_range@V?$allocator@PAVDviSubscription@Net@OpenHome@@@std@@@std@@YGXPAPAVDviSubscription@Net@OpenHome@@0AAV?$allocator@PAVDviSubscription@Net@OpenHome@@@0@U_Scalar_ptr_iterator_tag@0@@Z 00426000 f i libohNetCore:DviService.obj
 0001:00025010       ??$_Uninitialized_move@PAVDvAction@Net@OpenHome@@PAV123@V?$allocator@VDvAction@Net@OpenHome@@@std@@@std@@YGPAVDvAction@Net@OpenHome@@PAV123@00AAV?$allocator@VDvAction@Net@OpenHome@@@0@@Z 00426010 f i libohNetCore:DviService.obj
 0001:00025060       ??$_Ptr_cat@VDvAction@Net@OpenHome@@V123@@std@@YG?AU_Nonscalar_ptr_iterator_tag@0@PAVDvAction@Net@OpenHome@@0@Z 00426060 f i libohNetCore:DviService.obj
 0001:000250c0       ??$_Destroy_range@V?$allocator@VDvAction@Net@OpenHome@@@std@@@std@@YGXPAVDvAction@Net@OpenHome@@0AAV?$allocator@VDvAction@Net@OpenHome@@@0@U_Nonscalar_ptr_iterator_tag@0@@Z 004260c0 f i libohNetCore:DviService.obj
 0001:000250f0       ??$_Uninitialized_move@PAPAVProperty@Net@OpenHome@@PAPAV123@V?$allocator@PAVProperty@Net@OpenHome@@@std@@@std@@YGPAPAVProperty@Net@OpenHome@@PAPAV123@00AAV?$allocator@PAVProperty@Net@OpenHome@@@0@@Z 004260f0 f i libohNetCore:DviService.obj
 0001:00025140       ??$_Ptr_cat@PAVProperty@Net@OpenHome@@PAV123@@std@@YG?AU_Scalar_ptr_iterator_tag@0@PAPAVProperty@Net@OpenHome@@0@Z 00426140 f i libohNetCore:DviService.obj
 0001:000251a0       ??$_Destroy_range@V?$allocator@PAVProperty@Net@OpenHome@@@std@@@std@@YGXPAPAVProperty@Net@OpenHome@@0AAV?$allocator@PAVProperty@Net@OpenHome@@@0@U_Scalar_ptr_iterator_tag@0@@Z 004261a0 f i libohNetCore:DviService.obj
 0001:000251b0       ??$_Uninitialized_move@PAPAVDviSubscription@Net@OpenHome@@PAPAV123@V?$allocator@PAVDviSubscription@Net@OpenHome@@@std@@@std@@YGPAPAVDviSubscription@Net@OpenHome@@PAPAV123@00AAV?$allocator@PAVDviSubscription@Net@OpenHome@@@0@@Z 004261b0 f i libohNetCore:DviService.obj
 0001:00025200       ??$_Construct@PAVDviSubscription@Net@OpenHome@@ABQAV123@@std@@YGXPAPAVDviSubscription@Net@OpenHome@@ABQAV123@@Z 00426200 f i libohNetCore:DviService.obj
 0001:000252b0       ??$_Construct@VDvAction@Net@OpenHome@@ABV123@@std@@YGXPAVDvAction@Net@OpenHome@@ABV123@@Z 004262b0 f i libohNetCore:DviService.obj
 0001:00025370       ??$_Construct@PAVProperty@Net@OpenHome@@ABQAV123@@std@@YGXPAPAVProperty@Net@OpenHome@@ABQAV123@@Z 00426370 f i libohNetCore:DviService.obj
 0001:00025420       ??$_Val_type@PAVDvAction@Net@OpenHome@@@std@@YGPAVDvAction@Net@OpenHome@@PAV123@@Z 00426420 f i libohNetCore:DviService.obj
 0001:00025430       ??$_Uninit_move@PAVDvAction@Net@OpenHome@@PAV123@V?$allocator@VDvAction@Net@OpenHome@@@std@@V123@@std@@YGPAVDvAction@Net@OpenHome@@PAV123@00AAV?$allocator@VDvAction@Net@OpenHome@@@0@0U_Nonscalar_ptr_iterator_tag@0@@Z 00426430 f i libohNetCore:DviService.obj
 0001:00025530       ??$_Dest_val@V?$allocator@VDvAction@Net@OpenHome@@@std@@VDvAction@Net@OpenHome@@@std@@YGXAAV?$allocator@VDvAction@Net@OpenHome@@@0@PAVDvAction@Net@OpenHome@@@Z 00426530 f i libohNetCore:DviService.obj
 0001:00025550       ??$_Val_type@PAPAVProperty@Net@OpenHome@@@std@@YGPAPAVProperty@Net@OpenHome@@PAPAV123@@Z 00426550 f i libohNetCore:DviService.obj
 0001:00025560       ??$_Uninit_move@PAVProperty@Net@OpenHome@@PAV123@PAV123@@std@@YGPAPAVProperty@Net@OpenHome@@PAPAV123@00AAV?$allocator@PAVProperty@Net@OpenHome@@@0@0U_Scalar_ptr_iterator_tag@0@@Z 00426560 f i libohNetCore:DviService.obj
 0001:000255d0       ??$_Val_type@PAPAVDviSubscription@Net@OpenHome@@@std@@YGPAPAVDviSubscription@Net@OpenHome@@PAPAV123@@Z 004265d0 f i libohNetCore:DviService.obj
 0001:000255e0       ??$_Uninit_move@PAVDviSubscription@Net@OpenHome@@PAV123@PAV123@@std@@YGPAPAVDviSubscription@Net@OpenHome@@PAPAV123@00AAV?$allocator@PAVDviSubscription@Net@OpenHome@@@0@0U_Scalar_ptr_iterator_tag@0@@Z 004265e0 f i libohNetCore:DviService.obj
 0001:00025650       ?destroy@?$allocator@VDvAction@Net@OpenHome@@@std@@QAEXPAVDvAction@Net@OpenHome@@@Z 00426650 f i libohNetCore:DviService.obj
 0001:00025680       ??$_Debug_range@PAVDvAction@Net@OpenHome@@@std@@YGXPAVDvAction@Net@OpenHome@@0PB_WI@Z 00426680 f i libohNetCore:DviService.obj
 0001:000256d0       ??$_Debug_pointer@VDvAction@Net@OpenHome@@@std@@YGXPAVDvAction@Net@OpenHome@@PB_WI@Z 004266d0 f i libohNetCore:DviService.obj
 0001:00025700       ??$_Cons_val@V?$allocator@VDvAction@Net@OpenHome@@@std@@VDvAction@Net@OpenHome@@V345@@std@@YGXAAV?$allocator@VDvAction@Net@OpenHome@@@0@PAVDvAction@Net@OpenHome@@$$QAV234@@Z 00426700 f i libohNetCore:DviService.obj
 0001:00025730       ??$_Debug_range@PAPAVProperty@Net@OpenHome@@@std@@YGXPAPAVProperty@Net@OpenHome@@0PB_WI@Z 00426730 f i libohNetCore:DviService.obj
 0001:00025780       ??$_Debug_pointer@PAVProperty@Net@OpenHome@@@std@@YGXPAPAVProperty@Net@OpenHome@@PB_WI@Z 00426780 f i libohNetCore:DviService.obj
 0001:000257b0       ??$_Debug_range@PAPAVDviSubscription@Net@OpenHome@@@std@@YGXPAPAVDviSubscription@Net@OpenHome@@0PB_WI@Z 004267b0 f i libohNetCore:DviService.obj
 0001:00025800       ??$_Debug_pointer@PAVDviSubscription@Net@OpenHome@@@std@@YGXPAPAVDviSubscription@Net@OpenHome@@PB_WI@Z 00426800 f i libohNetCore:DviService.obj
 0001:00025830       ??$_Destroy@VDvAction@Net@OpenHome@@@std@@YGXPAVDvAction@Net@OpenHome@@@Z 00426830 f i libohNetCore:DviService.obj
 0001:00025840       ?construct@?$allocator@VDvAction@Net@OpenHome@@@std@@QAEXPAVDvAction@Net@OpenHome@@$$QAV345@@Z 00426840 f i libohNetCore:DviService.obj
 0001:00025900       ??$_Iter_cat@PAVDvAction@Net@OpenHome@@@std@@YG?AUrandom_access_iterator_tag@0@ABQAVDvAction@Net@OpenHome@@@Z 00426900 f i libohNetCore:DviService.obj
 0001:00025960       ??$_Debug_range2@PAVDvAction@Net@OpenHome@@@std@@YGXPAVDvAction@Net@OpenHome@@0PB_WIUrandom_access_iterator_tag@0@@Z 00426960 f i libohNetCore:DviService.obj
 0001:000259c0       ??$forward@VDvAction@Net@OpenHome@@@std@@YG$$QAVDvAction@Net@OpenHome@@AAV123@@Z 004269c0 f i libohNetCore:DviService.obj
 0001:000259d0       ??$_Iter_cat@PAPAVProperty@Net@OpenHome@@@std@@YG?AUrandom_access_iterator_tag@0@ABQAPAVProperty@Net@OpenHome@@@Z 004269d0 f i libohNetCore:DviService.obj
 0001:00025a30       ??$_Debug_range2@PAPAVProperty@Net@OpenHome@@@std@@YGXPAPAVProperty@Net@OpenHome@@0PB_WIUrandom_access_iterator_tag@0@@Z 00426a30 f i libohNetCore:DviService.obj
 0001:00025a90       ??$_Iter_cat@PAPAVDviSubscription@Net@OpenHome@@@std@@YG?AUrandom_access_iterator_tag@0@ABQAPAVDviSubscription@Net@OpenHome@@@Z 00426a90 f i libohNetCore:DviService.obj
 0001:00025af0       ??$_Debug_range2@PAPAVDviSubscription@Net@OpenHome@@@std@@YGXPAPAVDviSubscription@Net@OpenHome@@0PB_WIUrandom_access_iterator_tag@0@@Z 00426af0 f i libohNetCore:DviService.obj
 0001:00025b50       ?SetAssertHandler@OpenHome@@YGP6GXPBDI@ZP6GX0I@Z@Z 00426b50 f   libohNetCore:Exception.obj
 0001:00025b80       ?CallAssertHandler@OpenHome@@YGXPBDI@Z 00426b80 f   libohNetCore:Exception.obj
 0001:00025bb0       ?AssertHandlerDefault@OpenHome@@YGXPBDI@Z 00426bb0 f   libohNetCore:Exception.obj
 0001:00025ca0       ?UnhandledExceptionHandler@OpenHome@@YGXPBD0I@Z 00426ca0 f   libohNetCore:Exception.obj
 0001:00025d40       ?UnhandledExceptionHandler@OpenHome@@YGXAAVException@1@@Z 00426d40 f   libohNetCore:Exception.obj
 0001:00025df0       ?UnhandledExceptionHandler@OpenHome@@YGXAAVexception@std@@@Z 00426df0 f   libohNetCore:Exception.obj
 0001:00025ea0       ??0Exception@OpenHome@@QAE@PBD0I@Z 00426ea0 f   libohNetCore:Exception.obj
 0001:00025ee0       ??0Exception@OpenHome@@QAE@PBD@Z 00426ee0 f   libohNetCore:Exception.obj
 0001:00025f20       ??1Exception@OpenHome@@QAE@XZ 00426f20 f   libohNetCore:Exception.obj
 0001:00025f40       ?Message@Exception@OpenHome@@QAEPBDXZ 00426f40 f   libohNetCore:Exception.obj
 0001:00025f60       ?File@Exception@OpenHome@@QAEPBDXZ 00426f60 f   libohNetCore:Exception.obj
 0001:00025f80       ?Line@Exception@OpenHome@@QAEIXZ 00426f80 f   libohNetCore:Exception.obj
 0001:00025fa0       ??RFunctorMsg@OpenHome@@QBEXPBD@Z 00426fa0 f i libohNetCore:Exception.obj
 0001:00025ff0       _OsCreate@0                00426ff0 f   libohNetCore:Os.obj
 0001:000261c0       _OsDestroy@0               004271c0 f   libohNetCore:Os.obj
 0001:000262d0       _OsQuit@0                  004272d0 f   libohNetCore:Os.obj
 0001:000262f0       _OsTimeInUs@0              004272f0 f   libohNetCore:Os.obj
 0001:000263d0       _OsConsoleWrite@4          004273d0 f   libohNetCore:Os.obj
 0001:00026410       _OsGetPlatformNameAndVersion@12 00427410 f   libohNetCore:Os.obj
 0001:000264e0       _OsSemaphoreCreate@8       004274e0 f   libohNetCore:Os.obj
 0001:00026520       _OsSemaphoreDestroy@4      00427520 f   libohNetCore:Os.obj
 0001:00026550       _OsSemaphoreWait@4         00427550 f   libohNetCore:Os.obj
 0001:00026590       _OsSemaphoreTimedWait@8    00427590 f   libohNetCore:Os.obj
 0001:000265f0       _OsSemaphoreClear@4        004275f0 f   libohNetCore:Os.obj
 0001:00026640       _OsSemaphoreSignal@4       00427640 f   libohNetCore:Os.obj
 0001:00026690       _OsMutexCreate@4           00427690 f   libohNetCore:Os.obj
 0001:000266f0       _OsMutexDestroy@4          004276f0 f   libohNetCore:Os.obj
 0001:00026740       _OsMutexLock@4             00427740 f   libohNetCore:Os.obj
 0001:000267b0       _OsMutexUnlock@4           004277b0 f   libohNetCore:Os.obj
 0001:00026810       _threadEntrypoint@4        00427810 f   libohNetCore:Os.obj
 0001:00026910       _OsThreadCreate@20         00427910 f   libohNetCore:Os.obj
 0001:000269f0       _OsThreadTls@0             004279f0 f   libohNetCore:Os.obj
 0001:00026a20       _OsThreadDestroy@4         00427a20 f   libohNetCore:Os.obj
 0001:00026a40       _OsThreadSupportsPriorities@0 00427a40 f   libohNetCore:Os.obj
 0001:00026a50       _OsNetworkCreate@4         00427a50 f   libohNetCore:Os.obj
 0001:00026b50       _OsNetworkBind@12          00427b50 f   libohNetCore:Os.obj
 0001:00026c50       _OsNetworkPort@8           00427c50 f   libohNetCore:Os.obj
 0001:00026d20       _OsNetworkConnect@16       00427d20 f   libohNetCore:Os.obj
 0001:00026fb0       _OsNetworkSend@12          00427fb0 f   libohNetCore:Os.obj
 0001:00027050       _OsNetworkSendTo@20        00428050 f   libohNetCore:Os.obj
 0001:00027140       _OsNetworkReceive@12       00428140 f   libohNetCore:Os.obj
 0001:000272d0       _OsNetworkReceiveFrom@20   004282d0 f   libohNetCore:Os.obj
 0001:000274d0       _OsNetworkInterrupt@8      004284d0 f   libohNetCore:Os.obj
 0001:00027560       _OsNetworkClose@4          00428560 f   libohNetCore:Os.obj
 0001:000275d0       _OsNetworkListen@8         004285d0 f   libohNetCore:Os.obj
 0001:00027630       _OsNetworkAccept@4         00428630 f   libohNetCore:Os.obj
 0001:000277d0       _OsNetworkGetHostByName@8  004287d0 f   libohNetCore:Os.obj
 0001:00027840       _OsNetworkSocketSetSendBufBytes@8 00428840 f   libohNetCore:Os.obj
 0001:000278a0       _OsNetworkSocketSetRecvBufBytes@8 004288a0 f   libohNetCore:Os.obj
 0001:00027900       _OsNetworkSocketSetReceiveTimeout@8 00428900 f   libohNetCore:Os.obj
 0001:000279b0       _OsNetworkTcpSetNoDelay@4  004289b0 f   libohNetCore:Os.obj
 0001:00027a40       _OsNetworkSocketSetReuseAddress@4 00428a40 f   libohNetCore:Os.obj
 0001:00027ae0       _OsNetworkSocketSetMulticastTtl@8 00428ae0 f   libohNetCore:Os.obj
 0001:00027b40       _OsNetworkSocketMulticastAddMembership@12 00428b40 f   libohNetCore:Os.obj
 0001:00027c20       _OsNetworkSocketMulticastDropMembership@12 00428c20 f   libohNetCore:Os.obj
 0001:00027cc0       _OsNetworkListAdapters@8   00428cc0 f   libohNetCore:Os.obj
 0001:000280e0       _OsNetworkFreeInterfaces@4 004290e0 f   libohNetCore:Os.obj
 0001:00028130       _interfaceChangeThread@4   00429130 f   libohNetCore:Os.obj
 0001:00028290       _OsNetworkSetInterfaceChangedObserver@8 00429290 f   libohNetCore:Os.obj
 0001:000283b0       _OsNetworkSetTestInterfaceIndex@4 004293b0 f   libohNetCore:Os.obj
 0001:000283f0       ?hexChar@@YGDE@Z           004293f0 f   libohNetCore:Printer.obj
 0001:00028430       ?RegisterOutput@Log@OpenHome@@SGXAAVFunctorMsg@2@@Z 00429430 f   libohNetCore:Printer.obj
 0001:00028460       ?Print@Log@OpenHome@@SGHABVBrx@2@@Z 00429460 f   libohNetCore:Printer.obj
 0001:00028480       ?PrintHex@Log@OpenHome@@SGHABVBrx@2@@Z 00429480 f   libohNetCore:Printer.obj
 0001:000284a0       ?Print@Log@OpenHome@@SAHPBDZZ 004294a0 f   libohNetCore:Printer.obj
 0001:000284f0       ?Print@Log@OpenHome@@SGHPBDPAD@Z 004294f0 f   libohNetCore:Printer.obj
 0001:00028510       ?PrintHex@Log@OpenHome@@SGHAAVFunctorMsg@2@ABVBrx@2@@Z 00429510 f   libohNetCore:Printer.obj
 0001:00028870       ?Print@Log@OpenHome@@SGHAAVFunctorMsg@2@ABVBrx@2@@Z 00429870 f   libohNetCore:Printer.obj
 0001:00028a00       ?Print@Log@OpenHome@@SGHAAVFunctorMsg@2@PBDPAD@Z 00429a00 f   libohNetCore:Printer.obj
 0001:00028b50       ?DoPrint@Log@OpenHome@@CGHAAVFunctorMsg@2@PBE@Z 00429b50 f   libohNetCore:Printer.obj
 0001:00028b90       ??ABrx@OpenHome@@QBEABEI@Z 00429b90 f i libohNetCore:Printer.obj
 0001:00028bc0       ??1?$Bws@$0EAB@@OpenHome@@UAE@XZ 00429bc0 f i libohNetCore:Printer.obj
 0001:00028bf0       ??0?$Bws@$0EAB@@OpenHome@@QAE@I@Z 00429bf0 f i libohNetCore:Printer.obj
 0001:00028c30       ?Ptr@?$Bws@$0EAB@@OpenHome@@UBEPBEXZ 00429c30 f i libohNetCore:Printer.obj
 0001:00028c50       ??_E?$Bws@$0EAB@@OpenHome@@UAEPAXI@Z 00429c50 f i libohNetCore:Printer.obj
 0001:00028c50       ??_G?$Bws@$0EAB@@OpenHome@@UAEPAXI@Z 00429c50 f i libohNetCore:Printer.obj
 0001:00028c90       ??0Semaphore@OpenHome@@QAE@PBDI@Z 00429c90 f   libohNetCore:Thread.obj
 0001:00028d10       ??1Semaphore@OpenHome@@UAE@XZ 00429d10 f   libohNetCore:Thread.obj
 0001:00028d50       ?Wait@Semaphore@OpenHome@@QAEXXZ 00429d50 f   libohNetCore:Thread.obj
 0001:00028d80       ?Wait@Semaphore@OpenHome@@QAEXI@Z 00429d80 f   libohNetCore:Thread.obj
 0001:00028e70       ?Clear@Semaphore@OpenHome@@QAE_NXZ 00429e70 f   libohNetCore:Thread.obj
 0001:00028eb0       ?Signal@Semaphore@OpenHome@@QAEXXZ 00429eb0 f   libohNetCore:Thread.obj
 0001:00028ee0       ??0Mutex@OpenHome@@QAE@PBD@Z 00429ee0 f   libohNetCore:Thread.obj
 0001:00028f70       ??1Mutex@OpenHome@@UAE@XZ  00429f70 f   libohNetCore:Thread.obj
 0001:00028fb0       ?Wait@Mutex@OpenHome@@QAEXXZ 00429fb0 f   libohNetCore:Thread.obj
 0001:000290e0       ?Signal@Mutex@OpenHome@@QAEXXZ 0042a0e0 f   libohNetCore:Thread.obj
 0001:00029110       ??0SemaphoreActive@OpenHome@@QAE@AAVSemaphore@1@@Z 0042a110 f   libohNetCore:Thread.obj
 0001:00029160       ??0SemaphoreActive@OpenHome@@QAE@AAVThread@1@@Z 0042a160 f   libohNetCore:Thread.obj
 0001:000291b0       ?Signal@SemaphoreActive@OpenHome@@QAEXXZ 0042a1b0 f   libohNetCore:Thread.obj
 0001:00029200       ?Signalled@SemaphoreActive@OpenHome@@QAE_NXZ 0042a200 f   libohNetCore:Thread.obj
 0001:00029280       ?ConsumeOne@SemaphoreActive@OpenHome@@QAEXXZ 0042a280 f   libohNetCore:Thread.obj
 0001:000292e0       ?ConsumeAll@SemaphoreActive@OpenHome@@QAEXXZ 0042a2e0 f   libohNetCore:Thread.obj
 0001:00029330       ??0Thread@OpenHome@@IAE@PBDII@Z 0042a330 f   libohNetCore:Thread.obj
 0001:00029450       ??1Thread@OpenHome@@UAE@XZ 0042a450 f   libohNetCore:Thread.obj
 0001:00029530       ?Start@Thread@OpenHome@@QAEXXZ 0042a530 f   libohNetCore:Thread.obj
 0001:00029590       ?EntryPoint@Thread@OpenHome@@CGXPAX@Z 0042a590 f   libohNetCore:Thread.obj
 0001:00029730       ?Wait@Thread@OpenHome@@QAEXXZ 0042a730 f   libohNetCore:Thread.obj
 0001:00029760       ?Signal@Thread@OpenHome@@QAEXXZ 0042a760 f   libohNetCore:Thread.obj
 0001:00029790       ?TryWait@Thread@OpenHome@@QAE_NXZ 0042a790 f   libohNetCore:Thread.obj
 0001:000297c0       ?Sleep@Thread@OpenHome@@SGXI@Z 0042a7c0 f   libohNetCore:Thread.obj
 0001:00029890       ?Current@Thread@OpenHome@@SGPAV12@XZ 0042a890 f   libohNetCore:Thread.obj
 0001:000298b0       ?SupportsPriorities@Thread@OpenHome@@SG_NXZ 0042a8b0 f   libohNetCore:Thread.obj
 0001:000298d0       ?CheckForKill@Thread@OpenHome@@IBEXXZ 0042a8d0 f   libohNetCore:Thread.obj
 0001:000299a0       ?Kill@Thread@OpenHome@@QAEXXZ 0042a9a0 f   libohNetCore:Thread.obj
 0001:00029a10       ?Name@Thread@OpenHome@@QBEABVBrx@2@XZ 0042aa10 f   libohNetCore:Thread.obj
 0001:00029a30       ??8Thread@OpenHome@@QBE_NABV01@@Z 0042aa30 f   libohNetCore:Thread.obj
 0001:00029a60       ??9Thread@OpenHome@@QBE_NABV01@@Z 0042aa60 f   libohNetCore:Thread.obj
 0001:00029aa0       ?Join@Thread@OpenHome@@IAEXXZ 0042aaa0 f   libohNetCore:Thread.obj
 0001:00029b00       ??0ThreadFunctor@OpenHome@@QAE@PBDVFunctor@1@II@Z 0042ab00 f   libohNetCore:Thread.obj
 0001:00029bb0       ??1ThreadFunctor@OpenHome@@UAE@XZ 0042abb0 f   libohNetCore:Thread.obj
 0001:00029c30       ?Run@ThreadFunctor@OpenHome@@EAEXXZ 0042ac30 f   libohNetCore:Thread.obj
 0001:00029c70       ??0AutoMutex@OpenHome@@QAE@AAVMutex@1@@Z 0042ac70 f   libohNetCore:Thread.obj
 0001:00029cb0       ??1AutoMutex@OpenHome@@QAE@XZ 0042acb0 f   libohNetCore:Thread.obj
 0001:00029ce0       ??0AtomicInt@OpenHome@@QAE@H@Z 0042ace0 f   libohNetCore:Thread.obj
 0001:00029d20       ??0AtomicInt@OpenHome@@QAE@XZ 0042ad20 f   libohNetCore:Thread.obj
 0001:00029d50       ?Inc@AtomicInt@OpenHome@@QAEHXZ 0042ad50 f   libohNetCore:Thread.obj
 0001:00029db0       ?Dec@AtomicInt@OpenHome@@QAEHXZ 0042adb0 f   libohNetCore:Thread.obj
 0001:00029e10       ?SemaphoreCreate@Os@OpenHome@@SGPAXPBDI@Z 0042ae10 f i libohNetCore:Thread.obj
 0001:00029e30       ??_ESemaphore@OpenHome@@UAEPAXI@Z 0042ae30 f i libohNetCore:Thread.obj
 0001:00029e30       ??_GSemaphore@OpenHome@@UAEPAXI@Z 0042ae30 f i libohNetCore:Thread.obj
 0001:00029e70       ?SemaphoreDestroy@Os@OpenHome@@SGXPAX@Z 0042ae70 f i libohNetCore:Thread.obj
 0001:00029e90       ?SemaphoreWait@Os@OpenHome@@SGXPAX@Z 0042ae90 f i libohNetCore:Thread.obj
 0001:00029ee0       ??0Timeout@OpenHome@@QAE@PBDI@Z 0042aee0 f i libohNetCore:Thread.obj
 0001:00029f20       ?SemaphoreTimedWait@Os@OpenHome@@SG_NPAXI@Z 0042af20 f i libohNetCore:Thread.obj
 0001:00029f70       ??1Timeout@OpenHome@@QAE@XZ 0042af70 f i libohNetCore:Thread.obj
 0001:00029fa0       ?SemaphoreClear@Os@OpenHome@@SG_NPAX@Z 0042afa0 f i libohNetCore:Thread.obj
 0001:00029fd0       ?SemaphoreSignal@Os@OpenHome@@SGXPAX@Z 0042afd0 f i libohNetCore:Thread.obj
 0001:0002a020       ??_EMutex@OpenHome@@UAEPAXI@Z 0042b020 f i libohNetCore:Thread.obj
 0001:0002a0a0       ?MutexCreate@Os@OpenHome@@SGPAXPBD@Z 0042b0a0 f i libohNetCore:Thread.obj
 0001:0002a0c0       ?MutexDestroy@Os@OpenHome@@SGXPAX@Z 0042b0c0 f i libohNetCore:Thread.obj
 0001:0002a0e0       ?MutexLock@Os@OpenHome@@SGHPAX@Z 0042b0e0 f i libohNetCore:Thread.obj
 0001:0002a110       ?MutexUnlock@Os@OpenHome@@SGXPAX@Z 0042b110 f i libohNetCore:Thread.obj
 0001:0002a160       ??_GThread@OpenHome@@UAEPAXI@Z 0042b160 f i libohNetCore:Thread.obj
 0001:0002a160       ??_EThread@OpenHome@@UAEPAXI@Z 0042b160 f i libohNetCore:Thread.obj
 0001:0002a1a0       ??1?$Bws@$04@OpenHome@@UAE@XZ 0042b1a0 f i libohNetCore:Thread.obj
 0001:0002a1d0       ?ThreadDestroy@Os@OpenHome@@SGXPAX@Z 0042b1d0 f i libohNetCore:Thread.obj
 0001:0002a1f0       ?ThreadCreate@Os@OpenHome@@SGPAXPBDIIP6GXPAX@Z1@Z 0042b1f0 f i libohNetCore:Thread.obj
 0001:0002a220       ?ThreadTls@Os@OpenHome@@SGPAXXZ 0042b220 f i libohNetCore:Thread.obj
 0001:0002a240       ?ThreadSupportsPriorities@Os@OpenHome@@SG_NXZ 0042b240 f i libohNetCore:Thread.obj
 0001:0002a260       ??0ThreadKill@OpenHome@@QAE@PBDI@Z 0042b260 f i libohNetCore:Thread.obj
 0001:0002a2a0       ??1ThreadKill@OpenHome@@QAE@XZ 0042b2a0 f i libohNetCore:Thread.obj
 0001:0002a2d0       ??_EThreadFunctor@OpenHome@@UAEPAXI@Z 0042b2d0 f i libohNetCore:Thread.obj
 0001:0002a2d0       ??_GThreadFunctor@OpenHome@@UAEPAXI@Z 0042b2d0 f i libohNetCore:Thread.obj
 0001:0002a310       ??0?$Bws@$04@OpenHome@@QAE@XZ 0042b310 f i libohNetCore:Thread.obj
 0001:0002a350       ?Ptr@?$Bws@$04@OpenHome@@UBEPBEXZ 0042b350 f i libohNetCore:Thread.obj
 0001:0002a370       ??_G?$Bws@$04@OpenHome@@UAEPAXI@Z 0042b370 f i libohNetCore:Thread.obj
 0001:0002a370       ??_E?$Bws@$04@OpenHome@@UAEPAXI@Z 0042b370 f i libohNetCore:Thread.obj
 0001:0002a3b0       ?Now@Time@OpenHome@@SGIXZ  0042b3b0 f   libohNetCore:Timer.obj
 0001:0002a3d0       ?IsBeforeOrAt@Time@OpenHome@@SG_NII@Z 0042b3d0 f   libohNetCore:Timer.obj
 0001:0002a400       ?IsAfter@Time@OpenHome@@SG_NII@Z 0042b400 f   libohNetCore:Timer.obj
 0001:0002a430       ?IsInPastOrNow@Time@OpenHome@@SG_NI@Z 0042b430 f   libohNetCore:Timer.obj
 0001:0002a450       ?IsInFuture@Time@OpenHome@@SG_NI@Z 0042b450 f   libohNetCore:Timer.obj
 0001:0002a470       ?TimeToWaitFor@Time@OpenHome@@SGHI@Z 0042b470 f   libohNetCore:Timer.obj
 0001:0002a490       ??0Timer@OpenHome@@QAE@VFunctor@1@@Z 0042b490 f   libohNetCore:Timer.obj
 0001:0002a4e0       ?FireIn@Timer@OpenHome@@QAEXI@Z 0042b4e0 f   libohNetCore:Timer.obj
 0001:0002a550       ?FireAt@Timer@OpenHome@@QAEXI@Z 0042b550 f   libohNetCore:Timer.obj
 0001:0002a5e0       ?Cancel@Timer@OpenHome@@QAEXXZ 0042b5e0 f   libohNetCore:Timer.obj
 0001:0002a630       ?DoCancel@Timer@OpenHome@@AAEXXZ 0042b630 f   libohNetCore:Timer.obj
 0001:0002a6a0       ??1Timer@OpenHome@@QAE@XZ  0042b6a0 f   libohNetCore:Timer.obj
 0001:0002a720       ??0TimerManager@OpenHome@@QAE@XZ 0042b720 f   libohNetCore:Timer.obj
 0001:0002a910       ??1TimerManager@OpenHome@@UAE@XZ 0042b910 f   libohNetCore:Timer.obj
 0001:0002aa50       ?Stop@TimerManager@OpenHome@@QAEXXZ 0042ba50 f   libohNetCore:Timer.obj
 0001:0002ab30       ?CallbackLock@TimerManager@OpenHome@@QAEXXZ 0042bb30 f   libohNetCore:Timer.obj
 0001:0002ab60       ?CallbackUnlock@TimerManager@OpenHome@@QAEXXZ 0042bb60 f   libohNetCore:Timer.obj
 0001:0002ab90       ?HeadChanged@TimerManager@OpenHome@@EAEXAAVQueueSortedEntry@2@@Z 0042bb90 f   libohNetCore:Timer.obj
 0001:0002acb0       ?Fire@TimerManager@OpenHome@@AAEXXZ 0042bcb0 f   libohNetCore:Timer.obj
 0001:0002adb0       ?Thread@TimerManager@OpenHome@@ABEPAV02@XZ 0042bdb0 f   libohNetCore:Timer.obj
 0001:0002add0       ?Compare@TimerManager@OpenHome@@EAEHAAVQueueSortedEntry@2@0@Z 0042bdd0 f   libohNetCore:Timer.obj
 0001:0002ae20       ?Run@TimerManager@OpenHome@@AAEXXZ 0042be20 f   libohNetCore:Timer.obj
 0001:0002af30       ??0QueueSortedEntryTimer@OpenHome@@QAE@XZ 0042bf30 f i libohNetCore:Timer.obj
 0001:0002af60       ??_GTimerManager@OpenHome@@UAEPAXI@Z 0042bf60 f i libohNetCore:Timer.obj
 0001:0002af60       ??_ETimerManager@OpenHome@@UAEPAXI@Z 0042bf60 f i libohNetCore:Timer.obj
 0001:0002afa0       ??0?$QueueSorted@VTimer@OpenHome@@@OpenHome@@QAE@XZ 0042bfa0 f i libohNetCore:Timer.obj
 0001:0002afd0       ??1?$QueueSorted@VTimer@OpenHome@@@OpenHome@@UAE@XZ 0042bfd0 f i libohNetCore:Timer.obj
 0001:0002b000       ??_E?$QueueSorted@VTimer@OpenHome@@@OpenHome@@UAEPAXI@Z 0042c000 f i libohNetCore:Timer.obj
 0001:0002b000       ??_G?$QueueSorted@VTimer@OpenHome@@@OpenHome@@UAEPAXI@Z 0042c000 f i libohNetCore:Timer.obj
 0001:0002b040       ?Add@?$QueueSorted@VTimer@OpenHome@@@OpenHome@@QAEXAAVTimer@2@@Z 0042c040 f i libohNetCore:Timer.obj
 0001:0002b070       ?Remove@?$QueueSorted@VTimer@OpenHome@@@OpenHome@@QAEXAAVTimer@2@@Z 0042c070 f i libohNetCore:Timer.obj
 0001:0002b0a0       ?RemoveHead@?$QueueSorted@VTimer@OpenHome@@@OpenHome@@QAEAAVTimer@2@XZ 0042c0a0 f i libohNetCore:Timer.obj
 0001:0002b0d0       ?Entry@?$QueueSorted@VTimer@OpenHome@@@OpenHome@@IAEAAVTimer@2@AAVQueueSortedEntry@2@@Z 0042c0d0 f i libohNetCore:Timer.obj
 0001:0002b0f0       ??$MakeFunctor@VTimerManager@OpenHome@@XV12@@OpenHome@@YG?AV?$MemberTranslator@VTimerManager@OpenHome@@P812@AEXXZ@0@AAVTimerManager@0@ABQ820@AEXXZ@Z 0042c0f0 f i libohNetCore:Timer.obj
 0001:0002b120       ??0?$MemberTranslator@VTimerManager@OpenHome@@P812@AEXXZ@OpenHome@@QAE@AAVTimerManager@1@ABQ821@AEXXZ@Z 0042c120 f i libohNetCore:Timer.obj
 0001:0002b160       ?Thunk@?$MemberTranslator@VTimerManager@OpenHome@@P812@AEXXZ@OpenHome@@SGXABVFunctor@2@@Z 0042c160 f i libohNetCore:Timer.obj
 0001:0002b1b0       ?IsHex@Ascii@OpenHome@@SG_ND@Z 0042c1b0 f   libohNetCore:Ascii.obj
 0001:0002b210       ?IsDigit@Ascii@OpenHome@@SG_ND@Z 0042c210 f   libohNetCore:Ascii.obj
 0001:0002b250       ?IsWhitespace@Ascii@OpenHome@@SG_ND@Z 0042c250 f   libohNetCore:Ascii.obj
 0001:0002b270       ?IsLineEnding@Ascii@OpenHome@@SG_ND@Z 0042c270 f   libohNetCore:Ascii.obj
 0001:0002b2b0       ?IsAlphabetic@Ascii@OpenHome@@SG_ND@Z 0042c2b0 f   libohNetCore:Ascii.obj
 0001:0002b300       ?IsUpperCase@Ascii@OpenHome@@SG_ND@Z 0042c300 f   libohNetCore:Ascii.obj
 0001:0002b340       ?IsLowerCase@Ascii@OpenHome@@SG_ND@Z 0042c340 f   libohNetCore:Ascii.obj
 0001:0002b380       ?ToLowerCase@Ascii@OpenHome@@SGDD@Z 0042c380 f   libohNetCore:Ascii.obj
 0001:0002b3d0       ?ToUpperCase@Ascii@OpenHome@@SGDD@Z 0042c3d0 f   libohNetCore:Ascii.obj
 0001:0002b420       ?CaseInsensitiveEquals@Ascii@OpenHome@@SG_NDD@Z 0042c420 f   libohNetCore:Ascii.obj
 0001:0002b470       ?CaseInsensitiveEquals@Ascii@OpenHome@@SG_NABVBrx@2@0@Z 0042c470 f   libohNetCore:Ascii.obj
 0001:0002b500       ?RemoveTheFromStart@Ascii@OpenHome@@SG_NABVBrx@2@AAVBwx@2@@Z 0042c500 f   libohNetCore:Ascii.obj
 0001:0002b640       ?HexChar@Ascii@OpenHome@@SGDI@Z 0042c640 f   libohNetCore:Ascii.obj
 0001:0002b710       ?HexValue@Ascii@OpenHome@@SGID@Z 0042c710 f   libohNetCore:Ascii.obj
 0001:0002b810       ?DecChar@Ascii@OpenHome@@SGDI@Z 0042c810 f   libohNetCore:Ascii.obj
 0001:0002b8d0       ?DecValue@Ascii@OpenHome@@SGID@Z 0042c8d0 f   libohNetCore:Ascii.obj
 0001:0002b9a0       ?AppendDec@Ascii@OpenHome@@SGIAAVBwx@2@E@Z 0042c9a0 f   libohNetCore:Ascii.obj
 0001:0002b9c0       ?AppendDec@Ascii@OpenHome@@SGIAAVBwx@2@C@Z 0042c9c0 f   libohNetCore:Ascii.obj
 0001:0002b9e0       ?AppendDec@Ascii@OpenHome@@SGIAAVBwx@2@H@Z 0042c9e0 f   libohNetCore:Ascii.obj
 0001:0002bb60       ?AppendDec@Ascii@OpenHome@@SGIAAVBwx@2@I@Z 0042cb60 f   libohNetCore:Ascii.obj
 0001:0002bcc0       ?AppendDec@Ascii@OpenHome@@SGIAAVBwx@2@_J@Z 0042ccc0 f   libohNetCore:Ascii.obj
 0001:0002be70       ?AppendDec@Ascii@OpenHome@@SGIAAVBwx@2@_K@Z 0042ce70 f   libohNetCore:Ascii.obj
 0001:0002bfe0       ?AppendHex@Ascii@OpenHome@@SGIAAVBwx@2@I@Z 0042cfe0 f   libohNetCore:Ascii.obj
 0001:0002c080       ?AppendHex@Ascii@OpenHome@@SGIAAVBwx@2@E@Z 0042d080 f   libohNetCore:Ascii.obj
 0001:0002c0d0       ?AppendHexPrefix@Ascii@OpenHome@@SGIAAVBwx@2@@Z 0042d0d0 f   libohNetCore:Ascii.obj
 0001:0002c0f0       ?Contains@Ascii@OpenHome@@SG_NABVBrx@2@D@Z 0042d0f0 f   libohNetCore:Ascii.obj
 0001:0002c150       ?ContainsWhitespace@Ascii@OpenHome@@SG_NABVBrx@2@@Z 0042d150 f   libohNetCore:Ascii.obj
 0001:0002c1b0       ?IndexOf@Ascii@OpenHome@@SGIABVBrx@2@D@Z 0042d1b0 f   libohNetCore:Ascii.obj
 0001:0002c240       ?Substitute@Ascii@OpenHome@@SGXAAVBwx@2@DD@Z 0042d240 f   libohNetCore:Ascii.obj
 0001:0002c2d0       ?Trim@Ascii@OpenHome@@SG?AVBrn@2@ABVBrx@2@@Z 0042d2d0 f   libohNetCore:Ascii.obj
 0001:0002c3d0       ?Int@Ascii@OpenHome@@SGHABVBrx@2@@Z 0042d3d0 f   libohNetCore:Ascii.obj
 0001:0002c650       ?Uint@Ascii@OpenHome@@SGIABVBrx@2@@Z 0042d650 f   libohNetCore:Ascii.obj
 0001:0002c810       ?Int64@Ascii@OpenHome@@SG_JABVBrx@2@@Z 0042d810 f   libohNetCore:Ascii.obj
 0001:0002cae0       ?Uint64@Ascii@OpenHome@@SG_KABVBrx@2@@Z 0042dae0 f   libohNetCore:Ascii.obj
 0001:0002ccc0       ?UintHex@Ascii@OpenHome@@SGIABVBrx@2@@Z 0042dcc0 f   libohNetCore:Ascii.obj
 0001:0002ce80       ??0ReaderAscii@OpenHome@@QAE@AAVIReader@1@@Z 0042de80 f   libohNetCore:Ascii.obj
 0001:0002cf00       ?ReadInt@ReaderAscii@OpenHome@@QAEHE@Z 0042df00 f   libohNetCore:Ascii.obj
 0001:0002cfc0       ?ReadUint@ReaderAscii@OpenHome@@QAEIE@Z 0042dfc0 f   libohNetCore:Ascii.obj
 0001:0002d080       ?Read@ReaderAscii@OpenHome@@UAE?AVBrn@2@I@Z 0042e080 f   libohNetCore:Ascii.obj
 0001:0002d0e0       ?ReadUntil@ReaderAscii@OpenHome@@UAE?AVBrn@2@E@Z 0042e0e0 f   libohNetCore:Ascii.obj
 0001:0002d150       ??0WriterAscii@OpenHome@@QAE@AAVIWriter@1@@Z 0042e150 f   libohNetCore:Ascii.obj
 0001:0002d1d0       ?WriteSpace@WriterAscii@OpenHome@@UAEXXZ 0042e1d0 f   libohNetCore:Ascii.obj
 0001:0002d210       ?WriteNewline@WriterAscii@OpenHome@@UAEXXZ 0042e210 f   libohNetCore:Ascii.obj
 0001:0002d250       ?WriteTab@WriterAscii@OpenHome@@UAEXXZ 0042e250 f   libohNetCore:Ascii.obj
 0001:0002d290       ?WriteInt@WriterAscii@OpenHome@@UAEXH@Z 0042e290 f   libohNetCore:Ascii.obj
 0001:0002d370       ?WriteIntPadded@WriterAscii@OpenHome@@UAEXH@Z 0042e370 f   libohNetCore:Ascii.obj
 0001:0002d470       ?WriteUint@WriterAscii@OpenHome@@UAEXI@Z 0042e470 f   libohNetCore:Ascii.obj
 0001:0002d550       ?WriteUintPadded@WriterAscii@OpenHome@@UAEXI@Z 0042e550 f   libohNetCore:Ascii.obj
 0001:0002d650       ?WriteInt64@WriterAscii@OpenHome@@UAEX_J@Z 0042e650 f   libohNetCore:Ascii.obj
 0001:0002d730       ?WriteUint64@WriterAscii@OpenHome@@UAEX_K@Z 0042e730 f   libohNetCore:Ascii.obj
 0001:0002d810       ?WriteHex@WriterAscii@OpenHome@@UAEXI@Z 0042e810 f   libohNetCore:Ascii.obj
 0001:0002d900       ?WriteHex@WriterAscii@OpenHome@@UAEXE@Z 0042e900 f   libohNetCore:Ascii.obj
 0001:0002d9f0       ?WriteHexPrefix@WriterAscii@OpenHome@@UAEXXZ 0042e9f0 f   libohNetCore:Ascii.obj
 0001:0002da30       ?Write@WriterAscii@OpenHome@@UAEXE@Z 0042ea30 f   libohNetCore:Ascii.obj
 0001:0002da80       ?Write@WriterAscii@OpenHome@@UAEXABVBrx@2@@Z 0042ea80 f   libohNetCore:Ascii.obj
 0001:0002dac0       ?WriteFlush@WriterAscii@OpenHome@@UAEXXZ 0042eac0 f   libohNetCore:Ascii.obj
 0001:0002db00       ?StreamWriteUint@Ascii@OpenHome@@SGXAAVIWriter@2@I@Z 0042eb00 f   libohNetCore:Ascii.obj
 0001:0002dbe0       ?StreamWriteInt@Ascii@OpenHome@@SGXAAVIWriter@2@H@Z 0042ebe0 f   libohNetCore:Ascii.obj
 0001:0002dcc0       ??0AsciiError@OpenHome@@QAE@PBDI@Z 0042ecc0 f i libohNetCore:Ascii.obj
 0001:0002dd00       ??1AsciiError@OpenHome@@QAE@XZ 0042ed00 f i libohNetCore:Ascii.obj
 0001:0002dd30       ??1?$Bws@$0BE@@OpenHome@@UAE@XZ 0042ed30 f i libohNetCore:Ascii.obj
 0001:0002dd60       ??0ReaderError@OpenHome@@QAE@PBDI@Z 0042ed60 f i libohNetCore:Ascii.obj
 0001:0002dda0       ??1ReaderError@OpenHome@@QAE@XZ 0042eda0 f i libohNetCore:Ascii.obj
 0001:0002ddd0       ??1IReader@OpenHome@@UAE@XZ 0042edd0 f i libohNetCore:Ascii.obj
 0001:0002ddf0       ??_EIReader@OpenHome@@UAEPAXI@Z 0042edf0 f i libohNetCore:Ascii.obj
 0001:0002ddf0       ??_GIReader@OpenHome@@UAEPAXI@Z 0042edf0 f i libohNetCore:Ascii.obj
 0001:0002de30       ??_EReaderAscii@OpenHome@@UAEPAXI@Z 0042ee30 f i libohNetCore:Ascii.obj
 0001:0002de30       ??_GReaderAscii@OpenHome@@UAEPAXI@Z 0042ee30 f i libohNetCore:Ascii.obj
 0001:0002de70       ??0IReader@OpenHome@@QAE@XZ 0042ee70 f i libohNetCore:Ascii.obj
 0001:0002de90       ??1ReaderAscii@OpenHome@@UAE@XZ 0042ee90 f i libohNetCore:Ascii.obj
 0001:0002dec0       ??1IWriterAscii@OpenHome@@UAE@XZ 0042eec0 f i libohNetCore:Ascii.obj
 0001:0002def0       ??_EIWriterAscii@OpenHome@@UAEPAXI@Z 0042eef0 f i libohNetCore:Ascii.obj
 0001:0002def0       ??_GIWriterAscii@OpenHome@@UAEPAXI@Z 0042eef0 f i libohNetCore:Ascii.obj
 0001:0002df30       ??_GWriterAscii@OpenHome@@UAEPAXI@Z 0042ef30 f i libohNetCore:Ascii.obj
 0001:0002df30       ??_EWriterAscii@OpenHome@@UAEPAXI@Z 0042ef30 f i libohNetCore:Ascii.obj
 0001:0002df70       ??0IWriterAscii@OpenHome@@QAE@XZ 0042ef70 f i libohNetCore:Ascii.obj
 0001:0002dfa0       ??1WriterAscii@OpenHome@@UAE@XZ 0042efa0 f i libohNetCore:Ascii.obj
 0001:0002dfd0       ??1?$Bws@$07@OpenHome@@UAE@XZ 0042efd0 f i libohNetCore:Ascii.obj
 0001:0002e000       ??1?$Bws@$01@OpenHome@@UAE@XZ 0042f000 f i libohNetCore:Ascii.obj
 0001:0002e030       ??0?$Bws@$09@OpenHome@@QAE@XZ 0042f030 f i libohNetCore:Ascii.obj
 0001:0002e070       ??0?$Bws@$0BE@@OpenHome@@QAE@XZ 0042f070 f i libohNetCore:Ascii.obj
 0001:0002e0b0       ?Ptr@?$Bws@$0BE@@OpenHome@@UBEPBEXZ 0042f0b0 f i libohNetCore:Ascii.obj
 0001:0002e0d0       ??0?$Bws@$0L@@OpenHome@@QAE@XZ 0042f0d0 f i libohNetCore:Ascii.obj
 0001:0002e110       ??0?$Bws@$07@OpenHome@@QAE@XZ 0042f110 f i libohNetCore:Ascii.obj
 0001:0002e150       ?Ptr@?$Bws@$07@OpenHome@@UBEPBEXZ 0042f150 f i libohNetCore:Ascii.obj
 0001:0002e170       ??0?$Bws@$01@OpenHome@@QAE@XZ 0042f170 f i libohNetCore:Ascii.obj
 0001:0002e1b0       ?Ptr@?$Bws@$01@OpenHome@@UBEPBEXZ 0042f1b0 f i libohNetCore:Ascii.obj
 0001:0002e1d0       ??_E?$Bws@$0BE@@OpenHome@@UAEPAXI@Z 0042f1d0 f i libohNetCore:Ascii.obj
 0001:0002e1d0       ??_G?$Bws@$0BE@@OpenHome@@UAEPAXI@Z 0042f1d0 f i libohNetCore:Ascii.obj
 0001:0002e210       ??_G?$Bws@$07@OpenHome@@UAEPAXI@Z 0042f210 f i libohNetCore:Ascii.obj
 0001:0002e210       ??_E?$Bws@$07@OpenHome@@UAEPAXI@Z 0042f210 f i libohNetCore:Ascii.obj
 0001:0002e250       ??_G?$Bws@$01@OpenHome@@UAEPAXI@Z 0042f250 f i libohNetCore:Ascii.obj
 0001:0002e250       ??_E?$Bws@$01@OpenHome@@UAEPAXI@Z 0042f250 f i libohNetCore:Ascii.obj
 0001:0002e290       ??0DviDevice@Net@OpenHome@@QAE@ABVBrx@2@@Z 0042f290 f   libohNetCore:DviDevice.obj
 0001:0002e3a0       ??0DviDevice@Net@OpenHome@@IAE@ABVBrx@2@AAVIResourceManager@12@@Z 0042f3a0 f   libohNetCore:DviDevice.obj
 0001:0002e4b0       ?Construct@DviDevice@Net@OpenHome@@AAEXABVBrx@3@@Z 0042f4b0 f   libohNetCore:DviDevice.obj
 0001:0002e540       ?AddProtocol@DviDevice@Net@OpenHome@@IAEXPAVIDvProtocol@23@@Z 0042f540 f   libohNetCore:DviDevice.obj
 0001:0002e570       ??1DviDevice@Net@OpenHome@@MAE@XZ 0042f570 f   libohNetCore:DviDevice.obj
 0001:0002e710       ?Destroy@DviDevice@Net@OpenHome@@QAEXXZ 0042f710 f   libohNetCore:DviDevice.obj
 0001:0002e830       ?AddWeakRef@DviDevice@Net@OpenHome@@QAEXXZ 0042f830 f   libohNetCore:DviDevice.obj
 0001:0002e880       ?RemoveWeakRef@DviDevice@Net@OpenHome@@QAEXXZ 0042f880 f   libohNetCore:DviDevice.obj
 0001:0002e920       ?Udn@DviDevice@Net@OpenHome@@QBEABVBrx@3@XZ 0042f920 f   libohNetCore:DviDevice.obj
 0001:0002e940       ?Enabled@DviDevice@Net@OpenHome@@QBE_NXZ 0042f940 f   libohNetCore:DviDevice.obj
 0001:0002e990       ?SetEnabled@DviDevice@Net@OpenHome@@QAEXXZ 0042f990 f   libohNetCore:DviDevice.obj
 0001:0002eaa0       ?SetDisabled@DviDevice@Net@OpenHome@@QAEXVFunctor@3@@Z 0042faa0 f   libohNetCore:DviDevice.obj
 0001:0002eaf0       ?GetAttribute@DviDevice@Net@OpenHome@@QBEXPBDPAPBD@Z 0042faf0 f   libohNetCore:DviDevice.obj
 0001:0002ecc0       ?SetAttribute@DviDevice@Net@OpenHome@@QAEXPBD0@Z 0042fcc0 f   libohNetCore:DviDevice.obj
 0001:0002eea0       ?SetXmlExtension@DviDevice@Net@OpenHome@@QAEXPBD@Z 0042fea0 f   libohNetCore:DviDevice.obj
 0001:0002eed0       ?XmlExtension@DviDevice@Net@OpenHome@@QBEABVBrx@3@XZ 0042fed0 f   libohNetCore:DviDevice.obj
 0001:0002eef0       ?AddService@DviDevice@Net@OpenHome@@QAEXPAVDviService@23@@Z 0042fef0 f   libohNetCore:DviDevice.obj
 0001:0002ef70       ?ServiceCount@DviDevice@Net@OpenHome@@QBEIXZ 0042ff70 f   libohNetCore:DviDevice.obj
 0001:0002efa0       ?Service@DviDevice@Net@OpenHome@@QBEAAVDviService@23@I@Z 0042ffa0 f   libohNetCore:DviDevice.obj
 0001:0002eff0       ?AddDevice@DviDevice@Net@OpenHome@@QAEXPAV123@@Z 0042fff0 f   libohNetCore:DviDevice.obj
 0001:0002f050       ?DeviceCount@DviDevice@Net@OpenHome@@QBEIXZ 00430050 f   libohNetCore:DviDevice.obj
 0001:0002f080       ?Device@DviDevice@Net@OpenHome@@QBEAAV123@I@Z 00430080 f   libohNetCore:DviDevice.obj
 0001:0002f0d0       ?IsRoot@DviDevice@Net@OpenHome@@QBE_NXZ 004300d0 f   libohNetCore:DviDevice.obj
 0001:0002f110       ?WriteResource@DviDevice@Net@OpenHome@@UAEXABVBrx@3@IAAV?$vector@PADV?$allocator@PAD@std@@@std@@AAVIResourceWriter@23@@Z 00430110 f   libohNetCore:DviDevice.obj
 0001:0002f310       ?GetUriBase@DviDevice@Net@OpenHome@@QAEXAAVBwh@3@IIAAVIDvProtocol@23@@Z 00430310 f   libohNetCore:DviDevice.obj
 0001:0002f490       ?ConfigId@DviDevice@Net@OpenHome@@QAEIXZ 00430490 f   libohNetCore:DviDevice.obj
 0001:0002f4b0       ?CreateSid@DviDevice@Net@OpenHome@@QAEXAAVBrh@3@@Z 004304b0 f   libohNetCore:DviDevice.obj
 0001:0002f610       ?ResourceManager@DviDevice@Net@OpenHome@@QAEPAVIResourceManager@23@XZ 00430610 f   libohNetCore:DviDevice.obj
 0001:0002f630       ?SetCustomData@DviDevice@Net@OpenHome@@QAEXPBD0PAX@Z 00430630 f   libohNetCore:DviDevice.obj
 0001:0002f770       ?SetParent@DviDevice@Net@OpenHome@@AAEXPAV123@@Z 00430770 f   libohNetCore:DviDevice.obj
 0001:0002f7f0       ?Root@DviDevice@Net@OpenHome@@QBEPAV123@XZ 004307f0 f   libohNetCore:DviDevice.obj
 0001:0002f830       ?SetDisabled@DviDevice@Net@OpenHome@@AAEXVFunctor@3@_N@Z 00430830 f   libohNetCore:DviDevice.obj
 0001:0002f9c0       ?ProtocolDisabled@DviDevice@Net@OpenHome@@AAEXXZ 004309c0 f   libohNetCore:DviDevice.obj
 0001:0002fa70       ?HasService@DviDevice@Net@OpenHome@@ABE_NABVServiceType@23@@Z 00430a70 f   libohNetCore:DviDevice.obj
 0001:0002fb50       ?ChildHasService@DviDevice@Net@OpenHome@@ABE_NABVServiceType@23@@Z 00430b50 f   libohNetCore:DviDevice.obj
 0001:0002fbd0       ?ConfigChanged@DviDevice@Net@OpenHome@@AAEXXZ 00430bd0 f   libohNetCore:DviDevice.obj
 0001:0002fc10       ?SubscriptionId@DviDevice@Net@OpenHome@@AAEIXZ 00430c10 f   libohNetCore:DviDevice.obj
 0001:0002fc70       ??0AttributeMap@Net@OpenHome@@QAE@XZ 00430c70 f   libohNetCore:DviDevice.obj
 0001:0002fce0       ??1AttributeMap@Net@OpenHome@@QAE@XZ 00430ce0 f   libohNetCore:DviDevice.obj
 0001:0002fe30       ?Get@AttributeMap@Net@OpenHome@@QBEPBDPBD@Z 00430e30 f   libohNetCore:DviDevice.obj
 0001:0002ffc0       ?Set@AttributeMap@Net@OpenHome@@QAEXPBD0@Z 00430fc0 f   libohNetCore:DviDevice.obj
 0001:00030200       ??0DviDeviceStandard@Net@OpenHome@@QAE@ABVBrx@2@@Z 00431200 f   libohNetCore:DviDevice.obj
 0001:00030280       ??0DviDeviceStandard@Net@OpenHome@@QAE@ABVBrx@2@AAVIResourceManager@12@@Z 00431280 f   libohNetCore:DviDevice.obj
 0001:00030300       ?Construct@DviDeviceStandard@Net@OpenHome@@AAEXXZ 00431300 f   libohNetCore:DviDevice.obj
 0001:000303a0       ??0Attribute@AttributeMap@Net@OpenHome@@QAE@PBD0@Z 004313a0 f   libohNetCore:DviDevice.obj
 0001:00030420       ?Key@Attribute@AttributeMap@Net@OpenHome@@QBE?AVBrn@4@XZ 00431420 f   libohNetCore:DviDevice.obj
 0001:000304f0       ?Value@Attribute@AttributeMap@Net@OpenHome@@QBEPBDXZ 004314f0 f   libohNetCore:DviDevice.obj
 0001:00030520       ?UpdateValue@Attribute@AttributeMap@Net@OpenHome@@QAEXPBD@Z 00431520 f   libohNetCore:DviDevice.obj
 0001:00030550       ??0DviDeviceMap@Net@OpenHome@@QAE@XZ 00431550 f   libohNetCore:DviDevice.obj
 0001:000305e0       ??1DviDeviceMap@Net@OpenHome@@UAE@XZ 004315e0 f   libohNetCore:DviDevice.obj
 0001:00030690       ?Add@DviDeviceMap@Net@OpenHome@@SGXAAVDviDevice@23@@Z 00431690 f   libohNetCore:DviDevice.obj
 0001:000307a0       ?Remove@DviDeviceMap@Net@OpenHome@@SGXAAVDviDevice@23@@Z 004317a0 f   libohNetCore:DviDevice.obj
 0001:00030900       ?Find@DviDeviceMap@Net@OpenHome@@SGPAVDviDevice@23@ABVBrx@3@@Z 00431900 f   libohNetCore:DviDevice.obj
 0001:00030a50       ?WriteResource@DviDeviceMap@Net@OpenHome@@UAEXABVBrx@3@IAAV?$vector@PADV?$allocator@PAD@std@@@std@@AAVIResourceWriter@23@@Z 00431a50 f   libohNetCore:DviDevice.obj
 0001:00030c80       ??_EDviDevice@Net@OpenHome@@MAEPAXI@Z 00431c80 f i libohNetCore:DviDevice.obj
 0001:00030c80       ??_GDviDevice@Net@OpenHome@@MAEPAXI@Z 00431c80 f i libohNetCore:DviDevice.obj
 0001:00030cc0       ??1Parser@OpenHome@@QAE@XZ 00431cc0 f i libohNetCore:DviDevice.obj
 0001:00030cf0       ??1?$Bws@$0BG@@OpenHome@@UAE@XZ 00431cf0 f i libohNetCore:DviDevice.obj
 0001:00030d20       ??1?$map@VBrn@OpenHome@@PAVAttribute@AttributeMap@Net@2@VBufferCmp@2@V?$allocator@U?$pair@$$CBVBrn@OpenHome@@PAVAttribute@AttributeMap@Net@2@@std@@@std@@@std@@QAE@XZ 00431d20 f i libohNetCore:DviDevice.obj
 0001:00030d50       ??1?$_Tree_iterator@V?$_Tree_val@V?$_Tmap_traits@VBrn@OpenHome@@PAVAttribute@AttributeMap@Net@2@VBufferCmp@2@V?$allocator@U?$pair@$$CBVBrn@OpenHome@@PAVAttribute@AttributeMap@Net@2@@std@@@std@@$0A@@std@@@std@@@std@@QAE@XZ 00431d50 f i libohNetCore:DviDevice.obj
 0001:00030d80       ??_GAttribute@AttributeMap@Net@OpenHome@@QAEPAXI@Z 00431d80 f i libohNetCore:DviDevice.obj
 0001:00030dc0       ??1?$_Tree_const_iterator@V?$_Tree_val@V?$_Tmap_traits@VBrn@OpenHome@@PAVAttribute@AttributeMap@Net@2@VBufferCmp@2@V?$allocator@U?$pair@$$CBVBrn@OpenHome@@PAVAttribute@AttributeMap@Net@2@@std@@@std@@$0A@@std@@@std@@@std@@QAE@XZ 00431dc0 f i libohNetCore:DviDevice.obj
 0001:00030df0       ??1Attribute@AttributeMap@Net@OpenHome@@QAE@XZ 00431df0 f i libohNetCore:DviDevice.obj
 0001:00030e60       ??1?$_Tree_unchecked_const_iterator@V?$_Tree_val@V?$_Tmap_traits@VBrn@OpenHome@@PAVAttribute@AttributeMap@Net@2@VBufferCmp@2@V?$allocator@U?$pair@$$CBVBrn@OpenHome@@PAVAttribute@AttributeMap@Net@2@@std@@@std@@$0A@@std@@@std@@U_Iterator_base12@2@@std@@QAE@XZ 00431e60 f i libohNetCore:DviDevice.obj
 0001:00030e90       ??1?$_Iterator012@Ubidirectional_iterator_tag@std@@U?$pair@$$CBVBrn@OpenHome@@PAVAttribute@AttributeMap@Net@2@@2@HPBU32@ABU32@U_Iterator_base12@2@@std@@QAE@XZ 00431e90 f i libohNetCore:DviDevice.obj
 0001:00030ec0       ??1?$pair@VBrn@OpenHome@@PAVAttribute@AttributeMap@Net@2@@std@@QAE@XZ 00431ec0 f i libohNetCore:DviDevice.obj
 0001:00030ef0       ??1?$pair@V?$_Tree_iterator@V?$_Tree_val@V?$_Tmap_traits@VBrn@OpenHome@@PAVAttribute@AttributeMap@Net@2@VBufferCmp@2@V?$allocator@U?$pair@$$CBVBrn@OpenHome@@PAVAttribute@AttributeMap@Net@2@@std@@@std@@$0A@@std@@@std@@@std@@_N@std@@QAE@XZ 00431ef0 f i libohNetCore:DviDevice.obj
 0001:00030f20       ??1?$_Pair_base@VBrn@OpenHome@@PAVAttribute@AttributeMap@Net@2@@std@@QAE@XZ 00431f20 f i libohNetCore:DviDevice.obj
 0001:00030f50       ??1?$_Pair_base@V?$_Tree_iterator@V?$_Tree_val@V?$_Tmap_traits@VBrn@OpenHome@@PAVAttribute@AttributeMap@Net@2@VBufferCmp@2@V?$allocator@U?$pair@$$CBVBrn@OpenHome@@PAVAttribute@AttributeMap@Net@2@@std@@@std@@$0A@@std@@@std@@@std@@_N@std@@QAE@XZ 00431f50 f i libohNetCore:DviDevice.obj
 0001:00030f80       ??_EDviDeviceStandard@Net@OpenHome@@UAEPAXI@Z 00431f80 f i libohNetCore:DviDevice.obj
 0001:00030f80       ??_GDviDeviceStandard@Net@OpenHome@@UAEPAXI@Z 00431f80 f i libohNetCore:DviDevice.obj
 0001:00030fc0       ??1DviDeviceStandard@Net@OpenHome@@UAE@XZ 00431fc0 f i libohNetCore:DviDevice.obj
 0001:00030ff0       ??_EDviDeviceMap@Net@OpenHome@@UAEPAXI@Z 00431ff0 f i libohNetCore:DviDevice.obj
 0001:00030ff0       ??_GDviDeviceMap@Net@OpenHome@@UAEPAXI@Z 00431ff0 f i libohNetCore:DviDevice.obj
 0001:00031030       ??1?$map@VBrn@OpenHome@@PAVDviDevice@Net@2@VBufferCmp@2@V?$allocator@U?$pair@$$CBVBrn@OpenHome@@PAVDviDevice@Net@2@@std@@@std@@@std@@QAE@XZ 00432030 f i libohNetCore:DviDevice.obj
 0001:00031060       ??1?$pair@VBrn@OpenHome@@PAVDviDevice@Net@2@@std@@QAE@XZ 00432060 f i libohNetCore:DviDevice.obj
 0001:00031090       ??1?$pair@V?$_Tree_iterator@V?$_Tree_val@V?$_Tmap_traits@VBrn@OpenHome@@PAVDviDevice@Net@2@VBufferCmp@2@V?$allocator@U?$pair@$$CBVBrn@OpenHome@@PAVDviDevice@Net@2@@std@@@std@@$0A@@std@@@std@@@std@@_N@std@@QAE@XZ 00432090 f i libohNetCore:DviDevice.obj
 0001:000310c0       ??1?$_Pair_base@VBrn@OpenHome@@PAVDviDevice@Net@2@@std@@QAE@XZ 004320c0 f i libohNetCore:DviDevice.obj
 0001:000310f0       ??1?$_Pair_base@V?$_Tree_iterator@V?$_Tree_val@V?$_Tmap_traits@VBrn@OpenHome@@PAVDviDevice@Net@2@VBufferCmp@2@V?$allocator@U?$pair@$$CBVBrn@OpenHome@@PAVDviDevice@Net@2@@std@@@std@@$0A@@std@@@std@@@std@@_N@std@@QAE@XZ 004320f0 f i libohNetCore:DviDevice.obj
 0001:00031120       ??1?$_Tree_iterator@V?$_Tree_val@V?$_Tmap_traits@VBrn@OpenHome@@PAVDviDevice@Net@2@VBufferCmp@2@V?$allocator@U?$pair@$$CBVBrn@OpenHome@@PAVDviDevice@Net@2@@std@@@std@@$0A@@std@@@std@@@std@@QAE@XZ 00432120 f i libohNetCore:DviDevice.obj
 0001:00031150       ??1?$_Tree_const_iterator@V?$_Tree_val@V?$_Tmap_traits@VBrn@OpenHome@@PAVDviDevice@Net@2@VBufferCmp@2@V?$allocator@U?$pair@$$CBVBrn@OpenHome@@PAVDviDevice@Net@2@@std@@@std@@$0A@@std@@@std@@@std@@QAE@XZ 00432150 f i libohNetCore:DviDevice.obj
 0001:00031180       ??1?$_Tree_unchecked_const_iterator@V?$_Tree_val@V?$_Tmap_traits@VBrn@OpenHome@@PAVDviDevice@Net@2@VBufferCmp@2@V?$allocator@U?$pair@$$CBVBrn@OpenHome@@PAVDviDevice@Net@2@@std@@@std@@$0A@@std@@@std@@U_Iterator_base12@2@@std@@QAE@XZ 00432180 f i libohNetCore:DviDevice.obj
 0001:000311b0       ??1?$_Iterator012@Ubidirectional_iterator_tag@std@@U?$pair@$$CBVBrn@OpenHome@@PAVDviDevice@Net@2@@2@HPBU32@ABU32@U_Iterator_base12@2@@std@@QAE@XZ 004321b0 f i libohNetCore:DviDevice.obj
 0001:000311e0       ??0?$_Tree_const_iterator@V?$_Tree_val@V?$_Tmap_traits@VBrn@OpenHome@@PAVDviDevice@Net@2@VBufferCmp@2@V?$allocator@U?$pair@$$CBVBrn@OpenHome@@PAVDviDevice@Net@2@@std@@@std@@$0A@@std@@@std@@@std@@QAE@ABV01@@Z 004321e0 f i libohNetCore:DviDevice.obj
 0001:00031210       ??0?$_Tree_unchecked_const_iterator@V?$_Tree_val@V?$_Tmap_traits@VBrn@OpenHome@@PAVDviDevice@Net@2@VBufferCmp@2@V?$allocator@U?$pair@$$CBVBrn@OpenHome@@PAVDviDevice@Net@2@@std@@@std@@$0A@@std@@@std@@U_Iterator_base12@2@@std@@QAE@ABV01@@Z 00432210 f i libohNetCore:DviDevice.obj
 0001:00031250       ??0?$_Iterator012@Ubidirectional_iterator_tag@std@@U?$pair@$$CBVBrn@OpenHome@@PAVDviDevice@Net@2@@2@HPBU32@ABU32@U_Iterator_base12@2@@std@@QAE@ABU01@@Z 00432250 f i libohNetCore:DviDevice.obj
 0001:00031280       ??0?$vector@PAVDviService@Net@OpenHome@@V?$allocator@PAVDviService@Net@OpenHome@@@std@@@std@@QAE@XZ 00432280 f i libohNetCore:DviDevice.obj
 0001:000312c0       ??1?$vector@PAVDviService@Net@OpenHome@@V?$allocator@PAVDviService@Net@OpenHome@@@std@@@std@@QAE@XZ 004322c0 f i libohNetCore:DviDevice.obj
 0001:00031330       ?size@?$vector@PAVDviService@Net@OpenHome@@V?$allocator@PAVDviService@Net@OpenHome@@@std@@@std@@QBEIXZ 00432330 f i libohNetCore:DviDevice.obj
 0001:00031360       ??A?$vector@PAVDviService@Net@OpenHome@@V?$allocator@PAVDviService@Net@OpenHome@@@std@@@std@@QBEABQAVDviService@Net@OpenHome@@I@Z 00432360 f i libohNetCore:DviDevice.obj
 0001:00031400       ??A?$vector@PAVDviService@Net@OpenHome@@V?$allocator@PAVDviService@Net@OpenHome@@@std@@@std@@QAEAAPAVDviService@Net@OpenHome@@I@Z 00432400 f i libohNetCore:DviDevice.obj
 0001:000314a0       ?push_back@?$vector@PAVDviService@Net@OpenHome@@V?$allocator@PAVDviService@Net@OpenHome@@@std@@@std@@QAEXABQAVDviService@Net@OpenHome@@@Z 004324a0 f i libohNetCore:DviDevice.obj
 0001:000315b0       ??0?$vector@PAVDviDevice@Net@OpenHome@@V?$allocator@PAVDviDevice@Net@OpenHome@@@std@@@std@@QAE@XZ 004325b0 f i libohNetCore:DviDevice.obj
 0001:000315f0       ??1?$vector@PAVDviDevice@Net@OpenHome@@V?$allocator@PAVDviDevice@Net@OpenHome@@@std@@@std@@QAE@XZ 004325f0 f i libohNetCore:DviDevice.obj
 0001:00031660       ?size@?$vector@PAVDviDevice@Net@OpenHome@@V?$allocator@PAVDviDevice@Net@OpenHome@@@std@@@std@@QBEIXZ 00432660 f i libohNetCore:DviDevice.obj
 0001:00031690       ??A?$vector@PAVDviDevice@Net@OpenHome@@V?$allocator@PAVDviDevice@Net@OpenHome@@@std@@@std@@QBEABQAVDviDevice@Net@OpenHome@@I@Z 00432690 f i libohNetCore:DviDevice.obj
 0001:00031730       ??A?$vector@PAVDviDevice@Net@OpenHome@@V?$allocator@PAVDviDevice@Net@OpenHome@@@std@@@std@@QAEAAPAVDviDevice@Net@OpenHome@@I@Z 00432730 f i libohNetCore:DviDevice.obj
 0001:000317d0       ?push_back@?$vector@PAVDviDevice@Net@OpenHome@@V?$allocator@PAVDviDevice@Net@OpenHome@@@std@@@std@@QAEXABQAVDviDevice@Net@OpenHome@@@Z 004327d0 f i libohNetCore:DviDevice.obj
 0001:000318e0       ?clear@?$vector@PAVDviDevice@Net@OpenHome@@V?$allocator@PAVDviDevice@Net@OpenHome@@@std@@@std@@QAEXXZ 004328e0 f i libohNetCore:DviDevice.obj
 0001:000319e0       ??0?$vector@PAVIDvProtocol@Net@OpenHome@@V?$allocator@PAVIDvProtocol@Net@OpenHome@@@std@@@std@@QAE@XZ 004329e0 f i libohNetCore:DviDevice.obj
 0001:00031a20       ??1?$vector@PAVIDvProtocol@Net@OpenHome@@V?$allocator@PAVIDvProtocol@Net@OpenHome@@@std@@@std@@QAE@XZ 00432a20 f i libohNetCore:DviDevice.obj
 0001:00031a90       ?size@?$vector@PAVIDvProtocol@Net@OpenHome@@V?$allocator@PAVIDvProtocol@Net@OpenHome@@@std@@@std@@QBEIXZ 00432a90 f i libohNetCore:DviDevice.obj
 0001:00031ac0       ??A?$vector@PAVIDvProtocol@Net@OpenHome@@V?$allocator@PAVIDvProtocol@Net@OpenHome@@@std@@@std@@QBEABQAVIDvProtocol@Net@OpenHome@@I@Z 00432ac0 f i libohNetCore:DviDevice.obj
 0001:00031b60       ??A?$vector@PAVIDvProtocol@Net@OpenHome@@V?$allocator@PAVIDvProtocol@Net@OpenHome@@@std@@@std@@QAEAAPAVIDvProtocol@Net@OpenHome@@I@Z 00432b60 f i libohNetCore:DviDevice.obj
 0001:00031c00       ?push_back@?$vector@PAVIDvProtocol@Net@OpenHome@@V?$allocator@PAVIDvProtocol@Net@OpenHome@@@std@@@std@@QAEXABQAVIDvProtocol@Net@OpenHome@@@Z 00432c00 f i libohNetCore:DviDevice.obj
 0001:00031d10       ??0?$map@VBrn@OpenHome@@PAVAttribute@AttributeMap@Net@2@VBufferCmp@2@V?$allocator@U?$pair@$$CBVBrn@OpenHome@@PAVAttribute@AttributeMap@Net@2@@std@@@std@@@std@@QAE@XZ 00432d10 f i libohNetCore:DviDevice.obj
 0001:00031d60       ??1?$_Tree@V?$_Tmap_traits@VBrn@OpenHome@@PAVAttribute@AttributeMap@Net@2@VBufferCmp@2@V?$allocator@U?$pair@$$CBVBrn@OpenHome@@PAVAttribute@AttributeMap@Net@2@@std@@@std@@$0A@@std@@@std@@QAE@XZ 00432d60 f i libohNetCore:DviDevice.obj
 0001:00031dd0       ?begin@?$_Tree@V?$_Tmap_traits@VBrn@OpenHome@@PAVAttribute@AttributeMap@Net@2@VBufferCmp@2@V?$allocator@U?$pair@$$CBVBrn@OpenHome@@PAVAttribute@AttributeMap@Net@2@@std@@@std@@$0A@@std@@@std@@QAE?AV?$_Tree_iterator@V?$_Tree_val@V?$_Tmap_traits@VBrn@OpenHome@@PAVAttribute@AttributeMap@Net@2@VBufferCmp@2@V?$allocator@U?$pair@$$CBVBrn@OpenHome@@PAVAttribute@AttributeMap@Net@2@@std@@@std@@$0A@@std@@@std@@@2@XZ 00432dd0 f i libohNetCore:DviDevice.obj
 0001:00031e30       ?end@?$_Tree@V?$_Tmap_traits@VBrn@OpenHome@@PAVAttribute@AttributeMap@Net@2@VBufferCmp@2@V?$allocator@U?$pair@$$CBVBrn@OpenHome@@PAVAttribute@AttributeMap@Net@2@@std@@@std@@$0A@@std@@@std@@QAE?AV?$_Tree_iterator@V?$_Tree_val@V?$_Tmap_traits@VBrn@OpenHome@@PAVAttribute@AttributeMap@Net@2@VBufferCmp@2@V?$allocator@U?$pair@$$CBVBrn@OpenHome@@PAVAttribute@AttributeMap@Net@2@@std@@@std@@$0A@@std@@@std@@@2@XZ 00432e30 f i libohNetCore:DviDevice.obj
 0001:00031e80       ?end@?$_Tree@V?$_Tmap_traits@VBrn@OpenHome@@PAVAttribute@AttributeMap@Net@2@VBufferCmp@2@V?$allocator@U?$pair@$$CBVBrn@OpenHome@@PAVAttribute@AttributeMap@Net@2@@std@@@std@@$0A@@std@@@std@@QBE?AV?$_Tree_const_iterator@V?$_Tree_val@V?$_Tmap_traits@VBrn@OpenHome@@PAVAttribute@AttributeMap@Net@2@VBufferCmp@2@V?$allocator@U?$pair@$$CBVBrn@OpenHome@@PAVAttribute@AttributeMap@Net@2@@std@@@std@@$0A@@std@@@std@@@2@XZ 00432e80 f i libohNetCore:DviDevice.obj
 0001:00031ed0       ?find@?$_Tree@V?$_Tmap_traits@VBrn@OpenHome@@PAVAttribute@AttributeMap@Net@2@VBufferCmp@2@V?$allocator@U?$pair@$$CBVBrn@OpenHome@@PAVAttribute@AttributeMap@Net@2@@std@@@std@@$0A@@std@@@std@@QAE?AV?$_Tree_iterator@V?$_Tree_val@V?$_Tmap_traits@VBrn@OpenHome@@PAVAttribute@AttributeMap@Net@2@VBufferCmp@2@V?$allocator@U?$pair@$$CBVBrn@OpenHome@@PAVAttribute@AttributeMap@Net@2@@std@@@std@@$0A@@std@@@std@@@2@ABVBrn@OpenHome@@@Z 00432ed0 f i libohNetCore:DviDevice.obj
 0001:000320b0       ?find@?$_Tree@V?$_Tmap_traits@VBrn@OpenHome@@PAVAttribute@AttributeMap@Net@2@VBufferCmp@2@V?$allocator@U?$pair@$$CBVBrn@OpenHome@@PAVAttribute@AttributeMap@Net@2@@std@@@std@@$0A@@std@@@std@@QBE?AV?$_Tree_const_iterator@V?$_Tree_val@V?$_Tmap_traits@VBrn@OpenHome@@PAVAttribute@AttributeMap@Net@2@VBufferCmp@2@V?$allocator@U?$pair@$$CBVBrn@OpenHome@@PAVAttribute@AttributeMap@Net@2@@std@@@std@@$0A@@std@@@std@@@2@ABVBrn@OpenHome@@@Z 004330b0 f i libohNetCore:DviDevice.obj
 0001:00032290       ??0?$map@VBrn@OpenHome@@PAVDviDevice@Net@2@VBufferCmp@2@V?$allocator@U?$pair@$$CBVBrn@OpenHome@@PAVDviDevice@Net@2@@std@@@std@@@std@@QAE@XZ 00433290 f i libohNetCore:DviDevice.obj
 0001:000322e0       ??1?$_Tree@V?$_Tmap_traits@VBrn@OpenHome@@PAVDviDevice@Net@2@VBufferCmp@2@V?$allocator@U?$pair@$$CBVBrn@OpenHome@@PAVDviDevice@Net@2@@std@@@std@@$0A@@std@@@std@@QAE@XZ 004332e0 f i libohNetCore:DviDevice.obj
 0001:00032350       ?end@?$_Tree@V?$_Tmap_traits@VBrn@OpenHome@@PAVDviDevice@Net@2@VBufferCmp@2@V?$allocator@U?$pair@$$CBVBrn@OpenHome@@PAVDviDevice@Net@2@@std@@@std@@$0A@@std@@@std@@QAE?AV?$_Tree_iterator@V?$_Tree_val@V?$_Tmap_traits@VBrn@OpenHome@@PAVDviDevice@Net@2@VBufferCmp@2@V?$allocator@U?$pair@$$CBVBrn@OpenHome@@PAVDviDevice@Net@2@@std@@@std@@$0A@@std@@@std@@@2@XZ 00433350 f i libohNetCore:DviDevice.obj
 0001:000323a0       ?size@?$_Tree@V?$_Tmap_traits@VBrn@OpenHome@@PAVDviDevice@Net@2@VBufferCmp@2@V?$allocator@U?$pair@$$CBVBrn@OpenHome@@PAVDviDevice@Net@2@@std@@@std@@$0A@@std@@@std@@QBEIXZ 004333a0 f i libohNetCore:DviDevice.obj
 0001:000323c0       ?erase@?$_Tree@V?$_Tmap_traits@VBrn@OpenHome@@PAVDviDevice@Net@2@VBufferCmp@2@V?$allocator@U?$pair@$$CBVBrn@OpenHome@@PAVDviDevice@Net@2@@std@@@std@@$0A@@std@@@std@@QAE?AV?$_Tree_iterator@V?$_Tree_val@V?$_Tmap_traits@VBrn@OpenHome@@PAVDviDevice@Net@2@VBufferCmp@2@V?$allocator@U?$pair@$$CBVBrn@OpenHome@@PAVDviDevice@Net@2@@std@@@std@@$0A@@std@@@std@@@2@V?$_Tree_const_iterator@V?$_Tree_val@V?$_Tmap_traits@VBrn@OpenHome@@PAVDviDevice@Net@2@VBufferCmp@2@V?$allocator@U?$pair@$$CBVBrn@OpenHome@@PAVDviDevice@Net@2@@std@@@std@@$0A@@std@@@std@@@2@@Z 004333c0 f i libohNetCore:DviDevice.obj
 0001:00032ad0       ?find@?$_Tree@V?$_Tmap_traits@VBrn@OpenHome@@PAVDviDevice@Net@2@VBufferCmp@2@V?$allocator@U?$pair@$$CBVBrn@OpenHome@@PAVDviDevice@Net@2@@std@@@std@@$0A@@std@@@std@@QAE?AV?$_Tree_iterator@V?$_Tree_val@V?$_Tmap_traits@VBrn@OpenHome@@PAVDviDevice@Net@2@VBufferCmp@2@V?$allocator@U?$pair@$$CBVBrn@OpenHome@@PAVDviDevice@Net@2@@std@@@std@@$0A@@std@@@std@@@2@ABVBrn@OpenHome@@@Z 00433ad0 f i libohNetCore:DviDevice.obj
 0001:00032cb0       ??C?$_Tree_iterator@V?$_Tree_val@V?$_Tmap_traits@VBrn@OpenHome@@PAVAttribute@AttributeMap@Net@2@VBufferCmp@2@V?$allocator@U?$pair@$$CBVBrn@OpenHome@@PAVAttribute@AttributeMap@Net@2@@std@@@std@@$0A@@std@@@std@@@std@@QBEPAU?$pair@$$CBVBrn@OpenHome@@PAVAttribute@AttributeMap@Net@2@@1@XZ 00433cb0 f i libohNetCore:DviDevice.obj
 0001:00032ce0       ??E?$_Tree_iterator@V?$_Tree_val@V?$_Tmap_traits@VBrn@OpenHome@@PAVAttribute@AttributeMap@Net@2@VBufferCmp@2@V?$allocator@U?$pair@$$CBVBrn@OpenHome@@PAVAttribute@AttributeMap@Net@2@@std@@@std@@$0A@@std@@@std@@@std@@QAE?AV01@H@Z 00433ce0 f i libohNetCore:DviDevice.obj
 0001:00032db0       ??8?$_Tree_const_iterator@V?$_Tree_val@V?$_Tmap_traits@VBrn@OpenHome@@PAVAttribute@AttributeMap@Net@2@VBufferCmp@2@V?$allocator@U?$pair@$$CBVBrn@OpenHome@@PAVAttribute@AttributeMap@Net@2@@std@@@std@@$0A@@std@@@std@@@std@@QBE_NABV01@@Z 00433db0 f i libohNetCore:DviDevice.obj
 0001:00032e70       ??9?$_Tree_const_iterator@V?$_Tree_val@V?$_Tmap_traits@VBrn@OpenHome@@PAVAttribute@AttributeMap@Net@2@VBufferCmp@2@V?$allocator@U?$pair@$$CBVBrn@OpenHome@@PAVAttribute@AttributeMap@Net@2@@std@@@std@@$0A@@std@@@std@@@std@@QBE_NABV01@@Z 00433e70 f i libohNetCore:DviDevice.obj
 0001:00032eb0       ??C?$_Tree_unchecked_const_iterator@V?$_Tree_val@V?$_Tmap_traits@VBrn@OpenHome@@PAVAttribute@AttributeMap@Net@2@VBufferCmp@2@V?$allocator@U?$pair@$$CBVBrn@OpenHome@@PAVAttribute@AttributeMap@Net@2@@std@@@std@@$0A@@std@@@std@@U_Iterator_base12@2@@std@@QBEPBU?$pair@$$CBVBrn@OpenHome@@PAVAttribute@AttributeMap@Net@2@@1@XZ 00433eb0 f i libohNetCore:DviDevice.obj
 0001:00032ee0       ??C?$_Tree_iterator@V?$_Tree_val@V?$_Tmap_traits@VBrn@OpenHome@@PAVDviDevice@Net@2@VBufferCmp@2@V?$allocator@U?$pair@$$CBVBrn@OpenHome@@PAVDviDevice@Net@2@@std@@@std@@$0A@@std@@@std@@@std@@QBEPAU?$pair@$$CBVBrn@OpenHome@@PAVDviDevice@Net@2@@1@XZ 00433ee0 f i libohNetCore:DviDevice.obj
 0001:00032f10       ??9?$_Tree_const_iterator@V?$_Tree_val@V?$_Tmap_traits@VBrn@OpenHome@@PAVDviDevice@Net@2@VBufferCmp@2@V?$allocator@U?$pair@$$CBVBrn@OpenHome@@PAVDviDevice@Net@2@@std@@@std@@$0A@@std@@@std@@@std@@QBE_NABV01@@Z 00433f10 f i libohNetCore:DviDevice.obj
 0001:00032f50       ??1?$_Vector_iterator@V?$_Vector_val@PAVDviDevice@Net@OpenHome@@V?$allocator@PAVDviDevice@Net@OpenHome@@@std@@@std@@@std@@QAE@XZ 00433f50 f i libohNetCore:DviDevice.obj
 0001:00032f80       ??0?$_Vector_const_iterator@V?$_Vector_val@PAVDviDevice@Net@OpenHome@@V?$allocator@PAVDviDevice@Net@OpenHome@@@std@@@std@@@std@@QAE@ABV01@@Z 00433f80 f i libohNetCore:DviDevice.obj
 0001:00032fc0       ??1?$_Vector_const_iterator@V?$_Vector_val@PAVDviDevice@Net@OpenHome@@V?$allocator@PAVDviDevice@Net@OpenHome@@@std@@@std@@@std@@QAE@XZ 00433fc0 f i libohNetCore:DviDevice.obj
 0001:00032ff0       ??0?$_Tree_iterator@V?$_Tree_val@V?$_Tmap_traits@VBrn@OpenHome@@PAVAttribute@AttributeMap@Net@2@VBufferCmp@2@V?$allocator@U?$pair@$$CBVBrn@OpenHome@@PAVAttribute@AttributeMap@Net@2@@std@@@std@@$0A@@std@@@std@@@std@@QAE@ABV01@@Z 00433ff0 f i libohNetCore:DviDevice.obj
 0001:00033020       ??0?$_Tree_const_iterator@V?$_Tree_val@V?$_Tmap_traits@VBrn@OpenHome@@PAVAttribute@AttributeMap@Net@2@VBufferCmp@2@V?$allocator@U?$pair@$$CBVBrn@OpenHome@@PAVAttribute@AttributeMap@Net@2@@std@@@std@@$0A@@std@@@std@@@std@@QAE@ABV01@@Z 00434020 f i libohNetCore:DviDevice.obj
 0001:00033050       ??0?$_Tree_iterator@V?$_Tree_val@V?$_Tmap_traits@VBrn@OpenHome@@PAVDviDevice@Net@2@VBufferCmp@2@V?$allocator@U?$pair@$$CBVBrn@OpenHome@@PAVDviDevice@Net@2@@std@@@std@@$0A@@std@@@std@@@std@@QAE@ABV01@@Z 00434050 f i libohNetCore:DviDevice.obj
 0001:00033080       ??0?$_Iterator012@Urandom_access_iterator_tag@std@@PAVDviDevice@Net@OpenHome@@HPBQAV345@ABQAV345@U_Iterator_base12@2@@std@@QAE@ABU01@@Z 00434080 f i libohNetCore:DviDevice.obj
 0001:000330b0       ??1?$_Iterator012@Urandom_access_iterator_tag@std@@PAVDviDevice@Net@OpenHome@@HPBQAV345@ABQAV345@U_Iterator_base12@2@@std@@QAE@XZ 004340b0 f i libohNetCore:DviDevice.obj
 0001:000330e0       ??0?$_Tree_unchecked_const_iterator@V?$_Tree_val@V?$_Tmap_traits@VBrn@OpenHome@@PAVAttribute@AttributeMap@Net@2@VBufferCmp@2@V?$allocator@U?$pair@$$CBVBrn@OpenHome@@PAVAttribute@AttributeMap@Net@2@@std@@@std@@$0A@@std@@@std@@U_Iterator_base12@2@@std@@QAE@ABV01@@Z 004340e0 f i libohNetCore:DviDevice.obj
 0001:00033120       ??0?$_Iterator012@Ubidirectional_iterator_tag@std@@U?$pair@$$CBVBrn@OpenHome@@PAVAttribute@AttributeMap@Net@2@@2@HPBU32@ABU32@U_Iterator_base12@2@@std@@QAE@ABU01@@Z 00434120 f i libohNetCore:DviDevice.obj
 0001:00033150       ?_Inside@?$vector@PAVDviService@Net@OpenHome@@V?$allocator@PAVDviService@Net@OpenHome@@@std@@@std@@IBE_NPBQAVDviService@Net@OpenHome@@@Z 00434150 f i libohNetCore:DviDevice.obj
 0001:000331a0       ?_Reserve@?$vector@PAVDviService@Net@OpenHome@@V?$allocator@PAVDviService@Net@OpenHome@@@std@@@std@@IAEXI@Z 004341a0 f i libohNetCore:DviDevice.obj
 0001:00033220       ?_Tidy@?$vector@PAVDviService@Net@OpenHome@@V?$allocator@PAVDviService@Net@OpenHome@@@std@@@std@@IAEXXZ 00434220 f i libohNetCore:DviDevice.obj
 0001:000332b0       ?_Orphan_range@?$vector@PAVDviService@Net@OpenHome@@V?$allocator@PAVDviService@Net@OpenHome@@@std@@@std@@IBEXPAPAVDviService@Net@OpenHome@@0@Z 004342b0 f i libohNetCore:DviDevice.obj
 0001:000333c0       ??0?$_Vector_val@PAVDviService@Net@OpenHome@@V?$allocator@PAVDviService@Net@OpenHome@@@std@@@std@@QAE@V?$allocator@PAVDviService@Net@OpenHome@@@1@@Z 004343c0 f i libohNetCore:DviDevice.obj
 0001:000334e0       ??1?$_Vector_val@PAVDviService@Net@OpenHome@@V?$allocator@PAVDviService@Net@OpenHome@@@std@@@std@@QAE@XZ 004344e0 f i libohNetCore:DviDevice.obj
 0001:000335c0       ??0?$allocator@PAVDviService@Net@OpenHome@@@std@@QAE@XZ 004345c0 f i libohNetCore:DviDevice.obj
 0001:000335e0       ?begin@?$vector@PAVDviDevice@Net@OpenHome@@V?$allocator@PAVDviDevice@Net@OpenHome@@@std@@@std@@QAE?AV?$_Vector_iterator@V?$_Vector_val@PAVDviDevice@Net@OpenHome@@V?$allocator@PAVDviDevice@Net@OpenHome@@@std@@@std@@@2@XZ 004345e0 f i libohNetCore:DviDevice.obj
 0001:00033630       ?end@?$vector@PAVDviDevice@Net@OpenHome@@V?$allocator@PAVDviDevice@Net@OpenHome@@@std@@@std@@QAE?AV?$_Vector_iterator@V?$_Vector_val@PAVDviDevice@Net@OpenHome@@V?$allocator@PAVDviDevice@Net@OpenHome@@@std@@@std@@@2@XZ 00434630 f i libohNetCore:DviDevice.obj
 0001:00033680       ?erase@?$vector@PAVDviDevice@Net@OpenHome@@V?$allocator@PAVDviDevice@Net@OpenHome@@@std@@@std@@QAE?AV?$_Vector_iterator@V?$_Vector_val@PAVDviDevice@Net@OpenHome@@V?$allocator@PAVDviDevice@Net@OpenHome@@@std@@@std@@@2@V?$_Vector_const_iterator@V?$_Vector_val@PAVDviDevice@Net@OpenHome@@V?$allocator@PAVDviDevice@Net@OpenHome@@@std@@@std@@@2@0@Z 00434680 f i libohNetCore:DviDevice.obj
 0001:00033870       ?_Inside@?$vector@PAVDviDevice@Net@OpenHome@@V?$allocator@PAVDviDevice@Net@OpenHome@@@std@@@std@@IBE_NPBQAVDviDevice@Net@OpenHome@@@Z 00434870 f i libohNetCore:DviDevice.obj
 0001:000338c0       ?_Reserve@?$vector@PAVDviDevice@Net@OpenHome@@V?$allocator@PAVDviDevice@Net@OpenHome@@@std@@@std@@IAEXI@Z 004348c0 f i libohNetCore:DviDevice.obj
 0001:00033940       ?_Tidy@?$vector@PAVDviDevice@Net@OpenHome@@V?$allocator@PAVDviDevice@Net@OpenHome@@@std@@@std@@IAEXXZ 00434940 f i libohNetCore:DviDevice.obj
 0001:000339d0       ?_Orphan_range@?$vector@PAVDviDevice@Net@OpenHome@@V?$allocator@PAVDviDevice@Net@OpenHome@@@std@@@std@@IBEXPAPAVDviDevice@Net@OpenHome@@0@Z 004349d0 f i libohNetCore:DviDevice.obj
 0001:00033ae0       ??0?$_Vector_val@PAVDviDevice@Net@OpenHome@@V?$allocator@PAVDviDevice@Net@OpenHome@@@std@@@std@@QAE@V?$allocator@PAVDviDevice@Net@OpenHome@@@1@@Z 00434ae0 f i libohNetCore:DviDevice.obj
 0001:00033c00       ??1?$_Vector_val@PAVDviDevice@Net@OpenHome@@V?$allocator@PAVDviDevice@Net@OpenHome@@@std@@@std@@QAE@XZ 00434c00 f i libohNetCore:DviDevice.obj
 0001:00033ce0       ??0?$allocator@PAVDviDevice@Net@OpenHome@@@std@@QAE@XZ 00434ce0 f i libohNetCore:DviDevice.obj
 0001:00033d00       ?_Inside@?$vector@PAVIDvProtocol@Net@OpenHome@@V?$allocator@PAVIDvProtocol@Net@OpenHome@@@std@@@std@@IBE_NPBQAVIDvProtocol@Net@OpenHome@@@Z 00434d00 f i libohNetCore:DviDevice.obj
 0001:00033d50       ?_Reserve@?$vector@PAVIDvProtocol@Net@OpenHome@@V?$allocator@PAVIDvProtocol@Net@OpenHome@@@std@@@std@@IAEXI@Z 00434d50 f i libohNetCore:DviDevice.obj
 0001:00033dd0       ?_Tidy@?$vector@PAVIDvProtocol@Net@OpenHome@@V?$allocator@PAVIDvProtocol@Net@OpenHome@@@std@@@std@@IAEXXZ 00434dd0 f i libohNetCore:DviDevice.obj
 0001:00033e60       ?_Orphan_range@?$vector@PAVIDvProtocol@Net@OpenHome@@V?$allocator@PAVIDvProtocol@Net@OpenHome@@@std@@@std@@IBEXPAPAVIDvProtocol@Net@OpenHome@@0@Z 00434e60 f i libohNetCore:DviDevice.obj
 0001:00033f70       ??0?$_Vector_val@PAVIDvProtocol@Net@OpenHome@@V?$allocator@PAVIDvProtocol@Net@OpenHome@@@std@@@std@@QAE@V?$allocator@PAVIDvProtocol@Net@OpenHome@@@1@@Z 00434f70 f i libohNetCore:DviDevice.obj
 0001:00034090       ??1?$_Vector_val@PAVIDvProtocol@Net@OpenHome@@V?$allocator@PAVIDvProtocol@Net@OpenHome@@@std@@@std@@QAE@XZ 00435090 f i libohNetCore:DviDevice.obj
 0001:00034170       ??0?$allocator@PAVIDvProtocol@Net@OpenHome@@@std@@QAE@XZ 00435170 f i libohNetCore:DviDevice.obj
 0001:00034190       ??0?$_Tree@V?$_Tmap_traits@VBrn@OpenHome@@PAVAttribute@AttributeMap@Net@2@VBufferCmp@2@V?$allocator@U?$pair@$$CBVBrn@OpenHome@@PAVAttribute@AttributeMap@Net@2@@std@@@std@@$0A@@std@@@std@@QAE@ABVBufferCmp@OpenHome@@ABV?$allocator@U?$pair@$$CBVBrn@OpenHome@@PAVAttribute@AttributeMap@Net@2@@std@@@1@@Z 00435190 f i libohNetCore:DviDevice.obj
 0001:000341e0       ?lower_bound@?$_Tree@V?$_Tmap_traits@VBrn@OpenHome@@PAVAttribute@AttributeMap@Net@2@VBufferCmp@2@V?$allocator@U?$pair@$$CBVBrn@OpenHome@@PAVAttribute@AttributeMap@Net@2@@std@@@std@@$0A@@std@@@std@@QAE?AV?$_Tree_iterator@V?$_Tree_val@V?$_Tmap_traits@VBrn@OpenHome@@PAVAttribute@AttributeMap@Net@2@VBufferCmp@2@V?$allocator@U?$pair@$$CBVBrn@OpenHome@@PAVAttribute@AttributeMap@Net@2@@std@@@std@@$0A@@std@@@std@@@2@ABVBrn@OpenHome@@@Z 004351e0 f i libohNetCore:DviDevice.obj
 0001:00034240       ?lower_bound@?$_Tree@V?$_Tmap_traits@VBrn@OpenHome@@PAVAttribute@AttributeMap@Net@2@VBufferCmp@2@V?$allocator@U?$pair@$$CBVBrn@OpenHome@@PAVAttribute@AttributeMap@Net@2@@std@@@std@@$0A@@std@@@std@@QBE?AV?$_Tree_const_iterator@V?$_Tree_val@V?$_Tmap_traits@VBrn@OpenHome@@PAVAttribute@AttributeMap@Net@2@VBufferCmp@2@V?$allocator@U?$pair@$$CBVBrn@OpenHome@@PAVAttribute@AttributeMap@Net@2@@std@@@std@@$0A@@std@@@std@@@2@ABVBrn@OpenHome@@@Z 00435240 f i libohNetCore:DviDevice.obj
 0001:000342a0       ?_Lmost@?$_Tree@V?$_Tmap_traits@VBrn@OpenHome@@PAVAttribute@AttributeMap@Net@2@VBufferCmp@2@V?$allocator@U?$pair@$$CBVBrn@OpenHome@@PAVAttribute@AttributeMap@Net@2@@std@@@std@@$0A@@std@@@std@@IBEAAPAU_Node@?$_Tree_nod@V?$_Tmap_traits@VBrn@OpenHome@@PAVAttribute@AttributeMap@Net@2@VBufferCmp@2@V?$allocator@U?$pair@$$CBVBrn@OpenHome@@PAVAttribute@AttributeMap@Net@2@@std@@@std@@$0A@@std@@@2@XZ 004352a0 f i libohNetCore:DviDevice.obj
 0001:000342d0       ?_Tidy@?$_Tree@V?$_Tmap_traits@VBrn@OpenHome@@PAVAttribute@AttributeMap@Net@2@VBufferCmp@2@V?$allocator@U?$pair@$$CBVBrn@OpenHome@@PAVAttribute@AttributeMap@Net@2@@std@@@std@@$0A@@std@@@std@@IAEXXZ 004352d0 f i libohNetCore:DviDevice.obj
 0001:000343d0       ??1?$_Tree_val@V?$_Tmap_traits@VBrn@OpenHome@@PAVAttribute@AttributeMap@Net@2@VBufferCmp@2@V?$allocator@U?$pair@$$CBVBrn@OpenHome@@PAVAttribute@AttributeMap@Net@2@@std@@@std@@$0A@@std@@@std@@QAE@XZ 004353d0 f i libohNetCore:DviDevice.obj
 0001:00034440       ?_Key@?$_Tree_val@V?$_Tmap_traits@VBrn@OpenHome@@PAVAttribute@AttributeMap@Net@2@VBufferCmp@2@V?$allocator@U?$pair@$$CBVBrn@OpenHome@@PAVAttribute@AttributeMap@Net@2@@std@@@std@@$0A@@std@@@std@@SGAAVBrn@OpenHome@@PAU_Node@?$_Tree_nod@V?$_Tmap_traits@VBrn@OpenHome@@PAVAttribute@AttributeMap@Net@2@VBufferCmp@2@V?$allocator@U?$pair@$$CBVBrn@OpenHome@@PAVAttribute@AttributeMap@Net@2@@std@@@std@@$0A@@std@@@2@@Z 00435440 f i libohNetCore:DviDevice.obj
 0001:00034460       ??0?$allocator@U?$pair@$$CBVBrn@OpenHome@@PAVAttribute@AttributeMap@Net@2@@std@@@std@@QAE@XZ 00435460 f i libohNetCore:DviDevice.obj
 0001:00034480       ??0?$_Tree@V?$_Tmap_traits@VBrn@OpenHome@@PAVDviDevice@Net@2@VBufferCmp@2@V?$allocator@U?$pair@$$CBVBrn@OpenHome@@PAVDviDevice@Net@2@@std@@@std@@$0A@@std@@@std@@QAE@ABVBufferCmp@OpenHome@@ABV?$allocator@U?$pair@$$CBVBrn@OpenHome@@PAVDviDevice@Net@2@@std@@@1@@Z 00435480 f i libohNetCore:DviDevice.obj
 0001:000344d0       ?lower_bound@?$_Tree@V?$_Tmap_traits@VBrn@OpenHome@@PAVDviDevice@Net@2@VBufferCmp@2@V?$allocator@U?$pair@$$CBVBrn@OpenHome@@PAVDviDevice@Net@2@@std@@@std@@$0A@@std@@@std@@QAE?AV?$_Tree_iterator@V?$_Tree_val@V?$_Tmap_traits@VBrn@OpenHome@@PAVDviDevice@Net@2@VBufferCmp@2@V?$allocator@U?$pair@$$CBVBrn@OpenHome@@PAVDviDevice@Net@2@@std@@@std@@$0A@@std@@@std@@@2@ABVBrn@OpenHome@@@Z 004354d0 f i libohNetCore:DviDevice.obj
 0001:00034530       ?_Lmost@?$_Tree@V?$_Tmap_traits@VBrn@OpenHome@@PAVDviDevice@Net@2@VBufferCmp@2@V?$allocator@U?$pair@$$CBVBrn@OpenHome@@PAVDviDevice@Net@2@@std@@@std@@$0A@@std@@@std@@IBEAAPAU_Node@?$_Tree_nod@V?$_Tmap_traits@VBrn@OpenHome@@PAVDviDevice@Net@2@VBufferCmp@2@V?$allocator@U?$pair@$$CBVBrn@OpenHome@@PAVDviDevice@Net@2@@std@@@std@@$0A@@std@@@2@XZ 00435530 f i libohNetCore:DviDevice.obj
 0001:00034560       ?_Lrotate@?$_Tree@V?$_Tmap_traits@VBrn@OpenHome@@PAVDviDevice@Net@2@VBufferCmp@2@V?$allocator@U?$pair@$$CBVBrn@OpenHome@@PAVDviDevice@Net@2@@std@@@std@@$0A@@std@@@std@@IAEXPAU_Node@?$_Tree_nod@V?$_Tmap_traits@VBrn@OpenHome@@PAVDviDevice@Net@2@VBufferCmp@2@V?$allocator@U?$pair@$$CBVBrn@OpenHome@@PAVDviDevice@Net@2@@std@@@std@@$0A@@std@@@2@@Z 00435560 f i libohNetCore:DviDevice.obj
 0001:00034680       ?_Rmost@?$_Tree@V?$_Tmap_traits@VBrn@OpenHome@@PAVDviDevice@Net@2@VBufferCmp@2@V?$allocator@U?$pair@$$CBVBrn@OpenHome@@PAVDviDevice@Net@2@@std@@@std@@$0A@@std@@@std@@IBEAAPAU_Node@?$_Tree_nod@V?$_Tmap_traits@VBrn@OpenHome@@PAVDviDevice@Net@2@VBufferCmp@2@V?$allocator@U?$pair@$$CBVBrn@OpenHome@@PAVDviDevice@Net@2@@std@@@std@@$0A@@std@@@2@XZ 00435680 f i libohNetCore:DviDevice.obj
 0001:000346b0       ?_Root@?$_Tree@V?$_Tmap_traits@VBrn@OpenHome@@PAVDviDevice@Net@2@VBufferCmp@2@V?$allocator@U?$pair@$$CBVBrn@OpenHome@@PAVDviDevice@Net@2@@std@@@std@@$0A@@std@@@std@@IBEAAPAU_Node@?$_Tree_nod@V?$_Tmap_traits@VBrn@OpenHome@@PAVDviDevice@Net@2@VBufferCmp@2@V?$allocator@U?$pair@$$CBVBrn@OpenHome@@PAVDviDevice@Net@2@@std@@@std@@$0A@@std@@@2@XZ 004356b0 f i libohNetCore:DviDevice.obj
 0001:000346e0       ?_Rrotate@?$_Tree@V?$_Tmap_traits@VBrn@OpenHome@@PAVDviDevice@Net@2@VBufferCmp@2@V?$allocator@U?$pair@$$CBVBrn@OpenHome@@PAVDviDevice@Net@2@@std@@@std@@$0A@@std@@@std@@IAEXPAU_Node@?$_Tree_nod@V?$_Tmap_traits@VBrn@OpenHome@@PAVDviDevice@Net@2@VBufferCmp@2@V?$allocator@U?$pair@$$CBVBrn@OpenHome@@PAVDviDevice@Net@2@@std@@@std@@$0A@@std@@@2@@Z 004356e0 f i libohNetCore:DviDevice.obj
 0001:00034800       ?_Orphan_ptr@?$_Tree@V?$_Tmap_traits@VBrn@OpenHome@@PAVDviDevice@Net@2@VBufferCmp@2@V?$allocator@U?$pair@$$CBVBrn@OpenHome@@PAVDviDevice@Net@2@@std@@@std@@$0A@@std@@@std@@IBEXAAV12@PAU_Node@?$_Tree_nod@V?$_Tmap_traits@VBrn@OpenHome@@PAVDviDevice@Net@2@VBufferCmp@2@V?$allocator@U?$pair@$$CBVBrn@OpenHome@@PAVDviDevice@Net@2@@std@@@std@@$0A@@std@@@2@@Z 00435800 f i libohNetCore:DviDevice.obj
 0001:00034910       ?_Tidy@?$_Tree@V?$_Tmap_traits@VBrn@OpenHome@@PAVDviDevice@Net@2@VBufferCmp@2@V?$allocator@U?$pair@$$CBVBrn@OpenHome@@PAVDviDevice@Net@2@@std@@@std@@$0A@@std@@@std@@IAEXXZ 00435910 f i libohNetCore:DviDevice.obj
 0001:00034a10       ??1?$_Tree_val@V?$_Tmap_traits@VBrn@OpenHome@@PAVDviDevice@Net@2@VBufferCmp@2@V?$allocator@U?$pair@$$CBVBrn@OpenHome@@PAVDviDevice@Net@2@@std@@@std@@$0A@@std@@@std@@QAE@XZ 00435a10 f i libohNetCore:DviDevice.obj
 0001:00034a80       ?_Color@?$_Tree_val@V?$_Tmap_traits@VBrn@OpenHome@@PAVDviDevice@Net@2@VBufferCmp@2@V?$allocator@U?$pair@$$CBVBrn@OpenHome@@PAVDviDevice@Net@2@@std@@@std@@$0A@@std@@@std@@SGAADPAU_Node@?$_Tree_nod@V?$_Tmap_traits@VBrn@OpenHome@@PAVDviDevice@Net@2@VBufferCmp@2@V?$allocator@U?$pair@$$CBVBrn@OpenHome@@PAVDviDevice@Net@2@@std@@@std@@$0A@@std@@@2@@Z 00435a80 f i libohNetCore:DviDevice.obj
 0001:00034a90       ?_Isnil@?$_Tree_val@V?$_Tmap_traits@VBrn@OpenHome@@PAVDviDevice@Net@2@VBufferCmp@2@V?$allocator@U?$pair@$$CBVBrn@OpenHome@@PAVDviDevice@Net@2@@std@@@std@@$0A@@std@@@std@@SGAADPAU_Node@?$_Tree_nod@V?$_Tmap_traits@VBrn@OpenHome@@PAVDviDevice@Net@2@VBufferCmp@2@V?$allocator@U?$pair@$$CBVBrn@OpenHome@@PAVDviDevice@Net@2@@std@@@std@@$0A@@std@@@2@@Z 00435a90 f i libohNetCore:DviDevice.obj
 0001:00034aa0       ?_Key@?$_Tree_val@V?$_Tmap_traits@VBrn@OpenHome@@PAVDviDevice@Net@2@VBufferCmp@2@V?$allocator@U?$pair@$$CBVBrn@OpenHome@@PAVDviDevice@Net@2@@std@@@std@@$0A@@std@@@std@@SGAAVBrn@OpenHome@@PAU_Node@?$_Tree_nod@V?$_Tmap_traits@VBrn@OpenHome@@PAVDviDevice@Net@2@VBufferCmp@2@V?$allocator@U?$pair@$$CBVBrn@OpenHome@@PAVDviDevice@Net@2@@std@@@std@@$0A@@std@@@2@@Z 00435aa0 f i libohNetCore:DviDevice.obj
 0001:00034ac0       ?_Left@?$_Tree_val@V?$_Tmap_traits@VBrn@OpenHome@@PAVDviDevice@Net@2@VBufferCmp@2@V?$allocator@U?$pair@$$CBVBrn@OpenHome@@PAVDviDevice@Net@2@@std@@@std@@$0A@@std@@@std@@SGAAPAU_Node@?$_Tree_nod@V?$_Tmap_traits@VBrn@OpenHome@@PAVDviDevice@Net@2@VBufferCmp@2@V?$allocator@U?$pair@$$CBVBrn@OpenHome@@PAVDviDevice@Net@2@@std@@@std@@$0A@@std@@@2@PAU342@@Z 00435ac0 f i libohNetCore:DviDevice.obj
 0001:00034ad0       ?_Parent@?$_Tree_val@V?$_Tmap_traits@VBrn@OpenHome@@PAVDviDevice@Net@2@VBufferCmp@2@V?$allocator@U?$pair@$$CBVBrn@OpenHome@@PAVDviDevice@Net@2@@std@@@std@@$0A@@std@@@std@@SGAAPAU_Node@?$_Tree_nod@V?$_Tmap_traits@VBrn@OpenHome@@PAVDviDevice@Net@2@VBufferCmp@2@V?$allocator@U?$pair@$$CBVBrn@OpenHome@@PAVDviDevice@Net@2@@std@@@std@@$0A@@std@@@2@PAU342@@Z 00435ad0 f i libohNetCore:DviDevice.obj
 0001:00034ae0       ?_Right@?$_Tree_val@V?$_Tmap_traits@VBrn@OpenHome@@PAVDviDevice@Net@2@VBufferCmp@2@V?$allocator@U?$pair@$$CBVBrn@OpenHome@@PAVDviDevice@Net@2@@std@@@std@@$0A@@std@@@std@@SGAAPAU_Node@?$_Tree_nod@V?$_Tmap_traits@VBrn@OpenHome@@PAVDviDevice@Net@2@VBufferCmp@2@V?$allocator@U?$pair@$$CBVBrn@OpenHome@@PAVDviDevice@Net@2@@std@@@std@@$0A@@std@@@2@PAU342@@Z 00435ae0 f i libohNetCore:DviDevice.obj
 0001:00034af0       ?_Myval@?$_Tree_val@V?$_Tmap_traits@VBrn@OpenHome@@PAVDviDevice@Net@2@VBufferCmp@2@V?$allocator@U?$pair@$$CBVBrn@OpenHome@@PAVDviDevice@Net@2@@std@@@std@@$0A@@std@@@std@@SGAAU?$pair@$$CBVBrn@OpenHome@@PAVDviDevice@Net@2@@2@PAU_Node@?$_Tree_nod@V?$_Tmap_traits@VBrn@OpenHome@@PAVDviDevice@Net@2@VBufferCmp@2@V?$allocator@U?$pair@$$CBVBrn@OpenHome@@PAVDviDevice@Net@2@@std@@@std@@$0A@@std@@@2@@Z 00435af0 f i libohNetCore:DviDevice.obj
 0001:00034b00       ?_Max@?$_Tree_val@V?$_Tmap_traits@VBrn@OpenHome@@PAVDviDevice@Net@2@VBufferCmp@2@V?$allocator@U?$pair@$$CBVBrn@OpenHome@@PAVDviDevice@Net@2@@std@@@std@@$0A@@std@@@std@@SGPAU_Node@?$_Tree_nod@V?$_Tmap_traits@VBrn@OpenHome@@PAVDviDevice@Net@2@VBufferCmp@2@V?$allocator@U?$pair@$$CBVBrn@OpenHome@@PAVDviDevice@Net@2@@std@@@std@@$0A@@std@@@2@PAU342@@Z 00435b00 f i libohNetCore:DviDevice.obj
 0001:00034b40       ?_Min@?$_Tree_val@V?$_Tmap_traits@VBrn@OpenHome@@PAVDviDevice@Net@2@VBufferCmp@2@V?$allocator@U?$pair@$$CBVBrn@OpenHome@@PAVDviDevice@Net@2@@std@@@std@@$0A@@std@@@std@@SGPAU_Node@?$_Tree_nod@V?$_Tmap_traits@VBrn@OpenHome@@PAVDviDevice@Net@2@VBufferCmp@2@V?$allocator@U?$pair@$$CBVBrn@OpenHome@@PAVDviDevice@Net@2@@std@@@std@@$0A@@std@@@2@PAU342@@Z 00435b40 f i libohNetCore:DviDevice.obj
 0001:00034b80       ??0?$allocator@U?$pair@$$CBVBrn@OpenHome@@PAVDviDevice@Net@2@@std@@@std@@QAE@XZ 00435b80 f i libohNetCore:DviDevice.obj
 0001:00034ba0       ?deallocate@?$allocator@U_Node@?$_Tree_nod@V?$_Tmap_traits@VBrn@OpenHome@@PAVDviDevice@Net@2@VBufferCmp@2@V?$allocator@U?$pair@$$CBVBrn@OpenHome@@PAVDviDevice@Net@2@@std@@@std@@$0A@@std@@@std@@@std@@QAEXPAU_Node@?$_Tree_nod@V?$_Tmap_traits@VBrn@OpenHome@@PAVDviDevice@Net@2@VBufferCmp@2@V?$allocator@U?$pair@$$CBVBrn@OpenHome@@PAVDviDevice@Net@2@@std@@@std@@$0A@@std@@@2@I@Z 00435ba0 f i libohNetCore:DviDevice.obj
 0001:00034bd0       ??0?$_Tree_iterator@V?$_Tree_val@V?$_Tmap_traits@VBrn@OpenHome@@PAVAttribute@AttributeMap@Net@2@VBufferCmp@2@V?$allocator@U?$pair@$$CBVBrn@OpenHome@@PAVAttribute@AttributeMap@Net@2@@std@@@std@@$0A@@std@@@std@@@std@@QAE@PAU_Node@?$_Tree_nod@V?$_Tmap_traits@VBrn@OpenHome@@PAVAttribute@AttributeMap@Net@2@VBufferCmp@2@V?$allocator@U?$pair@$$CBVBrn@OpenHome@@PAVAttribute@AttributeMap@Net@2@@std@@@std@@$0A@@std@@@1@PBV?$_Tree_val@V?$_Tmap_traits@VBrn@OpenHome@@PAVAttribute@AttributeMap@Net@2@VBufferCmp@2@V?$allocator@U?$pair@$$CBVBrn@OpenHome@@PAVAttribute@AttributeMap@Net@2@@std@@@std@@$0A@@std@@@1@@Z 00435bd0 f i libohNetCore:DviDevice.obj
 0001:00034c10       ??D?$_Tree_iterator@V?$_Tree_val@V?$_Tmap_traits@VBrn@OpenHome@@PAVAttribute@AttributeMap@Net@2@VBufferCmp@2@V?$allocator@U?$pair@$$CBVBrn@OpenHome@@PAVAttribute@AttributeMap@Net@2@@std@@@std@@$0A@@std@@@std@@@std@@QBEAAU?$pair@$$CBVBrn@OpenHome@@PAVAttribute@AttributeMap@Net@2@@1@XZ 00435c10 f i libohNetCore:DviDevice.obj
 0001:00034c40       ??E?$_Tree_iterator@V?$_Tree_val@V?$_Tmap_traits@VBrn@OpenHome@@PAVAttribute@AttributeMap@Net@2@VBufferCmp@2@V?$allocator@U?$pair@$$CBVBrn@OpenHome@@PAVAttribute@AttributeMap@Net@2@@std@@@std@@$0A@@std@@@std@@@std@@QAEAAV01@XZ 00435c40 f i libohNetCore:DviDevice.obj
 0001:00034c70       ??0?$_Tree_const_iterator@V?$_Tree_val@V?$_Tmap_traits@VBrn@OpenHome@@PAVAttribute@AttributeMap@Net@2@VBufferCmp@2@V?$allocator@U?$pair@$$CBVBrn@OpenHome@@PAVAttribute@AttributeMap@Net@2@@std@@@std@@$0A@@std@@@std@@@std@@QAE@PAU_Node@?$_Tree_nod@V?$_Tmap_traits@VBrn@OpenHome@@PAVAttribute@AttributeMap@Net@2@VBufferCmp@2@V?$allocator@U?$pair@$$CBVBrn@OpenHome@@PAVAttribute@AttributeMap@Net@2@@std@@@std@@$0A@@std@@@1@PBV?$_Tree_val@V?$_Tmap_traits@VBrn@OpenHome@@PAVAttribute@AttributeMap@Net@2@VBufferCmp@2@V?$allocator@U?$pair@$$CBVBrn@OpenHome@@PAVAttribute@AttributeMap@Net@2@@std@@@std@@$0A@@std@@@1@@Z 00435c70 f i libohNetCore:DviDevice.obj
 0001:00034cb0       ??D?$_Tree_unchecked_const_iterator@V?$_Tree_val@V?$_Tmap_traits@VBrn@OpenHome@@PAVAttribute@AttributeMap@Net@2@VBufferCmp@2@V?$allocator@U?$pair@$$CBVBrn@OpenHome@@PAVAttribute@AttributeMap@Net@2@@std@@@std@@$0A@@std@@@std@@U_Iterator_base12@2@@std@@QBEABU?$pair@$$CBVBrn@OpenHome@@PAVAttribute@AttributeMap@Net@2@@1@XZ 00435cb0 f i libohNetCore:DviDevice.obj
 0001:00034ce0       ?_Mynode@?$_Tree_unchecked_const_iterator@V?$_Tree_val@V?$_Tmap_traits@VBrn@OpenHome@@PAVAttribute@AttributeMap@Net@2@VBufferCmp@2@V?$allocator@U?$pair@$$CBVBrn@OpenHome@@PAVAttribute@AttributeMap@Net@2@@std@@@std@@$0A@@std@@@std@@U_Iterator_base12@2@@std@@QBEPAU_Node@?$_Tree_nod@V?$_Tmap_traits@VBrn@OpenHome@@PAVAttribute@AttributeMap@Net@2@VBufferCmp@2@V?$allocator@U?$pair@$$CBVBrn@OpenHome@@PAVAttribute@AttributeMap@Net@2@@std@@@std@@$0A@@std@@@2@XZ 00435ce0 f i libohNetCore:DviDevice.obj
 0001:00034d00       ??0?$_Tree_iterator@V?$_Tree_val@V?$_Tmap_traits@VBrn@OpenHome@@PAVDviDevice@Net@2@VBufferCmp@2@V?$allocator@U?$pair@$$CBVBrn@OpenHome@@PAVDviDevice@Net@2@@std@@@std@@$0A@@std@@@std@@@std@@QAE@PAU_Node@?$_Tree_nod@V?$_Tmap_traits@VBrn@OpenHome@@PAVDviDevice@Net@2@VBufferCmp@2@V?$allocator@U?$pair@$$CBVBrn@OpenHome@@PAVDviDevice@Net@2@@std@@@std@@$0A@@std@@@1@PBV?$_Tree_val@V?$_Tmap_traits@VBrn@OpenHome@@PAVDviDevice@Net@2@VBufferCmp@2@V?$allocator@U?$pair@$$CBVBrn@OpenHome@@PAVDviDevice@Net@2@@std@@@std@@$0A@@std@@@1@@Z 00435d00 f i libohNetCore:DviDevice.obj
 0001:00034d40       ??D?$_Tree_iterator@V?$_Tree_val@V?$_Tmap_traits@VBrn@OpenHome@@PAVDviDevice@Net@2@VBufferCmp@2@V?$allocator@U?$pair@$$CBVBrn@OpenHome@@PAVDviDevice@Net@2@@std@@@std@@$0A@@std@@@std@@@std@@QBEAAU?$pair@$$CBVBrn@OpenHome@@PAVDviDevice@Net@2@@1@XZ 00435d40 f i libohNetCore:DviDevice.obj
 0001:00034d70       ??E?$_Tree_const_iterator@V?$_Tree_val@V?$_Tmap_traits@VBrn@OpenHome@@PAVDviDevice@Net@2@VBufferCmp@2@V?$allocator@U?$pair@$$CBVBrn@OpenHome@@PAVDviDevice@Net@2@@std@@@std@@$0A@@std@@@std@@@std@@QAEAAV01@XZ 00435d70 f i libohNetCore:DviDevice.obj
 0001:00034e30       ??8?$_Tree_const_iterator@V?$_Tree_val@V?$_Tmap_traits@VBrn@OpenHome@@PAVDviDevice@Net@2@VBufferCmp@2@V?$allocator@U?$pair@$$CBVBrn@OpenHome@@PAVDviDevice@Net@2@@std@@@std@@$0A@@std@@@std@@@std@@QBE_NABV01@@Z 00435e30 f i libohNetCore:DviDevice.obj
 0001:00034ef0       ?_Mynode@?$_Tree_unchecked_const_iterator@V?$_Tree_val@V?$_Tmap_traits@VBrn@OpenHome@@PAVDviDevice@Net@2@VBufferCmp@2@V?$allocator@U?$pair@$$CBVBrn@OpenHome@@PAVDviDevice@Net@2@@std@@@std@@$0A@@std@@@std@@U_Iterator_base12@2@@std@@QBEPAU_Node@?$_Tree_nod@V?$_Tmap_traits@VBrn@OpenHome@@PAVDviDevice@Net@2@VBufferCmp@2@V?$allocator@U?$pair@$$CBVBrn@OpenHome@@PAVDviDevice@Net@2@@std@@@std@@$0A@@std@@@2@XZ 00435ef0 f i libohNetCore:DviDevice.obj
 0001:00034f10       ??0?$_Vector_iterator@V?$_Vector_val@PAVDviDevice@Net@OpenHome@@V?$allocator@PAVDviDevice@Net@OpenHome@@@std@@@std@@@std@@QAE@ABV01@@Z 00435f10 f i libohNetCore:DviDevice.obj
 0001:00034f40       ?reserve@?$vector@PAVDviService@Net@OpenHome@@V?$allocator@PAVDviService@Net@OpenHome@@@std@@@std@@QAEXI@Z 00435f40 f i libohNetCore:DviDevice.obj
 0001:000350b0       ?capacity@?$vector@PAVDviService@Net@OpenHome@@V?$allocator@PAVDviService@Net@OpenHome@@@std@@@std@@QBEIXZ 004360b0 f i libohNetCore:DviDevice.obj
 0001:000350e0       ?max_size@?$vector@PAVDviService@Net@OpenHome@@V?$allocator@PAVDviService@Net@OpenHome@@@std@@@std@@QBEIXZ 004360e0 f i libohNetCore:DviDevice.obj
 0001:00035110       ?_Destroy@?$vector@PAVDviService@Net@OpenHome@@V?$allocator@PAVDviService@Net@OpenHome@@@std@@@std@@IAEXPAPAVDviService@Net@OpenHome@@0@Z 00436110 f i libohNetCore:DviDevice.obj
 0001:00035150       ?_Grow_to@?$vector@PAVDviService@Net@OpenHome@@V?$allocator@PAVDviService@Net@OpenHome@@@std@@@std@@IBEII@Z 00436150 f i libohNetCore:DviDevice.obj
 0001:000351d0       ?_Xlen@?$vector@PAVDviService@Net@OpenHome@@V?$allocator@PAVDviService@Net@OpenHome@@@std@@@std@@IBEXXZ 004361d0 f i libohNetCore:DviDevice.obj
 0001:00035200       ??0?$allocator@PAVDviService@Net@OpenHome@@@std@@QAE@ABV01@@Z 00436200 f i libohNetCore:DviDevice.obj
 0001:00035220       ?deallocate@?$allocator@PAVDviService@Net@OpenHome@@@std@@QAEXPAPAVDviService@Net@OpenHome@@I@Z 00436220 f i libohNetCore:DviDevice.obj
 0001:00035250       ?reserve@?$vector@PAVDviDevice@Net@OpenHome@@V?$allocator@PAVDviDevice@Net@OpenHome@@@std@@@std@@QAEXI@Z 00436250 f i libohNetCore:DviDevice.obj
 0001:000353c0       ?capacity@?$vector@PAVDviDevice@Net@OpenHome@@V?$allocator@PAVDviDevice@Net@OpenHome@@@std@@@std@@QBEIXZ 004363c0 f i libohNetCore:DviDevice.obj
 0001:000353f0       ?_Make_iter@?$vector@PAVDviDevice@Net@OpenHome@@V?$allocator@PAVDviDevice@Net@OpenHome@@@std@@@std@@QBE?AV?$_Vector_iterator@V?$_Vector_val@PAVDviDevice@Net@OpenHome@@V?$allocator@PAVDviDevice@Net@OpenHome@@@std@@@std@@@2@V?$_Vector_const_iterator@V?$_Vector_val@PAVDviDevice@Net@OpenHome@@V?$allocator@PAVDviDevice@Net@OpenHome@@@std@@@std@@@2@@Z 004363f0 f i libohNetCore:DviDevice.obj
 0001:00035480       ?max_size@?$vector@PAVDviDevice@Net@OpenHome@@V?$allocator@PAVDviDevice@Net@OpenHome@@@std@@@std@@QBEIXZ 00436480 f i libohNetCore:DviDevice.obj
 0001:000354b0       ?_Destroy@?$vector@PAVDviDevice@Net@OpenHome@@V?$allocator@PAVDviDevice@Net@OpenHome@@@std@@@std@@IAEXPAPAVDviDevice@Net@OpenHome@@0@Z 004364b0 f i libohNetCore:DviDevice.obj
 0001:000354f0       ?_Grow_to@?$vector@PAVDviDevice@Net@OpenHome@@V?$allocator@PAVDviDevice@Net@OpenHome@@@std@@@std@@IBEII@Z 004364f0 f i libohNetCore:DviDevice.obj
 0001:00035570       ?_Xlen@?$vector@PAVDviDevice@Net@OpenHome@@V?$allocator@PAVDviDevice@Net@OpenHome@@@std@@@std@@IBEXXZ 00436570 f i libohNetCore:DviDevice.obj
 0001:000355a0       ??0?$allocator@PAVDviDevice@Net@OpenHome@@@std@@QAE@ABV01@@Z 004365a0 f i libohNetCore:DviDevice.obj
 0001:000355c0       ?deallocate@?$allocator@PAVDviDevice@Net@OpenHome@@@std@@QAEXPAPAVDviDevice@Net@OpenHome@@I@Z 004365c0 f i libohNetCore:DviDevice.obj
 0001:000355f0       ?reserve@?$vector@PAVIDvProtocol@Net@OpenHome@@V?$allocator@PAVIDvProtocol@Net@OpenHome@@@std@@@std@@QAEXI@Z 004365f0 f i libohNetCore:DviDevice.obj
 0001:00035760       ?capacity@?$vector@PAVIDvProtocol@Net@OpenHome@@V?$allocator@PAVIDvProtocol@Net@OpenHome@@@std@@@std@@QBEIXZ 00436760 f i libohNetCore:DviDevice.obj
 0001:00035790       ?max_size@?$vector@PAVIDvProtocol@Net@OpenHome@@V?$allocator@PAVIDvProtocol@Net@OpenHome@@@std@@@std@@QBEIXZ 00436790 f i libohNetCore:DviDevice.obj
 0001:000357c0       ?_Destroy@?$vector@PAVIDvProtocol@Net@OpenHome@@V?$allocator@PAVIDvProtocol@Net@OpenHome@@@std@@@std@@IAEXPAPAVIDvProtocol@Net@OpenHome@@0@Z 004367c0 f i libohNetCore:DviDevice.obj
 0001:00035800       ?_Grow_to@?$vector@PAVIDvProtocol@Net@OpenHome@@V?$allocator@PAVIDvProtocol@Net@OpenHome@@@std@@@std@@IBEII@Z 00436800 f i libohNetCore:DviDevice.obj
 0001:00035880       ?_Xlen@?$vector@PAVIDvProtocol@Net@OpenHome@@V?$allocator@PAVIDvProtocol@Net@OpenHome@@@std@@@std@@IBEXXZ 00436880 f i libohNetCore:DviDevice.obj
 0001:000358b0       ??0?$allocator@PAVIDvProtocol@Net@OpenHome@@@std@@QAE@ABV01@@Z 004368b0 f i libohNetCore:DviDevice.obj
 0001:000358d0       ?deallocate@?$allocator@PAVIDvProtocol@Net@OpenHome@@@std@@QAEXPAPAVIDvProtocol@Net@OpenHome@@I@Z 004368d0 f i libohNetCore:DviDevice.obj
 0001:00035900       ?erase@?$_Tree@V?$_Tmap_traits@VBrn@OpenHome@@PAVAttribute@AttributeMap@Net@2@VBufferCmp@2@V?$allocator@U?$pair@$$CBVBrn@OpenHome@@PAVAttribute@AttributeMap@Net@2@@std@@@std@@$0A@@std@@@std@@QAE?AV?$_Tree_iterator@V?$_Tree_val@V?$_Tmap_traits@VBrn@OpenHome@@PAVAttribute@AttributeMap@Net@2@VBufferCmp@2@V?$allocator@U?$pair@$$CBVBrn@OpenHome@@PAVAttribute@AttributeMap@Net@2@@std@@@std@@$0A@@std@@@std@@@2@V?$_Tree_const_iterator@V?$_Tree_val@V?$_Tmap_traits@VBrn@OpenHome@@PAVAttribute@AttributeMap@Net@2@VBufferCmp@2@V?$allocator@U?$pair@$$CBVBrn@OpenHome@@PAVAttribute@AttributeMap@Net@2@@std@@@std@@$0A@@std@@@std@@@2@0@Z 00436900 f i libohNetCore:DviDevice.obj
 0001:00035b00       ?_Lbound@?$_Tree@V?$_Tmap_traits@VBrn@OpenHome@@PAVAttribute@AttributeMap@Net@2@VBufferCmp@2@V?$allocator@U?$pair@$$CBVBrn@OpenHome@@PAVAttribute@AttributeMap@Net@2@@std@@@std@@$0A@@std@@@std@@IBEPAU_Node@?$_Tree_nod@V?$_Tmap_traits@VBrn@OpenHome@@PAVAttribute@AttributeMap@Net@2@VBufferCmp@2@V?$allocator@U?$pair@$$CBVBrn@OpenHome@@PAVAttribute@AttributeMap@Net@2@@std@@@std@@$0A@@std@@@2@ABVBrn@OpenHome@@@Z 00436b00 f i libohNetCore:DviDevice.obj
 0001:00035bb0       ?_Lbound@?$_Tree@V?$_Tmap_traits@VBrn@OpenHome@@PAVAttribute@AttributeMap@Net@2@VBufferCmp@2@V?$allocator@U?$pair@$$CBVBrn@OpenHome@@PAVAttribute@AttributeMap@Net@2@@std@@@std@@$0A@@std@@@std@@IAEPAU_Node@?$_Tree_nod@V?$_Tmap_traits@VBrn@OpenHome@@PAVAttribute@AttributeMap@Net@2@VBufferCmp@2@V?$allocator@U?$pair@$$CBVBrn@OpenHome@@PAVAttribute@AttributeMap@Net@2@@std@@@std@@$0A@@std@@@2@ABVBrn@OpenHome@@@Z 00436bb0 f i libohNetCore:DviDevice.obj
 0001:00035c60       ??0?$_Tree_val@V?$_Tmap_traits@VBrn@OpenHome@@PAVAttribute@AttributeMap@Net@2@VBufferCmp@2@V?$allocator@U?$pair@$$CBVBrn@OpenHome@@PAVAttribute@AttributeMap@Net@2@@std@@@std@@$0A@@std@@@std@@QAE@ABVBufferCmp@OpenHome@@V?$allocator@U?$pair@$$CBVBrn@OpenHome@@PAVAttribute@AttributeMap@Net@2@@std@@@1@@Z 00436c60 f i libohNetCore:DviDevice.obj
 0001:00035d60       ?_Left@?$_Tree_val@V?$_Tmap_traits@VBrn@OpenHome@@PAVAttribute@AttributeMap@Net@2@VBufferCmp@2@V?$allocator@U?$pair@$$CBVBrn@OpenHome@@PAVAttribute@AttributeMap@Net@2@@std@@@std@@$0A@@std@@@std@@SGAAPAU_Node@?$_Tree_nod@V?$_Tmap_traits@VBrn@OpenHome@@PAVAttribute@AttributeMap@Net@2@VBufferCmp@2@V?$allocator@U?$pair@$$CBVBrn@OpenHome@@PAVAttribute@AttributeMap@Net@2@@std@@@std@@$0A@@std@@@2@PAU342@@Z 00436d60 f i libohNetCore:DviDevice.obj
 0001:00035d70       ?_Myval@?$_Tree_val@V?$_Tmap_traits@VBrn@OpenHome@@PAVAttribute@AttributeMap@Net@2@VBufferCmp@2@V?$allocator@U?$pair@$$CBVBrn@OpenHome@@PAVAttribute@AttributeMap@Net@2@@std@@@std@@$0A@@std@@@std@@SGAAU?$pair@$$CBVBrn@OpenHome@@PAVAttribute@AttributeMap@Net@2@@2@PAU_Node@?$_Tree_nod@V?$_Tmap_traits@VBrn@OpenHome@@PAVAttribute@AttributeMap@Net@2@VBufferCmp@2@V?$allocator@U?$pair@$$CBVBrn@OpenHome@@PAVAttribute@AttributeMap@Net@2@@std@@@std@@$0A@@std@@@2@@Z 00436d70 f i libohNetCore:DviDevice.obj
 0001:00035d80       ??1?$_Tree_nod@V?$_Tmap_traits@VBrn@OpenHome@@PAVAttribute@AttributeMap@Net@2@VBufferCmp@2@V?$allocator@U?$pair@$$CBVBrn@OpenHome@@PAVAttribute@AttributeMap@Net@2@@std@@@std@@$0A@@std@@@std@@QAE@XZ 00436d80 f i libohNetCore:DviDevice.obj
 0001:00035e60       ??0?$allocator@U?$pair@$$CBVBrn@OpenHome@@PAVAttribute@AttributeMap@Net@2@@std@@@std@@QAE@ABV01@@Z 00436e60 f i libohNetCore:DviDevice.obj
 0001:00035e80       ?deallocate@?$allocator@U_Node@?$_Tree_nod@V?$_Tmap_traits@VBrn@OpenHome@@PAVAttribute@AttributeMap@Net@2@VBufferCmp@2@V?$allocator@U?$pair@$$CBVBrn@OpenHome@@PAVAttribute@AttributeMap@Net@2@@std@@@std@@$0A@@std@@@std@@@std@@QAEXPAU_Node@?$_Tree_nod@V?$_Tmap_traits@VBrn@OpenHome@@PAVAttribute@AttributeMap@Net@2@VBufferCmp@2@V?$allocator@U?$pair@$$CBVBrn@OpenHome@@PAVAttribute@AttributeMap@Net@2@@std@@@std@@$0A@@std@@@2@I@Z 00436e80 f i libohNetCore:DviDevice.obj
 0001:00035eb0       ?begin@?$_Tree@V?$_Tmap_traits@VBrn@OpenHome@@PAVDviDevice@Net@2@VBufferCmp@2@V?$allocator@U?$pair@$$CBVBrn@OpenHome@@PAVDviDevice@Net@2@@std@@@std@@$0A@@std@@@std@@QAE?AV?$_Tree_iterator@V?$_Tree_val@V?$_Tmap_traits@VBrn@OpenHome@@PAVDviDevice@Net@2@VBufferCmp@2@V?$allocator@U?$pair@$$CBVBrn@OpenHome@@PAVDviDevice@Net@2@@std@@@std@@$0A@@std@@@std@@@2@XZ 00436eb0 f i libohNetCore:DviDevice.obj
 0001:00035f10       ?erase@?$_Tree@V?$_Tmap_traits@VBrn@OpenHome@@PAVDviDevice@Net@2@VBufferCmp@2@V?$allocator@U?$pair@$$CBVBrn@OpenHome@@PAVDviDevice@Net@2@@std@@@std@@$0A@@std@@@std@@QAE?AV?$_Tree_iterator@V?$_Tree_val@V?$_Tmap_traits@VBrn@OpenHome@@PAVDviDevice@Net@2@VBufferCmp@2@V?$allocator@U?$pair@$$CBVBrn@OpenHome@@PAVDviDevice@Net@2@@std@@@std@@$0A@@std@@@std@@@2@V?$_Tree_const_iterator@V?$_Tree_val@V?$_Tmap_traits@VBrn@OpenHome@@PAVDviDevice@Net@2@VBufferCmp@2@V?$allocator@U?$pair@$$CBVBrn@OpenHome@@PAVDviDevice@Net@2@@std@@@std@@$0A@@std@@@std@@@2@0@Z 00436f10 f i libohNetCore:DviDevice.obj
 0001:00036110       ?_Lbound@?$_Tree@V?$_Tmap_traits@VBrn@OpenHome@@PAVDviDevice@Net@2@VBufferCmp@2@V?$allocator@U?$pair@$$CBVBrn@OpenHome@@PAVDviDevice@Net@2@@std@@@std@@$0A@@std@@@std@@IAEPAU_Node@?$_Tree_nod@V?$_Tmap_traits@VBrn@OpenHome@@PAVDviDevice@Net@2@VBufferCmp@2@V?$allocator@U?$pair@$$CBVBrn@OpenHome@@PAVDviDevice@Net@2@@std@@@std@@$0A@@std@@@2@ABVBrn@OpenHome@@@Z 00437110 f i libohNetCore:DviDevice.obj
 0001:000361c0       ??0?$_Tree_val@V?$_Tmap_traits@VBrn@OpenHome@@PAVDviDevice@Net@2@VBufferCmp@2@V?$allocator@U?$pair@$$CBVBrn@OpenHome@@PAVDviDevice@Net@2@@std@@@std@@$0A@@std@@@std@@QAE@ABVBufferCmp@OpenHome@@V?$allocator@U?$pair@$$CBVBrn@OpenHome@@PAVDviDevice@Net@2@@std@@@1@@Z 004371c0 f i libohNetCore:DviDevice.obj
 0001:000362c0       ??1?$_Tree_nod@V?$_Tmap_traits@VBrn@OpenHome@@PAVDviDevice@Net@2@VBufferCmp@2@V?$allocator@U?$pair@$$CBVBrn@OpenHome@@PAVDviDevice@Net@2@@std@@@std@@$0A@@std@@@std@@QAE@XZ 004372c0 f i libohNetCore:DviDevice.obj
 0001:000363a0       ??0?$allocator@U?$pair@$$CBVBrn@OpenHome@@PAVDviDevice@Net@2@@std@@@std@@QAE@ABV01@@Z 004373a0 f i libohNetCore:DviDevice.obj
 0001:000363c0       ??D?$_Tree_const_iterator@V?$_Tree_val@V?$_Tmap_traits@VBrn@OpenHome@@PAVAttribute@AttributeMap@Net@2@VBufferCmp@2@V?$allocator@U?$pair@$$CBVBrn@OpenHome@@PAVAttribute@AttributeMap@Net@2@@std@@@std@@$0A@@std@@@std@@@std@@QBEABU?$pair@$$CBVBrn@OpenHome@@PAVAttribute@AttributeMap@Net@2@@1@XZ 004373c0 f i libohNetCore:DviDevice.obj
 0001:00036480       ??E?$_Tree_const_iterator@V?$_Tree_val@V?$_Tmap_traits@VBrn@OpenHome@@PAVAttribute@AttributeMap@Net@2@VBufferCmp@2@V?$allocator@U?$pair@$$CBVBrn@OpenHome@@PAVAttribute@AttributeMap@Net@2@@std@@@std@@$0A@@std@@@std@@@std@@QAEAAV01@XZ 00437480 f i libohNetCore:DviDevice.obj
 0001:00036540       ??0?$_Tree_unchecked_const_iterator@V?$_Tree_val@V?$_Tmap_traits@VBrn@OpenHome@@PAVAttribute@AttributeMap@Net@2@VBufferCmp@2@V?$allocator@U?$pair@$$CBVBrn@OpenHome@@PAVAttribute@AttributeMap@Net@2@@std@@@std@@$0A@@std@@@std@@U_Iterator_base12@2@@std@@QAE@PAU_Node@?$_Tree_nod@V?$_Tmap_traits@VBrn@OpenHome@@PAVAttribute@AttributeMap@Net@2@VBufferCmp@2@V?$allocator@U?$pair@$$CBVBrn@OpenHome@@PAVAttribute@AttributeMap@Net@2@@std@@@std@@$0A@@std@@@1@PBV?$_Tree_val@V?$_Tmap_traits@VBrn@OpenHome@@PAVAttribute@AttributeMap@Net@2@VBufferCmp@2@V?$allocator@U?$pair@$$CBVBrn@OpenHome@@PAVAttribute@AttributeMap@Net@2@@std@@@std@@$0A@@std@@@1@@Z 00437540 f i libohNetCore:DviDevice.obj
 0001:000365c0       ??0?$_Tree_const_iterator@V?$_Tree_val@V?$_Tmap_traits@VBrn@OpenHome@@PAVDviDevice@Net@2@VBufferCmp@2@V?$allocator@U?$pair@$$CBVBrn@OpenHome@@PAVDviDevice@Net@2@@std@@@std@@$0A@@std@@@std@@@std@@QAE@PAU_Node@?$_Tree_nod@V?$_Tmap_traits@VBrn@OpenHome@@PAVDviDevice@Net@2@VBufferCmp@2@V?$allocator@U?$pair@$$CBVBrn@OpenHome@@PAVDviDevice@Net@2@@std@@@std@@$0A@@std@@@1@PBV?$_Tree_val@V?$_Tmap_traits@VBrn@OpenHome@@PAVDviDevice@Net@2@VBufferCmp@2@V?$allocator@U?$pair@$$CBVBrn@OpenHome@@PAVDviDevice@Net@2@@std@@@std@@$0A@@std@@@1@@Z 004375c0 f i libohNetCore:DviDevice.obj
 0001:00036600       ??D?$_Tree_const_iterator@V?$_Tree_val@V?$_Tmap_traits@VBrn@OpenHome@@PAVDviDevice@Net@2@VBufferCmp@2@V?$allocator@U?$pair@$$CBVBrn@OpenHome@@PAVDviDevice@Net@2@@std@@@std@@$0A@@std@@@std@@@std@@QBEABU?$pair@$$CBVBrn@OpenHome@@PAVDviDevice@Net@2@@1@XZ 00437600 f i libohNetCore:DviDevice.obj
 0001:000366c0       ??E?$_Tree_unchecked_const_iterator@V?$_Tree_val@V?$_Tmap_traits@VBrn@OpenHome@@PAVDviDevice@Net@2@VBufferCmp@2@V?$allocator@U?$pair@$$CBVBrn@OpenHome@@PAVDviDevice@Net@2@@std@@@std@@$0A@@std@@@std@@U_Iterator_base12@2@@std@@QAEAAV01@XZ 004376c0 f i libohNetCore:DviDevice.obj
 0001:00036780       ??0?$_Vector_iterator@V?$_Vector_val@PAVDviDevice@Net@OpenHome@@V?$allocator@PAVDviDevice@Net@OpenHome@@@std@@@std@@@std@@QAE@PAPAVDviDevice@Net@OpenHome@@PBU_Container_base12@1@@Z 00437780 f i libohNetCore:DviDevice.obj
 0001:000367c0       ??9?$_Vector_const_iterator@V?$_Vector_val@PAVDviDevice@Net@OpenHome@@V?$allocator@PAVDviDevice@Net@OpenHome@@@std@@@std@@@std@@QBE_NABV01@@Z 004377c0 f i libohNetCore:DviDevice.obj
 0001:00036800       ??M?$_Vector_const_iterator@V?$_Vector_val@PAVDviDevice@Net@OpenHome@@V?$allocator@PAVDviDevice@Net@OpenHome@@@std@@@std@@@std@@QBE_NABV01@@Z 00437800 f i libohNetCore:DviDevice.obj
 0001:00036840       ??1?$_Tmap_traits@VBrn@OpenHome@@PAVAttribute@AttributeMap@Net@2@VBufferCmp@2@V?$allocator@U?$pair@$$CBVBrn@OpenHome@@PAVAttribute@AttributeMap@Net@2@@std@@@std@@$0A@@std@@QAE@XZ 00437840 f i libohNetCore:DviDevice.obj
 0001:00036870       ??1?$_Tmap_traits@VBrn@OpenHome@@PAVDviDevice@Net@2@VBufferCmp@2@V?$allocator@U?$pair@$$CBVBrn@OpenHome@@PAVDviDevice@Net@2@@std@@@std@@$0A@@std@@QAE@XZ 00437870 f i libohNetCore:DviDevice.obj
 0001:000368a0       ??0?$_Iterator012@Ubidirectional_iterator_tag@std@@U?$pair@$$CBVBrn@OpenHome@@PAVAttribute@AttributeMap@Net@2@@2@HPBU32@ABU32@U_Iterator_base12@2@@std@@QAE@XZ 004378a0 f i libohNetCore:DviDevice.obj
 0001:000368d0       ?allocate@?$allocator@PAVDviService@Net@OpenHome@@@std@@QAEPAPAVDviService@Net@OpenHome@@I@Z 004378d0 f i libohNetCore:DviDevice.obj
 0001:00036900       ?max_size@?$allocator@PAVDviService@Net@OpenHome@@@std@@QBEIXZ 00437900 f i libohNetCore:DviDevice.obj
 0001:00036950       ?allocate@?$allocator@PAVDviDevice@Net@OpenHome@@@std@@QAEPAPAVDviDevice@Net@OpenHome@@I@Z 00437950 f i libohNetCore:DviDevice.obj
 0001:00036980       ?max_size@?$allocator@PAVDviDevice@Net@OpenHome@@@std@@QBEIXZ 00437980 f i libohNetCore:DviDevice.obj
 0001:000369d0       ?allocate@?$allocator@PAVIDvProtocol@Net@OpenHome@@@std@@QAEPAPAVIDvProtocol@Net@OpenHome@@I@Z 004379d0 f i libohNetCore:DviDevice.obj
 0001:00036a00       ?max_size@?$allocator@PAVIDvProtocol@Net@OpenHome@@@std@@QBEIXZ 00437a00 f i libohNetCore:DviDevice.obj
 0001:00036a50       ?erase@?$_Tree@V?$_Tmap_traits@VBrn@OpenHome@@PAVAttribute@AttributeMap@Net@2@VBufferCmp@2@V?$allocator@U?$pair@$$CBVBrn@OpenHome@@PAVAttribute@AttributeMap@Net@2@@std@@@std@@$0A@@std@@@std@@QAE?AV?$_Tree_iterator@V?$_Tree_val@V?$_Tmap_traits@VBrn@OpenHome@@PAVAttribute@AttributeMap@Net@2@VBufferCmp@2@V?$allocator@U?$pair@$$CBVBrn@OpenHome@@PAVAttribute@AttributeMap@Net@2@@std@@@std@@$0A@@std@@@std@@@2@V?$_Tree_const_iterator@V?$_Tree_val@V?$_Tmap_traits@VBrn@OpenHome@@PAVAttribute@AttributeMap@Net@2@VBufferCmp@2@V?$allocator@U?$pair@$$CBVBrn@OpenHome@@PAVAttribute@AttributeMap@Net@2@@std@@@std@@$0A@@std@@@std@@@2@@Z 00437a50 f i libohNetCore:DviDevice.obj
 0001:00037160       ?clear@?$_Tree@V?$_Tmap_traits@VBrn@OpenHome@@PAVAttribute@AttributeMap@Net@2@VBufferCmp@2@V?$allocator@U?$pair@$$CBVBrn@OpenHome@@PAVAttribute@AttributeMap@Net@2@@std@@@std@@$0A@@std@@@std@@QAEXXZ 00438160 f i libohNetCore:DviDevice.obj
 0001:000371e0       ?_Root@?$_Tree@V?$_Tmap_traits@VBrn@OpenHome@@PAVAttribute@AttributeMap@Net@2@VBufferCmp@2@V?$allocator@U?$pair@$$CBVBrn@OpenHome@@PAVAttribute@AttributeMap@Net@2@@std@@@std@@$0A@@std@@@std@@IBEAAPAU_Node@?$_Tree_nod@V?$_Tmap_traits@VBrn@OpenHome@@PAVAttribute@AttributeMap@Net@2@VBufferCmp@2@V?$allocator@U?$pair@$$CBVBrn@OpenHome@@PAVAttribute@AttributeMap@Net@2@@std@@@std@@$0A@@std@@@2@XZ 004381e0 f i libohNetCore:DviDevice.obj
 0001:00037210       ?_Color@?$_Tree_val@V?$_Tmap_traits@VBrn@OpenHome@@PAVAttribute@AttributeMap@Net@2@VBufferCmp@2@V?$allocator@U?$pair@$$CBVBrn@OpenHome@@PAVAttribute@AttributeMap@Net@2@@std@@@std@@$0A@@std@@@std@@SGAADPAU_Node@?$_Tree_nod@V?$_Tmap_traits@VBrn@OpenHome@@PAVAttribute@AttributeMap@Net@2@VBufferCmp@2@V?$allocator@U?$pair@$$CBVBrn@OpenHome@@PAVAttribute@AttributeMap@Net@2@@std@@@std@@$0A@@std@@@2@@Z 00438210 f i libohNetCore:DviDevice.obj
 0001:00037220       ?_Isnil@?$_Tree_val@V?$_Tmap_traits@VBrn@OpenHome@@PAVAttribute@AttributeMap@Net@2@VBufferCmp@2@V?$allocator@U?$pair@$$CBVBrn@OpenHome@@PAVAttribute@AttributeMap@Net@2@@std@@@std@@$0A@@std@@@std@@SGAADPAU_Node@?$_Tree_nod@V?$_Tmap_traits@VBrn@OpenHome@@PAVAttribute@AttributeMap@Net@2@VBufferCmp@2@V?$allocator@U?$pair@$$CBVBrn@OpenHome@@PAVAttribute@AttributeMap@Net@2@@std@@@std@@$0A@@std@@@2@@Z 00438220 f i libohNetCore:DviDevice.obj
 0001:00037230       ?_Parent@?$_Tree_val@V?$_Tmap_traits@VBrn@OpenHome@@PAVAttribute@AttributeMap@Net@2@VBufferCmp@2@V?$allocator@U?$pair@$$CBVBrn@OpenHome@@PAVAttribute@AttributeMap@Net@2@@std@@@std@@$0A@@std@@@std@@SGAAPAU_Node@?$_Tree_nod@V?$_Tmap_traits@VBrn@OpenHome@@PAVAttribute@AttributeMap@Net@2@VBufferCmp@2@V?$allocator@U?$pair@$$CBVBrn@OpenHome@@PAVAttribute@AttributeMap@Net@2@@std@@@std@@$0A@@std@@@2@PAU342@@Z 00438230 f i libohNetCore:DviDevice.obj
 0001:00037240       ?_Right@?$_Tree_val@V?$_Tmap_traits@VBrn@OpenHome@@PAVAttribute@AttributeMap@Net@2@VBufferCmp@2@V?$allocator@U?$pair@$$CBVBrn@OpenHome@@PAVAttribute@AttributeMap@Net@2@@std@@@std@@$0A@@std@@@std@@SGAAPAU_Node@?$_Tree_nod@V?$_Tmap_traits@VBrn@OpenHome@@PAVAttribute@AttributeMap@Net@2@VBufferCmp@2@V?$allocator@U?$pair@$$CBVBrn@OpenHome@@PAVAttribute@AttributeMap@Net@2@@std@@@std@@$0A@@std@@@2@PAU342@@Z 00438240 f i libohNetCore:DviDevice.obj
 0001:00037250       ??0?$_Tree_nod@V?$_Tmap_traits@VBrn@OpenHome@@PAVAttribute@AttributeMap@Net@2@VBufferCmp@2@V?$allocator@U?$pair@$$CBVBrn@OpenHome@@PAVAttribute@AttributeMap@Net@2@@std@@@std@@$0A@@std@@@std@@QAE@ABVBufferCmp@OpenHome@@V?$allocator@U?$pair@$$CBVBrn@OpenHome@@PAVAttribute@AttributeMap@Net@2@@std@@@1@@Z 00438250 f i libohNetCore:DviDevice.obj
 0001:00037360       ?allocate@?$allocator@U_Node@?$_Tree_nod@V?$_Tmap_traits@VBrn@OpenHome@@PAVAttribute@AttributeMap@Net@2@VBufferCmp@2@V?$allocator@U?$pair@$$CBVBrn@OpenHome@@PAVAttribute@AttributeMap@Net@2@@std@@@std@@$0A@@std@@@std@@@std@@QAEPAU_Node@?$_Tree_nod@V?$_Tmap_traits@VBrn@OpenHome@@PAVAttribute@AttributeMap@Net@2@VBufferCmp@2@V?$allocator@U?$pair@$$CBVBrn@OpenHome@@PAVAttribute@AttributeMap@Net@2@@std@@@std@@$0A@@std@@@2@I@Z 00438360 f i libohNetCore:DviDevice.obj
 0001:00037390       ?clear@?$_Tree@V?$_Tmap_traits@VBrn@OpenHome@@PAVDviDevice@Net@2@VBufferCmp@2@V?$allocator@U?$pair@$$CBVBrn@OpenHome@@PAVDviDevice@Net@2@@std@@@std@@$0A@@std@@@std@@QAEXXZ 00438390 f i libohNetCore:DviDevice.obj
 0001:00037410       ??0?$_Tree_nod@V?$_Tmap_traits@VBrn@OpenHome@@PAVDviDevice@Net@2@VBufferCmp@2@V?$allocator@U?$pair@$$CBVBrn@OpenHome@@PAVDviDevice@Net@2@@std@@@std@@$0A@@std@@@std@@QAE@ABVBufferCmp@OpenHome@@V?$allocator@U?$pair@$$CBVBrn@OpenHome@@PAVDviDevice@Net@2@@std@@@1@@Z 00438410 f i libohNetCore:DviDevice.obj
 0001:00037520       ?allocate@?$allocator@U_Node@?$_Tree_nod@V?$_Tmap_traits@VBrn@OpenHome@@PAVDviDevice@Net@2@VBufferCmp@2@V?$allocator@U?$pair@$$CBVBrn@OpenHome@@PAVDviDevice@Net@2@@std@@@std@@$0A@@std@@@std@@@std@@QAEPAU_Node@?$_Tree_nod@V?$_Tmap_traits@VBrn@OpenHome@@PAVDviDevice@Net@2@VBufferCmp@2@V?$allocator@U?$pair@$$CBVBrn@OpenHome@@PAVDviDevice@Net@2@@std@@@std@@$0A@@std@@@2@I@Z 00438520 f i libohNetCore:DviDevice.obj
 0001:00037550       ??E?$_Tree_const_iterator@V?$_Tree_val@V?$_Tmap_traits@VBrn@OpenHome@@PAVAttribute@AttributeMap@Net@2@VBufferCmp@2@V?$allocator@U?$pair@$$CBVBrn@OpenHome@@PAVAttribute@AttributeMap@Net@2@@std@@@std@@$0A@@std@@@std@@@std@@QAE?AV01@H@Z 00438550 f i libohNetCore:DviDevice.obj
 0001:00037620       ??E?$_Tree_unchecked_const_iterator@V?$_Tree_val@V?$_Tmap_traits@VBrn@OpenHome@@PAVAttribute@AttributeMap@Net@2@VBufferCmp@2@V?$allocator@U?$pair@$$CBVBrn@OpenHome@@PAVAttribute@AttributeMap@Net@2@@std@@@std@@$0A@@std@@@std@@U_Iterator_base12@2@@std@@QAEAAV01@XZ 00438620 f i libohNetCore:DviDevice.obj
 0001:000376e0       ??E?$_Tree_const_iterator@V?$_Tree_val@V?$_Tmap_traits@VBrn@OpenHome@@PAVDviDevice@Net@2@VBufferCmp@2@V?$allocator@U?$pair@$$CBVBrn@OpenHome@@PAVDviDevice@Net@2@@std@@@std@@$0A@@std@@@std@@@std@@QAE?AV01@H@Z 004386e0 f i libohNetCore:DviDevice.obj
 0001:000377b0       ??0?$_Tree_unchecked_const_iterator@V?$_Tree_val@V?$_Tmap_traits@VBrn@OpenHome@@PAVDviDevice@Net@2@VBufferCmp@2@V?$allocator@U?$pair@$$CBVBrn@OpenHome@@PAVDviDevice@Net@2@@std@@@std@@$0A@@std@@@std@@U_Iterator_base12@2@@std@@QAE@PAU_Node@?$_Tree_nod@V?$_Tmap_traits@VBrn@OpenHome@@PAVDviDevice@Net@2@VBufferCmp@2@V?$allocator@U?$pair@$$CBVBrn@OpenHome@@PAVDviDevice@Net@2@@std@@@std@@$0A@@std@@@1@PBV?$_Tree_val@V?$_Tmap_traits@VBrn@OpenHome@@PAVDviDevice@Net@2@VBufferCmp@2@V?$allocator@U?$pair@$$CBVBrn@OpenHome@@PAVDviDevice@Net@2@@std@@@std@@$0A@@std@@@1@@Z 004387b0 f i libohNetCore:DviDevice.obj
 0001:00037830       ??0?$_Vector_const_iterator@V?$_Vector_val@PAVDviDevice@Net@OpenHome@@V?$allocator@PAVDviDevice@Net@OpenHome@@@std@@@std@@@std@@QAE@PAPAVDviDevice@Net@OpenHome@@PBU_Container_base12@1@@Z 00438830 f i libohNetCore:DviDevice.obj
 0001:000378b0       ??8?$_Vector_const_iterator@V?$_Vector_val@PAVDviDevice@Net@OpenHome@@V?$allocator@PAVDviDevice@Net@OpenHome@@@std@@@std@@@std@@QBE_NABV01@@Z 004388b0 f i libohNetCore:DviDevice.obj
 0001:000378f0       ?_Compat@?$_Vector_const_iterator@V?$_Vector_val@PAVDviDevice@Net@OpenHome@@V?$allocator@PAVDviDevice@Net@OpenHome@@@std@@@std@@@std@@QBEXABV12@@Z 004388f0 f i libohNetCore:DviDevice.obj
 0001:000379a0       ??0?$_Iterator012@Ubidirectional_iterator_tag@std@@U?$pair@$$CBVBrn@OpenHome@@PAVDviDevice@Net@2@@2@HPBU32@ABU32@U_Iterator_base12@2@@std@@QAE@XZ 004389a0 f i libohNetCore:DviDevice.obj
 0001:000379d0       ??0?$_Iterator012@Urandom_access_iterator_tag@std@@PAVDviDevice@Net@OpenHome@@HPBQAV345@ABQAV345@U_Iterator_base12@2@@std@@QAE@XZ 004389d0 f i libohNetCore:DviDevice.obj
 0001:00037a00       ?_Erase@?$_Tree@V?$_Tmap_traits@VBrn@OpenHome@@PAVAttribute@AttributeMap@Net@2@VBufferCmp@2@V?$allocator@U?$pair@$$CBVBrn@OpenHome@@PAVAttribute@AttributeMap@Net@2@@std@@@std@@$0A@@std@@@std@@IAEXPAU_Node@?$_Tree_nod@V?$_Tmap_traits@VBrn@OpenHome@@PAVAttribute@AttributeMap@Net@2@VBufferCmp@2@V?$allocator@U?$pair@$$CBVBrn@OpenHome@@PAVAttribute@AttributeMap@Net@2@@std@@@std@@$0A@@std@@@2@@Z 00438a00 f i libohNetCore:DviDevice.obj
 0001:00037aa0       ?_Lrotate@?$_Tree@V?$_Tmap_traits@VBrn@OpenHome@@PAVAttribute@AttributeMap@Net@2@VBufferCmp@2@V?$allocator@U?$pair@$$CBVBrn@OpenHome@@PAVAttribute@AttributeMap@Net@2@@std@@@std@@$0A@@std@@@std@@IAEXPAU_Node@?$_Tree_nod@V?$_Tmap_traits@VBrn@OpenHome@@PAVAttribute@AttributeMap@Net@2@VBufferCmp@2@V?$allocator@U?$pair@$$CBVBrn@OpenHome@@PAVAttribute@AttributeMap@Net@2@@std@@@std@@$0A@@std@@@2@@Z 00438aa0 f i libohNetCore:DviDevice.obj
 0001:00037bc0       ?_Rmost@?$_Tree@V?$_Tmap_traits@VBrn@OpenHome@@PAVAttribute@AttributeMap@Net@2@VBufferCmp@2@V?$allocator@U?$pair@$$CBVBrn@OpenHome@@PAVAttribute@AttributeMap@Net@2@@std@@@std@@$0A@@std@@@std@@IBEAAPAU_Node@?$_Tree_nod@V?$_Tmap_traits@VBrn@OpenHome@@PAVAttribute@AttributeMap@Net@2@VBufferCmp@2@V?$allocator@U?$pair@$$CBVBrn@OpenHome@@PAVAttribute@AttributeMap@Net@2@@std@@@std@@$0A@@std@@@2@XZ 00438bc0 f i libohNetCore:DviDevice.obj
 0001:00037bf0       ?_Rrotate@?$_Tree@V?$_Tmap_traits@VBrn@OpenHome@@PAVAttribute@AttributeMap@Net@2@VBufferCmp@2@V?$allocator@U?$pair@$$CBVBrn@OpenHome@@PAVAttribute@AttributeMap@Net@2@@std@@@std@@$0A@@std@@@std@@IAEXPAU_Node@?$_Tree_nod@V?$_Tmap_traits@VBrn@OpenHome@@PAVAttribute@AttributeMap@Net@2@VBufferCmp@2@V?$allocator@U?$pair@$$CBVBrn@OpenHome@@PAVAttribute@AttributeMap@Net@2@@std@@@std@@$0A@@std@@@2@@Z 00438bf0 f i libohNetCore:DviDevice.obj
 0001:00037d10       ?_Orphan_ptr@?$_Tree@V?$_Tmap_traits@VBrn@OpenHome@@PAVAttribute@AttributeMap@Net@2@VBufferCmp@2@V?$allocator@U?$pair@$$CBVBrn@OpenHome@@PAVAttribute@AttributeMap@Net@2@@std@@@std@@$0A@@std@@@std@@IBEXAAV12@PAU_Node@?$_Tree_nod@V?$_Tmap_traits@VBrn@OpenHome@@PAVAttribute@AttributeMap@Net@2@VBufferCmp@2@V?$allocator@U?$pair@$$CBVBrn@OpenHome@@PAVAttribute@AttributeMap@Net@2@@std@@@std@@$0A@@std@@@2@@Z 00438d10 f i libohNetCore:DviDevice.obj
 0001:00037e20       ?_Max@?$_Tree_val@V?$_Tmap_traits@VBrn@OpenHome@@PAVAttribute@AttributeMap@Net@2@VBufferCmp@2@V?$allocator@U?$pair@$$CBVBrn@OpenHome@@PAVAttribute@AttributeMap@Net@2@@std@@@std@@$0A@@std@@@std@@SGPAU_Node@?$_Tree_nod@V?$_Tmap_traits@VBrn@OpenHome@@PAVAttribute@AttributeMap@Net@2@VBufferCmp@2@V?$allocator@U?$pair@$$CBVBrn@OpenHome@@PAVAttribute@AttributeMap@Net@2@@std@@@std@@$0A@@std@@@2@PAU342@@Z 00438e20 f i libohNetCore:DviDevice.obj
 0001:00037e60       ?_Min@?$_Tree_val@V?$_Tmap_traits@VBrn@OpenHome@@PAVAttribute@AttributeMap@Net@2@VBufferCmp@2@V?$allocator@U?$pair@$$CBVBrn@OpenHome@@PAVAttribute@AttributeMap@Net@2@@std@@@std@@$0A@@std@@@std@@SGPAU_Node@?$_Tree_nod@V?$_Tmap_traits@VBrn@OpenHome@@PAVAttribute@AttributeMap@Net@2@VBufferCmp@2@V?$allocator@U?$pair@$$CBVBrn@OpenHome@@PAVAttribute@AttributeMap@Net@2@@std@@@std@@$0A@@std@@@2@PAU342@@Z 00438e60 f i libohNetCore:DviDevice.obj
 0001:00037ea0       ??0?$_Tmap_traits@VBrn@OpenHome@@PAVAttribute@AttributeMap@Net@2@VBufferCmp@2@V?$allocator@U?$pair@$$CBVBrn@OpenHome@@PAVAttribute@AttributeMap@Net@2@@std@@@std@@$0A@@std@@QAE@VBufferCmp@OpenHome@@@Z 00438ea0 f i libohNetCore:DviDevice.obj
 0001:00037ed0       ?_Erase@?$_Tree@V?$_Tmap_traits@VBrn@OpenHome@@PAVDviDevice@Net@2@VBufferCmp@2@V?$allocator@U?$pair@$$CBVBrn@OpenHome@@PAVDviDevice@Net@2@@std@@@std@@$0A@@std@@@std@@IAEXPAU_Node@?$_Tree_nod@V?$_Tmap_traits@VBrn@OpenHome@@PAVDviDevice@Net@2@VBufferCmp@2@V?$allocator@U?$pair@$$CBVBrn@OpenHome@@PAVDviDevice@Net@2@@std@@@std@@$0A@@std@@@2@@Z 00438ed0 f i libohNetCore:DviDevice.obj
 0001:00037f70       ??0?$_Tmap_traits@VBrn@OpenHome@@PAVDviDevice@Net@2@VBufferCmp@2@V?$allocator@U?$pair@$$CBVBrn@OpenHome@@PAVDviDevice@Net@2@@std@@@std@@$0A@@std@@QAE@VBufferCmp@OpenHome@@@Z 00438f70 f i libohNetCore:DviDevice.obj
 0001:00037fa0       ??0?$Bws@$0BG@@OpenHome@@QAE@XZ 00438fa0 f i libohNetCore:DviDevice.obj
 0001:00037fe0       ?Ptr@?$Bws@$0BG@@OpenHome@@UBEPBEXZ 00438fe0 f i libohNetCore:DviDevice.obj
 0001:00038000       ??$MakeFunctor@VDviDevice@Net@OpenHome@@XV123@@OpenHome@@YG?AV?$MemberTranslator@VDviDevice@Net@OpenHome@@P8123@AEXXZ@0@AAVDviDevice@Net@0@ABQ8230@AEXXZ@Z 00439000 f i libohNetCore:DviDevice.obj
 0001:00038030       ??$?0VBrn@OpenHome@@AAPAVAttribute@AttributeMap@Net@1@@?$pair@VBrn@OpenHome@@PAVAttribute@AttributeMap@Net@2@@std@@QAE@$$QAVBrn@OpenHome@@AAPAVAttribute@AttributeMap@Net@3@@Z 00439030 f i libohNetCore:DviDevice.obj
 0001:00038070       ??$insert@U?$pair@VBrn@OpenHome@@PAVAttribute@AttributeMap@Net@2@@std@@@?$_Tree@V?$_Tmap_traits@VBrn@OpenHome@@PAVAttribute@AttributeMap@Net@2@VBufferCmp@2@V?$allocator@U?$pair@$$CBVBrn@OpenHome@@PAVAttribute@AttributeMap@Net@2@@std@@@std@@$0A@@std@@@std@@QAE?AU?$pair@V?$_Tree_iterator@V?$_Tree_val@V?$_Tmap_traits@VBrn@OpenHome@@PAVAttribute@AttributeMap@Net@2@VBufferCmp@2@V?$allocator@U?$pair@$$CBVBrn@OpenHome@@PAVAttribute@AttributeMap@Net@2@@std@@@std@@$0A@@std@@@std@@@std@@_N@1@$$QAU?$pair@VBrn@OpenHome@@PAVAttribute@AttributeMap@Net@2@@1@@Z 00439070 f i libohNetCore:DviDevice.obj
 0001:000380d0       ??$?0AAVBrn@OpenHome@@PAVDviDevice@Net@1@@?$pair@VBrn@OpenHome@@PAVDviDevice@Net@2@@std@@QAE@AAVBrn@OpenHome@@$$QAPAVDviDevice@Net@3@@Z 004390d0 f i libohNetCore:DviDevice.obj
 0001:00038110       ??$insert@U?$pair@VBrn@OpenHome@@PAVDviDevice@Net@2@@std@@@?$_Tree@V?$_Tmap_traits@VBrn@OpenHome@@PAVDviDevice@Net@2@VBufferCmp@2@V?$allocator@U?$pair@$$CBVBrn@OpenHome@@PAVDviDevice@Net@2@@std@@@std@@$0A@@std@@@std@@QAE?AU?$pair@V?$_Tree_iterator@V?$_Tree_val@V?$_Tmap_traits@VBrn@OpenHome@@PAVDviDevice@Net@2@VBufferCmp@2@V?$allocator@U?$pair@$$CBVBrn@OpenHome@@PAVDviDevice@Net@2@@std@@@std@@$0A@@std@@@std@@@std@@_N@1@$$QAU?$pair@VBrn@OpenHome@@PAVDviDevice@Net@2@@1@@Z 00439110 f i libohNetCore:DviDevice.obj
 0001:00038170       ??$addressof@QAVDviService@Net@OpenHome@@@std@@YGPBQAVDviService@Net@OpenHome@@ABQAV123@@Z 00439170 f i libohNetCore:DviDevice.obj
 0001:00038180       ??$_Cons_val@V?$allocator@PAVDviService@Net@OpenHome@@@std@@PAVDviService@Net@OpenHome@@AAPAV345@@std@@YGXAAV?$allocator@PAVDviService@Net@OpenHome@@@0@PAPAVDviService@Net@OpenHome@@AAPAV234@@Z 00439180 f i libohNetCore:DviDevice.obj
 0001:000381b0       ??$_Cons_val@V?$allocator@PAVDviService@Net@OpenHome@@@std@@PAVDviService@Net@OpenHome@@ABQAV345@@std@@YGXAAV?$allocator@PAVDviService@Net@OpenHome@@@0@PAPAVDviService@Net@OpenHome@@ABQAV234@@Z 004391b0 f i libohNetCore:DviDevice.obj
 0001:000381e0       ??$addressof@QAVDviDevice@Net@OpenHome@@@std@@YGPBQAVDviDevice@Net@OpenHome@@ABQAV123@@Z 004391e0 f i libohNetCore:DviDevice.obj
 0001:000381f0       ??$_Cons_val@V?$allocator@PAVDviDevice@Net@OpenHome@@@std@@PAVDviDevice@Net@OpenHome@@AAPAV345@@std@@YGXAAV?$allocator@PAVDviDevice@Net@OpenHome@@@0@PAPAVDviDevice@Net@OpenHome@@AAPAV234@@Z 004391f0 f i libohNetCore:DviDevice.obj
 0001:00038220       ??$_Cons_val@V?$allocator@PAVDviDevice@Net@OpenHome@@@std@@PAVDviDevice@Net@OpenHome@@ABQAV345@@std@@YGXAAV?$allocator@PAVDviDevice@Net@OpenHome@@@0@PAPAVDviDevice@Net@OpenHome@@ABQAV234@@Z 00439220 f i libohNetCore:DviDevice.obj
 0001:00038250       ??$addressof@QAVIDvProtocol@Net@OpenHome@@@std@@YGPBQAVIDvProtocol@Net@OpenHome@@ABQAV123@@Z 00439250 f i libohNetCore:DviDevice.obj
 0001:00038260       ??$_Cons_val@V?$allocator@PAVIDvProtocol@Net@OpenHome@@@std@@PAVIDvProtocol@Net@OpenHome@@AAPAV345@@std@@YGXAAV?$allocator@PAVIDvProtocol@Net@OpenHome@@@0@PAPAVIDvProtocol@Net@OpenHome@@AAPAV234@@Z 00439260 f i libohNetCore:DviDevice.obj
 0001:00038290       ??$_Cons_val@V?$allocator@PAVIDvProtocol@Net@OpenHome@@@std@@PAVIDvProtocol@Net@OpenHome@@ABQAV345@@std@@YGXAAV?$allocator@PAVIDvProtocol@Net@OpenHome@@@0@PAPAVIDvProtocol@Net@OpenHome@@ABQAV234@@Z 00439290 f i libohNetCore:DviDevice.obj
 0001:000382c0       ??$addressof@U?$pair@$$CBVBrn@OpenHome@@PAVDviDevice@Net@2@@std@@@std@@YGPAU?$pair@$$CBVBrn@OpenHome@@PAVDviDevice@Net@2@@0@AAU10@@Z 004392c0 f i libohNetCore:DviDevice.obj
 0001:000382d0       ??$_Dest_val@V?$allocator@U?$pair@$$CBVBrn@OpenHome@@PAVDviDevice@Net@2@@std@@@std@@U?$pair@$$CBVBrn@OpenHome@@PAVDviDevice@Net@2@@2@@std@@YGXAAV?$allocator@U?$pair@$$CBVBrn@OpenHome@@PAVDviDevice@Net@2@@std@@@0@PAU?$pair@$$CBVBrn@OpenHome@@PAVDviDevice@Net@2@@0@@Z 004392d0 f i libohNetCore:DviDevice.obj
 0001:000382f0       ??$?0PAVDviService@Net@OpenHome@@@?$allocator@U_Container_proxy@std@@@std@@QAE@ABV?$allocator@PAVDviService@Net@OpenHome@@@1@@Z 004392f0 f i libohNetCore:DviDevice.obj
 0001:00038310       ??$_Move@PAPAVDviDevice@Net@OpenHome@@PAPAV123@@std@@YGPAPAVDviDevice@Net@OpenHome@@PAPAV123@00@Z 00439310 f i libohNetCore:DviDevice.obj
 0001:00038360       ??$?0PAVDviDevice@Net@OpenHome@@@?$allocator@U_Container_proxy@std@@@std@@QAE@ABV?$allocator@PAVDviDevice@Net@OpenHome@@@1@@Z 00439360 f i libohNetCore:DviDevice.obj
 0001:00038380       ??$?0PAVIDvProtocol@Net@OpenHome@@@?$allocator@U_Container_proxy@std@@@std@@QAE@ABV?$allocator@PAVIDvProtocol@Net@OpenHome@@@1@@Z 00439380 f i libohNetCore:DviDevice.obj
 0001:000383a0       ??$_Kfn@$$CBVBrn@OpenHome@@PAVAttribute@AttributeMap@Net@2@@?$_Tmap_traits@VBrn@OpenHome@@PAVAttribute@AttributeMap@Net@2@VBufferCmp@2@V?$allocator@U?$pair@$$CBVBrn@OpenHome@@PAVAttribute@AttributeMap@Net@2@@std@@@std@@$0A@@std@@SGABVBrn@OpenHome@@ABU?$pair@$$CBVBrn@OpenHome@@PAVAttribute@AttributeMap@Net@2@@1@@Z 004393a0 f i libohNetCore:DviDevice.obj
 0001:000383b0       ??$_Kfn@$$CBVBrn@OpenHome@@PAVDviDevice@Net@2@@?$_Tmap_traits@VBrn@OpenHome@@PAVDviDevice@Net@2@VBufferCmp@2@V?$allocator@U?$pair@$$CBVBrn@OpenHome@@PAVDviDevice@Net@2@@std@@@std@@$0A@@std@@SGABVBrn@OpenHome@@ABU?$pair@$$CBVBrn@OpenHome@@PAVDviDevice@Net@2@@1@@Z 004393b0 f i libohNetCore:DviDevice.obj
 0001:000383c0       ??$_Umove@PAPAVDviService@Net@OpenHome@@@?$vector@PAVDviService@Net@OpenHome@@V?$allocator@PAVDviService@Net@OpenHome@@@std@@@std@@IAEPAPAVDviService@Net@OpenHome@@PAPAV234@00@Z 004393c0 f i libohNetCore:DviDevice.obj
 0001:00038400       ??$_Destroy_range@V?$allocator@PAVDviService@Net@OpenHome@@@std@@@std@@YGXPAPAVDviService@Net@OpenHome@@0AAV?$allocator@PAVDviService@Net@OpenHome@@@0@@Z 00439400 f i libohNetCore:DviDevice.obj
 0001:00038450       ??$_Umove@PAPAVDviDevice@Net@OpenHome@@@?$vector@PAVDviDevice@Net@OpenHome@@V?$allocator@PAVDviDevice@Net@OpenHome@@@std@@@std@@IAEPAPAVDviDevice@Net@OpenHome@@PAPAV234@00@Z 00439450 f i libohNetCore:DviDevice.obj
 0001:00038490       ??$_Destroy_range@V?$allocator@PAVDviDevice@Net@OpenHome@@@std@@@std@@YGXPAPAVDviDevice@Net@OpenHome@@0AAV?$allocator@PAVDviDevice@Net@OpenHome@@@0@@Z 00439490 f i libohNetCore:DviDevice.obj
 0001:000384e0       ??$_Umove@PAPAVIDvProtocol@Net@OpenHome@@@?$vector@PAVIDvProtocol@Net@OpenHome@@V?$allocator@PAVIDvProtocol@Net@OpenHome@@@std@@@std@@IAEPAPAVIDvProtocol@Net@OpenHome@@PAPAV234@00@Z 004394e0 f i libohNetCore:DviDevice.obj
 0001:00038520       ??$_Destroy_range@V?$allocator@PAVIDvProtocol@Net@OpenHome@@@std@@@std@@YGXPAPAVIDvProtocol@Net@OpenHome@@0AAV?$allocator@PAVIDvProtocol@Net@OpenHome@@@0@@Z 00439520 f i libohNetCore:DviDevice.obj
 0001:00038570       ??$?0U_Node@?$_Tree_nod@V?$_Tmap_traits@VBrn@OpenHome@@PAVAttribute@AttributeMap@Net@2@VBufferCmp@2@V?$allocator@U?$pair@$$CBVBrn@OpenHome@@PAVAttribute@AttributeMap@Net@2@@std@@@std@@$0A@@std@@@std@@@?$allocator@U_Container_proxy@std@@@std@@QAE@ABV?$allocator@U_Node@?$_Tree_nod@V?$_Tmap_traits@VBrn@OpenHome@@PAVAttribute@AttributeMap@Net@2@VBufferCmp@2@V?$allocator@U?$pair@$$CBVBrn@OpenHome@@PAVAttribute@AttributeMap@Net@2@@std@@@std@@$0A@@std@@@std@@@1@@Z 00439570 f i libohNetCore:DviDevice.obj
 0001:00038590       ??$?0U_Node@?$_Tree_nod@V?$_Tmap_traits@VBrn@OpenHome@@PAVDviDevice@Net@2@VBufferCmp@2@V?$allocator@U?$pair@$$CBVBrn@OpenHome@@PAVDviDevice@Net@2@@std@@@std@@$0A@@std@@@std@@@?$allocator@U_Container_proxy@std@@@std@@QAE@ABV?$allocator@U_Node@?$_Tree_nod@V?$_Tmap_traits@VBrn@OpenHome@@PAVDviDevice@Net@2@VBufferCmp@2@V?$allocator@U?$pair@$$CBVBrn@OpenHome@@PAVDviDevice@Net@2@@std@@@std@@$0A@@std@@@std@@@1@@Z 00439590 f i libohNetCore:DviDevice.obj
 0001:000385b0       ??$_Allocate@PAVDviService@Net@OpenHome@@@std@@YGPAPAVDviService@Net@OpenHome@@IPAPAV123@@Z 004395b0 f i libohNetCore:DviDevice.obj
 0001:00038630       ??$_Allocate@PAVDviDevice@Net@OpenHome@@@std@@YGPAPAVDviDevice@Net@OpenHome@@IPAPAV123@@Z 00439630 f i libohNetCore:DviDevice.obj
 0001:000386b0       ??$_Allocate@PAVIDvProtocol@Net@OpenHome@@@std@@YGPAPAVIDvProtocol@Net@OpenHome@@IPAPAV123@@Z 004396b0 f i libohNetCore:DviDevice.obj
 0001:00038730       ??$addressof@U?$pair@$$CBVBrn@OpenHome@@PAVAttribute@AttributeMap@Net@2@@std@@@std@@YGPAU?$pair@$$CBVBrn@OpenHome@@PAVAttribute@AttributeMap@Net@2@@0@AAU10@@Z 00439730 f i libohNetCore:DviDevice.obj
 0001:00038740       ??$_Dest_val@V?$allocator@U?$pair@$$CBVBrn@OpenHome@@PAVAttribute@AttributeMap@Net@2@@std@@@std@@U?$pair@$$CBVBrn@OpenHome@@PAVAttribute@AttributeMap@Net@2@@2@@std@@YGXAAV?$allocator@U?$pair@$$CBVBrn@OpenHome@@PAVAttribute@AttributeMap@Net@2@@std@@@0@PAU?$pair@$$CBVBrn@OpenHome@@PAVAttribute@AttributeMap@Net@2@@0@@Z 00439740 f i libohNetCore:DviDevice.obj
 0001:00038760       ??$?0U?$pair@$$CBVBrn@OpenHome@@PAVAttribute@AttributeMap@Net@2@@std@@@?$allocator@U_Node@?$_Tree_nod@V?$_Tmap_traits@VBrn@OpenHome@@PAVAttribute@AttributeMap@Net@2@VBufferCmp@2@V?$allocator@U?$pair@$$CBVBrn@OpenHome@@PAVAttribute@AttributeMap@Net@2@@std@@@std@@$0A@@std@@@std@@@std@@QAE@ABV?$allocator@U?$pair@$$CBVBrn@OpenHome@@PAVAttribute@AttributeMap@Net@2@@std@@@1@@Z 00439760 f i libohNetCore:DviDevice.obj
 0001:00038780       ??$_Allocate@U_Node@?$_Tree_nod@V?$_Tmap_traits@VBrn@OpenHome@@PAVAttribute@AttributeMap@Net@2@VBufferCmp@2@V?$allocator@U?$pair@$$CBVBrn@OpenHome@@PAVAttribute@AttributeMap@Net@2@@std@@@std@@$0A@@std@@@std@@@std@@YGPAU_Node@?$_Tree_nod@V?$_Tmap_traits@VBrn@OpenHome@@PAVAttribute@AttributeMap@Net@2@VBufferCmp@2@V?$allocator@U?$pair@$$CBVBrn@OpenHome@@PAVAttribute@AttributeMap@Net@2@@std@@@std@@$0A@@std@@@0@IPAU120@@Z 00439780 f i libohNetCore:DviDevice.obj
 0001:00038800       ??$?0U?$pair@$$CBVBrn@OpenHome@@PAVDviDevice@Net@2@@std@@@?$allocator@U_Node@?$_Tree_nod@V?$_Tmap_traits@VBrn@OpenHome@@PAVDviDevice@Net@2@VBufferCmp@2@V?$allocator@U?$pair@$$CBVBrn@OpenHome@@PAVDviDevice@Net@2@@std@@@std@@$0A@@std@@@std@@@std@@QAE@ABV?$allocator@U?$pair@$$CBVBrn@OpenHome@@PAVDviDevice@Net@2@@std@@@1@@Z 00439800 f i libohNetCore:DviDevice.obj
 0001:00038820       ??$_Allocate@U_Node@?$_Tree_nod@V?$_Tmap_traits@VBrn@OpenHome@@PAVDviDevice@Net@2@VBufferCmp@2@V?$allocator@U?$pair@$$CBVBrn@OpenHome@@PAVDviDevice@Net@2@@std@@@std@@$0A@@std@@@std@@@std@@YGPAU_Node@?$_Tree_nod@V?$_Tmap_traits@VBrn@OpenHome@@PAVDviDevice@Net@2@VBufferCmp@2@V?$allocator@U?$pair@$$CBVBrn@OpenHome@@PAVDviDevice@Net@2@@std@@@std@@$0A@@std@@@0@IPAU120@@Z 00439820 f i libohNetCore:DviDevice.obj
 0001:000388a0       ??_G?$Bws@$0BG@@OpenHome@@UAEPAXI@Z 004398a0 f i libohNetCore:DviDevice.obj
 0001:000388a0       ??_E?$Bws@$0BG@@OpenHome@@UAEPAXI@Z 004398a0 f i libohNetCore:DviDevice.obj
 0001:000388e0       ?construct@?$allocator@PAVDviService@Net@OpenHome@@@std@@QAEXPAPAVDviService@Net@OpenHome@@ABQAV345@@Z 004398e0 f i libohNetCore:DviDevice.obj
 0001:00038910       ?construct@?$allocator@PAVDviDevice@Net@OpenHome@@@std@@QAEXPAPAVDviDevice@Net@OpenHome@@ABQAV345@@Z 00439910 f i libohNetCore:DviDevice.obj
 0001:00038940       ?construct@?$allocator@PAVIDvProtocol@Net@OpenHome@@@std@@QAEXPAPAVIDvProtocol@Net@OpenHome@@ABQAV345@@Z 00439940 f i libohNetCore:DviDevice.obj
 0001:00038970       ?_Linsert@?$_Tree@V?$_Tmap_traits@VBrn@OpenHome@@PAVAttribute@AttributeMap@Net@2@VBufferCmp@2@V?$allocator@U?$pair@$$CBVBrn@OpenHome@@PAVAttribute@AttributeMap@Net@2@@std@@@std@@$0A@@std@@@std@@QAE?AU?$pair@V?$_Tree_iterator@V?$_Tree_val@V?$_Tmap_traits@VBrn@OpenHome@@PAVAttribute@AttributeMap@Net@2@VBufferCmp@2@V?$allocator@U?$pair@$$CBVBrn@OpenHome@@PAVAttribute@AttributeMap@Net@2@@std@@@std@@$0A@@std@@@std@@@std@@_N@2@PAU_Node@?$_Tree_nod@V?$_Tmap_traits@VBrn@OpenHome@@PAVAttribute@AttributeMap@Net@2@VBufferCmp@2@V?$allocator@U?$pair@$$CBVBrn@OpenHome@@PAVAttribute@AttributeMap@Net@2@@std@@@std@@$0A@@std@@@2@_N@Z 00439970 f i libohNetCore:DviDevice.obj
 0001:00038d50       ?destroy@?$allocator@U?$pair@$$CBVBrn@OpenHome@@PAVAttribute@AttributeMap@Net@2@@std@@@std@@QAEXPAU?$pair@$$CBVBrn@OpenHome@@PAVAttribute@AttributeMap@Net@2@@2@@Z 00439d50 f i libohNetCore:DviDevice.obj
 0001:00038d90       ?_Linsert@?$_Tree@V?$_Tmap_traits@VBrn@OpenHome@@PAVDviDevice@Net@2@VBufferCmp@2@V?$allocator@U?$pair@$$CBVBrn@OpenHome@@PAVDviDevice@Net@2@@std@@@std@@$0A@@std@@@std@@QAE?AU?$pair@V?$_Tree_iterator@V?$_Tree_val@V?$_Tmap_traits@VBrn@OpenHome@@PAVDviDevice@Net@2@VBufferCmp@2@V?$allocator@U?$pair@$$CBVBrn@OpenHome@@PAVDviDevice@Net@2@@std@@@std@@$0A@@std@@@std@@@std@@_N@2@PAU_Node@?$_Tree_nod@V?$_Tmap_traits@VBrn@OpenHome@@PAVDviDevice@Net@2@VBufferCmp@2@V?$allocator@U?$pair@$$CBVBrn@OpenHome@@PAVDviDevice@Net@2@@std@@@std@@$0A@@std@@@2@_N@Z 00439d90 f i libohNetCore:DviDevice.obj
 0001:00039170       ?destroy@?$allocator@U?$pair@$$CBVBrn@OpenHome@@PAVDviDevice@Net@2@@std@@@std@@QAEXPAU?$pair@$$CBVBrn@OpenHome@@PAVDviDevice@Net@2@@2@@Z 0043a170 f i libohNetCore:DviDevice.obj
 0001:000391a0       ??0?$MemberTranslator@VDviDevice@Net@OpenHome@@P8123@AEXXZ@OpenHome@@QAE@AAVDviDevice@Net@1@ABQ8231@AEXXZ@Z 0043a1a0 f i libohNetCore:DviDevice.obj
 0001:000391e0       ?_Insert@?$_Tree@V?$_Tmap_traits@VBrn@OpenHome@@PAVAttribute@AttributeMap@Net@2@VBufferCmp@2@V?$allocator@U?$pair@$$CBVBrn@OpenHome@@PAVAttribute@AttributeMap@Net@2@@std@@@std@@$0A@@std@@@std@@IAE?AV?$_Tree_iterator@V?$_Tree_val@V?$_Tmap_traits@VBrn@OpenHome@@PAVAttribute@AttributeMap@Net@2@VBufferCmp@2@V?$allocator@U?$pair@$$CBVBrn@OpenHome@@PAVAttribute@AttributeMap@Net@2@@std@@@std@@$0A@@std@@@std@@@2@_NPAU_Node@?$_Tree_nod@V?$_Tmap_traits@VBrn@OpenHome@@PAVAttribute@AttributeMap@Net@2@VBufferCmp@2@V?$allocator@U?$pair@$$CBVBrn@OpenHome@@PAVAttribute@AttributeMap@Net@2@@std@@@std@@$0A@@std@@@2@1@Z 0043a1e0 f i libohNetCore:DviDevice.obj
 0001:000395a0       ?_Insert@?$_Tree@V?$_Tmap_traits@VBrn@OpenHome@@PAVDviDevice@Net@2@VBufferCmp@2@V?$allocator@U?$pair@$$CBVBrn@OpenHome@@PAVDviDevice@Net@2@@std@@@std@@$0A@@std@@@std@@IAE?AV?$_Tree_iterator@V?$_Tree_val@V?$_Tmap_traits@VBrn@OpenHome@@PAVDviDevice@Net@2@VBufferCmp@2@V?$allocator@U?$pair@$$CBVBrn@OpenHome@@PAVDviDevice@Net@2@@std@@@std@@$0A@@std@@@std@@@2@_NPAU_Node@?$_Tree_nod@V?$_Tmap_traits@VBrn@OpenHome@@PAVDviDevice@Net@2@VBufferCmp@2@V?$allocator@U?$pair@$$CBVBrn@OpenHome@@PAVDviDevice@Net@2@@std@@@std@@$0A@@std@@@2@1@Z 0043a5a0 f i libohNetCore:DviDevice.obj
 0001:00039960       ?Thunk@?$MemberTranslator@VDviDevice@Net@OpenHome@@P8123@AEXXZ@OpenHome@@SGXABVFunctor@2@@Z 0043a960 f i libohNetCore:DviDevice.obj
 0001:000399b0       ??F?$_Tree_iterator@V?$_Tree_val@V?$_Tmap_traits@VBrn@OpenHome@@PAVAttribute@AttributeMap@Net@2@VBufferCmp@2@V?$allocator@U?$pair@$$CBVBrn@OpenHome@@PAVAttribute@AttributeMap@Net@2@@std@@@std@@$0A@@std@@@std@@@std@@QAEAAV01@XZ 0043a9b0 f i libohNetCore:DviDevice.obj
 0001:000399e0       ??0?$pair@V?$_Tree_iterator@V?$_Tree_val@V?$_Tmap_traits@VBrn@OpenHome@@PAVAttribute@AttributeMap@Net@2@VBufferCmp@2@V?$allocator@U?$pair@$$CBVBrn@OpenHome@@PAVAttribute@AttributeMap@Net@2@@std@@@std@@$0A@@std@@@std@@@std@@_N@std@@QAE@$$QAV?$_Tree_iterator@V?$_Tree_val@V?$_Tmap_traits@VBrn@OpenHome@@PAVAttribute@AttributeMap@Net@2@VBufferCmp@2@V?$allocator@U?$pair@$$CBVBrn@OpenHome@@PAVAttribute@AttributeMap@Net@2@@std@@@std@@$0A@@std@@@std@@@1@$$QA_N@Z 0043a9e0 f i libohNetCore:DviDevice.obj
 0001:00039a20       ??0?$pair@V?$_Tree_iterator@V?$_Tree_val@V?$_Tmap_traits@VBrn@OpenHome@@PAVDviDevice@Net@2@VBufferCmp@2@V?$allocator@U?$pair@$$CBVBrn@OpenHome@@PAVDviDevice@Net@2@@std@@@std@@$0A@@std@@@std@@@std@@_N@std@@QAE@$$QAV?$_Tree_iterator@V?$_Tree_val@V?$_Tmap_traits@VBrn@OpenHome@@PAVDviDevice@Net@2@VBufferCmp@2@V?$allocator@U?$pair@$$CBVBrn@OpenHome@@PAVDviDevice@Net@2@@std@@@std@@$0A@@std@@@std@@@1@$$QA_N@Z 0043aa20 f i libohNetCore:DviDevice.obj
 0001:00039a60       ??F?$_Tree_iterator@V?$_Tree_val@V?$_Tmap_traits@VBrn@OpenHome@@PAVDviDevice@Net@2@VBufferCmp@2@V?$allocator@U?$pair@$$CBVBrn@OpenHome@@PAVDviDevice@Net@2@@std@@@std@@$0A@@std@@@std@@@std@@QAEAAV01@XZ 0043aa60 f i libohNetCore:DviDevice.obj
 0001:00039a90       ?max_size@?$_Tree@V?$_Tmap_traits@VBrn@OpenHome@@PAVAttribute@AttributeMap@Net@2@VBufferCmp@2@V?$allocator@U?$pair@$$CBVBrn@OpenHome@@PAVAttribute@AttributeMap@Net@2@@std@@@std@@$0A@@std@@@std@@QBEIXZ 0043aa90 f i libohNetCore:DviDevice.obj
 0001:00039ac0       ?max_size@?$_Tree@V?$_Tmap_traits@VBrn@OpenHome@@PAVDviDevice@Net@2@VBufferCmp@2@V?$allocator@U?$pair@$$CBVBrn@OpenHome@@PAVDviDevice@Net@2@@std@@@std@@$0A@@std@@@std@@QBEIXZ 0043aac0 f i libohNetCore:DviDevice.obj
 0001:00039af0       ??F?$_Tree_const_iterator@V?$_Tree_val@V?$_Tmap_traits@VBrn@OpenHome@@PAVAttribute@AttributeMap@Net@2@VBufferCmp@2@V?$allocator@U?$pair@$$CBVBrn@OpenHome@@PAVAttribute@AttributeMap@Net@2@@std@@@std@@$0A@@std@@@std@@@std@@QAEAAV01@XZ 0043aaf0 f i libohNetCore:DviDevice.obj
 0001:00039c10       ??0?$_Pair_base@V?$_Tree_iterator@V?$_Tree_val@V?$_Tmap_traits@VBrn@OpenHome@@PAVAttribute@AttributeMap@Net@2@VBufferCmp@2@V?$allocator@U?$pair@$$CBVBrn@OpenHome@@PAVAttribute@AttributeMap@Net@2@@std@@@std@@$0A@@std@@@std@@@std@@_N@std@@QAE@$$QAV?$_Tree_iterator@V?$_Tree_val@V?$_Tmap_traits@VBrn@OpenHome@@PAVAttribute@AttributeMap@Net@2@VBufferCmp@2@V?$allocator@U?$pair@$$CBVBrn@OpenHome@@PAVAttribute@AttributeMap@Net@2@@std@@@std@@$0A@@std@@@std@@@1@$$QA_N@Z 0043ac10 f i libohNetCore:DviDevice.obj
 0001:00039c90       ??0?$_Pair_base@V?$_Tree_iterator@V?$_Tree_val@V?$_Tmap_traits@VBrn@OpenHome@@PAVDviDevice@Net@2@VBufferCmp@2@V?$allocator@U?$pair@$$CBVBrn@OpenHome@@PAVDviDevice@Net@2@@std@@@std@@$0A@@std@@@std@@@std@@_N@std@@QAE@$$QAV?$_Tree_iterator@V?$_Tree_val@V?$_Tmap_traits@VBrn@OpenHome@@PAVDviDevice@Net@2@VBufferCmp@2@V?$allocator@U?$pair@$$CBVBrn@OpenHome@@PAVDviDevice@Net@2@@std@@@std@@$0A@@std@@@std@@@1@$$QA_N@Z 0043ac90 f i libohNetCore:DviDevice.obj
 0001:00039d10       ??F?$_Tree_const_iterator@V?$_Tree_val@V?$_Tmap_traits@VBrn@OpenHome@@PAVDviDevice@Net@2@VBufferCmp@2@V?$allocator@U?$pair@$$CBVBrn@OpenHome@@PAVDviDevice@Net@2@@std@@@std@@$0A@@std@@@std@@@std@@QAEAAV01@XZ 0043ad10 f i libohNetCore:DviDevice.obj
 0001:00039e30       ?max_size@?$allocator@U?$pair@$$CBVBrn@OpenHome@@PAVAttribute@AttributeMap@Net@2@@std@@@std@@QBEIXZ 0043ae30 f i libohNetCore:DviDevice.obj
 0001:00039e80       ?max_size@?$allocator@U?$pair@$$CBVBrn@OpenHome@@PAVDviDevice@Net@2@@std@@@std@@QBEIXZ 0043ae80 f i libohNetCore:DviDevice.obj
 0001:00039ed0       ??F?$_Tree_unchecked_const_iterator@V?$_Tree_val@V?$_Tmap_traits@VBrn@OpenHome@@PAVAttribute@AttributeMap@Net@2@VBufferCmp@2@V?$allocator@U?$pair@$$CBVBrn@OpenHome@@PAVAttribute@AttributeMap@Net@2@@std@@@std@@$0A@@std@@@std@@U_Iterator_base12@2@@std@@QAEAAV01@XZ 0043aed0 f i libohNetCore:DviDevice.obj
 0001:00039fc0       ??F?$_Tree_unchecked_const_iterator@V?$_Tree_val@V?$_Tmap_traits@VBrn@OpenHome@@PAVDviDevice@Net@2@VBufferCmp@2@V?$allocator@U?$pair@$$CBVBrn@OpenHome@@PAVDviDevice@Net@2@@std@@@std@@$0A@@std@@@std@@U_Iterator_base12@2@@std@@QAEAAV01@XZ 0043afc0 f i libohNetCore:DviDevice.obj
 0001:0003a0b0       ??$forward@AAPAVAttribute@AttributeMap@Net@OpenHome@@@std@@YGAAPAVAttribute@AttributeMap@Net@OpenHome@@AAPAV1234@@Z 0043b0b0 f i libohNetCore:DviDevice.obj
 0001:0003a0c0       ??$?0VBrn@OpenHome@@AAPAVAttribute@AttributeMap@Net@1@@?$_Pair_base@VBrn@OpenHome@@PAVAttribute@AttributeMap@Net@2@@std@@QAE@$$QAVBrn@OpenHome@@AAPAVAttribute@AttributeMap@Net@3@@Z 0043b0c0 f i libohNetCore:DviDevice.obj
 0001:0003a140       ??$forward@U?$pair@VBrn@OpenHome@@PAVAttribute@AttributeMap@Net@2@@std@@@std@@YG$$QAU?$pair@VBrn@OpenHome@@PAVAttribute@AttributeMap@Net@2@@0@AAU10@@Z 0043b140 f i libohNetCore:DviDevice.obj
 0001:0003a150       ??$_Buynode@U?$pair@VBrn@OpenHome@@PAVAttribute@AttributeMap@Net@2@@std@@@?$_Tree_val@V?$_Tmap_traits@VBrn@OpenHome@@PAVAttribute@AttributeMap@Net@2@VBufferCmp@2@V?$allocator@U?$pair@$$CBVBrn@OpenHome@@PAVAttribute@AttributeMap@Net@2@@std@@@std@@$0A@@std@@@std@@QAEPAU_Node@?$_Tree_nod@V?$_Tmap_traits@VBrn@OpenHome@@PAVAttribute@AttributeMap@Net@2@VBufferCmp@2@V?$allocator@U?$pair@$$CBVBrn@OpenHome@@PAVAttribute@AttributeMap@Net@2@@std@@@std@@$0A@@std@@@1@$$QAU?$pair@VBrn@OpenHome@@PAVAttribute@AttributeMap@Net@2@@1@@Z 0043b150 f i libohNetCore:DviDevice.obj
 0001:0003a230       ??$forward@PAVDviDevice@Net@OpenHome@@@std@@YG$$QAPAVDviDevice@Net@OpenHome@@AAPAV123@@Z 0043b230 f i libohNetCore:DviDevice.obj
 0001:0003a240       ??$?0AAVBrn@OpenHome@@PAVDviDevice@Net@1@@?$_Pair_base@VBrn@OpenHome@@PAVDviDevice@Net@2@@std@@QAE@AAVBrn@OpenHome@@$$QAPAVDviDevice@Net@3@@Z 0043b240 f i libohNetCore:DviDevice.obj
 0001:0003a2c0       ??$forward@U?$pair@VBrn@OpenHome@@PAVDviDevice@Net@2@@std@@@std@@YG$$QAU?$pair@VBrn@OpenHome@@PAVDviDevice@Net@2@@0@AAU10@@Z 0043b2c0 f i libohNetCore:DviDevice.obj
 0001:0003a2d0       ??$_Buynode@U?$pair@VBrn@OpenHome@@PAVDviDevice@Net@2@@std@@@?$_Tree_val@V?$_Tmap_traits@VBrn@OpenHome@@PAVDviDevice@Net@2@VBufferCmp@2@V?$allocator@U?$pair@$$CBVBrn@OpenHome@@PAVDviDevice@Net@2@@std@@@std@@$0A@@std@@@std@@QAEPAU_Node@?$_Tree_nod@V?$_Tmap_traits@VBrn@OpenHome@@PAVDviDevice@Net@2@VBufferCmp@2@V?$allocator@U?$pair@$$CBVBrn@OpenHome@@PAVDviDevice@Net@2@@std@@@std@@$0A@@std@@@1@$$QAU?$pair@VBrn@OpenHome@@PAVDviDevice@Net@2@@1@@Z 0043b2d0 f i libohNetCore:DviDevice.obj
 0001:0003a3b0       ??$forward@AAPAVDviService@Net@OpenHome@@@std@@YGAAPAVDviService@Net@OpenHome@@AAPAV123@@Z 0043b3b0 f i libohNetCore:DviDevice.obj
 0001:0003a3c0       ??$construct@AAPAVDviService@Net@OpenHome@@@?$allocator@PAVDviService@Net@OpenHome@@@std@@QAEXPAPAVDviService@Net@OpenHome@@AAPAV234@@Z 0043b3c0 f i libohNetCore:DviDevice.obj
 0001:0003a460       ??$forward@ABQAVDviService@Net@OpenHome@@@std@@YGABQAVDviService@Net@OpenHome@@ABQAV123@@Z 0043b460 f i libohNetCore:DviDevice.obj
 0001:0003a470       ??$forward@AAPAVDviDevice@Net@OpenHome@@@std@@YGAAPAVDviDevice@Net@OpenHome@@AAPAV123@@Z 0043b470 f i libohNetCore:DviDevice.obj
 0001:0003a480       ??$construct@AAPAVDviDevice@Net@OpenHome@@@?$allocator@PAVDviDevice@Net@OpenHome@@@std@@QAEXPAPAVDviDevice@Net@OpenHome@@AAPAV234@@Z 0043b480 f i libohNetCore:DviDevice.obj
 0001:0003a520       ??$forward@ABQAVDviDevice@Net@OpenHome@@@std@@YGABQAVDviDevice@Net@OpenHome@@ABQAV123@@Z 0043b520 f i libohNetCore:DviDevice.obj
 0001:0003a530       ??$forward@AAPAVIDvProtocol@Net@OpenHome@@@std@@YGAAPAVIDvProtocol@Net@OpenHome@@AAPAV123@@Z 0043b530 f i libohNetCore:DviDevice.obj
 0001:0003a540       ??$construct@AAPAVIDvProtocol@Net@OpenHome@@@?$allocator@PAVIDvProtocol@Net@OpenHome@@@std@@QAEXPAPAVIDvProtocol@Net@OpenHome@@AAPAV234@@Z 0043b540 f i libohNetCore:DviDevice.obj
 0001:0003a5e0       ??$forward@ABQAVIDvProtocol@Net@OpenHome@@@std@@YGABQAVIDvProtocol@Net@OpenHome@@ABQAV123@@Z 0043b5e0 f i libohNetCore:DviDevice.obj
 0001:0003a5f0       ??$_Ptr_cat@PAVDviDevice@Net@OpenHome@@PAV123@@std@@YG?AU_Scalar_ptr_iterator_tag@0@PAPAVDviDevice@Net@OpenHome@@0@Z 0043b5f0 f i libohNetCore:DviDevice.obj
 0001:0003a650       ??$_Move@PAPAVDviDevice@Net@OpenHome@@PAPAV123@@std@@YGPAPAVDviDevice@Net@OpenHome@@PAPAV123@00U_Scalar_ptr_iterator_tag@0@@Z 0043b650 f i libohNetCore:DviDevice.obj
 0001:0003a6a0       ??$_Uninitialized_move@PAPAVDviService@Net@OpenHome@@PAPAV123@V?$allocator@PAVDviService@Net@OpenHome@@@std@@@std@@YGPAPAVDviService@Net@OpenHome@@PAPAV123@00AAV?$allocator@PAVDviService@Net@OpenHome@@@0@@Z 0043b6a0 f i libohNetCore:DviDevice.obj
 0001:0003a6f0       ??$_Ptr_cat@PAVDviService@Net@OpenHome@@PAV123@@std@@YG?AU_Scalar_ptr_iterator_tag@0@PAPAVDviService@Net@OpenHome@@0@Z 0043b6f0 f i libohNetCore:DviDevice.obj
 0001:0003a750       ??$_Destroy_range@V?$allocator@PAVDviService@Net@OpenHome@@@std@@@std@@YGXPAPAVDviService@Net@OpenHome@@0AAV?$allocator@PAVDviService@Net@OpenHome@@@0@U_Scalar_ptr_iterator_tag@0@@Z 0043b750 f i libohNetCore:DviDevice.obj
 0001:0003a760       ??$_Uninitialized_move@PAPAVDviDevice@Net@OpenHome@@PAPAV123@V?$allocator@PAVDviDevice@Net@OpenHome@@@std@@@std@@YGPAPAVDviDevice@Net@OpenHome@@PAPAV123@00AAV?$allocator@PAVDviDevice@Net@OpenHome@@@0@@Z 0043b760 f i libohNetCore:DviDevice.obj
 0001:0003a7b0       ??$_Destroy_range@V?$allocator@PAVDviDevice@Net@OpenHome@@@std@@@std@@YGXPAPAVDviDevice@Net@OpenHome@@0AAV?$allocator@PAVDviDevice@Net@OpenHome@@@0@U_Scalar_ptr_iterator_tag@0@@Z 0043b7b0 f i libohNetCore:DviDevice.obj
 0001:0003a7c0       ??$_Uninitialized_move@PAPAVIDvProtocol@Net@OpenHome@@PAPAV123@V?$allocator@PAVIDvProtocol@Net@OpenHome@@@std@@@std@@YGPAPAVIDvProtocol@Net@OpenHome@@PAPAV123@00AAV?$allocator@PAVIDvProtocol@Net@OpenHome@@@0@@Z 0043b7c0 f i libohNetCore:DviDevice.obj
 0001:0003a810       ??$_Ptr_cat@PAVIDvProtocol@Net@OpenHome@@PAV123@@std@@YG?AU_Scalar_ptr_iterator_tag@0@PAPAVIDvProtocol@Net@OpenHome@@0@Z 0043b810 f i libohNetCore:DviDevice.obj
 0001:0003a870       ??$_Destroy_range@V?$allocator@PAVIDvProtocol@Net@OpenHome@@@std@@@std@@YGXPAPAVIDvProtocol@Net@OpenHome@@0AAV?$allocator@PAVIDvProtocol@Net@OpenHome@@@0@U_Scalar_ptr_iterator_tag@0@@Z 0043b870 f i libohNetCore:DviDevice.obj
 0001:0003a880       ??$_Construct@PAVDviService@Net@OpenHome@@ABQAV123@@std@@YGXPAPAVDviService@Net@OpenHome@@ABQAV123@@Z 0043b880 f i libohNetCore:DviDevice.obj
 0001:0003a930       ??$_Construct@PAVDviDevice@Net@OpenHome@@ABQAV123@@std@@YGXPAPAVDviDevice@Net@OpenHome@@ABQAV123@@Z 0043b930 f i libohNetCore:DviDevice.obj
 0001:0003a9e0       ??$_Construct@PAVIDvProtocol@Net@OpenHome@@ABQAV123@@std@@YGXPAPAVIDvProtocol@Net@OpenHome@@ABQAV123@@Z 0043b9e0 f i libohNetCore:DviDevice.obj
 0001:0003aa90       ??$?0AAV?$_Tree_iterator@V?$_Tree_val@V?$_Tmap_traits@VBrn@OpenHome@@PAVAttribute@AttributeMap@Net@2@VBufferCmp@2@V?$allocator@U?$pair@$$CBVBrn@OpenHome@@PAVAttribute@AttributeMap@Net@2@@std@@@std@@$0A@@std@@@std@@@std@@_N@?$pair@V?$_Tree_iterator@V?$_Tree_val@V?$_Tmap_traits@VBrn@OpenHome@@PAVAttribute@AttributeMap@Net@2@VBufferCmp@2@V?$allocator@U?$pair@$$CBVBrn@OpenHome@@PAVAttribute@AttributeMap@Net@2@@std@@@std@@$0A@@std@@@std@@@std@@_N@std@@QAE@AAV?$_Tree_iterator@V?$_Tree_val@V?$_Tmap_traits@VBrn@OpenHome@@PAVAttribute@AttributeMap@Net@2@VBufferCmp@2@V?$allocator@U?$pair@$$CBVBrn@OpenHome@@PAVAttribute@AttributeMap@Net@2@@std@@@std@@$0A@@std@@@std@@@1@$$QA_N@Z 0043ba90 f i libohNetCore:DviDevice.obj
 0001:0003aad0       ??$_Destroy@U?$pair@$$CBVBrn@OpenHome@@PAVAttribute@AttributeMap@Net@2@@std@@@std@@YGXPAU?$pair@$$CBVBrn@OpenHome@@PAVAttribute@AttributeMap@Net@2@@0@@Z 0043bad0 f i libohNetCore:DviDevice.obj
 0001:0003aaf0       ??$?0AAV?$_Tree_iterator@V?$_Tree_val@V?$_Tmap_traits@VBrn@OpenHome@@PAVDviDevice@Net@2@VBufferCmp@2@V?$allocator@U?$pair@$$CBVBrn@OpenHome@@PAVDviDevice@Net@2@@std@@@std@@$0A@@std@@@std@@@std@@_N@?$pair@V?$_Tree_iterator@V?$_Tree_val@V?$_Tmap_traits@VBrn@OpenHome@@PAVDviDevice@Net@2@VBufferCmp@2@V?$allocator@U?$pair@$$CBVBrn@OpenHome@@PAVDviDevice@Net@2@@std@@@std@@$0A@@std@@@std@@@std@@_N@std@@QAE@AAV?$_Tree_iterator@V?$_Tree_val@V?$_Tmap_traits@VBrn@OpenHome@@PAVDviDevice@Net@2@VBufferCmp@2@V?$allocator@U?$pair@$$CBVBrn@OpenHome@@PAVDviDevice@Net@2@@std@@@std@@$0A@@std@@@std@@@1@$$QA_N@Z 0043baf0 f i libohNetCore:DviDevice.obj
 0001:0003ab30       ??$_Destroy@U?$pair@$$CBVBrn@OpenHome@@PAVDviDevice@Net@2@@std@@@std@@YGXPAU?$pair@$$CBVBrn@OpenHome@@PAVDviDevice@Net@2@@0@@Z 0043bb30 f i libohNetCore:DviDevice.obj
 0001:0003ab50       ??$move@AAV?$_Tree_iterator@V?$_Tree_val@V?$_Tmap_traits@VBrn@OpenHome@@PAVAttribute@AttributeMap@Net@2@VBufferCmp@2@V?$allocator@U?$pair@$$CBVBrn@OpenHome@@PAVAttribute@AttributeMap@Net@2@@std@@@std@@$0A@@std@@@std@@@std@@@std@@YG$$QAV?$_Tree_iterator@V?$_Tree_val@V?$_Tmap_traits@VBrn@OpenHome@@PAVAttribute@AttributeMap@Net@2@VBufferCmp@2@V?$allocator@U?$pair@$$CBVBrn@OpenHome@@PAVAttribute@AttributeMap@Net@2@@std@@@std@@$0A@@std@@@std@@@0@AAV10@@Z 0043bb50 f i libohNetCore:DviDevice.obj
 0001:0003ab60       ??$move@AAV?$_Tree_iterator@V?$_Tree_val@V?$_Tmap_traits@VBrn@OpenHome@@PAVDviDevice@Net@2@VBufferCmp@2@V?$allocator@U?$pair@$$CBVBrn@OpenHome@@PAVDviDevice@Net@2@@std@@@std@@$0A@@std@@@std@@@std@@@std@@YG$$QAV?$_Tree_iterator@V?$_Tree_val@V?$_Tmap_traits@VBrn@OpenHome@@PAVDviDevice@Net@2@VBufferCmp@2@V?$allocator@U?$pair@$$CBVBrn@OpenHome@@PAVDviDevice@Net@2@@std@@@std@@$0A@@std@@@std@@@0@AAV10@@Z 0043bb60 f i libohNetCore:DviDevice.obj
 0001:0003ab70       ??_G?$pair@$$CBVBrn@OpenHome@@PAVAttribute@AttributeMap@Net@2@@std@@QAEPAXI@Z 0043bb70 f i libohNetCore:DviDevice.obj
 0001:0003abb0       ??_G?$pair@$$CBVBrn@OpenHome@@PAVDviDevice@Net@2@@std@@QAEPAXI@Z 0043bbb0 f i libohNetCore:DviDevice.obj
 0001:0003abf0       ??1?$pair@$$CBVBrn@OpenHome@@PAVAttribute@AttributeMap@Net@2@@std@@QAE@XZ 0043bbf0 f i libohNetCore:DviDevice.obj
 0001:0003ac20       ??1?$pair@$$CBVBrn@OpenHome@@PAVDviDevice@Net@2@@std@@QAE@XZ 0043bc20 f i libohNetCore:DviDevice.obj
 0001:0003ac50       ??1?$_Pair_base@$$CBVBrn@OpenHome@@PAVAttribute@AttributeMap@Net@2@@std@@QAE@XZ 0043bc50 f i libohNetCore:DviDevice.obj
 0001:0003ac80       ??1?$_Pair_base@$$CBVBrn@OpenHome@@PAVDviDevice@Net@2@@std@@QAE@XZ 0043bc80 f i libohNetCore:DviDevice.obj
 0001:0003acb0       ?_Buynode@?$_Tree_val@V?$_Tmap_traits@VBrn@OpenHome@@PAVAttribute@AttributeMap@Net@2@VBufferCmp@2@V?$allocator@U?$pair@$$CBVBrn@OpenHome@@PAVAttribute@AttributeMap@Net@2@@std@@@std@@$0A@@std@@@std@@QAEPAU_Node@?$_Tree_nod@V?$_Tmap_traits@VBrn@OpenHome@@PAVAttribute@AttributeMap@Net@2@VBufferCmp@2@V?$allocator@U?$pair@$$CBVBrn@OpenHome@@PAVAttribute@AttributeMap@Net@2@@std@@@std@@$0A@@std@@@2@XZ 0043bcb0 f i libohNetCore:DviDevice.obj
 0001:0003ad40       ?_Buynode@?$_Tree_val@V?$_Tmap_traits@VBrn@OpenHome@@PAVDviDevice@Net@2@VBufferCmp@2@V?$allocator@U?$pair@$$CBVBrn@OpenHome@@PAVDviDevice@Net@2@@std@@@std@@$0A@@std@@@std@@QAEPAU_Node@?$_Tree_nod@V?$_Tmap_traits@VBrn@OpenHome@@PAVDviDevice@Net@2@VBufferCmp@2@V?$allocator@U?$pair@$$CBVBrn@OpenHome@@PAVDviDevice@Net@2@@std@@@std@@$0A@@std@@@2@XZ 0043bd40 f i libohNetCore:DviDevice.obj
 0001:0003add0       ??$_Cons_val@V?$allocator@U?$pair@$$CBVBrn@OpenHome@@PAVAttribute@AttributeMap@Net@2@@std@@@std@@U?$pair@$$CBVBrn@OpenHome@@PAVAttribute@AttributeMap@Net@2@@2@U?$pair@VBrn@OpenHome@@PAVAttribute@AttributeMap@Net@2@@2@@std@@YGXAAV?$allocator@U?$pair@$$CBVBrn@OpenHome@@PAVAttribute@AttributeMap@Net@2@@std@@@0@PAU?$pair@$$CBVBrn@OpenHome@@PAVAttribute@AttributeMap@Net@2@@0@$$QAU?$pair@VBrn@OpenHome@@PAVAttribute@AttributeMap@Net@2@@0@@Z 0043bdd0 f i libohNetCore:DviDevice.obj
 0001:0003ae00       ??$_Cons_val@V?$allocator@U?$pair@$$CBVBrn@OpenHome@@PAVDviDevice@Net@2@@std@@@std@@U?$pair@$$CBVBrn@OpenHome@@PAVDviDevice@Net@2@@2@U?$pair@VBrn@OpenHome@@PAVDviDevice@Net@2@@2@@std@@YGXAAV?$allocator@U?$pair@$$CBVBrn@OpenHome@@PAVDviDevice@Net@2@@std@@@0@PAU?$pair@$$CBVBrn@OpenHome@@PAVDviDevice@Net@2@@0@$$QAU?$pair@VBrn@OpenHome@@PAVDviDevice@Net@2@@0@@Z 0043be00 f i libohNetCore:DviDevice.obj
 0001:0003ae30       ??$_Val_type@PAPAVDviService@Net@OpenHome@@@std@@YGPAPAVDviService@Net@OpenHome@@PAPAV123@@Z 0043be30 f i libohNetCore:DviDevice.obj
 0001:0003ae40       ??$_Uninit_move@PAVDviService@Net@OpenHome@@PAV123@PAV123@@std@@YGPAPAVDviService@Net@OpenHome@@PAPAV123@00AAV?$allocator@PAVDviService@Net@OpenHome@@@0@0U_Scalar_ptr_iterator_tag@0@@Z 0043be40 f i libohNetCore:DviDevice.obj
 0001:0003aeb0       ??$_Val_type@PAPAVDviDevice@Net@OpenHome@@@std@@YGPAPAVDviDevice@Net@OpenHome@@PAPAV123@@Z 0043beb0 f i libohNetCore:DviDevice.obj
 0001:0003aec0       ??$_Uninit_move@PAVDviDevice@Net@OpenHome@@PAV123@PAV123@@std@@YGPAPAVDviDevice@Net@OpenHome@@PAPAV123@00AAV?$allocator@PAVDviDevice@Net@OpenHome@@@0@0U_Scalar_ptr_iterator_tag@0@@Z 0043bec0 f i libohNetCore:DviDevice.obj
 0001:0003af30       ??$_Val_type@PAPAVIDvProtocol@Net@OpenHome@@@std@@YGPAPAVIDvProtocol@Net@OpenHome@@PAPAV123@@Z 0043bf30 f i libohNetCore:DviDevice.obj
 0001:0003af40       ??$_Uninit_move@PAVIDvProtocol@Net@OpenHome@@PAV123@PAV123@@std@@YGPAPAVIDvProtocol@Net@OpenHome@@PAPAV123@00AAV?$allocator@PAVIDvProtocol@Net@OpenHome@@@0@0U_Scalar_ptr_iterator_tag@0@@Z 0043bf40 f i libohNetCore:DviDevice.obj
 0001:0003afb0       ??$forward@AAV?$_Tree_iterator@V?$_Tree_val@V?$_Tmap_traits@VBrn@OpenHome@@PAVAttribute@AttributeMap@Net@2@VBufferCmp@2@V?$allocator@U?$pair@$$CBVBrn@OpenHome@@PAVAttribute@AttributeMap@Net@2@@std@@@std@@$0A@@std@@@std@@@std@@@std@@YGAAV?$_Tree_iterator@V?$_Tree_val@V?$_Tmap_traits@VBrn@OpenHome@@PAVAttribute@AttributeMap@Net@2@VBufferCmp@2@V?$allocator@U?$pair@$$CBVBrn@OpenHome@@PAVAttribute@AttributeMap@Net@2@@std@@@std@@$0A@@std@@@std@@@0@AAV10@@Z 0043bfb0 f i libohNetCore:DviDevice.obj
 0001:0003afc0       ??$?0AAV?$_Tree_iterator@V?$_Tree_val@V?$_Tmap_traits@VBrn@OpenHome@@PAVAttribute@AttributeMap@Net@2@VBufferCmp@2@V?$allocator@U?$pair@$$CBVBrn@OpenHome@@PAVAttribute@AttributeMap@Net@2@@std@@@std@@$0A@@std@@@std@@@std@@_N@?$_Pair_base@V?$_Tree_iterator@V?$_Tree_val@V?$_Tmap_traits@VBrn@OpenHome@@PAVAttribute@AttributeMap@Net@2@VBufferCmp@2@V?$allocator@U?$pair@$$CBVBrn@OpenHome@@PAVAttribute@AttributeMap@Net@2@@std@@@std@@$0A@@std@@@std@@@std@@_N@std@@QAE@AAV?$_Tree_iterator@V?$_Tree_val@V?$_Tmap_traits@VBrn@OpenHome@@PAVAttribute@AttributeMap@Net@2@VBufferCmp@2@V?$allocator@U?$pair@$$CBVBrn@OpenHome@@PAVAttribute@AttributeMap@Net@2@@std@@@std@@$0A@@std@@@std@@@1@$$QA_N@Z 0043bfc0 f i libohNetCore:DviDevice.obj
 0001:0003b040       ??$forward@AAV?$_Tree_iterator@V?$_Tree_val@V?$_Tmap_traits@VBrn@OpenHome@@PAVDviDevice@Net@2@VBufferCmp@2@V?$allocator@U?$pair@$$CBVBrn@OpenHome@@PAVDviDevice@Net@2@@std@@@std@@$0A@@std@@@std@@@std@@@std@@YGAAV?$_Tree_iterator@V?$_Tree_val@V?$_Tmap_traits@VBrn@OpenHome@@PAVDviDevice@Net@2@VBufferCmp@2@V?$allocator@U?$pair@$$CBVBrn@OpenHome@@PAVDviDevice@Net@2@@std@@@std@@$0A@@std@@@std@@@0@AAV10@@Z 0043c040 f i libohNetCore:DviDevice.obj
 0001:0003b050       ??$?0AAV?$_Tree_iterator@V?$_Tree_val@V?$_Tmap_traits@VBrn@OpenHome@@PAVDviDevice@Net@2@VBufferCmp@2@V?$allocator@U?$pair@$$CBVBrn@OpenHome@@PAVDviDevice@Net@2@@std@@@std@@$0A@@std@@@std@@@std@@_N@?$_Pair_base@V?$_Tree_iterator@V?$_Tree_val@V?$_Tmap_traits@VBrn@OpenHome@@PAVDviDevice@Net@2@VBufferCmp@2@V?$allocator@U?$pair@$$CBVBrn@OpenHome@@PAVDviDevice@Net@2@@std@@@std@@$0A@@std@@@std@@@std@@_N@std@@QAE@AAV?$_Tree_iterator@V?$_Tree_val@V?$_Tmap_traits@VBrn@OpenHome@@PAVDviDevice@Net@2@VBufferCmp@2@V?$allocator@U?$pair@$$CBVBrn@OpenHome@@PAVDviDevice@Net@2@@std@@@std@@$0A@@std@@@std@@@1@$$QA_N@Z 0043c050 f i libohNetCore:DviDevice.obj
 0001:0003b0d0       ??$construct@U?$pair@VBrn@OpenHome@@PAVAttribute@AttributeMap@Net@2@@std@@@?$allocator@U?$pair@$$CBVBrn@OpenHome@@PAVAttribute@AttributeMap@Net@2@@std@@@std@@QAEXPAU?$pair@$$CBVBrn@OpenHome@@PAVAttribute@AttributeMap@Net@2@@1@$$QAU?$pair@VBrn@OpenHome@@PAVAttribute@AttributeMap@Net@2@@1@@Z 0043c0d0 f i libohNetCore:DviDevice.obj
 0001:0003b170       ??$construct@U?$pair@VBrn@OpenHome@@PAVDviDevice@Net@2@@std@@@?$allocator@U?$pair@$$CBVBrn@OpenHome@@PAVDviDevice@Net@2@@std@@@std@@QAEXPAU?$pair@$$CBVBrn@OpenHome@@PAVDviDevice@Net@2@@1@$$QAU?$pair@VBrn@OpenHome@@PAVDviDevice@Net@2@@1@@Z 0043c170 f i libohNetCore:DviDevice.obj
 0001:0003b210       ??$_Debug_range@PAPAVDviService@Net@OpenHome@@@std@@YGXPAPAVDviService@Net@OpenHome@@0PB_WI@Z 0043c210 f i libohNetCore:DviDevice.obj
 0001:0003b260       ??$_Debug_pointer@PAVDviService@Net@OpenHome@@@std@@YGXPAPAVDviService@Net@OpenHome@@PB_WI@Z 0043c260 f i libohNetCore:DviDevice.obj
 0001:0003b290       ??$_Debug_range@PAPAVDviDevice@Net@OpenHome@@@std@@YGXPAPAVDviDevice@Net@OpenHome@@0PB_WI@Z 0043c290 f i libohNetCore:DviDevice.obj
 0001:0003b2e0       ??$_Debug_pointer@PAVDviDevice@Net@OpenHome@@@std@@YGXPAPAVDviDevice@Net@OpenHome@@PB_WI@Z 0043c2e0 f i libohNetCore:DviDevice.obj
 0001:0003b310       ??$_Debug_range@PAPAVIDvProtocol@Net@OpenHome@@@std@@YGXPAPAVIDvProtocol@Net@OpenHome@@0PB_WI@Z 0043c310 f i libohNetCore:DviDevice.obj
 0001:0003b360       ??$_Debug_pointer@PAVIDvProtocol@Net@OpenHome@@@std@@YGXPAPAVIDvProtocol@Net@OpenHome@@PB_WI@Z 0043c360 f i libohNetCore:DviDevice.obj
 0001:0003b390       ??$?0VBrn@OpenHome@@PAVAttribute@AttributeMap@Net@1@@?$pair@$$CBVBrn@OpenHome@@PAVAttribute@AttributeMap@Net@2@@std@@QAE@$$QAU?$pair@VBrn@OpenHome@@PAVAttribute@AttributeMap@Net@2@@1@@Z 0043c390 f i libohNetCore:DviDevice.obj
 0001:0003b3d0       ??$?0VBrn@OpenHome@@PAVDviDevice@Net@1@@?$pair@$$CBVBrn@OpenHome@@PAVDviDevice@Net@2@@std@@QAE@$$QAU?$pair@VBrn@OpenHome@@PAVDviDevice@Net@2@@1@@Z 0043c3d0 f i libohNetCore:DviDevice.obj
 0001:0003b410       ??$_Iter_cat@PAPAVDviService@Net@OpenHome@@@std@@YG?AUrandom_access_iterator_tag@0@ABQAPAVDviService@Net@OpenHome@@@Z 0043c410 f i libohNetCore:DviDevice.obj
 0001:0003b470       ??$_Debug_range2@PAPAVDviService@Net@OpenHome@@@std@@YGXPAPAVDviService@Net@OpenHome@@0PB_WIUrandom_access_iterator_tag@0@@Z 0043c470 f i libohNetCore:DviDevice.obj
 0001:0003b4d0       ??$_Iter_cat@PAPAVDviDevice@Net@OpenHome@@@std@@YG?AUrandom_access_iterator_tag@0@ABQAPAVDviDevice@Net@OpenHome@@@Z 0043c4d0 f i libohNetCore:DviDevice.obj
 0001:0003b530       ??$_Debug_range2@PAPAVDviDevice@Net@OpenHome@@@std@@YGXPAPAVDviDevice@Net@OpenHome@@0PB_WIUrandom_access_iterator_tag@0@@Z 0043c530 f i libohNetCore:DviDevice.obj
 0001:0003b590       ??$_Iter_cat@PAPAVIDvProtocol@Net@OpenHome@@@std@@YG?AUrandom_access_iterator_tag@0@ABQAPAVIDvProtocol@Net@OpenHome@@@Z 0043c590 f i libohNetCore:DviDevice.obj
 0001:0003b5f0       ??$_Debug_range2@PAPAVIDvProtocol@Net@OpenHome@@@std@@YGXPAPAVIDvProtocol@Net@OpenHome@@0PB_WIUrandom_access_iterator_tag@0@@Z 0043c5f0 f i libohNetCore:DviDevice.obj
 0001:0003b650       ??$forward@PAVAttribute@AttributeMap@Net@OpenHome@@@std@@YG$$QAPAVAttribute@AttributeMap@Net@OpenHome@@AAPAV1234@@Z 0043c650 f i libohNetCore:DviDevice.obj
 0001:0003b660       ??$?0VBrn@OpenHome@@PAVAttribute@AttributeMap@Net@1@@?$_Pair_base@$$CBVBrn@OpenHome@@PAVAttribute@AttributeMap@Net@2@@std@@QAE@$$QAVBrn@OpenHome@@$$QAPAVAttribute@AttributeMap@Net@3@@Z 0043c660 f i libohNetCore:DviDevice.obj
 0001:0003b6e0       ??$?0VBrn@OpenHome@@PAVDviDevice@Net@1@@?$_Pair_base@$$CBVBrn@OpenHome@@PAVDviDevice@Net@2@@std@@QAE@$$QAVBrn@OpenHome@@$$QAPAVDviDevice@Net@3@@Z 0043c6e0 f i libohNetCore:DviDevice.obj
 0001:0003b760       ??0NetworkAdapterList@OpenHome@@QAE@I@Z 0043c760 f   libohNetCore:NetworkAdapterList.obj
 0001:0003b860       ??1NetworkAdapterList@OpenHome@@QAE@XZ 0043c860 f   libohNetCore:NetworkAdapterList.obj
 0001:0003b910       ?CurrentAdapter@NetworkAdapterList@OpenHome@@QBEPAVNetworkAdapter@2@XZ 0043c910 f   libohNetCore:NetworkAdapterList.obj
 0001:0003b9f0       ?List@NetworkAdapterList@OpenHome@@QBEABV?$vector@PAVNetworkAdapter@OpenHome@@V?$allocator@PAVNetworkAdapter@OpenHome@@@std@@@std@@XZ 0043c9f0 f   libohNetCore:NetworkAdapterList.obj
 0001:0003ba10       ?CreateSubnetList@NetworkAdapterList@OpenHome@@QBEPAV?$vector@PAVNetworkAdapter@OpenHome@@V?$allocator@PAVNetworkAdapter@OpenHome@@@std@@@std@@XZ 0043ca10 f   libohNetCore:NetworkAdapterList.obj
 0001:0003ba60       ?DestroySubnetList@NetworkAdapterList@OpenHome@@SGXPAV?$vector@PAVNetworkAdapter@OpenHome@@V?$allocator@PAVNetworkAdapter@OpenHome@@@std@@@std@@@Z 0043ca60 f   libohNetCore:NetworkAdapterList.obj
 0001:0003baf0       ?SetCurrentSubnet@NetworkAdapterList@OpenHome@@QAEXI@Z 0043caf0 f   libohNetCore:NetworkAdapterList.obj
 0001:0003bb80       ?AddCurrentChangeListener@NetworkAdapterList@OpenHome@@QAEIVFunctor@2@@Z 0043cb80 f   libohNetCore:NetworkAdapterList.obj
 0001:0003bbd0       ?RemoveCurrentChangeListener@NetworkAdapterList@OpenHome@@QAEXI@Z 0043cbd0 f   libohNetCore:NetworkAdapterList.obj
 0001:0003bc10       ?AddSubnetListChangeListener@NetworkAdapterList@OpenHome@@QAEIVFunctor@2@@Z 0043cc10 f   libohNetCore:NetworkAdapterList.obj
 0001:0003bc60       ?RemoveSubnetListChangeListener@NetworkAdapterList@OpenHome@@QAEXI@Z 0043cc60 f   libohNetCore:NetworkAdapterList.obj
 0001:0003bca0       ?CreateSubnetListLocked@NetworkAdapterList@OpenHome@@ABEPAV?$vector@PAVNetworkAdapter@OpenHome@@V?$allocator@PAVNetworkAdapter@OpenHome@@@std@@@std@@XZ 0043cca0 f   libohNetCore:NetworkAdapterList.obj
 0001:0003bdd0       ?AddListener@NetworkAdapterList@OpenHome@@AAEIVFunctor@2@AAV?$map@IVFunctor@OpenHome@@U?$less@I@std@@V?$allocator@U?$pair@$$CBIVFunctor@OpenHome@@@std@@@4@@std@@@Z 0043cdd0 f   libohNetCore:NetworkAdapterList.obj
 0001:0003be80       ?RemoveSubnetListChangeListener@NetworkAdapterList@OpenHome@@AAEXIAAV?$map@IVFunctor@OpenHome@@U?$less@I@std@@V?$allocator@U?$pair@$$CBIVFunctor@OpenHome@@@std@@@4@@std@@@Z 0043ce80 f   libohNetCore:NetworkAdapterList.obj
 0001:0003bfb0       ?InterfaceListChanged@NetworkAdapterList@OpenHome@@CGXPAX@Z 0043cfb0 f   libohNetCore:NetworkAdapterList.obj
 0001:0003bfd0       ?FindSubnet@NetworkAdapterList@OpenHome@@CGHIABV?$vector@PAVNetworkAdapter@OpenHome@@V?$allocator@PAVNetworkAdapter@OpenHome@@@std@@@std@@@Z 0043cfd0 f   libohNetCore:NetworkAdapterList.obj
 0001:0003c030       ?UpdateCurrentAdapter@NetworkAdapterList@OpenHome@@AAEXXZ 0043d030 f   libohNetCore:NetworkAdapterList.obj
 0001:0003c0e0       ?HandleInterfaceListChanged@NetworkAdapterList@OpenHome@@AAEXXZ 0043d0e0 f   libohNetCore:NetworkAdapterList.obj
 0001:0003c280       ?RunCallbacks@NetworkAdapterList@OpenHome@@AAEXAAV?$map@IVFunctor@OpenHome@@U?$less@I@std@@V?$allocator@U?$pair@$$CBIVFunctor@OpenHome@@@std@@@4@@std@@@Z 0043d280 f   libohNetCore:NetworkAdapterList.obj
 0001:0003c3a0       ?NetworkSetInterfaceChangedObserver@Os@OpenHome@@SGXP6GXPAX@Z0@Z 0043d3a0 f i libohNetCore:NetworkAdapterList.obj
 0001:0003c3c0       ??1?$map@IVFunctor@OpenHome@@U?$less@I@std@@V?$allocator@U?$pair@$$CBIVFunctor@OpenHome@@@std@@@4@@std@@QAE@XZ 0043d3c0 f i libohNetCore:NetworkAdapterList.obj
 0001:0003c3f0       ??1?$pair@V?$_Tree_iterator@V?$_Tree_val@V?$_Tmap_traits@IVFunctor@OpenHome@@U?$less@I@std@@V?$allocator@U?$pair@$$CBIVFunctor@OpenHome@@@std@@@4@$0A@@std@@@std@@@std@@_N@std@@QAE@XZ 0043d3f0 f i libohNetCore:NetworkAdapterList.obj
 0001:0003c420       ??1?$_Pair_base@V?$_Tree_iterator@V?$_Tree_val@V?$_Tmap_traits@IVFunctor@OpenHome@@U?$less@I@std@@V?$allocator@U?$pair@$$CBIVFunctor@OpenHome@@@std@@@4@$0A@@std@@@std@@@std@@_N@std@@QAE@XZ 0043d420 f i libohNetCore:NetworkAdapterList.obj
 0001:0003c450       ??1?$_Tree_iterator@V?$_Tree_val@V?$_Tmap_traits@IVFunctor@OpenHome@@U?$less@I@std@@V?$allocator@U?$pair@$$CBIVFunctor@OpenHome@@@std@@@4@$0A@@std@@@std@@@std@@QAE@XZ 0043d450 f i libohNetCore:NetworkAdapterList.obj
 0001:0003c480       ??1?$_Tree_const_iterator@V?$_Tree_val@V?$_Tmap_traits@IVFunctor@OpenHome@@U?$less@I@std@@V?$allocator@U?$pair@$$CBIVFunctor@OpenHome@@@std@@@4@$0A@@std@@@std@@@std@@QAE@XZ 0043d480 f i libohNetCore:NetworkAdapterList.obj
 0001:0003c4b0       ??1?$_Tree_unchecked_const_iterator@V?$_Tree_val@V?$_Tmap_traits@IVFunctor@OpenHome@@U?$less@I@std@@V?$allocator@U?$pair@$$CBIVFunctor@OpenHome@@@std@@@4@$0A@@std@@@std@@U_Iterator_base12@2@@std@@QAE@XZ 0043d4b0 f i libohNetCore:NetworkAdapterList.obj
 0001:0003c4e0       ??1?$_Iterator012@Ubidirectional_iterator_tag@std@@U?$pair@$$CBIVFunctor@OpenHome@@@2@HPBU32@ABU32@U_Iterator_base12@2@@std@@QAE@XZ 0043d4e0 f i libohNetCore:NetworkAdapterList.obj
 0001:0003c510       ??0?$_Tree_const_iterator@V?$_Tree_val@V?$_Tmap_traits@IVFunctor@OpenHome@@U?$less@I@std@@V?$allocator@U?$pair@$$CBIVFunctor@OpenHome@@@std@@@4@$0A@@std@@@std@@@std@@QAE@ABV01@@Z 0043d510 f i libohNetCore:NetworkAdapterList.obj
 0001:0003c540       ??0?$_Tree_unchecked_const_iterator@V?$_Tree_val@V?$_Tmap_traits@IVFunctor@OpenHome@@U?$less@I@std@@V?$allocator@U?$pair@$$CBIVFunctor@OpenHome@@@std@@@4@$0A@@std@@@std@@U_Iterator_base12@2@@std@@QAE@ABV01@@Z 0043d540 f i libohNetCore:NetworkAdapterList.obj
 0001:0003c580       ??0?$_Iterator012@Ubidirectional_iterator_tag@std@@U?$pair@$$CBIVFunctor@OpenHome@@@2@HPBU32@ABU32@U_Iterator_base12@2@@std@@QAE@ABU01@@Z 0043d580 f i libohNetCore:NetworkAdapterList.obj
 0001:0003c5b0       ??0?$map@IVFunctor@OpenHome@@U?$less@I@std@@V?$allocator@U?$pair@$$CBIVFunctor@OpenHome@@@std@@@4@@std@@QAE@XZ 0043d5b0 f i libohNetCore:NetworkAdapterList.obj
 0001:0003c5f0       ??1?$_Tree@V?$_Tmap_traits@IVFunctor@OpenHome@@U?$less@I@std@@V?$allocator@U?$pair@$$CBIVFunctor@OpenHome@@@std@@@4@$0A@@std@@@std@@QAE@XZ 0043d5f0 f i libohNetCore:NetworkAdapterList.obj
 0001:0003c660       ?begin@?$_Tree@V?$_Tmap_traits@IVFunctor@OpenHome@@U?$less@I@std@@V?$allocator@U?$pair@$$CBIVFunctor@OpenHome@@@std@@@4@$0A@@std@@@std@@QAE?AV?$_Tree_iterator@V?$_Tree_val@V?$_Tmap_traits@IVFunctor@OpenHome@@U?$less@I@std@@V?$allocator@U?$pair@$$CBIVFunctor@OpenHome@@@std@@@4@$0A@@std@@@std@@@2@XZ 0043d660 f i libohNetCore:NetworkAdapterList.obj
 0001:0003c6c0       ?end@?$_Tree@V?$_Tmap_traits@IVFunctor@OpenHome@@U?$less@I@std@@V?$allocator@U?$pair@$$CBIVFunctor@OpenHome@@@std@@@4@$0A@@std@@@std@@QAE?AV?$_Tree_iterator@V?$_Tree_val@V?$_Tmap_traits@IVFunctor@OpenHome@@U?$less@I@std@@V?$allocator@U?$pair@$$CBIVFunctor@OpenHome@@@std@@@4@$0A@@std@@@std@@@2@XZ 0043d6c0 f i libohNetCore:NetworkAdapterList.obj
 0001:0003c710       ?erase@?$_Tree@V?$_Tmap_traits@IVFunctor@OpenHome@@U?$less@I@std@@V?$allocator@U?$pair@$$CBIVFunctor@OpenHome@@@std@@@4@$0A@@std@@@std@@QAE?AV?$_Tree_iterator@V?$_Tree_val@V?$_Tmap_traits@IVFunctor@OpenHome@@U?$less@I@std@@V?$allocator@U?$pair@$$CBIVFunctor@OpenHome@@@std@@@4@$0A@@std@@@std@@@2@V?$_Tree_const_iterator@V?$_Tree_val@V?$_Tmap_traits@IVFunctor@OpenHome@@U?$less@I@std@@V?$allocator@U?$pair@$$CBIVFunctor@OpenHome@@@std@@@4@$0A@@std@@@std@@@2@@Z 0043d710 f i libohNetCore:NetworkAdapterList.obj
 0001:0003ce20       ?find@?$_Tree@V?$_Tmap_traits@IVFunctor@OpenHome@@U?$less@I@std@@V?$allocator@U?$pair@$$CBIVFunctor@OpenHome@@@std@@@4@$0A@@std@@@std@@QAE?AV?$_Tree_iterator@V?$_Tree_val@V?$_Tmap_traits@IVFunctor@OpenHome@@U?$less@I@std@@V?$allocator@U?$pair@$$CBIVFunctor@OpenHome@@@std@@@4@$0A@@std@@@std@@@2@ABI@Z 0043de20 f i libohNetCore:NetworkAdapterList.obj
 0001:0003d000       ??0?$vector@PAVNetworkAdapter@OpenHome@@V?$allocator@PAVNetworkAdapter@OpenHome@@@std@@@std@@QAE@XZ 0043e000 f i libohNetCore:NetworkAdapterList.obj
 0001:0003d040       ??A?$vector@PAVNetworkAdapter@OpenHome@@V?$allocator@PAVNetworkAdapter@OpenHome@@@std@@@std@@QBEABQAVNetworkAdapter@OpenHome@@I@Z 0043e040 f i libohNetCore:NetworkAdapterList.obj
 0001:0003d0e0       ?push_back@?$vector@PAVNetworkAdapter@OpenHome@@V?$allocator@PAVNetworkAdapter@OpenHome@@@std@@@std@@QAEXABQAVNetworkAdapter@OpenHome@@@Z 0043e0e0 f i libohNetCore:NetworkAdapterList.obj
 0001:0003d1f0       ??C?$_Tree_iterator@V?$_Tree_val@V?$_Tmap_traits@IVFunctor@OpenHome@@U?$less@I@std@@V?$allocator@U?$pair@$$CBIVFunctor@OpenHome@@@std@@@4@$0A@@std@@@std@@@std@@QBEPAU?$pair@$$CBIVFunctor@OpenHome@@@1@XZ 0043e1f0 f i libohNetCore:NetworkAdapterList.obj
 0001:0003d220       ??E?$_Tree_iterator@V?$_Tree_val@V?$_Tmap_traits@IVFunctor@OpenHome@@U?$less@I@std@@V?$allocator@U?$pair@$$CBIVFunctor@OpenHome@@@std@@@4@$0A@@std@@@std@@@std@@QAE?AV01@H@Z 0043e220 f i libohNetCore:NetworkAdapterList.obj
 0001:0003d2f0       ??9?$_Tree_const_iterator@V?$_Tree_val@V?$_Tmap_traits@IVFunctor@OpenHome@@U?$less@I@std@@V?$allocator@U?$pair@$$CBIVFunctor@OpenHome@@@std@@@4@$0A@@std@@@std@@@std@@QBE_NABV01@@Z 0043e2f0 f i libohNetCore:NetworkAdapterList.obj
 0001:0003d330       ??0?$_Tree_iterator@V?$_Tree_val@V?$_Tmap_traits@IVFunctor@OpenHome@@U?$less@I@std@@V?$allocator@U?$pair@$$CBIVFunctor@OpenHome@@@std@@@4@$0A@@std@@@std@@@std@@QAE@ABV01@@Z 0043e330 f i libohNetCore:NetworkAdapterList.obj
 0001:0003d360       ??0?$_Tree@V?$_Tmap_traits@IVFunctor@OpenHome@@U?$less@I@std@@V?$allocator@U?$pair@$$CBIVFunctor@OpenHome@@@std@@@4@$0A@@std@@@std@@QAE@ABU?$less@I@1@ABV?$allocator@U?$pair@$$CBIVFunctor@OpenHome@@@std@@@1@@Z 0043e360 f i libohNetCore:NetworkAdapterList.obj
 0001:0003d3b0       ?lower_bound@?$_Tree@V?$_Tmap_traits@IVFunctor@OpenHome@@U?$less@I@std@@V?$allocator@U?$pair@$$CBIVFunctor@OpenHome@@@std@@@4@$0A@@std@@@std@@QAE?AV?$_Tree_iterator@V?$_Tree_val@V?$_Tmap_traits@IVFunctor@OpenHome@@U?$less@I@std@@V?$allocator@U?$pair@$$CBIVFunctor@OpenHome@@@std@@@4@$0A@@std@@@std@@@2@ABI@Z 0043e3b0 f i libohNetCore:NetworkAdapterList.obj
 0001:0003d410       ?_Lmost@?$_Tree@V?$_Tmap_traits@IVFunctor@OpenHome@@U?$less@I@std@@V?$allocator@U?$pair@$$CBIVFunctor@OpenHome@@@std@@@4@$0A@@std@@@std@@IBEAAPAU_Node@?$_Tree_nod@V?$_Tmap_traits@IVFunctor@OpenHome@@U?$less@I@std@@V?$allocator@U?$pair@$$CBIVFunctor@OpenHome@@@std@@@4@$0A@@std@@@2@XZ 0043e410 f i libohNetCore:NetworkAdapterList.obj
 0001:0003d440       ?_Lrotate@?$_Tree@V?$_Tmap_traits@IVFunctor@OpenHome@@U?$less@I@std@@V?$allocator@U?$pair@$$CBIVFunctor@OpenHome@@@std@@@4@$0A@@std@@@std@@IAEXPAU_Node@?$_Tree_nod@V?$_Tmap_traits@IVFunctor@OpenHome@@U?$less@I@std@@V?$allocator@U?$pair@$$CBIVFunctor@OpenHome@@@std@@@4@$0A@@std@@@2@@Z 0043e440 f i libohNetCore:NetworkAdapterList.obj
 0001:0003d560       ?_Rmost@?$_Tree@V?$_Tmap_traits@IVFunctor@OpenHome@@U?$less@I@std@@V?$allocator@U?$pair@$$CBIVFunctor@OpenHome@@@std@@@4@$0A@@std@@@std@@IBEAAPAU_Node@?$_Tree_nod@V?$_Tmap_traits@IVFunctor@OpenHome@@U?$less@I@std@@V?$allocator@U?$pair@$$CBIVFunctor@OpenHome@@@std@@@4@$0A@@std@@@2@XZ 0043e560 f i libohNetCore:NetworkAdapterList.obj
 0001:0003d590       ?_Root@?$_Tree@V?$_Tmap_traits@IVFunctor@OpenHome@@U?$less@I@std@@V?$allocator@U?$pair@$$CBIVFunctor@OpenHome@@@std@@@4@$0A@@std@@@std@@IBEAAPAU_Node@?$_Tree_nod@V?$_Tmap_traits@IVFunctor@OpenHome@@U?$less@I@std@@V?$allocator@U?$pair@$$CBIVFunctor@OpenHome@@@std@@@4@$0A@@std@@@2@XZ 0043e590 f i libohNetCore:NetworkAdapterList.obj
 0001:0003d5c0       ?_Rrotate@?$_Tree@V?$_Tmap_traits@IVFunctor@OpenHome@@U?$less@I@std@@V?$allocator@U?$pair@$$CBIVFunctor@OpenHome@@@std@@@4@$0A@@std@@@std@@IAEXPAU_Node@?$_Tree_nod@V?$_Tmap_traits@IVFunctor@OpenHome@@U?$less@I@std@@V?$allocator@U?$pair@$$CBIVFunctor@OpenHome@@@std@@@4@$0A@@std@@@2@@Z 0043e5c0 f i libohNetCore:NetworkAdapterList.obj
 0001:0003d6e0       ?_Orphan_ptr@?$_Tree@V?$_Tmap_traits@IVFunctor@OpenHome@@U?$less@I@std@@V?$allocator@U?$pair@$$CBIVFunctor@OpenHome@@@std@@@4@$0A@@std@@@std@@IBEXAAV12@PAU_Node@?$_Tree_nod@V?$_Tmap_traits@IVFunctor@OpenHome@@U?$less@I@std@@V?$allocator@U?$pair@$$CBIVFunctor@OpenHome@@@std@@@4@$0A@@std@@@2@@Z 0043e6e0 f i libohNetCore:NetworkAdapterList.obj
 0001:0003d7f0       ?_Tidy@?$_Tree@V?$_Tmap_traits@IVFunctor@OpenHome@@U?$less@I@std@@V?$allocator@U?$pair@$$CBIVFunctor@OpenHome@@@std@@@4@$0A@@std@@@std@@IAEXXZ 0043e7f0 f i libohNetCore:NetworkAdapterList.obj
 0001:0003d8f0       ??1?$_Tree_val@V?$_Tmap_traits@IVFunctor@OpenHome@@U?$less@I@std@@V?$allocator@U?$pair@$$CBIVFunctor@OpenHome@@@std@@@4@$0A@@std@@@std@@QAE@XZ 0043e8f0 f i libohNetCore:NetworkAdapterList.obj
 0001:0003d960       ?_Color@?$_Tree_val@V?$_Tmap_traits@IVFunctor@OpenHome@@U?$less@I@std@@V?$allocator@U?$pair@$$CBIVFunctor@OpenHome@@@std@@@4@$0A@@std@@@std@@SGAADPAU_Node@?$_Tree_nod@V?$_Tmap_traits@IVFunctor@OpenHome@@U?$less@I@std@@V?$allocator@U?$pair@$$CBIVFunctor@OpenHome@@@std@@@4@$0A@@std@@@2@@Z 0043e960 f i libohNetCore:NetworkAdapterList.obj
 0001:0003d970       ?_Isnil@?$_Tree_val@V?$_Tmap_traits@IVFunctor@OpenHome@@U?$less@I@std@@V?$allocator@U?$pair@$$CBIVFunctor@OpenHome@@@std@@@4@$0A@@std@@@std@@SGAADPAU_Node@?$_Tree_nod@V?$_Tmap_traits@IVFunctor@OpenHome@@U?$less@I@std@@V?$allocator@U?$pair@$$CBIVFunctor@OpenHome@@@std@@@4@$0A@@std@@@2@@Z 0043e970 f i libohNetCore:NetworkAdapterList.obj
 0001:0003d980       ?_Key@?$_Tree_val@V?$_Tmap_traits@IVFunctor@OpenHome@@U?$less@I@std@@V?$allocator@U?$pair@$$CBIVFunctor@OpenHome@@@std@@@4@$0A@@std@@@std@@SGAAIPAU_Node@?$_Tree_nod@V?$_Tmap_traits@IVFunctor@OpenHome@@U?$less@I@std@@V?$allocator@U?$pair@$$CBIVFunctor@OpenHome@@@std@@@4@$0A@@std@@@2@@Z 0043e980 f i libohNetCore:NetworkAdapterList.obj
 0001:0003d9a0       ?_Left@?$_Tree_val@V?$_Tmap_traits@IVFunctor@OpenHome@@U?$less@I@std@@V?$allocator@U?$pair@$$CBIVFunctor@OpenHome@@@std@@@4@$0A@@std@@@std@@SGAAPAU_Node@?$_Tree_nod@V?$_Tmap_traits@IVFunctor@OpenHome@@U?$less@I@std@@V?$allocator@U?$pair@$$CBIVFunctor@OpenHome@@@std@@@4@$0A@@std@@@2@PAU342@@Z 0043e9a0 f i libohNetCore:NetworkAdapterList.obj
 0001:0003d9b0       ?_Parent@?$_Tree_val@V?$_Tmap_traits@IVFunctor@OpenHome@@U?$less@I@std@@V?$allocator@U?$pair@$$CBIVFunctor@OpenHome@@@std@@@4@$0A@@std@@@std@@SGAAPAU_Node@?$_Tree_nod@V?$_Tmap_traits@IVFunctor@OpenHome@@U?$less@I@std@@V?$allocator@U?$pair@$$CBIVFunctor@OpenHome@@@std@@@4@$0A@@std@@@2@PAU342@@Z 0043e9b0 f i libohNetCore:NetworkAdapterList.obj
 0001:0003d9c0       ?_Right@?$_Tree_val@V?$_Tmap_traits@IVFunctor@OpenHome@@U?$less@I@std@@V?$allocator@U?$pair@$$CBIVFunctor@OpenHome@@@std@@@4@$0A@@std@@@std@@SGAAPAU_Node@?$_Tree_nod@V?$_Tmap_traits@IVFunctor@OpenHome@@U?$less@I@std@@V?$allocator@U?$pair@$$CBIVFunctor@OpenHome@@@std@@@4@$0A@@std@@@2@PAU342@@Z 0043e9c0 f i libohNetCore:NetworkAdapterList.obj
 0001:0003d9d0       ?_Myval@?$_Tree_val@V?$_Tmap_traits@IVFunctor@OpenHome@@U?$less@I@std@@V?$allocator@U?$pair@$$CBIVFunctor@OpenHome@@@std@@@4@$0A@@std@@@std@@SGAAU?$pair@$$CBIVFunctor@OpenHome@@@2@PAU_Node@?$_Tree_nod@V?$_Tmap_traits@IVFunctor@OpenHome@@U?$less@I@std@@V?$allocator@U?$pair@$$CBIVFunctor@OpenHome@@@std@@@4@$0A@@std@@@2@@Z 0043e9d0 f i libohNetCore:NetworkAdapterList.obj
 0001:0003d9e0       ?_Max@?$_Tree_val@V?$_Tmap_traits@IVFunctor@OpenHome@@U?$less@I@std@@V?$allocator@U?$pair@$$CBIVFunctor@OpenHome@@@std@@@4@$0A@@std@@@std@@SGPAU_Node@?$_Tree_nod@V?$_Tmap_traits@IVFunctor@OpenHome@@U?$less@I@std@@V?$allocator@U?$pair@$$CBIVFunctor@OpenHome@@@std@@@4@$0A@@std@@@2@PAU342@@Z 0043e9e0 f i libohNetCore:NetworkAdapterList.obj
 0001:0003da20       ?_Min@?$_Tree_val@V?$_Tmap_traits@IVFunctor@OpenHome@@U?$less@I@std@@V?$allocator@U?$pair@$$CBIVFunctor@OpenHome@@@std@@@4@$0A@@std@@@std@@SGPAU_Node@?$_Tree_nod@V?$_Tmap_traits@IVFunctor@OpenHome@@U?$less@I@std@@V?$allocator@U?$pair@$$CBIVFunctor@OpenHome@@@std@@@4@$0A@@std@@@2@PAU342@@Z 0043ea20 f i libohNetCore:NetworkAdapterList.obj
 0001:0003da60       ??0?$allocator@U?$pair@$$CBIVFunctor@OpenHome@@@std@@@std@@QAE@XZ 0043ea60 f i libohNetCore:NetworkAdapterList.obj
 0001:0003da80       ?deallocate@?$allocator@U_Node@?$_Tree_nod@V?$_Tmap_traits@IVFunctor@OpenHome@@U?$less@I@std@@V?$allocator@U?$pair@$$CBIVFunctor@OpenHome@@@std@@@4@$0A@@std@@@std@@@std@@QAEXPAU_Node@?$_Tree_nod@V?$_Tmap_traits@IVFunctor@OpenHome@@U?$less@I@std@@V?$allocator@U?$pair@$$CBIVFunctor@OpenHome@@@std@@@4@$0A@@std@@@2@I@Z 0043ea80 f i libohNetCore:NetworkAdapterList.obj
 0001:0003dab0       ?_Inside@?$vector@PAVNetworkAdapter@OpenHome@@V?$allocator@PAVNetworkAdapter@OpenHome@@@std@@@std@@IBE_NPBQAVNetworkAdapter@OpenHome@@@Z 0043eab0 f i libohNetCore:NetworkAdapterList.obj
 0001:0003db00       ?_Reserve@?$vector@PAVNetworkAdapter@OpenHome@@V?$allocator@PAVNetworkAdapter@OpenHome@@@std@@@std@@IAEXI@Z 0043eb00 f i libohNetCore:NetworkAdapterList.obj
 0001:0003db80       ?_Orphan_range@?$vector@PAVNetworkAdapter@OpenHome@@V?$allocator@PAVNetworkAdapter@OpenHome@@@std@@@std@@IBEXPAPAVNetworkAdapter@OpenHome@@0@Z 0043eb80 f i libohNetCore:NetworkAdapterList.obj
 0001:0003dc90       ??0?$_Vector_val@PAVNetworkAdapter@OpenHome@@V?$allocator@PAVNetworkAdapter@OpenHome@@@std@@@std@@QAE@V?$allocator@PAVNetworkAdapter@OpenHome@@@1@@Z 0043ec90 f i libohNetCore:NetworkAdapterList.obj
 0001:0003ddb0       ??0?$allocator@PAVNetworkAdapter@OpenHome@@@std@@QAE@XZ 0043edb0 f i libohNetCore:NetworkAdapterList.obj
 0001:0003ddd0       ??0?$_Tree_iterator@V?$_Tree_val@V?$_Tmap_traits@IVFunctor@OpenHome@@U?$less@I@std@@V?$allocator@U?$pair@$$CBIVFunctor@OpenHome@@@std@@@4@$0A@@std@@@std@@@std@@QAE@PAU_Node@?$_Tree_nod@V?$_Tmap_traits@IVFunctor@OpenHome@@U?$less@I@std@@V?$allocator@U?$pair@$$CBIVFunctor@OpenHome@@@std@@@4@$0A@@std@@@1@PBV?$_Tree_val@V?$_Tmap_traits@IVFunctor@OpenHome@@U?$less@I@std@@V?$allocator@U?$pair@$$CBIVFunctor@OpenHome@@@std@@@4@$0A@@std@@@1@@Z 0043edd0 f i libohNetCore:NetworkAdapterList.obj
 0001:0003de10       ??D?$_Tree_iterator@V?$_Tree_val@V?$_Tmap_traits@IVFunctor@OpenHome@@U?$less@I@std@@V?$allocator@U?$pair@$$CBIVFunctor@OpenHome@@@std@@@4@$0A@@std@@@std@@@std@@QBEAAU?$pair@$$CBIVFunctor@OpenHome@@@1@XZ 0043ee10 f i libohNetCore:NetworkAdapterList.obj
 0001:0003de40       ??E?$_Tree_iterator@V?$_Tree_val@V?$_Tmap_traits@IVFunctor@OpenHome@@U?$less@I@std@@V?$allocator@U?$pair@$$CBIVFunctor@OpenHome@@@std@@@4@$0A@@std@@@std@@@std@@QAEAAV01@XZ 0043ee40 f i libohNetCore:NetworkAdapterList.obj
 0001:0003de70       ??E?$_Tree_const_iterator@V?$_Tree_val@V?$_Tmap_traits@IVFunctor@OpenHome@@U?$less@I@std@@V?$allocator@U?$pair@$$CBIVFunctor@OpenHome@@@std@@@4@$0A@@std@@@std@@@std@@QAEAAV01@XZ 0043ee70 f i libohNetCore:NetworkAdapterList.obj
 0001:0003df30       ??8?$_Tree_const_iterator@V?$_Tree_val@V?$_Tmap_traits@IVFunctor@OpenHome@@U?$less@I@std@@V?$allocator@U?$pair@$$CBIVFunctor@OpenHome@@@std@@@4@$0A@@std@@@std@@@std@@QBE_NABV01@@Z 0043ef30 f i libohNetCore:NetworkAdapterList.obj
 0001:0003dff0       ?_Mynode@?$_Tree_unchecked_const_iterator@V?$_Tree_val@V?$_Tmap_traits@IVFunctor@OpenHome@@U?$less@I@std@@V?$allocator@U?$pair@$$CBIVFunctor@OpenHome@@@std@@@4@$0A@@std@@@std@@U_Iterator_base12@2@@std@@QBEPAU_Node@?$_Tree_nod@V?$_Tmap_traits@IVFunctor@OpenHome@@U?$less@I@std@@V?$allocator@U?$pair@$$CBIVFunctor@OpenHome@@@std@@@4@$0A@@std@@@2@XZ 0043eff0 f i libohNetCore:NetworkAdapterList.obj
 0001:0003e010       ?erase@?$_Tree@V?$_Tmap_traits@IVFunctor@OpenHome@@U?$less@I@std@@V?$allocator@U?$pair@$$CBIVFunctor@OpenHome@@@std@@@4@$0A@@std@@@std@@QAE?AV?$_Tree_iterator@V?$_Tree_val@V?$_Tmap_traits@IVFunctor@OpenHome@@U?$less@I@std@@V?$allocator@U?$pair@$$CBIVFunctor@OpenHome@@@std@@@4@$0A@@std@@@std@@@2@V?$_Tree_const_iterator@V?$_Tree_val@V?$_Tmap_traits@IVFunctor@OpenHome@@U?$less@I@std@@V?$allocator@U?$pair@$$CBIVFunctor@OpenHome@@@std@@@4@$0A@@std@@@std@@@2@0@Z 0043f010 f i libohNetCore:NetworkAdapterList.obj
 0001:0003e210       ?_Lbound@?$_Tree@V?$_Tmap_traits@IVFunctor@OpenHome@@U?$less@I@std@@V?$allocator@U?$pair@$$CBIVFunctor@OpenHome@@@std@@@4@$0A@@std@@@std@@IAEPAU_Node@?$_Tree_nod@V?$_Tmap_traits@IVFunctor@OpenHome@@U?$less@I@std@@V?$allocator@U?$pair@$$CBIVFunctor@OpenHome@@@std@@@4@$0A@@std@@@2@ABI@Z 0043f210 f i libohNetCore:NetworkAdapterList.obj
 0001:0003e2c0       ??0?$_Tree_val@V?$_Tmap_traits@IVFunctor@OpenHome@@U?$less@I@std@@V?$allocator@U?$pair@$$CBIVFunctor@OpenHome@@@std@@@4@$0A@@std@@@std@@QAE@ABU?$less@I@1@V?$allocator@U?$pair@$$CBIVFunctor@OpenHome@@@std@@@1@@Z 0043f2c0 f i libohNetCore:NetworkAdapterList.obj
 0001:0003e3c0       ??1?$_Tree_nod@V?$_Tmap_traits@IVFunctor@OpenHome@@U?$less@I@std@@V?$allocator@U?$pair@$$CBIVFunctor@OpenHome@@@std@@@4@$0A@@std@@@std@@QAE@XZ 0043f3c0 f i libohNetCore:NetworkAdapterList.obj
 0001:0003e4a0       ??0?$allocator@U?$pair@$$CBIVFunctor@OpenHome@@@std@@@std@@QAE@ABV01@@Z 0043f4a0 f i libohNetCore:NetworkAdapterList.obj
 0001:0003e4c0       ?reserve@?$vector@PAVNetworkAdapter@OpenHome@@V?$allocator@PAVNetworkAdapter@OpenHome@@@std@@@std@@QAEXI@Z 0043f4c0 f i libohNetCore:NetworkAdapterList.obj
 0001:0003e630       ?capacity@?$vector@PAVNetworkAdapter@OpenHome@@V?$allocator@PAVNetworkAdapter@OpenHome@@@std@@@std@@QBEIXZ 0043f630 f i libohNetCore:NetworkAdapterList.obj
 0001:0003e660       ?max_size@?$vector@PAVNetworkAdapter@OpenHome@@V?$allocator@PAVNetworkAdapter@OpenHome@@@std@@@std@@QBEIXZ 0043f660 f i libohNetCore:NetworkAdapterList.obj
 0001:0003e690       ?_Grow_to@?$vector@PAVNetworkAdapter@OpenHome@@V?$allocator@PAVNetworkAdapter@OpenHome@@@std@@@std@@IBEII@Z 0043f690 f i libohNetCore:NetworkAdapterList.obj
 0001:0003e710       ?_Xlen@?$vector@PAVNetworkAdapter@OpenHome@@V?$allocator@PAVNetworkAdapter@OpenHome@@@std@@@std@@IBEXXZ 0043f710 f i libohNetCore:NetworkAdapterList.obj
 0001:0003e740       ??0?$allocator@PAVNetworkAdapter@OpenHome@@@std@@QAE@ABV01@@Z 0043f740 f i libohNetCore:NetworkAdapterList.obj
 0001:0003e760       ??0?$_Tree_const_iterator@V?$_Tree_val@V?$_Tmap_traits@IVFunctor@OpenHome@@U?$less@I@std@@V?$allocator@U?$pair@$$CBIVFunctor@OpenHome@@@std@@@4@$0A@@std@@@std@@@std@@QAE@PAU_Node@?$_Tree_nod@V?$_Tmap_traits@IVFunctor@OpenHome@@U?$less@I@std@@V?$allocator@U?$pair@$$CBIVFunctor@OpenHome@@@std@@@4@$0A@@std@@@1@PBV?$_Tree_val@V?$_Tmap_traits@IVFunctor@OpenHome@@U?$less@I@std@@V?$allocator@U?$pair@$$CBIVFunctor@OpenHome@@@std@@@4@$0A@@std@@@1@@Z 0043f760 f i libohNetCore:NetworkAdapterList.obj
 0001:0003e7a0       ??D?$_Tree_const_iterator@V?$_Tree_val@V?$_Tmap_traits@IVFunctor@OpenHome@@U?$less@I@std@@V?$allocator@U?$pair@$$CBIVFunctor@OpenHome@@@std@@@4@$0A@@std@@@std@@@std@@QBEABU?$pair@$$CBIVFunctor@OpenHome@@@1@XZ 0043f7a0 f i libohNetCore:NetworkAdapterList.obj
 0001:0003e860       ??E?$_Tree_unchecked_const_iterator@V?$_Tree_val@V?$_Tmap_traits@IVFunctor@OpenHome@@U?$less@I@std@@V?$allocator@U?$pair@$$CBIVFunctor@OpenHome@@@std@@@4@$0A@@std@@@std@@U_Iterator_base12@2@@std@@QAEAAV01@XZ 0043f860 f i libohNetCore:NetworkAdapterList.obj
 0001:0003e920       ??1?$_Tmap_traits@IVFunctor@OpenHome@@U?$less@I@std@@V?$allocator@U?$pair@$$CBIVFunctor@OpenHome@@@std@@@4@$0A@@std@@QAE@XZ 0043f920 f i libohNetCore:NetworkAdapterList.obj
 0001:0003e950       ?clear@?$_Tree@V?$_Tmap_traits@IVFunctor@OpenHome@@U?$less@I@std@@V?$allocator@U?$pair@$$CBIVFunctor@OpenHome@@@std@@@4@$0A@@std@@@std@@QAEXXZ 0043f950 f i libohNetCore:NetworkAdapterList.obj
 0001:0003e9d0       ??0?$_Tree_nod@V?$_Tmap_traits@IVFunctor@OpenHome@@U?$less@I@std@@V?$allocator@U?$pair@$$CBIVFunctor@OpenHome@@@std@@@4@$0A@@std@@@std@@QAE@ABU?$less@I@1@V?$allocator@U?$pair@$$CBIVFunctor@OpenHome@@@std@@@1@@Z 0043f9d0 f i libohNetCore:NetworkAdapterList.obj
 0001:0003eae0       ?allocate@?$allocator@U_Node@?$_Tree_nod@V?$_Tmap_traits@IVFunctor@OpenHome@@U?$less@I@std@@V?$allocator@U?$pair@$$CBIVFunctor@OpenHome@@@std@@@4@$0A@@std@@@std@@@std@@QAEPAU_Node@?$_Tree_nod@V?$_Tmap_traits@IVFunctor@OpenHome@@U?$less@I@std@@V?$allocator@U?$pair@$$CBIVFunctor@OpenHome@@@std@@@4@$0A@@std@@@2@I@Z 0043fae0 f i libohNetCore:NetworkAdapterList.obj
 0001:0003eb10       ?allocate@?$allocator@PAVNetworkAdapter@OpenHome@@@std@@QAEPAPAVNetworkAdapter@OpenHome@@I@Z 0043fb10 f i libohNetCore:NetworkAdapterList.obj
 0001:0003eb40       ?max_size@?$allocator@PAVNetworkAdapter@OpenHome@@@std@@QBEIXZ 0043fb40 f i libohNetCore:NetworkAdapterList.obj
 0001:0003eb90       ??E?$_Tree_const_iterator@V?$_Tree_val@V?$_Tmap_traits@IVFunctor@OpenHome@@U?$less@I@std@@V?$allocator@U?$pair@$$CBIVFunctor@OpenHome@@@std@@@4@$0A@@std@@@std@@@std@@QAE?AV01@H@Z 0043fb90 f i libohNetCore:NetworkAdapterList.obj
 0001:0003ec60       ??0?$_Tree_unchecked_const_iterator@V?$_Tree_val@V?$_Tmap_traits@IVFunctor@OpenHome@@U?$less@I@std@@V?$allocator@U?$pair@$$CBIVFunctor@OpenHome@@@std@@@4@$0A@@std@@@std@@U_Iterator_base12@2@@std@@QAE@PAU_Node@?$_Tree_nod@V?$_Tmap_traits@IVFunctor@OpenHome@@U?$less@I@std@@V?$allocator@U?$pair@$$CBIVFunctor@OpenHome@@@std@@@4@$0A@@std@@@1@PBV?$_Tree_val@V?$_Tmap_traits@IVFunctor@OpenHome@@U?$less@I@std@@V?$allocator@U?$pair@$$CBIVFunctor@OpenHome@@@std@@@4@$0A@@std@@@1@@Z 0043fc60 f i libohNetCore:NetworkAdapterList.obj
 0001:0003ece0       ??0?$_Iterator012@Ubidirectional_iterator_tag@std@@U?$pair@$$CBIVFunctor@OpenHome@@@2@HPBU32@ABU32@U_Iterator_base12@2@@std@@QAE@XZ 0043fce0 f i libohNetCore:NetworkAdapterList.obj
 0001:0003ed10       ?_Erase@?$_Tree@V?$_Tmap_traits@IVFunctor@OpenHome@@U?$less@I@std@@V?$allocator@U?$pair@$$CBIVFunctor@OpenHome@@@std@@@4@$0A@@std@@@std@@IAEXPAU_Node@?$_Tree_nod@V?$_Tmap_traits@IVFunctor@OpenHome@@U?$less@I@std@@V?$allocator@U?$pair@$$CBIVFunctor@OpenHome@@@std@@@4@$0A@@std@@@2@@Z 0043fd10 f i libohNetCore:NetworkAdapterList.obj
 0001:0003edb0       ??0?$_Tmap_traits@IVFunctor@OpenHome@@U?$less@I@std@@V?$allocator@U?$pair@$$CBIVFunctor@OpenHome@@@std@@@4@$0A@@std@@QAE@U?$less@I@1@@Z 0043fdb0 f i libohNetCore:NetworkAdapterList.obj
 0001:0003ede0       ??$?0AAIAAVFunctor@OpenHome@@@?$pair@IVFunctor@OpenHome@@@std@@QAE@AAIAAVFunctor@OpenHome@@@Z 0043fde0 f i libohNetCore:NetworkAdapterList.obj
 0001:0003ee20       ??$insert@U?$pair@IVFunctor@OpenHome@@@std@@@?$_Tree@V?$_Tmap_traits@IVFunctor@OpenHome@@U?$less@I@std@@V?$allocator@U?$pair@$$CBIVFunctor@OpenHome@@@std@@@4@$0A@@std@@@std@@QAE?AU?$pair@V?$_Tree_iterator@V?$_Tree_val@V?$_Tmap_traits@IVFunctor@OpenHome@@U?$less@I@std@@V?$allocator@U?$pair@$$CBIVFunctor@OpenHome@@@std@@@4@$0A@@std@@@std@@@std@@_N@1@$$QAU?$pair@IVFunctor@OpenHome@@@1@@Z 0043fe20 f i libohNetCore:NetworkAdapterList.obj
 0001:0003ee80       ??$addressof@U?$pair@$$CBIVFunctor@OpenHome@@@std@@@std@@YGPAU?$pair@$$CBIVFunctor@OpenHome@@@0@AAU10@@Z 0043fe80 f i libohNetCore:NetworkAdapterList.obj
 0001:0003ee90       ??$_Dest_val@V?$allocator@U?$pair@$$CBIVFunctor@OpenHome@@@std@@@std@@U?$pair@$$CBIVFunctor@OpenHome@@@2@@std@@YGXAAV?$allocator@U?$pair@$$CBIVFunctor@OpenHome@@@std@@@0@PAU?$pair@$$CBIVFunctor@OpenHome@@@0@@Z 0043fe90 f i libohNetCore:NetworkAdapterList.obj
 0001:0003eeb0       ??$_Debug_lt_pred@U?$less@I@std@@II@std@@YG_NU?$less@I@0@ABIAAIPB_WI@Z 0043feb0 f i libohNetCore:NetworkAdapterList.obj
 0001:0003ef10       ??$addressof@QAVNetworkAdapter@OpenHome@@@std@@YGPBQAVNetworkAdapter@OpenHome@@ABQAV12@@Z 0043ff10 f i libohNetCore:NetworkAdapterList.obj
 0001:0003ef20       ??$_Cons_val@V?$allocator@PAVNetworkAdapter@OpenHome@@@std@@PAVNetworkAdapter@OpenHome@@AAPAV34@@std@@YGXAAV?$allocator@PAVNetworkAdapter@OpenHome@@@0@PAPAVNetworkAdapter@OpenHome@@AAPAV23@@Z 0043ff20 f i libohNetCore:NetworkAdapterList.obj
 0001:0003ef50       ??$_Cons_val@V?$allocator@PAVNetworkAdapter@OpenHome@@@std@@PAVNetworkAdapter@OpenHome@@ABQAV34@@std@@YGXAAV?$allocator@PAVNetworkAdapter@OpenHome@@@0@PAPAVNetworkAdapter@OpenHome@@ABQAV23@@Z 0043ff50 f i libohNetCore:NetworkAdapterList.obj
 0001:0003ef80       ??$_Kfn@$$CBIVFunctor@OpenHome@@@?$_Tmap_traits@IVFunctor@OpenHome@@U?$less@I@std@@V?$allocator@U?$pair@$$CBIVFunctor@OpenHome@@@std@@@4@$0A@@std@@SGABIABU?$pair@$$CBIVFunctor@OpenHome@@@1@@Z 0043ff80 f i libohNetCore:NetworkAdapterList.obj
 0001:0003ef90       ??$_Debug_lt_pred@U?$less@I@std@@II@std@@YG_NU?$less@I@0@AAIABIPB_WI@Z 0043ff90 f i libohNetCore:NetworkAdapterList.obj
 0001:0003eff0       ??$?0U_Node@?$_Tree_nod@V?$_Tmap_traits@IVFunctor@OpenHome@@U?$less@I@std@@V?$allocator@U?$pair@$$CBIVFunctor@OpenHome@@@std@@@4@$0A@@std@@@std@@@?$allocator@U_Container_proxy@std@@@std@@QAE@ABV?$allocator@U_Node@?$_Tree_nod@V?$_Tmap_traits@IVFunctor@OpenHome@@U?$less@I@std@@V?$allocator@U?$pair@$$CBIVFunctor@OpenHome@@@std@@@4@$0A@@std@@@std@@@1@@Z 0043fff0 f i libohNetCore:NetworkAdapterList.obj
 0001:0003f010       ??$_Umove@PAPAVNetworkAdapter@OpenHome@@@?$vector@PAVNetworkAdapter@OpenHome@@V?$allocator@PAVNetworkAdapter@OpenHome@@@std@@@std@@IAEPAPAVNetworkAdapter@OpenHome@@PAPAV23@00@Z 00440010 f i libohNetCore:NetworkAdapterList.obj
 0001:0003f050       ??$?0U?$pair@$$CBIVFunctor@OpenHome@@@std@@@?$allocator@U_Node@?$_Tree_nod@V?$_Tmap_traits@IVFunctor@OpenHome@@U?$less@I@std@@V?$allocator@U?$pair@$$CBIVFunctor@OpenHome@@@std@@@4@$0A@@std@@@std@@@std@@QAE@ABV?$allocator@U?$pair@$$CBIVFunctor@OpenHome@@@std@@@1@@Z 00440050 f i libohNetCore:NetworkAdapterList.obj
 0001:0003f070       ??$_Allocate@U_Node@?$_Tree_nod@V?$_Tmap_traits@IVFunctor@OpenHome@@U?$less@I@std@@V?$allocator@U?$pair@$$CBIVFunctor@OpenHome@@@std@@@4@$0A@@std@@@std@@@std@@YGPAU_Node@?$_Tree_nod@V?$_Tmap_traits@IVFunctor@OpenHome@@U?$less@I@std@@V?$allocator@U?$pair@$$CBIVFunctor@OpenHome@@@std@@@4@$0A@@std@@@0@IPAU120@@Z 00440070 f i libohNetCore:NetworkAdapterList.obj
 0001:0003f0f0       ??$_Allocate@PAVNetworkAdapter@OpenHome@@@std@@YGPAPAVNetworkAdapter@OpenHome@@IPAPAV12@@Z 004400f0 f i libohNetCore:NetworkAdapterList.obj
 0001:0003f170       ?_Linsert@?$_Tree@V?$_Tmap_traits@IVFunctor@OpenHome@@U?$less@I@std@@V?$allocator@U?$pair@$$CBIVFunctor@OpenHome@@@std@@@4@$0A@@std@@@std@@QAE?AU?$pair@V?$_Tree_iterator@V?$_Tree_val@V?$_Tmap_traits@IVFunctor@OpenHome@@U?$less@I@std@@V?$allocator@U?$pair@$$CBIVFunctor@OpenHome@@@std@@@4@$0A@@std@@@std@@@std@@_N@2@PAU_Node@?$_Tree_nod@V?$_Tmap_traits@IVFunctor@OpenHome@@U?$less@I@std@@V?$allocator@U?$pair@$$CBIVFunctor@OpenHome@@@std@@@4@$0A@@std@@@2@_N@Z 00440170 f i libohNetCore:NetworkAdapterList.obj
 0001:0003f550       ?destroy@?$allocator@U?$pair@$$CBIVFunctor@OpenHome@@@std@@@std@@QAEXPAU?$pair@$$CBIVFunctor@OpenHome@@@2@@Z 00440550 f i libohNetCore:NetworkAdapterList.obj
 0001:0003f580       ??R?$less@I@std@@QBE_NABI0@Z 00440580 f i libohNetCore:NetworkAdapterList.obj
 0001:0003f5b0       ?construct@?$allocator@PAVNetworkAdapter@OpenHome@@@std@@QAEXPAPAVNetworkAdapter@OpenHome@@ABQAV34@@Z 004405b0 f i libohNetCore:NetworkAdapterList.obj
 0001:0003f5e0       ?_Insert@?$_Tree@V?$_Tmap_traits@IVFunctor@OpenHome@@U?$less@I@std@@V?$allocator@U?$pair@$$CBIVFunctor@OpenHome@@@std@@@4@$0A@@std@@@std@@IAE?AV?$_Tree_iterator@V?$_Tree_val@V?$_Tmap_traits@IVFunctor@OpenHome@@U?$less@I@std@@V?$allocator@U?$pair@$$CBIVFunctor@OpenHome@@@std@@@4@$0A@@std@@@std@@@2@_NPAU_Node@?$_Tree_nod@V?$_Tmap_traits@IVFunctor@OpenHome@@U?$less@I@std@@V?$allocator@U?$pair@$$CBIVFunctor@OpenHome@@@std@@@4@$0A@@std@@@2@1@Z 004405e0 f i libohNetCore:NetworkAdapterList.obj
 0001:0003f9a0       ??0?$pair@V?$_Tree_iterator@V?$_Tree_val@V?$_Tmap_traits@IVFunctor@OpenHome@@U?$less@I@std@@V?$allocator@U?$pair@$$CBIVFunctor@OpenHome@@@std@@@4@$0A@@std@@@std@@@std@@_N@std@@QAE@$$QAV?$_Tree_iterator@V?$_Tree_val@V?$_Tmap_traits@IVFunctor@OpenHome@@U?$less@I@std@@V?$allocator@U?$pair@$$CBIVFunctor@OpenHome@@@std@@@4@$0A@@std@@@std@@@1@$$QA_N@Z 004409a0 f i libohNetCore:NetworkAdapterList.obj
 0001:0003f9e0       ??F?$_Tree_iterator@V?$_Tree_val@V?$_Tmap_traits@IVFunctor@OpenHome@@U?$less@I@std@@V?$allocator@U?$pair@$$CBIVFunctor@OpenHome@@@std@@@4@$0A@@std@@@std@@@std@@QAEAAV01@XZ 004409e0 f i libohNetCore:NetworkAdapterList.obj
 0001:0003fa10       ?max_size@?$_Tree@V?$_Tmap_traits@IVFunctor@OpenHome@@U?$less@I@std@@V?$allocator@U?$pair@$$CBIVFunctor@OpenHome@@@std@@@4@$0A@@std@@@std@@QBEIXZ 00440a10 f i libohNetCore:NetworkAdapterList.obj
 0001:0003fa40       ??0?$_Pair_base@V?$_Tree_iterator@V?$_Tree_val@V?$_Tmap_traits@IVFunctor@OpenHome@@U?$less@I@std@@V?$allocator@U?$pair@$$CBIVFunctor@OpenHome@@@std@@@4@$0A@@std@@@std@@@std@@_N@std@@QAE@$$QAV?$_Tree_iterator@V?$_Tree_val@V?$_Tmap_traits@IVFunctor@OpenHome@@U?$less@I@std@@V?$allocator@U?$pair@$$CBIVFunctor@OpenHome@@@std@@@4@$0A@@std@@@std@@@1@$$QA_N@Z 00440a40 f i libohNetCore:NetworkAdapterList.obj
 0001:0003fac0       ??F?$_Tree_const_iterator@V?$_Tree_val@V?$_Tmap_traits@IVFunctor@OpenHome@@U?$less@I@std@@V?$allocator@U?$pair@$$CBIVFunctor@OpenHome@@@std@@@4@$0A@@std@@@std@@@std@@QAEAAV01@XZ 00440ac0 f i libohNetCore:NetworkAdapterList.obj
 0001:0003fbe0       ?max_size@?$allocator@U?$pair@$$CBIVFunctor@OpenHome@@@std@@@std@@QBEIXZ 00440be0 f i libohNetCore:NetworkAdapterList.obj
 0001:0003fc30       ??F?$_Tree_unchecked_const_iterator@V?$_Tree_val@V?$_Tmap_traits@IVFunctor@OpenHome@@U?$less@I@std@@V?$allocator@U?$pair@$$CBIVFunctor@OpenHome@@@std@@@4@$0A@@std@@@std@@U_Iterator_base12@2@@std@@QAEAAV01@XZ 00440c30 f i libohNetCore:NetworkAdapterList.obj
 0001:0003fd20       ??$forward@AAI@std@@YGAAIAAI@Z 00440d20 f i libohNetCore:NetworkAdapterList.obj
 0001:0003fd30       ??$forward@AAVFunctor@OpenHome@@@std@@YGAAVFunctor@OpenHome@@AAV12@@Z 00440d30 f i libohNetCore:NetworkAdapterList.obj
 0001:0003fd40       ??$?0AAIAAVFunctor@OpenHome@@@?$_Pair_base@IVFunctor@OpenHome@@@std@@QAE@AAIAAVFunctor@OpenHome@@@Z 00440d40 f i libohNetCore:NetworkAdapterList.obj
 0001:0003fda0       ??$forward@U?$pair@IVFunctor@OpenHome@@@std@@@std@@YG$$QAU?$pair@IVFunctor@OpenHome@@@0@AAU10@@Z 00440da0 f i libohNetCore:NetworkAdapterList.obj
 0001:0003fdb0       ??$_Buynode@U?$pair@IVFunctor@OpenHome@@@std@@@?$_Tree_val@V?$_Tmap_traits@IVFunctor@OpenHome@@U?$less@I@std@@V?$allocator@U?$pair@$$CBIVFunctor@OpenHome@@@std@@@4@$0A@@std@@@std@@QAEPAU_Node@?$_Tree_nod@V?$_Tmap_traits@IVFunctor@OpenHome@@U?$less@I@std@@V?$allocator@U?$pair@$$CBIVFunctor@OpenHome@@@std@@@4@$0A@@std@@@1@$$QAU?$pair@IVFunctor@OpenHome@@@1@@Z 00440db0 f i libohNetCore:NetworkAdapterList.obj
 0001:0003fe90       ??$forward@AAPAVNetworkAdapter@OpenHome@@@std@@YGAAPAVNetworkAdapter@OpenHome@@AAPAV12@@Z 00440e90 f i libohNetCore:NetworkAdapterList.obj
 0001:0003fea0       ??$construct@AAPAVNetworkAdapter@OpenHome@@@?$allocator@PAVNetworkAdapter@OpenHome@@@std@@QAEXPAPAVNetworkAdapter@OpenHome@@AAPAV23@@Z 00440ea0 f i libohNetCore:NetworkAdapterList.obj
 0001:0003ff40       ??$forward@ABQAVNetworkAdapter@OpenHome@@@std@@YGABQAVNetworkAdapter@OpenHome@@ABQAV12@@Z 00440f40 f i libohNetCore:NetworkAdapterList.obj
 0001:0003ff50       ??$_Uninitialized_move@PAPAVNetworkAdapter@OpenHome@@PAPAV12@V?$allocator@PAVNetworkAdapter@OpenHome@@@std@@@std@@YGPAPAVNetworkAdapter@OpenHome@@PAPAV12@00AAV?$allocator@PAVNetworkAdapter@OpenHome@@@0@@Z 00440f50 f i libohNetCore:NetworkAdapterList.obj
 0001:0003ffa0       ??$?0AAV?$_Tree_iterator@V?$_Tree_val@V?$_Tmap_traits@IVFunctor@OpenHome@@U?$less@I@std@@V?$allocator@U?$pair@$$CBIVFunctor@OpenHome@@@std@@@4@$0A@@std@@@std@@@std@@_N@?$pair@V?$_Tree_iterator@V?$_Tree_val@V?$_Tmap_traits@IVFunctor@OpenHome@@U?$less@I@std@@V?$allocator@U?$pair@$$CBIVFunctor@OpenHome@@@std@@@4@$0A@@std@@@std@@@std@@_N@std@@QAE@AAV?$_Tree_iterator@V?$_Tree_val@V?$_Tmap_traits@IVFunctor@OpenHome@@U?$less@I@std@@V?$allocator@U?$pair@$$CBIVFunctor@OpenHome@@@std@@@4@$0A@@std@@@std@@@1@$$QA_N@Z 00440fa0 f i libohNetCore:NetworkAdapterList.obj
 0001:0003ffe0       ??$_Destroy@U?$pair@$$CBIVFunctor@OpenHome@@@std@@@std@@YGXPAU?$pair@$$CBIVFunctor@OpenHome@@@0@@Z 00440fe0 f i libohNetCore:NetworkAdapterList.obj
 0001:0003fff0       ??$_Construct@PAVNetworkAdapter@OpenHome@@ABQAV12@@std@@YGXPAPAVNetworkAdapter@OpenHome@@ABQAV12@@Z 00440ff0 f i libohNetCore:NetworkAdapterList.obj
 0001:000400a0       ??$move@AAV?$_Tree_iterator@V?$_Tree_val@V?$_Tmap_traits@IVFunctor@OpenHome@@U?$less@I@std@@V?$allocator@U?$pair@$$CBIVFunctor@OpenHome@@@std@@@4@$0A@@std@@@std@@@std@@@std@@YG$$QAV?$_Tree_iterator@V?$_Tree_val@V?$_Tmap_traits@IVFunctor@OpenHome@@U?$less@I@std@@V?$allocator@U?$pair@$$CBIVFunctor@OpenHome@@@std@@@4@$0A@@std@@@std@@@0@AAV10@@Z 004410a0 f i libohNetCore:NetworkAdapterList.obj
 0001:000400b0       ?_Buynode@?$_Tree_val@V?$_Tmap_traits@IVFunctor@OpenHome@@U?$less@I@std@@V?$allocator@U?$pair@$$CBIVFunctor@OpenHome@@@std@@@4@$0A@@std@@@std@@QAEPAU_Node@?$_Tree_nod@V?$_Tmap_traits@IVFunctor@OpenHome@@U?$less@I@std@@V?$allocator@U?$pair@$$CBIVFunctor@OpenHome@@@std@@@4@$0A@@std@@@2@XZ 004410b0 f i libohNetCore:NetworkAdapterList.obj
 0001:00040140       ??$_Cons_val@V?$allocator@U?$pair@$$CBIVFunctor@OpenHome@@@std@@@std@@U?$pair@$$CBIVFunctor@OpenHome@@@2@U?$pair@IVFunctor@OpenHome@@@2@@std@@YGXAAV?$allocator@U?$pair@$$CBIVFunctor@OpenHome@@@std@@@0@PAU?$pair@$$CBIVFunctor@OpenHome@@@0@$$QAU?$pair@IVFunctor@OpenHome@@@0@@Z 00441140 f i libohNetCore:NetworkAdapterList.obj
 0001:00040170       ??$_Val_type@PAPAVNetworkAdapter@OpenHome@@@std@@YGPAPAVNetworkAdapter@OpenHome@@PAPAV12@@Z 00441170 f i libohNetCore:NetworkAdapterList.obj
 0001:00040180       ??$_Uninit_move@PAVNetworkAdapter@OpenHome@@PAV12@PAV12@@std@@YGPAPAVNetworkAdapter@OpenHome@@PAPAV12@00AAV?$allocator@PAVNetworkAdapter@OpenHome@@@0@0U_Scalar_ptr_iterator_tag@0@@Z 00441180 f i libohNetCore:NetworkAdapterList.obj
 0001:000401f0       ??$forward@AAV?$_Tree_iterator@V?$_Tree_val@V?$_Tmap_traits@IVFunctor@OpenHome@@U?$less@I@std@@V?$allocator@U?$pair@$$CBIVFunctor@OpenHome@@@std@@@4@$0A@@std@@@std@@@std@@@std@@YGAAV?$_Tree_iterator@V?$_Tree_val@V?$_Tmap_traits@IVFunctor@OpenHome@@U?$less@I@std@@V?$allocator@U?$pair@$$CBIVFunctor@OpenHome@@@std@@@4@$0A@@std@@@std@@@0@AAV10@@Z 004411f0 f i libohNetCore:NetworkAdapterList.obj
 0001:00040200       ??$?0AAV?$_Tree_iterator@V?$_Tree_val@V?$_Tmap_traits@IVFunctor@OpenHome@@U?$less@I@std@@V?$allocator@U?$pair@$$CBIVFunctor@OpenHome@@@std@@@4@$0A@@std@@@std@@@std@@_N@?$_Pair_base@V?$_Tree_iterator@V?$_Tree_val@V?$_Tmap_traits@IVFunctor@OpenHome@@U?$less@I@std@@V?$allocator@U?$pair@$$CBIVFunctor@OpenHome@@@std@@@4@$0A@@std@@@std@@@std@@_N@std@@QAE@AAV?$_Tree_iterator@V?$_Tree_val@V?$_Tmap_traits@IVFunctor@OpenHome@@U?$less@I@std@@V?$allocator@U?$pair@$$CBIVFunctor@OpenHome@@@std@@@4@$0A@@std@@@std@@@1@$$QA_N@Z 00441200 f i libohNetCore:NetworkAdapterList.obj
 0001:00040280       ??$construct@U?$pair@IVFunctor@OpenHome@@@std@@@?$allocator@U?$pair@$$CBIVFunctor@OpenHome@@@std@@@std@@QAEXPAU?$pair@$$CBIVFunctor@OpenHome@@@1@$$QAU?$pair@IVFunctor@OpenHome@@@1@@Z 00441280 f i libohNetCore:NetworkAdapterList.obj
 0001:00040320       ??$_Debug_range@PAPAVNetworkAdapter@OpenHome@@@std@@YGXPAPAVNetworkAdapter@OpenHome@@0PB_WI@Z 00441320 f i libohNetCore:NetworkAdapterList.obj
 0001:00040370       ??$_Debug_pointer@PAVNetworkAdapter@OpenHome@@@std@@YGXPAPAVNetworkAdapter@OpenHome@@PB_WI@Z 00441370 f i libohNetCore:NetworkAdapterList.obj
 0001:000403a0       ??$?0IVFunctor@OpenHome@@@?$pair@$$CBIVFunctor@OpenHome@@@std@@QAE@$$QAU?$pair@IVFunctor@OpenHome@@@1@@Z 004413a0 f i libohNetCore:NetworkAdapterList.obj
 0001:000403e0       ??$_Iter_cat@PAPAVNetworkAdapter@OpenHome@@@std@@YG?AUrandom_access_iterator_tag@0@ABQAPAVNetworkAdapter@OpenHome@@@Z 004413e0 f i libohNetCore:NetworkAdapterList.obj
 0001:00040440       ??$_Debug_range2@PAPAVNetworkAdapter@OpenHome@@@std@@YGXPAPAVNetworkAdapter@OpenHome@@0PB_WIUrandom_access_iterator_tag@0@@Z 00441440 f i libohNetCore:NetworkAdapterList.obj
 0001:000404a0       ??$forward@I@std@@YG$$QAIAAI@Z 004414a0 f i libohNetCore:NetworkAdapterList.obj
 0001:000404b0       ??$forward@VFunctor@OpenHome@@@std@@YG$$QAVFunctor@OpenHome@@AAV12@@Z 004414b0 f i libohNetCore:NetworkAdapterList.obj
 0001:000404c0       ??$?0IVFunctor@OpenHome@@@?$_Pair_base@$$CBIVFunctor@OpenHome@@@std@@QAE@$$QAI$$QAVFunctor@OpenHome@@@Z 004414c0 f i libohNetCore:NetworkAdapterList.obj
 0001:00040520       ?Twiddle@@YGIII@Z          00441520 f   libohNetCore:Maths.obj
 0001:00040550       ?SetRandomSeed@OpenHome@@YGXABVBrx@1@@Z 00441550 f   libohNetCore:Maths.obj
 0001:00040640       ?SetRandomSeed@OpenHome@@YGXI@Z 00441640 f   libohNetCore:Maths.obj
 0001:000406d0       ?Random@OpenHome@@YGIII@Z  004416d0 f   libohNetCore:Maths.obj
 0001:00040870       ?LittleEndian4@Arch@OpenHome@@SGII@Z 00441870 f i libohNetCore:Maths.obj
 0001:00040890       ??0SsdpSocketReader@Net@OpenHome@@QAE@IABVEndpoint@2@@Z 00441890 f   libohNetCore:Discovery.obj
 0001:00040980       ??1SsdpSocketReader@Net@OpenHome@@UAE@XZ 00441980 f   libohNetCore:Discovery.obj
 0001:00040a50       ?Sender@SsdpSocketReader@Net@OpenHome@@QBE?AVEndpoint@3@XZ 00441a50 f   libohNetCore:Discovery.obj
 0001:00040a80       ?Read@SsdpSocketReader@Net@OpenHome@@UAEXAAVBwx@3@@Z 00441a80 f   libohNetCore:Discovery.obj
 0001:00040ac0       ?ReadFlush@SsdpSocketReader@Net@OpenHome@@UAEXXZ 00441ac0 f   libohNetCore:Discovery.obj
 0001:00040b00       ?ReadInterrupt@SsdpSocketReader@Net@OpenHome@@UAEXXZ 00441b00 f   libohNetCore:Discovery.obj
 0001:00040b40       ??0SsdpListener@Net@OpenHome@@IAE@XZ 00441b40 f   libohNetCore:Discovery.obj
 0001:00040c10       ??0SsdpListenerMulticast@Net@OpenHome@@QAE@I@Z 00441c10 f   libohNetCore:Discovery.obj
 0001:00040ef0       ?Run@SsdpListenerMulticast@Net@OpenHome@@EAEXXZ 00441ef0 f   libohNetCore:Discovery.obj
 0001:00041330       ?Msearch@SsdpListenerMulticast@Net@OpenHome@@AAEXAAVMsearchHandler@123@@Z 00442330 f   libohNetCore:Discovery.obj
 0001:00041400       ?Msearch@SsdpListenerMulticast@Net@OpenHome@@AAEXAAVISsdpMsearchHandler@23@@Z 00442400 f   libohNetCore:Discovery.obj
 0001:000416c0       ?Notify@SsdpListenerMulticast@Net@OpenHome@@AAEXAAVNotifyHandler@123@@Z 004426c0 f   libohNetCore:Discovery.obj
 0001:00041790       ?Notify@SsdpListenerMulticast@Net@OpenHome@@AAEXAAVISsdpNotifyHandler@23@@Z 00442790 f   libohNetCore:Discovery.obj
 0001:00041f90       ??1SsdpListenerMulticast@Net@OpenHome@@UAE@XZ 00442f90 f   libohNetCore:Discovery.obj
 0001:00042160       ?AddNotifyHandler@SsdpListenerMulticast@Net@OpenHome@@QAEHPAVISsdpNotifyHandler@23@@Z 00443160 f   libohNetCore:Discovery.obj
 0001:000422b0       ?AddMsearchHandler@SsdpListenerMulticast@Net@OpenHome@@QAEHPAVISsdpMsearchHandler@23@@Z 004432b0 f   libohNetCore:Discovery.obj
 0001:00042400       ?RemoveNotifyHandler@SsdpListenerMulticast@Net@OpenHome@@QAEXH@Z 00443400 f   libohNetCore:Discovery.obj
 0001:000424c0       ?RemoveMsearchHandler@SsdpListenerMulticast@Net@OpenHome@@QAEXH@Z 004434c0 f   libohNetCore:Discovery.obj
 0001:00042580       ?Interface@SsdpListenerMulticast@Net@OpenHome@@QBEIXZ 00443580 f   libohNetCore:Discovery.obj
 0001:000425a0       ?EraseDisabled@SsdpListenerMulticast@Net@OpenHome@@AAEXAAV?$vector@PAVNotifyHandler@SsdpListenerMulticast@Net@OpenHome@@V?$allocator@PAVNotifyHandler@SsdpListenerMulticast@Net@OpenHome@@@std@@@std@@@Z 004435a0 f   libohNetCore:Discovery.obj
 0001:00042740       ?EraseDisabled@SsdpListenerMulticast@Net@OpenHome@@AAEXAAV?$vector@PAVMsearchHandler@SsdpListenerMulticast@Net@OpenHome@@V?$allocator@PAVMsearchHandler@SsdpListenerMulticast@Net@OpenHome@@@std@@@std@@@Z 00443740 f   libohNetCore:Discovery.obj
 0001:000428e0       ??0SsdpListenerUnicast@Net@OpenHome@@QAE@AAVISsdpNotifyHandler@12@I@Z 004438e0 f   libohNetCore:Discovery.obj
 0001:00042b40       ??1SsdpListenerUnicast@Net@OpenHome@@UAE@XZ 00443b40 f   libohNetCore:Discovery.obj
 0001:00042c80       ?Run@SsdpListenerUnicast@Net@OpenHome@@EAEXXZ 00443c80 f   libohNetCore:Discovery.obj
 0001:000433b0       ?MsearchRoot@SsdpListenerUnicast@Net@OpenHome@@QAEXXZ 004443b0 f   libohNetCore:Discovery.obj
 0001:000433f0       ?MsearchUuid@SsdpListenerUnicast@Net@OpenHome@@QAEXABVBrx@3@@Z 004443f0 f   libohNetCore:Discovery.obj
 0001:00043430       ?MsearchDeviceType@SsdpListenerUnicast@Net@OpenHome@@QAEXABVBrx@3@0I@Z 00444430 f   libohNetCore:Discovery.obj
 0001:00043480       ?MsearchServiceType@SsdpListenerUnicast@Net@OpenHome@@QAEXABVBrx@3@0I@Z 00444480 f   libohNetCore:Discovery.obj
 0001:000434d0       ?MsearchAll@SsdpListenerUnicast@Net@OpenHome@@QAEXXZ 004444d0 f   libohNetCore:Discovery.obj
 0001:00043510       ?MsearchDurationSeconds@SsdpListenerUnicast@Net@OpenHome@@ABEIXZ 00444510 f   libohNetCore:Discovery.obj
 0001:00043540       ??1IReaderSource@OpenHome@@UAE@XZ 00444540 f i libohNetCore:Discovery.obj
 0001:00043560       ??_GIReaderSource@OpenHome@@UAEPAXI@Z 00444560 f i libohNetCore:Discovery.obj
 0001:00043560       ??_EIReaderSource@OpenHome@@UAEPAXI@Z 00444560 f i libohNetCore:Discovery.obj
 0001:000435a0       ??_ESsdpSocketReader@Net@OpenHome@@UAEPAXI@Z 004445a0 f i libohNetCore:Discovery.obj
 0001:000435a0       ??_GSsdpSocketReader@Net@OpenHome@@UAEPAXI@Z 004445a0 f i libohNetCore:Discovery.obj
 0001:000435e0       ??0IReaderSource@OpenHome@@QAE@XZ 004445e0 f i libohNetCore:Discovery.obj
 0001:00043600       ??_GSsdpListener@Net@OpenHome@@UAEPAXI@Z 00444600 f i libohNetCore:Discovery.obj
 0001:00043600       ??_ESsdpListener@Net@OpenHome@@UAEPAXI@Z 00444600 f i libohNetCore:Discovery.obj
 0001:00043640       ??0SsdpHeaderCacheControl@Net@OpenHome@@QAE@XZ 00444640 f i libohNetCore:Discovery.obj
 0001:00043670       ??1SsdpHeaderCacheControl@Net@OpenHome@@UAE@XZ 00444670 f i libohNetCore:Discovery.obj
 0001:000436a0       ??0HttpHeaderLocation@OpenHome@@QAE@XZ 004446a0 f i libohNetCore:Discovery.obj
 0001:00043720       ??1HttpHeaderLocation@OpenHome@@UAE@XZ 00444720 f i libohNetCore:Discovery.obj
 0001:00043790       ??0SsdpHeaderServer@Net@OpenHome@@QAE@XZ 00444790 f i libohNetCore:Discovery.obj
 0001:000437c0       ??1SsdpHeaderServer@Net@OpenHome@@UAE@XZ 004447c0 f i libohNetCore:Discovery.obj
 0001:000437f0       ??0SsdpHeaderSt@Net@OpenHome@@QAE@XZ 004447f0 f i libohNetCore:Discovery.obj
 0001:00043890       ??1SsdpHeaderSt@Net@OpenHome@@UAE@XZ 00444890 f i libohNetCore:Discovery.obj
 0001:00043920       ??0SsdpHeaderUsn@Net@OpenHome@@QAE@XZ 00444920 f i libohNetCore:Discovery.obj
 0001:000439c0       ??1SsdpListener@Net@OpenHome@@UAE@XZ 004449c0 f i libohNetCore:Discovery.obj
 0001:00043a70       ??1SsdpHeaderUsn@Net@OpenHome@@UAE@XZ 00444a70 f i libohNetCore:Discovery.obj
 0001:00043b00       ??_GSsdpHeaderCacheControl@Net@OpenHome@@UAEPAXI@Z 00444b00 f i libohNetCore:Discovery.obj
 0001:00043b00       ??_ESsdpHeaderCacheControl@Net@OpenHome@@UAEPAXI@Z 00444b00 f i libohNetCore:Discovery.obj
 0001:00043b40       ??1HttpHeader@OpenHome@@UAE@XZ 00444b40 f i libohNetCore:Discovery.obj
 0001:00043b70       ??1IHttpHeader@OpenHome@@UAE@XZ 00444b70 f i libohNetCore:Discovery.obj
 0001:00043b90       ??_GIHttpHeader@OpenHome@@UAEPAXI@Z 00444b90 f i libohNetCore:Discovery.obj
 0001:00043b90       ??_EIHttpHeader@OpenHome@@UAEPAXI@Z 00444b90 f i libohNetCore:Discovery.obj
 0001:00043bd0       ??_GHttpHeaderLocation@OpenHome@@UAEPAXI@Z 00444bd0 f i libohNetCore:Discovery.obj
 0001:00043bd0       ??_EHttpHeaderLocation@OpenHome@@UAEPAXI@Z 00444bd0 f i libohNetCore:Discovery.obj
 0001:00043c10       ??1?$Bws@$0DOI@@OpenHome@@UAE@XZ 00444c10 f i libohNetCore:Discovery.obj
 0001:00043c40       ??_ESsdpHeaderServer@Net@OpenHome@@UAEPAXI@Z 00444c40 f i libohNetCore:Discovery.obj
 0001:00043c40       ??_GSsdpHeaderServer@Net@OpenHome@@UAEPAXI@Z 00444c40 f i libohNetCore:Discovery.obj
 0001:00043c80       ??_ESsdpHeaderSt@Net@OpenHome@@UAEPAXI@Z 00444c80 f i libohNetCore:Discovery.obj
 0001:00043c80       ??_GSsdpHeaderSt@Net@OpenHome@@UAEPAXI@Z 00444c80 f i libohNetCore:Discovery.obj
 0001:00043cc0       ??1?$Bws@$0EA@@OpenHome@@UAE@XZ 00444cc0 f i libohNetCore:Discovery.obj
 0001:00043cf0       ??_GSsdpHeaderUsn@Net@OpenHome@@UAEPAXI@Z 00444cf0 f i libohNetCore:Discovery.obj
 0001:00043cf0       ??_ESsdpHeaderUsn@Net@OpenHome@@UAEPAXI@Z 00444cf0 f i libohNetCore:Discovery.obj
 0001:00043d30       ??_GSsdpListenerMulticast@Net@OpenHome@@UAEPAXI@Z 00444d30 f i libohNetCore:Discovery.obj
 0001:00043d30       ??_ESsdpListenerMulticast@Net@OpenHome@@UAEPAXI@Z 00444d30 f i libohNetCore:Discovery.obj
 0001:00043d70       ??1?$Srs@$0EAA@@OpenHome@@UAE@XZ 00444d70 f i libohNetCore:Discovery.obj
 0001:00043da0       ??1ReaderHttpRequest@OpenHome@@QAE@XZ 00444da0 f i libohNetCore:Discovery.obj
 0001:00043e20       ??0SsdpHeaderHost@Net@OpenHome@@QAE@XZ 00444e20 f i libohNetCore:Discovery.obj
 0001:00043e50       ??1SsdpHeaderHost@Net@OpenHome@@UAE@XZ 00444e50 f i libohNetCore:Discovery.obj
 0001:00043e80       ??0SsdpHeaderMan@Net@OpenHome@@QAE@XZ 00444e80 f i libohNetCore:Discovery.obj
 0001:00043eb0       ??1SsdpHeaderMan@Net@OpenHome@@UAE@XZ 00444eb0 f i libohNetCore:Discovery.obj
 0001:00043ee0       ??0SsdpHeaderMx@Net@OpenHome@@QAE@XZ 00444ee0 f i libohNetCore:Discovery.obj
 0001:00043f10       ??1SsdpHeaderMx@Net@OpenHome@@UAE@XZ 00444f10 f i libohNetCore:Discovery.obj
 0001:00043f40       ??0SsdpHeaderNt@Net@OpenHome@@QAE@XZ 00444f40 f i libohNetCore:Discovery.obj
 0001:00043fe0       ??1SsdpHeaderNt@Net@OpenHome@@UAE@XZ 00444fe0 f i libohNetCore:Discovery.obj
 0001:00044070       ??0SsdpHeaderNts@Net@OpenHome@@QAE@XZ 00445070 f i libohNetCore:Discovery.obj
 0001:000440a0       ??1SsdpHeaderNts@Net@OpenHome@@UAE@XZ 004450a0 f i libohNetCore:Discovery.obj
 0001:000440d0       ??1Srx@OpenHome@@UAE@XZ    004450d0 f i libohNetCore:Discovery.obj
 0001:00044140       ??1ReaderHttpHeader@OpenHome@@QAE@XZ 00445140 f i libohNetCore:Discovery.obj
 0001:00044170       ??1?$Bws@$0MI@@OpenHome@@UAE@XZ 00445170 f i libohNetCore:Discovery.obj
 0001:000441a0       ??_GSsdpHeaderHost@Net@OpenHome@@UAEPAXI@Z 004451a0 f i libohNetCore:Discovery.obj
 0001:000441a0       ??_ESsdpHeaderHost@Net@OpenHome@@UAEPAXI@Z 004451a0 f i libohNetCore:Discovery.obj
 0001:000441e0       ??_GSsdpHeaderMan@Net@OpenHome@@UAEPAXI@Z 004451e0 f i libohNetCore:Discovery.obj
 0001:000441e0       ??_ESsdpHeaderMan@Net@OpenHome@@UAEPAXI@Z 004451e0 f i libohNetCore:Discovery.obj
 0001:00044220       ??_GSsdpHeaderMx@Net@OpenHome@@UAEPAXI@Z 00445220 f i libohNetCore:Discovery.obj
 0001:00044220       ??_ESsdpHeaderMx@Net@OpenHome@@UAEPAXI@Z 00445220 f i libohNetCore:Discovery.obj
 0001:00044260       ??_GSsdpHeaderNt@Net@OpenHome@@UAEPAXI@Z 00445260 f i libohNetCore:Discovery.obj
 0001:00044260       ??_ESsdpHeaderNt@Net@OpenHome@@UAEPAXI@Z 00445260 f i libohNetCore:Discovery.obj
 0001:000442a0       ??_GSsdpHeaderNts@Net@OpenHome@@UAEPAXI@Z 004452a0 f i libohNetCore:Discovery.obj
 0001:000442a0       ??_ESsdpHeaderNts@Net@OpenHome@@UAEPAXI@Z 004452a0 f i libohNetCore:Discovery.obj
 0001:000442e0       ?Mutex@Handler@SsdpListenerMulticast@Net@OpenHome@@QAEAAV04@XZ 004452e0 f i libohNetCore:Discovery.obj
 0001:00044300       ?IsDisabled@Handler@SsdpListenerMulticast@Net@OpenHome@@QBE_NXZ 00445300 f i libohNetCore:Discovery.obj
 0001:00044320       ?Handler@MsearchHandler@SsdpListenerMulticast@Net@OpenHome@@QAEPAVISsdpMsearchHandler@34@XZ 00445320 f i libohNetCore:Discovery.obj
 0001:00044340       ?Handler@NotifyHandler@SsdpListenerMulticast@Net@OpenHome@@QAEPAVISsdpNotifyHandler@34@XZ 00445340 f i libohNetCore:Discovery.obj
 0001:00044360       ??0NotifyHandler@SsdpListenerMulticast@Net@OpenHome@@QAE@PAVISsdpNotifyHandler@23@H@Z 00445360 f i libohNetCore:Discovery.obj
 0001:000443a0       ??0Handler@SsdpListenerMulticast@Net@OpenHome@@IAE@H@Z 004453a0 f i libohNetCore:Discovery.obj
 0001:000443e0       ??0MsearchHandler@SsdpListenerMulticast@Net@OpenHome@@QAE@PAVISsdpMsearchHandler@23@H@Z 004453e0 f i libohNetCore:Discovery.obj
 0001:00044420       ?Id@Handler@SsdpListenerMulticast@Net@OpenHome@@QBEHXZ 00445420 f i libohNetCore:Discovery.obj
 0001:00044440       ?Lock@Handler@SsdpListenerMulticast@Net@OpenHome@@QAEXXZ 00445440 f i libohNetCore:Discovery.obj
 0001:00044470       ?Unlock@Handler@SsdpListenerMulticast@Net@OpenHome@@QAEXXZ 00445470 f i libohNetCore:Discovery.obj
 0001:000444a0       ?Disable@Handler@SsdpListenerMulticast@Net@OpenHome@@QAEXXZ 004454a0 f i libohNetCore:Discovery.obj
 0001:000444c0       ??1?$_Vector_iterator@V?$_Vector_val@PAVNotifyHandler@SsdpListenerMulticast@Net@OpenHome@@V?$allocator@PAVNotifyHandler@SsdpListenerMulticast@Net@OpenHome@@@std@@@std@@@std@@QAE@XZ 004454c0 f i libohNetCore:Discovery.obj
 0001:000444f0       ??_GNotifyHandler@SsdpListenerMulticast@Net@OpenHome@@QAEPAXI@Z 004454f0 f i libohNetCore:Discovery.obj
 0001:00044530       ??0?$_Vector_const_iterator@V?$_Vector_val@PAVNotifyHandler@SsdpListenerMulticast@Net@OpenHome@@V?$allocator@PAVNotifyHandler@SsdpListenerMulticast@Net@OpenHome@@@std@@@std@@@std@@QAE@ABV01@@Z 00445530 f i libohNetCore:Discovery.obj
 0001:00044570       ??1?$_Vector_const_iterator@V?$_Vector_val@PAVNotifyHandler@SsdpListenerMulticast@Net@OpenHome@@V?$allocator@PAVNotifyHandler@SsdpListenerMulticast@Net@OpenHome@@@std@@@std@@@std@@QAE@XZ 00445570 f i libohNetCore:Discovery.obj
 0001:000445a0       ??4?$_Vector_iterator@V?$_Vector_val@PAVNotifyHandler@SsdpListenerMulticast@Net@OpenHome@@V?$allocator@PAVNotifyHandler@SsdpListenerMulticast@Net@OpenHome@@@std@@@std@@@std@@QAEAAV01@ABV01@@Z 004455a0 f i libohNetCore:Discovery.obj
 0001:000445d0       ??1NotifyHandler@SsdpListenerMulticast@Net@OpenHome@@QAE@XZ 004455d0 f i libohNetCore:Discovery.obj
 0001:00044600       ??1Handler@SsdpListenerMulticast@Net@OpenHome@@QAE@XZ 00445600 f i libohNetCore:Discovery.obj
 0001:00044630       ??0?$_Iterator012@Urandom_access_iterator_tag@std@@PAVNotifyHandler@SsdpListenerMulticast@Net@OpenHome@@HPBQAV3456@ABQAV3456@U_Iterator_base12@2@@std@@QAE@ABU01@@Z 00445630 f i libohNetCore:Discovery.obj
 0001:00044660       ??1?$_Iterator012@Urandom_access_iterator_tag@std@@PAVNotifyHandler@SsdpListenerMulticast@Net@OpenHome@@HPBQAV3456@ABQAV3456@U_Iterator_base12@2@@std@@QAE@XZ 00445660 f i libohNetCore:Discovery.obj
 0001:00044690       ??4?$_Vector_const_iterator@V?$_Vector_val@PAVNotifyHandler@SsdpListenerMulticast@Net@OpenHome@@V?$allocator@PAVNotifyHandler@SsdpListenerMulticast@Net@OpenHome@@@std@@@std@@@std@@QAEAAV01@ABV01@@Z 00445690 f i libohNetCore:Discovery.obj
 0001:000446d0       ??4?$_Iterator012@Urandom_access_iterator_tag@std@@PAVNotifyHandler@SsdpListenerMulticast@Net@OpenHome@@HPBQAV3456@ABQAV3456@U_Iterator_base12@2@@std@@QAEAAU01@ABU01@@Z 004456d0 f i libohNetCore:Discovery.obj
 0001:00044700       ??1?$_Vector_iterator@V?$_Vector_val@PAVMsearchHandler@SsdpListenerMulticast@Net@OpenHome@@V?$allocator@PAVMsearchHandler@SsdpListenerMulticast@Net@OpenHome@@@std@@@std@@@std@@QAE@XZ 00445700 f i libohNetCore:Discovery.obj
 0001:00044730       ??_GMsearchHandler@SsdpListenerMulticast@Net@OpenHome@@QAEPAXI@Z 00445730 f i libohNetCore:Discovery.obj
 0001:00044770       ??0?$_Vector_const_iterator@V?$_Vector_val@PAVMsearchHandler@SsdpListenerMulticast@Net@OpenHome@@V?$allocator@PAVMsearchHandler@SsdpListenerMulticast@Net@OpenHome@@@std@@@std@@@std@@QAE@ABV01@@Z 00445770 f i libohNetCore:Discovery.obj
 0001:000447b0       ??1?$_Vector_const_iterator@V?$_Vector_val@PAVMsearchHandler@SsdpListenerMulticast@Net@OpenHome@@V?$allocator@PAVMsearchHandler@SsdpListenerMulticast@Net@OpenHome@@@std@@@std@@@std@@QAE@XZ 004457b0 f i libohNetCore:Discovery.obj
 0001:000447e0       ??4?$_Vector_iterator@V?$_Vector_val@PAVMsearchHandler@SsdpListenerMulticast@Net@OpenHome@@V?$allocator@PAVMsearchHandler@SsdpListenerMulticast@Net@OpenHome@@@std@@@std@@@std@@QAEAAV01@ABV01@@Z 004457e0 f i libohNetCore:Discovery.obj
 0001:00044810       ??1MsearchHandler@SsdpListenerMulticast@Net@OpenHome@@QAE@XZ 00445810 f i libohNetCore:Discovery.obj
 0001:00044840       ??0?$_Iterator012@Urandom_access_iterator_tag@std@@PAVMsearchHandler@SsdpListenerMulticast@Net@OpenHome@@HPBQAV3456@ABQAV3456@U_Iterator_base12@2@@std@@QAE@ABU01@@Z 00445840 f i libohNetCore:Discovery.obj
 0001:00044870       ??1?$_Iterator012@Urandom_access_iterator_tag@std@@PAVMsearchHandler@SsdpListenerMulticast@Net@OpenHome@@HPBQAV3456@ABQAV3456@U_Iterator_base12@2@@std@@QAE@XZ 00445870 f i libohNetCore:Discovery.obj
 0001:000448a0       ??4?$_Vector_const_iterator@V?$_Vector_val@PAVMsearchHandler@SsdpListenerMulticast@Net@OpenHome@@V?$allocator@PAVMsearchHandler@SsdpListenerMulticast@Net@OpenHome@@@std@@@std@@@std@@QAEAAV01@ABV01@@Z 004458a0 f i libohNetCore:Discovery.obj
 0001:000448e0       ??4?$_Iterator012@Urandom_access_iterator_tag@std@@PAVMsearchHandler@SsdpListenerMulticast@Net@OpenHome@@HPBQAV3456@ABQAV3456@U_Iterator_base12@2@@std@@QAEAAU01@ABU01@@Z 004458e0 f i libohNetCore:Discovery.obj
 0001:00044910       ??_GSsdpListenerUnicast@Net@OpenHome@@UAEPAXI@Z 00445910 f i libohNetCore:Discovery.obj
 0001:00044910       ??_ESsdpListenerUnicast@Net@OpenHome@@UAEPAXI@Z 00445910 f i libohNetCore:Discovery.obj
 0001:00044950       ??1UdpWriter@OpenHome@@UAE@XZ 00445950 f i libohNetCore:Discovery.obj
 0001:00044980       ??1UdpReader@OpenHome@@UAE@XZ 00445980 f i libohNetCore:Discovery.obj
 0001:000449b0       ??1?$Sws@$0EAA@@OpenHome@@UAE@XZ 004459b0 f i libohNetCore:Discovery.obj
 0001:000449e0       ??1SsdpWriterMsearchRequest@Net@OpenHome@@QAE@XZ 004459e0 f i libohNetCore:Discovery.obj
 0001:00044a10       ??1ReaderHttpResponse@OpenHome@@QAE@XZ 00445a10 f i libohNetCore:Discovery.obj
 0001:00044a90       ??0SsdpHeaderExt@Net@OpenHome@@QAE@XZ 00445a90 f i libohNetCore:Discovery.obj
 0001:00044ac0       ??1SsdpHeaderExt@Net@OpenHome@@UAE@XZ 00445ac0 f i libohNetCore:Discovery.obj
 0001:00044af0       ??1Swx@OpenHome@@UAE@XZ    00445af0 f i libohNetCore:Discovery.obj
 0001:00044b60       ??1WriterHttpRequest@OpenHome@@UAE@XZ 00445b60 f i libohNetCore:Discovery.obj
 0001:00044bd0       ??1IWriterHttpMethod@OpenHome@@UAE@XZ 00445bd0 f i libohNetCore:Discovery.obj
 0001:00044bf0       ??_EIWriterHttpMethod@OpenHome@@UAEPAXI@Z 00445bf0 f i libohNetCore:Discovery.obj
 0001:00044bf0       ??_GIWriterHttpMethod@OpenHome@@UAEPAXI@Z 00445bf0 f i libohNetCore:Discovery.obj
 0001:00044c30       ??1StatusWritable@ReaderHttpResponse@OpenHome@@QAE@XZ 00445c30 f i libohNetCore:Discovery.obj
 0001:00044c60       ??1?$Bws@$0GE@@OpenHome@@UAE@XZ 00445c60 f i libohNetCore:Discovery.obj
 0001:00044c90       ??_GSsdpHeaderExt@Net@OpenHome@@UAEPAXI@Z 00445c90 f i libohNetCore:Discovery.obj
 0001:00044c90       ??_ESsdpHeaderExt@Net@OpenHome@@UAEPAXI@Z 00445c90 f i libohNetCore:Discovery.obj
 0001:00044cd0       ??1WriterHttpHeader@OpenHome@@UAE@XZ 00445cd0 f i libohNetCore:Discovery.obj
 0001:00044d40       ??1IWriterHttpHeader@OpenHome@@UAE@XZ 00445d40 f i libohNetCore:Discovery.obj
 0001:00044d70       ??_GIWriterHttpHeader@OpenHome@@UAEPAXI@Z 00445d70 f i libohNetCore:Discovery.obj
 0001:00044d70       ??_EIWriterHttpHeader@OpenHome@@UAEPAXI@Z 00445d70 f i libohNetCore:Discovery.obj
 0001:00044db0       ??1HttpStatus@OpenHome@@QAE@XZ 00445db0 f i libohNetCore:Discovery.obj
 0001:00044de0       ??1WriterHttpField@OpenHome@@UAE@XZ 00445de0 f i libohNetCore:Discovery.obj
 0001:00044e10       ??1?$vector@PAVIHttpHeader@OpenHome@@V?$allocator@PAVIHttpHeader@OpenHome@@@std@@@std@@QAE@XZ 00445e10 f i libohNetCore:Discovery.obj
 0001:00044e80       ??1?$vector@PBVBrx@OpenHome@@V?$allocator@PBVBrx@OpenHome@@@std@@@std@@QAE@XZ 00445e80 f i libohNetCore:Discovery.obj
 0001:00044ef0       ??0?$Sws@$0EAA@@OpenHome@@QAE@AAVIWriter@1@@Z 00445ef0 f i libohNetCore:Discovery.obj
 0001:00044f40       ?Ptr@?$Sws@$0EAA@@OpenHome@@EAEPAEXZ 00445f40 f i libohNetCore:Discovery.obj
 0001:00044f60       ??0?$vector@PAVNotifyHandler@SsdpListenerMulticast@Net@OpenHome@@V?$allocator@PAVNotifyHandler@SsdpListenerMulticast@Net@OpenHome@@@std@@@std@@QAE@XZ 00445f60 f i libohNetCore:Discovery.obj
 0001:00044fa0       ??1?$vector@PAVNotifyHandler@SsdpListenerMulticast@Net@OpenHome@@V?$allocator@PAVNotifyHandler@SsdpListenerMulticast@Net@OpenHome@@@std@@@std@@QAE@XZ 00445fa0 f i libohNetCore:Discovery.obj
 0001:00045010       ?begin@?$vector@PAVNotifyHandler@SsdpListenerMulticast@Net@OpenHome@@V?$allocator@PAVNotifyHandler@SsdpListenerMulticast@Net@OpenHome@@@std@@@std@@QAE?AV?$_Vector_iterator@V?$_Vector_val@PAVNotifyHandler@SsdpListenerMulticast@Net@OpenHome@@V?$allocator@PAVNotifyHandler@SsdpListenerMulticast@Net@OpenHome@@@std@@@std@@@2@XZ 00446010 f i libohNetCore:Discovery.obj
 0001:00045060       ?end@?$vector@PAVNotifyHandler@SsdpListenerMulticast@Net@OpenHome@@V?$allocator@PAVNotifyHandler@SsdpListenerMulticast@Net@OpenHome@@@std@@@std@@QAE?AV?$_Vector_iterator@V?$_Vector_val@PAVNotifyHandler@SsdpListenerMulticast@Net@OpenHome@@V?$allocator@PAVNotifyHandler@SsdpListenerMulticast@Net@OpenHome@@@std@@@std@@@2@XZ 00446060 f i libohNetCore:Discovery.obj
 0001:000450b0       ?size@?$vector@PAVNotifyHandler@SsdpListenerMulticast@Net@OpenHome@@V?$allocator@PAVNotifyHandler@SsdpListenerMulticast@Net@OpenHome@@@std@@@std@@QBEIXZ 004460b0 f i libohNetCore:Discovery.obj
 0001:000450e0       ??A?$vector@PAVNotifyHandler@SsdpListenerMulticast@Net@OpenHome@@V?$allocator@PAVNotifyHandler@SsdpListenerMulticast@Net@OpenHome@@@std@@@std@@QAEAAPAVNotifyHandler@SsdpListenerMulticast@Net@OpenHome@@I@Z 004460e0 f i libohNetCore:Discovery.obj
 0001:00045180       ?push_back@?$vector@PAVNotifyHandler@SsdpListenerMulticast@Net@OpenHome@@V?$allocator@PAVNotifyHandler@SsdpListenerMulticast@Net@OpenHome@@@std@@@std@@QAEXABQAVNotifyHandler@SsdpListenerMulticast@Net@OpenHome@@@Z 00446180 f i libohNetCore:Discovery.obj
 0001:00045290       ?erase@?$vector@PAVNotifyHandler@SsdpListenerMulticast@Net@OpenHome@@V?$allocator@PAVNotifyHandler@SsdpListenerMulticast@Net@OpenHome@@@std@@@std@@QAE?AV?$_Vector_iterator@V?$_Vector_val@PAVNotifyHandler@SsdpListenerMulticast@Net@OpenHome@@V?$allocator@PAVNotifyHandler@SsdpListenerMulticast@Net@OpenHome@@@std@@@std@@@2@V?$_Vector_const_iterator@V?$_Vector_val@PAVNotifyHandler@SsdpListenerMulticast@Net@OpenHome@@V?$allocator@PAVNotifyHandler@SsdpListenerMulticast@Net@OpenHome@@@std@@@std@@@2@@Z 00446290 f i libohNetCore:Discovery.obj
 0001:000453c0       ??0?$vector@PAVMsearchHandler@SsdpListenerMulticast@Net@OpenHome@@V?$allocator@PAVMsearchHandler@SsdpListenerMulticast@Net@OpenHome@@@std@@@std@@QAE@XZ 004463c0 f i libohNetCore:Discovery.obj
 0001:00045400       ??1?$vector@PAVMsearchHandler@SsdpListenerMulticast@Net@OpenHome@@V?$allocator@PAVMsearchHandler@SsdpListenerMulticast@Net@OpenHome@@@std@@@std@@QAE@XZ 00446400 f i libohNetCore:Discovery.obj
 0001:00045470       ?begin@?$vector@PAVMsearchHandler@SsdpListenerMulticast@Net@OpenHome@@V?$allocator@PAVMsearchHandler@SsdpListenerMulticast@Net@OpenHome@@@std@@@std@@QAE?AV?$_Vector_iterator@V?$_Vector_val@PAVMsearchHandler@SsdpListenerMulticast@Net@OpenHome@@V?$allocator@PAVMsearchHandler@SsdpListenerMulticast@Net@OpenHome@@@std@@@std@@@2@XZ 00446470 f i libohNetCore:Discovery.obj
 0001:000454c0       ?end@?$vector@PAVMsearchHandler@SsdpListenerMulticast@Net@OpenHome@@V?$allocator@PAVMsearchHandler@SsdpListenerMulticast@Net@OpenHome@@@std@@@std@@QAE?AV?$_Vector_iterator@V?$_Vector_val@PAVMsearchHandler@SsdpListenerMulticast@Net@OpenHome@@V?$allocator@PAVMsearchHandler@SsdpListenerMulticast@Net@OpenHome@@@std@@@std@@@2@XZ 004464c0 f i libohNetCore:Discovery.obj
 0001:00045510       ?size@?$vector@PAVMsearchHandler@SsdpListenerMulticast@Net@OpenHome@@V?$allocator@PAVMsearchHandler@SsdpListenerMulticast@Net@OpenHome@@@std@@@std@@QBEIXZ 00446510 f i libohNetCore:Discovery.obj
 0001:00045540       ??A?$vector@PAVMsearchHandler@SsdpListenerMulticast@Net@OpenHome@@V?$allocator@PAVMsearchHandler@SsdpListenerMulticast@Net@OpenHome@@@std@@@std@@QAEAAPAVMsearchHandler@SsdpListenerMulticast@Net@OpenHome@@I@Z 00446540 f i libohNetCore:Discovery.obj
 0001:000455e0       ?push_back@?$vector@PAVMsearchHandler@SsdpListenerMulticast@Net@OpenHome@@V?$allocator@PAVMsearchHandler@SsdpListenerMulticast@Net@OpenHome@@@std@@@std@@QAEXABQAVMsearchHandler@SsdpListenerMulticast@Net@OpenHome@@@Z 004465e0 f i libohNetCore:Discovery.obj
 0001:000456f0       ?erase@?$vector@PAVMsearchHandler@SsdpListenerMulticast@Net@OpenHome@@V?$allocator@PAVMsearchHandler@SsdpListenerMulticast@Net@OpenHome@@@std@@@std@@QAE?AV?$_Vector_iterator@V?$_Vector_val@PAVMsearchHandler@SsdpListenerMulticast@Net@OpenHome@@V?$allocator@PAVMsearchHandler@SsdpListenerMulticast@Net@OpenHome@@@std@@@std@@@2@V?$_Vector_const_iterator@V?$_Vector_val@PAVMsearchHandler@SsdpListenerMulticast@Net@OpenHome@@V?$allocator@PAVMsearchHandler@SsdpListenerMulticast@Net@OpenHome@@@std@@@std@@@2@@Z 004466f0 f i libohNetCore:Discovery.obj
 0001:00045820       ??0?$Srs@$0EAA@@OpenHome@@QAE@AAVIReaderSource@1@@Z 00446820 f i libohNetCore:Discovery.obj
 0001:00045870       ?Ptr@?$Srs@$0EAA@@OpenHome@@EAEPAEXZ 00446870 f i libohNetCore:Discovery.obj
 0001:00045890       ??D?$_Vector_iterator@V?$_Vector_val@PAVNotifyHandler@SsdpListenerMulticast@Net@OpenHome@@V?$allocator@PAVNotifyHandler@SsdpListenerMulticast@Net@OpenHome@@@std@@@std@@@std@@QBEAAPAVNotifyHandler@SsdpListenerMulticast@Net@OpenHome@@XZ 00446890 f i libohNetCore:Discovery.obj
 0001:000458c0       ??E?$_Vector_iterator@V?$_Vector_val@PAVNotifyHandler@SsdpListenerMulticast@Net@OpenHome@@V?$allocator@PAVNotifyHandler@SsdpListenerMulticast@Net@OpenHome@@@std@@@std@@@std@@QAE?AV01@H@Z 004468c0 f i libohNetCore:Discovery.obj
 0001:00045990       ??9?$_Vector_const_iterator@V?$_Vector_val@PAVNotifyHandler@SsdpListenerMulticast@Net@OpenHome@@V?$allocator@PAVNotifyHandler@SsdpListenerMulticast@Net@OpenHome@@@std@@@std@@@std@@QBE_NABV01@@Z 00446990 f i libohNetCore:Discovery.obj
 0001:000459d0       ??D?$_Vector_iterator@V?$_Vector_val@PAVMsearchHandler@SsdpListenerMulticast@Net@OpenHome@@V?$allocator@PAVMsearchHandler@SsdpListenerMulticast@Net@OpenHome@@@std@@@std@@@std@@QBEAAPAVMsearchHandler@SsdpListenerMulticast@Net@OpenHome@@XZ 004469d0 f i libohNetCore:Discovery.obj
 0001:00045a00       ??E?$_Vector_iterator@V?$_Vector_val@PAVMsearchHandler@SsdpListenerMulticast@Net@OpenHome@@V?$allocator@PAVMsearchHandler@SsdpListenerMulticast@Net@OpenHome@@@std@@@std@@@std@@QAE?AV01@H@Z 00446a00 f i libohNetCore:Discovery.obj
 0001:00045ad0       ??9?$_Vector_const_iterator@V?$_Vector_val@PAVMsearchHandler@SsdpListenerMulticast@Net@OpenHome@@V?$allocator@PAVMsearchHandler@SsdpListenerMulticast@Net@OpenHome@@@std@@@std@@@std@@QBE_NABV01@@Z 00446ad0 f i libohNetCore:Discovery.obj
 0001:00045b10       ??_G?$Sws@$0EAA@@OpenHome@@UAEPAXI@Z 00446b10 f i libohNetCore:Discovery.obj
 0001:00045b10       ??_E?$Sws@$0EAA@@OpenHome@@UAEPAXI@Z 00446b10 f i libohNetCore:Discovery.obj
 0001:00045b50       ??_E?$Srs@$0EAA@@OpenHome@@UAEPAXI@Z 00446b50 f i libohNetCore:Discovery.obj
 0001:00045b50       ??_G?$Srs@$0EAA@@OpenHome@@UAEPAXI@Z 00446b50 f i libohNetCore:Discovery.obj
 0001:00045b90       ??0?$_Vector_iterator@V?$_Vector_val@PAVNotifyHandler@SsdpListenerMulticast@Net@OpenHome@@V?$allocator@PAVNotifyHandler@SsdpListenerMulticast@Net@OpenHome@@@std@@@std@@@std@@QAE@ABV01@@Z 00446b90 f i libohNetCore:Discovery.obj
 0001:00045bc0       ??0?$_Vector_iterator@V?$_Vector_val@PAVMsearchHandler@SsdpListenerMulticast@Net@OpenHome@@V?$allocator@PAVMsearchHandler@SsdpListenerMulticast@Net@OpenHome@@@std@@@std@@@std@@QAE@ABV01@@Z 00446bc0 f i libohNetCore:Discovery.obj
 0001:00045bf0       ?_Tidy@?$vector@PAVIHttpHeader@OpenHome@@V?$allocator@PAVIHttpHeader@OpenHome@@@std@@@std@@IAEXXZ 00446bf0 f i libohNetCore:Discovery.obj
 0001:00045c80       ??1?$_Vector_val@PAVIHttpHeader@OpenHome@@V?$allocator@PAVIHttpHeader@OpenHome@@@std@@@std@@QAE@XZ 00446c80 f i libohNetCore:Discovery.obj
 0001:00045d60       ?_Tidy@?$vector@PBVBrx@OpenHome@@V?$allocator@PBVBrx@OpenHome@@@std@@@std@@IAEXXZ 00446d60 f i libohNetCore:Discovery.obj
 0001:00045df0       ??1?$_Vector_val@PBVBrx@OpenHome@@V?$allocator@PBVBrx@OpenHome@@@std@@@std@@QAE@XZ 00446df0 f i libohNetCore:Discovery.obj
 0001:00045ed0       ?_Make_iter@?$vector@PAVNotifyHandler@SsdpListenerMulticast@Net@OpenHome@@V?$allocator@PAVNotifyHandler@SsdpListenerMulticast@Net@OpenHome@@@std@@@std@@QBE?AV?$_Vector_iterator@V?$_Vector_val@PAVNotifyHandler@SsdpListenerMulticast@Net@OpenHome@@V?$allocator@PAVNotifyHandler@SsdpListenerMulticast@Net@OpenHome@@@std@@@std@@@2@V?$_Vector_const_iterator@V?$_Vector_val@PAVNotifyHandler@SsdpListenerMulticast@Net@OpenHome@@V?$allocator@PAVNotifyHandler@SsdpListenerMulticast@Net@OpenHome@@@std@@@std@@@2@@Z 00446ed0 f i libohNetCore:Discovery.obj
 0001:00045f60       ?_Destroy@?$vector@PAVNotifyHandler@SsdpListenerMulticast@Net@OpenHome@@V?$allocator@PAVNotifyHandler@SsdpListenerMulticast@Net@OpenHome@@@std@@@std@@IAEXPAPAVNotifyHandler@SsdpListenerMulticast@Net@OpenHome@@0@Z 00446f60 f i libohNetCore:Discovery.obj
 0001:00045fa0       ?_Inside@?$vector@PAVNotifyHandler@SsdpListenerMulticast@Net@OpenHome@@V?$allocator@PAVNotifyHandler@SsdpListenerMulticast@Net@OpenHome@@@std@@@std@@IBE_NPBQAVNotifyHandler@SsdpListenerMulticast@Net@OpenHome@@@Z 00446fa0 f i libohNetCore:Discovery.obj
 0001:00045ff0       ?_Reserve@?$vector@PAVNotifyHandler@SsdpListenerMulticast@Net@OpenHome@@V?$allocator@PAVNotifyHandler@SsdpListenerMulticast@Net@OpenHome@@@std@@@std@@IAEXI@Z 00446ff0 f i libohNetCore:Discovery.obj
 0001:00046070       ?_Tidy@?$vector@PAVNotifyHandler@SsdpListenerMulticast@Net@OpenHome@@V?$allocator@PAVNotifyHandler@SsdpListenerMulticast@Net@OpenHome@@@std@@@std@@IAEXXZ 00447070 f i libohNetCore:Discovery.obj
 0001:00046100       ?_Orphan_range@?$vector@PAVNotifyHandler@SsdpListenerMulticast@Net@OpenHome@@V?$allocator@PAVNotifyHandler@SsdpListenerMulticast@Net@OpenHome@@@std@@@std@@IBEXPAPAVNotifyHandler@SsdpListenerMulticast@Net@OpenHome@@0@Z 00447100 f i libohNetCore:Discovery.obj
 0001:00046210       ??0?$_Vector_val@PAVNotifyHandler@SsdpListenerMulticast@Net@OpenHome@@V?$allocator@PAVNotifyHandler@SsdpListenerMulticast@Net@OpenHome@@@std@@@std@@QAE@V?$allocator@PAVNotifyHandler@SsdpListenerMulticast@Net@OpenHome@@@1@@Z 00447210 f i libohNetCore:Discovery.obj
 0001:00046330       ??1?$_Vector_val@PAVNotifyHandler@SsdpListenerMulticast@Net@OpenHome@@V?$allocator@PAVNotifyHandler@SsdpListenerMulticast@Net@OpenHome@@@std@@@std@@QAE@XZ 00447330 f i libohNetCore:Discovery.obj
 0001:00046410       ??0?$allocator@PAVNotifyHandler@SsdpListenerMulticast@Net@OpenHome@@@std@@QAE@XZ 00447410 f i libohNetCore:Discovery.obj
 0001:00046430       ?_Make_iter@?$vector@PAVMsearchHandler@SsdpListenerMulticast@Net@OpenHome@@V?$allocator@PAVMsearchHandler@SsdpListenerMulticast@Net@OpenHome@@@std@@@std@@QBE?AV?$_Vector_iterator@V?$_Vector_val@PAVMsearchHandler@SsdpListenerMulticast@Net@OpenHome@@V?$allocator@PAVMsearchHandler@SsdpListenerMulticast@Net@OpenHome@@@std@@@std@@@2@V?$_Vector_const_iterator@V?$_Vector_val@PAVMsearchHandler@SsdpListenerMulticast@Net@OpenHome@@V?$allocator@PAVMsearchHandler@SsdpListenerMulticast@Net@OpenHome@@@std@@@std@@@2@@Z 00447430 f i libohNetCore:Discovery.obj
 0001:000464c0       ?_Destroy@?$vector@PAVMsearchHandler@SsdpListenerMulticast@Net@OpenHome@@V?$allocator@PAVMsearchHandler@SsdpListenerMulticast@Net@OpenHome@@@std@@@std@@IAEXPAPAVMsearchHandler@SsdpListenerMulticast@Net@OpenHome@@0@Z 004474c0 f i libohNetCore:Discovery.obj
 0001:00046500       ?_Inside@?$vector@PAVMsearchHandler@SsdpListenerMulticast@Net@OpenHome@@V?$allocator@PAVMsearchHandler@SsdpListenerMulticast@Net@OpenHome@@@std@@@std@@IBE_NPBQAVMsearchHandler@SsdpListenerMulticast@Net@OpenHome@@@Z 00447500 f i libohNetCore:Discovery.obj
 0001:00046550       ?_Reserve@?$vector@PAVMsearchHandler@SsdpListenerMulticast@Net@OpenHome@@V?$allocator@PAVMsearchHandler@SsdpListenerMulticast@Net@OpenHome@@@std@@@std@@IAEXI@Z 00447550 f i libohNetCore:Discovery.obj
 0001:000465d0       ?_Tidy@?$vector@PAVMsearchHandler@SsdpListenerMulticast@Net@OpenHome@@V?$allocator@PAVMsearchHandler@SsdpListenerMulticast@Net@OpenHome@@@std@@@std@@IAEXXZ 004475d0 f i libohNetCore:Discovery.obj
 0001:00046660       ?_Orphan_range@?$vector@PAVMsearchHandler@SsdpListenerMulticast@Net@OpenHome@@V?$allocator@PAVMsearchHandler@SsdpListenerMulticast@Net@OpenHome@@@std@@@std@@IBEXPAPAVMsearchHandler@SsdpListenerMulticast@Net@OpenHome@@0@Z 00447660 f i libohNetCore:Discovery.obj
 0001:00046770       ??0?$_Vector_val@PAVMsearchHandler@SsdpListenerMulticast@Net@OpenHome@@V?$allocator@PAVMsearchHandler@SsdpListenerMulticast@Net@OpenHome@@@std@@@std@@QAE@V?$allocator@PAVMsearchHandler@SsdpListenerMulticast@Net@OpenHome@@@1@@Z 00447770 f i libohNetCore:Discovery.obj
 0001:00046890       ??1?$_Vector_val@PAVMsearchHandler@SsdpListenerMulticast@Net@OpenHome@@V?$allocator@PAVMsearchHandler@SsdpListenerMulticast@Net@OpenHome@@@std@@@std@@QAE@XZ 00447890 f i libohNetCore:Discovery.obj
 0001:00046970       ??0?$allocator@PAVMsearchHandler@SsdpListenerMulticast@Net@OpenHome@@@std@@QAE@XZ 00447970 f i libohNetCore:Discovery.obj
 0001:00046990       ??0?$_Vector_iterator@V?$_Vector_val@PAVNotifyHandler@SsdpListenerMulticast@Net@OpenHome@@V?$allocator@PAVNotifyHandler@SsdpListenerMulticast@Net@OpenHome@@@std@@@std@@@std@@QAE@PAPAVNotifyHandler@SsdpListenerMulticast@Net@OpenHome@@PBU_Container_base12@1@@Z 00447990 f i libohNetCore:Discovery.obj
 0001:000469d0       ??E?$_Vector_iterator@V?$_Vector_val@PAVNotifyHandler@SsdpListenerMulticast@Net@OpenHome@@V?$allocator@PAVNotifyHandler@SsdpListenerMulticast@Net@OpenHome@@@std@@@std@@@std@@QAEAAV01@XZ 004479d0 f i libohNetCore:Discovery.obj
 0001:00046a00       ??D?$_Vector_const_iterator@V?$_Vector_val@PAVNotifyHandler@SsdpListenerMulticast@Net@OpenHome@@V?$allocator@PAVNotifyHandler@SsdpListenerMulticast@Net@OpenHome@@@std@@@std@@@std@@QBEABQAVNotifyHandler@SsdpListenerMulticast@Net@OpenHome@@XZ 00447a00 f i libohNetCore:Discovery.obj
 0001:00046ac0       ??8?$_Vector_const_iterator@V?$_Vector_val@PAVNotifyHandler@SsdpListenerMulticast@Net@OpenHome@@V?$allocator@PAVNotifyHandler@SsdpListenerMulticast@Net@OpenHome@@@std@@@std@@@std@@QBE_NABV01@@Z 00447ac0 f i libohNetCore:Discovery.obj
 0001:00046b00       ??0?$_Vector_iterator@V?$_Vector_val@PAVMsearchHandler@SsdpListenerMulticast@Net@OpenHome@@V?$allocator@PAVMsearchHandler@SsdpListenerMulticast@Net@OpenHome@@@std@@@std@@@std@@QAE@PAPAVMsearchHandler@SsdpListenerMulticast@Net@OpenHome@@PBU_Container_base12@1@@Z 00447b00 f i libohNetCore:Discovery.obj
 0001:00046b40       ??E?$_Vector_iterator@V?$_Vector_val@PAVMsearchHandler@SsdpListenerMulticast@Net@OpenHome@@V?$allocator@PAVMsearchHandler@SsdpListenerMulticast@Net@OpenHome@@@std@@@std@@@std@@QAEAAV01@XZ 00447b40 f i libohNetCore:Discovery.obj
 0001:00046b70       ??D?$_Vector_const_iterator@V?$_Vector_val@PAVMsearchHandler@SsdpListenerMulticast@Net@OpenHome@@V?$allocator@PAVMsearchHandler@SsdpListenerMulticast@Net@OpenHome@@@std@@@std@@@std@@QBEABQAVMsearchHandler@SsdpListenerMulticast@Net@OpenHome@@XZ 00447b70 f i libohNetCore:Discovery.obj
 0001:00046c30       ??8?$_Vector_const_iterator@V?$_Vector_val@PAVMsearchHandler@SsdpListenerMulticast@Net@OpenHome@@V?$allocator@PAVMsearchHandler@SsdpListenerMulticast@Net@OpenHome@@@std@@@std@@@std@@QBE_NABV01@@Z 00447c30 f i libohNetCore:Discovery.obj
 0001:00046c70       ?_Destroy@?$vector@PAVIHttpHeader@OpenHome@@V?$allocator@PAVIHttpHeader@OpenHome@@@std@@@std@@IAEXPAPAVIHttpHeader@OpenHome@@0@Z 00447c70 f i libohNetCore:Discovery.obj
 0001:00046cb0       ?deallocate@?$allocator@PAVIHttpHeader@OpenHome@@@std@@QAEXPAPAVIHttpHeader@OpenHome@@I@Z 00447cb0 f i libohNetCore:Discovery.obj
 0001:00046ce0       ?_Destroy@?$vector@PBVBrx@OpenHome@@V?$allocator@PBVBrx@OpenHome@@@std@@@std@@IAEXPAPBVBrx@OpenHome@@0@Z 00447ce0 f i libohNetCore:Discovery.obj
 0001:00046d20       ?deallocate@?$allocator@PBVBrx@OpenHome@@@std@@QAEXPAPBVBrx@OpenHome@@I@Z 00447d20 f i libohNetCore:Discovery.obj
 0001:00046d50       ?reserve@?$vector@PAVNotifyHandler@SsdpListenerMulticast@Net@OpenHome@@V?$allocator@PAVNotifyHandler@SsdpListenerMulticast@Net@OpenHome@@@std@@@std@@QAEXI@Z 00447d50 f i libohNetCore:Discovery.obj
 0001:00046ec0       ?capacity@?$vector@PAVNotifyHandler@SsdpListenerMulticast@Net@OpenHome@@V?$allocator@PAVNotifyHandler@SsdpListenerMulticast@Net@OpenHome@@@std@@@std@@QBEIXZ 00447ec0 f i libohNetCore:Discovery.obj
 0001:00046ef0       ?max_size@?$vector@PAVNotifyHandler@SsdpListenerMulticast@Net@OpenHome@@V?$allocator@PAVNotifyHandler@SsdpListenerMulticast@Net@OpenHome@@@std@@@std@@QBEIXZ 00447ef0 f i libohNetCore:Discovery.obj
 0001:00046f20       ?_Grow_to@?$vector@PAVNotifyHandler@SsdpListenerMulticast@Net@OpenHome@@V?$allocator@PAVNotifyHandler@SsdpListenerMulticast@Net@OpenHome@@@std@@@std@@IBEII@Z 00447f20 f i libohNetCore:Discovery.obj
 0001:00046fa0       ?_Xlen@?$vector@PAVNotifyHandler@SsdpListenerMulticast@Net@OpenHome@@V?$allocator@PAVNotifyHandler@SsdpListenerMulticast@Net@OpenHome@@@std@@@std@@IBEXXZ 00447fa0 f i libohNetCore:Discovery.obj
 0001:00046fd0       ??0?$allocator@PAVNotifyHandler@SsdpListenerMulticast@Net@OpenHome@@@std@@QAE@ABV01@@Z 00447fd0 f i libohNetCore:Discovery.obj
 0001:00046ff0       ?deallocate@?$allocator@PAVNotifyHandler@SsdpListenerMulticast@Net@OpenHome@@@std@@QAEXPAPAVNotifyHandler@SsdpListenerMulticast@Net@OpenHome@@I@Z 00447ff0 f i libohNetCore:Discovery.obj
 0001:00047020       ?reserve@?$vector@PAVMsearchHandler@SsdpListenerMulticast@Net@OpenHome@@V?$allocator@PAVMsearchHandler@SsdpListenerMulticast@Net@OpenHome@@@std@@@std@@QAEXI@Z 00448020 f i libohNetCore:Discovery.obj
 0001:00047190       ?capacity@?$vector@PAVMsearchHandler@SsdpListenerMulticast@Net@OpenHome@@V?$allocator@PAVMsearchHandler@SsdpListenerMulticast@Net@OpenHome@@@std@@@std@@QBEIXZ 00448190 f i libohNetCore:Discovery.obj
 0001:000471c0       ?max_size@?$vector@PAVMsearchHandler@SsdpListenerMulticast@Net@OpenHome@@V?$allocator@PAVMsearchHandler@SsdpListenerMulticast@Net@OpenHome@@@std@@@std@@QBEIXZ 004481c0 f i libohNetCore:Discovery.obj
 0001:000471f0       ?_Grow_to@?$vector@PAVMsearchHandler@SsdpListenerMulticast@Net@OpenHome@@V?$allocator@PAVMsearchHandler@SsdpListenerMulticast@Net@OpenHome@@@std@@@std@@IBEII@Z 004481f0 f i libohNetCore:Discovery.obj
 0001:00047270       ?_Xlen@?$vector@PAVMsearchHandler@SsdpListenerMulticast@Net@OpenHome@@V?$allocator@PAVMsearchHandler@SsdpListenerMulticast@Net@OpenHome@@@std@@@std@@IBEXXZ 00448270 f i libohNetCore:Discovery.obj
 0001:000472a0       ??0?$allocator@PAVMsearchHandler@SsdpListenerMulticast@Net@OpenHome@@@std@@QAE@ABV01@@Z 004482a0 f i libohNetCore:Discovery.obj
 0001:000472c0       ?deallocate@?$allocator@PAVMsearchHandler@SsdpListenerMulticast@Net@OpenHome@@@std@@QAEXPAPAVMsearchHandler@SsdpListenerMulticast@Net@OpenHome@@I@Z 004482c0 f i libohNetCore:Discovery.obj
 0001:000472f0       ??0?$_Vector_const_iterator@V?$_Vector_val@PAVNotifyHandler@SsdpListenerMulticast@Net@OpenHome@@V?$allocator@PAVNotifyHandler@SsdpListenerMulticast@Net@OpenHome@@@std@@@std@@@std@@QAE@PAPAVNotifyHandler@SsdpListenerMulticast@Net@OpenHome@@PBU_Container_base12@1@@Z 004482f0 f i libohNetCore:Discovery.obj
 0001:00047370       ??E?$_Vector_const_iterator@V?$_Vector_val@PAVNotifyHandler@SsdpListenerMulticast@Net@OpenHome@@V?$allocator@PAVNotifyHandler@SsdpListenerMulticast@Net@OpenHome@@@std@@@std@@@std@@QAEAAV01@XZ 00448370 f i libohNetCore:Discovery.obj
 0001:00047420       ?_Compat@?$_Vector_const_iterator@V?$_Vector_val@PAVNotifyHandler@SsdpListenerMulticast@Net@OpenHome@@V?$allocator@PAVNotifyHandler@SsdpListenerMulticast@Net@OpenHome@@@std@@@std@@@std@@QBEXABV12@@Z 00448420 f i libohNetCore:Discovery.obj
 0001:000474d0       ??0?$_Vector_const_iterator@V?$_Vector_val@PAVMsearchHandler@SsdpListenerMulticast@Net@OpenHome@@V?$allocator@PAVMsearchHandler@SsdpListenerMulticast@Net@OpenHome@@@std@@@std@@@std@@QAE@PAPAVMsearchHandler@SsdpListenerMulticast@Net@OpenHome@@PBU_Container_base12@1@@Z 004484d0 f i libohNetCore:Discovery.obj
 0001:00047550       ??E?$_Vector_const_iterator@V?$_Vector_val@PAVMsearchHandler@SsdpListenerMulticast@Net@OpenHome@@V?$allocator@PAVMsearchHandler@SsdpListenerMulticast@Net@OpenHome@@@std@@@std@@@std@@QAEAAV01@XZ 00448550 f i libohNetCore:Discovery.obj
 0001:00047600       ?_Compat@?$_Vector_const_iterator@V?$_Vector_val@PAVMsearchHandler@SsdpListenerMulticast@Net@OpenHome@@V?$allocator@PAVMsearchHandler@SsdpListenerMulticast@Net@OpenHome@@@std@@@std@@@std@@QBEXABV12@@Z 00448600 f i libohNetCore:Discovery.obj
 0001:000476b0       ??0?$_Iterator012@Urandom_access_iterator_tag@std@@PAVNotifyHandler@SsdpListenerMulticast@Net@OpenHome@@HPBQAV3456@ABQAV3456@U_Iterator_base12@2@@std@@QAE@XZ 004486b0 f i libohNetCore:Discovery.obj
 0001:000476e0       ??0?$_Iterator012@Urandom_access_iterator_tag@std@@PAVMsearchHandler@SsdpListenerMulticast@Net@OpenHome@@HPBQAV3456@ABQAV3456@U_Iterator_base12@2@@std@@QAE@XZ 004486e0 f i libohNetCore:Discovery.obj
 0001:00047710       ?allocate@?$allocator@PAVNotifyHandler@SsdpListenerMulticast@Net@OpenHome@@@std@@QAEPAPAVNotifyHandler@SsdpListenerMulticast@Net@OpenHome@@I@Z 00448710 f i libohNetCore:Discovery.obj
 0001:00047740       ?max_size@?$allocator@PAVNotifyHandler@SsdpListenerMulticast@Net@OpenHome@@@std@@QBEIXZ 00448740 f i libohNetCore:Discovery.obj
 0001:00047790       ?allocate@?$allocator@PAVMsearchHandler@SsdpListenerMulticast@Net@OpenHome@@@std@@QAEPAPAVMsearchHandler@SsdpListenerMulticast@Net@OpenHome@@I@Z 00448790 f i libohNetCore:Discovery.obj
 0001:000477c0       ?max_size@?$allocator@PAVMsearchHandler@SsdpListenerMulticast@Net@OpenHome@@@std@@QBEIXZ 004487c0 f i libohNetCore:Discovery.obj
 0001:00047810       ??0?$Bws@$0DOI@@OpenHome@@QAE@XZ 00448810 f i libohNetCore:Discovery.obj
 0001:00047850       ?Ptr@?$Bws@$0DOI@@OpenHome@@UBEPBEXZ 00448850 f i libohNetCore:Discovery.obj
 0001:00047870       ??0?$Bws@$0EA@@OpenHome@@QAE@XZ 00448870 f i libohNetCore:Discovery.obj
 0001:000478b0       ?Ptr@?$Bws@$0EA@@OpenHome@@UBEPBEXZ 004488b0 f i libohNetCore:Discovery.obj
 0001:000478d0       ??$addressof@QAVNotifyHandler@SsdpListenerMulticast@Net@OpenHome@@@std@@YGPBQAVNotifyHandler@SsdpListenerMulticast@Net@OpenHome@@ABQAV1234@@Z 004488d0 f i libohNetCore:Discovery.obj
 0001:000478e0       ??$_Cons_val@V?$allocator@PAVNotifyHandler@SsdpListenerMulticast@Net@OpenHome@@@std@@PAVNotifyHandler@SsdpListenerMulticast@Net@OpenHome@@AAPAV3456@@std@@YGXAAV?$allocator@PAVNotifyHandler@SsdpListenerMulticast@Net@OpenHome@@@0@PAPAVNotifyHandler@SsdpListenerMulticast@Net@OpenHome@@AAPAV2345@@Z 004488e0 f i libohNetCore:Discovery.obj
 0001:00047910       ??$_Cons_val@V?$allocator@PAVNotifyHandler@SsdpListenerMulticast@Net@OpenHome@@@std@@PAVNotifyHandler@SsdpListenerMulticast@Net@OpenHome@@ABQAV3456@@std@@YGXAAV?$allocator@PAVNotifyHandler@SsdpListenerMulticast@Net@OpenHome@@@0@PAPAVNotifyHandler@SsdpListenerMulticast@Net@OpenHome@@ABQAV2345@@Z 00448910 f i libohNetCore:Discovery.obj
 0001:00047940       ??$_Move@PAPAVNotifyHandler@SsdpListenerMulticast@Net@OpenHome@@PAPAV1234@@std@@YGPAPAVNotifyHandler@SsdpListenerMulticast@Net@OpenHome@@PAPAV1234@00@Z 00448940 f i libohNetCore:Discovery.obj
 0001:00047990       ??$addressof@QAVMsearchHandler@SsdpListenerMulticast@Net@OpenHome@@@std@@YGPBQAVMsearchHandler@SsdpListenerMulticast@Net@OpenHome@@ABQAV1234@@Z 00448990 f i libohNetCore:Discovery.obj
 0001:000479a0       ??$_Cons_val@V?$allocator@PAVMsearchHandler@SsdpListenerMulticast@Net@OpenHome@@@std@@PAVMsearchHandler@SsdpListenerMulticast@Net@OpenHome@@AAPAV3456@@std@@YGXAAV?$allocator@PAVMsearchHandler@SsdpListenerMulticast@Net@OpenHome@@@0@PAPAVMsearchHandler@SsdpListenerMulticast@Net@OpenHome@@AAPAV2345@@Z 004489a0 f i libohNetCore:Discovery.obj
 0001:000479d0       ??$_Cons_val@V?$allocator@PAVMsearchHandler@SsdpListenerMulticast@Net@OpenHome@@@std@@PAVMsearchHandler@SsdpListenerMulticast@Net@OpenHome@@ABQAV3456@@std@@YGXAAV?$allocator@PAVMsearchHandler@SsdpListenerMulticast@Net@OpenHome@@@0@PAPAVMsearchHandler@SsdpListenerMulticast@Net@OpenHome@@ABQAV2345@@Z 004489d0 f i libohNetCore:Discovery.obj
 0001:00047a00       ??$_Move@PAPAVMsearchHandler@SsdpListenerMulticast@Net@OpenHome@@PAPAV1234@@std@@YGPAPAVMsearchHandler@SsdpListenerMulticast@Net@OpenHome@@PAPAV1234@00@Z 00448a00 f i libohNetCore:Discovery.obj
 0001:00047a50       ??$?0PAVIHttpHeader@OpenHome@@@?$allocator@U_Container_proxy@std@@@std@@QAE@ABV?$allocator@PAVIHttpHeader@OpenHome@@@1@@Z 00448a50 f i libohNetCore:Discovery.obj
 0001:00047a70       ??$?0PBVBrx@OpenHome@@@?$allocator@U_Container_proxy@std@@@std@@QAE@ABV?$allocator@PBVBrx@OpenHome@@@1@@Z 00448a70 f i libohNetCore:Discovery.obj
 0001:00047a90       ??$_Destroy_range@V?$allocator@PAVNotifyHandler@SsdpListenerMulticast@Net@OpenHome@@@std@@@std@@YGXPAPAVNotifyHandler@SsdpListenerMulticast@Net@OpenHome@@0AAV?$allocator@PAVNotifyHandler@SsdpListenerMulticast@Net@OpenHome@@@0@@Z 00448a90 f i libohNetCore:Discovery.obj
 0001:00047ae0       ??$?0PAVNotifyHandler@SsdpListenerMulticast@Net@OpenHome@@@?$allocator@U_Container_proxy@std@@@std@@QAE@ABV?$allocator@PAVNotifyHandler@SsdpListenerMulticast@Net@OpenHome@@@1@@Z 00448ae0 f i libohNetCore:Discovery.obj
 0001:00047b00       ??$_Destroy_range@V?$allocator@PAVMsearchHandler@SsdpListenerMulticast@Net@OpenHome@@@std@@@std@@YGXPAPAVMsearchHandler@SsdpListenerMulticast@Net@OpenHome@@0AAV?$allocator@PAVMsearchHandler@SsdpListenerMulticast@Net@OpenHome@@@0@@Z 00448b00 f i libohNetCore:Discovery.obj
 0001:00047b50       ??$?0PAVMsearchHandler@SsdpListenerMulticast@Net@OpenHome@@@?$allocator@U_Container_proxy@std@@@std@@QAE@ABV?$allocator@PAVMsearchHandler@SsdpListenerMulticast@Net@OpenHome@@@1@@Z 00448b50 f i libohNetCore:Discovery.obj
 0001:00047b70       ??$_Destroy_range@V?$allocator@PAVIHttpHeader@OpenHome@@@std@@@std@@YGXPAPAVIHttpHeader@OpenHome@@0AAV?$allocator@PAVIHttpHeader@OpenHome@@@0@@Z 00448b70 f i libohNetCore:Discovery.obj
 0001:00047bc0       ??$_Destroy_range@V?$allocator@PBVBrx@OpenHome@@@std@@@std@@YGXPAPBVBrx@OpenHome@@0AAV?$allocator@PBVBrx@OpenHome@@@0@@Z 00448bc0 f i libohNetCore:Discovery.obj
 0001:00047c10       ??$_Umove@PAPAVNotifyHandler@SsdpListenerMulticast@Net@OpenHome@@@?$vector@PAVNotifyHandler@SsdpListenerMulticast@Net@OpenHome@@V?$allocator@PAVNotifyHandler@SsdpListenerMulticast@Net@OpenHome@@@std@@@std@@IAEPAPAVNotifyHandler@SsdpListenerMulticast@Net@OpenHome@@PAPAV2345@00@Z 00448c10 f i libohNetCore:Discovery.obj
 0001:00047c50       ??$_Umove@PAPAVMsearchHandler@SsdpListenerMulticast@Net@OpenHome@@@?$vector@PAVMsearchHandler@SsdpListenerMulticast@Net@OpenHome@@V?$allocator@PAVMsearchHandler@SsdpListenerMulticast@Net@OpenHome@@@std@@@std@@IAEPAPAVMsearchHandler@SsdpListenerMulticast@Net@OpenHome@@PAPAV2345@00@Z 00448c50 f i libohNetCore:Discovery.obj
 0001:00047c90       ??$_Allocate@PAVNotifyHandler@SsdpListenerMulticast@Net@OpenHome@@@std@@YGPAPAVNotifyHandler@SsdpListenerMulticast@Net@OpenHome@@IPAPAV1234@@Z 00448c90 f i libohNetCore:Discovery.obj
 0001:00047d10       ??$_Allocate@PAVMsearchHandler@SsdpListenerMulticast@Net@OpenHome@@@std@@YGPAPAVMsearchHandler@SsdpListenerMulticast@Net@OpenHome@@IPAPAV1234@@Z 00448d10 f i libohNetCore:Discovery.obj
 0001:00047d90       ??_G?$Bws@$0DOI@@OpenHome@@UAEPAXI@Z 00448d90 f i libohNetCore:Discovery.obj
 0001:00047d90       ??_E?$Bws@$0DOI@@OpenHome@@UAEPAXI@Z 00448d90 f i libohNetCore:Discovery.obj
 0001:00047dd0       ??_E?$Bws@$0EA@@OpenHome@@UAEPAXI@Z 00448dd0 f i libohNetCore:Discovery.obj
 0001:00047dd0       ??_G?$Bws@$0EA@@OpenHome@@UAEPAXI@Z 00448dd0 f i libohNetCore:Discovery.obj
 0001:00047e10       ?construct@?$allocator@PAVNotifyHandler@SsdpListenerMulticast@Net@OpenHome@@@std@@QAEXPAPAVNotifyHandler@SsdpListenerMulticast@Net@OpenHome@@ABQAV3456@@Z 00448e10 f i libohNetCore:Discovery.obj
 0001:00047e40       ?construct@?$allocator@PAVMsearchHandler@SsdpListenerMulticast@Net@OpenHome@@@std@@QAEXPAPAVMsearchHandler@SsdpListenerMulticast@Net@OpenHome@@ABQAV3456@@Z 00448e40 f i libohNetCore:Discovery.obj
 0001:00047e70       ??$forward@AAPAVNotifyHandler@SsdpListenerMulticast@Net@OpenHome@@@std@@YGAAPAVNotifyHandler@SsdpListenerMulticast@Net@OpenHome@@AAPAV1234@@Z 00448e70 f i libohNetCore:Discovery.obj
 0001:00047e80       ??$construct@AAPAVNotifyHandler@SsdpListenerMulticast@Net@OpenHome@@@?$allocator@PAVNotifyHandler@SsdpListenerMulticast@Net@OpenHome@@@std@@QAEXPAPAVNotifyHandler@SsdpListenerMulticast@Net@OpenHome@@AAPAV2345@@Z 00448e80 f i libohNetCore:Discovery.obj
 0001:00047f20       ??$forward@ABQAVNotifyHandler@SsdpListenerMulticast@Net@OpenHome@@@std@@YGABQAVNotifyHandler@SsdpListenerMulticast@Net@OpenHome@@ABQAV1234@@Z 00448f20 f i libohNetCore:Discovery.obj
 0001:00047f30       ??$_Ptr_cat@PAVNotifyHandler@SsdpListenerMulticast@Net@OpenHome@@PAV1234@@std@@YG?AU_Scalar_ptr_iterator_tag@0@PAPAVNotifyHandler@SsdpListenerMulticast@Net@OpenHome@@0@Z 00448f30 f i libohNetCore:Discovery.obj
 0001:00047f90       ??$_Move@PAPAVNotifyHandler@SsdpListenerMulticast@Net@OpenHome@@PAPAV1234@@std@@YGPAPAVNotifyHandler@SsdpListenerMulticast@Net@OpenHome@@PAPAV1234@00U_Scalar_ptr_iterator_tag@0@@Z 00448f90 f i libohNetCore:Discovery.obj
 0001:00047fe0       ??$forward@AAPAVMsearchHandler@SsdpListenerMulticast@Net@OpenHome@@@std@@YGAAPAVMsearchHandler@SsdpListenerMulticast@Net@OpenHome@@AAPAV1234@@Z 00448fe0 f i libohNetCore:Discovery.obj
 0001:00047ff0       ??$construct@AAPAVMsearchHandler@SsdpListenerMulticast@Net@OpenHome@@@?$allocator@PAVMsearchHandler@SsdpListenerMulticast@Net@OpenHome@@@std@@QAEXPAPAVMsearchHandler@SsdpListenerMulticast@Net@OpenHome@@AAPAV2345@@Z 00448ff0 f i libohNetCore:Discovery.obj
 0001:00048090       ??$forward@ABQAVMsearchHandler@SsdpListenerMulticast@Net@OpenHome@@@std@@YGABQAVMsearchHandler@SsdpListenerMulticast@Net@OpenHome@@ABQAV1234@@Z 00449090 f i libohNetCore:Discovery.obj
 0001:000480a0       ??$_Ptr_cat@PAVMsearchHandler@SsdpListenerMulticast@Net@OpenHome@@PAV1234@@std@@YG?AU_Scalar_ptr_iterator_tag@0@PAPAVMsearchHandler@SsdpListenerMulticast@Net@OpenHome@@0@Z 004490a0 f i libohNetCore:Discovery.obj
 0001:00048100       ??$_Move@PAPAVMsearchHandler@SsdpListenerMulticast@Net@OpenHome@@PAPAV1234@@std@@YGPAPAVMsearchHandler@SsdpListenerMulticast@Net@OpenHome@@PAPAV1234@00U_Scalar_ptr_iterator_tag@0@@Z 00449100 f i libohNetCore:Discovery.obj
 0001:00048150       ??$_Destroy_range@V?$allocator@PAVNotifyHandler@SsdpListenerMulticast@Net@OpenHome@@@std@@@std@@YGXPAPAVNotifyHandler@SsdpListenerMulticast@Net@OpenHome@@0AAV?$allocator@PAVNotifyHandler@SsdpListenerMulticast@Net@OpenHome@@@0@U_Scalar_ptr_iterator_tag@0@@Z 00449150 f i libohNetCore:Discovery.obj
 0001:00048160       ??$_Destroy_range@V?$allocator@PAVMsearchHandler@SsdpListenerMulticast@Net@OpenHome@@@std@@@std@@YGXPAPAVMsearchHandler@SsdpListenerMulticast@Net@OpenHome@@0AAV?$allocator@PAVMsearchHandler@SsdpListenerMulticast@Net@OpenHome@@@0@U_Scalar_ptr_iterator_tag@0@@Z 00449160 f i libohNetCore:Discovery.obj
 0001:00048170       ??$_Ptr_cat@PAVIHttpHeader@OpenHome@@PAV12@@std@@YG?AU_Scalar_ptr_iterator_tag@0@PAPAVIHttpHeader@OpenHome@@0@Z 00449170 f i libohNetCore:Discovery.obj
 0001:000481d0       ??$_Destroy_range@V?$allocator@PAVIHttpHeader@OpenHome@@@std@@@std@@YGXPAPAVIHttpHeader@OpenHome@@0AAV?$allocator@PAVIHttpHeader@OpenHome@@@0@U_Scalar_ptr_iterator_tag@0@@Z 004491d0 f i libohNetCore:Discovery.obj
 0001:000481e0       ??$_Ptr_cat@PBVBrx@OpenHome@@PBV12@@std@@YG?AU_Scalar_ptr_iterator_tag@0@PAPBVBrx@OpenHome@@0@Z 004491e0 f i libohNetCore:Discovery.obj
 0001:00048240       ??$_Destroy_range@V?$allocator@PBVBrx@OpenHome@@@std@@@std@@YGXPAPBVBrx@OpenHome@@0AAV?$allocator@PBVBrx@OpenHome@@@0@U_Scalar_ptr_iterator_tag@0@@Z 00449240 f i libohNetCore:Discovery.obj
 0001:00048250       ??$_Uninitialized_move@PAPAVNotifyHandler@SsdpListenerMulticast@Net@OpenHome@@PAPAV1234@V?$allocator@PAVNotifyHandler@SsdpListenerMulticast@Net@OpenHome@@@std@@@std@@YGPAPAVNotifyHandler@SsdpListenerMulticast@Net@OpenHome@@PAPAV1234@00AAV?$allocator@PAVNotifyHandler@SsdpListenerMulticast@Net@OpenHome@@@0@@Z 00449250 f i libohNetCore:Discovery.obj
 0001:000482a0       ??$_Uninitialized_move@PAPAVMsearchHandler@SsdpListenerMulticast@Net@OpenHome@@PAPAV1234@V?$allocator@PAVMsearchHandler@SsdpListenerMulticast@Net@OpenHome@@@std@@@std@@YGPAPAVMsearchHandler@SsdpListenerMulticast@Net@OpenHome@@PAPAV1234@00AAV?$allocator@PAVMsearchHandler@SsdpListenerMulticast@Net@OpenHome@@@0@@Z 004492a0 f i libohNetCore:Discovery.obj
 0001:000482f0       ??$_Construct@PAVNotifyHandler@SsdpListenerMulticast@Net@OpenHome@@ABQAV1234@@std@@YGXPAPAVNotifyHandler@SsdpListenerMulticast@Net@OpenHome@@ABQAV1234@@Z 004492f0 f i libohNetCore:Discovery.obj
 0001:000483a0       ??$_Construct@PAVMsearchHandler@SsdpListenerMulticast@Net@OpenHome@@ABQAV1234@@std@@YGXPAPAVMsearchHandler@SsdpListenerMulticast@Net@OpenHome@@ABQAV1234@@Z 004493a0 f i libohNetCore:Discovery.obj
 0001:00048450       ??$_Val_type@PAPAVNotifyHandler@SsdpListenerMulticast@Net@OpenHome@@@std@@YGPAPAVNotifyHandler@SsdpListenerMulticast@Net@OpenHome@@PAPAV1234@@Z 00449450 f i libohNetCore:Discovery.obj
 0001:00048460       ??$_Uninit_move@PAVNotifyHandler@SsdpListenerMulticast@Net@OpenHome@@PAV1234@PAV1234@@std@@YGPAPAVNotifyHandler@SsdpListenerMulticast@Net@OpenHome@@PAPAV1234@00AAV?$allocator@PAVNotifyHandler@SsdpListenerMulticast@Net@OpenHome@@@0@0U_Scalar_ptr_iterator_tag@0@@Z 00449460 f i libohNetCore:Discovery.obj
 0001:000484d0       ??$_Val_type@PAPAVMsearchHandler@SsdpListenerMulticast@Net@OpenHome@@@std@@YGPAPAVMsearchHandler@SsdpListenerMulticast@Net@OpenHome@@PAPAV1234@@Z 004494d0 f i libohNetCore:Discovery.obj
 0001:000484e0       ??$_Uninit_move@PAVMsearchHandler@SsdpListenerMulticast@Net@OpenHome@@PAV1234@PAV1234@@std@@YGPAPAVMsearchHandler@SsdpListenerMulticast@Net@OpenHome@@PAPAV1234@00AAV?$allocator@PAVMsearchHandler@SsdpListenerMulticast@Net@OpenHome@@@0@0U_Scalar_ptr_iterator_tag@0@@Z 004494e0 f i libohNetCore:Discovery.obj
 0001:00048550       ??$_Debug_range@PAPAVNotifyHandler@SsdpListenerMulticast@Net@OpenHome@@@std@@YGXPAPAVNotifyHandler@SsdpListenerMulticast@Net@OpenHome@@0PB_WI@Z 00449550 f i libohNetCore:Discovery.obj
 0001:000485a0       ??$_Debug_pointer@PAVNotifyHandler@SsdpListenerMulticast@Net@OpenHome@@@std@@YGXPAPAVNotifyHandler@SsdpListenerMulticast@Net@OpenHome@@PB_WI@Z 004495a0 f i libohNetCore:Discovery.obj
 0001:000485d0       ??$_Debug_range@PAPAVMsearchHandler@SsdpListenerMulticast@Net@OpenHome@@@std@@YGXPAPAVMsearchHandler@SsdpListenerMulticast@Net@OpenHome@@0PB_WI@Z 004495d0 f i libohNetCore:Discovery.obj
 0001:00048620       ??$_Debug_pointer@PAVMsearchHandler@SsdpListenerMulticast@Net@OpenHome@@@std@@YGXPAPAVMsearchHandler@SsdpListenerMulticast@Net@OpenHome@@PB_WI@Z 00449620 f i libohNetCore:Discovery.obj
 0001:00048650       ??$_Iter_cat@PAPAVNotifyHandler@SsdpListenerMulticast@Net@OpenHome@@@std@@YG?AUrandom_access_iterator_tag@0@ABQAPAVNotifyHandler@SsdpListenerMulticast@Net@OpenHome@@@Z 00449650 f i libohNetCore:Discovery.obj
 0001:000486b0       ??$_Debug_range2@PAPAVNotifyHandler@SsdpListenerMulticast@Net@OpenHome@@@std@@YGXPAPAVNotifyHandler@SsdpListenerMulticast@Net@OpenHome@@0PB_WIUrandom_access_iterator_tag@0@@Z 004496b0 f i libohNetCore:Discovery.obj
 0001:00048710       ??$_Iter_cat@PAPAVMsearchHandler@SsdpListenerMulticast@Net@OpenHome@@@std@@YG?AUrandom_access_iterator_tag@0@ABQAPAVMsearchHandler@SsdpListenerMulticast@Net@OpenHome@@@Z 00449710 f i libohNetCore:Discovery.obj
 0001:00048770       ??$_Debug_range2@PAPAVMsearchHandler@SsdpListenerMulticast@Net@OpenHome@@@std@@YGXPAPAVMsearchHandler@SsdpListenerMulticast@Net@OpenHome@@0PB_WIUrandom_access_iterator_tag@0@@Z 00449770 f i libohNetCore:Discovery.obj
 0001:000487d0       ??_ESsdpSocketReader@Net@OpenHome@@WBI@AEPAXI@Z 004497d0 f i libohNetCore:Discovery.obj
 0001:000487e0       ??_E?$Sws@$0EAA@@OpenHome@@WM@AEPAXI@Z 004497e0 f i libohNetCore:Discovery.obj
 0001:000487f0       ??_E?$Srs@$0EAA@@OpenHome@@WM@AEPAXI@Z 004497f0 f i libohNetCore:Discovery.obj
 0001:00048800       ??0Endpoint@OpenHome@@QAE@XZ 00449800 f   libohNetCore:Network.obj
 0001:00048830       ??0Endpoint@OpenHome@@QAE@IABVBrx@1@@Z 00449830 f   libohNetCore:Network.obj
 0001:00048870       ??0Endpoint@OpenHome@@QAE@II@Z 00449870 f   libohNetCore:Network.obj
 0001:000488a0       ?SetPort@Endpoint@OpenHome@@QAEXI@Z 004498a0 f   libohNetCore:Network.obj
 0001:000488c0       ?SetPort@Endpoint@OpenHome@@QAEXABV12@@Z 004498c0 f   libohNetCore:Network.obj
 0001:000488f0       ?SetAddress@Endpoint@OpenHome@@QAEXABVBrx@2@@Z 004498f0 f   libohNetCore:Network.obj
 0001:00048940       ?SetAddress@Endpoint@OpenHome@@QAEXI@Z 00449940 f   libohNetCore:Network.obj
 0001:00048960       ?SetAddress@Endpoint@OpenHome@@QAEXABV12@@Z 00449960 f   libohNetCore:Network.obj
 0001:00048980       ?Address@Endpoint@OpenHome@@QBEIXZ 00449980 f   libohNetCore:Network.obj
 0001:000489a0       ?Port@Endpoint@OpenHome@@QBEGXZ 004499a0 f   libohNetCore:Network.obj
 0001:000489c0       ?AppendAddress@Endpoint@OpenHome@@QBEXAAVBwx@2@@Z 004499c0 f   libohNetCore:Network.obj
 0001:00048a90       ?AppendEndpoint@Endpoint@OpenHome@@QBEXAAVBwx@2@@Z 00449a90 f   libohNetCore:Network.obj
 0001:00048b10       ?GetAddressOctets@Endpoint@OpenHome@@QBEXAAY03E@Z 00449b10 f   libohNetCore:Network.obj
 0001:00048b70       ?Replace@Endpoint@OpenHome@@QAEXABV12@@Z 00449b70 f   libohNetCore:Network.obj
 0001:00048bb0       ?Equals@Endpoint@OpenHome@@QBE_NABV12@@Z 00449bb0 f   libohNetCore:Network.obj
 0001:00048c00       ??0Socket@OpenHome@@IAE@XZ 00449c00 f   libohNetCore:Network.obj
 0001:00048c40       ?Interrupt@Socket@OpenHome@@QAEX_N@Z 00449c40 f   libohNetCore:Network.obj
 0001:00048d10       ?Close@Socket@OpenHome@@QAEXXZ 00449d10 f   libohNetCore:Network.obj
 0001:00048dd0       ?SetSendBufBytes@Socket@OpenHome@@QAEXI@Z 00449dd0 f   libohNetCore:Network.obj
 0001:00048e00       ?SetRecvBufBytes@Socket@OpenHome@@QAEXI@Z 00449e00 f   libohNetCore:Network.obj
 0001:00048e30       ?SetRecvTimeout@Socket@OpenHome@@QAEXI@Z 00449e30 f   libohNetCore:Network.obj
 0001:00048e60       ?LogVerbose@Socket@OpenHome@@QAEX_N0@Z 00449e60 f   libohNetCore:Network.obj
 0001:00048ed0       ?Send@Socket@OpenHome@@IAEXABVBrx@2@@Z 00449ed0 f   libohNetCore:Network.obj
 0001:000490d0       ?SendTo@Socket@OpenHome@@IAEXABVBrx@2@ABVEndpoint@2@@Z 0044a0d0 f   libohNetCore:Network.obj
 0001:000492e0       ?Receive@Socket@OpenHome@@IAEXAAVBwx@2@@Z 0044a2e0 f   libohNetCore:Network.obj
 0001:00049490       ?Receive@Socket@OpenHome@@IAEXAAVBwx@2@I@Z 0044a490 f   libohNetCore:Network.obj
 0001:00049730       ?ReceiveFrom@Socket@OpenHome@@IAEXAAVBwx@2@AAVEndpoint@2@@Z 0044a730 f   libohNetCore:Network.obj
 0001:000498d0       ?Bind@Socket@OpenHome@@IAEXABVEndpoint@2@@Z 0044a8d0 f   libohNetCore:Network.obj
 0001:00049a10       ?GetPort@Socket@OpenHome@@IAEXAAI@Z 0044aa10 f   libohNetCore:Network.obj
 0001:00049b50       ?Listen@Socket@OpenHome@@IAEXI@Z 0044ab50 f   libohNetCore:Network.obj
 0001:00049c90       ?Accept@Socket@OpenHome@@IAEPAXXZ 0044ac90 f   libohNetCore:Network.obj
 0001:00049e00       ?Log@Socket@OpenHome@@AAEXPBDABVBrx@2@@Z 0044ae00 f   libohNetCore:Network.obj
 0001:0004a0a0       ??0AutoSocket@OpenHome@@QAE@AAVSocket@1@@Z 0044b0a0 f   libohNetCore:Network.obj
 0001:0004a0e0       ??1AutoSocket@OpenHome@@QAE@XZ 0044b0e0 f   libohNetCore:Network.obj
 0001:0004a110       ??0SocketTcp@OpenHome@@IAE@XZ 0044b110 f   libohNetCore:Network.obj
 0001:0004a1e0       ?Receive@SocketTcp@OpenHome@@QAEXAAVBwx@2@I@Z 0044b1e0 f   libohNetCore:Network.obj
 0001:0004a250       ?Write@SocketTcp@OpenHome@@UAEXE@Z 0044b250 f   libohNetCore:Network.obj
 0001:0004a320       ?Write@SocketTcp@OpenHome@@UAEXABVBrx@2@@Z 0044b320 f   libohNetCore:Network.obj
 0001:0004a440       ?WriteFlush@SocketTcp@OpenHome@@UAEXXZ 0044b440 f   libohNetCore:Network.obj
 0001:0004a460       ?Read@SocketTcp@OpenHome@@UAEXAAVBwx@2@@Z 0044b460 f   libohNetCore:Network.obj
 0001:0004a600       ?ReadFlush@SocketTcp@OpenHome@@UAEXXZ 0044b600 f   libohNetCore:Network.obj
 0001:0004a620       ?ReadInterrupt@SocketTcp@OpenHome@@UAEXXZ 0044b620 f   libohNetCore:Network.obj
 0001:0004a650       ?Open@SocketTcpClient@OpenHome@@QAEXXZ 0044b650 f   libohNetCore:Network.obj
 0001:0004a750       ?Connect@SocketTcpClient@OpenHome@@QAEXABVEndpoint@2@I@Z 0044b750 f   libohNetCore:Network.obj
 0001:0004a7c0       ??0SocketTcpServer@OpenHome@@QAE@PBDIIIII@Z 0044b7c0 f   libohNetCore:Network.obj
 0001:0004a910       ?Add@SocketTcpServer@OpenHome@@QAEXPBDPAVSocketTcpSession@2@H@Z 0044b910 f   libohNetCore:Network.obj
 0001:0004aa40       ?Accept@SocketTcpServer@OpenHome@@AAEPAXXZ 0044ba40 f   libohNetCore:Network.obj
 0001:0004abe0       ?Terminating@SocketTcpServer@OpenHome@@AAE_NXZ 0044bbe0 f   libohNetCore:Network.obj
 0001:0004ac40       ??1SocketTcpServer@OpenHome@@UAE@XZ 0044bc40 f   libohNetCore:Network.obj
 0001:0004add0       ??0SocketTcpSession@OpenHome@@IAE@XZ 0044bdd0 f   libohNetCore:Network.obj
 0001:0004ae70       ?Add@SocketTcpSession@OpenHome@@AAEXAAVSocketTcpServer@2@PBDII@Z 0044be70 f   libohNetCore:Network.obj
 0001:0004af80       ?Start@SocketTcpSession@OpenHome@@AAEXXZ 0044bf80 f   libohNetCore:Network.obj
 0001:0004b1c0       ?Open@SocketTcpSession@OpenHome@@AAEXPAX@Z 0044c1c0 f   libohNetCore:Network.obj
 0001:0004b310       ?Close@SocketTcpSession@OpenHome@@AAEXXZ 0044c310 f   libohNetCore:Network.obj
 0001:0004b420       ??1SocketTcpSession@OpenHome@@MAE@XZ 0044c420 f   libohNetCore:Network.obj
 0001:0004b580       ??0SocketUdp@OpenHome@@QAE@XZ 0044c580 f   libohNetCore:Network.obj
 0001:0004b6b0       ??0SocketUdp@OpenHome@@QAE@I@Z 0044c6b0 f   libohNetCore:Network.obj
 0001:0004b7e0       ??0SocketUdp@OpenHome@@QAE@II@Z 0044c7e0 f   libohNetCore:Network.obj
 0001:0004b920       ?SetTtl@SocketUdp@OpenHome@@QAEXI@Z 0044c920 f   libohNetCore:Network.obj
 0001:0004b9c0       ??1SocketUdp@OpenHome@@UAE@XZ 0044c9c0 f   libohNetCore:Network.obj
 0001:0004ba30       ?Port@SocketUdp@OpenHome@@QBEIXZ 0044ca30 f   libohNetCore:Network.obj
 0001:0004ba50       ?Send@SocketUdp@OpenHome@@QAEXABVBrx@2@ABVEndpoint@2@@Z 0044ca50 f   libohNetCore:Network.obj
 0001:0004bab0       ?Receive@SocketUdp@OpenHome@@QAE?AVEndpoint@2@AAVBwx@2@@Z 0044cab0 f   libohNetCore:Network.obj
 0001:0004bba0       ??0SocketUdpMulticast@OpenHome@@QAE@IABVEndpoint@1@@Z 0044cba0 f   libohNetCore:Network.obj
 0001:0004bce0       ??1SocketUdpMulticast@OpenHome@@UAE@XZ 0044cce0 f   libohNetCore:Network.obj
 0001:0004bdd0       ??0UdpReader@OpenHome@@QAE@AAVSocketUdp@1@@Z 0044cdd0 f   libohNetCore:Network.obj
 0001:0004be60       ?Sender@UdpReader@OpenHome@@QBE?AVEndpoint@2@XZ 0044ce60 f   libohNetCore:Network.obj
 0001:0004be90       ?Read@UdpReader@OpenHome@@UAEXAAVBwx@2@@Z 0044ce90 f   libohNetCore:Network.obj
 0001:0004bff0       ?ReadFlush@UdpReader@OpenHome@@UAEXXZ 0044cff0 f   libohNetCore:Network.obj
 0001:0004c010       ?ReadInterrupt@UdpReader@OpenHome@@UAEXXZ 0044d010 f   libohNetCore:Network.obj
 0001:0004c040       ??0UdpWriter@OpenHome@@QAE@AAVSocketUdp@1@ABVEndpoint@1@@Z 0044d040 f   libohNetCore:Network.obj
 0001:0004c0e0       ?Write@UdpWriter@OpenHome@@UAEXE@Z 0044d0e0 f   libohNetCore:Network.obj
 0001:0004c110       ?Write@UdpWriter@OpenHome@@UAEXABVBrx@2@@Z 0044d110 f   libohNetCore:Network.obj
 0001:0004c260       ?WriteFlush@UdpWriter@OpenHome@@UAEXXZ 0044d260 f   libohNetCore:Network.obj
 0001:0004c280       ??_ESocket@OpenHome@@MAEPAXI@Z 0044d280 f i libohNetCore:Network.obj
 0001:0004c280       ??_GSocket@OpenHome@@MAEPAXI@Z 0044d280 f i libohNetCore:Network.obj
 0001:0004c2c0       ??1Socket@OpenHome@@MAE@XZ 0044d2c0 f i libohNetCore:Network.obj
 0001:0004c2e0       ?NetworkInterrupt@Os@OpenHome@@SGHPAX_N@Z 0044d2e0 f i libohNetCore:Network.obj
 0001:0004c310       ?NetworkClose@Os@OpenHome@@SGHPAX@Z 0044d310 f i libohNetCore:Network.obj
 0001:0004c330       ??0NetworkError@OpenHome@@QAE@PBDI@Z 0044d330 f i libohNetCore:Network.obj
 0001:0004c370       ?NetworkSend@Os@OpenHome@@SGHPAXABVBrx@2@@Z 0044d370 f i libohNetCore:Network.obj
 0001:0004c3b0       ??1NetworkError@OpenHome@@QAE@XZ 0044d3b0 f i libohNetCore:Network.obj
 0001:0004c3e0       ?NetworkSendTo@Os@OpenHome@@SGHPAXABVBrx@2@ABVEndpoint@2@@Z 0044d3e0 f i libohNetCore:Network.obj
 0001:0004c430       ?NetworkReceive@Os@OpenHome@@SGHPAXAAVBwx@2@@Z 0044d430 f i libohNetCore:Network.obj
 0001:0004c470       ?NetworkListen@Os@OpenHome@@SGHPAXI@Z 0044d470 f i libohNetCore:Network.obj
 0001:0004c490       ?NetworkAccept@Os@OpenHome@@SGPAXPAX@Z 0044d490 f i libohNetCore:Network.obj
 0001:0004c4b0       ??_GSocketTcp@OpenHome@@UAEPAXI@Z 0044d4b0 f i libohNetCore:Network.obj
 0001:0004c4b0       ??_ESocketTcp@OpenHome@@UAEPAXI@Z 0044d4b0 f i libohNetCore:Network.obj
 0001:0004c4f0       ??1SocketTcp@OpenHome@@UAE@XZ 0044d4f0 f i libohNetCore:Network.obj
 0001:0004c570       ??0WriterError@OpenHome@@QAE@PBDI@Z 0044d570 f i libohNetCore:Network.obj
 0001:0004c5b0       ??1WriterError@OpenHome@@QAE@XZ 0044d5b0 f i libohNetCore:Network.obj
 0001:0004c5e0       ??_GSocketTcpServer@OpenHome@@UAEPAXI@Z 0044d5e0 f i libohNetCore:Network.obj
 0001:0004c5e0       ??_ESocketTcpServer@OpenHome@@UAEPAXI@Z 0044d5e0 f i libohNetCore:Network.obj
 0001:0004c620       ??_ESocketTcpSession@OpenHome@@MAEPAXI@Z 0044d620 f i libohNetCore:Network.obj
 0001:0004c620       ??_GSocketTcpSession@OpenHome@@MAEPAXI@Z 0044d620 f i libohNetCore:Network.obj
 0001:0004c660       ??_ESocketUdp@OpenHome@@UAEPAXI@Z 0044d660 f i libohNetCore:Network.obj
 0001:0004c660       ??_GSocketUdp@OpenHome@@UAEPAXI@Z 0044d660 f i libohNetCore:Network.obj
 0001:0004c6a0       ??_GSocketUdpMulticast@OpenHome@@UAEPAXI@Z 0044d6a0 f i libohNetCore:Network.obj
 0001:0004c6a0       ??_ESocketUdpMulticast@OpenHome@@UAEPAXI@Z 0044d6a0 f i libohNetCore:Network.obj
 0001:0004c6e0       ??_GUdpReader@OpenHome@@UAEPAXI@Z 0044d6e0 f i libohNetCore:Network.obj
 0001:0004c6e0       ??_EUdpReader@OpenHome@@UAEPAXI@Z 0044d6e0 f i libohNetCore:Network.obj
 0001:0004c720       ??_GUdpWriter@OpenHome@@UAEPAXI@Z 0044d720 f i libohNetCore:Network.obj
 0001:0004c720       ??_EUdpWriter@OpenHome@@UAEPAXI@Z 0044d720 f i libohNetCore:Network.obj
 0001:0004c760       ??0?$vector@PAVSocketTcpSession@OpenHome@@V?$allocator@PAVSocketTcpSession@OpenHome@@@std@@@std@@QAE@XZ 0044d760 f i libohNetCore:Network.obj
 0001:0004c7a0       ??1?$vector@PAVSocketTcpSession@OpenHome@@V?$allocator@PAVSocketTcpSession@OpenHome@@@std@@@std@@QAE@XZ 0044d7a0 f i libohNetCore:Network.obj
 0001:0004c810       ?size@?$vector@PAVSocketTcpSession@OpenHome@@V?$allocator@PAVSocketTcpSession@OpenHome@@@std@@@std@@QBEIXZ 0044d810 f i libohNetCore:Network.obj
 0001:0004c840       ??A?$vector@PAVSocketTcpSession@OpenHome@@V?$allocator@PAVSocketTcpSession@OpenHome@@@std@@@std@@QAEAAPAVSocketTcpSession@OpenHome@@I@Z 0044d840 f i libohNetCore:Network.obj
 0001:0004c8e0       ?push_back@?$vector@PAVSocketTcpSession@OpenHome@@V?$allocator@PAVSocketTcpSession@OpenHome@@@std@@@std@@QAEXABQAVSocketTcpSession@OpenHome@@@Z 0044d8e0 f i libohNetCore:Network.obj
 0001:0004c9f0       ?pop_back@?$vector@PAVSocketTcpSession@OpenHome@@V?$allocator@PAVSocketTcpSession@OpenHome@@@std@@@std@@QAEXXZ 0044d9f0 f i libohNetCore:Network.obj
 0001:0004ca80       ?empty@?$vector@PAVSocketTcpSession@OpenHome@@V?$allocator@PAVSocketTcpSession@OpenHome@@@std@@@std@@QBE_NXZ 0044da80 f i libohNetCore:Network.obj
 0001:0004cab0       ?_Inside@?$vector@PAVSocketTcpSession@OpenHome@@V?$allocator@PAVSocketTcpSession@OpenHome@@@std@@@std@@IBE_NPBQAVSocketTcpSession@OpenHome@@@Z 0044dab0 f i libohNetCore:Network.obj
 0001:0004cb00       ?_Reserve@?$vector@PAVSocketTcpSession@OpenHome@@V?$allocator@PAVSocketTcpSession@OpenHome@@@std@@@std@@IAEXI@Z 0044db00 f i libohNetCore:Network.obj
 0001:0004cb80       ?_Tidy@?$vector@PAVSocketTcpSession@OpenHome@@V?$allocator@PAVSocketTcpSession@OpenHome@@@std@@@std@@IAEXXZ 0044db80 f i libohNetCore:Network.obj
 0001:0004cc10       ?_Orphan_range@?$vector@PAVSocketTcpSession@OpenHome@@V?$allocator@PAVSocketTcpSession@OpenHome@@@std@@@std@@IBEXPAPAVSocketTcpSession@OpenHome@@0@Z 0044dc10 f i libohNetCore:Network.obj
 0001:0004cd20       ??0?$_Vector_val@PAVSocketTcpSession@OpenHome@@V?$allocator@PAVSocketTcpSession@OpenHome@@@std@@@std@@QAE@V?$allocator@PAVSocketTcpSession@OpenHome@@@1@@Z 0044dd20 f i libohNetCore:Network.obj
 0001:0004ce40       ??1?$_Vector_val@PAVSocketTcpSession@OpenHome@@V?$allocator@PAVSocketTcpSession@OpenHome@@@std@@@std@@QAE@XZ 0044de40 f i libohNetCore:Network.obj
 0001:0004cf20       ??0?$allocator@PAVSocketTcpSession@OpenHome@@@std@@QAE@XZ 0044df20 f i libohNetCore:Network.obj
 0001:0004cf40       ?reserve@?$vector@PAVSocketTcpSession@OpenHome@@V?$allocator@PAVSocketTcpSession@OpenHome@@@std@@@std@@QAEXI@Z 0044df40 f i libohNetCore:Network.obj
 0001:0004d0b0       ?capacity@?$vector@PAVSocketTcpSession@OpenHome@@V?$allocator@PAVSocketTcpSession@OpenHome@@@std@@@std@@QBEIXZ 0044e0b0 f i libohNetCore:Network.obj
 0001:0004d0e0       ?max_size@?$vector@PAVSocketTcpSession@OpenHome@@V?$allocator@PAVSocketTcpSession@OpenHome@@@std@@@std@@QBEIXZ 0044e0e0 f i libohNetCore:Network.obj
 0001:0004d110       ?_Destroy@?$vector@PAVSocketTcpSession@OpenHome@@V?$allocator@PAVSocketTcpSession@OpenHome@@@std@@@std@@IAEXPAPAVSocketTcpSession@OpenHome@@0@Z 0044e110 f i libohNetCore:Network.obj
 0001:0004d150       ?_Grow_to@?$vector@PAVSocketTcpSession@OpenHome@@V?$allocator@PAVSocketTcpSession@OpenHome@@@std@@@std@@IBEII@Z 0044e150 f i libohNetCore:Network.obj
 0001:0004d1d0       ?_Xlen@?$vector@PAVSocketTcpSession@OpenHome@@V?$allocator@PAVSocketTcpSession@OpenHome@@@std@@@std@@IBEXXZ 0044e1d0 f i libohNetCore:Network.obj
 0001:0004d200       ??0?$allocator@PAVSocketTcpSession@OpenHome@@@std@@QAE@ABV01@@Z 0044e200 f i libohNetCore:Network.obj
 0001:0004d220       ?deallocate@?$allocator@PAVSocketTcpSession@OpenHome@@@std@@QAEXPAPAVSocketTcpSession@OpenHome@@I@Z 0044e220 f i libohNetCore:Network.obj
 0001:0004d250       ?allocate@?$allocator@PAVSocketTcpSession@OpenHome@@@std@@QAEPAPAVSocketTcpSession@OpenHome@@I@Z 0044e250 f i libohNetCore:Network.obj
 0001:0004d280       ?max_size@?$allocator@PAVSocketTcpSession@OpenHome@@@std@@QBEIXZ 0044e280 f i libohNetCore:Network.obj
 0001:0004d2d0       ??$MakeFunctor@VSocketTcpSession@OpenHome@@XV12@@OpenHome@@YG?AV?$MemberTranslator@VSocketTcpSession@OpenHome@@P812@AEXXZ@0@AAVSocketTcpSession@0@ABQ820@AEXXZ@Z 0044e2d0 f i libohNetCore:Network.obj
 0001:0004d300       ??$addressof@QAVSocketTcpSession@OpenHome@@@std@@YGPBQAVSocketTcpSession@OpenHome@@ABQAV12@@Z 0044e300 f i libohNetCore:Network.obj
 0001:0004d310       ??$_Cons_val@V?$allocator@PAVSocketTcpSession@OpenHome@@@std@@PAVSocketTcpSession@OpenHome@@AAPAV34@@std@@YGXAAV?$allocator@PAVSocketTcpSession@OpenHome@@@0@PAPAVSocketTcpSession@OpenHome@@AAPAV23@@Z 0044e310 f i libohNetCore:Network.obj
 0001:0004d340       ??$_Cons_val@V?$allocator@PAVSocketTcpSession@OpenHome@@@std@@PAVSocketTcpSession@OpenHome@@ABQAV34@@std@@YGXAAV?$allocator@PAVSocketTcpSession@OpenHome@@@0@PAPAVSocketTcpSession@OpenHome@@ABQAV23@@Z 0044e340 f i libohNetCore:Network.obj
 0001:0004d370       ??$_Dest_val@V?$allocator@PAVSocketTcpSession@OpenHome@@@std@@PAVSocketTcpSession@OpenHome@@@std@@YGXAAV?$allocator@PAVSocketTcpSession@OpenHome@@@0@PAPAVSocketTcpSession@OpenHome@@@Z 0044e370 f i libohNetCore:Network.obj
 0001:0004d390       ??$?0PAVSocketTcpSession@OpenHome@@@?$allocator@U_Container_proxy@std@@@std@@QAE@ABV?$allocator@PAVSocketTcpSession@OpenHome@@@1@@Z 0044e390 f i libohNetCore:Network.obj
 0001:0004d3b0       ??$_Umove@PAPAVSocketTcpSession@OpenHome@@@?$vector@PAVSocketTcpSession@OpenHome@@V?$allocator@PAVSocketTcpSession@OpenHome@@@std@@@std@@IAEPAPAVSocketTcpSession@OpenHome@@PAPAV23@00@Z 0044e3b0 f i libohNetCore:Network.obj
 0001:0004d3f0       ??$_Destroy_range@V?$allocator@PAVSocketTcpSession@OpenHome@@@std@@@std@@YGXPAPAVSocketTcpSession@OpenHome@@0AAV?$allocator@PAVSocketTcpSession@OpenHome@@@0@@Z 0044e3f0 f i libohNetCore:Network.obj
 0001:0004d440       ??$_Allocate@PAVSocketTcpSession@OpenHome@@@std@@YGPAPAVSocketTcpSession@OpenHome@@IPAPAV12@@Z 0044e440 f i libohNetCore:Network.obj
 0001:0004d4c0       ?construct@?$allocator@PAVSocketTcpSession@OpenHome@@@std@@QAEXPAPAVSocketTcpSession@OpenHome@@ABQAV34@@Z 0044e4c0 f i libohNetCore:Network.obj
 0001:0004d4f0       ?destroy@?$allocator@PAVSocketTcpSession@OpenHome@@@std@@QAEXPAPAVSocketTcpSession@OpenHome@@@Z 0044e4f0 f i libohNetCore:Network.obj
 0001:0004d520       ??0?$MemberTranslator@VSocketTcpSession@OpenHome@@P812@AEXXZ@OpenHome@@QAE@AAVSocketTcpSession@1@ABQ821@AEXXZ@Z 0044e520 f i libohNetCore:Network.obj
 0001:0004d560       ?Thunk@?$MemberTranslator@VSocketTcpSession@OpenHome@@P812@AEXXZ@OpenHome@@SGXABVFunctor@2@@Z 0044e560 f i libohNetCore:Network.obj
 0001:0004d5b0       ??$forward@AAPAVSocketTcpSession@OpenHome@@@std@@YGAAPAVSocketTcpSession@OpenHome@@AAPAV12@@Z 0044e5b0 f i libohNetCore:Network.obj
 0001:0004d5c0       ??$construct@AAPAVSocketTcpSession@OpenHome@@@?$allocator@PAVSocketTcpSession@OpenHome@@@std@@QAEXPAPAVSocketTcpSession@OpenHome@@AAPAV23@@Z 0044e5c0 f i libohNetCore:Network.obj
 0001:0004d660       ??$forward@ABQAVSocketTcpSession@OpenHome@@@std@@YGABQAVSocketTcpSession@OpenHome@@ABQAV12@@Z 0044e660 f i libohNetCore:Network.obj
 0001:0004d670       ??$_Uninitialized_move@PAPAVSocketTcpSession@OpenHome@@PAPAV12@V?$allocator@PAVSocketTcpSession@OpenHome@@@std@@@std@@YGPAPAVSocketTcpSession@OpenHome@@PAPAV12@00AAV?$allocator@PAVSocketTcpSession@OpenHome@@@0@@Z 0044e670 f i libohNetCore:Network.obj
 0001:0004d6c0       ??$_Ptr_cat@PAVSocketTcpSession@OpenHome@@PAV12@@std@@YG?AU_Scalar_ptr_iterator_tag@0@PAPAVSocketTcpSession@OpenHome@@0@Z 0044e6c0 f i libohNetCore:Network.obj
 0001:0004d720       ??$_Destroy_range@V?$allocator@PAVSocketTcpSession@OpenHome@@@std@@@std@@YGXPAPAVSocketTcpSession@OpenHome@@0AAV?$allocator@PAVSocketTcpSession@OpenHome@@@0@U_Scalar_ptr_iterator_tag@0@@Z 0044e720 f i libohNetCore:Network.obj
 0001:0004d730       ??$_Construct@PAVSocketTcpSession@OpenHome@@ABQAV12@@std@@YGXPAPAVSocketTcpSession@OpenHome@@ABQAV12@@Z 0044e730 f i libohNetCore:Network.obj
 0001:0004d7e0       ??$_Destroy@PAVSocketTcpSession@OpenHome@@@std@@YGXPAPAVSocketTcpSession@OpenHome@@@Z 0044e7e0 f i libohNetCore:Network.obj
 0001:0004d7f0       ??$_Val_type@PAPAVSocketTcpSession@OpenHome@@@std@@YGPAPAVSocketTcpSession@OpenHome@@PAPAV12@@Z 0044e7f0 f i libohNetCore:Network.obj
 0001:0004d800       ??$_Uninit_move@PAVSocketTcpSession@OpenHome@@PAV12@PAV12@@std@@YGPAPAVSocketTcpSession@OpenHome@@PAPAV12@00AAV?$allocator@PAVSocketTcpSession@OpenHome@@@0@0U_Scalar_ptr_iterator_tag@0@@Z 0044e800 f i libohNetCore:Network.obj
 0001:0004d870       ??$_Debug_range@PAPAVSocketTcpSession@OpenHome@@@std@@YGXPAPAVSocketTcpSession@OpenHome@@0PB_WI@Z 0044e870 f i libohNetCore:Network.obj
 0001:0004d8c0       ??$_Debug_pointer@PAVSocketTcpSession@OpenHome@@@std@@YGXPAPAVSocketTcpSession@OpenHome@@PB_WI@Z 0044e8c0 f i libohNetCore:Network.obj
 0001:0004d8f0       ??$_Iter_cat@PAPAVSocketTcpSession@OpenHome@@@std@@YG?AUrandom_access_iterator_tag@0@ABQAPAVSocketTcpSession@OpenHome@@@Z 0044e8f0 f i libohNetCore:Network.obj
 0001:0004d950       ??$_Debug_range2@PAPAVSocketTcpSession@OpenHome@@@std@@YGXPAPAVSocketTcpSession@OpenHome@@0PB_WIUrandom_access_iterator_tag@0@@Z 0044e950 f i libohNetCore:Network.obj
 0001:0004d9b0       ??_ESocketTcpSession@OpenHome@@OBA@AEPAXI@Z 0044e9b0 f i libohNetCore:Network.obj
 0001:0004d9c0       ??_ESocketTcp@OpenHome@@WM@AEPAXI@Z 0044e9c0 f i libohNetCore:Network.obj
 0001:0004d9d0       ??_ESocketTcp@OpenHome@@WBA@AEPAXI@Z 0044e9d0 f i libohNetCore:Network.obj
 0001:0004d9e0       ??_ESocketTcpSession@OpenHome@@OM@AEPAXI@Z 0044e9e0 f i libohNetCore:Network.obj
 0001:0004d9f0       ??0DviStack@Net@OpenHome@@QAE@XZ 0044e9f0 f   libohNetCore:DviStack.obj
 0001:0004dc00       ??1DviStack@Net@OpenHome@@EAE@XZ 0044ec00 f   libohNetCore:DviStack.obj
 0001:0004dd80       ?BootId@DviStack@Net@OpenHome@@SGIXZ 0044ed80 f   libohNetCore:DviStack.obj
 0001:0004dde0       ?NextBootId@DviStack@Net@OpenHome@@SGIXZ 0044ede0 f   libohNetCore:DviStack.obj
