 TestDvSubscription

 Timestamp is 4e1c1b93 (Tue Jul 12 11:01:55 2011)

 Preferred load address is 00400000

 Start         Length     Name                   Class
 0001:00000000 00127cecH .text                   CODE
 0001:00127cf0 000133d3H .text$x                 CODE
 0001:0013b0d0 00003e4eH .text$yc                CODE
 0001:0013ef20 00001b31H .text$yd                CODE
 0002:00000000 000001e4H .idata$5                DATA
 0002:000001e4 00000004H .CRT$XCA                DATA
 0002:000001e8 00000004H .CRT$XCC                DATA
 0002:000001ec 00000350H .CRT$XCU                DATA
 0002:0000053c 00000004H .CRT$XCZ                DATA
 0002:00000540 00000004H .CRT$XIA                DATA
 0002:00000544 00000010H .CRT$XIC                DATA
 0002:00000554 00000004H .CRT$XIY                DATA
 0002:00000558 00000004H .CRT$XIZ                DATA
 0002:0000055c 00000004H .CRT$XPA                DATA
 0002:00000560 00000008H .CRT$XPX                DATA
 0002:00000568 00000004H .CRT$XPXA               DATA
 0002:0000056c 00000004H .CRT$XPZ                DATA
 0002:00000570 00000004H .CRT$XTA                DATA
 0002:00000574 00000004H .CRT$XTZ                DATA
 0002:00000580 000234a0H .rdata                  DATA
 0002:00023a20 00000059H .rdata$debug            DATA
 0002:00023a7c 00005bf4H .rdata$r                DATA
 0002:00029670 00001608H .rdata$sxdata           DATA
 0002:0002ac78 00000004H .rtc$IAA                DATA
 0002:0002ac7c 00000110H .rtc$IMZ                DATA
 0002:0002ad8c 00000004H .rtc$IZZ                DATA
 0002:0002ad90 00000004H .rtc$TAA                DATA
 0002:0002ad94 00000110H .rtc$TMZ                DATA
 0002:0002aea4 00000004H .rtc$TZZ                DATA
 0002:0002aea8 00015524H .xdata$x                DATA
 0002:000403cc 0000003cH .idata$2                DATA
 0002:00040408 00000014H .idata$3                DATA
 0002:0004041c 000001e4H .idata$4                DATA
 0002:00040600 00000776H .idata$6                DATA
 0002:00040d80 00002214H .edata                  DATA
 0003:00000000 00008b70H .data                   DATA
 0003:00008b80 0000348cH .bss                    DATA

  Address         Publics by Value              Rva+Base       Lib:Object

 0000:00000000       __except_list              00000000     <absolute>
 0000:00000582       ___safe_se_handler_count   00000582     <absolute>
 0000:00000000       ___ImageBase               00400000     <linker-defined>
 0001:00000000       ??0ProviderTestBasic@@QAE@AAVDvDevice@Net@OpenHome@@@Z 00401000 f   TestDvSubscription.obj
 0001:00000100       ?SetUint@ProviderTestBasic@@EAEXAAVIInvocationResponse@Net@OpenHome@@II@Z 00401100 f   TestDvSubscription.obj
 0001:00000160       ?GetUint@ProviderTestBasic@@EAEXAAVIInvocationResponse@Net@OpenHome@@IAAVIInvocationResponseUint@34@@Z 00401160 f   TestDvSubscription.obj
 0001:00000210       ?SetInt@ProviderTestBasic@@EAEXAAVIInvocationResponse@Net@OpenHome@@IH@Z 00401210 f   TestDvSubscription.obj
 0001:00000270       ?GetInt@ProviderTestBasic@@EAEXAAVIInvocationResponse@Net@OpenHome@@IAAVIInvocationResponseInt@34@@Z 00401270 f   TestDvSubscription.obj
 0001:00000320       ?SetBool@ProviderTestBasic@@EAEXAAVIInvocationResponse@Net@OpenHome@@I_N@Z 00401320 f   TestDvSubscription.obj
 0001:00000380       ?GetBool@ProviderTestBasic@@EAEXAAVIInvocationResponse@Net@OpenHome@@IAAVIInvocationResponseBool@34@@Z 00401380 f   TestDvSubscription.obj
 0001:00000430       ?SetMultiple@ProviderTestBasic@@EAEXAAVIInvocationResponse@Net@OpenHome@@IIH_N@Z 00401430 f   TestDvSubscription.obj
 0001:000004c0       ?SetString@ProviderTestBasic@@EAEXAAVIInvocationResponse@Net@OpenHome@@IABVBrx@4@@Z 004014c0 f   TestDvSubscription.obj
 0001:00000520       ?GetString@ProviderTestBasic@@EAEXAAVIInvocationResponse@Net@OpenHome@@IAAVIInvocationResponseString@34@@Z 00401520 f   TestDvSubscription.obj
 0001:00000630       ?SetBinary@ProviderTestBasic@@EAEXAAVIInvocationResponse@Net@OpenHome@@IABVBrx@4@@Z 00401630 f   TestDvSubscription.obj
 0001:00000690       ?GetBinary@ProviderTestBasic@@EAEXAAVIInvocationResponse@Net@OpenHome@@IAAVIInvocationResponseBinary@34@@Z 00401690 f   TestDvSubscription.obj
 0001:000007a0       ??0DeviceBasic@@QAE@XZ     004017a0 f   TestDvSubscription.obj
 0001:00000a40       ??1DeviceBasic@@QAE@XZ     00401a40 f   TestDvSubscription.obj
 0001:00000ae0       ??0CpDevices@@QAE@AAVSemaphore@OpenHome@@@Z 00401ae0 f   TestDvSubscription.obj
 0001:00000b70       ??1CpDevices@@QAE@XZ       00401b70 f   TestDvSubscription.obj
 0001:00000c50       ?Test@CpDevices@@QAEXXZ    00401c50 f   TestDvSubscription.obj
 0001:000013f0       ?Added@CpDevices@@QAEXAAVCpDevice@Net@OpenHome@@@Z 004023f0 f   TestDvSubscription.obj
 0001:00001460       ?Removed@CpDevices@@QAEXAAVCpDevice@Net@OpenHome@@@Z 00402460 f   TestDvSubscription.obj
 0001:00001480       ?UpdatesComplete@CpDevices@@AAEXXZ 00402480 f   TestDvSubscription.obj
 0001:000014b0       ?Main@Runner@TestFramework@OpenHome@@SGXHQAPADPAVInitialisationParams@Net@3@@Z 004024b0 f   TestDvSubscription.obj
 0001:00001a90       ??1DvProviderOpenhomeOrgTestBasic1@Net@OpenHome@@UAE@XZ 00402a90 f i TestDvSubscription.obj
 0001:00001ac0       ??_EDvProviderOpenhomeOrgTestBasic1@Net@OpenHome@@UAEPAXI@Z 00402ac0 f i TestDvSubscription.obj
 0001:00001ac0       ??_GDvProviderOpenhomeOrgTestBasic1@Net@OpenHome@@UAEPAXI@Z 00402ac0 f i TestDvSubscription.obj
 0001:00001b00       ??_GProviderTestBasic@@UAEPAXI@Z 00402b00 f i TestDvSubscription.obj
 0001:00001b00       ??_EProviderTestBasic@@UAEPAXI@Z 00402b00 f i TestDvSubscription.obj
 0001:00001b40       ??1ProviderTestBasic@@UAE@XZ 00402b40 f i TestDvSubscription.obj
 0001:00001b70       ??0Brhz@OpenHome@@QAE@XZ   00402b70 f i TestDvSubscription.obj
 0001:00001ba0       ??0Brv@OpenHome@@IAE@XZ    00402ba0 f i TestDvSubscription.obj
 0001:00001c20       ??0INonCopyable@OpenHome@@IAE@XZ 00402c20 f i TestDvSubscription.obj
 0001:00001c40       ??1Brx@OpenHome@@UAE@XZ    00402c40 f i TestDvSubscription.obj
 0001:00001c60       ??_EBrx@OpenHome@@UAEPAXI@Z 00402c60 f i TestDvSubscription.obj
 0001:00001c60       ??_GBrx@OpenHome@@UAEPAXI@Z 00402c60 f i TestDvSubscription.obj
 0001:00001ca0       ??_EBrv@OpenHome@@UAEPAXI@Z 00402ca0 f i TestDvSubscription.obj
 0001:00001d20       ??0Brx@OpenHome@@IAE@I@Z   00402d20 f i TestDvSubscription.obj
 0001:00001d50       ??_EBrhz@OpenHome@@UAEPAXI@Z 00402d50 f i TestDvSubscription.obj
 0001:00001d50       ??_GBrhz@OpenHome@@UAEPAXI@Z 00402d50 f i TestDvSubscription.obj
 0001:00001d90       ??1Brhz@OpenHome@@UAE@XZ   00402d90 f i TestDvSubscription.obj
 0001:00001dc0       ??0Brh@OpenHome@@QAE@XZ    00402dc0 f i TestDvSubscription.obj
 0001:00001df0       ??_GBrh@OpenHome@@UAEPAXI@Z 00402df0 f i TestDvSubscription.obj
 0001:00001df0       ??_EBrh@OpenHome@@UAEPAXI@Z 00402df0 f i TestDvSubscription.obj
 0001:00001e30       ??1Brh@OpenHome@@UAE@XZ    00402e30 f i TestDvSubscription.obj
 0001:00001e60       ?Bytes@Brx@OpenHome@@QBEIXZ 00402e60 f i TestDvSubscription.obj
 0001:00001e80       ?Append@Bwx@OpenHome@@QAEXD@Z 00402e80 f i TestDvSubscription.obj
 0001:00001eb0       ??1?$Bws@$09@OpenHome@@UAE@XZ 00402eb0 f i TestDvSubscription.obj
 0001:00001ee0       ??1Bwx@OpenHome@@UAE@XZ    00402ee0 f i TestDvSubscription.obj
 0001:00001f10       ??_GDvDeviceStandard@Net@OpenHome@@QAEPAXI@Z 00402f10 f i TestDvSubscription.obj
 0001:00001f50       ??1DvDeviceStandard@Net@OpenHome@@QAE@XZ 00402f50 f i TestDvSubscription.obj
 0001:00001f80       ??8Brx@OpenHome@@QBE_NABV01@@Z 00402f80 f i TestDvSubscription.obj
 0001:00001fb0       ??1Brn@OpenHome@@UAE@XZ    00402fb0 f i TestDvSubscription.obj
 0001:00001ff0       ??0Brn@OpenHome@@QAE@PBEI@Z 00402ff0 f i TestDvSubscription.obj
 0001:00002030       ??_EBrn@OpenHome@@UAEPAXI@Z 00403030 f i TestDvSubscription.obj
 0001:00002030       ??_GBrn@OpenHome@@UAEPAXI@Z 00403030 f i TestDvSubscription.obj
 0001:00002070       ??1OptionBool@TestFramework@OpenHome@@QAE@XZ 00403070 f i TestDvSubscription.obj
 0001:000020a0       ??_GCpDeviceListUpnpServiceType@Net@OpenHome@@QAEPAXI@Z 004030a0 f i TestDvSubscription.obj
 0001:000020e0       ??_GCpDevices@@QAEPAXI@Z   004030e0 f i TestDvSubscription.obj
 0001:00002120       ??_GDeviceBasic@@QAEPAXI@Z 00403120 f i TestDvSubscription.obj
 0001:00002160       ??1CpDeviceListUpnpServiceType@Net@OpenHome@@QAE@XZ 00403160 f i TestDvSubscription.obj
 0001:00002190       ??A?$vector@PAVNetworkAdapter@OpenHome@@V?$allocator@PAVNetworkAdapter@OpenHome@@@std@@@std@@QAEAAPAVNetworkAdapter@OpenHome@@I@Z 00403190 f i TestDvSubscription.obj
 0001:00002230       ??0?$vector@PAVCpDevice@Net@OpenHome@@V?$allocator@PAVCpDevice@Net@OpenHome@@@std@@@std@@QAE@XZ 00403230 f i TestDvSubscription.obj
 0001:00002270       ?push_back@?$vector@PAVCpDevice@Net@OpenHome@@V?$allocator@PAVCpDevice@Net@OpenHome@@@std@@@std@@QAEX$$QAPAVCpDevice@Net@OpenHome@@@Z 00403270 f i TestDvSubscription.obj
 0001:00002390       ??1?$vector@PAVCpDevice@Net@OpenHome@@V?$allocator@PAVCpDevice@Net@OpenHome@@@std@@@std@@QAE@XZ 00403390 f i TestDvSubscription.obj
 0001:00002400       ?size@?$vector@PAVCpDevice@Net@OpenHome@@V?$allocator@PAVCpDevice@Net@OpenHome@@@std@@@std@@QBEIXZ 00403400 f i TestDvSubscription.obj
 0001:00002430       ??A?$vector@PAVCpDevice@Net@OpenHome@@V?$allocator@PAVCpDevice@Net@OpenHome@@@std@@@std@@QAEAAPAVCpDevice@Net@OpenHome@@I@Z 00403430 f i TestDvSubscription.obj
 0001:000024d0       ?clear@?$vector@PAVCpDevice@Net@OpenHome@@V?$allocator@PAVCpDevice@Net@OpenHome@@@std@@@std@@QAEXXZ 004034d0 f i TestDvSubscription.obj
 0001:000025d0       ??1?$_Vector_iterator@V?$_Vector_val@PAVCpDevice@Net@OpenHome@@V?$allocator@PAVCpDevice@Net@OpenHome@@@std@@@std@@@std@@QAE@XZ 004035d0 f i TestDvSubscription.obj
 0001:00002600       ??0?$_Vector_const_iterator@V?$_Vector_val@PAVCpDevice@Net@OpenHome@@V?$allocator@PAVCpDevice@Net@OpenHome@@@std@@@std@@@std@@QAE@ABV01@@Z 00403600 f i TestDvSubscription.obj
 0001:00002640       ??1?$_Vector_const_iterator@V?$_Vector_val@PAVCpDevice@Net@OpenHome@@V?$allocator@PAVCpDevice@Net@OpenHome@@@std@@@std@@@std@@QAE@XZ 00403640 f i TestDvSubscription.obj
 0001:00002670       ??0?$_Iterator012@Urandom_access_iterator_tag@std@@PAVCpDevice@Net@OpenHome@@HPBQAV345@ABQAV345@U_Iterator_base12@2@@std@@QAE@ABU01@@Z 00403670 f i TestDvSubscription.obj
 0001:000026a0       ??0_Iterator_base12@std@@QAE@ABU01@@Z 004036a0 f i TestDvSubscription.obj
 0001:000026e0       ??4_Iterator_base12@std@@QAEAAU01@ABU01@@Z 004036e0 f i TestDvSubscription.obj
 0001:00002720       ?_Adopt@_Iterator_base12@std@@QAEXPBU_Container_base12@2@@Z 00403720 f i TestDvSubscription.obj
 0001:00002810       ?_Orphan_me@_Iterator_base12@std@@QAEXXZ 00403810 f i TestDvSubscription.obj
 0001:000028a0       ??1?$_Iterator012@Urandom_access_iterator_tag@std@@PAVCpDevice@Net@OpenHome@@HPBQAV345@ABQAV345@U_Iterator_base12@2@@std@@QAE@XZ 004038a0 f i TestDvSubscription.obj
 0001:000028d0       ??1_Iterator_base12@std@@QAE@XZ 004038d0 f i TestDvSubscription.obj
 0001:00002980       ?size@?$vector@PAVNetworkAdapter@OpenHome@@V?$allocator@PAVNetworkAdapter@OpenHome@@@std@@@std@@QBEIXZ 00403980 f i TestDvSubscription.obj
 0001:000029b0       ?begin@?$vector@PAVCpDevice@Net@OpenHome@@V?$allocator@PAVCpDevice@Net@OpenHome@@@std@@@std@@QAE?AV?$_Vector_iterator@V?$_Vector_val@PAVCpDevice@Net@OpenHome@@V?$allocator@PAVCpDevice@Net@OpenHome@@@std@@@std@@@2@XZ 004039b0 f i TestDvSubscription.obj
 0001:00002a00       ?end@?$vector@PAVCpDevice@Net@OpenHome@@V?$allocator@PAVCpDevice@Net@OpenHome@@@std@@@std@@QAE?AV?$_Vector_iterator@V?$_Vector_val@PAVCpDevice@Net@OpenHome@@V?$allocator@PAVCpDevice@Net@OpenHome@@@std@@@std@@@2@XZ 00403a00 f i TestDvSubscription.obj
 0001:00002a50       ?erase@?$vector@PAVCpDevice@Net@OpenHome@@V?$allocator@PAVCpDevice@Net@OpenHome@@@std@@@std@@QAE?AV?$_Vector_iterator@V?$_Vector_val@PAVCpDevice@Net@OpenHome@@V?$allocator@PAVCpDevice@Net@OpenHome@@@std@@@std@@@2@V?$_Vector_const_iterator@V?$_Vector_val@PAVCpDevice@Net@OpenHome@@V?$allocator@PAVCpDevice@Net@OpenHome@@@std@@@std@@@2@0@Z 00403a50 f i TestDvSubscription.obj
 0001:00002c40       ?_Getcont@_Iterator_base12@std@@QBEPBU_Container_base12@2@XZ 00403c40 f i TestDvSubscription.obj
 0001:00002c80       ?_Inside@?$vector@PAVCpDevice@Net@OpenHome@@V?$allocator@PAVCpDevice@Net@OpenHome@@@std@@@std@@IBE_NPBQAVCpDevice@Net@OpenHome@@@Z 00403c80 f i TestDvSubscription.obj
 0001:00002cd0       ?_Reserve@?$vector@PAVCpDevice@Net@OpenHome@@V?$allocator@PAVCpDevice@Net@OpenHome@@@std@@@std@@IAEXI@Z 00403cd0 f i TestDvSubscription.obj
 0001:00002d50       ?_Tidy@?$vector@PAVCpDevice@Net@OpenHome@@V?$allocator@PAVCpDevice@Net@OpenHome@@@std@@@std@@IAEXXZ 00403d50 f i TestDvSubscription.obj
 0001:00002de0       ?_Orphan_all@_Container_base12@std@@QAEXXZ 00403de0 f i TestDvSubscription.obj
 0001:00002e90       ?_Orphan_range@?$vector@PAVCpDevice@Net@OpenHome@@V?$allocator@PAVCpDevice@Net@OpenHome@@@std@@@std@@IBEXPAPAVCpDevice@Net@OpenHome@@0@Z 00403e90 f i TestDvSubscription.obj
 0001:00002fa0       ?_Getpfirst@_Container_base12@std@@QBEPAPAU_Iterator_base12@2@XZ 00403fa0 f i TestDvSubscription.obj
 0001:00002fe0       ?_Clrcont@_Iterator_base12@std@@QAEXXZ 00403fe0 f i TestDvSubscription.obj
 0001:00003000       ?_Getpnext@_Iterator_base12@std@@QAEPAPAU12@XZ 00404000 f i TestDvSubscription.obj
 0001:00003020       ??0?$_Vector_val@PAVCpDevice@Net@OpenHome@@V?$allocator@PAVCpDevice@Net@OpenHome@@@std@@@std@@QAE@V?$allocator@PAVCpDevice@Net@OpenHome@@@1@@Z 00404020 f i TestDvSubscription.obj
 0001:00003140       ??0_Container_proxy@std@@QAE@XZ 00404140 f i TestDvSubscription.obj
 0001:00003170       ??0_Container_base12@std@@QAE@XZ 00404170 f i TestDvSubscription.obj
 0001:00003190       ??1_Container_base12@std@@QAE@XZ 00404190 f i TestDvSubscription.obj
 0001:000031c0       ??1?$_Vector_val@PAVCpDevice@Net@OpenHome@@V?$allocator@PAVCpDevice@Net@OpenHome@@@std@@@std@@QAE@XZ 004041c0 f i TestDvSubscription.obj
 0001:000032a0       ??0?$allocator@PAVCpDevice@Net@OpenHome@@@std@@QAE@XZ 004042a0 f i TestDvSubscription.obj
 0001:000032c0       ??0?$_Vector_iterator@V?$_Vector_val@PAVCpDevice@Net@OpenHome@@V?$allocator@PAVCpDevice@Net@OpenHome@@@std@@@std@@@std@@QAE@ABV01@@Z 004042c0 f i TestDvSubscription.obj
 0001:000032f0       ?reserve@?$vector@PAVCpDevice@Net@OpenHome@@V?$allocator@PAVCpDevice@Net@OpenHome@@@std@@@std@@QAEXI@Z 004042f0 f i TestDvSubscription.obj
 0001:00003460       ?capacity@?$vector@PAVCpDevice@Net@OpenHome@@V?$allocator@PAVCpDevice@Net@OpenHome@@@std@@@std@@QBEIXZ 00404460 f i TestDvSubscription.obj
 0001:00003490       ?_Make_iter@?$vector@PAVCpDevice@Net@OpenHome@@V?$allocator@PAVCpDevice@Net@OpenHome@@@std@@@std@@QBE?AV?$_Vector_iterator@V?$_Vector_val@PAVCpDevice@Net@OpenHome@@V?$allocator@PAVCpDevice@Net@OpenHome@@@std@@@std@@@2@V?$_Vector_const_iterator@V?$_Vector_val@PAVCpDevice@Net@OpenHome@@V?$allocator@PAVCpDevice@Net@OpenHome@@@std@@@std@@@2@@Z 00404490 f i TestDvSubscription.obj
 0001:00003520       ?max_size@?$vector@PAVCpDevice@Net@OpenHome@@V?$allocator@PAVCpDevice@Net@OpenHome@@@std@@@std@@QBEIXZ 00404520 f i TestDvSubscription.obj
 0001:00003550       ?_Destroy@?$vector@PAVCpDevice@Net@OpenHome@@V?$allocator@PAVCpDevice@Net@OpenHome@@@std@@@std@@IAEXPAPAVCpDevice@Net@OpenHome@@0@Z 00404550 f i TestDvSubscription.obj
 0001:00003590       ?_Grow_to@?$vector@PAVCpDevice@Net@OpenHome@@V?$allocator@PAVCpDevice@Net@OpenHome@@@std@@@std@@IBEII@Z 00404590 f i TestDvSubscription.obj
 0001:00003610       ?_Xlen@?$vector@PAVCpDevice@Net@OpenHome@@V?$allocator@PAVCpDevice@Net@OpenHome@@@std@@@std@@IBEXXZ 00404610 f i TestDvSubscription.obj
 0001:00003640       ??0?$allocator@PAVCpDevice@Net@OpenHome@@@std@@QAE@ABV01@@Z 00404640 f i TestDvSubscription.obj
 0001:00003660       ?deallocate@?$allocator@PAVCpDevice@Net@OpenHome@@@std@@QAEXPAPAVCpDevice@Net@OpenHome@@I@Z 00404660 f i TestDvSubscription.obj
 0001:00003690       ??0?$_Vector_iterator@V?$_Vector_val@PAVCpDevice@Net@OpenHome@@V?$allocator@PAVCpDevice@Net@OpenHome@@@std@@@std@@@std@@QAE@PAPAVCpDevice@Net@OpenHome@@PBU_Container_base12@1@@Z 00404690 f i TestDvSubscription.obj
 0001:000036d0       ??9?$_Vector_const_iterator@V?$_Vector_val@PAVCpDevice@Net@OpenHome@@V?$allocator@PAVCpDevice@Net@OpenHome@@@std@@@std@@@std@@QBE_NABV01@@Z 004046d0 f i TestDvSubscription.obj
 0001:00003710       ??M?$_Vector_const_iterator@V?$_Vector_val@PAVCpDevice@Net@OpenHome@@V?$allocator@PAVCpDevice@Net@OpenHome@@@std@@@std@@@std@@QBE_NABV01@@Z 00404710 f i TestDvSubscription.obj
 0001:00003750       ?deallocate@?$allocator@U_Container_proxy@std@@@std@@QAEXPAU_Container_proxy@2@I@Z 00404750 f i TestDvSubscription.obj
 0001:00003780       ?allocate@?$allocator@U_Container_proxy@std@@@std@@QAEPAU_Container_proxy@2@I@Z 00404780 f i TestDvSubscription.obj
 0001:000037b0       ?allocate@?$allocator@PAVCpDevice@Net@OpenHome@@@std@@QAEPAPAVCpDevice@Net@OpenHome@@I@Z 004047b0 f i TestDvSubscription.obj
 0001:000037e0       ?max_size@?$allocator@PAVCpDevice@Net@OpenHome@@@std@@QBEIXZ 004047e0 f i TestDvSubscription.obj
 0001:00003830       ??0?$_Vector_const_iterator@V?$_Vector_val@PAVCpDevice@Net@OpenHome@@V?$allocator@PAVCpDevice@Net@OpenHome@@@std@@@std@@@std@@QAE@PAPAVCpDevice@Net@OpenHome@@PBU_Container_base12@1@@Z 00404830 f i TestDvSubscription.obj
 0001:000038b0       ??8?$_Vector_const_iterator@V?$_Vector_val@PAVCpDevice@Net@OpenHome@@V?$allocator@PAVCpDevice@Net@OpenHome@@@std@@@std@@@std@@QBE_NABV01@@Z 004048b0 f i TestDvSubscription.obj
 0001:000038f0       ?_Compat@?$_Vector_const_iterator@V?$_Vector_val@PAVCpDevice@Net@OpenHome@@V?$allocator@PAVCpDevice@Net@OpenHome@@@std@@@std@@@std@@QBEXABV12@@Z 004048f0 f i TestDvSubscription.obj
 0001:000039a0       ??0?$_Iterator012@Urandom_access_iterator_tag@std@@PAVCpDevice@Net@OpenHome@@HPBQAV345@ABQAV345@U_Iterator_base12@2@@std@@QAE@XZ 004049a0 f i TestDvSubscription.obj
 0001:000039d0       ??0_Iterator_base12@std@@QAE@XZ 004049d0 f i TestDvSubscription.obj
 0001:00003a00       ??0?$Bws@$09@OpenHome@@QAE@XZ 00404a00 f i TestDvSubscription.obj
 0001:00003a40       ?Ptr@?$Bws@$09@OpenHome@@UBEPBEXZ 00404a40 f i TestDvSubscription.obj
 0001:00003a60       ??$MakeFunctor@VCpDevices@@XV1@@OpenHome@@YG?AV?$MemberTranslator@VCpDevices@@P81@AEXXZ@0@AAVCpDevices@@ABQ82@AEXXZ@Z 00404a60 f i TestDvSubscription.obj
 0001:00003a90       ??$MakeFunctorCpDevice@VCpDevices@@V1@@Net@OpenHome@@YG?AV?$MemberTranslatorCpDevice@VCpDevices@@P81@AEXAAVCpDevice@Net@OpenHome@@@Z@01@AAVCpDevices@@ABQ83@AEXAAVCpDevice@01@@Z@Z 00404a90 f i TestDvSubscription.obj
 0001:00003ac0       ??$addressof@PAVCpDevice@Net@OpenHome@@@std@@YGPAPAVCpDevice@Net@OpenHome@@AAPAV123@@Z 00404ac0 f i TestDvSubscription.obj
 0001:00003ad0       ??$forward@PAVCpDevice@Net@OpenHome@@@std@@YG$$QAPAVCpDevice@Net@OpenHome@@AAPAV123@@Z 00404ad0 f i TestDvSubscription.obj
 0001:00003ae0       ??$_Cons_val@V?$allocator@PAVCpDevice@Net@OpenHome@@@std@@PAVCpDevice@Net@OpenHome@@PAV345@@std@@YGXAAV?$allocator@PAVCpDevice@Net@OpenHome@@@0@PAPAVCpDevice@Net@OpenHome@@$$QAPAV234@@Z 00404ae0 f i TestDvSubscription.obj
 0001:00003b10       ??$_Move@PAPAVCpDevice@Net@OpenHome@@PAPAV123@@std@@YGPAPAVCpDevice@Net@OpenHome@@PAPAV123@00@Z 00404b10 f i TestDvSubscription.obj
 0001:00003b60       ??$?0PAVCpDevice@Net@OpenHome@@@?$allocator@U_Container_proxy@std@@@std@@QAE@ABV?$allocator@PAVCpDevice@Net@OpenHome@@@1@@Z 00404b60 f i TestDvSubscription.obj
 0001:00003b80       ??$_Cons_val@V?$allocator@U_Container_proxy@std@@@std@@U_Container_proxy@2@U32@@std@@YGXAAV?$allocator@U_Container_proxy@std@@@0@PAU_Container_proxy@0@$$QAU20@@Z 00404b80 f i TestDvSubscription.obj
 0001:00003bb0       ??$_Dest_val@V?$allocator@U_Container_proxy@std@@@std@@U_Container_proxy@2@@std@@YGXAAV?$allocator@U_Container_proxy@std@@@0@PAU_Container_proxy@0@@Z 00404bb0 f i TestDvSubscription.obj
 0001:00003bd0       ??$_Umove@PAPAVCpDevice@Net@OpenHome@@@?$vector@PAVCpDevice@Net@OpenHome@@V?$allocator@PAVCpDevice@Net@OpenHome@@@std@@@std@@IAEPAPAVCpDevice@Net@OpenHome@@PAPAV234@00@Z 00404bd0 f i TestDvSubscription.obj
 0001:00003c10       ??$_Destroy_range@V?$allocator@PAVCpDevice@Net@OpenHome@@@std@@@std@@YGXPAPAVCpDevice@Net@OpenHome@@0AAV?$allocator@PAVCpDevice@Net@OpenHome@@@0@@Z 00404c10 f i TestDvSubscription.obj
 0001:00003c60       ??$_Allocate@U_Container_proxy@std@@@std@@YGPAU_Container_proxy@0@IPAU10@@Z 00404c60 f i TestDvSubscription.obj
 0001:00003ce0       ??0bad_alloc@std@@QAE@PBD@Z 00404ce0 f i TestDvSubscription.obj
 0001:00003d20       ??1bad_alloc@std@@UAE@XZ   00404d20 f i TestDvSubscription.obj
 0001:00003d50       ??_Ebad_alloc@std@@UAEPAXI@Z 00404d50 f i TestDvSubscription.obj
 0001:00003d50       ??_Gbad_alloc@std@@UAEPAXI@Z 00404d50 f i TestDvSubscription.obj
 0001:00003d90       ??$_Allocate@PAVCpDevice@Net@OpenHome@@@std@@YGPAPAVCpDevice@Net@OpenHome@@IPAPAV123@@Z 00404d90 f i TestDvSubscription.obj
 0001:00003e10       ??_E?$Bws@$09@OpenHome@@UAEPAXI@Z 00404e10 f i TestDvSubscription.obj
 0001:00003e10       ??_G?$Bws@$09@OpenHome@@UAEPAXI@Z 00404e10 f i TestDvSubscription.obj
 0001:00003e50       ??0bad_alloc@std@@QAE@ABV01@@Z 00404e50 f i TestDvSubscription.obj
 0001:00003e90       ?construct@?$allocator@PAVCpDevice@Net@OpenHome@@@std@@QAEXPAPAVCpDevice@Net@OpenHome@@$$QAPAV345@@Z 00404e90 f i TestDvSubscription.obj
 0001:00003f30       ??2@YAPAXIPAX@Z            00404f30 f i TestDvSubscription.obj
 0001:00003f40       ??3@YAXPAX0@Z              00404f40 f i TestDvSubscription.obj
 0001:00003f50       ??0?$MemberTranslator@VCpDevices@@P81@AEXXZ@OpenHome@@QAE@AAVCpDevices@@ABQ82@AEXXZ@Z 00404f50 f i TestDvSubscription.obj
 0001:00003f90       ??0Functor@OpenHome@@IAE@P6GXABV01@@ZPBX2I@Z 00404f90 f i TestDvSubscription.obj
 0001:00003fe0       ??0?$MemberTranslatorCpDevice@VCpDevices@@P81@AEXAAVCpDevice@Net@OpenHome@@@Z@Net@OpenHome@@QAE@AAVCpDevices@@ABQ83@AEXAAVCpDevice@12@@Z@Z 00404fe0 f i TestDvSubscription.obj
 0001:00004020       ??0FunctorCpDevice@Net@OpenHome@@IAE@P6GXABV012@AAVCpDevice@12@@ZPBX3I@Z 00405020 f i TestDvSubscription.obj
 0001:00004070       ?construct@?$allocator@U_Container_proxy@std@@@std@@QAEXPAU_Container_proxy@2@$$QAU32@@Z 00405070 f i TestDvSubscription.obj
 0001:00004120       ?destroy@?$allocator@U_Container_proxy@std@@@std@@QAEXPAU_Container_proxy@2@@Z 00405120 f i TestDvSubscription.obj
 0001:00004150       ?Thunk@?$MemberTranslator@VCpDevices@@P81@AEXXZ@OpenHome@@SGXABVFunctor@2@@Z 00405150 f i TestDvSubscription.obj
 0001:000041a0       ?Thunk@?$MemberTranslatorCpDevice@VCpDevices@@P81@AEXAAVCpDevice@Net@OpenHome@@@Z@Net@OpenHome@@SGXABVFunctorCpDevice@23@AAVCpDevice@23@@Z 004051a0 f i TestDvSubscription.obj
 0001:000041f0       ??$_Ptr_cat@PAVCpDevice@Net@OpenHome@@PAV123@@std@@YG?AU_Scalar_ptr_iterator_tag@0@PAPAVCpDevice@Net@OpenHome@@0@Z 004051f0 f i TestDvSubscription.obj
 0001:00004250       ??$_Move@PAPAVCpDevice@Net@OpenHome@@PAPAV123@@std@@YGPAPAVCpDevice@Net@OpenHome@@PAPAV123@00U_Scalar_ptr_iterator_tag@0@@Z 00405250 f i TestDvSubscription.obj
 0001:000042a0       ??$forward@U_Container_proxy@std@@@std@@YG$$QAU_Container_proxy@0@AAU10@@Z 004052a0 f i TestDvSubscription.obj
 0001:000042b0       ??$_Uninitialized_move@PAPAVCpDevice@Net@OpenHome@@PAPAV123@V?$allocator@PAVCpDevice@Net@OpenHome@@@std@@@std@@YGPAPAVCpDevice@Net@OpenHome@@PAPAV123@00AAV?$allocator@PAVCpDevice@Net@OpenHome@@@0@@Z 004052b0 f i TestDvSubscription.obj
 0001:00004300       ??$_Destroy_range@V?$allocator@PAVCpDevice@Net@OpenHome@@@std@@@std@@YGXPAPAVCpDevice@Net@OpenHome@@0AAV?$allocator@PAVCpDevice@Net@OpenHome@@@0@U_Scalar_ptr_iterator_tag@0@@Z 00405300 f i TestDvSubscription.obj
 0001:00004310       ??$_Destroy@U_Container_proxy@std@@@std@@YGXPAU_Container_proxy@0@@Z 00405310 f i TestDvSubscription.obj
 0001:00004320       ??$_Val_type@PAPAVCpDevice@Net@OpenHome@@@std@@YGPAPAVCpDevice@Net@OpenHome@@PAPAV123@@Z 00405320 f i TestDvSubscription.obj
 0001:00004330       ??$_Uninit_move@PAVCpDevice@Net@OpenHome@@PAV123@PAV123@@std@@YGPAPAVCpDevice@Net@OpenHome@@PAPAV123@00AAV?$allocator@PAVCpDevice@Net@OpenHome@@@0@0U_Scalar_ptr_iterator_tag@0@@Z 00405330 f i TestDvSubscription.obj
 0001:000043a0       ??$_Debug_range@PAPAVCpDevice@Net@OpenHome@@@std@@YGXPAPAVCpDevice@Net@OpenHome@@0PB_WI@Z 004053a0 f i TestDvSubscription.obj
 0001:000043f0       ??$_Debug_pointer@PAVCpDevice@Net@OpenHome@@@std@@YGXPAPAVCpDevice@Net@OpenHome@@PB_WI@Z 004053f0 f i TestDvSubscription.obj
 0001:00004420       ??$_Iter_cat@PAPAVCpDevice@Net@OpenHome@@@std@@YG?AUrandom_access_iterator_tag@0@ABQAPAVCpDevice@Net@OpenHome@@@Z 00405420 f i TestDvSubscription.obj
 0001:00004480       ??$_Debug_range2@PAPAVCpDevice@Net@OpenHome@@@std@@YGXPAPAVCpDevice@Net@OpenHome@@0PB_WIUrandom_access_iterator_tag@0@@Z 00405480 f i TestDvSubscription.obj
 0001:000044f0       ?SetPropertyVarUint@DvProviderOpenhomeOrgTestBasic1@Net@OpenHome@@QAE_NI@Z 004054f0 f   DvOpenhomeOrgTestBasic1.obj
 0001:00004530       ?GetPropertyVarUint@DvProviderOpenhomeOrgTestBasic1@Net@OpenHome@@QAEXAAI@Z 00405530 f   DvOpenhomeOrgTestBasic1.obj
 0001:00004560       ?SetPropertyVarInt@DvProviderOpenhomeOrgTestBasic1@Net@OpenHome@@QAE_NH@Z 00405560 f   DvOpenhomeOrgTestBasic1.obj
 0001:000045a0       ?GetPropertyVarInt@DvProviderOpenhomeOrgTestBasic1@Net@OpenHome@@QAEXAAH@Z 004055a0 f   DvOpenhomeOrgTestBasic1.obj
 0001:000045d0       ?SetPropertyVarBool@DvProviderOpenhomeOrgTestBasic1@Net@OpenHome@@QAE_N_N@Z 004055d0 f   DvOpenhomeOrgTestBasic1.obj
 0001:00004610       ?GetPropertyVarBool@DvProviderOpenhomeOrgTestBasic1@Net@OpenHome@@QAEXAA_N@Z 00405610 f   DvOpenhomeOrgTestBasic1.obj
 0001:00004640       ?SetPropertyVarStr@DvProviderOpenhomeOrgTestBasic1@Net@OpenHome@@QAE_NABVBrx@3@@Z 00405640 f   DvOpenhomeOrgTestBasic1.obj
 0001:00004680       ?GetPropertyVarStr@DvProviderOpenhomeOrgTestBasic1@Net@OpenHome@@QAEXAAVBrhz@3@@Z 00405680 f   DvOpenhomeOrgTestBasic1.obj
 0001:000046c0       ?SetPropertyVarBin@DvProviderOpenhomeOrgTestBasic1@Net@OpenHome@@QAE_NABVBrx@3@@Z 004056c0 f   DvOpenhomeOrgTestBasic1.obj
 0001:00004700       ?GetPropertyVarBin@DvProviderOpenhomeOrgTestBasic1@Net@OpenHome@@QAEXAAVBrh@3@@Z 00405700 f   DvOpenhomeOrgTestBasic1.obj
 0001:00004740       ??0DvProviderOpenhomeOrgTestBasic1@Net@OpenHome@@IAE@AAVDvDevice@12@@Z 00405740 f   DvOpenhomeOrgTestBasic1.obj
 0001:00004ac0       ?EnableActionIncrement@DvProviderOpenhomeOrgTestBasic1@Net@OpenHome@@IAEXXZ 00405ac0 f   DvOpenhomeOrgTestBasic1.obj
 0001:00004c90       ?EnableActionDecrement@DvProviderOpenhomeOrgTestBasic1@Net@OpenHome@@IAEXXZ 00405c90 f   DvOpenhomeOrgTestBasic1.obj
 0001:00004e70       ?EnableActionToggle@DvProviderOpenhomeOrgTestBasic1@Net@OpenHome@@IAEXXZ 00405e70 f   DvOpenhomeOrgTestBasic1.obj
 0001:00005030       ?EnableActionEchoString@DvProviderOpenhomeOrgTestBasic1@Net@OpenHome@@IAEXXZ 00406030 f   DvOpenhomeOrgTestBasic1.obj
 0001:000051f0       ?EnableActionEchoBinary@DvProviderOpenhomeOrgTestBasic1@Net@OpenHome@@IAEXXZ 004061f0 f   DvOpenhomeOrgTestBasic1.obj
 0001:000053b0       ?EnableActionSetUint@DvProviderOpenhomeOrgTestBasic1@Net@OpenHome@@IAEXXZ 004063b0 f   DvOpenhomeOrgTestBasic1.obj
 0001:00005530       ?EnableActionGetUint@DvProviderOpenhomeOrgTestBasic1@Net@OpenHome@@IAEXXZ 00406530 f   DvOpenhomeOrgTestBasic1.obj
 0001:000056b0       ?EnableActionSetInt@DvProviderOpenhomeOrgTestBasic1@Net@OpenHome@@IAEXXZ 004066b0 f   DvOpenhomeOrgTestBasic1.obj
 0001:00005830       ?EnableActionGetInt@DvProviderOpenhomeOrgTestBasic1@Net@OpenHome@@IAEXXZ 00406830 f   DvOpenhomeOrgTestBasic1.obj
 0001:000059b0       ?EnableActionSetBool@DvProviderOpenhomeOrgTestBasic1@Net@OpenHome@@IAEXXZ 004069b0 f   DvOpenhomeOrgTestBasic1.obj
 0001:00005b30       ?EnableActionGetBool@DvProviderOpenhomeOrgTestBasic1@Net@OpenHome@@IAEXXZ 00406b30 f   DvOpenhomeOrgTestBasic1.obj
 0001:00005cb0       ?EnableActionSetMultiple@DvProviderOpenhomeOrgTestBasic1@Net@OpenHome@@IAEXXZ 00406cb0 f   DvOpenhomeOrgTestBasic1.obj
 0001:00005ed0       ?EnableActionSetString@DvProviderOpenhomeOrgTestBasic1@Net@OpenHome@@IAEXXZ 00406ed0 f   DvOpenhomeOrgTestBasic1.obj
 0001:00006050       ?EnableActionGetString@DvProviderOpenhomeOrgTestBasic1@Net@OpenHome@@IAEXXZ 00407050 f   DvOpenhomeOrgTestBasic1.obj
 0001:000061d0       ?EnableActionSetBinary@DvProviderOpenhomeOrgTestBasic1@Net@OpenHome@@IAEXXZ 004071d0 f   DvOpenhomeOrgTestBasic1.obj
 0001:00006350       ?EnableActionGetBinary@DvProviderOpenhomeOrgTestBasic1@Net@OpenHome@@IAEXXZ 00407350 f   DvOpenhomeOrgTestBasic1.obj
 0001:000064d0       ?EnableActionToggleBool@DvProviderOpenhomeOrgTestBasic1@Net@OpenHome@@IAEXXZ 004074d0 f   DvOpenhomeOrgTestBasic1.obj
 0001:00006600       ?EnableActionWriteFile@DvProviderOpenhomeOrgTestBasic1@Net@OpenHome@@IAEXXZ 00407600 f   DvOpenhomeOrgTestBasic1.obj
 0001:000067c0       ?EnableActionShutdown@DvProviderOpenhomeOrgTestBasic1@Net@OpenHome@@IAEXXZ 004077c0 f   DvOpenhomeOrgTestBasic1.obj
 0001:000068f0       ?DoIncrement@DvProviderOpenhomeOrgTestBasic1@Net@OpenHome@@AAEXAAVIDviInvocation@23@I@Z 004078f0 f   DvOpenhomeOrgTestBasic1.obj
 0001:00006a40       ?DoDecrement@DvProviderOpenhomeOrgTestBasic1@Net@OpenHome@@AAEXAAVIDviInvocation@23@I@Z 00407a40 f   DvOpenhomeOrgTestBasic1.obj
 0001:00006b90       ?DoToggle@DvProviderOpenhomeOrgTestBasic1@Net@OpenHome@@AAEXAAVIDviInvocation@23@I@Z 00407b90 f   DvOpenhomeOrgTestBasic1.obj
 0001:00006ce0       ?DoEchoString@DvProviderOpenhomeOrgTestBasic1@Net@OpenHome@@AAEXAAVIDviInvocation@23@I@Z 00407ce0 f   DvOpenhomeOrgTestBasic1.obj
 0001:00006e60       ?DoEchoBinary@DvProviderOpenhomeOrgTestBasic1@Net@OpenHome@@AAEXAAVIDviInvocation@23@I@Z 00407e60 f   DvOpenhomeOrgTestBasic1.obj
 0001:00006fe0       ?DoSetUint@DvProviderOpenhomeOrgTestBasic1@Net@OpenHome@@AAEXAAVIDviInvocation@23@I@Z 00407fe0 f   DvOpenhomeOrgTestBasic1.obj
 0001:00007100       ?DoGetUint@DvProviderOpenhomeOrgTestBasic1@Net@OpenHome@@AAEXAAVIDviInvocation@23@I@Z 00408100 f   DvOpenhomeOrgTestBasic1.obj
 0001:00007230       ?DoSetInt@DvProviderOpenhomeOrgTestBasic1@Net@OpenHome@@AAEXAAVIDviInvocation@23@I@Z 00408230 f   DvOpenhomeOrgTestBasic1.obj
 0001:00007350       ?DoGetInt@DvProviderOpenhomeOrgTestBasic1@Net@OpenHome@@AAEXAAVIDviInvocation@23@I@Z 00408350 f   DvOpenhomeOrgTestBasic1.obj
 0001:00007480       ?DoSetBool@DvProviderOpenhomeOrgTestBasic1@Net@OpenHome@@AAEXAAVIDviInvocation@23@I@Z 00408480 f   DvOpenhomeOrgTestBasic1.obj
 0001:000075a0       ?DoGetBool@DvProviderOpenhomeOrgTestBasic1@Net@OpenHome@@AAEXAAVIDviInvocation@23@I@Z 004085a0 f   DvOpenhomeOrgTestBasic1.obj
 0001:000076d0       ?DoSetMultiple@DvProviderOpenhomeOrgTestBasic1@Net@OpenHome@@AAEXAAVIDviInvocation@23@I@Z 004086d0 f   DvOpenhomeOrgTestBasic1.obj
 0001:00007840       ?DoSetString@DvProviderOpenhomeOrgTestBasic1@Net@OpenHome@@AAEXAAVIDviInvocation@23@I@Z 00408840 f   DvOpenhomeOrgTestBasic1.obj
 0001:00007980       ?DoGetString@DvProviderOpenhomeOrgTestBasic1@Net@OpenHome@@AAEXAAVIDviInvocation@23@I@Z 00408980 f   DvOpenhomeOrgTestBasic1.obj
 0001:00007ab0       ?DoSetBinary@DvProviderOpenhomeOrgTestBasic1@Net@OpenHome@@AAEXAAVIDviInvocation@23@I@Z 00408ab0 f   DvOpenhomeOrgTestBasic1.obj
 0001:00007bf0       ?DoGetBinary@DvProviderOpenhomeOrgTestBasic1@Net@OpenHome@@AAEXAAVIDviInvocation@23@I@Z 00408bf0 f   DvOpenhomeOrgTestBasic1.obj
 0001:00007d20       ?DoToggleBool@DvProviderOpenhomeOrgTestBasic1@Net@OpenHome@@AAEXAAVIDviInvocation@23@I@Z 00408d20 f   DvOpenhomeOrgTestBasic1.obj
 0001:00007e20       ?DoWriteFile@DvProviderOpenhomeOrgTestBasic1@Net@OpenHome@@AAEXAAVIDviInvocation@23@I@Z 00408e20 f   DvOpenhomeOrgTestBasic1.obj
 0001:00007fb0       ?DoShutdown@DvProviderOpenhomeOrgTestBasic1@Net@OpenHome@@AAEXAAVIDviInvocation@23@I@Z 00408fb0 f   DvOpenhomeOrgTestBasic1.obj
 0001:000080b0       ?Increment@DvProviderOpenhomeOrgTestBasic1@Net@OpenHome@@EAEXAAVIInvocationResponse@23@IIAAVIInvocationResponseUint@23@@Z 004090b0 f   DvOpenhomeOrgTestBasic1.obj
 0001:000080e0       ?Decrement@DvProviderOpenhomeOrgTestBasic1@Net@OpenHome@@EAEXAAVIInvocationResponse@23@IHAAVIInvocationResponseInt@23@@Z 004090e0 f   DvOpenhomeOrgTestBasic1.obj
 0001:00008110       ?Toggle@DvProviderOpenhomeOrgTestBasic1@Net@OpenHome@@EAEXAAVIInvocationResponse@23@I_NAAVIInvocationResponseBool@23@@Z 00409110 f   DvOpenhomeOrgTestBasic1.obj
 0001:00008140       ?EchoString@DvProviderOpenhomeOrgTestBasic1@Net@OpenHome@@EAEXAAVIInvocationResponse@23@IABVBrx@3@AAVIInvocationResponseString@23@@Z 00409140 f   DvOpenhomeOrgTestBasic1.obj
 0001:00008170       ?EchoBinary@DvProviderOpenhomeOrgTestBasic1@Net@OpenHome@@EAEXAAVIInvocationResponse@23@IABVBrx@3@AAVIInvocationResponseBinary@23@@Z 00409170 f   DvOpenhomeOrgTestBasic1.obj
 0001:000081a0       ?SetUint@DvProviderOpenhomeOrgTestBasic1@Net@OpenHome@@EAEXAAVIInvocationResponse@23@II@Z 004091a0 f   DvOpenhomeOrgTestBasic1.obj
 0001:000081d0       ?GetUint@DvProviderOpenhomeOrgTestBasic1@Net@OpenHome@@EAEXAAVIInvocationResponse@23@IAAVIInvocationResponseUint@23@@Z 004091d0 f   DvOpenhomeOrgTestBasic1.obj
 0001:00008200       ?SetInt@DvProviderOpenhomeOrgTestBasic1@Net@OpenHome@@EAEXAAVIInvocationResponse@23@IH@Z 00409200 f   DvOpenhomeOrgTestBasic1.obj
 0001:00008230       ?GetInt@DvProviderOpenhomeOrgTestBasic1@Net@OpenHome@@EAEXAAVIInvocationResponse@23@IAAVIInvocationResponseInt@23@@Z 00409230 f   DvOpenhomeOrgTestBasic1.obj
 0001:00008260       ?SetBool@DvProviderOpenhomeOrgTestBasic1@Net@OpenHome@@EAEXAAVIInvocationResponse@23@I_N@Z 00409260 f   DvOpenhomeOrgTestBasic1.obj
 0001:00008290       ?GetBool@DvProviderOpenhomeOrgTestBasic1@Net@OpenHome@@EAEXAAVIInvocationResponse@23@IAAVIInvocationResponseBool@23@@Z 00409290 f   DvOpenhomeOrgTestBasic1.obj
 0001:000082c0       ?SetMultiple@DvProviderOpenhomeOrgTestBasic1@Net@OpenHome@@EAEXAAVIInvocationResponse@23@IIH_N@Z 004092c0 f   DvOpenhomeOrgTestBasic1.obj
 0001:000082f0       ?SetString@DvProviderOpenhomeOrgTestBasic1@Net@OpenHome@@EAEXAAVIInvocationResponse@23@IABVBrx@3@@Z 004092f0 f   DvOpenhomeOrgTestBasic1.obj
 0001:00008320       ?GetString@DvProviderOpenhomeOrgTestBasic1@Net@OpenHome@@EAEXAAVIInvocationResponse@23@IAAVIInvocationResponseString@23@@Z 00409320 f   DvOpenhomeOrgTestBasic1.obj
 0001:00008350       ?SetBinary@DvProviderOpenhomeOrgTestBasic1@Net@OpenHome@@EAEXAAVIInvocationResponse@23@IABVBrx@3@@Z 00409350 f   DvOpenhomeOrgTestBasic1.obj
 0001:00008380       ?GetBinary@DvProviderOpenhomeOrgTestBasic1@Net@OpenHome@@EAEXAAVIInvocationResponse@23@IAAVIInvocationResponseBinary@23@@Z 00409380 f   DvOpenhomeOrgTestBasic1.obj
 0001:000083b0       ?ToggleBool@DvProviderOpenhomeOrgTestBasic1@Net@OpenHome@@EAEXAAVIInvocationResponse@23@I@Z 004093b0 f   DvOpenhomeOrgTestBasic1.obj
 0001:000083e0       ?WriteFile@DvProviderOpenhomeOrgTestBasic1@Net@OpenHome@@EAEXAAVIInvocationResponse@23@IABVBrx@3@1@Z 004093e0 f   DvOpenhomeOrgTestBasic1.obj
 0001:00008410       ?Shutdown@DvProviderOpenhomeOrgTestBasic1@Net@OpenHome@@EAEXAAVIInvocationResponse@23@I@Z 00409410 f   DvOpenhomeOrgTestBasic1.obj
 0001:00008440       ?Set@Brhz@OpenHome@@QAEXABVBrx@2@@Z 00409440 f i DvOpenhomeOrgTestBasic1.obj
 0001:00008490       ?Set@Brh@OpenHome@@QAEXABVBrx@2@@Z 00409490 f i DvOpenhomeOrgTestBasic1.obj
 0001:000084e0       ??1InvocationResponse@Net@OpenHome@@UAE@XZ 004094e0 f i DvOpenhomeOrgTestBasic1.obj
 0001:00008510       ??1IInvocationResponse@Net@OpenHome@@UAE@XZ 00409510 f i DvOpenhomeOrgTestBasic1.obj
 0001:00008530       ??_GIInvocationResponse@Net@OpenHome@@UAEPAXI@Z 00409530 f i DvOpenhomeOrgTestBasic1.obj
 0001:00008530       ??_EIInvocationResponse@Net@OpenHome@@UAEPAXI@Z 00409530 f i DvOpenhomeOrgTestBasic1.obj
 0001:00008570       ??1InvocationResponseUint@Net@OpenHome@@UAE@XZ 00409570 f i DvOpenhomeOrgTestBasic1.obj
 0001:000085a0       ??1IInvocationResponseUint@Net@OpenHome@@UAE@XZ 004095a0 f i DvOpenhomeOrgTestBasic1.obj
 0001:000085c0       ??_GIInvocationResponseUint@Net@OpenHome@@UAEPAXI@Z 004095c0 f i DvOpenhomeOrgTestBasic1.obj
 0001:000085c0       ??_EIInvocationResponseUint@Net@OpenHome@@UAEPAXI@Z 004095c0 f i DvOpenhomeOrgTestBasic1.obj
 0001:00008600       ??1InvocationResponseInt@Net@OpenHome@@UAE@XZ 00409600 f i DvOpenhomeOrgTestBasic1.obj
 0001:00008630       ??1IInvocationResponseInt@Net@OpenHome@@UAE@XZ 00409630 f i DvOpenhomeOrgTestBasic1.obj
 0001:00008650       ??_GIInvocationResponseInt@Net@OpenHome@@UAEPAXI@Z 00409650 f i DvOpenhomeOrgTestBasic1.obj
 0001:00008650       ??_EIInvocationResponseInt@Net@OpenHome@@UAEPAXI@Z 00409650 f i DvOpenhomeOrgTestBasic1.obj
 0001:00008690       ??1InvocationResponseBool@Net@OpenHome@@UAE@XZ 00409690 f i DvOpenhomeOrgTestBasic1.obj
 0001:000086c0       ??1IInvocationResponseBool@Net@OpenHome@@UAE@XZ 004096c0 f i DvOpenhomeOrgTestBasic1.obj
 0001:000086e0       ??_GIInvocationResponseBool@Net@OpenHome@@UAEPAXI@Z 004096e0 f i DvOpenhomeOrgTestBasic1.obj
 0001:000086e0       ??_EIInvocationResponseBool@Net@OpenHome@@UAEPAXI@Z 004096e0 f i DvOpenhomeOrgTestBasic1.obj
 0001:00008720       ??1InvocationResponseString@Net@OpenHome@@UAE@XZ 00409720 f i DvOpenhomeOrgTestBasic1.obj
 0001:00008750       ??1IInvocationResponseString@Net@OpenHome@@UAE@XZ 00409750 f i DvOpenhomeOrgTestBasic1.obj
 0001:00008780       ??1IWriter@OpenHome@@UAE@XZ 00409780 f i DvOpenhomeOrgTestBasic1.obj
 0001:000087a0       ??_GIWriter@OpenHome@@UAEPAXI@Z 004097a0 f i DvOpenhomeOrgTestBasic1.obj
 0001:000087a0       ??_EIWriter@OpenHome@@UAEPAXI@Z 004097a0 f i DvOpenhomeOrgTestBasic1.obj
 0001:000087e0       ??_GIInvocationResponseString@Net@OpenHome@@UAEPAXI@Z 004097e0 f i DvOpenhomeOrgTestBasic1.obj
 0001:000087e0       ??_EIInvocationResponseString@Net@OpenHome@@UAEPAXI@Z 004097e0 f i DvOpenhomeOrgTestBasic1.obj
 0001:00008820       ??1InvocationResponseBinary@Net@OpenHome@@UAE@XZ 00409820 f i DvOpenhomeOrgTestBasic1.obj
 0001:00008850       ??1IInvocationResponseBinary@Net@OpenHome@@UAE@XZ 00409850 f i DvOpenhomeOrgTestBasic1.obj
 0001:00008880       ??_GIInvocationResponseBinary@Net@OpenHome@@UAEPAXI@Z 00409880 f i DvOpenhomeOrgTestBasic1.obj
 0001:00008880       ??_EIInvocationResponseBinary@Net@OpenHome@@UAEPAXI@Z 00409880 f i DvOpenhomeOrgTestBasic1.obj
 0001:000088c0       ??$MakeFunctorDviInvocation@VDvProviderOpenhomeOrgTestBasic1@Net@OpenHome@@V123@@Net@OpenHome@@YG?AV?$MemberTranslatorDviInvocation@VDvProviderOpenhomeOrgTestBasic1@Net@OpenHome@@P8123@AEXAAVIDviInvocation@23@I@Z@01@AAVDvProviderOpenhomeOrgTestBasic1@01@ABQ8301@AEXAAVIDviInvocation@01@I@Z@Z 004098c0 f i DvOpenhomeOrgTestBasic1.obj
 0001:000088f0       ??0?$MemberTranslatorDviInvocation@VDvProviderOpenhomeOrgTestBasic1@Net@OpenHome@@P8123@AEXAAVIDviInvocation@23@I@Z@Net@OpenHome@@QAE@AAVDvProviderOpenhomeOrgTestBasic1@12@ABQ8312@AEXAAVIDviInvocation@12@I@Z@Z 004098f0 f i DvOpenhomeOrgTestBasic1.obj
 0001:00008930       ??0FunctorDviInvocation@Net@OpenHome@@IAE@P6GXABV012@AAVIDviInvocation@12@I@ZPBX3I@Z 00409930 f i DvOpenhomeOrgTestBasic1.obj
 0001:00008980       ?Thunk@?$MemberTranslatorDviInvocation@VDvProviderOpenhomeOrgTestBasic1@Net@OpenHome@@P8123@AEXAAVIDviInvocation@23@I@Z@Net@OpenHome@@SGXABVFunctorDviInvocation@23@AAVIDviInvocation@23@I@Z 00409980 f i DvOpenhomeOrgTestBasic1.obj
 0001:000089d0       ??0SyncIncrementOpenhomeOrgTestBasic1@@QAE@AAVCpProxyOpenhomeOrgTestBasic1@Net@OpenHome@@AAI@Z 004099d0 f   CpOpenhomeOrgTestBasic1.obj
 0001:00008a20       ?CompleteRequest@SyncIncrementOpenhomeOrgTestBasic1@@UAEXAAVIAsync@Net@OpenHome@@@Z 00409a20 f   CpOpenhomeOrgTestBasic1.obj
 0001:00008a60       ??0SyncDecrementOpenhomeOrgTestBasic1@@QAE@AAVCpProxyOpenhomeOrgTestBasic1@Net@OpenHome@@AAH@Z 00409a60 f   CpOpenhomeOrgTestBasic1.obj
 0001:00008ab0       ?CompleteRequest@SyncDecrementOpenhomeOrgTestBasic1@@UAEXAAVIAsync@Net@OpenHome@@@Z 00409ab0 f   CpOpenhomeOrgTestBasic1.obj
 0001:00008af0       ??0SyncToggleOpenhomeOrgTestBasic1@@QAE@AAVCpProxyOpenhomeOrgTestBasic1@Net@OpenHome@@AA_N@Z 00409af0 f   CpOpenhomeOrgTestBasic1.obj
 0001:00008b40       ?CompleteRequest@SyncToggleOpenhomeOrgTestBasic1@@UAEXAAVIAsync@Net@OpenHome@@@Z 00409b40 f   CpOpenhomeOrgTestBasic1.obj
 0001:00008b80       ??0SyncEchoStringOpenhomeOrgTestBasic1@@QAE@AAVCpProxyOpenhomeOrgTestBasic1@Net@OpenHome@@AAVBrh@3@@Z 00409b80 f   CpOpenhomeOrgTestBasic1.obj
 0001:00008bd0       ?CompleteRequest@SyncEchoStringOpenhomeOrgTestBasic1@@UAEXAAVIAsync@Net@OpenHome@@@Z 00409bd0 f   CpOpenhomeOrgTestBasic1.obj
 0001:00008c10       ??0SyncEchoBinaryOpenhomeOrgTestBasic1@@QAE@AAVCpProxyOpenhomeOrgTestBasic1@Net@OpenHome@@AAVBrh@3@@Z 00409c10 f   CpOpenhomeOrgTestBasic1.obj
 0001:00008c60       ?CompleteRequest@SyncEchoBinaryOpenhomeOrgTestBasic1@@UAEXAAVIAsync@Net@OpenHome@@@Z 00409c60 f   CpOpenhomeOrgTestBasic1.obj
 0001:00008ca0       ??0SyncSetUintOpenhomeOrgTestBasic1@@QAE@AAVCpProxyOpenhomeOrgTestBasic1@Net@OpenHome@@@Z 00409ca0 f   CpOpenhomeOrgTestBasic1.obj
 0001:00008ce0       ?CompleteRequest@SyncSetUintOpenhomeOrgTestBasic1@@UAEXAAVIAsync@Net@OpenHome@@@Z 00409ce0 f   CpOpenhomeOrgTestBasic1.obj
 0001:00008d10       ??0SyncGetUintOpenhomeOrgTestBasic1@@QAE@AAVCpProxyOpenhomeOrgTestBasic1@Net@OpenHome@@AAI@Z 00409d10 f   CpOpenhomeOrgTestBasic1.obj
 0001:00008d60       ?CompleteRequest@SyncGetUintOpenhomeOrgTestBasic1@@UAEXAAVIAsync@Net@OpenHome@@@Z 00409d60 f   CpOpenhomeOrgTestBasic1.obj
 0001:00008da0       ??0SyncSetIntOpenhomeOrgTestBasic1@@QAE@AAVCpProxyOpenhomeOrgTestBasic1@Net@OpenHome@@@Z 00409da0 f   CpOpenhomeOrgTestBasic1.obj
 0001:00008de0       ?CompleteRequest@SyncSetIntOpenhomeOrgTestBasic1@@UAEXAAVIAsync@Net@OpenHome@@@Z 00409de0 f   CpOpenhomeOrgTestBasic1.obj
 0001:00008e10       ??0SyncGetIntOpenhomeOrgTestBasic1@@QAE@AAVCpProxyOpenhomeOrgTestBasic1@Net@OpenHome@@AAH@Z 00409e10 f   CpOpenhomeOrgTestBasic1.obj
 0001:00008e60       ?CompleteRequest@SyncGetIntOpenhomeOrgTestBasic1@@UAEXAAVIAsync@Net@OpenHome@@@Z 00409e60 f   CpOpenhomeOrgTestBasic1.obj
 0001:00008ea0       ??0SyncSetBoolOpenhomeOrgTestBasic1@@QAE@AAVCpProxyOpenhomeOrgTestBasic1@Net@OpenHome@@@Z 00409ea0 f   CpOpenhomeOrgTestBasic1.obj
 0001:00008ee0       ?CompleteRequest@SyncSetBoolOpenhomeOrgTestBasic1@@UAEXAAVIAsync@Net@OpenHome@@@Z 00409ee0 f   CpOpenhomeOrgTestBasic1.obj
 0001:00008f10       ??0SyncGetBoolOpenhomeOrgTestBasic1@@QAE@AAVCpProxyOpenhomeOrgTestBasic1@Net@OpenHome@@AA_N@Z 00409f10 f   CpOpenhomeOrgTestBasic1.obj
 0001:00008f60       ?CompleteRequest@SyncGetBoolOpenhomeOrgTestBasic1@@UAEXAAVIAsync@Net@OpenHome@@@Z 00409f60 f   CpOpenhomeOrgTestBasic1.obj
 0001:00008fa0       ??0SyncSetMultipleOpenhomeOrgTestBasic1@@QAE@AAVCpProxyOpenhomeOrgTestBasic1@Net@OpenHome@@@Z 00409fa0 f   CpOpenhomeOrgTestBasic1.obj
 0001:00008fe0       ?CompleteRequest@SyncSetMultipleOpenhomeOrgTestBasic1@@UAEXAAVIAsync@Net@OpenHome@@@Z 00409fe0 f   CpOpenhomeOrgTestBasic1.obj
 0001:00009010       ??0SyncSetStringOpenhomeOrgTestBasic1@@QAE@AAVCpProxyOpenhomeOrgTestBasic1@Net@OpenHome@@@Z 0040a010 f   CpOpenhomeOrgTestBasic1.obj
 0001:00009050       ?CompleteRequest@SyncSetStringOpenhomeOrgTestBasic1@@UAEXAAVIAsync@Net@OpenHome@@@Z 0040a050 f   CpOpenhomeOrgTestBasic1.obj
 0001:00009080       ??0SyncGetStringOpenhomeOrgTestBasic1@@QAE@AAVCpProxyOpenhomeOrgTestBasic1@Net@OpenHome@@AAVBrh@3@@Z 0040a080 f   CpOpenhomeOrgTestBasic1.obj
 0001:000090d0       ?CompleteRequest@SyncGetStringOpenhomeOrgTestBasic1@@UAEXAAVIAsync@Net@OpenHome@@@Z 0040a0d0 f   CpOpenhomeOrgTestBasic1.obj
 0001:00009110       ??0SyncSetBinaryOpenhomeOrgTestBasic1@@QAE@AAVCpProxyOpenhomeOrgTestBasic1@Net@OpenHome@@@Z 0040a110 f   CpOpenhomeOrgTestBasic1.obj
 0001:00009150       ?CompleteRequest@SyncSetBinaryOpenhomeOrgTestBasic1@@UAEXAAVIAsync@Net@OpenHome@@@Z 0040a150 f   CpOpenhomeOrgTestBasic1.obj
 0001:00009180       ??0SyncGetBinaryOpenhomeOrgTestBasic1@@QAE@AAVCpProxyOpenhomeOrgTestBasic1@Net@OpenHome@@AAVBrh@3@@Z 0040a180 f   CpOpenhomeOrgTestBasic1.obj
 0001:000091d0       ?CompleteRequest@SyncGetBinaryOpenhomeOrgTestBasic1@@UAEXAAVIAsync@Net@OpenHome@@@Z 0040a1d0 f   CpOpenhomeOrgTestBasic1.obj
 0001:00009210       ??0SyncToggleBoolOpenhomeOrgTestBasic1@@QAE@AAVCpProxyOpenhomeOrgTestBasic1@Net@OpenHome@@@Z 0040a210 f   CpOpenhomeOrgTestBasic1.obj
 0001:00009250       ?CompleteRequest@SyncToggleBoolOpenhomeOrgTestBasic1@@UAEXAAVIAsync@Net@OpenHome@@@Z 0040a250 f   CpOpenhomeOrgTestBasic1.obj
 0001:00009280       ??0SyncWriteFileOpenhomeOrgTestBasic1@@QAE@AAVCpProxyOpenhomeOrgTestBasic1@Net@OpenHome@@@Z 0040a280 f   CpOpenhomeOrgTestBasic1.obj
 0001:000092c0       ?CompleteRequest@SyncWriteFileOpenhomeOrgTestBasic1@@UAEXAAVIAsync@Net@OpenHome@@@Z 0040a2c0 f   CpOpenhomeOrgTestBasic1.obj
 0001:000092f0       ??0SyncShutdownOpenhomeOrgTestBasic1@@QAE@AAVCpProxyOpenhomeOrgTestBasic1@Net@OpenHome@@@Z 0040a2f0 f   CpOpenhomeOrgTestBasic1.obj
 0001:00009330       ?CompleteRequest@SyncShutdownOpenhomeOrgTestBasic1@@UAEXAAVIAsync@Net@OpenHome@@@Z 0040a330 f   CpOpenhomeOrgTestBasic1.obj
 0001:00009360       ??0CpProxyOpenhomeOrgTestBasic1@Net@OpenHome@@QAE@AAVCpDevice@12@@Z 0040a360 f   CpOpenhomeOrgTestBasic1.obj
 0001:0000a8a0       ??1CpProxyOpenhomeOrgTestBasic1@Net@OpenHome@@UAE@XZ 0040b8a0 f   CpOpenhomeOrgTestBasic1.obj
 0001:0000ad30       ?SyncIncrement@CpProxyOpenhomeOrgTestBasic1@Net@OpenHome@@QAEXIAAI@Z 0040bd30 f   CpOpenhomeOrgTestBasic1.obj
 0001:0000ae00       ?BeginIncrement@CpProxyOpenhomeOrgTestBasic1@Net@OpenHome@@QAEXIAAVFunctorAsync@23@@Z 0040be00 f   CpOpenhomeOrgTestBasic1.obj
 0001:0000af90       ?EndIncrement@CpProxyOpenhomeOrgTestBasic1@Net@OpenHome@@QAEXAAVIAsync@23@AAI@Z 0040bf90 f   CpOpenhomeOrgTestBasic1.obj
 0001:0000b120       ?SyncDecrement@CpProxyOpenhomeOrgTestBasic1@Net@OpenHome@@QAEXHAAH@Z 0040c120 f   CpOpenhomeOrgTestBasic1.obj
 0001:0000b1f0       ?BeginDecrement@CpProxyOpenhomeOrgTestBasic1@Net@OpenHome@@QAEXHAAVFunctorAsync@23@@Z 0040c1f0 f   CpOpenhomeOrgTestBasic1.obj
 0001:0000b380       ?EndDecrement@CpProxyOpenhomeOrgTestBasic1@Net@OpenHome@@QAEXAAVIAsync@23@AAH@Z 0040c380 f   CpOpenhomeOrgTestBasic1.obj
 0001:0000b510       ?SyncToggle@CpProxyOpenhomeOrgTestBasic1@Net@OpenHome@@QAEX_NAA_N@Z 0040c510 f   CpOpenhomeOrgTestBasic1.obj
 0001:0000b5e0       ?BeginToggle@CpProxyOpenhomeOrgTestBasic1@Net@OpenHome@@QAEX_NAAVFunctorAsync@23@@Z 0040c5e0 f   CpOpenhomeOrgTestBasic1.obj
 0001:0000b770       ?EndToggle@CpProxyOpenhomeOrgTestBasic1@Net@OpenHome@@QAEXAAVIAsync@23@AA_N@Z 0040c770 f   CpOpenhomeOrgTestBasic1.obj
 0001:0000b900       ?SyncEchoString@CpProxyOpenhomeOrgTestBasic1@Net@OpenHome@@QAEXABVBrx@3@AAVBrh@3@@Z 0040c900 f   CpOpenhomeOrgTestBasic1.obj
 0001:0000b9d0       ?BeginEchoString@CpProxyOpenhomeOrgTestBasic1@Net@OpenHome@@QAEXABVBrx@3@AAVFunctorAsync@23@@Z 0040c9d0 f   CpOpenhomeOrgTestBasic1.obj
 0001:0000bb60       ?EndEchoString@CpProxyOpenhomeOrgTestBasic1@Net@OpenHome@@QAEXAAVIAsync@23@AAVBrh@3@@Z 0040cb60 f   CpOpenhomeOrgTestBasic1.obj
 0001:0000bcf0       ?SyncEchoBinary@CpProxyOpenhomeOrgTestBasic1@Net@OpenHome@@QAEXABVBrx@3@AAVBrh@3@@Z 0040ccf0 f   CpOpenhomeOrgTestBasic1.obj
 0001:0000bdc0       ?BeginEchoBinary@CpProxyOpenhomeOrgTestBasic1@Net@OpenHome@@QAEXABVBrx@3@AAVFunctorAsync@23@@Z 0040cdc0 f   CpOpenhomeOrgTestBasic1.obj
 0001:0000bf50       ?EndEchoBinary@CpProxyOpenhomeOrgTestBasic1@Net@OpenHome@@QAEXAAVIAsync@23@AAVBrh@3@@Z 0040cf50 f   CpOpenhomeOrgTestBasic1.obj
 0001:0000c0e0       ?SyncSetUint@CpProxyOpenhomeOrgTestBasic1@Net@OpenHome@@QAEXI@Z 0040d0e0 f   CpOpenhomeOrgTestBasic1.obj
 0001:0000c1b0       ?BeginSetUint@CpProxyOpenhomeOrgTestBasic1@Net@OpenHome@@QAEXIAAVFunctorAsync@23@@Z 0040d1b0 f   CpOpenhomeOrgTestBasic1.obj
 0001:0000c2d0       ?EndSetUint@CpProxyOpenhomeOrgTestBasic1@Net@OpenHome@@QAEXAAVIAsync@23@@Z 0040d2d0 f   CpOpenhomeOrgTestBasic1.obj
 0001:0000c430       ?SyncGetUint@CpProxyOpenhomeOrgTestBasic1@Net@OpenHome@@QAEXAAI@Z 0040d430 f   CpOpenhomeOrgTestBasic1.obj
 0001:0000c500       ?BeginGetUint@CpProxyOpenhomeOrgTestBasic1@Net@OpenHome@@QAEXAAVFunctorAsync@23@@Z 0040d500 f   CpOpenhomeOrgTestBasic1.obj
 0001:0000c620       ?EndGetUint@CpProxyOpenhomeOrgTestBasic1@Net@OpenHome@@QAEXAAVIAsync@23@AAI@Z 0040d620 f   CpOpenhomeOrgTestBasic1.obj
 0001:0000c7b0       ?SyncSetInt@CpProxyOpenhomeOrgTestBasic1@Net@OpenHome@@QAEXH@Z 0040d7b0 f   CpOpenhomeOrgTestBasic1.obj
 0001:0000c880       ?BeginSetInt@CpProxyOpenhomeOrgTestBasic1@Net@OpenHome@@QAEXHAAVFunctorAsync@23@@Z 0040d880 f   CpOpenhomeOrgTestBasic1.obj
 0001:0000c9a0       ?EndSetInt@CpProxyOpenhomeOrgTestBasic1@Net@OpenHome@@QAEXAAVIAsync@23@@Z 0040d9a0 f   CpOpenhomeOrgTestBasic1.obj
 0001:0000cb00       ?SyncGetInt@CpProxyOpenhomeOrgTestBasic1@Net@OpenHome@@QAEXAAH@Z 0040db00 f   CpOpenhomeOrgTestBasic1.obj
 0001:0000cbd0       ?BeginGetInt@CpProxyOpenhomeOrgTestBasic1@Net@OpenHome@@QAEXAAVFunctorAsync@23@@Z 0040dbd0 f   CpOpenhomeOrgTestBasic1.obj
 0001:0000ccf0       ?EndGetInt@CpProxyOpenhomeOrgTestBasic1@Net@OpenHome@@QAEXAAVIAsync@23@AAH@Z 0040dcf0 f   CpOpenhomeOrgTestBasic1.obj
 0001:0000ce80       ?SyncSetBool@CpProxyOpenhomeOrgTestBasic1@Net@OpenHome@@QAEX_N@Z 0040de80 f   CpOpenhomeOrgTestBasic1.obj
 0001:0000cf50       ?BeginSetBool@CpProxyOpenhomeOrgTestBasic1@Net@OpenHome@@QAEX_NAAVFunctorAsync@23@@Z 0040df50 f   CpOpenhomeOrgTestBasic1.obj
 0001:0000d070       ?EndSetBool@CpProxyOpenhomeOrgTestBasic1@Net@OpenHome@@QAEXAAVIAsync@23@@Z 0040e070 f   CpOpenhomeOrgTestBasic1.obj
 0001:0000d1d0       ?SyncGetBool@CpProxyOpenhomeOrgTestBasic1@Net@OpenHome@@QAEXAA_N@Z 0040e1d0 f   CpOpenhomeOrgTestBasic1.obj
 0001:0000d2a0       ?BeginGetBool@CpProxyOpenhomeOrgTestBasic1@Net@OpenHome@@QAEXAAVFunctorAsync@23@@Z 0040e2a0 f   CpOpenhomeOrgTestBasic1.obj
 0001:0000d3c0       ?EndGetBool@CpProxyOpenhomeOrgTestBasic1@Net@OpenHome@@QAEXAAVIAsync@23@AA_N@Z 0040e3c0 f   CpOpenhomeOrgTestBasic1.obj
 0001:0000d550       ?SyncSetMultiple@CpProxyOpenhomeOrgTestBasic1@Net@OpenHome@@QAEXIH_N@Z 0040e550 f   CpOpenhomeOrgTestBasic1.obj
 0001:0000d620       ?BeginSetMultiple@CpProxyOpenhomeOrgTestBasic1@Net@OpenHome@@QAEXIH_NAAVFunctorAsync@23@@Z 0040e620 f   CpOpenhomeOrgTestBasic1.obj
 0001:0000d810       ?EndSetMultiple@CpProxyOpenhomeOrgTestBasic1@Net@OpenHome@@QAEXAAVIAsync@23@@Z 0040e810 f   CpOpenhomeOrgTestBasic1.obj
 0001:0000d970       ?SyncSetString@CpProxyOpenhomeOrgTestBasic1@Net@OpenHome@@QAEXABVBrx@3@@Z 0040e970 f   CpOpenhomeOrgTestBasic1.obj
 0001:0000da40       ?BeginSetString@CpProxyOpenhomeOrgTestBasic1@Net@OpenHome@@QAEXABVBrx@3@AAVFunctorAsync@23@@Z 0040ea40 f   CpOpenhomeOrgTestBasic1.obj
 0001:0000db60       ?EndSetString@CpProxyOpenhomeOrgTestBasic1@Net@OpenHome@@QAEXAAVIAsync@23@@Z 0040eb60 f   CpOpenhomeOrgTestBasic1.obj
 0001:0000dcc0       ?SyncGetString@CpProxyOpenhomeOrgTestBasic1@Net@OpenHome@@QAEXAAVBrh@3@@Z 0040ecc0 f   CpOpenhomeOrgTestBasic1.obj
 0001:0000dd90       ?BeginGetString@CpProxyOpenhomeOrgTestBasic1@Net@OpenHome@@QAEXAAVFunctorAsync@23@@Z 0040ed90 f   CpOpenhomeOrgTestBasic1.obj
 0001:0000deb0       ?EndGetString@CpProxyOpenhomeOrgTestBasic1@Net@OpenHome@@QAEXAAVIAsync@23@AAVBrh@3@@Z 0040eeb0 f   CpOpenhomeOrgTestBasic1.obj
 0001:0000e040       ?SyncSetBinary@CpProxyOpenhomeOrgTestBasic1@Net@OpenHome@@QAEXABVBrx@3@@Z 0040f040 f   CpOpenhomeOrgTestBasic1.obj
 0001:0000e110       ?BeginSetBinary@CpProxyOpenhomeOrgTestBasic1@Net@OpenHome@@QAEXABVBrx@3@AAVFunctorAsync@23@@Z 0040f110 f   CpOpenhomeOrgTestBasic1.obj
 0001:0000e230       ?EndSetBinary@CpProxyOpenhomeOrgTestBasic1@Net@OpenHome@@QAEXAAVIAsync@23@@Z 0040f230 f   CpOpenhomeOrgTestBasic1.obj
 0001:0000e390       ?SyncGetBinary@CpProxyOpenhomeOrgTestBasic1@Net@OpenHome@@QAEXAAVBrh@3@@Z 0040f390 f   CpOpenhomeOrgTestBasic1.obj
 0001:0000e460       ?BeginGetBinary@CpProxyOpenhomeOrgTestBasic1@Net@OpenHome@@QAEXAAVFunctorAsync@23@@Z 0040f460 f   CpOpenhomeOrgTestBasic1.obj
 0001:0000e580       ?EndGetBinary@CpProxyOpenhomeOrgTestBasic1@Net@OpenHome@@QAEXAAVIAsync@23@AAVBrh@3@@Z 0040f580 f   CpOpenhomeOrgTestBasic1.obj
 0001:0000e710       ?SyncToggleBool@CpProxyOpenhomeOrgTestBasic1@Net@OpenHome@@QAEXXZ 0040f710 f   CpOpenhomeOrgTestBasic1.obj
 0001:0000e7d0       ?BeginToggleBool@CpProxyOpenhomeOrgTestBasic1@Net@OpenHome@@QAEXAAVFunctorAsync@23@@Z 0040f7d0 f   CpOpenhomeOrgTestBasic1.obj
 0001:0000e840       ?EndToggleBool@CpProxyOpenhomeOrgTestBasic1@Net@OpenHome@@QAEXAAVIAsync@23@@Z 0040f840 f   CpOpenhomeOrgTestBasic1.obj
 0001:0000e9a0       ?SyncWriteFile@CpProxyOpenhomeOrgTestBasic1@Net@OpenHome@@QAEXABVBrx@3@0@Z 0040f9a0 f   CpOpenhomeOrgTestBasic1.obj
 0001:0000ea70       ?BeginWriteFile@CpProxyOpenhomeOrgTestBasic1@Net@OpenHome@@QAEXABVBrx@3@0AAVFunctorAsync@23@@Z 0040fa70 f   CpOpenhomeOrgTestBasic1.obj
 0001:0000ebf0       ?EndWriteFile@CpProxyOpenhomeOrgTestBasic1@Net@OpenHome@@QAEXAAVIAsync@23@@Z 0040fbf0 f   CpOpenhomeOrgTestBasic1.obj
 0001:0000ed50       ?SyncShutdown@CpProxyOpenhomeOrgTestBasic1@Net@OpenHome@@QAEXXZ 0040fd50 f   CpOpenhomeOrgTestBasic1.obj
 0001:0000ee10       ?BeginShutdown@CpProxyOpenhomeOrgTestBasic1@Net@OpenHome@@QAEXAAVFunctorAsync@23@@Z 0040fe10 f   CpOpenhomeOrgTestBasic1.obj
 0001:0000ee80       ?EndShutdown@CpProxyOpenhomeOrgTestBasic1@Net@OpenHome@@QAEXAAVIAsync@23@@Z 0040fe80 f   CpOpenhomeOrgTestBasic1.obj
 0001:0000efe0       ?SetPropertyVarUintChanged@CpProxyOpenhomeOrgTestBasic1@Net@OpenHome@@QAEXAAVFunctor@3@@Z 0040ffe0 f   CpOpenhomeOrgTestBasic1.obj
 0001:0000f040       ?SetPropertyVarIntChanged@CpProxyOpenhomeOrgTestBasic1@Net@OpenHome@@QAEXAAVFunctor@3@@Z 00410040 f   CpOpenhomeOrgTestBasic1.obj
 0001:0000f0a0       ?SetPropertyVarBoolChanged@CpProxyOpenhomeOrgTestBasic1@Net@OpenHome@@QAEXAAVFunctor@3@@Z 004100a0 f   CpOpenhomeOrgTestBasic1.obj
 0001:0000f100       ?SetPropertyVarStrChanged@CpProxyOpenhomeOrgTestBasic1@Net@OpenHome@@QAEXAAVFunctor@3@@Z 00410100 f   CpOpenhomeOrgTestBasic1.obj
 0001:0000f160       ?SetPropertyVarBinChanged@CpProxyOpenhomeOrgTestBasic1@Net@OpenHome@@QAEXAAVFunctor@3@@Z 00410160 f   CpOpenhomeOrgTestBasic1.obj
 0001:0000f1c0       ?PropertyVarUint@CpProxyOpenhomeOrgTestBasic1@Net@OpenHome@@QBEXAAI@Z 004101c0 f   CpOpenhomeOrgTestBasic1.obj
 0001:0000f220       ?PropertyVarInt@CpProxyOpenhomeOrgTestBasic1@Net@OpenHome@@QBEXAAH@Z 00410220 f   CpOpenhomeOrgTestBasic1.obj
 0001:0000f280       ?PropertyVarBool@CpProxyOpenhomeOrgTestBasic1@Net@OpenHome@@QBEXAA_N@Z 00410280 f   CpOpenhomeOrgTestBasic1.obj
 0001:0000f2e0       ?PropertyVarStr@CpProxyOpenhomeOrgTestBasic1@Net@OpenHome@@QBEXAAVBrhz@3@@Z 004102e0 f   CpOpenhomeOrgTestBasic1.obj
 0001:0000f340       ?PropertyVarBin@CpProxyOpenhomeOrgTestBasic1@Net@OpenHome@@QBEXAAVBrh@3@@Z 00410340 f   CpOpenhomeOrgTestBasic1.obj
 0001:0000f3a0       ?VarUintPropertyChanged@CpProxyOpenhomeOrgTestBasic1@Net@OpenHome@@AAEXXZ 004103a0 f   CpOpenhomeOrgTestBasic1.obj
 0001:0000f3f0       ?VarIntPropertyChanged@CpProxyOpenhomeOrgTestBasic1@Net@OpenHome@@AAEXXZ 004103f0 f   CpOpenhomeOrgTestBasic1.obj
 0001:0000f440       ?VarBoolPropertyChanged@CpProxyOpenhomeOrgTestBasic1@Net@OpenHome@@AAEXXZ 00410440 f   CpOpenhomeOrgTestBasic1.obj
 0001:0000f490       ?VarStrPropertyChanged@CpProxyOpenhomeOrgTestBasic1@Net@OpenHome@@AAEXXZ 00410490 f   CpOpenhomeOrgTestBasic1.obj
 0001:0000f4e0       ?VarBinPropertyChanged@CpProxyOpenhomeOrgTestBasic1@Net@OpenHome@@AAEXXZ 004104e0 f   CpOpenhomeOrgTestBasic1.obj
 0001:0000f530       ??0Functor@OpenHome@@QAE@XZ 00410530 f i CpOpenhomeOrgTestBasic1.obj
 0001:0000f560       ??_GCpProxyOpenhomeOrgTestBasic1@Net@OpenHome@@UAEPAXI@Z 00410560 f i CpOpenhomeOrgTestBasic1.obj
 0001:0000f560       ??_ECpProxyOpenhomeOrgTestBasic1@Net@OpenHome@@UAEPAXI@Z 00410560 f i CpOpenhomeOrgTestBasic1.obj
 0001:0000f5a0       ??_GAction@Net@OpenHome@@QAEPAXI@Z 004105a0 f i CpOpenhomeOrgTestBasic1.obj
 0001:0000f5e0       ??1SyncIncrementOpenhomeOrgTestBasic1@@QAE@XZ 004105e0 f i CpOpenhomeOrgTestBasic1.obj
 0001:0000f610       ??0ProxyError@OpenHome@@QAE@PBDI@Z 00410610 f i CpOpenhomeOrgTestBasic1.obj
 0001:0000f650       ??1ProxyError@OpenHome@@QAE@XZ 00410650 f i CpOpenhomeOrgTestBasic1.obj
 0001:0000f680       ??1SyncDecrementOpenhomeOrgTestBasic1@@QAE@XZ 00410680 f i CpOpenhomeOrgTestBasic1.obj
 0001:0000f6b0       ??1SyncToggleOpenhomeOrgTestBasic1@@QAE@XZ 004106b0 f i CpOpenhomeOrgTestBasic1.obj
 0001:0000f6e0       ??1SyncEchoStringOpenhomeOrgTestBasic1@@QAE@XZ 004106e0 f i CpOpenhomeOrgTestBasic1.obj
 0001:0000f710       ??1SyncEchoBinaryOpenhomeOrgTestBasic1@@QAE@XZ 00410710 f i CpOpenhomeOrgTestBasic1.obj
 0001:0000f740       ??1SyncSetUintOpenhomeOrgTestBasic1@@QAE@XZ 00410740 f i CpOpenhomeOrgTestBasic1.obj
 0001:0000f770       ??1SyncGetUintOpenhomeOrgTestBasic1@@QAE@XZ 00410770 f i CpOpenhomeOrgTestBasic1.obj
 0001:0000f7a0       ??1SyncSetIntOpenhomeOrgTestBasic1@@QAE@XZ 004107a0 f i CpOpenhomeOrgTestBasic1.obj
 0001:0000f7d0       ??1SyncGetIntOpenhomeOrgTestBasic1@@QAE@XZ 004107d0 f i CpOpenhomeOrgTestBasic1.obj
 0001:0000f800       ??1SyncSetBoolOpenhomeOrgTestBasic1@@QAE@XZ 00410800 f i CpOpenhomeOrgTestBasic1.obj
 0001:0000f830       ??1SyncGetBoolOpenhomeOrgTestBasic1@@QAE@XZ 00410830 f i CpOpenhomeOrgTestBasic1.obj
 0001:0000f860       ??1SyncSetMultipleOpenhomeOrgTestBasic1@@QAE@XZ 00410860 f i CpOpenhomeOrgTestBasic1.obj
 0001:0000f890       ??1SyncSetStringOpenhomeOrgTestBasic1@@QAE@XZ 00410890 f i CpOpenhomeOrgTestBasic1.obj
 0001:0000f8c0       ??1SyncGetStringOpenhomeOrgTestBasic1@@QAE@XZ 004108c0 f i CpOpenhomeOrgTestBasic1.obj
 0001:0000f8f0       ??1SyncSetBinaryOpenhomeOrgTestBasic1@@QAE@XZ 004108f0 f i CpOpenhomeOrgTestBasic1.obj
 0001:0000f920       ??1SyncGetBinaryOpenhomeOrgTestBasic1@@QAE@XZ 00410920 f i CpOpenhomeOrgTestBasic1.obj
 0001:0000f950       ??1SyncToggleBoolOpenhomeOrgTestBasic1@@QAE@XZ 00410950 f i CpOpenhomeOrgTestBasic1.obj
 0001:0000f980       ??1SyncWriteFileOpenhomeOrgTestBasic1@@QAE@XZ 00410980 f i CpOpenhomeOrgTestBasic1.obj
 0001:0000f9b0       ??1SyncShutdownOpenhomeOrgTestBasic1@@QAE@XZ 004109b0 f i CpOpenhomeOrgTestBasic1.obj
 0001:0000f9e0       ??A?$vector@PAVParameter@Net@OpenHome@@V?$allocator@PAVParameter@Net@OpenHome@@@std@@@std@@QBEABQAVParameter@Net@OpenHome@@I@Z 004109e0 f i CpOpenhomeOrgTestBasic1.obj
 0001:0000fa80       ??A?$vector@PAVArgument@Net@OpenHome@@V?$allocator@PAVArgument@Net@OpenHome@@@std@@@std@@QAEAAPAVArgument@Net@OpenHome@@I@Z 00410a80 f i CpOpenhomeOrgTestBasic1.obj
 0001:0000fb20       ?size@?$vector@PAVParameter@Net@OpenHome@@V?$allocator@PAVParameter@Net@OpenHome@@@std@@@std@@QBEIXZ 00410b20 f i CpOpenhomeOrgTestBasic1.obj
 0001:0000fb50       ?size@?$vector@PAVArgument@Net@OpenHome@@V?$allocator@PAVArgument@Net@OpenHome@@@std@@@std@@QBEIXZ 00410b50 f i CpOpenhomeOrgTestBasic1.obj
 0001:0000fb80       ??$MakeFunctor@VCpProxyOpenhomeOrgTestBasic1@Net@OpenHome@@XV123@@OpenHome@@YG?AV?$MemberTranslator@VCpProxyOpenhomeOrgTestBasic1@Net@OpenHome@@P8123@AEXXZ@0@AAVCpProxyOpenhomeOrgTestBasic1@Net@0@ABQ8230@AEXXZ@Z 00410b80 f i CpOpenhomeOrgTestBasic1.obj
 0001:0000fbb0       ??0?$MemberTranslator@VCpProxyOpenhomeOrgTestBasic1@Net@OpenHome@@P8123@AEXXZ@OpenHome@@QAE@AAVCpProxyOpenhomeOrgTestBasic1@Net@1@ABQ8231@AEXXZ@Z 00410bb0 f i CpOpenhomeOrgTestBasic1.obj
 0001:0000fbf0       ?Thunk@?$MemberTranslator@VCpProxyOpenhomeOrgTestBasic1@Net@OpenHome@@P8123@AEXXZ@OpenHome@@SGXABVFunctor@2@@Z 00410bf0 f i CpOpenhomeOrgTestBasic1.obj
 0001:0000fc40       ?Log@TestConsole@@QAEXPBD@Z 00410c40 f   libTestFramework:TestFramework.obj
 0001:0000fc70       ?AssertHandlerTest@TestFramework@OpenHome@@YGXPBDI@Z 00410c70 f   libTestFramework:TestFramework.obj
 0001:0000fd20       ??0Suite@TestFramework@OpenHome@@IAE@PBD@Z 00410d20 f   libTestFramework:TestFramework.obj
 0001:0000fd60       ??1Suite@TestFramework@OpenHome@@MAE@XZ 00410d60 f   libTestFramework:TestFramework.obj
 0001:0000fd80       ?Description@Suite@TestFramework@OpenHome@@QBEPBDXZ 00410d80 f   libTestFramework:TestFramework.obj
 0001:0000fda0       ??0Runner@TestFramework@OpenHome@@QAE@PBD@Z 00410da0 f   libTestFramework:TestFramework.obj
 0001:0000fde0       ??1Runner@TestFramework@OpenHome@@QAE@XZ 00410de0 f   libTestFramework:TestFramework.obj
 0001:0000fe00       ?Add@Runner@TestFramework@OpenHome@@QAEXPAVSuite@23@@Z 00410e00 f   libTestFramework:TestFramework.obj
 0001:0000fe80       ?Run@Runner@TestFramework@OpenHome@@QAEXXZ 00410e80 f   libTestFramework:TestFramework.obj
 0001:00010130       ?Fail@TestFramework@OpenHome@@YGXPBDI00@Z 00411130 f   libTestFramework:TestFramework.obj
 0001:00010190       ?Succeed@TestFramework@OpenHome@@YGXPBDI@Z 00411190 f   libTestFramework:TestFramework.obj
 0001:000101c0       ?SucceedQuietly@TestFramework@OpenHome@@YGXPBDI@Z 004111c0 f   libTestFramework:TestFramework.obj
 0001:000101f0       ?TimeStart@TestFramework@OpenHome@@YGIXZ 004111f0 f   libTestFramework:TestFramework.obj
 0001:00010210       ?TimeStop@TestFramework@OpenHome@@YGII@Z 00411210 f   libTestFramework:TestFramework.obj
 0001:00010240       ?Print@TestFramework@OpenHome@@YAHPBDZZ 00411240 f   libTestFramework:TestFramework.obj
 0001:00010300       ?Print@TestFramework@OpenHome@@YGHPBDPAD@Z 00411300 f   libTestFramework:TestFramework.obj
 0001:000103b0       ?Print@TestFramework@OpenHome@@YGHABVBrx@2@@Z 004113b0 f   libTestFramework:TestFramework.obj
 0001:00010460       ?PrintHex@TestFramework@OpenHome@@YGHABVBrx@2@@Z 00411460 f   libTestFramework:TestFramework.obj
 0001:00010510       ??0Blocker@TestFramework@OpenHome@@QAE@XZ 00411510 f   libTestFramework:TestFramework.obj
 0001:00010610       ??1Blocker@TestFramework@OpenHome@@QAE@XZ 00411610 f   libTestFramework:TestFramework.obj
 0001:000106b0       ?Wait@Blocker@TestFramework@OpenHome@@QAEXI@Z 004116b0 f   libTestFramework:TestFramework.obj
 0001:000106f0       ?TimerExpired@Blocker@TestFramework@OpenHome@@AAEXXZ 004116f0 f   libTestFramework:TestFramework.obj
 0001:00010720       ?ConsoleWrite@Os@OpenHome@@SGXPBD@Z 00411720 f i libTestFramework:TestFramework.obj
 0001:00010740       ??0AssertionFailed@OpenHome@@QAE@PBDI@Z 00411740 f i libTestFramework:TestFramework.obj
 0001:00010780       ??1AssertionFailed@OpenHome@@QAE@XZ 00411780 f i libTestFramework:TestFramework.obj
 0001:000107b0       ??_GSuite@TestFramework@OpenHome@@MAEPAXI@Z 004117b0 f i libTestFramework:TestFramework.obj
 0001:000107b0       ??_ESuite@TestFramework@OpenHome@@MAEPAXI@Z 004117b0 f i libTestFramework:TestFramework.obj
 0001:000107f0       ?TimeInMs@Os@OpenHome@@SGIXZ 004117f0 f i libTestFramework:TestFramework.obj
 0001:00010810       ?TimeInUs@Os@OpenHome@@SG_KXZ 00411810 f i libTestFramework:TestFramework.obj
 0001:00010830       ??_GTimer@OpenHome@@QAEPAXI@Z 00411830 f i libTestFramework:TestFramework.obj
 0001:00010870       ??$MakeFunctorMsg@VTestConsole@@V1@@OpenHome@@YG?AV?$MemberTranslatorMsg@VTestConsole@@P81@AEXPBD@Z@0@AAVTestConsole@@ABQ82@AEXPBD@Z@Z 00411870 f i libTestFramework:TestFramework.obj
 0001:000108a0       ??$MakeFunctor@VBlocker@TestFramework@OpenHome@@XV123@@OpenHome@@YG?AV?$MemberTranslator@VBlocker@TestFramework@OpenHome@@P8123@AEXXZ@0@AAVBlocker@TestFramework@0@ABQ8230@AEXXZ@Z 004118a0 f i libTestFramework:TestFramework.obj
 0001:000108d0       ??0?$MemberTranslatorMsg@VTestConsole@@P81@AEXPBD@Z@OpenHome@@QAE@AAVTestConsole@@ABQ82@AEXPBD@Z@Z 004118d0 f i libTestFramework:TestFramework.obj
 0001:00010910       ??0FunctorMsg@OpenHome@@IAE@P6GXABV01@PBD@ZPBX3I@Z 00411910 f i libTestFramework:TestFramework.obj
 0001:00010960       ??0?$MemberTranslator@VBlocker@TestFramework@OpenHome@@P8123@AEXXZ@OpenHome@@QAE@AAVBlocker@TestFramework@1@ABQ8231@AEXXZ@Z 00411960 f i libTestFramework:TestFramework.obj
 0001:000109a0       ?Thunk@?$MemberTranslatorMsg@VTestConsole@@P81@AEXPBD@Z@OpenHome@@SGXABVFunctorMsg@2@PBD@Z 004119a0 f i libTestFramework:TestFramework.obj
 0001:000109f0       ?Thunk@?$MemberTranslator@VBlocker@TestFramework@OpenHome@@P8123@AEXXZ@OpenHome@@SGXABVFunctor@2@@Z 004119f0 f i libTestFramework:TestFramework.obj
 0001:00010a40       ??0Option@TestFramework@OpenHome@@QAE@PBD00@Z 00411a40 f   libTestFramework:OptionParser.obj
 0001:00010b90       ??1Option@TestFramework@OpenHome@@QAE@XZ 00411b90 f   libTestFramework:OptionParser.obj
 0001:00010c00       ?Match@Option@TestFramework@OpenHome@@QBE_NPBD@Z 00411c00 f   libTestFramework:OptionParser.obj
 0001:00010c70       ?HelpText@Option@TestFramework@OpenHome@@QBEPBDXZ 00411c70 f   libTestFramework:OptionParser.obj
 0001:00010c90       ??0OptionString@TestFramework@OpenHome@@QAE@PBD0ABVBrx@2@0@Z 00411c90 f   libTestFramework:OptionParser.obj
 0001:00010d30       ?Process@OptionString@TestFramework@OpenHome@@UAEXHQAPAD@Z 00411d30 f   libTestFramework:OptionParser.obj
 0001:00010d60       ?Reset@OptionString@TestFramework@OpenHome@@UAEXXZ 00411d60 f   libTestFramework:OptionParser.obj
 0001:00010d90       ?ExpectedArgCount@OptionString@TestFramework@OpenHome@@UBEHXZ 00411d90 f   libTestFramework:OptionParser.obj
 0001:00010db0       ?Value@OptionString@TestFramework@OpenHome@@QBEABVBrx@3@XZ 00411db0 f   libTestFramework:OptionParser.obj
 0001:00010dd0       ?CString@OptionString@TestFramework@OpenHome@@QBEPBDXZ 00411dd0 f   libTestFramework:OptionParser.obj
 0001:00010e00       ??0OptionInt@TestFramework@OpenHome@@QAE@PBD0H0@Z 00411e00 f   libTestFramework:OptionParser.obj
 0001:00010e50       ?Process@OptionInt@TestFramework@OpenHome@@UAEXHQAPAD@Z 00411e50 f   libTestFramework:OptionParser.obj
 0001:00010f10       ?Reset@OptionInt@TestFramework@OpenHome@@UAEXXZ 00411f10 f   libTestFramework:OptionParser.obj
 0001:00010f30       ?ExpectedArgCount@OptionInt@TestFramework@OpenHome@@UBEHXZ 00411f30 f   libTestFramework:OptionParser.obj
 0001:00010f50       ?Value@OptionInt@TestFramework@OpenHome@@QBEHXZ 00411f50 f   libTestFramework:OptionParser.obj
 0001:00010f70       ??0OptionUint@TestFramework@OpenHome@@QAE@PBD0I0@Z 00411f70 f   libTestFramework:OptionParser.obj
 0001:00010fc0       ?Process@OptionUint@TestFramework@OpenHome@@UAEXHQAPAD@Z 00411fc0 f   libTestFramework:OptionParser.obj
 0001:00011080       ?Reset@OptionUint@TestFramework@OpenHome@@UAEXXZ 00412080 f   libTestFramework:OptionParser.obj
 0001:000110a0       ?ExpectedArgCount@OptionUint@TestFramework@OpenHome@@UBEHXZ 004120a0 f   libTestFramework:OptionParser.obj
 0001:000110c0       ?Value@OptionUint@TestFramework@OpenHome@@QBEIXZ 004120c0 f   libTestFramework:OptionParser.obj
 0001:000110e0       ??0OptionBool@TestFramework@OpenHome@@QAE@PBD00@Z 004120e0 f   libTestFramework:OptionParser.obj
 0001:00011130       ?Process@OptionBool@TestFramework@OpenHome@@UAEXHQAPAD@Z 00412130 f   libTestFramework:OptionParser.obj
 0001:00011150       ?Reset@OptionBool@TestFramework@OpenHome@@UAEXXZ 00412150 f   libTestFramework:OptionParser.obj
 0001:00011170       ?ExpectedArgCount@OptionBool@TestFramework@OpenHome@@UBEHXZ 00412170 f   libTestFramework:OptionParser.obj
 0001:00011190       ?Value@OptionBool@TestFramework@OpenHome@@QBE_NXZ 00412190 f   libTestFramework:OptionParser.obj
 0001:000111b0       ??0OptionParser@TestFramework@OpenHome@@QAE@XZ 004121b0 f   libTestFramework:OptionParser.obj
 0001:00011260       ??1OptionParser@TestFramework@OpenHome@@QAE@XZ 00412260 f   libTestFramework:OptionParser.obj
 0001:00011300       ?AddOption@OptionParser@TestFramework@OpenHome@@QAEXPAVOption@23@@Z 00412300 f   libTestFramework:OptionParser.obj
 0001:00011330       ?Parse@OptionParser@TestFramework@OpenHome@@QAE_NHQAPAD@Z 00412330 f   libTestFramework:OptionParser.obj
 0001:000116e0       ?HelpDisplayed@OptionParser@TestFramework@OpenHome@@QAE_NXZ 004126e0 f   libTestFramework:OptionParser.obj
 0001:00011710       ?DisplayHelp@OptionParser@TestFramework@OpenHome@@QAEXXZ 00412710 f   libTestFramework:OptionParser.obj
 0001:000117b0       ?SetUsage@OptionParser@TestFramework@OpenHome@@QAEXPBD@Z 004127b0 f   libTestFramework:OptionParser.obj
 0001:00011840       ?PosArgs@OptionParser@TestFramework@OpenHome@@QAEAAV?$vector@PADV?$allocator@PAD@std@@@std@@XZ 00412840 f   libTestFramework:OptionParser.obj
 0001:00011860       ?Find@OptionParser@TestFramework@OpenHome@@AAEPAVOption@23@PBD@Z 00412860 f   libTestFramework:OptionParser.obj
 0001:000118f0       ?CString@Brhz@OpenHome@@QBEPBDXZ 004128f0 f i libTestFramework:OptionParser.obj
 0001:00011910       ??1?$Bws@$0L@@OpenHome@@UAE@XZ 00412910 f i libTestFramework:OptionParser.obj
 0001:00011940       ??0OptionParserError@OpenHome@@QAE@PBDI@Z 00412940 f i libTestFramework:OptionParser.obj
 0001:00011980       ??1OptionParserError@OpenHome@@QAE@XZ 00412980 f i libTestFramework:OptionParser.obj
 0001:000119b0       ??0?$vector@PAVOption@TestFramework@OpenHome@@V?$allocator@PAVOption@TestFramework@OpenHome@@@std@@@std@@QAE@XZ 004129b0 f i libTestFramework:OptionParser.obj
 0001:000119f0       ??1?$vector@PAVOption@TestFramework@OpenHome@@V?$allocator@PAVOption@TestFramework@OpenHome@@@std@@@std@@QAE@XZ 004129f0 f i libTestFramework:OptionParser.obj
 0001:00011a60       ?size@?$vector@PAVOption@TestFramework@OpenHome@@V?$allocator@PAVOption@TestFramework@OpenHome@@@std@@@std@@QBEIXZ 00412a60 f i libTestFramework:OptionParser.obj
 0001:00011a90       ??A?$vector@PAVOption@TestFramework@OpenHome@@V?$allocator@PAVOption@TestFramework@OpenHome@@@std@@@std@@QAEAAPAVOption@TestFramework@OpenHome@@I@Z 00412a90 f i libTestFramework:OptionParser.obj
 0001:00011b30       ?push_back@?$vector@PAVOption@TestFramework@OpenHome@@V?$allocator@PAVOption@TestFramework@OpenHome@@@std@@@std@@QAEXABQAVOption@TestFramework@OpenHome@@@Z 00412b30 f i libTestFramework:OptionParser.obj
 0001:00011c40       ??0?$vector@PADV?$allocator@PAD@std@@@std@@QAE@XZ 00412c40 f i libTestFramework:OptionParser.obj
 0001:00011c80       ??1?$vector@PADV?$allocator@PAD@std@@@std@@QAE@XZ 00412c80 f i libTestFramework:OptionParser.obj
 0001:00011cf0       ?push_back@?$vector@PADV?$allocator@PAD@std@@@std@@QAEXABQAD@Z 00412cf0 f i libTestFramework:OptionParser.obj
 0001:00011e00       ?clear@?$vector@PADV?$allocator@PAD@std@@@std@@QAEXXZ 00412e00 f i libTestFramework:OptionParser.obj
 0001:00011f00       ??1?$_Vector_iterator@V?$_Vector_val@PADV?$allocator@PAD@std@@@std@@@std@@QAE@XZ 00412f00 f i libTestFramework:OptionParser.obj
 0001:00011f30       ??0?$_Vector_const_iterator@V?$_Vector_val@PADV?$allocator@PAD@std@@@std@@@std@@QAE@ABV01@@Z 00412f30 f i libTestFramework:OptionParser.obj
 0001:00011f70       ??1?$_Vector_const_iterator@V?$_Vector_val@PADV?$allocator@PAD@std@@@std@@@std@@QAE@XZ 00412f70 f i libTestFramework:OptionParser.obj
 0001:00011fa0       ??0?$_Iterator012@Urandom_access_iterator_tag@std@@PADHPBQADABQADU_Iterator_base12@2@@std@@QAE@ABU01@@Z 00412fa0 f i libTestFramework:OptionParser.obj
 0001:00011fd0       ??1?$_Iterator012@Urandom_access_iterator_tag@std@@PADHPBQADABQADU_Iterator_base12@2@@std@@QAE@XZ 00412fd0 f i libTestFramework:OptionParser.obj
 0001:00012000       ?_Inside@?$vector@PAVOption@TestFramework@OpenHome@@V?$allocator@PAVOption@TestFramework@OpenHome@@@std@@@std@@IBE_NPBQAVOption@TestFramework@OpenHome@@@Z 00413000 f i libTestFramework:OptionParser.obj
 0001:00012050       ?_Reserve@?$vector@PAVOption@TestFramework@OpenHome@@V?$allocator@PAVOption@TestFramework@OpenHome@@@std@@@std@@IAEXI@Z 00413050 f i libTestFramework:OptionParser.obj
 0001:000120d0       ?_Tidy@?$vector@PAVOption@TestFramework@OpenHome@@V?$allocator@PAVOption@TestFramework@OpenHome@@@std@@@std@@IAEXXZ 004130d0 f i libTestFramework:OptionParser.obj
 0001:00012160       ?_Orphan_range@?$vector@PAVOption@TestFramework@OpenHome@@V?$allocator@PAVOption@TestFramework@OpenHome@@@std@@@std@@IBEXPAPAVOption@TestFramework@OpenHome@@0@Z 00413160 f i libTestFramework:OptionParser.obj
 0001:00012270       ??0?$_Vector_val@PAVOption@TestFramework@OpenHome@@V?$allocator@PAVOption@TestFramework@OpenHome@@@std@@@std@@QAE@V?$allocator@PAVOption@TestFramework@OpenHome@@@1@@Z 00413270 f i libTestFramework:OptionParser.obj
 0001:00012390       ??1?$_Vector_val@PAVOption@TestFramework@OpenHome@@V?$allocator@PAVOption@TestFramework@OpenHome@@@std@@@std@@QAE@XZ 00413390 f i libTestFramework:OptionParser.obj
 0001:00012470       ??0?$allocator@PAVOption@TestFramework@OpenHome@@@std@@QAE@XZ 00413470 f i libTestFramework:OptionParser.obj
 0001:00012490       ?begin@?$vector@PADV?$allocator@PAD@std@@@std@@QAE?AV?$_Vector_iterator@V?$_Vector_val@PADV?$allocator@PAD@std@@@std@@@2@XZ 00413490 f i libTestFramework:OptionParser.obj
 0001:000124e0       ?end@?$vector@PADV?$allocator@PAD@std@@@std@@QAE?AV?$_Vector_iterator@V?$_Vector_val@PADV?$allocator@PAD@std@@@std@@@2@XZ 004134e0 f i libTestFramework:OptionParser.obj
 0001:00012530       ?erase@?$vector@PADV?$allocator@PAD@std@@@std@@QAE?AV?$_Vector_iterator@V?$_Vector_val@PADV?$allocator@PAD@std@@@std@@@2@V?$_Vector_const_iterator@V?$_Vector_val@PADV?$allocator@PAD@std@@@std@@@2@0@Z 00413530 f i libTestFramework:OptionParser.obj
 0001:00012720       ?_Inside@?$vector@PADV?$allocator@PAD@std@@@std@@IBE_NPBQAD@Z 00413720 f i libTestFramework:OptionParser.obj
 0001:00012770       ?_Reserve@?$vector@PADV?$allocator@PAD@std@@@std@@IAEXI@Z 00413770 f i libTestFramework:OptionParser.obj
 0001:000127f0       ?_Tidy@?$vector@PADV?$allocator@PAD@std@@@std@@IAEXXZ 004137f0 f i libTestFramework:OptionParser.obj
 0001:00012880       ?_Orphan_range@?$vector@PADV?$allocator@PAD@std@@@std@@IBEXPAPAD0@Z 00413880 f i libTestFramework:OptionParser.obj
 0001:00012990       ??0?$_Vector_val@PADV?$allocator@PAD@std@@@std@@QAE@V?$allocator@PAD@1@@Z 00413990 f i libTestFramework:OptionParser.obj
 0001:00012ab0       ??1?$_Vector_val@PADV?$allocator@PAD@std@@@std@@QAE@XZ 00413ab0 f i libTestFramework:OptionParser.obj
 0001:00012b90       ??0?$allocator@PAD@std@@QAE@XZ 00413b90 f i libTestFramework:OptionParser.obj
 0001:00012bb0       ??0?$_Vector_iterator@V?$_Vector_val@PADV?$allocator@PAD@std@@@std@@@std@@QAE@ABV01@@Z 00413bb0 f i libTestFramework:OptionParser.obj
 0001:00012be0       ?reserve@?$vector@PAVOption@TestFramework@OpenHome@@V?$allocator@PAVOption@TestFramework@OpenHome@@@std@@@std@@QAEXI@Z 00413be0 f i libTestFramework:OptionParser.obj
 0001:00012d50       ?capacity@?$vector@PAVOption@TestFramework@OpenHome@@V?$allocator@PAVOption@TestFramework@OpenHome@@@std@@@std@@QBEIXZ 00413d50 f i libTestFramework:OptionParser.obj
 0001:00012d80       ?max_size@?$vector@PAVOption@TestFramework@OpenHome@@V?$allocator@PAVOption@TestFramework@OpenHome@@@std@@@std@@QBEIXZ 00413d80 f i libTestFramework:OptionParser.obj
 0001:00012db0       ?_Destroy@?$vector@PAVOption@TestFramework@OpenHome@@V?$allocator@PAVOption@TestFramework@OpenHome@@@std@@@std@@IAEXPAPAVOption@TestFramework@OpenHome@@0@Z 00413db0 f i libTestFramework:OptionParser.obj
 0001:00012df0       ?_Grow_to@?$vector@PAVOption@TestFramework@OpenHome@@V?$allocator@PAVOption@TestFramework@OpenHome@@@std@@@std@@IBEII@Z 00413df0 f i libTestFramework:OptionParser.obj
 0001:00012e70       ?_Xlen@?$vector@PAVOption@TestFramework@OpenHome@@V?$allocator@PAVOption@TestFramework@OpenHome@@@std@@@std@@IBEXXZ 00413e70 f i libTestFramework:OptionParser.obj
 0001:00012ea0       ??0?$allocator@PAVOption@TestFramework@OpenHome@@@std@@QAE@ABV01@@Z 00413ea0 f i libTestFramework:OptionParser.obj
 0001:00012ec0       ?deallocate@?$allocator@PAVOption@TestFramework@OpenHome@@@std@@QAEXPAPAVOption@TestFramework@OpenHome@@I@Z 00413ec0 f i libTestFramework:OptionParser.obj
 0001:00012ef0       ?reserve@?$vector@PADV?$allocator@PAD@std@@@std@@QAEXI@Z 00413ef0 f i libTestFramework:OptionParser.obj
 0001:00013060       ?capacity@?$vector@PADV?$allocator@PAD@std@@@std@@QBEIXZ 00414060 f i libTestFramework:OptionParser.obj
 0001:00013090       ?_Make_iter@?$vector@PADV?$allocator@PAD@std@@@std@@QBE?AV?$_Vector_iterator@V?$_Vector_val@PADV?$allocator@PAD@std@@@std@@@2@V?$_Vector_const_iterator@V?$_Vector_val@PADV?$allocator@PAD@std@@@std@@@2@@Z 00414090 f i libTestFramework:OptionParser.obj
 0001:00013120       ?size@?$vector@PADV?$allocator@PAD@std@@@std@@QBEIXZ 00414120 f i libTestFramework:OptionParser.obj
 0001:00013150       ?max_size@?$vector@PADV?$allocator@PAD@std@@@std@@QBEIXZ 00414150 f i libTestFramework:OptionParser.obj
 0001:00013180       ?_Destroy@?$vector@PADV?$allocator@PAD@std@@@std@@IAEXPAPAD0@Z 00414180 f i libTestFramework:OptionParser.obj
 0001:000131c0       ?_Grow_to@?$vector@PADV?$allocator@PAD@std@@@std@@IBEII@Z 004141c0 f i libTestFramework:OptionParser.obj
 0001:00013240       ?_Xlen@?$vector@PADV?$allocator@PAD@std@@@std@@IBEXXZ 00414240 f i libTestFramework:OptionParser.obj
 0001:00013270       ??0?$allocator@PAD@std@@QAE@ABV01@@Z 00414270 f i libTestFramework:OptionParser.obj
 0001:00013290       ?deallocate@?$allocator@PAD@std@@QAEXPAPADI@Z 00414290 f i libTestFramework:OptionParser.obj
 0001:000132c0       ??0?$_Vector_iterator@V?$_Vector_val@PADV?$allocator@PAD@std@@@std@@@std@@QAE@PAPADPBU_Container_base12@1@@Z 004142c0 f i libTestFramework:OptionParser.obj
 0001:00013300       ??9?$_Vector_const_iterator@V?$_Vector_val@PADV?$allocator@PAD@std@@@std@@@std@@QBE_NABV01@@Z 00414300 f i libTestFramework:OptionParser.obj
 0001:00013340       ??M?$_Vector_const_iterator@V?$_Vector_val@PADV?$allocator@PAD@std@@@std@@@std@@QBE_NABV01@@Z 00414340 f i libTestFramework:OptionParser.obj
 0001:00013380       ?allocate@?$allocator@PAVOption@TestFramework@OpenHome@@@std@@QAEPAPAVOption@TestFramework@OpenHome@@I@Z 00414380 f i libTestFramework:OptionParser.obj
 0001:000133b0       ?max_size@?$allocator@PAVOption@TestFramework@OpenHome@@@std@@QBEIXZ 004143b0 f i libTestFramework:OptionParser.obj
 0001:00013400       ?allocate@?$allocator@PAD@std@@QAEPAPADI@Z 00414400 f i libTestFramework:OptionParser.obj
 0001:00013430       ?max_size@?$allocator@PAD@std@@QBEIXZ 00414430 f i libTestFramework:OptionParser.obj
 0001:00013480       ??0?$_Vector_const_iterator@V?$_Vector_val@PADV?$allocator@PAD@std@@@std@@@std@@QAE@PAPADPBU_Container_base12@1@@Z 00414480 f i libTestFramework:OptionParser.obj
 0001:00013500       ??8?$_Vector_const_iterator@V?$_Vector_val@PADV?$allocator@PAD@std@@@std@@@std@@QBE_NABV01@@Z 00414500 f i libTestFramework:OptionParser.obj
 0001:00013540       ?_Compat@?$_Vector_const_iterator@V?$_Vector_val@PADV?$allocator@PAD@std@@@std@@@std@@QBEXABV12@@Z 00414540 f i libTestFramework:OptionParser.obj
 0001:000135f0       ??0?$_Iterator012@Urandom_access_iterator_tag@std@@PADHPBQADABQADU_Iterator_base12@2@@std@@QAE@XZ 004145f0 f i libTestFramework:OptionParser.obj
 0001:00013620       ??0?$Bws@$0L@@OpenHome@@QAE@PBD@Z 00414620 f i libTestFramework:OptionParser.obj
 0001:000136a0       ?Ptr@?$Bws@$0L@@OpenHome@@UBEPBEXZ 004146a0 f i libTestFramework:OptionParser.obj
 0001:000136c0       ??0?$Bws@$09@OpenHome@@QAE@PBD@Z 004146c0 f i libTestFramework:OptionParser.obj
 0001:00013740       ??$addressof@QAVOption@TestFramework@OpenHome@@@std@@YGPBQAVOption@TestFramework@OpenHome@@ABQAV123@@Z 00414740 f i libTestFramework:OptionParser.obj
 0001:00013750       ??$_Cons_val@V?$allocator@PAVOption@TestFramework@OpenHome@@@std@@PAVOption@TestFramework@OpenHome@@AAPAV345@@std@@YGXAAV?$allocator@PAVOption@TestFramework@OpenHome@@@0@PAPAVOption@TestFramework@OpenHome@@AAPAV234@@Z 00414750 f i libTestFramework:OptionParser.obj
 0001:00013780       ??$_Cons_val@V?$allocator@PAVOption@TestFramework@OpenHome@@@std@@PAVOption@TestFramework@OpenHome@@ABQAV345@@std@@YGXAAV?$allocator@PAVOption@TestFramework@OpenHome@@@0@PAPAVOption@TestFramework@OpenHome@@ABQAV234@@Z 00414780 f i libTestFramework:OptionParser.obj
 0001:000137b0       ??$addressof@QAD@std@@YGPBQADABQAD@Z 004147b0 f i libTestFramework:OptionParser.obj
 0001:000137c0       ??$_Cons_val@V?$allocator@PAD@std@@PADAAPAD@std@@YGXAAV?$allocator@PAD@0@PAPADAAPAD@Z 004147c0 f i libTestFramework:OptionParser.obj
 0001:000137f0       ??$_Cons_val@V?$allocator@PAD@std@@PADABQAD@std@@YGXAAV?$allocator@PAD@0@PAPADABQAD@Z 004147f0 f i libTestFramework:OptionParser.obj
 0001:00013820       ??$?0PAVOption@TestFramework@OpenHome@@@?$allocator@U_Container_proxy@std@@@std@@QAE@ABV?$allocator@PAVOption@TestFramework@OpenHome@@@1@@Z 00414820 f i libTestFramework:OptionParser.obj
 0001:00013840       ??$_Move@PAPADPAPAD@std@@YGPAPADPAPAD00@Z 00414840 f i libTestFramework:OptionParser.obj
 0001:00013890       ??$?0PAD@?$allocator@U_Container_proxy@std@@@std@@QAE@ABV?$allocator@PAD@1@@Z 00414890 f i libTestFramework:OptionParser.obj
 0001:000138b0       ??$_Umove@PAPAVOption@TestFramework@OpenHome@@@?$vector@PAVOption@TestFramework@OpenHome@@V?$allocator@PAVOption@TestFramework@OpenHome@@@std@@@std@@IAEPAPAVOption@TestFramework@OpenHome@@PAPAV234@00@Z 004148b0 f i libTestFramework:OptionParser.obj
 0001:000138f0       ??$_Destroy_range@V?$allocator@PAVOption@TestFramework@OpenHome@@@std@@@std@@YGXPAPAVOption@TestFramework@OpenHome@@0AAV?$allocator@PAVOption@TestFramework@OpenHome@@@0@@Z 004148f0 f i libTestFramework:OptionParser.obj
 0001:00013940       ??$_Umove@PAPAD@?$vector@PADV?$allocator@PAD@std@@@std@@IAEPAPADPAPAD00@Z 00414940 f i libTestFramework:OptionParser.obj
 0001:00013980       ??$_Destroy_range@V?$allocator@PAD@std@@@std@@YGXPAPAD0AAV?$allocator@PAD@0@@Z 00414980 f i libTestFramework:OptionParser.obj
 0001:000139d0       ??$_Allocate@PAVOption@TestFramework@OpenHome@@@std@@YGPAPAVOption@TestFramework@OpenHome@@IPAPAV123@@Z 004149d0 f i libTestFramework:OptionParser.obj
 0001:00013a50       ??$_Allocate@PAD@std@@YGPAPADIPAPAD@Z 00414a50 f i libTestFramework:OptionParser.obj
 0001:00013ad0       ??_E?$Bws@$0L@@OpenHome@@UAEPAXI@Z 00414ad0 f i libTestFramework:OptionParser.obj
 0001:00013ad0       ??_G?$Bws@$0L@@OpenHome@@UAEPAXI@Z 00414ad0 f i libTestFramework:OptionParser.obj
 0001:00013b10       ?construct@?$allocator@PAVOption@TestFramework@OpenHome@@@std@@QAEXPAPAVOption@TestFramework@OpenHome@@ABQAV345@@Z 00414b10 f i libTestFramework:OptionParser.obj
 0001:00013b40       ?construct@?$allocator@PAD@std@@QAEXPAPADABQAD@Z 00414b40 f i libTestFramework:OptionParser.obj
 0001:00013b70       ??$forward@AAPAVOption@TestFramework@OpenHome@@@std@@YGAAPAVOption@TestFramework@OpenHome@@AAPAV123@@Z 00414b70 f i libTestFramework:OptionParser.obj
 0001:00013b80       ??$construct@AAPAVOption@TestFramework@OpenHome@@@?$allocator@PAVOption@TestFramework@OpenHome@@@std@@QAEXPAPAVOption@TestFramework@OpenHome@@AAPAV234@@Z 00414b80 f i libTestFramework:OptionParser.obj
 0001:00013c20       ??$forward@ABQAVOption@TestFramework@OpenHome@@@std@@YGABQAVOption@TestFramework@OpenHome@@ABQAV123@@Z 00414c20 f i libTestFramework:OptionParser.obj
 0001:00013c30       ??$forward@AAPAD@std@@YGAAPADAAPAD@Z 00414c30 f i libTestFramework:OptionParser.obj
 0001:00013c40       ??$construct@AAPAD@?$allocator@PAD@std@@QAEXPAPADAAPAD@Z 00414c40 f i libTestFramework:OptionParser.obj
 0001:00013ce0       ??$forward@ABQAD@std@@YGABQADABQAD@Z 00414ce0 f i libTestFramework:OptionParser.obj
 0001:00013cf0       ??$_Ptr_cat@PADPAD@std@@YG?AU_Scalar_ptr_iterator_tag@0@PAPAD0@Z 00414cf0 f i libTestFramework:OptionParser.obj
 0001:00013d50       ??$_Move@PAPADPAPAD@std@@YGPAPADPAPAD00U_Scalar_ptr_iterator_tag@0@@Z 00414d50 f i libTestFramework:OptionParser.obj
 0001:00013da0       ??$_Uninitialized_move@PAPAVOption@TestFramework@OpenHome@@PAPAV123@V?$allocator@PAVOption@TestFramework@OpenHome@@@std@@@std@@YGPAPAVOption@TestFramework@OpenHome@@PAPAV123@00AAV?$allocator@PAVOption@TestFramework@OpenHome@@@0@@Z 00414da0 f i libTestFramework:OptionParser.obj
 0001:00013df0       ??$_Ptr_cat@PAVOption@TestFramework@OpenHome@@PAV123@@std@@YG?AU_Scalar_ptr_iterator_tag@0@PAPAVOption@TestFramework@OpenHome@@0@Z 00414df0 f i libTestFramework:OptionParser.obj
 0001:00013e50       ??$_Destroy_range@V?$allocator@PAVOption@TestFramework@OpenHome@@@std@@@std@@YGXPAPAVOption@TestFramework@OpenHome@@0AAV?$allocator@PAVOption@TestFramework@OpenHome@@@0@U_Scalar_ptr_iterator_tag@0@@Z 00414e50 f i libTestFramework:OptionParser.obj
 0001:00013e60       ??$_Uninitialized_move@PAPADPAPADV?$allocator@PAD@std@@@std@@YGPAPADPAPAD00AAV?$allocator@PAD@0@@Z 00414e60 f i libTestFramework:OptionParser.obj
 0001:00013eb0       ??$_Destroy_range@V?$allocator@PAD@std@@@std@@YGXPAPAD0AAV?$allocator@PAD@0@U_Scalar_ptr_iterator_tag@0@@Z 00414eb0 f i libTestFramework:OptionParser.obj
 0001:00013ec0       ??$_Construct@PAVOption@TestFramework@OpenHome@@ABQAV123@@std@@YGXPAPAVOption@TestFramework@OpenHome@@ABQAV123@@Z 00414ec0 f i libTestFramework:OptionParser.obj
 0001:00013f70       ??$_Construct@PADABQAD@std@@YGXPAPADABQAD@Z 00414f70 f i libTestFramework:OptionParser.obj
 0001:00014020       ??$_Val_type@PAPAVOption@TestFramework@OpenHome@@@std@@YGPAPAVOption@TestFramework@OpenHome@@PAPAV123@@Z 00415020 f i libTestFramework:OptionParser.obj
 0001:00014030       ??$_Uninit_move@PAVOption@TestFramework@OpenHome@@PAV123@PAV123@@std@@YGPAPAVOption@TestFramework@OpenHome@@PAPAV123@00AAV?$allocator@PAVOption@TestFramework@OpenHome@@@0@0U_Scalar_ptr_iterator_tag@0@@Z 00415030 f i libTestFramework:OptionParser.obj
 0001:000140a0       ??$_Val_type@PAPAD@std@@YGPAPADPAPAD@Z 004150a0 f i libTestFramework:OptionParser.obj
 0001:000140b0       ??$_Uninit_move@PADPADPAD@std@@YGPAPADPAPAD00AAV?$allocator@PAD@0@0U_Scalar_ptr_iterator_tag@0@@Z 004150b0 f i libTestFramework:OptionParser.obj
 0001:00014120       ??$_Debug_range@PAPAVOption@TestFramework@OpenHome@@@std@@YGXPAPAVOption@TestFramework@OpenHome@@0PB_WI@Z 00415120 f i libTestFramework:OptionParser.obj
 0001:00014170       ??$_Debug_pointer@PAVOption@TestFramework@OpenHome@@@std@@YGXPAPAVOption@TestFramework@OpenHome@@PB_WI@Z 00415170 f i libTestFramework:OptionParser.obj
 0001:000141a0       ??$_Debug_range@PAPAD@std@@YGXPAPAD0PB_WI@Z 004151a0 f i libTestFramework:OptionParser.obj
 0001:000141f0       ??$_Debug_pointer@PAD@std@@YGXPAPADPB_WI@Z 004151f0 f i libTestFramework:OptionParser.obj
 0001:00014220       ??$_Iter_cat@PAPAVOption@TestFramework@OpenHome@@@std@@YG?AUrandom_access_iterator_tag@0@ABQAPAVOption@TestFramework@OpenHome@@@Z 00415220 f i libTestFramework:OptionParser.obj
 0001:00014280       ??$_Debug_range2@PAPAVOption@TestFramework@OpenHome@@@std@@YGXPAPAVOption@TestFramework@OpenHome@@0PB_WIUrandom_access_iterator_tag@0@@Z 00415280 f i libTestFramework:OptionParser.obj
 0001:000142e0       ??$_Iter_cat@PAPAD@std@@YG?AUrandom_access_iterator_tag@0@ABQAPAD@Z 004152e0 f i libTestFramework:OptionParser.obj
 0001:00014340       ??$_Debug_range2@PAPAD@std@@YGXPAPAD0PB_WIUrandom_access_iterator_tag@0@@Z 00415340 f i libTestFramework:OptionParser.obj
 0001:000143a0       ?Empty@Brx@OpenHome@@SGABVBrn@2@XZ 004153a0 f   libohNetCore:Buffer.obj
 0001:000143b0       ?Equals@Brx@OpenHome@@QBE_NABV12@@Z 004153b0 f   libohNetCore:Buffer.obj
 0001:00014430       ?At@Brx@OpenHome@@QBEABEI@Z 00415430 f   libohNetCore:Buffer.obj
 0001:00014490       ?Split@Brx@OpenHome@@QBE?AVBrn@2@I@Z 00415490 f   libohNetCore:Buffer.obj
 0001:00014520       ?Split@Brx@OpenHome@@QBE?AVBrn@2@II@Z 00415520 f   libohNetCore:Buffer.obj
 0001:000145a0       ?BeginsWith@Brx@OpenHome@@QBE_NABV12@@Z 004155a0 f   libohNetCore:Buffer.obj
 0001:00014620       ??0Brn@OpenHome@@QAE@PBD@Z 00415620 f   libohNetCore:Buffer.obj
 0001:00014670       ?Set@Brn@OpenHome@@QAEXPBD@Z 00415670 f   libohNetCore:Buffer.obj
 0001:000146b0       ?Ptr@Brn@OpenHome@@UBEPBEXZ 004156b0 f   libohNetCore:Buffer.obj
 0001:000146f0       ??1Brv@OpenHome@@UAE@XZ    004156f0 f   libohNetCore:Buffer.obj
 0001:00014730       ?Ptr@Brv@OpenHome@@UBEPBEXZ 00415730 f   libohNetCore:Buffer.obj
 0001:00014750       ??0Brh@OpenHome@@QAE@ABVBrx@1@@Z 00415750 f   libohNetCore:Buffer.obj
 0001:000147d0       ??0Brh@OpenHome@@QAE@PBD@Z 004157d0 f   libohNetCore:Buffer.obj
 0001:00014850       ?Set@Brh@OpenHome@@QAEXPBEI@Z 00415850 f   libohNetCore:Buffer.obj
 0001:000148b0       ?Set@Brh@OpenHome@@QAEXPBD@Z 004158b0 f   libohNetCore:Buffer.obj
 0001:000148f0       ?TransferTo@Brh@OpenHome@@QAEXAAV12@@Z 004158f0 f   libohNetCore:Buffer.obj
 0001:00014950       ?Extract@Brh@OpenHome@@QAEPADXZ 00415950 f   libohNetCore:Buffer.obj
 0001:00014990       ??0Brhz@OpenHome@@QAE@ABVBrx@1@@Z 00415990 f   libohNetCore:Buffer.obj
 0001:00014a10       ??0Brhz@OpenHome@@QAE@PBD@Z 00415a10 f   libohNetCore:Buffer.obj
 0001:00014a90       ?Set@Brhz@OpenHome@@QAEXPBEI@Z 00415a90 f   libohNetCore:Buffer.obj
 0001:00014b50       ?Set@Brhz@OpenHome@@QAEXPBD@Z 00415b50 f   libohNetCore:Buffer.obj
 0001:00014b90       ?Shrink@Brhz@OpenHome@@QAEXI@Z 00415b90 f   libohNetCore:Buffer.obj
 0001:00014c30       ?TransferTo@Brhz@OpenHome@@QAEXAAVBrh@2@@Z 00415c30 f   libohNetCore:Buffer.obj
 0001:00014c90       ?TransferTo@Brhz@OpenHome@@QAEXAAV12@@Z 00415c90 f   libohNetCore:Buffer.obj
 0001:00014cf0       ?Transfer@Brhz@OpenHome@@QAEPADXZ 00415cf0 f   libohNetCore:Buffer.obj
 0001:00014d30       ??0Bwx@OpenHome@@IAE@II@Z  00415d30 f   libohNetCore:Buffer.obj
 0001:00014dd0       ?Replace@Bwx@OpenHome@@QAEXABVBrx@2@@Z 00415dd0 f   libohNetCore:Buffer.obj
 0001:00014e60       ?ReplaceThrow@Bwx@OpenHome@@QAEXABVBrx@2@@Z 00415e60 f   libohNetCore:Buffer.obj
 0001:00014f80       ?Replace@Bwx@OpenHome@@QAEXPBEI@Z 00415f80 f   libohNetCore:Buffer.obj
 0001:00014ff0       ?Replace@Bwx@OpenHome@@QAEXPBD@Z 00415ff0 f   libohNetCore:Buffer.obj
 0001:00015080       ?Append@Bwx@OpenHome@@QAEXPBD@Z 00416080 f   libohNetCore:Buffer.obj
 0001:000150c0       ?Append@Bwx@OpenHome@@QAEXABVBrx@2@@Z 004160c0 f   libohNetCore:Buffer.obj
 0001:00015110       ?Append@Bwx@OpenHome@@QAEXPBEI@Z 00416110 f   libohNetCore:Buffer.obj
 0001:000151a0       ?AppendPrintf@Bwx@OpenHome@@QAAXPBDZZ 004161a0 f   libohNetCore:Buffer.obj
 0001:000152e0       ?PtrZ@Bwx@OpenHome@@QBEPBDXZ 004162e0 f   libohNetCore:Buffer.obj
 0001:00015360       ?Fill@Bwx@OpenHome@@QAEXE@Z 00416360 f   libohNetCore:Buffer.obj
 0001:000153b0       ?SetBytes@Bwx@OpenHome@@QAEXI@Z 004163b0 f   libohNetCore:Buffer.obj
 0001:00015400       ?At@Bwx@OpenHome@@QAEAAEI@Z 00416400 f   libohNetCore:Buffer.obj
 0001:00015460       ??0Bwn@OpenHome@@QAE@XZ    00416460 f   libohNetCore:Buffer.obj
 0001:000154a0       ??0Bwn@OpenHome@@QAE@ABVBwx@1@@Z 004164a0 f   libohNetCore:Buffer.obj
 0001:00015540       ??0Bwn@OpenHome@@QAE@ABV01@@Z 00416540 f   libohNetCore:Buffer.obj
 0001:000155e0       ??0Bwn@OpenHome@@QAE@PBEI@Z 004165e0 f   libohNetCore:Buffer.obj
 0001:00015630       ??0Bwn@OpenHome@@QAE@PBEII@Z 00416630 f   libohNetCore:Buffer.obj
 0001:00015680       ??0Bwn@OpenHome@@QAE@PBDI@Z 00416680 f   libohNetCore:Buffer.obj
 0001:000156d0       ??0Bwn@OpenHome@@QAE@PBDII@Z 004166d0 f   libohNetCore:Buffer.obj
 0001:00015720       ?Set@Bwn@OpenHome@@QAEXABVBwx@2@@Z 00416720 f   libohNetCore:Buffer.obj
 0001:00015780       ?Set@Bwn@OpenHome@@QAEXPBEI@Z 00416780 f   libohNetCore:Buffer.obj
 0001:000157b0       ?Set@Bwn@OpenHome@@QAEXPBEII@Z 004167b0 f   libohNetCore:Buffer.obj
 0001:00015800       ?Ptr@Bwn@OpenHome@@UBEPBEXZ 00416800 f   libohNetCore:Buffer.obj
 0001:00015820       ??0Bwh@OpenHome@@QAE@XZ    00416820 f   libohNetCore:Buffer.obj
 0001:00015860       ??0Bwh@OpenHome@@QAE@I@Z   00416860 f   libohNetCore:Buffer.obj
 0001:000158b0       ??0Bwh@OpenHome@@QAE@II@Z  004168b0 f   libohNetCore:Buffer.obj
 0001:00015900       ??1Bwh@OpenHome@@UAE@XZ    00416900 f   libohNetCore:Buffer.obj
 0001:00015940       ?Ptr@Bwh@OpenHome@@UBEPBEXZ 00416940 f   libohNetCore:Buffer.obj
 0001:00015980       ??0Bwh@OpenHome@@QAE@PBD@Z 00416980 f   libohNetCore:Buffer.obj
 0001:00015a20       ??0Bwh@OpenHome@@QAE@PBEI@Z 00416a20 f   libohNetCore:Buffer.obj
 0001:00015ac0       ??0Bwh@OpenHome@@QAE@ABVBrx@1@@Z 00416ac0 f   libohNetCore:Buffer.obj
 0001:00015b60       ??0Bwh@OpenHome@@QAE@ABV01@@Z 00416b60 f   libohNetCore:Buffer.obj
 0001:00015c00       ?Grow@Bwh@OpenHome@@QAEXI@Z 00416c00 f   libohNetCore:Buffer.obj
 0001:00015cb0       ?TransferTo@Bwh@OpenHome@@QAEXAAVBrh@2@@Z 00416cb0 f   libohNetCore:Buffer.obj
 0001:00015d10       ?TransferTo@Bwh@OpenHome@@QAEXAAVBrhz@2@@Z 00416d10 f   libohNetCore:Buffer.obj
 0001:00015d70       ?TransferTo@Bwh@OpenHome@@QAEXAAV12@@Z 00416d70 f   libohNetCore:Buffer.obj
 0001:00015dd0       ??RBufferCmp@OpenHome@@QBE_NABVBrx@1@0@Z 00416dd0 f   libohNetCore:Buffer.obj
 0001:00015ed0       ?MaxBytes@Bwx@OpenHome@@QBEIXZ 00416ed0 f i libohNetCore:Buffer.obj
 0001:00015ef0       ??_GBwx@OpenHome@@UAEPAXI@Z 00416ef0 f i libohNetCore:Buffer.obj
 0001:00015ef0       ??_EBwx@OpenHome@@UAEPAXI@Z 00416ef0 f i libohNetCore:Buffer.obj
 0001:00015f30       ??0BufferOverflow@OpenHome@@QAE@PBDI@Z 00416f30 f i libohNetCore:Buffer.obj
 0001:00015f70       ??1BufferOverflow@OpenHome@@QAE@XZ 00416f70 f i libohNetCore:Buffer.obj
 0001:00015fa0       ??0BufferFull@OpenHome@@QAE@PBDI@Z 00416fa0 f i libohNetCore:Buffer.obj
 0001:00015fe0       ??1BufferFull@OpenHome@@QAE@XZ 00416fe0 f i libohNetCore:Buffer.obj
 0001:00016010       ??_GBwn@OpenHome@@UAEPAXI@Z 00417010 f i libohNetCore:Buffer.obj
 0001:00016010       ??_EBwn@OpenHome@@UAEPAXI@Z 00417010 f i libohNetCore:Buffer.obj
 0001:00016050       ??1Bwn@OpenHome@@UAE@XZ    00417050 f i libohNetCore:Buffer.obj
 0001:00016080       ??_EBwh@OpenHome@@UAEPAXI@Z 00417080 f i libohNetCore:Buffer.obj
 0001:00016080       ??_GBwh@OpenHome@@UAEPAXI@Z 00417080 f i libohNetCore:Buffer.obj
 0001:000160c0       ?PropertiesLock@DvProvider@Net@OpenHome@@QAEXXZ 004170c0 f   libohNetCore:DvProvider.obj
 0001:00016110       ?PropertiesUnlock@DvProvider@Net@OpenHome@@QAEXXZ 00417110 f   libohNetCore:DvProvider.obj
 0001:00016190       ??0DvProvider@Net@OpenHome@@IAE@AAVDviDevice@12@PBD1I@Z 00417190 f   libohNetCore:DvProvider.obj
 0001:00016260       ??1DvProvider@Net@OpenHome@@MAE@XZ 00417260 f   libohNetCore:DvProvider.obj
 0001:00016280       ?SetPropertyInt@DvProvider@Net@OpenHome@@IAE_NAAVPropertyInt@23@H@Z 00417280 f   libohNetCore:DvProvider.obj
 0001:000162c0       ?SetPropertyUint@DvProvider@Net@OpenHome@@IAE_NAAVPropertyUint@23@I@Z 004172c0 f   libohNetCore:DvProvider.obj
 0001:00016300       ?SetPropertyBool@DvProvider@Net@OpenHome@@IAE_NAAVPropertyBool@23@_N@Z 00417300 f   libohNetCore:DvProvider.obj
 0001:00016340       ?SetPropertyString@DvProvider@Net@OpenHome@@IAE_NAAVPropertyString@23@ABVBrx@3@@Z 00417340 f   libohNetCore:DvProvider.obj
 0001:00016380       ?SetPropertyBinary@DvProvider@Net@OpenHome@@IAE_NAAVPropertyBinary@23@ABVBrx@3@@Z 00417380 f   libohNetCore:DvProvider.obj
 0001:000163c0       ?TryPublishUpdate@DvProvider@Net@OpenHome@@AAEXXZ 004173c0 f   libohNetCore:DvProvider.obj
 0001:00016440       ??_EDvProvider@Net@OpenHome@@MAEPAXI@Z 00417440 f i libohNetCore:DvProvider.obj
 0001:000164c0       ??0DvDevice@Net@OpenHome@@QAE@ABVBrx@2@@Z 004174c0 f   libohNetCore:DvDevice.obj
 0001:00016570       ??0DvDevice@Net@OpenHome@@IAE@XZ 00417570 f   libohNetCore:DvDevice.obj
 0001:00016590       ??1DvDevice@Net@OpenHome@@QAE@XZ 00417590 f   libohNetCore:DvDevice.obj
 0001:000165c0       ?Device@DvDevice@Net@OpenHome@@QAEAAVDviDevice@23@XZ 004175c0 f   libohNetCore:DvDevice.obj
 0001:000165e0       ?Udn@DvDevice@Net@OpenHome@@QBEABVBrx@3@XZ 004175e0 f   libohNetCore:DvDevice.obj
 0001:00016610       ?Enabled@DvDevice@Net@OpenHome@@QBE_NXZ 00417610 f   libohNetCore:DvDevice.obj
 0001:00016640       ?SetEnabled@DvDevice@Net@OpenHome@@QAEXXZ 00417640 f   libohNetCore:DvDevice.obj
 0001:00016670       ?SetDisabled@DvDevice@Net@OpenHome@@QAEXVFunctor@3@@Z 00417670 f   libohNetCore:DvDevice.obj
 0001:000166c0       ?GetAttribute@DvDevice@Net@OpenHome@@QBEXPBDPAPBD@Z 004176c0 f   libohNetCore:DvDevice.obj
 0001:000166f0       ?SetAttribute@DvDevice@Net@OpenHome@@QAEXPBD0@Z 004176f0 f   libohNetCore:DvDevice.obj
 0001:00016720       ?SetXmlExtension@DvDevice@Net@OpenHome@@QAEXPBD@Z 00417720 f   libohNetCore:DvDevice.obj
 0001:00016750       ??0DvDeviceStandard@Net@OpenHome@@QAE@ABVBrx@2@@Z 00417750 f   libohNetCore:DvDevice.obj
 0001:00016810       ??0DvDeviceStandard@Net@OpenHome@@QAE@ABVBrx@2@AAVIResourceManager@12@@Z 00417810 f   libohNetCore:DvDevice.obj
 0001:000168d0       ?IsHex@Ascii@OpenHome@@SG_ND@Z 004178d0 f   libohNetCore:Ascii.obj
 0001:00016930       ?IsDigit@Ascii@OpenHome@@SG_ND@Z 00417930 f   libohNetCore:Ascii.obj
 0001:00016970       ?IsWhitespace@Ascii@OpenHome@@SG_ND@Z 00417970 f   libohNetCore:Ascii.obj
 0001:00016990       ?IsLineEnding@Ascii@OpenHome@@SG_ND@Z 00417990 f   libohNetCore:Ascii.obj
 0001:000169d0       ?IsAlphabetic@Ascii@OpenHome@@SG_ND@Z 004179d0 f   libohNetCore:Ascii.obj
 0001:00016a20       ?IsUpperCase@Ascii@OpenHome@@SG_ND@Z 00417a20 f   libohNetCore:Ascii.obj
 0001:00016a60       ?IsLowerCase@Ascii@OpenHome@@SG_ND@Z 00417a60 f   libohNetCore:Ascii.obj
 0001:00016aa0       ?ToLowerCase@Ascii@OpenHome@@SGDD@Z 00417aa0 f   libohNetCore:Ascii.obj
 0001:00016af0       ?ToUpperCase@Ascii@OpenHome@@SGDD@Z 00417af0 f   libohNetCore:Ascii.obj
 0001:00016b40       ?CaseInsensitiveEquals@Ascii@OpenHome@@SG_NDD@Z 00417b40 f   libohNetCore:Ascii.obj
 0001:00016b90       ?CaseInsensitiveEquals@Ascii@OpenHome@@SG_NABVBrx@2@0@Z 00417b90 f   libohNetCore:Ascii.obj
 0001:00016c20       ?RemoveTheFromStart@Ascii@OpenHome@@SG_NABVBrx@2@AAVBwx@2@@Z 00417c20 f   libohNetCore:Ascii.obj
 0001:00016d60       ?HexChar@Ascii@OpenHome@@SGDI@Z 00417d60 f   libohNetCore:Ascii.obj
 0001:00016e30       ?HexValue@Ascii@OpenHome@@SGID@Z 00417e30 f   libohNetCore:Ascii.obj
 0001:00016f30       ?DecChar@Ascii@OpenHome@@SGDI@Z 00417f30 f   libohNetCore:Ascii.obj
 0001:00016ff0       ?DecValue@Ascii@OpenHome@@SGID@Z 00417ff0 f   libohNetCore:Ascii.obj
 0001:000170c0       ?AppendDec@Ascii@OpenHome@@SGIAAVBwx@2@E@Z 004180c0 f   libohNetCore:Ascii.obj
 0001:000170e0       ?AppendDec@Ascii@OpenHome@@SGIAAVBwx@2@C@Z 004180e0 f   libohNetCore:Ascii.obj
 0001:00017100       ?AppendDec@Ascii@OpenHome@@SGIAAVBwx@2@H@Z 00418100 f   libohNetCore:Ascii.obj
 0001:00017280       ?AppendDec@Ascii@OpenHome@@SGIAAVBwx@2@I@Z 00418280 f   libohNetCore:Ascii.obj
 0001:000173e0       ?AppendDec@Ascii@OpenHome@@SGIAAVBwx@2@_J@Z 004183e0 f   libohNetCore:Ascii.obj
 0001:00017590       ?AppendDec@Ascii@OpenHome@@SGIAAVBwx@2@_K@Z 00418590 f   libohNetCore:Ascii.obj
 0001:00017700       ?AppendHex@Ascii@OpenHome@@SGIAAVBwx@2@I@Z 00418700 f   libohNetCore:Ascii.obj
 0001:000177a0       ?AppendHex@Ascii@OpenHome@@SGIAAVBwx@2@E@Z 004187a0 f   libohNetCore:Ascii.obj
 0001:000177f0       ?AppendHexPrefix@Ascii@OpenHome@@SGIAAVBwx@2@@Z 004187f0 f   libohNetCore:Ascii.obj
 0001:00017810       ?Contains@Ascii@OpenHome@@SG_NABVBrx@2@D@Z 00418810 f   libohNetCore:Ascii.obj
 0001:00017870       ?ContainsWhitespace@Ascii@OpenHome@@SG_NABVBrx@2@@Z 00418870 f   libohNetCore:Ascii.obj
 0001:000178d0       ?IndexOf@Ascii@OpenHome@@SGIABVBrx@2@D@Z 004188d0 f   libohNetCore:Ascii.obj
 0001:00017960       ?Substitute@Ascii@OpenHome@@SGXAAVBwx@2@DD@Z 00418960 f   libohNetCore:Ascii.obj
 0001:000179f0       ?Trim@Ascii@OpenHome@@SG?AVBrn@2@ABVBrx@2@@Z 004189f0 f   libohNetCore:Ascii.obj
 0001:00017af0       ?Int@Ascii@OpenHome@@SGHABVBrx@2@@Z 00418af0 f   libohNetCore:Ascii.obj
 0001:00017d70       ?Uint@Ascii@OpenHome@@SGIABVBrx@2@@Z 00418d70 f   libohNetCore:Ascii.obj
 0001:00017f30       ?Int64@Ascii@OpenHome@@SG_JABVBrx@2@@Z 00418f30 f   libohNetCore:Ascii.obj
 0001:00018200       ?Uint64@Ascii@OpenHome@@SG_KABVBrx@2@@Z 00419200 f   libohNetCore:Ascii.obj
 0001:000183e0       ?UintHex@Ascii@OpenHome@@SGIABVBrx@2@@Z 004193e0 f   libohNetCore:Ascii.obj
 0001:000185a0       ??0ReaderAscii@OpenHome@@QAE@AAVIReader@1@@Z 004195a0 f   libohNetCore:Ascii.obj
 0001:00018620       ?ReadInt@ReaderAscii@OpenHome@@QAEHE@Z 00419620 f   libohNetCore:Ascii.obj
 0001:000186e0       ?ReadUint@ReaderAscii@OpenHome@@QAEIE@Z 004196e0 f   libohNetCore:Ascii.obj
 0001:000187a0       ?Read@ReaderAscii@OpenHome@@UAE?AVBrn@2@I@Z 004197a0 f   libohNetCore:Ascii.obj
 0001:00018800       ?ReadUntil@ReaderAscii@OpenHome@@UAE?AVBrn@2@E@Z 00419800 f   libohNetCore:Ascii.obj
 0001:00018870       ??0WriterAscii@OpenHome@@QAE@AAVIWriter@1@@Z 00419870 f   libohNetCore:Ascii.obj
 0001:000188f0       ?WriteSpace@WriterAscii@OpenHome@@UAEXXZ 004198f0 f   libohNetCore:Ascii.obj
 0001:00018930       ?WriteNewline@WriterAscii@OpenHome@@UAEXXZ 00419930 f   libohNetCore:Ascii.obj
 0001:00018970       ?WriteTab@WriterAscii@OpenHome@@UAEXXZ 00419970 f   libohNetCore:Ascii.obj
 0001:000189b0       ?WriteInt@WriterAscii@OpenHome@@UAEXH@Z 004199b0 f   libohNetCore:Ascii.obj
 0001:00018a90       ?WriteIntPadded@WriterAscii@OpenHome@@UAEXH@Z 00419a90 f   libohNetCore:Ascii.obj
 0001:00018b90       ?WriteUint@WriterAscii@OpenHome@@UAEXI@Z 00419b90 f   libohNetCore:Ascii.obj
 0001:00018c70       ?WriteUintPadded@WriterAscii@OpenHome@@UAEXI@Z 00419c70 f   libohNetCore:Ascii.obj
 0001:00018d70       ?WriteInt64@WriterAscii@OpenHome@@UAEX_J@Z 00419d70 f   libohNetCore:Ascii.obj
 0001:00018e50       ?WriteUint64@WriterAscii@OpenHome@@UAEX_K@Z 00419e50 f   libohNetCore:Ascii.obj
 0001:00018f30       ?WriteHex@WriterAscii@OpenHome@@UAEXI@Z 00419f30 f   libohNetCore:Ascii.obj
 0001:00019020       ?WriteHex@WriterAscii@OpenHome@@UAEXE@Z 0041a020 f   libohNetCore:Ascii.obj
 0001:00019110       ?WriteHexPrefix@WriterAscii@OpenHome@@UAEXXZ 0041a110 f   libohNetCore:Ascii.obj
 0001:00019150       ?Write@WriterAscii@OpenHome@@UAEXE@Z 0041a150 f   libohNetCore:Ascii.obj
 0001:000191a0       ?Write@WriterAscii@OpenHome@@UAEXABVBrx@2@@Z 0041a1a0 f   libohNetCore:Ascii.obj
 0001:000191e0       ?WriteFlush@WriterAscii@OpenHome@@UAEXXZ 0041a1e0 f   libohNetCore:Ascii.obj
 0001:00019220       ?StreamWriteUint@Ascii@OpenHome@@SGXAAVIWriter@2@I@Z 0041a220 f   libohNetCore:Ascii.obj
 0001:00019300       ?StreamWriteInt@Ascii@OpenHome@@SGXAAVIWriter@2@H@Z 0041a300 f   libohNetCore:Ascii.obj
 0001:000193e0       ??ABrx@OpenHome@@QBEABEI@Z 0041a3e0 f i libohNetCore:Ascii.obj
 0001:00019410       ??0AsciiError@OpenHome@@QAE@PBDI@Z 0041a410 f i libohNetCore:Ascii.obj
 0001:00019450       ??1AsciiError@OpenHome@@QAE@XZ 0041a450 f i libohNetCore:Ascii.obj
 0001:00019480       ?Append@Bwx@OpenHome@@QAEXE@Z 0041a480 f i libohNetCore:Ascii.obj
 0001:000194b0       ??ABwx@OpenHome@@QAEAAEI@Z 0041a4b0 f i libohNetCore:Ascii.obj
 0001:000194e0       ??1?$Bws@$0BE@@OpenHome@@UAE@XZ 0041a4e0 f i libohNetCore:Ascii.obj
 0001:00019510       ??0Brn@OpenHome@@QAE@ABV01@@Z 0041a510 f i libohNetCore:Ascii.obj
 0001:000195a0       ??0Brx@OpenHome@@IAE@ABV01@@Z 0041a5a0 f i libohNetCore:Ascii.obj
 0001:000195e0       ??0ReaderError@OpenHome@@QAE@PBDI@Z 0041a5e0 f i libohNetCore:Ascii.obj
 0001:00019620       ??1ReaderError@OpenHome@@QAE@XZ 0041a620 f i libohNetCore:Ascii.obj
 0001:00019650       ??1IReader@OpenHome@@UAE@XZ 0041a650 f i libohNetCore:Ascii.obj
 0001:00019670       ??_EIReader@OpenHome@@UAEPAXI@Z 0041a670 f i libohNetCore:Ascii.obj
 0001:00019670       ??_GIReader@OpenHome@@UAEPAXI@Z 0041a670 f i libohNetCore:Ascii.obj
 0001:000196b0       ??_GReaderAscii@OpenHome@@UAEPAXI@Z 0041a6b0 f i libohNetCore:Ascii.obj
 0001:000196b0       ??_EReaderAscii@OpenHome@@UAEPAXI@Z 0041a6b0 f i libohNetCore:Ascii.obj
 0001:000196f0       ??0IReader@OpenHome@@QAE@XZ 0041a6f0 f i libohNetCore:Ascii.obj
 0001:00019710       ??1ReaderAscii@OpenHome@@UAE@XZ 0041a710 f i libohNetCore:Ascii.obj
 0001:00019740       ??1IWriterAscii@OpenHome@@UAE@XZ 0041a740 f i libohNetCore:Ascii.obj
 0001:00019770       ??_EIWriterAscii@OpenHome@@UAEPAXI@Z 0041a770 f i libohNetCore:Ascii.obj
 0001:00019770       ??_GIWriterAscii@OpenHome@@UAEPAXI@Z 0041a770 f i libohNetCore:Ascii.obj
 0001:000197b0       ??_GWriterAscii@OpenHome@@UAEPAXI@Z 0041a7b0 f i libohNetCore:Ascii.obj
 0001:000197b0       ??_EWriterAscii@OpenHome@@UAEPAXI@Z 0041a7b0 f i libohNetCore:Ascii.obj
 0001:000197f0       ??0IWriterAscii@OpenHome@@QAE@XZ 0041a7f0 f i libohNetCore:Ascii.obj
 0001:00019820       ??1WriterAscii@OpenHome@@UAE@XZ 0041a820 f i libohNetCore:Ascii.obj
 0001:00019850       ??0IWriter@OpenHome@@QAE@XZ 0041a850 f i libohNetCore:Ascii.obj
 0001:00019870       ??1?$Bws@$07@OpenHome@@UAE@XZ 0041a870 f i libohNetCore:Ascii.obj
 0001:000198a0       ??1?$Bws@$01@OpenHome@@UAE@XZ 0041a8a0 f i libohNetCore:Ascii.obj
 0001:000198d0       ??0?$Bws@$0BE@@OpenHome@@QAE@XZ 0041a8d0 f i libohNetCore:Ascii.obj
 0001:00019910       ?Ptr@?$Bws@$0BE@@OpenHome@@UBEPBEXZ 0041a910 f i libohNetCore:Ascii.obj
 0001:00019930       ??0?$Bws@$0L@@OpenHome@@QAE@XZ 0041a930 f i libohNetCore:Ascii.obj
 0001:00019970       ??0?$Bws@$07@OpenHome@@QAE@XZ 0041a970 f i libohNetCore:Ascii.obj
 0001:000199b0       ?Ptr@?$Bws@$07@OpenHome@@UBEPBEXZ 0041a9b0 f i libohNetCore:Ascii.obj
 0001:000199d0       ??0?$Bws@$01@OpenHome@@QAE@XZ 0041a9d0 f i libohNetCore:Ascii.obj
 0001:00019a10       ?Ptr@?$Bws@$01@OpenHome@@UBEPBEXZ 0041aa10 f i libohNetCore:Ascii.obj
 0001:00019a30       ??_E?$Bws@$0BE@@OpenHome@@UAEPAXI@Z 0041aa30 f i libohNetCore:Ascii.obj
 0001:00019a30       ??_G?$Bws@$0BE@@OpenHome@@UAEPAXI@Z 0041aa30 f i libohNetCore:Ascii.obj
 0001:00019a70       ??_E?$Bws@$07@OpenHome@@UAEPAXI@Z 0041aa70 f i libohNetCore:Ascii.obj
 0001:00019a70       ??_G?$Bws@$07@OpenHome@@UAEPAXI@Z 0041aa70 f i libohNetCore:Ascii.obj
 0001:00019ab0       ??_G?$Bws@$01@OpenHome@@UAEPAXI@Z 0041aab0 f i libohNetCore:Ascii.obj
 0001:00019ab0       ??_E?$Bws@$01@OpenHome@@UAEPAXI@Z 0041aab0 f i libohNetCore:Ascii.obj
 0001:00019af0       ?Twiddle@@YGIII@Z          0041aaf0 f   libohNetCore:Maths.obj
 0001:00019b20       ?SetRandomSeed@OpenHome@@YGXABVBrx@1@@Z 0041ab20 f   libohNetCore:Maths.obj
 0001:00019c10       ?SetRandomSeed@OpenHome@@YGXI@Z 0041ac10 f   libohNetCore:Maths.obj
 0001:00019ca0       ?Random@OpenHome@@YGIII@Z  0041aca0 f   libohNetCore:Maths.obj
 0001:00019e40       ?LittleEndian4@Arch@OpenHome@@SGII@Z 0041ae40 f i libohNetCore:Maths.obj
 0001:00019e50       ??0NetworkAdapterList@OpenHome@@QAE@I@Z 0041ae50 f   libohNetCore:NetworkAdapterList.obj
 0001:00019f50       ??1NetworkAdapterList@OpenHome@@QAE@XZ 0041af50 f   libohNetCore:NetworkAdapterList.obj
 0001:0001a000       ?CurrentAdapter@NetworkAdapterList@OpenHome@@QBEPAVNetworkAdapter@2@XZ 0041b000 f   libohNetCore:NetworkAdapterList.obj
 0001:0001a0e0       ?List@NetworkAdapterList@OpenHome@@QBEABV?$vector@PAVNetworkAdapter@OpenHome@@V?$allocator@PAVNetworkAdapter@OpenHome@@@std@@@std@@XZ 0041b0e0 f   libohNetCore:NetworkAdapterList.obj
 0001:0001a100       ?CreateSubnetList@NetworkAdapterList@OpenHome@@QBEPAV?$vector@PAVNetworkAdapter@OpenHome@@V?$allocator@PAVNetworkAdapter@OpenHome@@@std@@@std@@XZ 0041b100 f   libohNetCore:NetworkAdapterList.obj
 0001:0001a150       ?DestroySubnetList@NetworkAdapterList@OpenHome@@SGXPAV?$vector@PAVNetworkAdapter@OpenHome@@V?$allocator@PAVNetworkAdapter@OpenHome@@@std@@@std@@@Z 0041b150 f   libohNetCore:NetworkAdapterList.obj
 0001:0001a1e0       ?SetCurrentSubnet@NetworkAdapterList@OpenHome@@QAEXI@Z 0041b1e0 f   libohNetCore:NetworkAdapterList.obj
 0001:0001a270       ?AddCurrentChangeListener@NetworkAdapterList@OpenHome@@QAEIVFunctor@2@@Z 0041b270 f   libohNetCore:NetworkAdapterList.obj
 0001:0001a2c0       ?RemoveCurrentChangeListener@NetworkAdapterList@OpenHome@@QAEXI@Z 0041b2c0 f   libohNetCore:NetworkAdapterList.obj
 0001:0001a300       ?AddSubnetListChangeListener@NetworkAdapterList@OpenHome@@QAEIVFunctor@2@@Z 0041b300 f   libohNetCore:NetworkAdapterList.obj
 0001:0001a350       ?RemoveSubnetListChangeListener@NetworkAdapterList@OpenHome@@QAEXI@Z 0041b350 f   libohNetCore:NetworkAdapterList.obj
 0001:0001a390       ?CreateSubnetListLocked@NetworkAdapterList@OpenHome@@ABEPAV?$vector@PAVNetworkAdapter@OpenHome@@V?$allocator@PAVNetworkAdapter@OpenHome@@@std@@@std@@XZ 0041b390 f   libohNetCore:NetworkAdapterList.obj
 0001:0001a4c0       ?AddListener@NetworkAdapterList@OpenHome@@AAEIVFunctor@2@AAV?$map@IVFunctor@OpenHome@@U?$less@I@std@@V?$allocator@U?$pair@$$CBIVFunctor@OpenHome@@@std@@@4@@std@@@Z 0041b4c0 f   libohNetCore:NetworkAdapterList.obj
 0001:0001a570       ?RemoveSubnetListChangeListener@NetworkAdapterList@OpenHome@@AAEXIAAV?$map@IVFunctor@OpenHome@@U?$less@I@std@@V?$allocator@U?$pair@$$CBIVFunctor@OpenHome@@@std@@@4@@std@@@Z 0041b570 f   libohNetCore:NetworkAdapterList.obj
 0001:0001a6a0       ?InterfaceListChanged@NetworkAdapterList@OpenHome@@CGXPAX@Z 0041b6a0 f   libohNetCore:NetworkAdapterList.obj
 0001:0001a6c0       ?FindSubnet@NetworkAdapterList@OpenHome@@CGHIABV?$vector@PAVNetworkAdapter@OpenHome@@V?$allocator@PAVNetworkAdapter@OpenHome@@@std@@@std@@@Z 0041b6c0 f   libohNetCore:NetworkAdapterList.obj
 0001:0001a720       ?UpdateCurrentAdapter@NetworkAdapterList@OpenHome@@AAEXXZ 0041b720 f   libohNetCore:NetworkAdapterList.obj
 0001:0001a7d0       ?HandleInterfaceListChanged@NetworkAdapterList@OpenHome@@AAEXXZ 0041b7d0 f   libohNetCore:NetworkAdapterList.obj
 0001:0001a970       ?RunCallbacks@NetworkAdapterList@OpenHome@@AAEXAAV?$map@IVFunctor@OpenHome@@U?$less@I@std@@V?$allocator@U?$pair@$$CBIVFunctor@OpenHome@@@std@@@4@@std@@@Z 0041b970 f   libohNetCore:NetworkAdapterList.obj
 0001:0001aa90       ?NetworkSetInterfaceChangedObserver@Os@OpenHome@@SGXP6GXPAX@Z0@Z 0041ba90 f i libohNetCore:NetworkAdapterList.obj
 0001:0001aab0       ??1?$map@IVFunctor@OpenHome@@U?$less@I@std@@V?$allocator@U?$pair@$$CBIVFunctor@OpenHome@@@std@@@4@@std@@QAE@XZ 0041bab0 f i libohNetCore:NetworkAdapterList.obj
 0001:0001aae0       ??_G?$vector@PAVNetworkAdapter@OpenHome@@V?$allocator@PAVNetworkAdapter@OpenHome@@@std@@@std@@QAEPAXI@Z 0041bae0 f i libohNetCore:NetworkAdapterList.obj
 0001:0001ab20       ??1?$pair@V?$_Tree_iterator@V?$_Tree_val@V?$_Tmap_traits@IVFunctor@OpenHome@@U?$less@I@std@@V?$allocator@U?$pair@$$CBIVFunctor@OpenHome@@@std@@@4@$0A@@std@@@std@@@std@@_N@std@@QAE@XZ 0041bb20 f i libohNetCore:NetworkAdapterList.obj
 0001:0001ab50       ??1?$_Pair_base@V?$_Tree_iterator@V?$_Tree_val@V?$_Tmap_traits@IVFunctor@OpenHome@@U?$less@I@std@@V?$allocator@U?$pair@$$CBIVFunctor@OpenHome@@@std@@@4@$0A@@std@@@std@@@std@@_N@std@@QAE@XZ 0041bb50 f i libohNetCore:NetworkAdapterList.obj
 0001:0001ab80       ??1?$_Tree_iterator@V?$_Tree_val@V?$_Tmap_traits@IVFunctor@OpenHome@@U?$less@I@std@@V?$allocator@U?$pair@$$CBIVFunctor@OpenHome@@@std@@@4@$0A@@std@@@std@@@std@@QAE@XZ 0041bb80 f i libohNetCore:NetworkAdapterList.obj
 0001:0001abb0       ??1?$_Tree_const_iterator@V?$_Tree_val@V?$_Tmap_traits@IVFunctor@OpenHome@@U?$less@I@std@@V?$allocator@U?$pair@$$CBIVFunctor@OpenHome@@@std@@@4@$0A@@std@@@std@@@std@@QAE@XZ 0041bbb0 f i libohNetCore:NetworkAdapterList.obj
 0001:0001abe0       ??1?$_Tree_unchecked_const_iterator@V?$_Tree_val@V?$_Tmap_traits@IVFunctor@OpenHome@@U?$less@I@std@@V?$allocator@U?$pair@$$CBIVFunctor@OpenHome@@@std@@@4@$0A@@std@@@std@@U_Iterator_base12@2@@std@@QAE@XZ 0041bbe0 f i libohNetCore:NetworkAdapterList.obj
 0001:0001ac10       ??1?$_Iterator012@Ubidirectional_iterator_tag@std@@U?$pair@$$CBIVFunctor@OpenHome@@@2@HPBU32@ABU32@U_Iterator_base12@2@@std@@QAE@XZ 0041bc10 f i libohNetCore:NetworkAdapterList.obj
 0001:0001ac40       ??0?$_Tree_const_iterator@V?$_Tree_val@V?$_Tmap_traits@IVFunctor@OpenHome@@U?$less@I@std@@V?$allocator@U?$pair@$$CBIVFunctor@OpenHome@@@std@@@4@$0A@@std@@@std@@@std@@QAE@ABV01@@Z 0041bc40 f i libohNetCore:NetworkAdapterList.obj
 0001:0001ac70       ??0?$_Tree_unchecked_const_iterator@V?$_Tree_val@V?$_Tmap_traits@IVFunctor@OpenHome@@U?$less@I@std@@V?$allocator@U?$pair@$$CBIVFunctor@OpenHome@@@std@@@4@$0A@@std@@@std@@U_Iterator_base12@2@@std@@QAE@ABV01@@Z 0041bc70 f i libohNetCore:NetworkAdapterList.obj
 0001:0001acb0       ??0?$_Iterator012@Ubidirectional_iterator_tag@std@@U?$pair@$$CBIVFunctor@OpenHome@@@2@HPBU32@ABU32@U_Iterator_base12@2@@std@@QAE@ABU01@@Z 0041bcb0 f i libohNetCore:NetworkAdapterList.obj
 0001:0001ace0       ??RFunctor@OpenHome@@QBEXXZ 0041bce0 f i libohNetCore:NetworkAdapterList.obj
 0001:0001ad20       ??0?$map@IVFunctor@OpenHome@@U?$less@I@std@@V?$allocator@U?$pair@$$CBIVFunctor@OpenHome@@@std@@@4@@std@@QAE@XZ 0041bd20 f i libohNetCore:NetworkAdapterList.obj
 0001:0001ad60       ??1?$_Tree@V?$_Tmap_traits@IVFunctor@OpenHome@@U?$less@I@std@@V?$allocator@U?$pair@$$CBIVFunctor@OpenHome@@@std@@@4@$0A@@std@@@std@@QAE@XZ 0041bd60 f i libohNetCore:NetworkAdapterList.obj
 0001:0001add0       ?begin@?$_Tree@V?$_Tmap_traits@IVFunctor@OpenHome@@U?$less@I@std@@V?$allocator@U?$pair@$$CBIVFunctor@OpenHome@@@std@@@4@$0A@@std@@@std@@QAE?AV?$_Tree_iterator@V?$_Tree_val@V?$_Tmap_traits@IVFunctor@OpenHome@@U?$less@I@std@@V?$allocator@U?$pair@$$CBIVFunctor@OpenHome@@@std@@@4@$0A@@std@@@std@@@2@XZ 0041bdd0 f i libohNetCore:NetworkAdapterList.obj
 0001:0001ae30       ?end@?$_Tree@V?$_Tmap_traits@IVFunctor@OpenHome@@U?$less@I@std@@V?$allocator@U?$pair@$$CBIVFunctor@OpenHome@@@std@@@4@$0A@@std@@@std@@QAE?AV?$_Tree_iterator@V?$_Tree_val@V?$_Tmap_traits@IVFunctor@OpenHome@@U?$less@I@std@@V?$allocator@U?$pair@$$CBIVFunctor@OpenHome@@@std@@@4@$0A@@std@@@std@@@2@XZ 0041be30 f i libohNetCore:NetworkAdapterList.obj
 0001:0001ae80       ?erase@?$_Tree@V?$_Tmap_traits@IVFunctor@OpenHome@@U?$less@I@std@@V?$allocator@U?$pair@$$CBIVFunctor@OpenHome@@@std@@@4@$0A@@std@@@std@@QAE?AV?$_Tree_iterator@V?$_Tree_val@V?$_Tmap_traits@IVFunctor@OpenHome@@U?$less@I@std@@V?$allocator@U?$pair@$$CBIVFunctor@OpenHome@@@std@@@4@$0A@@std@@@std@@@2@V?$_Tree_const_iterator@V?$_Tree_val@V?$_Tmap_traits@IVFunctor@OpenHome@@U?$less@I@std@@V?$allocator@U?$pair@$$CBIVFunctor@OpenHome@@@std@@@4@$0A@@std@@@std@@@2@@Z 0041be80 f i libohNetCore:NetworkAdapterList.obj
 0001:0001b590       ?find@?$_Tree@V?$_Tmap_traits@IVFunctor@OpenHome@@U?$less@I@std@@V?$allocator@U?$pair@$$CBIVFunctor@OpenHome@@@std@@@4@$0A@@std@@@std@@QAE?AV?$_Tree_iterator@V?$_Tree_val@V?$_Tmap_traits@IVFunctor@OpenHome@@U?$less@I@std@@V?$allocator@U?$pair@$$CBIVFunctor@OpenHome@@@std@@@4@$0A@@std@@@std@@@2@ABI@Z 0041c590 f i libohNetCore:NetworkAdapterList.obj
 0001:0001b770       ??0?$vector@PAVNetworkAdapter@OpenHome@@V?$allocator@PAVNetworkAdapter@OpenHome@@@std@@@std@@QAE@XZ 0041c770 f i libohNetCore:NetworkAdapterList.obj
 0001:0001b7b0       ??1?$vector@PAVNetworkAdapter@OpenHome@@V?$allocator@PAVNetworkAdapter@OpenHome@@@std@@@std@@QAE@XZ 0041c7b0 f i libohNetCore:NetworkAdapterList.obj
 0001:0001b820       ??A?$vector@PAVNetworkAdapter@OpenHome@@V?$allocator@PAVNetworkAdapter@OpenHome@@@std@@@std@@QBEABQAVNetworkAdapter@OpenHome@@I@Z 0041c820 f i libohNetCore:NetworkAdapterList.obj
 0001:0001b8c0       ?push_back@?$vector@PAVNetworkAdapter@OpenHome@@V?$allocator@PAVNetworkAdapter@OpenHome@@@std@@@std@@QAEXABQAVNetworkAdapter@OpenHome@@@Z 0041c8c0 f i libohNetCore:NetworkAdapterList.obj
 0001:0001b9d0       ??C?$_Tree_iterator@V?$_Tree_val@V?$_Tmap_traits@IVFunctor@OpenHome@@U?$less@I@std@@V?$allocator@U?$pair@$$CBIVFunctor@OpenHome@@@std@@@4@$0A@@std@@@std@@@std@@QBEPAU?$pair@$$CBIVFunctor@OpenHome@@@1@XZ 0041c9d0 f i libohNetCore:NetworkAdapterList.obj
 0001:0001ba00       ??E?$_Tree_iterator@V?$_Tree_val@V?$_Tmap_traits@IVFunctor@OpenHome@@U?$less@I@std@@V?$allocator@U?$pair@$$CBIVFunctor@OpenHome@@@std@@@4@$0A@@std@@@std@@@std@@QAE?AV01@H@Z 0041ca00 f i libohNetCore:NetworkAdapterList.obj
 0001:0001bad0       ??9?$_Tree_const_iterator@V?$_Tree_val@V?$_Tmap_traits@IVFunctor@OpenHome@@U?$less@I@std@@V?$allocator@U?$pair@$$CBIVFunctor@OpenHome@@@std@@@4@$0A@@std@@@std@@@std@@QBE_NABV01@@Z 0041cad0 f i libohNetCore:NetworkAdapterList.obj
 0001:0001bb10       ??0?$_Tree_iterator@V?$_Tree_val@V?$_Tmap_traits@IVFunctor@OpenHome@@U?$less@I@std@@V?$allocator@U?$pair@$$CBIVFunctor@OpenHome@@@std@@@4@$0A@@std@@@std@@@std@@QAE@ABV01@@Z 0041cb10 f i libohNetCore:NetworkAdapterList.obj
 0001:0001bb40       ??0?$_Tree@V?$_Tmap_traits@IVFunctor@OpenHome@@U?$less@I@std@@V?$allocator@U?$pair@$$CBIVFunctor@OpenHome@@@std@@@4@$0A@@std@@@std@@QAE@ABU?$less@I@1@ABV?$allocator@U?$pair@$$CBIVFunctor@OpenHome@@@std@@@1@@Z 0041cb40 f i libohNetCore:NetworkAdapterList.obj
 0001:0001bb90       ?lower_bound@?$_Tree@V?$_Tmap_traits@IVFunctor@OpenHome@@U?$less@I@std@@V?$allocator@U?$pair@$$CBIVFunctor@OpenHome@@@std@@@4@$0A@@std@@@std@@QAE?AV?$_Tree_iterator@V?$_Tree_val@V?$_Tmap_traits@IVFunctor@OpenHome@@U?$less@I@std@@V?$allocator@U?$pair@$$CBIVFunctor@OpenHome@@@std@@@4@$0A@@std@@@std@@@2@ABI@Z 0041cb90 f i libohNetCore:NetworkAdapterList.obj
 0001:0001bbf0       ?_Lmost@?$_Tree@V?$_Tmap_traits@IVFunctor@OpenHome@@U?$less@I@std@@V?$allocator@U?$pair@$$CBIVFunctor@OpenHome@@@std@@@4@$0A@@std@@@std@@IBEAAPAU_Node@?$_Tree_nod@V?$_Tmap_traits@IVFunctor@OpenHome@@U?$less@I@std@@V?$allocator@U?$pair@$$CBIVFunctor@OpenHome@@@std@@@4@$0A@@std@@@2@XZ 0041cbf0 f i libohNetCore:NetworkAdapterList.obj
 0001:0001bc20       ?_Lrotate@?$_Tree@V?$_Tmap_traits@IVFunctor@OpenHome@@U?$less@I@std@@V?$allocator@U?$pair@$$CBIVFunctor@OpenHome@@@std@@@4@$0A@@std@@@std@@IAEXPAU_Node@?$_Tree_nod@V?$_Tmap_traits@IVFunctor@OpenHome@@U?$less@I@std@@V?$allocator@U?$pair@$$CBIVFunctor@OpenHome@@@std@@@4@$0A@@std@@@2@@Z 0041cc20 f i libohNetCore:NetworkAdapterList.obj
 0001:0001bd40       ?_Rmost@?$_Tree@V?$_Tmap_traits@IVFunctor@OpenHome@@U?$less@I@std@@V?$allocator@U?$pair@$$CBIVFunctor@OpenHome@@@std@@@4@$0A@@std@@@std@@IBEAAPAU_Node@?$_Tree_nod@V?$_Tmap_traits@IVFunctor@OpenHome@@U?$less@I@std@@V?$allocator@U?$pair@$$CBIVFunctor@OpenHome@@@std@@@4@$0A@@std@@@2@XZ 0041cd40 f i libohNetCore:NetworkAdapterList.obj
 0001:0001bd70       ?_Root@?$_Tree@V?$_Tmap_traits@IVFunctor@OpenHome@@U?$less@I@std@@V?$allocator@U?$pair@$$CBIVFunctor@OpenHome@@@std@@@4@$0A@@std@@@std@@IBEAAPAU_Node@?$_Tree_nod@V?$_Tmap_traits@IVFunctor@OpenHome@@U?$less@I@std@@V?$allocator@U?$pair@$$CBIVFunctor@OpenHome@@@std@@@4@$0A@@std@@@2@XZ 0041cd70 f i libohNetCore:NetworkAdapterList.obj
 0001:0001bda0       ?_Rrotate@?$_Tree@V?$_Tmap_traits@IVFunctor@OpenHome@@U?$less@I@std@@V?$allocator@U?$pair@$$CBIVFunctor@OpenHome@@@std@@@4@$0A@@std@@@std@@IAEXPAU_Node@?$_Tree_nod@V?$_Tmap_traits@IVFunctor@OpenHome@@U?$less@I@std@@V?$allocator@U?$pair@$$CBIVFunctor@OpenHome@@@std@@@4@$0A@@std@@@2@@Z 0041cda0 f i libohNetCore:NetworkAdapterList.obj
 0001:0001bec0       ?_Orphan_ptr@?$_Tree@V?$_Tmap_traits@IVFunctor@OpenHome@@U?$less@I@std@@V?$allocator@U?$pair@$$CBIVFunctor@OpenHome@@@std@@@4@$0A@@std@@@std@@IBEXAAV12@PAU_Node@?$_Tree_nod@V?$_Tmap_traits@IVFunctor@OpenHome@@U?$less@I@std@@V?$allocator@U?$pair@$$CBIVFunctor@OpenHome@@@std@@@4@$0A@@std@@@2@@Z 0041cec0 f i libohNetCore:NetworkAdapterList.obj
 0001:0001bfd0       ?_Tidy@?$_Tree@V?$_Tmap_traits@IVFunctor@OpenHome@@U?$less@I@std@@V?$allocator@U?$pair@$$CBIVFunctor@OpenHome@@@std@@@4@$0A@@std@@@std@@IAEXXZ 0041cfd0 f i libohNetCore:NetworkAdapterList.obj
 0001:0001c0d0       ??1?$_Tree_val@V?$_Tmap_traits@IVFunctor@OpenHome@@U?$less@I@std@@V?$allocator@U?$pair@$$CBIVFunctor@OpenHome@@@std@@@4@$0A@@std@@@std@@QAE@XZ 0041d0d0 f i libohNetCore:NetworkAdapterList.obj
 0001:0001c140       ?_Color@?$_Tree_val@V?$_Tmap_traits@IVFunctor@OpenHome@@U?$less@I@std@@V?$allocator@U?$pair@$$CBIVFunctor@OpenHome@@@std@@@4@$0A@@std@@@std@@SGAADPAU_Node@?$_Tree_nod@V?$_Tmap_traits@IVFunctor@OpenHome@@U?$less@I@std@@V?$allocator@U?$pair@$$CBIVFunctor@OpenHome@@@std@@@4@$0A@@std@@@2@@Z 0041d140 f i libohNetCore:NetworkAdapterList.obj
 0001:0001c150       ?_Isnil@?$_Tree_val@V?$_Tmap_traits@IVFunctor@OpenHome@@U?$less@I@std@@V?$allocator@U?$pair@$$CBIVFunctor@OpenHome@@@std@@@4@$0A@@std@@@std@@SGAADPAU_Node@?$_Tree_nod@V?$_Tmap_traits@IVFunctor@OpenHome@@U?$less@I@std@@V?$allocator@U?$pair@$$CBIVFunctor@OpenHome@@@std@@@4@$0A@@std@@@2@@Z 0041d150 f i libohNetCore:NetworkAdapterList.obj
 0001:0001c160       ?_Key@?$_Tree_val@V?$_Tmap_traits@IVFunctor@OpenHome@@U?$less@I@std@@V?$allocator@U?$pair@$$CBIVFunctor@OpenHome@@@std@@@4@$0A@@std@@@std@@SGAAIPAU_Node@?$_Tree_nod@V?$_Tmap_traits@IVFunctor@OpenHome@@U?$less@I@std@@V?$allocator@U?$pair@$$CBIVFunctor@OpenHome@@@std@@@4@$0A@@std@@@2@@Z 0041d160 f i libohNetCore:NetworkAdapterList.obj
 0001:0001c180       ?_Left@?$_Tree_val@V?$_Tmap_traits@IVFunctor@OpenHome@@U?$less@I@std@@V?$allocator@U?$pair@$$CBIVFunctor@OpenHome@@@std@@@4@$0A@@std@@@std@@SGAAPAU_Node@?$_Tree_nod@V?$_Tmap_traits@IVFunctor@OpenHome@@U?$less@I@std@@V?$allocator@U?$pair@$$CBIVFunctor@OpenHome@@@std@@@4@$0A@@std@@@2@PAU342@@Z 0041d180 f i libohNetCore:NetworkAdapterList.obj
 0001:0001c190       ?_Parent@?$_Tree_val@V?$_Tmap_traits@IVFunctor@OpenHome@@U?$less@I@std@@V?$allocator@U?$pair@$$CBIVFunctor@OpenHome@@@std@@@4@$0A@@std@@@std@@SGAAPAU_Node@?$_Tree_nod@V?$_Tmap_traits@IVFunctor@OpenHome@@U?$less@I@std@@V?$allocator@U?$pair@$$CBIVFunctor@OpenHome@@@std@@@4@$0A@@std@@@2@PAU342@@Z 0041d190 f i libohNetCore:NetworkAdapterList.obj
 0001:0001c1a0       ?_Right@?$_Tree_val@V?$_Tmap_traits@IVFunctor@OpenHome@@U?$less@I@std@@V?$allocator@U?$pair@$$CBIVFunctor@OpenHome@@@std@@@4@$0A@@std@@@std@@SGAAPAU_Node@?$_Tree_nod@V?$_Tmap_traits@IVFunctor@OpenHome@@U?$less@I@std@@V?$allocator@U?$pair@$$CBIVFunctor@OpenHome@@@std@@@4@$0A@@std@@@2@PAU342@@Z 0041d1a0 f i libohNetCore:NetworkAdapterList.obj
 0001:0001c1b0       ?_Myval@?$_Tree_val@V?$_Tmap_traits@IVFunctor@OpenHome@@U?$less@I@std@@V?$allocator@U?$pair@$$CBIVFunctor@OpenHome@@@std@@@4@$0A@@std@@@std@@SGAAU?$pair@$$CBIVFunctor@OpenHome@@@2@PAU_Node@?$_Tree_nod@V?$_Tmap_traits@IVFunctor@OpenHome@@U?$less@I@std@@V?$allocator@U?$pair@$$CBIVFunctor@OpenHome@@@std@@@4@$0A@@std@@@2@@Z 0041d1b0 f i libohNetCore:NetworkAdapterList.obj
 0001:0001c1c0       ?_Max@?$_Tree_val@V?$_Tmap_traits@IVFunctor@OpenHome@@U?$less@I@std@@V?$allocator@U?$pair@$$CBIVFunctor@OpenHome@@@std@@@4@$0A@@std@@@std@@SGPAU_Node@?$_Tree_nod@V?$_Tmap_traits@IVFunctor@OpenHome@@U?$less@I@std@@V?$allocator@U?$pair@$$CBIVFunctor@OpenHome@@@std@@@4@$0A@@std@@@2@PAU342@@Z 0041d1c0 f i libohNetCore:NetworkAdapterList.obj
 0001:0001c200       ?_Min@?$_Tree_val@V?$_Tmap_traits@IVFunctor@OpenHome@@U?$less@I@std@@V?$allocator@U?$pair@$$CBIVFunctor@OpenHome@@@std@@@4@$0A@@std@@@std@@SGPAU_Node@?$_Tree_nod@V?$_Tmap_traits@IVFunctor@OpenHome@@U?$less@I@std@@V?$allocator@U?$pair@$$CBIVFunctor@OpenHome@@@std@@@4@$0A@@std@@@2@PAU342@@Z 0041d200 f i libohNetCore:NetworkAdapterList.obj
 0001:0001c240       ??0?$allocator@U?$pair@$$CBIVFunctor@OpenHome@@@std@@@std@@QAE@XZ 0041d240 f i libohNetCore:NetworkAdapterList.obj
 0001:0001c260       ?deallocate@?$allocator@U_Node@?$_Tree_nod@V?$_Tmap_traits@IVFunctor@OpenHome@@U?$less@I@std@@V?$allocator@U?$pair@$$CBIVFunctor@OpenHome@@@std@@@4@$0A@@std@@@std@@@std@@QAEXPAU_Node@?$_Tree_nod@V?$_Tmap_traits@IVFunctor@OpenHome@@U?$less@I@std@@V?$allocator@U?$pair@$$CBIVFunctor@OpenHome@@@std@@@4@$0A@@std@@@2@I@Z 0041d260 f i libohNetCore:NetworkAdapterList.obj
 0001:0001c290       ?_Inside@?$vector@PAVNetworkAdapter@OpenHome@@V?$allocator@PAVNetworkAdapter@OpenHome@@@std@@@std@@IBE_NPBQAVNetworkAdapter@OpenHome@@@Z 0041d290 f i libohNetCore:NetworkAdapterList.obj
 0001:0001c2e0       ?_Reserve@?$vector@PAVNetworkAdapter@OpenHome@@V?$allocator@PAVNetworkAdapter@OpenHome@@@std@@@std@@IAEXI@Z 0041d2e0 f i libohNetCore:NetworkAdapterList.obj
 0001:0001c360       ?_Tidy@?$vector@PAVNetworkAdapter@OpenHome@@V?$allocator@PAVNetworkAdapter@OpenHome@@@std@@@std@@IAEXXZ 0041d360 f i libohNetCore:NetworkAdapterList.obj
 0001:0001c3f0       ?_Orphan_range@?$vector@PAVNetworkAdapter@OpenHome@@V?$allocator@PAVNetworkAdapter@OpenHome@@@std@@@std@@IBEXPAPAVNetworkAdapter@OpenHome@@0@Z 0041d3f0 f i libohNetCore:NetworkAdapterList.obj
 0001:0001c500       ??0?$_Vector_val@PAVNetworkAdapter@OpenHome@@V?$allocator@PAVNetworkAdapter@OpenHome@@@std@@@std@@QAE@V?$allocator@PAVNetworkAdapter@OpenHome@@@1@@Z 0041d500 f i libohNetCore:NetworkAdapterList.obj
 0001:0001c620       ??1?$_Vector_val@PAVNetworkAdapter@OpenHome@@V?$allocator@PAVNetworkAdapter@OpenHome@@@std@@@std@@QAE@XZ 0041d620 f i libohNetCore:NetworkAdapterList.obj
 0001:0001c700       ??0?$allocator@PAVNetworkAdapter@OpenHome@@@std@@QAE@XZ 0041d700 f i libohNetCore:NetworkAdapterList.obj
 0001:0001c720       ??0?$_Tree_iterator@V?$_Tree_val@V?$_Tmap_traits@IVFunctor@OpenHome@@U?$less@I@std@@V?$allocator@U?$pair@$$CBIVFunctor@OpenHome@@@std@@@4@$0A@@std@@@std@@@std@@QAE@PAU_Node@?$_Tree_nod@V?$_Tmap_traits@IVFunctor@OpenHome@@U?$less@I@std@@V?$allocator@U?$pair@$$CBIVFunctor@OpenHome@@@std@@@4@$0A@@std@@@1@PBV?$_Tree_val@V?$_Tmap_traits@IVFunctor@OpenHome@@U?$less@I@std@@V?$allocator@U?$pair@$$CBIVFunctor@OpenHome@@@std@@@4@$0A@@std@@@1@@Z 0041d720 f i libohNetCore:NetworkAdapterList.obj
 0001:0001c760       ??D?$_Tree_iterator@V?$_Tree_val@V?$_Tmap_traits@IVFunctor@OpenHome@@U?$less@I@std@@V?$allocator@U?$pair@$$CBIVFunctor@OpenHome@@@std@@@4@$0A@@std@@@std@@@std@@QBEAAU?$pair@$$CBIVFunctor@OpenHome@@@1@XZ 0041d760 f i libohNetCore:NetworkAdapterList.obj
 0001:0001c790       ??E?$_Tree_iterator@V?$_Tree_val@V?$_Tmap_traits@IVFunctor@OpenHome@@U?$less@I@std@@V?$allocator@U?$pair@$$CBIVFunctor@OpenHome@@@std@@@4@$0A@@std@@@std@@@std@@QAEAAV01@XZ 0041d790 f i libohNetCore:NetworkAdapterList.obj
 0001:0001c7c0       ??E?$_Tree_const_iterator@V?$_Tree_val@V?$_Tmap_traits@IVFunctor@OpenHome@@U?$less@I@std@@V?$allocator@U?$pair@$$CBIVFunctor@OpenHome@@@std@@@4@$0A@@std@@@std@@@std@@QAEAAV01@XZ 0041d7c0 f i libohNetCore:NetworkAdapterList.obj
 0001:0001c880       ??8?$_Tree_const_iterator@V?$_Tree_val@V?$_Tmap_traits@IVFunctor@OpenHome@@U?$less@I@std@@V?$allocator@U?$pair@$$CBIVFunctor@OpenHome@@@std@@@4@$0A@@std@@@std@@@std@@QBE_NABV01@@Z 0041d880 f i libohNetCore:NetworkAdapterList.obj
 0001:0001c940       ?_Mynode@?$_Tree_unchecked_const_iterator@V?$_Tree_val@V?$_Tmap_traits@IVFunctor@OpenHome@@U?$less@I@std@@V?$allocator@U?$pair@$$CBIVFunctor@OpenHome@@@std@@@4@$0A@@std@@@std@@U_Iterator_base12@2@@std@@QBEPAU_Node@?$_Tree_nod@V?$_Tmap_traits@IVFunctor@OpenHome@@U?$less@I@std@@V?$allocator@U?$pair@$$CBIVFunctor@OpenHome@@@std@@@4@$0A@@std@@@2@XZ 0041d940 f i libohNetCore:NetworkAdapterList.obj
 0001:0001c960       ?erase@?$_Tree@V?$_Tmap_traits@IVFunctor@OpenHome@@U?$less@I@std@@V?$allocator@U?$pair@$$CBIVFunctor@OpenHome@@@std@@@4@$0A@@std@@@std@@QAE?AV?$_Tree_iterator@V?$_Tree_val@V?$_Tmap_traits@IVFunctor@OpenHome@@U?$less@I@std@@V?$allocator@U?$pair@$$CBIVFunctor@OpenHome@@@std@@@4@$0A@@std@@@std@@@2@V?$_Tree_const_iterator@V?$_Tree_val@V?$_Tmap_traits@IVFunctor@OpenHome@@U?$less@I@std@@V?$allocator@U?$pair@$$CBIVFunctor@OpenHome@@@std@@@4@$0A@@std@@@std@@@2@0@Z 0041d960 f i libohNetCore:NetworkAdapterList.obj
 0001:0001cb60       ?_Lbound@?$_Tree@V?$_Tmap_traits@IVFunctor@OpenHome@@U?$less@I@std@@V?$allocator@U?$pair@$$CBIVFunctor@OpenHome@@@std@@@4@$0A@@std@@@std@@IAEPAU_Node@?$_Tree_nod@V?$_Tmap_traits@IVFunctor@OpenHome@@U?$less@I@std@@V?$allocator@U?$pair@$$CBIVFunctor@OpenHome@@@std@@@4@$0A@@std@@@2@ABI@Z 0041db60 f i libohNetCore:NetworkAdapterList.obj
 0001:0001cc10       ??0?$_Tree_val@V?$_Tmap_traits@IVFunctor@OpenHome@@U?$less@I@std@@V?$allocator@U?$pair@$$CBIVFunctor@OpenHome@@@std@@@4@$0A@@std@@@std@@QAE@ABU?$less@I@1@V?$allocator@U?$pair@$$CBIVFunctor@OpenHome@@@std@@@1@@Z 0041dc10 f i libohNetCore:NetworkAdapterList.obj
 0001:0001cd10       ??1?$_Tree_nod@V?$_Tmap_traits@IVFunctor@OpenHome@@U?$less@I@std@@V?$allocator@U?$pair@$$CBIVFunctor@OpenHome@@@std@@@4@$0A@@std@@@std@@QAE@XZ 0041dd10 f i libohNetCore:NetworkAdapterList.obj
 0001:0001cdf0       ??0?$allocator@U?$pair@$$CBIVFunctor@OpenHome@@@std@@@std@@QAE@ABV01@@Z 0041ddf0 f i libohNetCore:NetworkAdapterList.obj
 0001:0001ce10       ?reserve@?$vector@PAVNetworkAdapter@OpenHome@@V?$allocator@PAVNetworkAdapter@OpenHome@@@std@@@std@@QAEXI@Z 0041de10 f i libohNetCore:NetworkAdapterList.obj
 0001:0001cf80       ?capacity@?$vector@PAVNetworkAdapter@OpenHome@@V?$allocator@PAVNetworkAdapter@OpenHome@@@std@@@std@@QBEIXZ 0041df80 f i libohNetCore:NetworkAdapterList.obj
 0001:0001cfb0       ?max_size@?$vector@PAVNetworkAdapter@OpenHome@@V?$allocator@PAVNetworkAdapter@OpenHome@@@std@@@std@@QBEIXZ 0041dfb0 f i libohNetCore:NetworkAdapterList.obj
 0001:0001cfe0       ?_Destroy@?$vector@PAVNetworkAdapter@OpenHome@@V?$allocator@PAVNetworkAdapter@OpenHome@@@std@@@std@@IAEXPAPAVNetworkAdapter@OpenHome@@0@Z 0041dfe0 f i libohNetCore:NetworkAdapterList.obj
 0001:0001d020       ?_Grow_to@?$vector@PAVNetworkAdapter@OpenHome@@V?$allocator@PAVNetworkAdapter@OpenHome@@@std@@@std@@IBEII@Z 0041e020 f i libohNetCore:NetworkAdapterList.obj
 0001:0001d0a0       ?_Xlen@?$vector@PAVNetworkAdapter@OpenHome@@V?$allocator@PAVNetworkAdapter@OpenHome@@@std@@@std@@IBEXXZ 0041e0a0 f i libohNetCore:NetworkAdapterList.obj
 0001:0001d0d0       ??0?$allocator@PAVNetworkAdapter@OpenHome@@@std@@QAE@ABV01@@Z 0041e0d0 f i libohNetCore:NetworkAdapterList.obj
 0001:0001d0f0       ?deallocate@?$allocator@PAVNetworkAdapter@OpenHome@@@std@@QAEXPAPAVNetworkAdapter@OpenHome@@I@Z 0041e0f0 f i libohNetCore:NetworkAdapterList.obj
 0001:0001d120       ??0?$_Tree_const_iterator@V?$_Tree_val@V?$_Tmap_traits@IVFunctor@OpenHome@@U?$less@I@std@@V?$allocator@U?$pair@$$CBIVFunctor@OpenHome@@@std@@@4@$0A@@std@@@std@@@std@@QAE@PAU_Node@?$_Tree_nod@V?$_Tmap_traits@IVFunctor@OpenHome@@U?$less@I@std@@V?$allocator@U?$pair@$$CBIVFunctor@OpenHome@@@std@@@4@$0A@@std@@@1@PBV?$_Tree_val@V?$_Tmap_traits@IVFunctor@OpenHome@@U?$less@I@std@@V?$allocator@U?$pair@$$CBIVFunctor@OpenHome@@@std@@@4@$0A@@std@@@1@@Z 0041e120 f i libohNetCore:NetworkAdapterList.obj
 0001:0001d160       ??D?$_Tree_const_iterator@V?$_Tree_val@V?$_Tmap_traits@IVFunctor@OpenHome@@U?$less@I@std@@V?$allocator@U?$pair@$$CBIVFunctor@OpenHome@@@std@@@4@$0A@@std@@@std@@@std@@QBEABU?$pair@$$CBIVFunctor@OpenHome@@@1@XZ 0041e160 f i libohNetCore:NetworkAdapterList.obj
 0001:0001d220       ??E?$_Tree_unchecked_const_iterator@V?$_Tree_val@V?$_Tmap_traits@IVFunctor@OpenHome@@U?$less@I@std@@V?$allocator@U?$pair@$$CBIVFunctor@OpenHome@@@std@@@4@$0A@@std@@@std@@U_Iterator_base12@2@@std@@QAEAAV01@XZ 0041e220 f i libohNetCore:NetworkAdapterList.obj
 0001:0001d2e0       ??1?$_Tmap_traits@IVFunctor@OpenHome@@U?$less@I@std@@V?$allocator@U?$pair@$$CBIVFunctor@OpenHome@@@std@@@4@$0A@@std@@QAE@XZ 0041e2e0 f i libohNetCore:NetworkAdapterList.obj
 0001:0001d310       ?clear@?$_Tree@V?$_Tmap_traits@IVFunctor@OpenHome@@U?$less@I@std@@V?$allocator@U?$pair@$$CBIVFunctor@OpenHome@@@std@@@4@$0A@@std@@@std@@QAEXXZ 0041e310 f i libohNetCore:NetworkAdapterList.obj
 0001:0001d390       ??0?$_Tree_nod@V?$_Tmap_traits@IVFunctor@OpenHome@@U?$less@I@std@@V?$allocator@U?$pair@$$CBIVFunctor@OpenHome@@@std@@@4@$0A@@std@@@std@@QAE@ABU?$less@I@1@V?$allocator@U?$pair@$$CBIVFunctor@OpenHome@@@std@@@1@@Z 0041e390 f i libohNetCore:NetworkAdapterList.obj
 0001:0001d4a0       ?allocate@?$allocator@U_Node@?$_Tree_nod@V?$_Tmap_traits@IVFunctor@OpenHome@@U?$less@I@std@@V?$allocator@U?$pair@$$CBIVFunctor@OpenHome@@@std@@@4@$0A@@std@@@std@@@std@@QAEPAU_Node@?$_Tree_nod@V?$_Tmap_traits@IVFunctor@OpenHome@@U?$less@I@std@@V?$allocator@U?$pair@$$CBIVFunctor@OpenHome@@@std@@@4@$0A@@std@@@2@I@Z 0041e4a0 f i libohNetCore:NetworkAdapterList.obj
 0001:0001d4d0       ?allocate@?$allocator@PAVNetworkAdapter@OpenHome@@@std@@QAEPAPAVNetworkAdapter@OpenHome@@I@Z 0041e4d0 f i libohNetCore:NetworkAdapterList.obj
 0001:0001d500       ?max_size@?$allocator@PAVNetworkAdapter@OpenHome@@@std@@QBEIXZ 0041e500 f i libohNetCore:NetworkAdapterList.obj
 0001:0001d550       ??E?$_Tree_const_iterator@V?$_Tree_val@V?$_Tmap_traits@IVFunctor@OpenHome@@U?$less@I@std@@V?$allocator@U?$pair@$$CBIVFunctor@OpenHome@@@std@@@4@$0A@@std@@@std@@@std@@QAE?AV01@H@Z 0041e550 f i libohNetCore:NetworkAdapterList.obj
 0001:0001d620       ??0?$_Tree_unchecked_const_iterator@V?$_Tree_val@V?$_Tmap_traits@IVFunctor@OpenHome@@U?$less@I@std@@V?$allocator@U?$pair@$$CBIVFunctor@OpenHome@@@std@@@4@$0A@@std@@@std@@U_Iterator_base12@2@@std@@QAE@PAU_Node@?$_Tree_nod@V?$_Tmap_traits@IVFunctor@OpenHome@@U?$less@I@std@@V?$allocator@U?$pair@$$CBIVFunctor@OpenHome@@@std@@@4@$0A@@std@@@1@PBV?$_Tree_val@V?$_Tmap_traits@IVFunctor@OpenHome@@U?$less@I@std@@V?$allocator@U?$pair@$$CBIVFunctor@OpenHome@@@std@@@4@$0A@@std@@@1@@Z 0041e620 f i libohNetCore:NetworkAdapterList.obj
 0001:0001d6a0       ??0?$_Iterator012@Ubidirectional_iterator_tag@std@@U?$pair@$$CBIVFunctor@OpenHome@@@2@HPBU32@ABU32@U_Iterator_base12@2@@std@@QAE@XZ 0041e6a0 f i libohNetCore:NetworkAdapterList.obj
 0001:0001d6d0       ?_Erase@?$_Tree@V?$_Tmap_traits@IVFunctor@OpenHome@@U?$less@I@std@@V?$allocator@U?$pair@$$CBIVFunctor@OpenHome@@@std@@@4@$0A@@std@@@std@@IAEXPAU_Node@?$_Tree_nod@V?$_Tmap_traits@IVFunctor@OpenHome@@U?$less@I@std@@V?$allocator@U?$pair@$$CBIVFunctor@OpenHome@@@std@@@4@$0A@@std@@@2@@Z 0041e6d0 f i libohNetCore:NetworkAdapterList.obj
 0001:0001d770       ??0?$_Tmap_traits@IVFunctor@OpenHome@@U?$less@I@std@@V?$allocator@U?$pair@$$CBIVFunctor@OpenHome@@@std@@@4@$0A@@std@@QAE@U?$less@I@1@@Z 0041e770 f i libohNetCore:NetworkAdapterList.obj
 0001:0001d7a0       ??$?0AAIAAVFunctor@OpenHome@@@?$pair@IVFunctor@OpenHome@@@std@@QAE@AAIAAVFunctor@OpenHome@@@Z 0041e7a0 f i libohNetCore:NetworkAdapterList.obj
 0001:0001d7e0       ??$insert@U?$pair@IVFunctor@OpenHome@@@std@@@?$_Tree@V?$_Tmap_traits@IVFunctor@OpenHome@@U?$less@I@std@@V?$allocator@U?$pair@$$CBIVFunctor@OpenHome@@@std@@@4@$0A@@std@@@std@@QAE?AU?$pair@V?$_Tree_iterator@V?$_Tree_val@V?$_Tmap_traits@IVFunctor@OpenHome@@U?$less@I@std@@V?$allocator@U?$pair@$$CBIVFunctor@OpenHome@@@std@@@4@$0A@@std@@@std@@@std@@_N@1@$$QAU?$pair@IVFunctor@OpenHome@@@1@@Z 0041e7e0 f i libohNetCore:NetworkAdapterList.obj
 0001:0001d840       ??$swap@D@std@@YGXAAD0@Z   0041e840 f i libohNetCore:NetworkAdapterList.obj
 0001:0001d8d0       ??$addressof@U?$pair@$$CBIVFunctor@OpenHome@@@std@@@std@@YGPAU?$pair@$$CBIVFunctor@OpenHome@@@0@AAU10@@Z 0041e8d0 f i libohNetCore:NetworkAdapterList.obj
 0001:0001d8e0       ??$_Dest_val@V?$allocator@U?$pair@$$CBIVFunctor@OpenHome@@@std@@@std@@U?$pair@$$CBIVFunctor@OpenHome@@@2@@std@@YGXAAV?$allocator@U?$pair@$$CBIVFunctor@OpenHome@@@std@@@0@PAU?$pair@$$CBIVFunctor@OpenHome@@@0@@Z 0041e8e0 f i libohNetCore:NetworkAdapterList.obj
 0001:0001d900       ??$_Debug_lt_pred@U?$less@I@std@@II@std@@YG_NU?$less@I@0@ABIAAIPB_WI@Z 0041e900 f i libohNetCore:NetworkAdapterList.obj
 0001:0001d960       ??$addressof@QAVNetworkAdapter@OpenHome@@@std@@YGPBQAVNetworkAdapter@OpenHome@@ABQAV12@@Z 0041e960 f i libohNetCore:NetworkAdapterList.obj
 0001:0001d970       ??$_Cons_val@V?$allocator@PAVNetworkAdapter@OpenHome@@@std@@PAVNetworkAdapter@OpenHome@@AAPAV34@@std@@YGXAAV?$allocator@PAVNetworkAdapter@OpenHome@@@0@PAPAVNetworkAdapter@OpenHome@@AAPAV23@@Z 0041e970 f i libohNetCore:NetworkAdapterList.obj
 0001:0001d9a0       ??$_Cons_val@V?$allocator@PAVNetworkAdapter@OpenHome@@@std@@PAVNetworkAdapter@OpenHome@@ABQAV34@@std@@YGXAAV?$allocator@PAVNetworkAdapter@OpenHome@@@0@PAPAVNetworkAdapter@OpenHome@@ABQAV23@@Z 0041e9a0 f i libohNetCore:NetworkAdapterList.obj
 0001:0001d9d0       ??$_Kfn@$$CBIVFunctor@OpenHome@@@?$_Tmap_traits@IVFunctor@OpenHome@@U?$less@I@std@@V?$allocator@U?$pair@$$CBIVFunctor@OpenHome@@@std@@@4@$0A@@std@@SGABIABU?$pair@$$CBIVFunctor@OpenHome@@@1@@Z 0041e9d0 f i libohNetCore:NetworkAdapterList.obj
 0001:0001d9e0       ??$?0PAVNetworkAdapter@OpenHome@@@?$allocator@U_Container_proxy@std@@@std@@QAE@ABV?$allocator@PAVNetworkAdapter@OpenHome@@@1@@Z 0041e9e0 f i libohNetCore:NetworkAdapterList.obj
 0001:0001da00       ??$_Debug_lt_pred@U?$less@I@std@@II@std@@YG_NU?$less@I@0@AAIABIPB_WI@Z 0041ea00 f i libohNetCore:NetworkAdapterList.obj
 0001:0001da60       ??$?0U_Node@?$_Tree_nod@V?$_Tmap_traits@IVFunctor@OpenHome@@U?$less@I@std@@V?$allocator@U?$pair@$$CBIVFunctor@OpenHome@@@std@@@4@$0A@@std@@@std@@@?$allocator@U_Container_proxy@std@@@std@@QAE@ABV?$allocator@U_Node@?$_Tree_nod@V?$_Tmap_traits@IVFunctor@OpenHome@@U?$less@I@std@@V?$allocator@U?$pair@$$CBIVFunctor@OpenHome@@@std@@@4@$0A@@std@@@std@@@1@@Z 0041ea60 f i libohNetCore:NetworkAdapterList.obj
 0001:0001da80       ??$_Umove@PAPAVNetworkAdapter@OpenHome@@@?$vector@PAVNetworkAdapter@OpenHome@@V?$allocator@PAVNetworkAdapter@OpenHome@@@std@@@std@@IAEPAPAVNetworkAdapter@OpenHome@@PAPAV23@00@Z 0041ea80 f i libohNetCore:NetworkAdapterList.obj
 0001:0001dac0       ??$_Destroy_range@V?$allocator@PAVNetworkAdapter@OpenHome@@@std@@@std@@YGXPAPAVNetworkAdapter@OpenHome@@0AAV?$allocator@PAVNetworkAdapter@OpenHome@@@0@@Z 0041eac0 f i libohNetCore:NetworkAdapterList.obj
 0001:0001db10       ??$?0U?$pair@$$CBIVFunctor@OpenHome@@@std@@@?$allocator@U_Node@?$_Tree_nod@V?$_Tmap_traits@IVFunctor@OpenHome@@U?$less@I@std@@V?$allocator@U?$pair@$$CBIVFunctor@OpenHome@@@std@@@4@$0A@@std@@@std@@@std@@QAE@ABV?$allocator@U?$pair@$$CBIVFunctor@OpenHome@@@std@@@1@@Z 0041eb10 f i libohNetCore:NetworkAdapterList.obj
 0001:0001db30       ??$_Allocate@U_Node@?$_Tree_nod@V?$_Tmap_traits@IVFunctor@OpenHome@@U?$less@I@std@@V?$allocator@U?$pair@$$CBIVFunctor@OpenHome@@@std@@@4@$0A@@std@@@std@@@std@@YGPAU_Node@?$_Tree_nod@V?$_Tmap_traits@IVFunctor@OpenHome@@U?$less@I@std@@V?$allocator@U?$pair@$$CBIVFunctor@OpenHome@@@std@@@4@$0A@@std@@@0@IPAU120@@Z 0041eb30 f i libohNetCore:NetworkAdapterList.obj
 0001:0001dbb0       ??$_Allocate@PAVNetworkAdapter@OpenHome@@@std@@YGPAPAVNetworkAdapter@OpenHome@@IPAPAV12@@Z 0041ebb0 f i libohNetCore:NetworkAdapterList.obj
 0001:0001dc30       ?_Linsert@?$_Tree@V?$_Tmap_traits@IVFunctor@OpenHome@@U?$less@I@std@@V?$allocator@U?$pair@$$CBIVFunctor@OpenHome@@@std@@@4@$0A@@std@@@std@@QAE?AU?$pair@V?$_Tree_iterator@V?$_Tree_val@V?$_Tmap_traits@IVFunctor@OpenHome@@U?$less@I@std@@V?$allocator@U?$pair@$$CBIVFunctor@OpenHome@@@std@@@4@$0A@@std@@@std@@@std@@_N@2@PAU_Node@?$_Tree_nod@V?$_Tmap_traits@IVFunctor@OpenHome@@U?$less@I@std@@V?$allocator@U?$pair@$$CBIVFunctor@OpenHome@@@std@@@4@$0A@@std@@@2@_N@Z 0041ec30 f i libohNetCore:NetworkAdapterList.obj
 0001:0001e010       ?destroy@?$allocator@U?$pair@$$CBIVFunctor@OpenHome@@@std@@@std@@QAEXPAU?$pair@$$CBIVFunctor@OpenHome@@@2@@Z 0041f010 f i libohNetCore:NetworkAdapterList.obj
 0001:0001e040       ??R?$less@I@std@@QBE_NABI0@Z 0041f040 f i libohNetCore:NetworkAdapterList.obj
 0001:0001e070       ?construct@?$allocator@PAVNetworkAdapter@OpenHome@@@std@@QAEXPAPAVNetworkAdapter@OpenHome@@ABQAV34@@Z 0041f070 f i libohNetCore:NetworkAdapterList.obj
 0001:0001e0a0       ?_Insert@?$_Tree@V?$_Tmap_traits@IVFunctor@OpenHome@@U?$less@I@std@@V?$allocator@U?$pair@$$CBIVFunctor@OpenHome@@@std@@@4@$0A@@std@@@std@@IAE?AV?$_Tree_iterator@V?$_Tree_val@V?$_Tmap_traits@IVFunctor@OpenHome@@U?$less@I@std@@V?$allocator@U?$pair@$$CBIVFunctor@OpenHome@@@std@@@4@$0A@@std@@@std@@@2@_NPAU_Node@?$_Tree_nod@V?$_Tmap_traits@IVFunctor@OpenHome@@U?$less@I@std@@V?$allocator@U?$pair@$$CBIVFunctor@OpenHome@@@std@@@4@$0A@@std@@@2@1@Z 0041f0a0 f i libohNetCore:NetworkAdapterList.obj
 0001:0001e460       ??0?$pair@V?$_Tree_iterator@V?$_Tree_val@V?$_Tmap_traits@IVFunctor@OpenHome@@U?$less@I@std@@V?$allocator@U?$pair@$$CBIVFunctor@OpenHome@@@std@@@4@$0A@@std@@@std@@@std@@_N@std@@QAE@$$QAV?$_Tree_iterator@V?$_Tree_val@V?$_Tmap_traits@IVFunctor@OpenHome@@U?$less@I@std@@V?$allocator@U?$pair@$$CBIVFunctor@OpenHome@@@std@@@4@$0A@@std@@@std@@@1@$$QA_N@Z 0041f460 f i libohNetCore:NetworkAdapterList.obj
 0001:0001e4a0       ??F?$_Tree_iterator@V?$_Tree_val@V?$_Tmap_traits@IVFunctor@OpenHome@@U?$less@I@std@@V?$allocator@U?$pair@$$CBIVFunctor@OpenHome@@@std@@@4@$0A@@std@@@std@@@std@@QAEAAV01@XZ 0041f4a0 f i libohNetCore:NetworkAdapterList.obj
 0001:0001e4d0       ?max_size@?$_Tree@V?$_Tmap_traits@IVFunctor@OpenHome@@U?$less@I@std@@V?$allocator@U?$pair@$$CBIVFunctor@OpenHome@@@std@@@4@$0A@@std@@@std@@QBEIXZ 0041f4d0 f i libohNetCore:NetworkAdapterList.obj
 0001:0001e500       ??0?$_Pair_base@V?$_Tree_iterator@V?$_Tree_val@V?$_Tmap_traits@IVFunctor@OpenHome@@U?$less@I@std@@V?$allocator@U?$pair@$$CBIVFunctor@OpenHome@@@std@@@4@$0A@@std@@@std@@@std@@_N@std@@QAE@$$QAV?$_Tree_iterator@V?$_Tree_val@V?$_Tmap_traits@IVFunctor@OpenHome@@U?$less@I@std@@V?$allocator@U?$pair@$$CBIVFunctor@OpenHome@@@std@@@4@$0A@@std@@@std@@@1@$$QA_N@Z 0041f500 f i libohNetCore:NetworkAdapterList.obj
 0001:0001e580       ??F?$_Tree_const_iterator@V?$_Tree_val@V?$_Tmap_traits@IVFunctor@OpenHome@@U?$less@I@std@@V?$allocator@U?$pair@$$CBIVFunctor@OpenHome@@@std@@@4@$0A@@std@@@std@@@std@@QAEAAV01@XZ 0041f580 f i libohNetCore:NetworkAdapterList.obj
 0001:0001e6a0       ?max_size@?$allocator@U?$pair@$$CBIVFunctor@OpenHome@@@std@@@std@@QBEIXZ 0041f6a0 f i libohNetCore:NetworkAdapterList.obj
 0001:0001e6f0       ??F?$_Tree_unchecked_const_iterator@V?$_Tree_val@V?$_Tmap_traits@IVFunctor@OpenHome@@U?$less@I@std@@V?$allocator@U?$pair@$$CBIVFunctor@OpenHome@@@std@@@4@$0A@@std@@@std@@U_Iterator_base12@2@@std@@QAEAAV01@XZ 0041f6f0 f i libohNetCore:NetworkAdapterList.obj
 0001:0001e7e0       ??$forward@AAI@std@@YGAAIAAI@Z 0041f7e0 f i libohNetCore:NetworkAdapterList.obj
 0001:0001e7f0       ??$forward@AAVFunctor@OpenHome@@@std@@YGAAVFunctor@OpenHome@@AAV12@@Z 0041f7f0 f i libohNetCore:NetworkAdapterList.obj
 0001:0001e800       ??$?0AAIAAVFunctor@OpenHome@@@?$_Pair_base@IVFunctor@OpenHome@@@std@@QAE@AAIAAVFunctor@OpenHome@@@Z 0041f800 f i libohNetCore:NetworkAdapterList.obj
 0001:0001e860       ??$forward@U?$pair@IVFunctor@OpenHome@@@std@@@std@@YG$$QAU?$pair@IVFunctor@OpenHome@@@0@AAU10@@Z 0041f860 f i libohNetCore:NetworkAdapterList.obj
 0001:0001e870       ??$_Buynode@U?$pair@IVFunctor@OpenHome@@@std@@@?$_Tree_val@V?$_Tmap_traits@IVFunctor@OpenHome@@U?$less@I@std@@V?$allocator@U?$pair@$$CBIVFunctor@OpenHome@@@std@@@4@$0A@@std@@@std@@QAEPAU_Node@?$_Tree_nod@V?$_Tmap_traits@IVFunctor@OpenHome@@U?$less@I@std@@V?$allocator@U?$pair@$$CBIVFunctor@OpenHome@@@std@@@4@$0A@@std@@@1@$$QAU?$pair@IVFunctor@OpenHome@@@1@@Z 0041f870 f i libohNetCore:NetworkAdapterList.obj
 0001:0001e950       ??$_Move@AAD@std@@YG$$QADAAD@Z 0041f950 f i libohNetCore:NetworkAdapterList.obj
 0001:0001e960       ??$forward@AAPAVNetworkAdapter@OpenHome@@@std@@YGAAPAVNetworkAdapter@OpenHome@@AAPAV12@@Z 0041f960 f i libohNetCore:NetworkAdapterList.obj
 0001:0001e970       ??$construct@AAPAVNetworkAdapter@OpenHome@@@?$allocator@PAVNetworkAdapter@OpenHome@@@std@@QAEXPAPAVNetworkAdapter@OpenHome@@AAPAV23@@Z 0041f970 f i libohNetCore:NetworkAdapterList.obj
 0001:0001ea10       ??$forward@ABQAVNetworkAdapter@OpenHome@@@std@@YGABQAVNetworkAdapter@OpenHome@@ABQAV12@@Z 0041fa10 f i libohNetCore:NetworkAdapterList.obj
 0001:0001ea20       ??$_Uninitialized_move@PAPAVNetworkAdapter@OpenHome@@PAPAV12@V?$allocator@PAVNetworkAdapter@OpenHome@@@std@@@std@@YGPAPAVNetworkAdapter@OpenHome@@PAPAV12@00AAV?$allocator@PAVNetworkAdapter@OpenHome@@@0@@Z 0041fa20 f i libohNetCore:NetworkAdapterList.obj
 0001:0001ea70       ??$_Ptr_cat@PAVNetworkAdapter@OpenHome@@PAV12@@std@@YG?AU_Scalar_ptr_iterator_tag@0@PAPAVNetworkAdapter@OpenHome@@0@Z 0041fa70 f i libohNetCore:NetworkAdapterList.obj
 0001:0001ead0       ??$_Destroy_range@V?$allocator@PAVNetworkAdapter@OpenHome@@@std@@@std@@YGXPAPAVNetworkAdapter@OpenHome@@0AAV?$allocator@PAVNetworkAdapter@OpenHome@@@0@U_Scalar_ptr_iterator_tag@0@@Z 0041fad0 f i libohNetCore:NetworkAdapterList.obj
 0001:0001eae0       ??$?0AAV?$_Tree_iterator@V?$_Tree_val@V?$_Tmap_traits@IVFunctor@OpenHome@@U?$less@I@std@@V?$allocator@U?$pair@$$CBIVFunctor@OpenHome@@@std@@@4@$0A@@std@@@std@@@std@@_N@?$pair@V?$_Tree_iterator@V?$_Tree_val@V?$_Tmap_traits@IVFunctor@OpenHome@@U?$less@I@std@@V?$allocator@U?$pair@$$CBIVFunctor@OpenHome@@@std@@@4@$0A@@std@@@std@@@std@@_N@std@@QAE@AAV?$_Tree_iterator@V?$_Tree_val@V?$_Tmap_traits@IVFunctor@OpenHome@@U?$less@I@std@@V?$allocator@U?$pair@$$CBIVFunctor@OpenHome@@@std@@@4@$0A@@std@@@std@@@1@$$QA_N@Z 0041fae0 f i libohNetCore:NetworkAdapterList.obj
 0001:0001eb20       ??$_Destroy@U?$pair@$$CBIVFunctor@OpenHome@@@std@@@std@@YGXPAU?$pair@$$CBIVFunctor@OpenHome@@@0@@Z 0041fb20 f i libohNetCore:NetworkAdapterList.obj
 0001:0001eb30       ??$_Construct@PAVNetworkAdapter@OpenHome@@ABQAV12@@std@@YGXPAPAVNetworkAdapter@OpenHome@@ABQAV12@@Z 0041fb30 f i libohNetCore:NetworkAdapterList.obj
 0001:0001ebe0       ??$move@AAV?$_Tree_iterator@V?$_Tree_val@V?$_Tmap_traits@IVFunctor@OpenHome@@U?$less@I@std@@V?$allocator@U?$pair@$$CBIVFunctor@OpenHome@@@std@@@4@$0A@@std@@@std@@@std@@@std@@YG$$QAV?$_Tree_iterator@V?$_Tree_val@V?$_Tmap_traits@IVFunctor@OpenHome@@U?$less@I@std@@V?$allocator@U?$pair@$$CBIVFunctor@OpenHome@@@std@@@4@$0A@@std@@@std@@@0@AAV10@@Z 0041fbe0 f i libohNetCore:NetworkAdapterList.obj
 0001:0001ebf0       ??$move@AA_N@std@@YG$$QA_NAA_N@Z 0041fbf0 f i libohNetCore:NetworkAdapterList.obj
 0001:0001ec00       ?_Buynode@?$_Tree_val@V?$_Tmap_traits@IVFunctor@OpenHome@@U?$less@I@std@@V?$allocator@U?$pair@$$CBIVFunctor@OpenHome@@@std@@@4@$0A@@std@@@std@@QAEPAU_Node@?$_Tree_nod@V?$_Tmap_traits@IVFunctor@OpenHome@@U?$less@I@std@@V?$allocator@U?$pair@$$CBIVFunctor@OpenHome@@@std@@@4@$0A@@std@@@2@XZ 0041fc00 f i libohNetCore:NetworkAdapterList.obj
 0001:0001ec90       ??$_Cons_val@V?$allocator@U?$pair@$$CBIVFunctor@OpenHome@@@std@@@std@@U?$pair@$$CBIVFunctor@OpenHome@@@2@U?$pair@IVFunctor@OpenHome@@@2@@std@@YGXAAV?$allocator@U?$pair@$$CBIVFunctor@OpenHome@@@std@@@0@PAU?$pair@$$CBIVFunctor@OpenHome@@@0@$$QAU?$pair@IVFunctor@OpenHome@@@0@@Z 0041fc90 f i libohNetCore:NetworkAdapterList.obj
 0001:0001ecc0       ??$_Val_type@PAPAVNetworkAdapter@OpenHome@@@std@@YGPAPAVNetworkAdapter@OpenHome@@PAPAV12@@Z 0041fcc0 f i libohNetCore:NetworkAdapterList.obj
 0001:0001ecd0       ??$_Uninit_move@PAVNetworkAdapter@OpenHome@@PAV12@PAV12@@std@@YGPAPAVNetworkAdapter@OpenHome@@PAPAV12@00AAV?$allocator@PAVNetworkAdapter@OpenHome@@@0@0U_Scalar_ptr_iterator_tag@0@@Z 0041fcd0 f i libohNetCore:NetworkAdapterList.obj
 0001:0001ed40       ??$forward@AAV?$_Tree_iterator@V?$_Tree_val@V?$_Tmap_traits@IVFunctor@OpenHome@@U?$less@I@std@@V?$allocator@U?$pair@$$CBIVFunctor@OpenHome@@@std@@@4@$0A@@std@@@std@@@std@@@std@@YGAAV?$_Tree_iterator@V?$_Tree_val@V?$_Tmap_traits@IVFunctor@OpenHome@@U?$less@I@std@@V?$allocator@U?$pair@$$CBIVFunctor@OpenHome@@@std@@@4@$0A@@std@@@std@@@0@AAV10@@Z 0041fd40 f i libohNetCore:NetworkAdapterList.obj
 0001:0001ed50       ??$forward@_N@std@@YG$$QA_NAA_N@Z 0041fd50 f i libohNetCore:NetworkAdapterList.obj
 0001:0001ed60       ??$?0AAV?$_Tree_iterator@V?$_Tree_val@V?$_Tmap_traits@IVFunctor@OpenHome@@U?$less@I@std@@V?$allocator@U?$pair@$$CBIVFunctor@OpenHome@@@std@@@4@$0A@@std@@@std@@@std@@_N@?$_Pair_base@V?$_Tree_iterator@V?$_Tree_val@V?$_Tmap_traits@IVFunctor@OpenHome@@U?$less@I@std@@V?$allocator@U?$pair@$$CBIVFunctor@OpenHome@@@std@@@4@$0A@@std@@@std@@@std@@_N@std@@QAE@AAV?$_Tree_iterator@V?$_Tree_val@V?$_Tmap_traits@IVFunctor@OpenHome@@U?$less@I@std@@V?$allocator@U?$pair@$$CBIVFunctor@OpenHome@@@std@@@4@$0A@@std@@@std@@@1@$$QA_N@Z 0041fd60 f i libohNetCore:NetworkAdapterList.obj
 0001:0001ede0       ??$construct@U?$pair@IVFunctor@OpenHome@@@std@@@?$allocator@U?$pair@$$CBIVFunctor@OpenHome@@@std@@@std@@QAEXPAU?$pair@$$CBIVFunctor@OpenHome@@@1@$$QAU?$pair@IVFunctor@OpenHome@@@1@@Z 0041fde0 f i libohNetCore:NetworkAdapterList.obj
 0001:0001ee80       ??$_Debug_range@PAPAVNetworkAdapter@OpenHome@@@std@@YGXPAPAVNetworkAdapter@OpenHome@@0PB_WI@Z 0041fe80 f i libohNetCore:NetworkAdapterList.obj
 0001:0001eed0       ??$_Debug_pointer@PAVNetworkAdapter@OpenHome@@@std@@YGXPAPAVNetworkAdapter@OpenHome@@PB_WI@Z 0041fed0 f i libohNetCore:NetworkAdapterList.obj
 0001:0001ef00       ??$?0IVFunctor@OpenHome@@@?$pair@$$CBIVFunctor@OpenHome@@@std@@QAE@$$QAU?$pair@IVFunctor@OpenHome@@@1@@Z 0041ff00 f i libohNetCore:NetworkAdapterList.obj
 0001:0001ef40       ??$_Iter_cat@PAPAVNetworkAdapter@OpenHome@@@std@@YG?AUrandom_access_iterator_tag@0@ABQAPAVNetworkAdapter@OpenHome@@@Z 0041ff40 f i libohNetCore:NetworkAdapterList.obj
 0001:0001efa0       ??$_Debug_range2@PAPAVNetworkAdapter@OpenHome@@@std@@YGXPAPAVNetworkAdapter@OpenHome@@0PB_WIUrandom_access_iterator_tag@0@@Z 0041ffa0 f i libohNetCore:NetworkAdapterList.obj
 0001:0001f000       ??$forward@I@std@@YG$$QAIAAI@Z 00420000 f i libohNetCore:NetworkAdapterList.obj
 0001:0001f010       ??$forward@VFunctor@OpenHome@@@std@@YG$$QAVFunctor@OpenHome@@AAV12@@Z 00420010 f i libohNetCore:NetworkAdapterList.obj
 0001:0001f020       ??$?0IVFunctor@OpenHome@@@?$_Pair_base@$$CBIVFunctor@OpenHome@@@std@@QAE@$$QAI$$QAVFunctor@OpenHome@@@Z 00420020 f i libohNetCore:NetworkAdapterList.obj
 0001:0001f080       ??0NetworkAdapter@OpenHome@@QAE@IIPBD@Z 00420080 f   libohNetCore:OhNet.obj
 0001:0001f120       ??1NetworkAdapter@OpenHome@@AAE@XZ 00420120 f   libohNetCore:OhNet.obj
 0001:0001f190       ?AddRef@NetworkAdapter@OpenHome@@QAEXXZ 00420190 f   libohNetCore:OhNet.obj
 0001:0001f1e0       ?RemoveRef@NetworkAdapter@OpenHome@@QAEXXZ 004201e0 f   libohNetCore:OhNet.obj
 0001:0001f270       ?Address@NetworkAdapter@OpenHome@@QBEIXZ 00420270 f   libohNetCore:OhNet.obj
 0001:0001f290       ?Subnet@NetworkAdapter@OpenHome@@QBEIXZ 00420290 f   libohNetCore:OhNet.obj
 0001:0001f2b0       ?Mask@NetworkAdapter@OpenHome@@QBEIXZ 004202b0 f   libohNetCore:OhNet.obj
 0001:0001f2d0       ?ContainsAddress@NetworkAdapter@OpenHome@@QAE_NI@Z 004202d0 f   libohNetCore:OhNet.obj
 0001:0001f310       ?Name@NetworkAdapter@OpenHome@@QBEPBDXZ 00420310 f   libohNetCore:OhNet.obj
 0001:0001f350       ?FullName@NetworkAdapter@OpenHome@@QBEPADXZ 00420350 f   libohNetCore:OhNet.obj
 0001:0001f4b0       ?Log@DefaultLogger@Net@OpenHome@@QAEXPBD@Z 004204b0 f   libohNetCore:OhNet.obj
 0001:0001f500       ?LogError@DefaultAsyncHandler@Net@OpenHome@@QAEXAAVIAsync@23@@Z 00420500 f   libohNetCore:OhNet.obj
 0001:0001f560       ?Output@DefaultAsyncHandler@Net@OpenHome@@EAEXPBD0@Z 00420560 f   libohNetCore:OhNet.obj
 0001:0001f5a0       ?Create@InitialisationParams@Net@OpenHome@@SGPAV123@XZ 004205a0 f   libohNetCore:OhNet.obj
 0001:0001f640       ??1InitialisationParams@Net@OpenHome@@QAE@XZ 00420640 f   libohNetCore:OhNet.obj
 0001:0001f6a0       ?SetLogOutput@InitialisationParams@Net@OpenHome@@QAEXVFunctorMsg@3@@Z 004206a0 f   libohNetCore:OhNet.obj
 0001:0001f6d0       ?SetFatalErrorHandler@InitialisationParams@Net@OpenHome@@QAEXVFunctorMsg@3@@Z 004206d0 f   libohNetCore:OhNet.obj
 0001:0001f730       ?SetAsyncBeginHandler@InitialisationParams@Net@OpenHome@@QAEXVFunctorAsync@23@@Z 00420730 f   libohNetCore:OhNet.obj
 0001:0001f770       ?SetAsyncEndHandler@InitialisationParams@Net@OpenHome@@QAEXVFunctorAsync@23@@Z 00420770 f   libohNetCore:OhNet.obj
 0001:0001f7b0       ?SetAsyncErrorHandler@InitialisationParams@Net@OpenHome@@QAEXVFunctorAsync@23@@Z 004207b0 f   libohNetCore:OhNet.obj
 0001:0001f7f0       ?SetSubnetListChangedListener@InitialisationParams@Net@OpenHome@@QAEXVFunctor@3@@Z 004207f0 f   libohNetCore:OhNet.obj
 0001:0001f830       ?SetTcpConnectTimeout@InitialisationParams@Net@OpenHome@@QAEXI@Z 00420830 f   libohNetCore:OhNet.obj
 0001:0001f870       ?SetMsearchTime@InitialisationParams@Net@OpenHome@@QAEXI@Z 00420870 f   libohNetCore:OhNet.obj
 0001:0001f8c0       ?SetMsearchTtl@InitialisationParams@Net@OpenHome@@QAEXI@Z 004208c0 f   libohNetCore:OhNet.obj
 0001:0001f900       ?SetNumEventSessionThreads@InitialisationParams@Net@OpenHome@@QAEXI@Z 00420900 f   libohNetCore:OhNet.obj
 0001:0001f950       ?SetNumXmlFetcherThreads@InitialisationParams@Net@OpenHome@@QAEXI@Z 00420950 f   libohNetCore:OhNet.obj
 0001:0001f9a0       ?SetNumActionInvokerThreads@InitialisationParams@Net@OpenHome@@QAEXI@Z 004209a0 f   libohNetCore:OhNet.obj
 0001:0001f9f0       ?SetNumInvocations@InitialisationParams@Net@OpenHome@@QAEXI@Z 004209f0 f   libohNetCore:OhNet.obj
 0001:0001fa30       ?SetNumSubscriberThreads@InitialisationParams@Net@OpenHome@@QAEXI@Z 00420a30 f   libohNetCore:OhNet.obj
 0001:0001fa80       ?SetPendingSubscriptionTimeout@InitialisationParams@Net@OpenHome@@QAEXI@Z 00420a80 f   libohNetCore:OhNet.obj
 0001:0001fac0       ?SetFreeExternalCallback@InitialisationParams@Net@OpenHome@@QAEXP6GXPAX@Z@Z 00420ac0 f   libohNetCore:OhNet.obj
 0001:0001fae0       ?SetUseLoopbackNetworkAdapter@InitialisationParams@Net@OpenHome@@QAEXXZ 00420ae0 f   libohNetCore:OhNet.obj
 0001:0001fb00       ?SetDvMaxUpdateTime@InitialisationParams@Net@OpenHome@@QAEXI@Z 00420b00 f   libohNetCore:OhNet.obj
 0001:0001fb20       ?SetDvNumServerThreads@InitialisationParams@Net@OpenHome@@QAEXI@Z 00420b20 f   libohNetCore:OhNet.obj
 0001:0001fb70       ?SetDvNumPublisherThreads@InitialisationParams@Net@OpenHome@@QAEXI@Z 00420b70 f   libohNetCore:OhNet.obj
 0001:0001fbc0       ?SetDvNumWebSocketThreads@InitialisationParams@Net@OpenHome@@QAEXI@Z 00420bc0 f   libohNetCore:OhNet.obj
 0001:0001fc10       ?SetDvWebSocketPort@InitialisationParams@Net@OpenHome@@QAEXI@Z 00420c10 f   libohNetCore:OhNet.obj
 0001:0001fc30       ?SetDvEnableBonjour@InitialisationParams@Net@OpenHome@@QAEXXZ 00420c30 f   libohNetCore:OhNet.obj
 0001:0001fc50       ?LogOutput@InitialisationParams@Net@OpenHome@@QAEAAVFunctorMsg@3@XZ 00420c50 f   libohNetCore:OhNet.obj
 0001:0001fc70       ?FatalErrorHandler@InitialisationParams@Net@OpenHome@@QAEAAVFunctorMsg@3@XZ 00420c70 f   libohNetCore:OhNet.obj
 0001:0001fc90       ?AsyncBeginHandler@InitialisationParams@Net@OpenHome@@QAEAAVFunctorAsync@23@XZ 00420c90 f   libohNetCore:OhNet.obj
 0001:0001fcb0       ?AsyncEndHandler@InitialisationParams@Net@OpenHome@@QAEAAVFunctorAsync@23@XZ 00420cb0 f   libohNetCore:OhNet.obj
 0001:0001fcd0       ?AsyncErrorHandler@InitialisationParams@Net@OpenHome@@QAEAAVFunctorAsync@23@XZ 00420cd0 f   libohNetCore:OhNet.obj
 0001:0001fcf0       ?SubnetListChangedListener@InitialisationParams@Net@OpenHome@@QAEAAVFunctor@3@XZ 00420cf0 f   libohNetCore:OhNet.obj
 0001:0001fd10       ?TcpConnectTimeoutMs@InitialisationParams@Net@OpenHome@@QBEIXZ 00420d10 f   libohNetCore:OhNet.obj
 0001:0001fd30       ?MsearchTimeSecs@InitialisationParams@Net@OpenHome@@QBEIXZ 00420d30 f   libohNetCore:OhNet.obj
 0001:0001fd50       ?MsearchTtl@InitialisationParams@Net@OpenHome@@QBEIXZ 00420d50 f   libohNetCore:OhNet.obj
 0001:0001fd70       ?NumEventSessionThreads@InitialisationParams@Net@OpenHome@@QBEIXZ 00420d70 f   libohNetCore:OhNet.obj
 0001:0001fd90       ?NumXmlFetcherThreads@InitialisationParams@Net@OpenHome@@QBEIXZ 00420d90 f   libohNetCore:OhNet.obj
 0001:0001fdb0       ?NumActionInvokerThreads@InitialisationParams@Net@OpenHome@@QBEIXZ 00420db0 f   libohNetCore:OhNet.obj
 0001:0001fdd0       ?NumInvocations@InitialisationParams@Net@OpenHome@@QBEIXZ 00420dd0 f   libohNetCore:OhNet.obj
 0001:0001fdf0       ?NumSubscriberThreads@InitialisationParams@Net@OpenHome@@QBEIXZ 00420df0 f   libohNetCore:OhNet.obj
 0001:0001fe10       ?PendingSubscriptionTimeoutMs@InitialisationParams@Net@OpenHome@@QBEIXZ 00420e10 f   libohNetCore:OhNet.obj
 0001:0001fe30       ?FreeExternal@InitialisationParams@Net@OpenHome@@QBEP6GXPAX@ZXZ 00420e30 f   libohNetCore:OhNet.obj
 0001:0001fe50       ?UseLoopbackNetworkAdapter@InitialisationParams@Net@OpenHome@@QBE_NXZ 00420e50 f   libohNetCore:OhNet.obj
 0001:0001fe70       ?DvMaxUpdateTimeSecs@InitialisationParams@Net@OpenHome@@QBEIXZ 00420e70 f   libohNetCore:OhNet.obj
 0001:0001fe90       ?DvNumServerThreads@InitialisationParams@Net@OpenHome@@QBEIXZ 00420e90 f   libohNetCore:OhNet.obj
 0001:0001feb0       ?DvNumPublisherThreads@InitialisationParams@Net@OpenHome@@QBEIXZ 00420eb0 f   libohNetCore:OhNet.obj
 0001:0001fed0       ?DvNumWebSocketThreads@InitialisationParams@Net@OpenHome@@QBEIXZ 00420ed0 f   libohNetCore:OhNet.obj
 0001:0001fef0       ?DvWebSocketPort@InitialisationParams@Net@OpenHome@@QBEIXZ 00420ef0 f   libohNetCore:OhNet.obj
 0001:0001ff10       ?DvIsBonjourEnabled@InitialisationParams@Net@OpenHome@@QBE_NXZ 00420f10 f   libohNetCore:OhNet.obj
 0001:0001ff30       ??0InitialisationParams@Net@OpenHome@@AAE@XZ 00420f30 f   libohNetCore:OhNet.obj
 0001:000201a0       ?FatalErrorHandlerDefault@InitialisationParams@Net@OpenHome@@AAEXPBD@Z 004211a0 f   libohNetCore:OhNet.obj
 0001:000201d0       ?Initialise@UpnpLibrary@Net@OpenHome@@SGXPAVInitialisationParams@23@@Z 004211d0 f   libohNetCore:OhNet.obj
 0001:000202d0       ?InitialiseMinimal@UpnpLibrary@Net@OpenHome@@SGXPAVInitialisationParams@23@@Z 004212d0 f   libohNetCore:OhNet.obj
 0001:00020370       ?Close@UpnpLibrary@Net@OpenHome@@SGXXZ 00421370 f   libohNetCore:OhNet.obj
 0001:00020390       ?CreateSubnetList@UpnpLibrary@Net@OpenHome@@SGPAV?$vector@PAVNetworkAdapter@OpenHome@@V?$allocator@PAVNetworkAdapter@OpenHome@@@std@@@std@@XZ 00421390 f   libohNetCore:OhNet.obj
 0001:000203b0       ?DestroySubnetList@UpnpLibrary@Net@OpenHome@@SGXPAV?$vector@PAVNetworkAdapter@OpenHome@@V?$allocator@PAVNetworkAdapter@OpenHome@@@std@@@std@@@Z 004213b0 f   libohNetCore:OhNet.obj
 0001:00020440       ?SetCurrentSubnet@UpnpLibrary@Net@OpenHome@@SGXI@Z 00421440 f   libohNetCore:OhNet.obj
 0001:00020460       ?CurrentSubnetAdapter@UpnpLibrary@Net@OpenHome@@SGPAVNetworkAdapter@3@XZ 00421460 f   libohNetCore:OhNet.obj
 0001:00020480       ??_GNetworkAdapter@OpenHome@@AAEPAXI@Z 00421480 f i libohNetCore:OhNet.obj
 0001:000204c0       ??BFunctorMsg@OpenHome@@QBE_NXZ 004214c0 f i libohNetCore:OhNet.obj
 0001:00020500       ??0FunctorAsync@Net@OpenHome@@QAE@XZ 00421500 f i libohNetCore:OhNet.obj
 0001:00020530       ??0FunctorMsg@OpenHome@@QAE@XZ 00421530 f i libohNetCore:OhNet.obj
 0001:00020560       ??0DefaultAsyncHandler@Net@OpenHome@@QAE@XZ 00421560 f i libohNetCore:OhNet.obj
 0001:00020590       ??0IAsyncOutput@Net@OpenHome@@QAE@XZ 00421590 f i libohNetCore:OhNet.obj
 0001:000205b0       ?Quit@Os@OpenHome@@SGXXZ   004215b0 f i libohNetCore:OhNet.obj
 0001:000205d0       ??0bad_alloc@std@@QAE@XZ   004215d0 f i libohNetCore:OhNet.obj
 0001:00020620       ?Create@Os@OpenHome@@SGHXZ 00421620 f i libohNetCore:OhNet.obj
 0001:00020640       ?Destroy@Os@OpenHome@@SGXXZ 00421640 f i libohNetCore:OhNet.obj
 0001:00020660       ??$MakeFunctorMsg@VDefaultLogger@Net@OpenHome@@V123@@OpenHome@@YG?AV?$MemberTranslatorMsg@VDefaultLogger@Net@OpenHome@@P8123@AEXPBD@Z@0@AAVDefaultLogger@Net@0@ABQ8230@AEXPBD@Z@Z 00421660 f i libohNetCore:OhNet.obj
 0001:00020690       ??$MakeFunctorAsync@VDefaultAsyncHandler@Net@OpenHome@@V123@@Net@OpenHome@@YG?AV?$MemberTranslatorAsync@VDefaultAsyncHandler@Net@OpenHome@@P8123@AEXAAVIAsync@23@@Z@01@AAVDefaultAsyncHandler@01@ABQ8301@AEXAAVIAsync@01@@Z@Z 00421690 f i libohNetCore:OhNet.obj
 0001:000206c0       ??$MakeFunctorMsg@VInitialisationParams@Net@OpenHome@@V123@@OpenHome@@YG?AV?$MemberTranslatorMsg@VInitialisationParams@Net@OpenHome@@P8123@AEXPBD@Z@0@AAVInitialisationParams@Net@0@ABQ8230@AEXPBD@Z@Z 004216c0 f i libohNetCore:OhNet.obj
 0001:000206f0       ??0?$MemberTranslatorMsg@VDefaultLogger@Net@OpenHome@@P8123@AEXPBD@Z@OpenHome@@QAE@AAVDefaultLogger@Net@1@ABQ8231@AEXPBD@Z@Z 004216f0 f i libohNetCore:OhNet.obj
 0001:00020730       ??0?$MemberTranslatorAsync@VDefaultAsyncHandler@Net@OpenHome@@P8123@AEXAAVIAsync@23@@Z@Net@OpenHome@@QAE@AAVDefaultAsyncHandler@12@ABQ8312@AEXAAVIAsync@12@@Z@Z 00421730 f i libohNetCore:OhNet.obj
 0001:00020770       ??0FunctorAsync@Net@OpenHome@@IAE@P6GXABV012@AAVIAsync@12@@ZPBX3I@Z 00421770 f i libohNetCore:OhNet.obj
 0001:000207c0       ??0?$MemberTranslatorMsg@VInitialisationParams@Net@OpenHome@@P8123@AEXPBD@Z@OpenHome@@QAE@AAVInitialisationParams@Net@1@ABQ8231@AEXPBD@Z@Z 004217c0 f i libohNetCore:OhNet.obj
 0001:00020800       ?Thunk@?$MemberTranslatorMsg@VDefaultLogger@Net@OpenHome@@P8123@AEXPBD@Z@OpenHome@@SGXABVFunctorMsg@2@PBD@Z 00421800 f i libohNetCore:OhNet.obj
 0001:00020850       ?Thunk@?$MemberTranslatorAsync@VDefaultAsyncHandler@Net@OpenHome@@P8123@AEXAAVIAsync@23@@Z@Net@OpenHome@@SGXABVFunctorAsync@23@AAVIAsync@23@@Z 00421850 f i libohNetCore:OhNet.obj
 0001:000208a0       ?Thunk@?$MemberTranslatorMsg@VInitialisationParams@Net@OpenHome@@P8123@AEXPBD@Z@OpenHome@@SGXABVFunctorMsg@2@PBD@Z 004218a0 f i libohNetCore:OhNet.obj
 0001:000208f0       ??0Stack@Net@OpenHome@@QAE@XZ 004218f0 f   libohNetCore:Stack.obj
 0001:000209f0       ??0Stack@Net@OpenHome@@QAE@PAVInitialisationParams@12@@Z 004219f0 f   libohNetCore:Stack.obj
 0001:00020c10       ?Destroy@Stack@Net@OpenHome@@SGXXZ 00421c10 f   libohNetCore:Stack.obj
 0001:00020c70       ??1Stack@Net@OpenHome@@AAE@XZ 00421c70 f   libohNetCore:Stack.obj
 0001:00020e80       ?IsInitialised@Stack@Net@OpenHome@@SG_NXZ 00421e80 f   libohNetCore:Stack.obj
 0001:00020ea0       ?GetVersion@Stack@Net@OpenHome@@SGXAAI0@Z 00421ea0 f   libohNetCore:Stack.obj
 0001:00020ec0       ?TimerManager@Stack@Net@OpenHome@@SGAAV03@XZ 00421ec0 f   libohNetCore:Stack.obj
 0001:00020ed0       ?Mutex@Stack@Net@OpenHome@@SGAAV03@XZ 00421ed0 f   libohNetCore:Stack.obj
 0001:00020ee0       ?NetworkAdapterList@Stack@Net@OpenHome@@SGAAV03@XZ 00421ee0 f   libohNetCore:Stack.obj
 0001:00020ef0       ?MulticastListenerClaim@Stack@Net@OpenHome@@SGAAVSsdpListenerMulticast@23@I@Z 00421ef0 f   libohNetCore:Stack.obj
 0001:000210a0       ?MulticastListenerRelease@Stack@Net@OpenHome@@SGXI@Z 004220a0 f   libohNetCore:Stack.obj
 0001:00021240       ?SequenceNumber@Stack@Net@OpenHome@@SGIXZ 00422240 f   libohNetCore:Stack.obj
 0001:000212a0       ?InitParams@Stack@Net@OpenHome@@SGAAVInitialisationParams@23@XZ 004222a0 f   libohNetCore:Stack.obj
 0001:000212b0       ?AddObject@Stack@Net@OpenHome@@SGXPAXPBD@Z 004222b0 f   libohNetCore:Stack.obj
 0001:000212e0       ?RemoveObject@Stack@Net@OpenHome@@SGXPAXPBD@Z 004222e0 f   libohNetCore:Stack.obj
 0001:00021310       ?ListObjects@Stack@Net@OpenHome@@SGXXZ 00422310 f   libohNetCore:Stack.obj
 0001:00021330       ?DoAddObject@Stack@Net@OpenHome@@AAEXPAXPBD@Z 00422330 f   libohNetCore:Stack.obj
 0001:00021590       ?DoRemoveObject@Stack@Net@OpenHome@@AAEXPAXPBD@Z 00422590 f   libohNetCore:Stack.obj
 0001:00021830       ?DoListObjects@Stack@Net@OpenHome@@AAEXXZ 00422830 f   libohNetCore:Stack.obj
 0001:00021a40       ?SetCpiStack@Stack@Net@OpenHome@@CGXPAVIStack@23@@Z 00422a40 f   libohNetCore:Stack.obj
 0001:00021a60       ?SetDviStack@Stack@Net@OpenHome@@CGXPAVIStack@23@@Z 00422a60 f   libohNetCore:Stack.obj
 0001:00021a80       ?CpiStack@Stack@Net@OpenHome@@CGPAVIStack@23@XZ 00422a80 f   libohNetCore:Stack.obj
 0001:00021a90       ?DviStack@Stack@Net@OpenHome@@CGPAVIStack@23@XZ 00422a90 f   libohNetCore:Stack.obj
 0001:00021aa0       ??0MListener@Stack@Net@OpenHome@@QAE@I@Z 00422aa0 f   libohNetCore:Stack.obj
 0001:00021ae0       ?Listener@MListener@Stack@Net@OpenHome@@QAEAAVSsdpListenerMulticast@34@XZ 00422ae0 f   libohNetCore:Stack.obj
 0001:00021b00       ?Interface@MListener@Stack@Net@OpenHome@@QBEIXZ 00422b00 f   libohNetCore:Stack.obj
 0001:00021b30       ?AddRef@MListener@Stack@Net@OpenHome@@QAEXXZ 00422b30 f   libohNetCore:Stack.obj
 0001:00021b60       ?RemoveRef@MListener@Stack@Net@OpenHome@@QAE_NXZ 00422b60 f   libohNetCore:Stack.obj
 0001:00021ba0       ??0ObjectType@Stack@Net@OpenHome@@QAE@PBD@Z 00422ba0 f   libohNetCore:Stack.obj
 0001:00021c10       ??1ObjectType@Stack@Net@OpenHome@@QAE@XZ 00422c10 f   libohNetCore:Stack.obj
 0001:00021ca0       ??1?$map@VBrn@OpenHome@@PAVObjectType@Stack@Net@2@VBufferCmp@2@V?$allocator@U?$pair@$$CBVBrn@OpenHome@@PAVObjectType@Stack@Net@2@@std@@@std@@@std@@QAE@XZ 00422ca0 f i libohNetCore:Stack.obj
 0001:00021cd0       ??BFunctor@OpenHome@@QBE_NXZ 00422cd0 f i libohNetCore:Stack.obj
 0001:00021d10       ??_GStack@Net@OpenHome@@AAEPAXI@Z 00422d10 f i libohNetCore:Stack.obj
 0001:00021d50       ??_GNetworkAdapterList@OpenHome@@QAEPAXI@Z 00422d50 f i libohNetCore:Stack.obj
 0001:00021d90       ??_GInitialisationParams@Net@OpenHome@@QAEPAXI@Z 00422d90 f i libohNetCore:Stack.obj
 0001:00021dd0       ??_GMListener@Stack@Net@OpenHome@@QAEPAXI@Z 00422dd0 f i libohNetCore:Stack.obj
 0001:00021e10       ??1?$_Vector_iterator@V?$_Vector_val@PAVMListener@Stack@Net@OpenHome@@V?$allocator@PAVMListener@Stack@Net@OpenHome@@@std@@@std@@@std@@QAE@XZ 00422e10 f i libohNetCore:Stack.obj
 0001:00021e40       ??0?$_Vector_const_iterator@V?$_Vector_val@PAVMListener@Stack@Net@OpenHome@@V?$allocator@PAVMListener@Stack@Net@OpenHome@@@std@@@std@@@std@@QAE@ABV01@@Z 00422e40 f i libohNetCore:Stack.obj
 0001:00021e80       ??1?$_Vector_const_iterator@V?$_Vector_val@PAVMListener@Stack@Net@OpenHome@@V?$allocator@PAVMListener@Stack@Net@OpenHome@@@std@@@std@@@std@@QAE@XZ 00422e80 f i libohNetCore:Stack.obj
 0001:00021eb0       ??1MListener@Stack@Net@OpenHome@@QAE@XZ 00422eb0 f i libohNetCore:Stack.obj
 0001:00021ee0       ??0?$_Iterator012@Urandom_access_iterator_tag@std@@PAVMListener@Stack@Net@OpenHome@@HPBQAV3456@ABQAV3456@U_Iterator_base12@2@@std@@QAE@ABU01@@Z 00422ee0 f i libohNetCore:Stack.obj
 0001:00021f10       ??1?$_Iterator012@Urandom_access_iterator_tag@std@@PAVMListener@Stack@Net@OpenHome@@HPBQAV3456@ABQAV3456@U_Iterator_base12@2@@std@@QAE@XZ 00422f10 f i libohNetCore:Stack.obj
 0001:00021f40       ?Set@Brn@OpenHome@@QAEXABVBrx@2@@Z 00422f40 f i libohNetCore:Stack.obj
 0001:00021f90       ?Name@ObjectType@Stack@Net@OpenHome@@QAEABVBrx@4@XZ 00422f90 f i libohNetCore:Stack.obj
 0001:00021fb0       ?Map@ObjectType@Stack@Net@OpenHome@@QAEAAV?$map@PAXPAXU?$less@PAX@std@@V?$allocator@U?$pair@QAXPAX@std@@@2@@std@@XZ 00422fb0 f i libohNetCore:Stack.obj
 0001:00021fd0       ??1?$_Tree_iterator@V?$_Tree_val@V?$_Tmap_traits@VBrn@OpenHome@@PAVObjectType@Stack@Net@2@VBufferCmp@2@V?$allocator@U?$pair@$$CBVBrn@OpenHome@@PAVObjectType@Stack@Net@2@@std@@@std@@$0A@@std@@@std@@@std@@QAE@XZ 00422fd0 f i libohNetCore:Stack.obj
 0001:00022000       ??1?$pair@VBrn@OpenHome@@PAVObjectType@Stack@Net@2@@std@@QAE@XZ 00423000 f i libohNetCore:Stack.obj
 0001:00022030       ??1?$pair@V?$_Tree_iterator@V?$_Tree_val@V?$_Tmap_traits@VBrn@OpenHome@@PAVObjectType@Stack@Net@2@VBufferCmp@2@V?$allocator@U?$pair@$$CBVBrn@OpenHome@@PAVObjectType@Stack@Net@2@@std@@@std@@$0A@@std@@@std@@@std@@_N@std@@QAE@XZ 00423030 f i libohNetCore:Stack.obj
 0001:00022060       ??1?$pair@V?$_Tree_iterator@V?$_Tree_val@V?$_Tmap_traits@PAXPAXU?$less@PAX@std@@V?$allocator@U?$pair@QAXPAX@std@@@2@$0A@@std@@@std@@@std@@_N@std@@QAE@XZ 00423060 f i libohNetCore:Stack.obj
 0001:00022090       ??1?$_Tree_const_iterator@V?$_Tree_val@V?$_Tmap_traits@VBrn@OpenHome@@PAVObjectType@Stack@Net@2@VBufferCmp@2@V?$allocator@U?$pair@$$CBVBrn@OpenHome@@PAVObjectType@Stack@Net@2@@std@@@std@@$0A@@std@@@std@@@std@@QAE@XZ 00423090 f i libohNetCore:Stack.obj
 0001:000220c0       ??1?$_Pair_base@VBrn@OpenHome@@PAVObjectType@Stack@Net@2@@std@@QAE@XZ 004230c0 f i libohNetCore:Stack.obj
 0001:000220f0       ??1?$_Pair_base@V?$_Tree_iterator@V?$_Tree_val@V?$_Tmap_traits@VBrn@OpenHome@@PAVObjectType@Stack@Net@2@VBufferCmp@2@V?$allocator@U?$pair@$$CBVBrn@OpenHome@@PAVObjectType@Stack@Net@2@@std@@@std@@$0A@@std@@@std@@@std@@_N@std@@QAE@XZ 004230f0 f i libohNetCore:Stack.obj
 0001:00022120       ??1?$_Pair_base@V?$_Tree_iterator@V?$_Tree_val@V?$_Tmap_traits@PAXPAXU?$less@PAX@std@@V?$allocator@U?$pair@QAXPAX@std@@@2@$0A@@std@@@std@@@std@@_N@std@@QAE@XZ 00423120 f i libohNetCore:Stack.obj
 0001:00022150       ??1?$_Tree_unchecked_const_iterator@V?$_Tree_val@V?$_Tmap_traits@VBrn@OpenHome@@PAVObjectType@Stack@Net@2@VBufferCmp@2@V?$allocator@U?$pair@$$CBVBrn@OpenHome@@PAVObjectType@Stack@Net@2@@std@@@std@@$0A@@std@@@std@@U_Iterator_base12@2@@std@@QAE@XZ 00423150 f i libohNetCore:Stack.obj
 0001:00022180       ??1?$_Tree_iterator@V?$_Tree_val@V?$_Tmap_traits@PAXPAXU?$less@PAX@std@@V?$allocator@U?$pair@QAXPAX@std@@@2@$0A@@std@@@std@@@std@@QAE@XZ 00423180 f i libohNetCore:Stack.obj
 0001:000221b0       ??1?$_Iterator012@Ubidirectional_iterator_tag@std@@U?$pair@$$CBVBrn@OpenHome@@PAVObjectType@Stack@Net@2@@2@HPBU32@ABU32@U_Iterator_base12@2@@std@@QAE@XZ 004231b0 f i libohNetCore:Stack.obj
 0001:000221e0       ??1?$_Tree_const_iterator@V?$_Tree_val@V?$_Tmap_traits@PAXPAXU?$less@PAX@std@@V?$allocator@U?$pair@QAXPAX@std@@@2@$0A@@std@@@std@@@std@@QAE@XZ 004231e0 f i libohNetCore:Stack.obj
 0001:00022210       ??1?$_Tree_unchecked_const_iterator@V?$_Tree_val@V?$_Tmap_traits@PAXPAXU?$less@PAX@std@@V?$allocator@U?$pair@QAXPAX@std@@@2@$0A@@std@@@std@@U_Iterator_base12@2@@std@@QAE@XZ 00423210 f i libohNetCore:Stack.obj
 0001:00022240       ??1?$_Iterator012@Ubidirectional_iterator_tag@std@@U?$pair@QAXPAX@2@HPBU32@ABU32@U_Iterator_base12@2@@std@@QAE@XZ 00423240 f i libohNetCore:Stack.obj
 0001:00022270       ??0?$_Tree_const_iterator@V?$_Tree_val@V?$_Tmap_traits@PAXPAXU?$less@PAX@std@@V?$allocator@U?$pair@QAXPAX@std@@@2@$0A@@std@@@std@@@std@@QAE@ABV01@@Z 00423270 f i libohNetCore:Stack.obj
 0001:000222a0       ??_GObjectType@Stack@Net@OpenHome@@QAEPAXI@Z 004232a0 f i libohNetCore:Stack.obj
 0001:000222e0       ??0?$_Tree_const_iterator@V?$_Tree_val@V?$_Tmap_traits@VBrn@OpenHome@@PAVObjectType@Stack@Net@2@VBufferCmp@2@V?$allocator@U?$pair@$$CBVBrn@OpenHome@@PAVObjectType@Stack@Net@2@@std@@@std@@$0A@@std@@@std@@@std@@QAE@ABV01@@Z 004232e0 f i libohNetCore:Stack.obj
 0001:00022310       ??0?$_Tree_unchecked_const_iterator@V?$_Tree_val@V?$_Tmap_traits@PAXPAXU?$less@PAX@std@@V?$allocator@U?$pair@QAXPAX@std@@@2@$0A@@std@@@std@@U_Iterator_base12@2@@std@@QAE@ABV01@@Z 00423310 f i libohNetCore:Stack.obj
 0001:00022350       ??0?$_Tree_unchecked_const_iterator@V?$_Tree_val@V?$_Tmap_traits@VBrn@OpenHome@@PAVObjectType@Stack@Net@2@VBufferCmp@2@V?$allocator@U?$pair@$$CBVBrn@OpenHome@@PAVObjectType@Stack@Net@2@@std@@@std@@$0A@@std@@@std@@U_Iterator_base12@2@@std@@QAE@ABV01@@Z 00423350 f i libohNetCore:Stack.obj
 0001:00022390       ??0?$_Iterator012@Ubidirectional_iterator_tag@std@@U?$pair@QAXPAX@2@HPBU32@ABU32@U_Iterator_base12@2@@std@@QAE@ABU01@@Z 00423390 f i libohNetCore:Stack.obj
 0001:000223c0       ??0?$_Iterator012@Ubidirectional_iterator_tag@std@@U?$pair@$$CBVBrn@OpenHome@@PAVObjectType@Stack@Net@2@@2@HPBU32@ABU32@U_Iterator_base12@2@@std@@QAE@ABU01@@Z 004233c0 f i libohNetCore:Stack.obj
 0001:000223f0       ??1?$map@PAXPAXU?$less@PAX@std@@V?$allocator@U?$pair@QAXPAX@std@@@2@@std@@QAE@XZ 004233f0 f i libohNetCore:Stack.obj
 0001:00022420       ??0?$map@PAXPAXU?$less@PAX@std@@V?$allocator@U?$pair@QAXPAX@std@@@2@@std@@QAE@XZ 00423420 f i libohNetCore:Stack.obj
 0001:00022460       ??1?$_Tree@V?$_Tmap_traits@PAXPAXU?$less@PAX@std@@V?$allocator@U?$pair@QAXPAX@std@@@2@$0A@@std@@@std@@QAE@XZ 00423460 f i libohNetCore:Stack.obj
 0001:000224d0       ?begin@?$_Tree@V?$_Tmap_traits@PAXPAXU?$less@PAX@std@@V?$allocator@U?$pair@QAXPAX@std@@@2@$0A@@std@@@std@@QAE?AV?$_Tree_iterator@V?$_Tree_val@V?$_Tmap_traits@PAXPAXU?$less@PAX@std@@V?$allocator@U?$pair@QAXPAX@std@@@2@$0A@@std@@@std@@@2@XZ 004234d0 f i libohNetCore:Stack.obj
 0001:00022530       ?end@?$_Tree@V?$_Tmap_traits@PAXPAXU?$less@PAX@std@@V?$allocator@U?$pair@QAXPAX@std@@@2@$0A@@std@@@std@@QAE?AV?$_Tree_iterator@V?$_Tree_val@V?$_Tmap_traits@PAXPAXU?$less@PAX@std@@V?$allocator@U?$pair@QAXPAX@std@@@2@$0A@@std@@@std@@@2@XZ 00423530 f i libohNetCore:Stack.obj
 0001:00022580       ?size@?$_Tree@V?$_Tmap_traits@PAXPAXU?$less@PAX@std@@V?$allocator@U?$pair@QAXPAX@std@@@2@$0A@@std@@@std@@QBEIXZ 00423580 f i libohNetCore:Stack.obj
 0001:000225a0       ?erase@?$_Tree@V?$_Tmap_traits@PAXPAXU?$less@PAX@std@@V?$allocator@U?$pair@QAXPAX@std@@@2@$0A@@std@@@std@@QAE?AV?$_Tree_iterator@V?$_Tree_val@V?$_Tmap_traits@PAXPAXU?$less@PAX@std@@V?$allocator@U?$pair@QAXPAX@std@@@2@$0A@@std@@@std@@@2@V?$_Tree_const_iterator@V?$_Tree_val@V?$_Tmap_traits@PAXPAXU?$less@PAX@std@@V?$allocator@U?$pair@QAXPAX@std@@@2@$0A@@std@@@std@@@2@@Z 004235a0 f i libohNetCore:Stack.obj
 0001:00022cb0       ?find@?$_Tree@V?$_Tmap_traits@PAXPAXU?$less@PAX@std@@V?$allocator@U?$pair@QAXPAX@std@@@2@$0A@@std@@@std@@QAE?AV?$_Tree_iterator@V?$_Tree_val@V?$_Tmap_traits@PAXPAXU?$less@PAX@std@@V?$allocator@U?$pair@QAXPAX@std@@@2@$0A@@std@@@std@@@2@ABQAX@Z 00423cb0 f i libohNetCore:Stack.obj
 0001:00022e90       ??0?$vector@PAVMListener@Stack@Net@OpenHome@@V?$allocator@PAVMListener@Stack@Net@OpenHome@@@std@@@std@@QAE@XZ 00423e90 f i libohNetCore:Stack.obj
 0001:00022ed0       ??1?$vector@PAVMListener@Stack@Net@OpenHome@@V?$allocator@PAVMListener@Stack@Net@OpenHome@@@std@@@std@@QAE@XZ 00423ed0 f i libohNetCore:Stack.obj
 0001:00022f40       ?begin@?$vector@PAVMListener@Stack@Net@OpenHome@@V?$allocator@PAVMListener@Stack@Net@OpenHome@@@std@@@std@@QAE?AV?$_Vector_iterator@V?$_Vector_val@PAVMListener@Stack@Net@OpenHome@@V?$allocator@PAVMListener@Stack@Net@OpenHome@@@std@@@std@@@2@XZ 00423f40 f i libohNetCore:Stack.obj
 0001:00022f90       ?size@?$vector@PAVMListener@Stack@Net@OpenHome@@V?$allocator@PAVMListener@Stack@Net@OpenHome@@@std@@@std@@QBEIXZ 00423f90 f i libohNetCore:Stack.obj
 0001:00022fc0       ??A?$vector@PAVMListener@Stack@Net@OpenHome@@V?$allocator@PAVMListener@Stack@Net@OpenHome@@@std@@@std@@QAEAAPAVMListener@Stack@Net@OpenHome@@I@Z 00423fc0 f i libohNetCore:Stack.obj
 0001:00023060       ?push_back@?$vector@PAVMListener@Stack@Net@OpenHome@@V?$allocator@PAVMListener@Stack@Net@OpenHome@@@std@@@std@@QAEXABQAVMListener@Stack@Net@OpenHome@@@Z 00424060 f i libohNetCore:Stack.obj
 0001:00023170       ?erase@?$vector@PAVMListener@Stack@Net@OpenHome@@V?$allocator@PAVMListener@Stack@Net@OpenHome@@@std@@@std@@QAE?AV?$_Vector_iterator@V?$_Vector_val@PAVMListener@Stack@Net@OpenHome@@V?$allocator@PAVMListener@Stack@Net@OpenHome@@@std@@@std@@@2@V?$_Vector_const_iterator@V?$_Vector_val@PAVMListener@Stack@Net@OpenHome@@V?$allocator@PAVMListener@Stack@Net@OpenHome@@@std@@@std@@@2@@Z 00424170 f i libohNetCore:Stack.obj
 0001:000232a0       ??0?$map@VBrn@OpenHome@@PAVObjectType@Stack@Net@2@VBufferCmp@2@V?$allocator@U?$pair@$$CBVBrn@OpenHome@@PAVObjectType@Stack@Net@2@@std@@@std@@@std@@QAE@XZ 004242a0 f i libohNetCore:Stack.obj
 0001:000232f0       ??1?$_Tree@V?$_Tmap_traits@VBrn@OpenHome@@PAVObjectType@Stack@Net@2@VBufferCmp@2@V?$allocator@U?$pair@$$CBVBrn@OpenHome@@PAVObjectType@Stack@Net@2@@std@@@std@@$0A@@std@@@std@@QAE@XZ 004242f0 f i libohNetCore:Stack.obj
 0001:00023360       ?begin@?$_Tree@V?$_Tmap_traits@VBrn@OpenHome@@PAVObjectType@Stack@Net@2@VBufferCmp@2@V?$allocator@U?$pair@$$CBVBrn@OpenHome@@PAVObjectType@Stack@Net@2@@std@@@std@@$0A@@std@@@std@@QAE?AV?$_Tree_iterator@V?$_Tree_val@V?$_Tmap_traits@VBrn@OpenHome@@PAVObjectType@Stack@Net@2@VBufferCmp@2@V?$allocator@U?$pair@$$CBVBrn@OpenHome@@PAVObjectType@Stack@Net@2@@std@@@std@@$0A@@std@@@std@@@2@XZ 00424360 f i libohNetCore:Stack.obj
 0001:000233c0       ?end@?$_Tree@V?$_Tmap_traits@VBrn@OpenHome@@PAVObjectType@Stack@Net@2@VBufferCmp@2@V?$allocator@U?$pair@$$CBVBrn@OpenHome@@PAVObjectType@Stack@Net@2@@std@@@std@@$0A@@std@@@std@@QAE?AV?$_Tree_iterator@V?$_Tree_val@V?$_Tmap_traits@VBrn@OpenHome@@PAVObjectType@Stack@Net@2@VBufferCmp@2@V?$allocator@U?$pair@$$CBVBrn@OpenHome@@PAVObjectType@Stack@Net@2@@std@@@std@@$0A@@std@@@std@@@2@XZ 004243c0 f i libohNetCore:Stack.obj
 0001:00023410       ?size@?$_Tree@V?$_Tmap_traits@VBrn@OpenHome@@PAVObjectType@Stack@Net@2@VBufferCmp@2@V?$allocator@U?$pair@$$CBVBrn@OpenHome@@PAVObjectType@Stack@Net@2@@std@@@std@@$0A@@std@@@std@@QBEIXZ 00424410 f i libohNetCore:Stack.obj
 0001:00023430       ?erase@?$_Tree@V?$_Tmap_traits@VBrn@OpenHome@@PAVObjectType@Stack@Net@2@VBufferCmp@2@V?$allocator@U?$pair@$$CBVBrn@OpenHome@@PAVObjectType@Stack@Net@2@@std@@@std@@$0A@@std@@@std@@QAE?AV?$_Tree_iterator@V?$_Tree_val@V?$_Tmap_traits@VBrn@OpenHome@@PAVObjectType@Stack@Net@2@VBufferCmp@2@V?$allocator@U?$pair@$$CBVBrn@OpenHome@@PAVObjectType@Stack@Net@2@@std@@@std@@$0A@@std@@@std@@@2@V?$_Tree_const_iterator@V?$_Tree_val@V?$_Tmap_traits@VBrn@OpenHome@@PAVObjectType@Stack@Net@2@VBufferCmp@2@V?$allocator@U?$pair@$$CBVBrn@OpenHome@@PAVObjectType@Stack@Net@2@@std@@@std@@$0A@@std@@@std@@@2@@Z 00424430 f i libohNetCore:Stack.obj
 0001:00023b40       ?find@?$_Tree@V?$_Tmap_traits@VBrn@OpenHome@@PAVObjectType@Stack@Net@2@VBufferCmp@2@V?$allocator@U?$pair@$$CBVBrn@OpenHome@@PAVObjectType@Stack@Net@2@@std@@@std@@$0A@@std@@@std@@QAE?AV?$_Tree_iterator@V?$_Tree_val@V?$_Tmap_traits@VBrn@OpenHome@@PAVObjectType@Stack@Net@2@VBufferCmp@2@V?$allocator@U?$pair@$$CBVBrn@OpenHome@@PAVObjectType@Stack@Net@2@@std@@@std@@$0A@@std@@@std@@@2@ABVBrn@OpenHome@@@Z 00424b40 f i libohNetCore:Stack.obj
 0001:00023d20       ??H?$_Vector_iterator@V?$_Vector_val@PAVMListener@Stack@Net@OpenHome@@V?$allocator@PAVMListener@Stack@Net@OpenHome@@@std@@@std@@@std@@QBE?AV01@H@Z 00424d20 f i libohNetCore:Stack.obj
 0001:00023e00       ??C?$_Tree_iterator@V?$_Tree_val@V?$_Tmap_traits@VBrn@OpenHome@@PAVObjectType@Stack@Net@2@VBufferCmp@2@V?$allocator@U?$pair@$$CBVBrn@OpenHome@@PAVObjectType@Stack@Net@2@@std@@@std@@$0A@@std@@@std@@@std@@QBEPAU?$pair@$$CBVBrn@OpenHome@@PAVObjectType@Stack@Net@2@@1@XZ 00424e00 f i libohNetCore:Stack.obj
 0001:00023e30       ??E?$_Tree_iterator@V?$_Tree_val@V?$_Tmap_traits@VBrn@OpenHome@@PAVObjectType@Stack@Net@2@VBufferCmp@2@V?$allocator@U?$pair@$$CBVBrn@OpenHome@@PAVObjectType@Stack@Net@2@@std@@@std@@$0A@@std@@@std@@@std@@QAE?AV01@H@Z 00424e30 f i libohNetCore:Stack.obj
 0001:00023f00       ??9?$_Tree_const_iterator@V?$_Tree_val@V?$_Tmap_traits@VBrn@OpenHome@@PAVObjectType@Stack@Net@2@VBufferCmp@2@V?$allocator@U?$pair@$$CBVBrn@OpenHome@@PAVObjectType@Stack@Net@2@@std@@@std@@$0A@@std@@@std@@@std@@QBE_NABV01@@Z 00424f00 f i libohNetCore:Stack.obj
 0001:00023f40       ??C?$_Tree_iterator@V?$_Tree_val@V?$_Tmap_traits@PAXPAXU?$less@PAX@std@@V?$allocator@U?$pair@QAXPAX@std@@@2@$0A@@std@@@std@@@std@@QBEPAU?$pair@QAXPAX@1@XZ 00424f40 f i libohNetCore:Stack.obj
 0001:00023f80       ??E?$_Tree_iterator@V?$_Tree_val@V?$_Tmap_traits@PAXPAXU?$less@PAX@std@@V?$allocator@U?$pair@QAXPAX@std@@@2@$0A@@std@@@std@@@std@@QAE?AV01@H@Z 00424f80 f i libohNetCore:Stack.obj
 0001:00024050       ??9?$_Tree_const_iterator@V?$_Tree_val@V?$_Tmap_traits@PAXPAXU?$less@PAX@std@@V?$allocator@U?$pair@QAXPAX@std@@@2@$0A@@std@@@std@@@std@@QBE_NABV01@@Z 00425050 f i libohNetCore:Stack.obj
 0001:00024090       ??0?$_Tree_iterator@V?$_Tree_val@V?$_Tmap_traits@PAXPAXU?$less@PAX@std@@V?$allocator@U?$pair@QAXPAX@std@@@2@$0A@@std@@@std@@@std@@QAE@ABV01@@Z 00425090 f i libohNetCore:Stack.obj
 0001:000240c0       ??0?$_Tree_iterator@V?$_Tree_val@V?$_Tmap_traits@VBrn@OpenHome@@PAVObjectType@Stack@Net@2@VBufferCmp@2@V?$allocator@U?$pair@$$CBVBrn@OpenHome@@PAVObjectType@Stack@Net@2@@std@@@std@@$0A@@std@@@std@@@std@@QAE@ABV01@@Z 004250c0 f i libohNetCore:Stack.obj
 0001:000240f0       ??0?$_Vector_iterator@V?$_Vector_val@PAVMListener@Stack@Net@OpenHome@@V?$allocator@PAVMListener@Stack@Net@OpenHome@@@std@@@std@@@std@@QAE@ABV01@@Z 004250f0 f i libohNetCore:Stack.obj
 0001:00024120       ??0?$_Tree@V?$_Tmap_traits@PAXPAXU?$less@PAX@std@@V?$allocator@U?$pair@QAXPAX@std@@@2@$0A@@std@@@std@@QAE@ABU?$less@PAX@1@ABV?$allocator@U?$pair@QAXPAX@std@@@1@@Z 00425120 f i libohNetCore:Stack.obj
 0001:00024170       ?lower_bound@?$_Tree@V?$_Tmap_traits@PAXPAXU?$less@PAX@std@@V?$allocator@U?$pair@QAXPAX@std@@@2@$0A@@std@@@std@@QAE?AV?$_Tree_iterator@V?$_Tree_val@V?$_Tmap_traits@PAXPAXU?$less@PAX@std@@V?$allocator@U?$pair@QAXPAX@std@@@2@$0A@@std@@@std@@@2@ABQAX@Z 00425170 f i libohNetCore:Stack.obj
 0001:000241d0       ?_Lmost@?$_Tree@V?$_Tmap_traits@PAXPAXU?$less@PAX@std@@V?$allocator@U?$pair@QAXPAX@std@@@2@$0A@@std@@@std@@IBEAAPAU_Node@?$_Tree_nod@V?$_Tmap_traits@PAXPAXU?$less@PAX@std@@V?$allocator@U?$pair@QAXPAX@std@@@2@$0A@@std@@@2@XZ 004251d0 f i libohNetCore:Stack.obj
 0001:00024200       ?_Lrotate@?$_Tree@V?$_Tmap_traits@PAXPAXU?$less@PAX@std@@V?$allocator@U?$pair@QAXPAX@std@@@2@$0A@@std@@@std@@IAEXPAU_Node@?$_Tree_nod@V?$_Tmap_traits@PAXPAXU?$less@PAX@std@@V?$allocator@U?$pair@QAXPAX@std@@@2@$0A@@std@@@2@@Z 00425200 f i libohNetCore:Stack.obj
 0001:00024320       ?_Rmost@?$_Tree@V?$_Tmap_traits@PAXPAXU?$less@PAX@std@@V?$allocator@U?$pair@QAXPAX@std@@@2@$0A@@std@@@std@@IBEAAPAU_Node@?$_Tree_nod@V?$_Tmap_traits@PAXPAXU?$less@PAX@std@@V?$allocator@U?$pair@QAXPAX@std@@@2@$0A@@std@@@2@XZ 00425320 f i libohNetCore:Stack.obj
 0001:00024350       ?_Root@?$_Tree@V?$_Tmap_traits@PAXPAXU?$less@PAX@std@@V?$allocator@U?$pair@QAXPAX@std@@@2@$0A@@std@@@std@@IBEAAPAU_Node@?$_Tree_nod@V?$_Tmap_traits@PAXPAXU?$less@PAX@std@@V?$allocator@U?$pair@QAXPAX@std@@@2@$0A@@std@@@2@XZ 00425350 f i libohNetCore:Stack.obj
 0001:00024380       ?_Rrotate@?$_Tree@V?$_Tmap_traits@PAXPAXU?$less@PAX@std@@V?$allocator@U?$pair@QAXPAX@std@@@2@$0A@@std@@@std@@IAEXPAU_Node@?$_Tree_nod@V?$_Tmap_traits@PAXPAXU?$less@PAX@std@@V?$allocator@U?$pair@QAXPAX@std@@@2@$0A@@std@@@2@@Z 00425380 f i libohNetCore:Stack.obj
 0001:000244a0       ?_Orphan_ptr@?$_Tree@V?$_Tmap_traits@PAXPAXU?$less@PAX@std@@V?$allocator@U?$pair@QAXPAX@std@@@2@$0A@@std@@@std@@IBEXAAV12@PAU_Node@?$_Tree_nod@V?$_Tmap_traits@PAXPAXU?$less@PAX@std@@V?$allocator@U?$pair@QAXPAX@std@@@2@$0A@@std@@@2@@Z 004254a0 f i libohNetCore:Stack.obj
 0001:000245b0       ?_Tidy@?$_Tree@V?$_Tmap_traits@PAXPAXU?$less@PAX@std@@V?$allocator@U?$pair@QAXPAX@std@@@2@$0A@@std@@@std@@IAEXXZ 004255b0 f i libohNetCore:Stack.obj
 0001:000246b0       ??1?$_Tree_val@V?$_Tmap_traits@PAXPAXU?$less@PAX@std@@V?$allocator@U?$pair@QAXPAX@std@@@2@$0A@@std@@@std@@QAE@XZ 004256b0 f i libohNetCore:Stack.obj
 0001:00024720       ?_Color@?$_Tree_val@V?$_Tmap_traits@PAXPAXU?$less@PAX@std@@V?$allocator@U?$pair@QAXPAX@std@@@2@$0A@@std@@@std@@SGAADPAU_Node@?$_Tree_nod@V?$_Tmap_traits@PAXPAXU?$less@PAX@std@@V?$allocator@U?$pair@QAXPAX@std@@@2@$0A@@std@@@2@@Z 00425720 f i libohNetCore:Stack.obj
 0001:00024730       ?_Isnil@?$_Tree_val@V?$_Tmap_traits@PAXPAXU?$less@PAX@std@@V?$allocator@U?$pair@QAXPAX@std@@@2@$0A@@std@@@std@@SGAADPAU_Node@?$_Tree_nod@V?$_Tmap_traits@PAXPAXU?$less@PAX@std@@V?$allocator@U?$pair@QAXPAX@std@@@2@$0A@@std@@@2@@Z 00425730 f i libohNetCore:Stack.obj
 0001:00024740       ?_Key@?$_Tree_val@V?$_Tmap_traits@PAXPAXU?$less@PAX@std@@V?$allocator@U?$pair@QAXPAX@std@@@2@$0A@@std@@@std@@SGAAPAXPAU_Node@?$_Tree_nod@V?$_Tmap_traits@PAXPAXU?$less@PAX@std@@V?$allocator@U?$pair@QAXPAX@std@@@2@$0A@@std@@@2@@Z 00425740 f i libohNetCore:Stack.obj
 0001:00024760       ?_Left@?$_Tree_val@V?$_Tmap_traits@PAXPAXU?$less@PAX@std@@V?$allocator@U?$pair@QAXPAX@std@@@2@$0A@@std@@@std@@SGAAPAU_Node@?$_Tree_nod@V?$_Tmap_traits@PAXPAXU?$less@PAX@std@@V?$allocator@U?$pair@QAXPAX@std@@@2@$0A@@std@@@2@PAU342@@Z 00425760 f i libohNetCore:Stack.obj
 0001:00024770       ?_Parent@?$_Tree_val@V?$_Tmap_traits@PAXPAXU?$less@PAX@std@@V?$allocator@U?$pair@QAXPAX@std@@@2@$0A@@std@@@std@@SGAAPAU_Node@?$_Tree_nod@V?$_Tmap_traits@PAXPAXU?$less@PAX@std@@V?$allocator@U?$pair@QAXPAX@std@@@2@$0A@@std@@@2@PAU342@@Z 00425770 f i libohNetCore:Stack.obj
 0001:00024780       ?_Right@?$_Tree_val@V?$_Tmap_traits@PAXPAXU?$less@PAX@std@@V?$allocator@U?$pair@QAXPAX@std@@@2@$0A@@std@@@std@@SGAAPAU_Node@?$_Tree_nod@V?$_Tmap_traits@PAXPAXU?$less@PAX@std@@V?$allocator@U?$pair@QAXPAX@std@@@2@$0A@@std@@@2@PAU342@@Z 00425780 f i libohNetCore:Stack.obj
 0001:00024790       ?_Myval@?$_Tree_val@V?$_Tmap_traits@PAXPAXU?$less@PAX@std@@V?$allocator@U?$pair@QAXPAX@std@@@2@$0A@@std@@@std@@SGAAU?$pair@QAXPAX@2@PAU_Node@?$_Tree_nod@V?$_Tmap_traits@PAXPAXU?$less@PAX@std@@V?$allocator@U?$pair@QAXPAX@std@@@2@$0A@@std@@@2@@Z 00425790 f i libohNetCore:Stack.obj
 0001:000247a0       ?_Max@?$_Tree_val@V?$_Tmap_traits@PAXPAXU?$less@PAX@std@@V?$allocator@U?$pair@QAXPAX@std@@@2@$0A@@std@@@std@@SGPAU_Node@?$_Tree_nod@V?$_Tmap_traits@PAXPAXU?$less@PAX@std@@V?$allocator@U?$pair@QAXPAX@std@@@2@$0A@@std@@@2@PAU342@@Z 004257a0 f i libohNetCore:Stack.obj
 0001:000247e0       ?_Min@?$_Tree_val@V?$_Tmap_traits@PAXPAXU?$less@PAX@std@@V?$allocator@U?$pair@QAXPAX@std@@@2@$0A@@std@@@std@@SGPAU_Node@?$_Tree_nod@V?$_Tmap_traits@PAXPAXU?$less@PAX@std@@V?$allocator@U?$pair@QAXPAX@std@@@2@$0A@@std@@@2@PAU342@@Z 004257e0 f i libohNetCore:Stack.obj
 0001:00024820       ??0?$allocator@U?$pair@QAXPAX@std@@@std@@QAE@XZ 00425820 f i libohNetCore:Stack.obj
 0001:00024840       ?deallocate@?$allocator@U_Node@?$_Tree_nod@V?$_Tmap_traits@PAXPAXU?$less@PAX@std@@V?$allocator@U?$pair@QAXPAX@std@@@2@$0A@@std@@@std@@@std@@QAEXPAU_Node@?$_Tree_nod@V?$_Tmap_traits@PAXPAXU?$less@PAX@std@@V?$allocator@U?$pair@QAXPAX@std@@@2@$0A@@std@@@2@I@Z 00425840 f i libohNetCore:Stack.obj
 0001:00024870       ?_Make_iter@?$vector@PAVMListener@Stack@Net@OpenHome@@V?$allocator@PAVMListener@Stack@Net@OpenHome@@@std@@@std@@QBE?AV?$_Vector_iterator@V?$_Vector_val@PAVMListener@Stack@Net@OpenHome@@V?$allocator@PAVMListener@Stack@Net@OpenHome@@@std@@@std@@@2@V?$_Vector_const_iterator@V?$_Vector_val@PAVMListener@Stack@Net@OpenHome@@V?$allocator@PAVMListener@Stack@Net@OpenHome@@@std@@@std@@@2@@Z 00425870 f i libohNetCore:Stack.obj
 0001:00024900       ?_Destroy@?$vector@PAVMListener@Stack@Net@OpenHome@@V?$allocator@PAVMListener@Stack@Net@OpenHome@@@std@@@std@@IAEXPAPAVMListener@Stack@Net@OpenHome@@0@Z 00425900 f i libohNetCore:Stack.obj
 0001:00024940       ?_Inside@?$vector@PAVMListener@Stack@Net@OpenHome@@V?$allocator@PAVMListener@Stack@Net@OpenHome@@@std@@@std@@IBE_NPBQAVMListener@Stack@Net@OpenHome@@@Z 00425940 f i libohNetCore:Stack.obj
 0001:00024990       ?_Reserve@?$vector@PAVMListener@Stack@Net@OpenHome@@V?$allocator@PAVMListener@Stack@Net@OpenHome@@@std@@@std@@IAEXI@Z 00425990 f i libohNetCore:Stack.obj
 0001:00024a10       ?_Tidy@?$vector@PAVMListener@Stack@Net@OpenHome@@V?$allocator@PAVMListener@Stack@Net@OpenHome@@@std@@@std@@IAEXXZ 00425a10 f i libohNetCore:Stack.obj
 0001:00024aa0       ?_Orphan_range@?$vector@PAVMListener@Stack@Net@OpenHome@@V?$allocator@PAVMListener@Stack@Net@OpenHome@@@std@@@std@@IBEXPAPAVMListener@Stack@Net@OpenHome@@0@Z 00425aa0 f i libohNetCore:Stack.obj
 0001:00024bb0       ??0?$_Vector_val@PAVMListener@Stack@Net@OpenHome@@V?$allocator@PAVMListener@Stack@Net@OpenHome@@@std@@@std@@QAE@V?$allocator@PAVMListener@Stack@Net@OpenHome@@@1@@Z 00425bb0 f i libohNetCore:Stack.obj
 0001:00024cd0       ??1?$_Vector_val@PAVMListener@Stack@Net@OpenHome@@V?$allocator@PAVMListener@Stack@Net@OpenHome@@@std@@@std@@QAE@XZ 00425cd0 f i libohNetCore:Stack.obj
 0001:00024db0       ??0?$allocator@PAVMListener@Stack@Net@OpenHome@@@std@@QAE@XZ 00425db0 f i libohNetCore:Stack.obj
 0001:00024dd0       ??0?$_Tree@V?$_Tmap_traits@VBrn@OpenHome@@PAVObjectType@Stack@Net@2@VBufferCmp@2@V?$allocator@U?$pair@$$CBVBrn@OpenHome@@PAVObjectType@Stack@Net@2@@std@@@std@@$0A@@std@@@std@@QAE@ABVBufferCmp@OpenHome@@ABV?$allocator@U?$pair@$$CBVBrn@OpenHome@@PAVObjectType@Stack@Net@2@@std@@@1@@Z 00425dd0 f i libohNetCore:Stack.obj
 0001:00024e20       ?lower_bound@?$_Tree@V?$_Tmap_traits@VBrn@OpenHome@@PAVObjectType@Stack@Net@2@VBufferCmp@2@V?$allocator@U?$pair@$$CBVBrn@OpenHome@@PAVObjectType@Stack@Net@2@@std@@@std@@$0A@@std@@@std@@QAE?AV?$_Tree_iterator@V?$_Tree_val@V?$_Tmap_traits@VBrn@OpenHome@@PAVObjectType@Stack@Net@2@VBufferCmp@2@V?$allocator@U?$pair@$$CBVBrn@OpenHome@@PAVObjectType@Stack@Net@2@@std@@@std@@$0A@@std@@@std@@@2@ABVBrn@OpenHome@@@Z 00425e20 f i libohNetCore:Stack.obj
 0001:00024e80       ?_Lmost@?$_Tree@V?$_Tmap_traits@VBrn@OpenHome@@PAVObjectType@Stack@Net@2@VBufferCmp@2@V?$allocator@U?$pair@$$CBVBrn@OpenHome@@PAVObjectType@Stack@Net@2@@std@@@std@@$0A@@std@@@std@@IBEAAPAU_Node@?$_Tree_nod@V?$_Tmap_traits@VBrn@OpenHome@@PAVObjectType@Stack@Net@2@VBufferCmp@2@V?$allocator@U?$pair@$$CBVBrn@OpenHome@@PAVObjectType@Stack@Net@2@@std@@@std@@$0A@@std@@@2@XZ 00425e80 f i libohNetCore:Stack.obj
 0001:00024eb0       ?_Lrotate@?$_Tree@V?$_Tmap_traits@VBrn@OpenHome@@PAVObjectType@Stack@Net@2@VBufferCmp@2@V?$allocator@U?$pair@$$CBVBrn@OpenHome@@PAVObjectType@Stack@Net@2@@std@@@std@@$0A@@std@@@std@@IAEXPAU_Node@?$_Tree_nod@V?$_Tmap_traits@VBrn@OpenHome@@PAVObjectType@Stack@Net@2@VBufferCmp@2@V?$allocator@U?$pair@$$CBVBrn@OpenHome@@PAVObjectType@Stack@Net@2@@std@@@std@@$0A@@std@@@2@@Z 00425eb0 f i libohNetCore:Stack.obj
 0001:00024fd0       ?_Rmost@?$_Tree@V?$_Tmap_traits@VBrn@OpenHome@@PAVObjectType@Stack@Net@2@VBufferCmp@2@V?$allocator@U?$pair@$$CBVBrn@OpenHome@@PAVObjectType@Stack@Net@2@@std@@@std@@$0A@@std@@@std@@IBEAAPAU_Node@?$_Tree_nod@V?$_Tmap_traits@VBrn@OpenHome@@PAVObjectType@Stack@Net@2@VBufferCmp@2@V?$allocator@U?$pair@$$CBVBrn@OpenHome@@PAVObjectType@Stack@Net@2@@std@@@std@@$0A@@std@@@2@XZ 00425fd0 f i libohNetCore:Stack.obj
 0001:00025000       ?_Root@?$_Tree@V?$_Tmap_traits@VBrn@OpenHome@@PAVObjectType@Stack@Net@2@VBufferCmp@2@V?$allocator@U?$pair@$$CBVBrn@OpenHome@@PAVObjectType@Stack@Net@2@@std@@@std@@$0A@@std@@@std@@IBEAAPAU_Node@?$_Tree_nod@V?$_Tmap_traits@VBrn@OpenHome@@PAVObjectType@Stack@Net@2@VBufferCmp@2@V?$allocator@U?$pair@$$CBVBrn@OpenHome@@PAVObjectType@Stack@Net@2@@std@@@std@@$0A@@std@@@2@XZ 00426000 f i libohNetCore:Stack.obj
 0001:00025030       ?_Rrotate@?$_Tree@V?$_Tmap_traits@VBrn@OpenHome@@PAVObjectType@Stack@Net@2@VBufferCmp@2@V?$allocator@U?$pair@$$CBVBrn@OpenHome@@PAVObjectType@Stack@Net@2@@std@@@std@@$0A@@std@@@std@@IAEXPAU_Node@?$_Tree_nod@V?$_Tmap_traits@VBrn@OpenHome@@PAVObjectType@Stack@Net@2@VBufferCmp@2@V?$allocator@U?$pair@$$CBVBrn@OpenHome@@PAVObjectType@Stack@Net@2@@std@@@std@@$0A@@std@@@2@@Z 00426030 f i libohNetCore:Stack.obj
 0001:00025150       ?_Orphan_ptr@?$_Tree@V?$_Tmap_traits@VBrn@OpenHome@@PAVObjectType@Stack@Net@2@VBufferCmp@2@V?$allocator@U?$pair@$$CBVBrn@OpenHome@@PAVObjectType@Stack@Net@2@@std@@@std@@$0A@@std@@@std@@IBEXAAV12@PAU_Node@?$_Tree_nod@V?$_Tmap_traits@VBrn@OpenHome@@PAVObjectType@Stack@Net@2@VBufferCmp@2@V?$allocator@U?$pair@$$CBVBrn@OpenHome@@PAVObjectType@Stack@Net@2@@std@@@std@@$0A@@std@@@2@@Z 00426150 f i libohNetCore:Stack.obj
 0001:00025260       ?_Tidy@?$_Tree@V?$_Tmap_traits@VBrn@OpenHome@@PAVObjectType@Stack@Net@2@VBufferCmp@2@V?$allocator@U?$pair@$$CBVBrn@OpenHome@@PAVObjectType@Stack@Net@2@@std@@@std@@$0A@@std@@@std@@IAEXXZ 00426260 f i libohNetCore:Stack.obj
 0001:00025360       ??1?$_Tree_val@V?$_Tmap_traits@VBrn@OpenHome@@PAVObjectType@Stack@Net@2@VBufferCmp@2@V?$allocator@U?$pair@$$CBVBrn@OpenHome@@PAVObjectType@Stack@Net@2@@std@@@std@@$0A@@std@@@std@@QAE@XZ 00426360 f i libohNetCore:Stack.obj
 0001:000253d0       ?_Color@?$_Tree_val@V?$_Tmap_traits@VBrn@OpenHome@@PAVObjectType@Stack@Net@2@VBufferCmp@2@V?$allocator@U?$pair@$$CBVBrn@OpenHome@@PAVObjectType@Stack@Net@2@@std@@@std@@$0A@@std@@@std@@SGAADPAU_Node@?$_Tree_nod@V?$_Tmap_traits@VBrn@OpenHome@@PAVObjectType@Stack@Net@2@VBufferCmp@2@V?$allocator@U?$pair@$$CBVBrn@OpenHome@@PAVObjectType@Stack@Net@2@@std@@@std@@$0A@@std@@@2@@Z 004263d0 f i libohNetCore:Stack.obj
 0001:000253e0       ?_Isnil@?$_Tree_val@V?$_Tmap_traits@VBrn@OpenHome@@PAVObjectType@Stack@Net@2@VBufferCmp@2@V?$allocator@U?$pair@$$CBVBrn@OpenHome@@PAVObjectType@Stack@Net@2@@std@@@std@@$0A@@std@@@std@@SGAADPAU_Node@?$_Tree_nod@V?$_Tmap_traits@VBrn@OpenHome@@PAVObjectType@Stack@Net@2@VBufferCmp@2@V?$allocator@U?$pair@$$CBVBrn@OpenHome@@PAVObjectType@Stack@Net@2@@std@@@std@@$0A@@std@@@2@@Z 004263e0 f i libohNetCore:Stack.obj
 0001:000253f0       ?_Key@?$_Tree_val@V?$_Tmap_traits@VBrn@OpenHome@@PAVObjectType@Stack@Net@2@VBufferCmp@2@V?$allocator@U?$pair@$$CBVBrn@OpenHome@@PAVObjectType@Stack@Net@2@@std@@@std@@$0A@@std@@@std@@SGAAVBrn@OpenHome@@PAU_Node@?$_Tree_nod@V?$_Tmap_traits@VBrn@OpenHome@@PAVObjectType@Stack@Net@2@VBufferCmp@2@V?$allocator@U?$pair@$$CBVBrn@OpenHome@@PAVObjectType@Stack@Net@2@@std@@@std@@$0A@@std@@@2@@Z 004263f0 f i libohNetCore:Stack.obj
 0001:00025410       ?_Left@?$_Tree_val@V?$_Tmap_traits@VBrn@OpenHome@@PAVObjectType@Stack@Net@2@VBufferCmp@2@V?$allocator@U?$pair@$$CBVBrn@OpenHome@@PAVObjectType@Stack@Net@2@@std@@@std@@$0A@@std@@@std@@SGAAPAU_Node@?$_Tree_nod@V?$_Tmap_traits@VBrn@OpenHome@@PAVObjectType@Stack@Net@2@VBufferCmp@2@V?$allocator@U?$pair@$$CBVBrn@OpenHome@@PAVObjectType@Stack@Net@2@@std@@@std@@$0A@@std@@@2@PAU342@@Z 00426410 f i libohNetCore:Stack.obj
 0001:00025420       ?_Parent@?$_Tree_val@V?$_Tmap_traits@VBrn@OpenHome@@PAVObjectType@Stack@Net@2@VBufferCmp@2@V?$allocator@U?$pair@$$CBVBrn@OpenHome@@PAVObjectType@Stack@Net@2@@std@@@std@@$0A@@std@@@std@@SGAAPAU_Node@?$_Tree_nod@V?$_Tmap_traits@VBrn@OpenHome@@PAVObjectType@Stack@Net@2@VBufferCmp@2@V?$allocator@U?$pair@$$CBVBrn@OpenHome@@PAVObjectType@Stack@Net@2@@std@@@std@@$0A@@std@@@2@PAU342@@Z 00426420 f i libohNetCore:Stack.obj
 0001:00025430       ?_Right@?$_Tree_val@V?$_Tmap_traits@VBrn@OpenHome@@PAVObjectType@Stack@Net@2@VBufferCmp@2@V?$allocator@U?$pair@$$CBVBrn@OpenHome@@PAVObjectType@Stack@Net@2@@std@@@std@@$0A@@std@@@std@@SGAAPAU_Node@?$_Tree_nod@V?$_Tmap_traits@VBrn@OpenHome@@PAVObjectType@Stack@Net@2@VBufferCmp@2@V?$allocator@U?$pair@$$CBVBrn@OpenHome@@PAVObjectType@Stack@Net@2@@std@@@std@@$0A@@std@@@2@PAU342@@Z 00426430 f i libohNetCore:Stack.obj
 0001:00025440       ?_Myval@?$_Tree_val@V?$_Tmap_traits@VBrn@OpenHome@@PAVObjectType@Stack@Net@2@VBufferCmp@2@V?$allocator@U?$pair@$$CBVBrn@OpenHome@@PAVObjectType@Stack@Net@2@@std@@@std@@$0A@@std@@@std@@SGAAU?$pair@$$CBVBrn@OpenHome@@PAVObjectType@Stack@Net@2@@2@PAU_Node@?$_Tree_nod@V?$_Tmap_traits@VBrn@OpenHome@@PAVObjectType@Stack@Net@2@VBufferCmp@2@V?$allocator@U?$pair@$$CBVBrn@OpenHome@@PAVObjectType@Stack@Net@2@@std@@@std@@$0A@@std@@@2@@Z 00426440 f i libohNetCore:Stack.obj
 0001:00025450       ?_Max@?$_Tree_val@V?$_Tmap_traits@VBrn@OpenHome@@PAVObjectType@Stack@Net@2@VBufferCmp@2@V?$allocator@U?$pair@$$CBVBrn@OpenHome@@PAVObjectType@Stack@Net@2@@std@@@std@@$0A@@std@@@std@@SGPAU_Node@?$_Tree_nod@V?$_Tmap_traits@VBrn@OpenHome@@PAVObjectType@Stack@Net@2@VBufferCmp@2@V?$allocator@U?$pair@$$CBVBrn@OpenHome@@PAVObjectType@Stack@Net@2@@std@@@std@@$0A@@std@@@2@PAU342@@Z 00426450 f i libohNetCore:Stack.obj
 0001:00025490       ?_Min@?$_Tree_val@V?$_Tmap_traits@VBrn@OpenHome@@PAVObjectType@Stack@Net@2@VBufferCmp@2@V?$allocator@U?$pair@$$CBVBrn@OpenHome@@PAVObjectType@Stack@Net@2@@std@@@std@@$0A@@std@@@std@@SGPAU_Node@?$_Tree_nod@V?$_Tmap_traits@VBrn@OpenHome@@PAVObjectType@Stack@Net@2@VBufferCmp@2@V?$allocator@U?$pair@$$CBVBrn@OpenHome@@PAVObjectType@Stack@Net@2@@std@@@std@@$0A@@std@@@2@PAU342@@Z 00426490 f i libohNetCore:Stack.obj
 0001:000254d0       ??0?$allocator@U?$pair@$$CBVBrn@OpenHome@@PAVObjectType@Stack@Net@2@@std@@@std@@QAE@XZ 004264d0 f i libohNetCore:Stack.obj
 0001:000254f0       ?deallocate@?$allocator@U_Node@?$_Tree_nod@V?$_Tmap_traits@VBrn@OpenHome@@PAVObjectType@Stack@Net@2@VBufferCmp@2@V?$allocator@U?$pair@$$CBVBrn@OpenHome@@PAVObjectType@Stack@Net@2@@std@@@std@@$0A@@std@@@std@@@std@@QAEXPAU_Node@?$_Tree_nod@V?$_Tmap_traits@VBrn@OpenHome@@PAVObjectType@Stack@Net@2@VBufferCmp@2@V?$allocator@U?$pair@$$CBVBrn@OpenHome@@PAVObjectType@Stack@Net@2@@std@@@std@@$0A@@std@@@2@I@Z 004264f0 f i libohNetCore:Stack.obj
 0001:00025520       ??0?$_Vector_iterator@V?$_Vector_val@PAVMListener@Stack@Net@OpenHome@@V?$allocator@PAVMListener@Stack@Net@OpenHome@@@std@@@std@@@std@@QAE@PAPAVMListener@Stack@Net@OpenHome@@PBU_Container_base12@1@@Z 00426520 f i libohNetCore:Stack.obj
 0001:00025560       ??Y?$_Vector_iterator@V?$_Vector_val@PAVMListener@Stack@Net@OpenHome@@V?$allocator@PAVMListener@Stack@Net@OpenHome@@@std@@@std@@@std@@QAEAAV01@H@Z 00426560 f i libohNetCore:Stack.obj
 0001:00025590       ??0?$_Tree_iterator@V?$_Tree_val@V?$_Tmap_traits@VBrn@OpenHome@@PAVObjectType@Stack@Net@2@VBufferCmp@2@V?$allocator@U?$pair@$$CBVBrn@OpenHome@@PAVObjectType@Stack@Net@2@@std@@@std@@$0A@@std@@@std@@@std@@QAE@PAU_Node@?$_Tree_nod@V?$_Tmap_traits@VBrn@OpenHome@@PAVObjectType@Stack@Net@2@VBufferCmp@2@V?$allocator@U?$pair@$$CBVBrn@OpenHome@@PAVObjectType@Stack@Net@2@@std@@@std@@$0A@@std@@@1@PBV?$_Tree_val@V?$_Tmap_traits@VBrn@OpenHome@@PAVObjectType@Stack@Net@2@VBufferCmp@2@V?$allocator@U?$pair@$$CBVBrn@OpenHome@@PAVObjectType@Stack@Net@2@@std@@@std@@$0A@@std@@@1@@Z 00426590 f i libohNetCore:Stack.obj
 0001:000255d0       ??D?$_Tree_iterator@V?$_Tree_val@V?$_Tmap_traits@VBrn@OpenHome@@PAVObjectType@Stack@Net@2@VBufferCmp@2@V?$allocator@U?$pair@$$CBVBrn@OpenHome@@PAVObjectType@Stack@Net@2@@std@@@std@@$0A@@std@@@std@@@std@@QBEAAU?$pair@$$CBVBrn@OpenHome@@PAVObjectType@Stack@Net@2@@1@XZ 004265d0 f i libohNetCore:Stack.obj
 0001:00025600       ??E?$_Tree_iterator@V?$_Tree_val@V?$_Tmap_traits@VBrn@OpenHome@@PAVObjectType@Stack@Net@2@VBufferCmp@2@V?$allocator@U?$pair@$$CBVBrn@OpenHome@@PAVObjectType@Stack@Net@2@@std@@@std@@$0A@@std@@@std@@@std@@QAEAAV01@XZ 00426600 f i libohNetCore:Stack.obj
 0001:00025630       ??E?$_Tree_const_iterator@V?$_Tree_val@V?$_Tmap_traits@VBrn@OpenHome@@PAVObjectType@Stack@Net@2@VBufferCmp@2@V?$allocator@U?$pair@$$CBVBrn@OpenHome@@PAVObjectType@Stack@Net@2@@std@@@std@@$0A@@std@@@std@@@std@@QAEAAV01@XZ 00426630 f i libohNetCore:Stack.obj
 0001:000256f0       ??8?$_Tree_const_iterator@V?$_Tree_val@V?$_Tmap_traits@VBrn@OpenHome@@PAVObjectType@Stack@Net@2@VBufferCmp@2@V?$allocator@U?$pair@$$CBVBrn@OpenHome@@PAVObjectType@Stack@Net@2@@std@@@std@@$0A@@std@@@std@@@std@@QBE_NABV01@@Z 004266f0 f i libohNetCore:Stack.obj
 0001:000257b0       ?_Mynode@?$_Tree_unchecked_const_iterator@V?$_Tree_val@V?$_Tmap_traits@VBrn@OpenHome@@PAVObjectType@Stack@Net@2@VBufferCmp@2@V?$allocator@U?$pair@$$CBVBrn@OpenHome@@PAVObjectType@Stack@Net@2@@std@@@std@@$0A@@std@@@std@@U_Iterator_base12@2@@std@@QBEPAU_Node@?$_Tree_nod@V?$_Tmap_traits@VBrn@OpenHome@@PAVObjectType@Stack@Net@2@VBufferCmp@2@V?$allocator@U?$pair@$$CBVBrn@OpenHome@@PAVObjectType@Stack@Net@2@@std@@@std@@$0A@@std@@@2@XZ 004267b0 f i libohNetCore:Stack.obj
 0001:000257d0       ??0?$_Tree_iterator@V?$_Tree_val@V?$_Tmap_traits@PAXPAXU?$less@PAX@std@@V?$allocator@U?$pair@QAXPAX@std@@@2@$0A@@std@@@std@@@std@@QAE@PAU_Node@?$_Tree_nod@V?$_Tmap_traits@PAXPAXU?$less@PAX@std@@V?$allocator@U?$pair@QAXPAX@std@@@2@$0A@@std@@@1@PBV?$_Tree_val@V?$_Tmap_traits@PAXPAXU?$less@PAX@std@@V?$allocator@U?$pair@QAXPAX@std@@@2@$0A@@std@@@1@@Z 004267d0 f i libohNetCore:Stack.obj
 0001:00025810       ??D?$_Tree_iterator@V?$_Tree_val@V?$_Tmap_traits@PAXPAXU?$less@PAX@std@@V?$allocator@U?$pair@QAXPAX@std@@@2@$0A@@std@@@std@@@std@@QBEAAU?$pair@QAXPAX@1@XZ 00426810 f i libohNetCore:Stack.obj
 0001:00025840       ??E?$_Tree_iterator@V?$_Tree_val@V?$_Tmap_traits@PAXPAXU?$less@PAX@std@@V?$allocator@U?$pair@QAXPAX@std@@@2@$0A@@std@@@std@@@std@@QAEAAV01@XZ 00426840 f i libohNetCore:Stack.obj
 0001:00025870       ??E?$_Tree_const_iterator@V?$_Tree_val@V?$_Tmap_traits@PAXPAXU?$less@PAX@std@@V?$allocator@U?$pair@QAXPAX@std@@@2@$0A@@std@@@std@@@std@@QAEAAV01@XZ 00426870 f i libohNetCore:Stack.obj
 0001:00025930       ??8?$_Tree_const_iterator@V?$_Tree_val@V?$_Tmap_traits@PAXPAXU?$less@PAX@std@@V?$allocator@U?$pair@QAXPAX@std@@@2@$0A@@std@@@std@@@std@@QBE_NABV01@@Z 00426930 f i libohNetCore:Stack.obj
 0001:000259f0       ?_Mynode@?$_Tree_unchecked_const_iterator@V?$_Tree_val@V?$_Tmap_traits@PAXPAXU?$less@PAX@std@@V?$allocator@U?$pair@QAXPAX@std@@@2@$0A@@std@@@std@@U_Iterator_base12@2@@std@@QBEPAU_Node@?$_Tree_nod@V?$_Tmap_traits@PAXPAXU?$less@PAX@std@@V?$allocator@U?$pair@QAXPAX@std@@@2@$0A@@std@@@2@XZ 004269f0 f i libohNetCore:Stack.obj
 0001:00025a10       ?erase@?$_Tree@V?$_Tmap_traits@PAXPAXU?$less@PAX@std@@V?$allocator@U?$pair@QAXPAX@std@@@2@$0A@@std@@@std@@QAE?AV?$_Tree_iterator@V?$_Tree_val@V?$_Tmap_traits@PAXPAXU?$less@PAX@std@@V?$allocator@U?$pair@QAXPAX@std@@@2@$0A@@std@@@std@@@2@V?$_Tree_const_iterator@V?$_Tree_val@V?$_Tmap_traits@PAXPAXU?$less@PAX@std@@V?$allocator@U?$pair@QAXPAX@std@@@2@$0A@@std@@@std@@@2@0@Z 00426a10 f i libohNetCore:Stack.obj
 0001:00025c10       ?_Lbound@?$_Tree@V?$_Tmap_traits@PAXPAXU?$less@PAX@std@@V?$allocator@U?$pair@QAXPAX@std@@@2@$0A@@std@@@std@@IAEPAU_Node@?$_Tree_nod@V?$_Tmap_traits@PAXPAXU?$less@PAX@std@@V?$allocator@U?$pair@QAXPAX@std@@@2@$0A@@std@@@2@ABQAX@Z 00426c10 f i libohNetCore:Stack.obj
 0001:00025cc0       ??0?$_Tree_val@V?$_Tmap_traits@PAXPAXU?$less@PAX@std@@V?$allocator@U?$pair@QAXPAX@std@@@2@$0A@@std@@@std@@QAE@ABU?$less@PAX@1@V?$allocator@U?$pair@QAXPAX@std@@@1@@Z 00426cc0 f i libohNetCore:Stack.obj
 0001:00025dc0       ??1?$_Tree_nod@V?$_Tmap_traits@PAXPAXU?$less@PAX@std@@V?$allocator@U?$pair@QAXPAX@std@@@2@$0A@@std@@@std@@QAE@XZ 00426dc0 f i libohNetCore:Stack.obj
 0001:00025ea0       ??0?$allocator@U?$pair@QAXPAX@std@@@std@@QAE@ABV01@@Z 00426ea0 f i libohNetCore:Stack.obj
 0001:00025ec0       ?reserve@?$vector@PAVMListener@Stack@Net@OpenHome@@V?$allocator@PAVMListener@Stack@Net@OpenHome@@@std@@@std@@QAEXI@Z 00426ec0 f i libohNetCore:Stack.obj
 0001:00026030       ?capacity@?$vector@PAVMListener@Stack@Net@OpenHome@@V?$allocator@PAVMListener@Stack@Net@OpenHome@@@std@@@std@@QBEIXZ 00427030 f i libohNetCore:Stack.obj
 0001:00026060       ?max_size@?$vector@PAVMListener@Stack@Net@OpenHome@@V?$allocator@PAVMListener@Stack@Net@OpenHome@@@std@@@std@@QBEIXZ 00427060 f i libohNetCore:Stack.obj
 0001:00026090       ?_Grow_to@?$vector@PAVMListener@Stack@Net@OpenHome@@V?$allocator@PAVMListener@Stack@Net@OpenHome@@@std@@@std@@IBEII@Z 00427090 f i libohNetCore:Stack.obj
 0001:00026110       ?_Xlen@?$vector@PAVMListener@Stack@Net@OpenHome@@V?$allocator@PAVMListener@Stack@Net@OpenHome@@@std@@@std@@IBEXXZ 00427110 f i libohNetCore:Stack.obj
 0001:00026140       ??0?$allocator@PAVMListener@Stack@Net@OpenHome@@@std@@QAE@ABV01@@Z 00427140 f i libohNetCore:Stack.obj
 0001:00026160       ?deallocate@?$allocator@PAVMListener@Stack@Net@OpenHome@@@std@@QAEXPAPAVMListener@Stack@Net@OpenHome@@I@Z 00427160 f i libohNetCore:Stack.obj
 0001:00026190       ?erase@?$_Tree@V?$_Tmap_traits@VBrn@OpenHome@@PAVObjectType@Stack@Net@2@VBufferCmp@2@V?$allocator@U?$pair@$$CBVBrn@OpenHome@@PAVObjectType@Stack@Net@2@@std@@@std@@$0A@@std@@@std@@QAE?AV?$_Tree_iterator@V?$_Tree_val@V?$_Tmap_traits@VBrn@OpenHome@@PAVObjectType@Stack@Net@2@VBufferCmp@2@V?$allocator@U?$pair@$$CBVBrn@OpenHome@@PAVObjectType@Stack@Net@2@@std@@@std@@$0A@@std@@@std@@@2@V?$_Tree_const_iterator@V?$_Tree_val@V?$_Tmap_traits@VBrn@OpenHome@@PAVObjectType@Stack@Net@2@VBufferCmp@2@V?$allocator@U?$pair@$$CBVBrn@OpenHome@@PAVObjectType@Stack@Net@2@@std@@@std@@$0A@@std@@@std@@@2@0@Z 00427190 f i libohNetCore:Stack.obj
 0001:00026390       ?_Lbound@?$_Tree@V?$_Tmap_traits@VBrn@OpenHome@@PAVObjectType@Stack@Net@2@VBufferCmp@2@V?$allocator@U?$pair@$$CBVBrn@OpenHome@@PAVObjectType@Stack@Net@2@@std@@@std@@$0A@@std@@@std@@IAEPAU_Node@?$_Tree_nod@V?$_Tmap_traits@VBrn@OpenHome@@PAVObjectType@Stack@Net@2@VBufferCmp@2@V?$allocator@U?$pair@$$CBVBrn@OpenHome@@PAVObjectType@Stack@Net@2@@std@@@std@@$0A@@std@@@2@ABVBrn@OpenHome@@@Z 00427390 f i libohNetCore:Stack.obj
 0001:00026440       ??0?$_Tree_val@V?$_Tmap_traits@VBrn@OpenHome@@PAVObjectType@Stack@Net@2@VBufferCmp@2@V?$allocator@U?$pair@$$CBVBrn@OpenHome@@PAVObjectType@Stack@Net@2@@std@@@std@@$0A@@std@@@std@@QAE@ABVBufferCmp@OpenHome@@V?$allocator@U?$pair@$$CBVBrn@OpenHome@@PAVObjectType@Stack@Net@2@@std@@@1@@Z 00427440 f i libohNetCore:Stack.obj
 0001:00026540       ??1?$_Tree_nod@V?$_Tmap_traits@VBrn@OpenHome@@PAVObjectType@Stack@Net@2@VBufferCmp@2@V?$allocator@U?$pair@$$CBVBrn@OpenHome@@PAVObjectType@Stack@Net@2@@std@@@std@@$0A@@std@@@std@@QAE@XZ 00427540 f i libohNetCore:Stack.obj
 0001:00026620       ??0?$allocator@U?$pair@$$CBVBrn@OpenHome@@PAVObjectType@Stack@Net@2@@std@@@std@@QAE@ABV01@@Z 00427620 f i libohNetCore:Stack.obj
 0001:00026640       ??0?$_Vector_const_iterator@V?$_Vector_val@PAVMListener@Stack@Net@OpenHome@@V?$allocator@PAVMListener@Stack@Net@OpenHome@@@std@@@std@@@std@@QAE@PAPAVMListener@Stack@Net@OpenHome@@PBU_Container_base12@1@@Z 00427640 f i libohNetCore:Stack.obj
 0001:000266c0       ??Y?$_Vector_const_iterator@V?$_Vector_val@PAVMListener@Stack@Net@OpenHome@@V?$allocator@PAVMListener@Stack@Net@OpenHome@@@std@@@std@@@std@@QAEAAV01@H@Z 004276c0 f i libohNetCore:Stack.obj
 0001:000267a0       ??0?$_Tree_const_iterator@V?$_Tree_val@V?$_Tmap_traits@VBrn@OpenHome@@PAVObjectType@Stack@Net@2@VBufferCmp@2@V?$allocator@U?$pair@$$CBVBrn@OpenHome@@PAVObjectType@Stack@Net@2@@std@@@std@@$0A@@std@@@std@@@std@@QAE@PAU_Node@?$_Tree_nod@V?$_Tmap_traits@VBrn@OpenHome@@PAVObjectType@Stack@Net@2@VBufferCmp@2@V?$allocator@U?$pair@$$CBVBrn@OpenHome@@PAVObjectType@Stack@Net@2@@std@@@std@@$0A@@std@@@1@PBV?$_Tree_val@V?$_Tmap_traits@VBrn@OpenHome@@PAVObjectType@Stack@Net@2@VBufferCmp@2@V?$allocator@U?$pair@$$CBVBrn@OpenHome@@PAVObjectType@Stack@Net@2@@std@@@std@@$0A@@std@@@1@@Z 004277a0 f i libohNetCore:Stack.obj
 0001:000267e0       ??D?$_Tree_const_iterator@V?$_Tree_val@V?$_Tmap_traits@VBrn@OpenHome@@PAVObjectType@Stack@Net@2@VBufferCmp@2@V?$allocator@U?$pair@$$CBVBrn@OpenHome@@PAVObjectType@Stack@Net@2@@std@@@std@@$0A@@std@@@std@@@std@@QBEABU?$pair@$$CBVBrn@OpenHome@@PAVObjectType@Stack@Net@2@@1@XZ 004277e0 f i libohNetCore:Stack.obj
 0001:000268a0       ??E?$_Tree_unchecked_const_iterator@V?$_Tree_val@V?$_Tmap_traits@VBrn@OpenHome@@PAVObjectType@Stack@Net@2@VBufferCmp@2@V?$allocator@U?$pair@$$CBVBrn@OpenHome@@PAVObjectType@Stack@Net@2@@std@@@std@@$0A@@std@@@std@@U_Iterator_base12@2@@std@@QAEAAV01@XZ 004278a0 f i libohNetCore:Stack.obj
 0001:00026960       ??0?$_Tree_const_iterator@V?$_Tree_val@V?$_Tmap_traits@PAXPAXU?$less@PAX@std@@V?$allocator@U?$pair@QAXPAX@std@@@2@$0A@@std@@@std@@@std@@QAE@PAU_Node@?$_Tree_nod@V?$_Tmap_traits@PAXPAXU?$less@PAX@std@@V?$allocator@U?$pair@QAXPAX@std@@@2@$0A@@std@@@1@PBV?$_Tree_val@V?$_Tmap_traits@PAXPAXU?$less@PAX@std@@V?$allocator@U?$pair@QAXPAX@std@@@2@$0A@@std@@@1@@Z 00427960 f i libohNetCore:Stack.obj
 0001:000269a0       ??D?$_Tree_const_iterator@V?$_Tree_val@V?$_Tmap_traits@PAXPAXU?$less@PAX@std@@V?$allocator@U?$pair@QAXPAX@std@@@2@$0A@@std@@@std@@@std@@QBEABU?$pair@QAXPAX@1@XZ 004279a0 f i libohNetCore:Stack.obj
 0001:00026a60       ??E?$_Tree_unchecked_const_iterator@V?$_Tree_val@V?$_Tmap_traits@PAXPAXU?$less@PAX@std@@V?$allocator@U?$pair@QAXPAX@std@@@2@$0A@@std@@@std@@U_Iterator_base12@2@@std@@QAEAAV01@XZ 00427a60 f i libohNetCore:Stack.obj
 0001:00026b20       ??1?$_Tmap_traits@PAXPAXU?$less@PAX@std@@V?$allocator@U?$pair@QAXPAX@std@@@2@$0A@@std@@QAE@XZ 00427b20 f i libohNetCore:Stack.obj
 0001:00026b50       ??1?$_Tmap_traits@VBrn@OpenHome@@PAVObjectType@Stack@Net@2@VBufferCmp@2@V?$allocator@U?$pair@$$CBVBrn@OpenHome@@PAVObjectType@Stack@Net@2@@std@@@std@@$0A@@std@@QAE@XZ 00427b50 f i libohNetCore:Stack.obj
 0001:00026b80       ??0?$_Iterator012@Urandom_access_iterator_tag@std@@PAVMListener@Stack@Net@OpenHome@@HPBQAV3456@ABQAV3456@U_Iterator_base12@2@@std@@QAE@XZ 00427b80 f i libohNetCore:Stack.obj
 0001:00026bb0       ?clear@?$_Tree@V?$_Tmap_traits@PAXPAXU?$less@PAX@std@@V?$allocator@U?$pair@QAXPAX@std@@@2@$0A@@std@@@std@@QAEXXZ 00427bb0 f i libohNetCore:Stack.obj
 0001:00026c30       ??0?$_Tree_nod@V?$_Tmap_traits@PAXPAXU?$less@PAX@std@@V?$allocator@U?$pair@QAXPAX@std@@@2@$0A@@std@@@std@@QAE@ABU?$less@PAX@1@V?$allocator@U?$pair@QAXPAX@std@@@1@@Z 00427c30 f i libohNetCore:Stack.obj
 0001:00026d40       ?allocate@?$allocator@U_Node@?$_Tree_nod@V?$_Tmap_traits@PAXPAXU?$less@PAX@std@@V?$allocator@U?$pair@QAXPAX@std@@@2@$0A@@std@@@std@@@std@@QAEPAU_Node@?$_Tree_nod@V?$_Tmap_traits@PAXPAXU?$less@PAX@std@@V?$allocator@U?$pair@QAXPAX@std@@@2@$0A@@std@@@2@I@Z 00427d40 f i libohNetCore:Stack.obj
 0001:00026d70       ?allocate@?$allocator@PAVMListener@Stack@Net@OpenHome@@@std@@QAEPAPAVMListener@Stack@Net@OpenHome@@I@Z 00427d70 f i libohNetCore:Stack.obj
 0001:00026da0       ?max_size@?$allocator@PAVMListener@Stack@Net@OpenHome@@@std@@QBEIXZ 00427da0 f i libohNetCore:Stack.obj
 0001:00026df0       ?clear@?$_Tree@V?$_Tmap_traits@VBrn@OpenHome@@PAVObjectType@Stack@Net@2@VBufferCmp@2@V?$allocator@U?$pair@$$CBVBrn@OpenHome@@PAVObjectType@Stack@Net@2@@std@@@std@@$0A@@std@@@std@@QAEXXZ 00427df0 f i libohNetCore:Stack.obj
 0001:00026e70       ??0?$_Tree_nod@V?$_Tmap_traits@VBrn@OpenHome@@PAVObjectType@Stack@Net@2@VBufferCmp@2@V?$allocator@U?$pair@$$CBVBrn@OpenHome@@PAVObjectType@Stack@Net@2@@std@@@std@@$0A@@std@@@std@@QAE@ABVBufferCmp@OpenHome@@V?$allocator@U?$pair@$$CBVBrn@OpenHome@@PAVObjectType@Stack@Net@2@@std@@@1@@Z 00427e70 f i libohNetCore:Stack.obj
 0001:00026f80       ?allocate@?$allocator@U_Node@?$_Tree_nod@V?$_Tmap_traits@VBrn@OpenHome@@PAVObjectType@Stack@Net@2@VBufferCmp@2@V?$allocator@U?$pair@$$CBVBrn@OpenHome@@PAVObjectType@Stack@Net@2@@std@@@std@@$0A@@std@@@std@@@std@@QAEPAU_Node@?$_Tree_nod@V?$_Tmap_traits@VBrn@OpenHome@@PAVObjectType@Stack@Net@2@VBufferCmp@2@V?$allocator@U?$pair@$$CBVBrn@OpenHome@@PAVObjectType@Stack@Net@2@@std@@@std@@$0A@@std@@@2@I@Z 00427f80 f i libohNetCore:Stack.obj
 0001:00026fb0       ??E?$_Tree_const_iterator@V?$_Tree_val@V?$_Tmap_traits@VBrn@OpenHome@@PAVObjectType@Stack@Net@2@VBufferCmp@2@V?$allocator@U?$pair@$$CBVBrn@OpenHome@@PAVObjectType@Stack@Net@2@@std@@@std@@$0A@@std@@@std@@@std@@QAE?AV01@H@Z 00427fb0 f i libohNetCore:Stack.obj
 0001:00027080       ??0?$_Tree_unchecked_const_iterator@V?$_Tree_val@V?$_Tmap_traits@VBrn@OpenHome@@PAVObjectType@Stack@Net@2@VBufferCmp@2@V?$allocator@U?$pair@$$CBVBrn@OpenHome@@PAVObjectType@Stack@Net@2@@std@@@std@@$0A@@std@@@std@@U_Iterator_base12@2@@std@@QAE@PAU_Node@?$_Tree_nod@V?$_Tmap_traits@VBrn@OpenHome@@PAVObjectType@Stack@Net@2@VBufferCmp@2@V?$allocator@U?$pair@$$CBVBrn@OpenHome@@PAVObjectType@Stack@Net@2@@std@@@std@@$0A@@std@@@1@PBV?$_Tree_val@V?$_Tmap_traits@VBrn@OpenHome@@PAVObjectType@Stack@Net@2@VBufferCmp@2@V?$allocator@U?$pair@$$CBVBrn@OpenHome@@PAVObjectType@Stack@Net@2@@std@@@std@@$0A@@std@@@1@@Z 00428080 f i libohNetCore:Stack.obj
 0001:00027100       ??E?$_Tree_const_iterator@V?$_Tree_val@V?$_Tmap_traits@PAXPAXU?$less@PAX@std@@V?$allocator@U?$pair@QAXPAX@std@@@2@$0A@@std@@@std@@@std@@QAE?AV01@H@Z 00428100 f i libohNetCore:Stack.obj
 0001:000271d0       ??0?$_Tree_unchecked_const_iterator@V?$_Tree_val@V?$_Tmap_traits@PAXPAXU?$less@PAX@std@@V?$allocator@U?$pair@QAXPAX@std@@@2@$0A@@std@@@std@@U_Iterator_base12@2@@std@@QAE@PAU_Node@?$_Tree_nod@V?$_Tmap_traits@PAXPAXU?$less@PAX@std@@V?$allocator@U?$pair@QAXPAX@std@@@2@$0A@@std@@@1@PBV?$_Tree_val@V?$_Tmap_traits@PAXPAXU?$less@PAX@std@@V?$allocator@U?$pair@QAXPAX@std@@@2@$0A@@std@@@1@@Z 004281d0 f i libohNetCore:Stack.obj
 0001:00027250       ??0?$_Iterator012@Ubidirectional_iterator_tag@std@@U?$pair@$$CBVBrn@OpenHome@@PAVObjectType@Stack@Net@2@@2@HPBU32@ABU32@U_Iterator_base12@2@@std@@QAE@XZ 00428250 f i libohNetCore:Stack.obj
 0001:00027280       ??0?$_Iterator012@Ubidirectional_iterator_tag@std@@U?$pair@QAXPAX@2@HPBU32@ABU32@U_Iterator_base12@2@@std@@QAE@XZ 00428280 f i libohNetCore:Stack.obj
 0001:000272b0       ?_Erase@?$_Tree@V?$_Tmap_traits@PAXPAXU?$less@PAX@std@@V?$allocator@U?$pair@QAXPAX@std@@@2@$0A@@std@@@std@@IAEXPAU_Node@?$_Tree_nod@V?$_Tmap_traits@PAXPAXU?$less@PAX@std@@V?$allocator@U?$pair@QAXPAX@std@@@2@$0A@@std@@@2@@Z 004282b0 f i libohNetCore:Stack.obj
 0001:00027350       ??0?$_Tmap_traits@PAXPAXU?$less@PAX@std@@V?$allocator@U?$pair@QAXPAX@std@@@2@$0A@@std@@QAE@U?$less@PAX@1@@Z 00428350 f i libohNetCore:Stack.obj
 0001:00027380       ?_Erase@?$_Tree@V?$_Tmap_traits@VBrn@OpenHome@@PAVObjectType@Stack@Net@2@VBufferCmp@2@V?$allocator@U?$pair@$$CBVBrn@OpenHome@@PAVObjectType@Stack@Net@2@@std@@@std@@$0A@@std@@@std@@IAEXPAU_Node@?$_Tree_nod@V?$_Tmap_traits@VBrn@OpenHome@@PAVObjectType@Stack@Net@2@VBufferCmp@2@V?$allocator@U?$pair@$$CBVBrn@OpenHome@@PAVObjectType@Stack@Net@2@@std@@@std@@$0A@@std@@@2@@Z 00428380 f i libohNetCore:Stack.obj
 0001:00027420       ??0?$_Tmap_traits@VBrn@OpenHome@@PAVObjectType@Stack@Net@2@VBufferCmp@2@V?$allocator@U?$pair@$$CBVBrn@OpenHome@@PAVObjectType@Stack@Net@2@@std@@@std@@$0A@@std@@QAE@VBufferCmp@OpenHome@@@Z 00428420 f i libohNetCore:Stack.obj
 0001:00027450       ??$?0AAVBrn@OpenHome@@AAPAVObjectType@Stack@Net@1@@?$pair@VBrn@OpenHome@@PAVObjectType@Stack@Net@2@@std@@QAE@AAVBrn@OpenHome@@AAPAVObjectType@Stack@Net@3@@Z 00428450 f i libohNetCore:Stack.obj
 0001:00027490       ??$insert@U?$pair@VBrn@OpenHome@@PAVObjectType@Stack@Net@2@@std@@@?$_Tree@V?$_Tmap_traits@VBrn@OpenHome@@PAVObjectType@Stack@Net@2@VBufferCmp@2@V?$allocator@U?$pair@$$CBVBrn@OpenHome@@PAVObjectType@Stack@Net@2@@std@@@std@@$0A@@std@@@std@@QAE?AU?$pair@V?$_Tree_iterator@V?$_Tree_val@V?$_Tmap_traits@VBrn@OpenHome@@PAVObjectType@Stack@Net@2@VBufferCmp@2@V?$allocator@U?$pair@$$CBVBrn@OpenHome@@PAVObjectType@Stack@Net@2@@std@@@std@@$0A@@std@@@std@@@std@@_N@1@$$QAU?$pair@VBrn@OpenHome@@PAVObjectType@Stack@Net@2@@1@@Z 00428490 f i libohNetCore:Stack.obj
 0001:000274f0       ??$?0AAPAXAAPAX@?$pair@PAXPAX@std@@QAE@AAPAX0@Z 004284f0 f i libohNetCore:Stack.obj
 0001:00027530       ??$insert@U?$pair@PAXPAX@std@@@?$_Tree@V?$_Tmap_traits@PAXPAXU?$less@PAX@std@@V?$allocator@U?$pair@QAXPAX@std@@@2@$0A@@std@@@std@@QAE?AU?$pair@V?$_Tree_iterator@V?$_Tree_val@V?$_Tmap_traits@PAXPAXU?$less@PAX@std@@V?$allocator@U?$pair@QAXPAX@std@@@2@$0A@@std@@@std@@@std@@_N@1@$$QAU?$pair@PAXPAX@1@@Z 00428530 f i libohNetCore:Stack.obj
 0001:00027590       ??$addressof@U?$pair@QAXPAX@std@@@std@@YGPAU?$pair@QAXPAX@0@AAU10@@Z 00428590 f i libohNetCore:Stack.obj
 0001:000275a0       ??$_Dest_val@V?$allocator@U?$pair@QAXPAX@std@@@std@@U?$pair@QAXPAX@2@@std@@YGXAAV?$allocator@U?$pair@QAXPAX@std@@@0@PAU?$pair@QAXPAX@0@@Z 004285a0 f i libohNetCore:Stack.obj
 0001:000275c0       ??$_Debug_lt_pred@U?$less@PAX@std@@PAXPAX@std@@YG_NU?$less@PAX@0@ABQAXAAPAXPB_WI@Z 004285c0 f i libohNetCore:Stack.obj
 0001:00027620       ??$addressof@QAVMListener@Stack@Net@OpenHome@@@std@@YGPBQAVMListener@Stack@Net@OpenHome@@ABQAV1234@@Z 00428620 f i libohNetCore:Stack.obj
 0001:00027630       ??$_Cons_val@V?$allocator@PAVMListener@Stack@Net@OpenHome@@@std@@PAVMListener@Stack@Net@OpenHome@@AAPAV3456@@std@@YGXAAV?$allocator@PAVMListener@Stack@Net@OpenHome@@@0@PAPAVMListener@Stack@Net@OpenHome@@AAPAV2345@@Z 00428630 f i libohNetCore:Stack.obj
 0001:00027660       ??$_Cons_val@V?$allocator@PAVMListener@Stack@Net@OpenHome@@@std@@PAVMListener@Stack@Net@OpenHome@@ABQAV3456@@std@@YGXAAV?$allocator@PAVMListener@Stack@Net@OpenHome@@@0@PAPAVMListener@Stack@Net@OpenHome@@ABQAV2345@@Z 00428660 f i libohNetCore:Stack.obj
 0001:00027690       ??$_Move@PAPAVMListener@Stack@Net@OpenHome@@PAPAV1234@@std@@YGPAPAVMListener@Stack@Net@OpenHome@@PAPAV1234@00@Z 00428690 f i libohNetCore:Stack.obj
 0001:000276e0       ??$addressof@U?$pair@$$CBVBrn@OpenHome@@PAVObjectType@Stack@Net@2@@std@@@std@@YGPAU?$pair@$$CBVBrn@OpenHome@@PAVObjectType@Stack@Net@2@@0@AAU10@@Z 004286e0 f i libohNetCore:Stack.obj
 0001:000276f0       ??$_Dest_val@V?$allocator@U?$pair@$$CBVBrn@OpenHome@@PAVObjectType@Stack@Net@2@@std@@@std@@U?$pair@$$CBVBrn@OpenHome@@PAVObjectType@Stack@Net@2@@2@@std@@YGXAAV?$allocator@U?$pair@$$CBVBrn@OpenHome@@PAVObjectType@Stack@Net@2@@std@@@0@PAU?$pair@$$CBVBrn@OpenHome@@PAVObjectType@Stack@Net@2@@0@@Z 004286f0 f i libohNetCore:Stack.obj
 0001:00027710       ??$_Debug_lt_pred@VBufferCmp@OpenHome@@VBrn@2@V32@@std@@YG_NVBufferCmp@OpenHome@@ABVBrn@2@AAV32@PB_WI@Z 00428710 f i libohNetCore:Stack.obj
 0001:00027770       ??$_Kfn@QAXPAX@?$_Tmap_traits@PAXPAXU?$less@PAX@std@@V?$allocator@U?$pair@QAXPAX@std@@@2@$0A@@std@@SGABQAXABU?$pair@QAXPAX@1@@Z 00428770 f i libohNetCore:Stack.obj
 0001:00027780       ??$_Destroy_range@V?$allocator@PAVMListener@Stack@Net@OpenHome@@@std@@@std@@YGXPAPAVMListener@Stack@Net@OpenHome@@0AAV?$allocator@PAVMListener@Stack@Net@OpenHome@@@0@@Z 00428780 f i libohNetCore:Stack.obj
 0001:000277d0       ??$?0PAVMListener@Stack@Net@OpenHome@@@?$allocator@U_Container_proxy@std@@@std@@QAE@ABV?$allocator@PAVMListener@Stack@Net@OpenHome@@@1@@Z 004287d0 f i libohNetCore:Stack.obj
 0001:000277f0       ??$_Kfn@$$CBVBrn@OpenHome@@PAVObjectType@Stack@Net@2@@?$_Tmap_traits@VBrn@OpenHome@@PAVObjectType@Stack@Net@2@VBufferCmp@2@V?$allocator@U?$pair@$$CBVBrn@OpenHome@@PAVObjectType@Stack@Net@2@@std@@@std@@$0A@@std@@SGABVBrn@OpenHome@@ABU?$pair@$$CBVBrn@OpenHome@@PAVObjectType@Stack@Net@2@@1@@Z 004287f0 f i libohNetCore:Stack.obj
 0001:00027800       ??$_Debug_lt_pred@U?$less@PAX@std@@PAXPAX@std@@YG_NU?$less@PAX@0@AAPAXABQAXPB_WI@Z 00428800 f i libohNetCore:Stack.obj
 0001:00027860       ??$?0U_Node@?$_Tree_nod@V?$_Tmap_traits@PAXPAXU?$less@PAX@std@@V?$allocator@U?$pair@QAXPAX@std@@@2@$0A@@std@@@std@@@?$allocator@U_Container_proxy@std@@@std@@QAE@ABV?$allocator@U_Node@?$_Tree_nod@V?$_Tmap_traits@PAXPAXU?$less@PAX@std@@V?$allocator@U?$pair@QAXPAX@std@@@2@$0A@@std@@@std@@@1@@Z 00428860 f i libohNetCore:Stack.obj
 0001:00027880       ??$_Umove@PAPAVMListener@Stack@Net@OpenHome@@@?$vector@PAVMListener@Stack@Net@OpenHome@@V?$allocator@PAVMListener@Stack@Net@OpenHome@@@std@@@std@@IAEPAPAVMListener@Stack@Net@OpenHome@@PAPAV2345@00@Z 00428880 f i libohNetCore:Stack.obj
 0001:000278c0       ??$_Debug_lt_pred@VBufferCmp@OpenHome@@VBrn@2@V32@@std@@YG_NVBufferCmp@OpenHome@@AAVBrn@2@ABV32@PB_WI@Z 004288c0 f i libohNetCore:Stack.obj
 0001:00027920       ??$?0U_Node@?$_Tree_nod@V?$_Tmap_traits@VBrn@OpenHome@@PAVObjectType@Stack@Net@2@VBufferCmp@2@V?$allocator@U?$pair@$$CBVBrn@OpenHome@@PAVObjectType@Stack@Net@2@@std@@@std@@$0A@@std@@@std@@@?$allocator@U_Container_proxy@std@@@std@@QAE@ABV?$allocator@U_Node@?$_Tree_nod@V?$_Tmap_traits@VBrn@OpenHome@@PAVObjectType@Stack@Net@2@VBufferCmp@2@V?$allocator@U?$pair@$$CBVBrn@OpenHome@@PAVObjectType@Stack@Net@2@@std@@@std@@$0A@@std@@@std@@@1@@Z 00428920 f i libohNetCore:Stack.obj
 0001:00027940       ??$?0U?$pair@QAXPAX@std@@@?$allocator@U_Node@?$_Tree_nod@V?$_Tmap_traits@PAXPAXU?$less@PAX@std@@V?$allocator@U?$pair@QAXPAX@std@@@2@$0A@@std@@@std@@@std@@QAE@ABV?$allocator@U?$pair@QAXPAX@std@@@1@@Z 00428940 f i libohNetCore:Stack.obj
 0001:00027960       ??$_Allocate@U_Node@?$_Tree_nod@V?$_Tmap_traits@PAXPAXU?$less@PAX@std@@V?$allocator@U?$pair@QAXPAX@std@@@2@$0A@@std@@@std@@@std@@YGPAU_Node@?$_Tree_nod@V?$_Tmap_traits@PAXPAXU?$less@PAX@std@@V?$allocator@U?$pair@QAXPAX@std@@@2@$0A@@std@@@0@IPAU120@@Z 00428960 f i libohNetCore:Stack.obj
 0001:000279e0       ??$_Allocate@PAVMListener@Stack@Net@OpenHome@@@std@@YGPAPAVMListener@Stack@Net@OpenHome@@IPAPAV1234@@Z 004289e0 f i libohNetCore:Stack.obj
 0001:00027a60       ??$?0U?$pair@$$CBVBrn@OpenHome@@PAVObjectType@Stack@Net@2@@std@@@?$allocator@U_Node@?$_Tree_nod@V?$_Tmap_traits@VBrn@OpenHome@@PAVObjectType@Stack@Net@2@VBufferCmp@2@V?$allocator@U?$pair@$$CBVBrn@OpenHome@@PAVObjectType@Stack@Net@2@@std@@@std@@$0A@@std@@@std@@@std@@QAE@ABV?$allocator@U?$pair@$$CBVBrn@OpenHome@@PAVObjectType@Stack@Net@2@@std@@@1@@Z 00428a60 f i libohNetCore:Stack.obj
 0001:00027a80       ??$_Allocate@U_Node@?$_Tree_nod@V?$_Tmap_traits@VBrn@OpenHome@@PAVObjectType@Stack@Net@2@VBufferCmp@2@V?$allocator@U?$pair@$$CBVBrn@OpenHome@@PAVObjectType@Stack@Net@2@@std@@@std@@$0A@@std@@@std@@@std@@YGPAU_Node@?$_Tree_nod@V?$_Tmap_traits@VBrn@OpenHome@@PAVObjectType@Stack@Net@2@VBufferCmp@2@V?$allocator@U?$pair@$$CBVBrn@OpenHome@@PAVObjectType@Stack@Net@2@@std@@@std@@$0A@@std@@@0@IPAU120@@Z 00428a80 f i libohNetCore:Stack.obj
 0001:00027b00       ?_Linsert@?$_Tree@V?$_Tmap_traits@PAXPAXU?$less@PAX@std@@V?$allocator@U?$pair@QAXPAX@std@@@2@$0A@@std@@@std@@QAE?AU?$pair@V?$_Tree_iterator@V?$_Tree_val@V?$_Tmap_traits@PAXPAXU?$less@PAX@std@@V?$allocator@U?$pair@QAXPAX@std@@@2@$0A@@std@@@std@@@std@@_N@2@PAU_Node@?$_Tree_nod@V?$_Tmap_traits@PAXPAXU?$less@PAX@std@@V?$allocator@U?$pair@QAXPAX@std@@@2@$0A@@std@@@2@_N@Z 00428b00 f i libohNetCore:Stack.obj
 0001:00027ee0       ?destroy@?$allocator@U?$pair@QAXPAX@std@@@std@@QAEXPAU?$pair@QAXPAX@2@@Z 00428ee0 f i libohNetCore:Stack.obj
 0001:00027f10       ??R?$less@PAX@std@@QBE_NABQAX0@Z 00428f10 f i libohNetCore:Stack.obj
 0001:00027f40       ?construct@?$allocator@PAVMListener@Stack@Net@OpenHome@@@std@@QAEXPAPAVMListener@Stack@Net@OpenHome@@ABQAV3456@@Z 00428f40 f i libohNetCore:Stack.obj
 0001:00027f70       ?_Linsert@?$_Tree@V?$_Tmap_traits@VBrn@OpenHome@@PAVObjectType@Stack@Net@2@VBufferCmp@2@V?$allocator@U?$pair@$$CBVBrn@OpenHome@@PAVObjectType@Stack@Net@2@@std@@@std@@$0A@@std@@@std@@QAE?AU?$pair@V?$_Tree_iterator@V?$_Tree_val@V?$_Tmap_traits@VBrn@OpenHome@@PAVObjectType@Stack@Net@2@VBufferCmp@2@V?$allocator@U?$pair@$$CBVBrn@OpenHome@@PAVObjectType@Stack@Net@2@@std@@@std@@$0A@@std@@@std@@@std@@_N@2@PAU_Node@?$_Tree_nod@V?$_Tmap_traits@VBrn@OpenHome@@PAVObjectType@Stack@Net@2@VBufferCmp@2@V?$allocator@U?$pair@$$CBVBrn@OpenHome@@PAVObjectType@Stack@Net@2@@std@@@std@@$0A@@std@@@2@_N@Z 00428f70 f i libohNetCore:Stack.obj
 0001:00028350       ?destroy@?$allocator@U?$pair@$$CBVBrn@OpenHome@@PAVObjectType@Stack@Net@2@@std@@@std@@QAEXPAU?$pair@$$CBVBrn@OpenHome@@PAVObjectType@Stack@Net@2@@2@@Z 00429350 f i libohNetCore:Stack.obj
 0001:00028380       ?_Insert@?$_Tree@V?$_Tmap_traits@PAXPAXU?$less@PAX@std@@V?$allocator@U?$pair@QAXPAX@std@@@2@$0A@@std@@@std@@IAE?AV?$_Tree_iterator@V?$_Tree_val@V?$_Tmap_traits@PAXPAXU?$less@PAX@std@@V?$allocator@U?$pair@QAXPAX@std@@@2@$0A@@std@@@std@@@2@_NPAU_Node@?$_Tree_nod@V?$_Tmap_traits@PAXPAXU?$less@PAX@std@@V?$allocator@U?$pair@QAXPAX@std@@@2@$0A@@std@@@2@1@Z 00429380 f i libohNetCore:Stack.obj
 0001:00028740       ?_Insert@?$_Tree@V?$_Tmap_traits@VBrn@OpenHome@@PAVObjectType@Stack@Net@2@VBufferCmp@2@V?$allocator@U?$pair@$$CBVBrn@OpenHome@@PAVObjectType@Stack@Net@2@@std@@@std@@$0A@@std@@@std@@IAE?AV?$_Tree_iterator@V?$_Tree_val@V?$_Tmap_traits@VBrn@OpenHome@@PAVObjectType@Stack@Net@2@VBufferCmp@2@V?$allocator@U?$pair@$$CBVBrn@OpenHome@@PAVObjectType@Stack@Net@2@@std@@@std@@$0A@@std@@@std@@@2@_NPAU_Node@?$_Tree_nod@V?$_Tmap_traits@VBrn@OpenHome@@PAVObjectType@Stack@Net@2@VBufferCmp@2@V?$allocator@U?$pair@$$CBVBrn@OpenHome@@PAVObjectType@Stack@Net@2@@std@@@std@@$0A@@std@@@2@1@Z 00429740 f i libohNetCore:Stack.obj
 0001:00028b00       ??F?$_Tree_iterator@V?$_Tree_val@V?$_Tmap_traits@VBrn@OpenHome@@PAVObjectType@Stack@Net@2@VBufferCmp@2@V?$allocator@U?$pair@$$CBVBrn@OpenHome@@PAVObjectType@Stack@Net@2@@std@@@std@@$0A@@std@@@std@@@std@@QAEAAV01@XZ 00429b00 f i libohNetCore:Stack.obj
 0001:00028b30       ??0?$pair@V?$_Tree_iterator@V?$_Tree_val@V?$_Tmap_traits@VBrn@OpenHome@@PAVObjectType@Stack@Net@2@VBufferCmp@2@V?$allocator@U?$pair@$$CBVBrn@OpenHome@@PAVObjectType@Stack@Net@2@@std@@@std@@$0A@@std@@@std@@@std@@_N@std@@QAE@$$QAV?$_Tree_iterator@V?$_Tree_val@V?$_Tmap_traits@VBrn@OpenHome@@PAVObjectType@Stack@Net@2@VBufferCmp@2@V?$allocator@U?$pair@$$CBVBrn@OpenHome@@PAVObjectType@Stack@Net@2@@std@@@std@@$0A@@std@@@std@@@1@$$QA_N@Z 00429b30 f i libohNetCore:Stack.obj
 0001:00028b70       ??0?$pair@V?$_Tree_iterator@V?$_Tree_val@V?$_Tmap_traits@PAXPAXU?$less@PAX@std@@V?$allocator@U?$pair@QAXPAX@std@@@2@$0A@@std@@@std@@@std@@_N@std@@QAE@$$QAV?$_Tree_iterator@V?$_Tree_val@V?$_Tmap_traits@PAXPAXU?$less@PAX@std@@V?$allocator@U?$pair@QAXPAX@std@@@2@$0A@@std@@@std@@@1@$$QA_N@Z 00429b70 f i libohNetCore:Stack.obj
 0001:00028bb0       ??F?$_Tree_iterator@V?$_Tree_val@V?$_Tmap_traits@PAXPAXU?$less@PAX@std@@V?$allocator@U?$pair@QAXPAX@std@@@2@$0A@@std@@@std@@@std@@QAEAAV01@XZ 00429bb0 f i libohNetCore:Stack.obj
 0001:00028be0       ?max_size@?$_Tree@V?$_Tmap_traits@PAXPAXU?$less@PAX@std@@V?$allocator@U?$pair@QAXPAX@std@@@2@$0A@@std@@@std@@QBEIXZ 00429be0 f i libohNetCore:Stack.obj
 0001:00028c10       ?max_size@?$_Tree@V?$_Tmap_traits@VBrn@OpenHome@@PAVObjectType@Stack@Net@2@VBufferCmp@2@V?$allocator@U?$pair@$$CBVBrn@OpenHome@@PAVObjectType@Stack@Net@2@@std@@@std@@$0A@@std@@@std@@QBEIXZ 00429c10 f i libohNetCore:Stack.obj
 0001:00028c40       ??F?$_Tree_const_iterator@V?$_Tree_val@V?$_Tmap_traits@VBrn@OpenHome@@PAVObjectType@Stack@Net@2@VBufferCmp@2@V?$allocator@U?$pair@$$CBVBrn@OpenHome@@PAVObjectType@Stack@Net@2@@std@@@std@@$0A@@std@@@std@@@std@@QAEAAV01@XZ 00429c40 f i libohNetCore:Stack.obj
 0001:00028d60       ??0?$_Pair_base@V?$_Tree_iterator@V?$_Tree_val@V?$_Tmap_traits@VBrn@OpenHome@@PAVObjectType@Stack@Net@2@VBufferCmp@2@V?$allocator@U?$pair@$$CBVBrn@OpenHome@@PAVObjectType@Stack@Net@2@@std@@@std@@$0A@@std@@@std@@@std@@_N@std@@QAE@$$QAV?$_Tree_iterator@V?$_Tree_val@V?$_Tmap_traits@VBrn@OpenHome@@PAVObjectType@Stack@Net@2@VBufferCmp@2@V?$allocator@U?$pair@$$CBVBrn@OpenHome@@PAVObjectType@Stack@Net@2@@std@@@std@@$0A@@std@@@std@@@1@$$QA_N@Z 00429d60 f i libohNetCore:Stack.obj
 0001:00028de0       ??0?$_Pair_base@V?$_Tree_iterator@V?$_Tree_val@V?$_Tmap_traits@PAXPAXU?$less@PAX@std@@V?$allocator@U?$pair@QAXPAX@std@@@2@$0A@@std@@@std@@@std@@_N@std@@QAE@$$QAV?$_Tree_iterator@V?$_Tree_val@V?$_Tmap_traits@PAXPAXU?$less@PAX@std@@V?$allocator@U?$pair@QAXPAX@std@@@2@$0A@@std@@@std@@@1@$$QA_N@Z 00429de0 f i libohNetCore:Stack.obj
 0001:00028e60       ??F?$_Tree_const_iterator@V?$_Tree_val@V?$_Tmap_traits@PAXPAXU?$less@PAX@std@@V?$allocator@U?$pair@QAXPAX@std@@@2@$0A@@std@@@std@@@std@@QAEAAV01@XZ 00429e60 f i libohNetCore:Stack.obj
 0001:00028f80       ?max_size@?$allocator@U?$pair@QAXPAX@std@@@std@@QBEIXZ 00429f80 f i libohNetCore:Stack.obj
 0001:00028fd0       ?max_size@?$allocator@U?$pair@$$CBVBrn@OpenHome@@PAVObjectType@Stack@Net@2@@std@@@std@@QBEIXZ 00429fd0 f i libohNetCore:Stack.obj
 0001:00029020       ??F?$_Tree_unchecked_const_iterator@V?$_Tree_val@V?$_Tmap_traits@VBrn@OpenHome@@PAVObjectType@Stack@Net@2@VBufferCmp@2@V?$allocator@U?$pair@$$CBVBrn@OpenHome@@PAVObjectType@Stack@Net@2@@std@@@std@@$0A@@std@@@std@@U_Iterator_base12@2@@std@@QAEAAV01@XZ 0042a020 f i libohNetCore:Stack.obj
 0001:00029110       ??F?$_Tree_unchecked_const_iterator@V?$_Tree_val@V?$_Tmap_traits@PAXPAXU?$less@PAX@std@@V?$allocator@U?$pair@QAXPAX@std@@@2@$0A@@std@@@std@@U_Iterator_base12@2@@std@@QAEAAV01@XZ 0042a110 f i libohNetCore:Stack.obj
 0001:00029200       ??$forward@AAVBrn@OpenHome@@@std@@YGAAVBrn@OpenHome@@AAV12@@Z 0042a200 f i libohNetCore:Stack.obj
 0001:00029210       ??$forward@AAPAVObjectType@Stack@Net@OpenHome@@@std@@YGAAPAVObjectType@Stack@Net@OpenHome@@AAPAV1234@@Z 0042a210 f i libohNetCore:Stack.obj
 0001:00029220       ??$?0AAVBrn@OpenHome@@AAPAVObjectType@Stack@Net@1@@?$_Pair_base@VBrn@OpenHome@@PAVObjectType@Stack@Net@2@@std@@QAE@AAVBrn@OpenHome@@AAPAVObjectType@Stack@Net@3@@Z 0042a220 f i libohNetCore:Stack.obj
 0001:000292a0       ??$forward@U?$pair@VBrn@OpenHome@@PAVObjectType@Stack@Net@2@@std@@@std@@YG$$QAU?$pair@VBrn@OpenHome@@PAVObjectType@Stack@Net@2@@0@AAU10@@Z 0042a2a0 f i libohNetCore:Stack.obj
 0001:000292b0       ??$_Buynode@U?$pair@VBrn@OpenHome@@PAVObjectType@Stack@Net@2@@std@@@?$_Tree_val@V?$_Tmap_traits@VBrn@OpenHome@@PAVObjectType@Stack@Net@2@VBufferCmp@2@V?$allocator@U?$pair@$$CBVBrn@OpenHome@@PAVObjectType@Stack@Net@2@@std@@@std@@$0A@@std@@@std@@QAEPAU_Node@?$_Tree_nod@V?$_Tmap_traits@VBrn@OpenHome@@PAVObjectType@Stack@Net@2@VBufferCmp@2@V?$allocator@U?$pair@$$CBVBrn@OpenHome@@PAVObjectType@Stack@Net@2@@std@@@std@@$0A@@std@@@1@$$QAU?$pair@VBrn@OpenHome@@PAVObjectType@Stack@Net@2@@1@@Z 0042a2b0 f i libohNetCore:Stack.obj
 0001:00029390       ??$forward@AAPAX@std@@YGAAPAXAAPAX@Z 0042a390 f i libohNetCore:Stack.obj
 0001:000293a0       ??$?0AAPAXAAPAX@?$_Pair_base@PAXPAX@std@@QAE@AAPAX0@Z 0042a3a0 f i libohNetCore:Stack.obj
 0001:000293f0       ??$forward@U?$pair@PAXPAX@std@@@std@@YG$$QAU?$pair@PAXPAX@0@AAU10@@Z 0042a3f0 f i libohNetCore:Stack.obj
 0001:00029400       ??$_Buynode@U?$pair@PAXPAX@std@@@?$_Tree_val@V?$_Tmap_traits@PAXPAXU?$less@PAX@std@@V?$allocator@U?$pair@QAXPAX@std@@@2@$0A@@std@@@std@@QAEPAU_Node@?$_Tree_nod@V?$_Tmap_traits@PAXPAXU?$less@PAX@std@@V?$allocator@U?$pair@QAXPAX@std@@@2@$0A@@std@@@1@$$QAU?$pair@PAXPAX@1@@Z 0042a400 f i libohNetCore:Stack.obj
 0001:000294e0       ??$forward@AAPAVMListener@Stack@Net@OpenHome@@@std@@YGAAPAVMListener@Stack@Net@OpenHome@@AAPAV1234@@Z 0042a4e0 f i libohNetCore:Stack.obj
 0001:000294f0       ??$construct@AAPAVMListener@Stack@Net@OpenHome@@@?$allocator@PAVMListener@Stack@Net@OpenHome@@@std@@QAEXPAPAVMListener@Stack@Net@OpenHome@@AAPAV2345@@Z 0042a4f0 f i libohNetCore:Stack.obj
 0001:00029590       ??$forward@ABQAVMListener@Stack@Net@OpenHome@@@std@@YGABQAVMListener@Stack@Net@OpenHome@@ABQAV1234@@Z 0042a590 f i libohNetCore:Stack.obj
 0001:000295a0       ??$_Ptr_cat@PAVMListener@Stack@Net@OpenHome@@PAV1234@@std@@YG?AU_Scalar_ptr_iterator_tag@0@PAPAVMListener@Stack@Net@OpenHome@@0@Z 0042a5a0 f i libohNetCore:Stack.obj
 0001:00029600       ??$_Move@PAPAVMListener@Stack@Net@OpenHome@@PAPAV1234@@std@@YGPAPAVMListener@Stack@Net@OpenHome@@PAPAV1234@00U_Scalar_ptr_iterator_tag@0@@Z 0042a600 f i libohNetCore:Stack.obj
 0001:00029650       ??$_Destroy_range@V?$allocator@PAVMListener@Stack@Net@OpenHome@@@std@@@std@@YGXPAPAVMListener@Stack@Net@OpenHome@@0AAV?$allocator@PAVMListener@Stack@Net@OpenHome@@@0@U_Scalar_ptr_iterator_tag@0@@Z 0042a650 f i libohNetCore:Stack.obj
 0001:00029660       ??$_Uninitialized_move@PAPAVMListener@Stack@Net@OpenHome@@PAPAV1234@V?$allocator@PAVMListener@Stack@Net@OpenHome@@@std@@@std@@YGPAPAVMListener@Stack@Net@OpenHome@@PAPAV1234@00AAV?$allocator@PAVMListener@Stack@Net@OpenHome@@@0@@Z 0042a660 f i libohNetCore:Stack.obj
 0001:000296b0       ??$?0AAV?$_Tree_iterator@V?$_Tree_val@V?$_Tmap_traits@PAXPAXU?$less@PAX@std@@V?$allocator@U?$pair@QAXPAX@std@@@2@$0A@@std@@@std@@@std@@_N@?$pair@V?$_Tree_iterator@V?$_Tree_val@V?$_Tmap_traits@PAXPAXU?$less@PAX@std@@V?$allocator@U?$pair@QAXPAX@std@@@2@$0A@@std@@@std@@@std@@_N@std@@QAE@AAV?$_Tree_iterator@V?$_Tree_val@V?$_Tmap_traits@PAXPAXU?$less@PAX@std@@V?$allocator@U?$pair@QAXPAX@std@@@2@$0A@@std@@@std@@@1@$$QA_N@Z 0042a6b0 f i libohNetCore:Stack.obj
 0001:000296f0       ??$_Destroy@U?$pair@QAXPAX@std@@@std@@YGXPAU?$pair@QAXPAX@0@@Z 0042a6f0 f i libohNetCore:Stack.obj
 0001:00029700       ??$_Construct@PAVMListener@Stack@Net@OpenHome@@ABQAV1234@@std@@YGXPAPAVMListener@Stack@Net@OpenHome@@ABQAV1234@@Z 0042a700 f i libohNetCore:Stack.obj
 0001:000297b0       ??$?0AAV?$_Tree_iterator@V?$_Tree_val@V?$_Tmap_traits@VBrn@OpenHome@@PAVObjectType@Stack@Net@2@VBufferCmp@2@V?$allocator@U?$pair@$$CBVBrn@OpenHome@@PAVObjectType@Stack@Net@2@@std@@@std@@$0A@@std@@@std@@@std@@_N@?$pair@V?$_Tree_iterator@V?$_Tree_val@V?$_Tmap_traits@VBrn@OpenHome@@PAVObjectType@Stack@Net@2@VBufferCmp@2@V?$allocator@U?$pair@$$CBVBrn@OpenHome@@PAVObjectType@Stack@Net@2@@std@@@std@@$0A@@std@@@std@@@std@@_N@std@@QAE@AAV?$_Tree_iterator@V?$_Tree_val@V?$_Tmap_traits@VBrn@OpenHome@@PAVObjectType@Stack@Net@2@VBufferCmp@2@V?$allocator@U?$pair@$$CBVBrn@OpenHome@@PAVObjectType@Stack@Net@2@@std@@@std@@$0A@@std@@@std@@@1@$$QA_N@Z 0042a7b0 f i libohNetCore:Stack.obj
 0001:000297f0       ??$_Destroy@U?$pair@$$CBVBrn@OpenHome@@PAVObjectType@Stack@Net@2@@std@@@std@@YGXPAU?$pair@$$CBVBrn@OpenHome@@PAVObjectType@Stack@Net@2@@0@@Z 0042a7f0 f i libohNetCore:Stack.obj
 0001:00029810       ??$move@AAV?$_Tree_iterator@V?$_Tree_val@V?$_Tmap_traits@VBrn@OpenHome@@PAVObjectType@Stack@Net@2@VBufferCmp@2@V?$allocator@U?$pair@$$CBVBrn@OpenHome@@PAVObjectType@Stack@Net@2@@std@@@std@@$0A@@std@@@std@@@std@@@std@@YG$$QAV?$_Tree_iterator@V?$_Tree_val@V?$_Tmap_traits@VBrn@OpenHome@@PAVObjectType@Stack@Net@2@VBufferCmp@2@V?$allocator@U?$pair@$$CBVBrn@OpenHome@@PAVObjectType@Stack@Net@2@@std@@@std@@$0A@@std@@@std@@@0@AAV10@@Z 0042a810 f i libohNetCore:Stack.obj
 0001:00029820       ??$move@AAV?$_Tree_iterator@V?$_Tree_val@V?$_Tmap_traits@PAXPAXU?$less@PAX@std@@V?$allocator@U?$pair@QAXPAX@std@@@2@$0A@@std@@@std@@@std@@@std@@YG$$QAV?$_Tree_iterator@V?$_Tree_val@V?$_Tmap_traits@PAXPAXU?$less@PAX@std@@V?$allocator@U?$pair@QAXPAX@std@@@2@$0A@@std@@@std@@@0@AAV10@@Z 0042a820 f i libohNetCore:Stack.obj
 0001:00029830       ??_G?$pair@$$CBVBrn@OpenHome@@PAVObjectType@Stack@Net@2@@std@@QAEPAXI@Z 0042a830 f i libohNetCore:Stack.obj
 0001:00029870       ??1?$pair@$$CBVBrn@OpenHome@@PAVObjectType@Stack@Net@2@@std@@QAE@XZ 0042a870 f i libohNetCore:Stack.obj
 0001:000298a0       ??1?$_Pair_base@$$CBVBrn@OpenHome@@PAVObjectType@Stack@Net@2@@std@@QAE@XZ 0042a8a0 f i libohNetCore:Stack.obj
 0001:000298d0       ?_Buynode@?$_Tree_val@V?$_Tmap_traits@PAXPAXU?$less@PAX@std@@V?$allocator@U?$pair@QAXPAX@std@@@2@$0A@@std@@@std@@QAEPAU_Node@?$_Tree_nod@V?$_Tmap_traits@PAXPAXU?$less@PAX@std@@V?$allocator@U?$pair@QAXPAX@std@@@2@$0A@@std@@@2@XZ 0042a8d0 f i libohNetCore:Stack.obj
 0001:00029960       ?_Buynode@?$_Tree_val@V?$_Tmap_traits@VBrn@OpenHome@@PAVObjectType@Stack@Net@2@VBufferCmp@2@V?$allocator@U?$pair@$$CBVBrn@OpenHome@@PAVObjectType@Stack@Net@2@@std@@@std@@$0A@@std@@@std@@QAEPAU_Node@?$_Tree_nod@V?$_Tmap_traits@VBrn@OpenHome@@PAVObjectType@Stack@Net@2@VBufferCmp@2@V?$allocator@U?$pair@$$CBVBrn@OpenHome@@PAVObjectType@Stack@Net@2@@std@@@std@@$0A@@std@@@2@XZ 0042a960 f i libohNetCore:Stack.obj
 0001:000299f0       ??$_Cons_val@V?$allocator@U?$pair@$$CBVBrn@OpenHome@@PAVObjectType@Stack@Net@2@@std@@@std@@U?$pair@$$CBVBrn@OpenHome@@PAVObjectType@Stack@Net@2@@2@U?$pair@VBrn@OpenHome@@PAVObjectType@Stack@Net@2@@2@@std@@YGXAAV?$allocator@U?$pair@$$CBVBrn@OpenHome@@PAVObjectType@Stack@Net@2@@std@@@0@PAU?$pair@$$CBVBrn@OpenHome@@PAVObjectType@Stack@Net@2@@0@$$QAU?$pair@VBrn@OpenHome@@PAVObjectType@Stack@Net@2@@0@@Z 0042a9f0 f i libohNetCore:Stack.obj
 0001:00029a20       ??$_Cons_val@V?$allocator@U?$pair@QAXPAX@std@@@std@@U?$pair@QAXPAX@2@U?$pair@PAXPAX@2@@std@@YGXAAV?$allocator@U?$pair@QAXPAX@std@@@0@PAU?$pair@QAXPAX@0@$$QAU?$pair@PAXPAX@0@@Z 0042aa20 f i libohNetCore:Stack.obj
 0001:00029a50       ??$_Val_type@PAPAVMListener@Stack@Net@OpenHome@@@std@@YGPAPAVMListener@Stack@Net@OpenHome@@PAPAV1234@@Z 0042aa50 f i libohNetCore:Stack.obj
 0001:00029a60       ??$_Uninit_move@PAVMListener@Stack@Net@OpenHome@@PAV1234@PAV1234@@std@@YGPAPAVMListener@Stack@Net@OpenHome@@PAPAV1234@00AAV?$allocator@PAVMListener@Stack@Net@OpenHome@@@0@0U_Scalar_ptr_iterator_tag@0@@Z 0042aa60 f i libohNetCore:Stack.obj
 0001:00029ad0       ??$forward@AAV?$_Tree_iterator@V?$_Tree_val@V?$_Tmap_traits@PAXPAXU?$less@PAX@std@@V?$allocator@U?$pair@QAXPAX@std@@@2@$0A@@std@@@std@@@std@@@std@@YGAAV?$_Tree_iterator@V?$_Tree_val@V?$_Tmap_traits@PAXPAXU?$less@PAX@std@@V?$allocator@U?$pair@QAXPAX@std@@@2@$0A@@std@@@std@@@0@AAV10@@Z 0042aad0 f i libohNetCore:Stack.obj
 0001:00029ae0       ??$?0AAV?$_Tree_iterator@V?$_Tree_val@V?$_Tmap_traits@PAXPAXU?$less@PAX@std@@V?$allocator@U?$pair@QAXPAX@std@@@2@$0A@@std@@@std@@@std@@_N@?$_Pair_base@V?$_Tree_iterator@V?$_Tree_val@V?$_Tmap_traits@PAXPAXU?$less@PAX@std@@V?$allocator@U?$pair@QAXPAX@std@@@2@$0A@@std@@@std@@@std@@_N@std@@QAE@AAV?$_Tree_iterator@V?$_Tree_val@V?$_Tmap_traits@PAXPAXU?$less@PAX@std@@V?$allocator@U?$pair@QAXPAX@std@@@2@$0A@@std@@@std@@@1@$$QA_N@Z 0042aae0 f i libohNetCore:Stack.obj
 0001:00029b60       ??$forward@AAV?$_Tree_iterator@V?$_Tree_val@V?$_Tmap_traits@VBrn@OpenHome@@PAVObjectType@Stack@Net@2@VBufferCmp@2@V?$allocator@U?$pair@$$CBVBrn@OpenHome@@PAVObjectType@Stack@Net@2@@std@@@std@@$0A@@std@@@std@@@std@@@std@@YGAAV?$_Tree_iterator@V?$_Tree_val@V?$_Tmap_traits@VBrn@OpenHome@@PAVObjectType@Stack@Net@2@VBufferCmp@2@V?$allocator@U?$pair@$$CBVBrn@OpenHome@@PAVObjectType@Stack@Net@2@@std@@@std@@$0A@@std@@@std@@@0@AAV10@@Z 0042ab60 f i libohNetCore:Stack.obj
 0001:00029b70       ??$?0AAV?$_Tree_iterator@V?$_Tree_val@V?$_Tmap_traits@VBrn@OpenHome@@PAVObjectType@Stack@Net@2@VBufferCmp@2@V?$allocator@U?$pair@$$CBVBrn@OpenHome@@PAVObjectType@Stack@Net@2@@std@@@std@@$0A@@std@@@std@@@std@@_N@?$_Pair_base@V?$_Tree_iterator@V?$_Tree_val@V?$_Tmap_traits@VBrn@OpenHome@@PAVObjectType@Stack@Net@2@VBufferCmp@2@V?$allocator@U?$pair@$$CBVBrn@OpenHome@@PAVObjectType@Stack@Net@2@@std@@@std@@$0A@@std@@@std@@@std@@_N@std@@QAE@AAV?$_Tree_iterator@V?$_Tree_val@V?$_Tmap_traits@VBrn@OpenHome@@PAVObjectType@Stack@Net@2@VBufferCmp@2@V?$allocator@U?$pair@$$CBVBrn@OpenHome@@PAVObjectType@Stack@Net@2@@std@@@std@@$0A@@std@@@std@@@1@$$QA_N@Z 0042ab70 f i libohNetCore:Stack.obj
 0001:00029bf0       ??$construct@U?$pair@VBrn@OpenHome@@PAVObjectType@Stack@Net@2@@std@@@?$allocator@U?$pair@$$CBVBrn@OpenHome@@PAVObjectType@Stack@Net@2@@std@@@std@@QAEXPAU?$pair@$$CBVBrn@OpenHome@@PAVObjectType@Stack@Net@2@@1@$$QAU?$pair@VBrn@OpenHome@@PAVObjectType@Stack@Net@2@@1@@Z 0042abf0 f i libohNetCore:Stack.obj
 0001:00029c90       ??$construct@U?$pair@PAXPAX@std@@@?$allocator@U?$pair@QAXPAX@std@@@std@@QAEXPAU?$pair@QAXPAX@1@$$QAU?$pair@PAXPAX@1@@Z 0042ac90 f i libohNetCore:Stack.obj
 0001:00029d30       ??$_Debug_range@PAPAVMListener@Stack@Net@OpenHome@@@std@@YGXPAPAVMListener@Stack@Net@OpenHome@@0PB_WI@Z 0042ad30 f i libohNetCore:Stack.obj
 0001:00029d80       ??$_Debug_pointer@PAVMListener@Stack@Net@OpenHome@@@std@@YGXPAPAVMListener@Stack@Net@OpenHome@@PB_WI@Z 0042ad80 f i libohNetCore:Stack.obj
 0001:00029db0       ??$?0VBrn@OpenHome@@PAVObjectType@Stack@Net@1@@?$pair@$$CBVBrn@OpenHome@@PAVObjectType@Stack@Net@2@@std@@QAE@$$QAU?$pair@VBrn@OpenHome@@PAVObjectType@Stack@Net@2@@1@@Z 0042adb0 f i libohNetCore:Stack.obj
 0001:00029df0       ??$?0PAXPAX@?$pair@QAXPAX@std@@QAE@$$QAU?$pair@PAXPAX@1@@Z 0042adf0 f i libohNetCore:Stack.obj
 0001:00029e30       ??$_Iter_cat@PAPAVMListener@Stack@Net@OpenHome@@@std@@YG?AUrandom_access_iterator_tag@0@ABQAPAVMListener@Stack@Net@OpenHome@@@Z 0042ae30 f i libohNetCore:Stack.obj
 0001:00029e90       ??$_Debug_range2@PAPAVMListener@Stack@Net@OpenHome@@@std@@YGXPAPAVMListener@Stack@Net@OpenHome@@0PB_WIUrandom_access_iterator_tag@0@@Z 0042ae90 f i libohNetCore:Stack.obj
 0001:00029ef0       ??$forward@VBrn@OpenHome@@@std@@YG$$QAVBrn@OpenHome@@AAV12@@Z 0042aef0 f i libohNetCore:Stack.obj
 0001:00029f00       ??$forward@PAVObjectType@Stack@Net@OpenHome@@@std@@YG$$QAPAVObjectType@Stack@Net@OpenHome@@AAPAV1234@@Z 0042af00 f i libohNetCore:Stack.obj
 0001:00029f10       ??$?0VBrn@OpenHome@@PAVObjectType@Stack@Net@1@@?$_Pair_base@$$CBVBrn@OpenHome@@PAVObjectType@Stack@Net@2@@std@@QAE@$$QAVBrn@OpenHome@@$$QAPAVObjectType@Stack@Net@3@@Z 0042af10 f i libohNetCore:Stack.obj
 0001:00029f90       ??$forward@PAX@std@@YG$$QAPAXAAPAX@Z 0042af90 f i libohNetCore:Stack.obj
 0001:00029fa0       ??$?0PAXPAX@?$_Pair_base@QAXPAX@std@@QAE@$$QAPAX0@Z 0042afa0 f i libohNetCore:Stack.obj
 0001:00029ff0       ??0Semaphore@OpenHome@@QAE@PBDI@Z 0042aff0 f   libohNetCore:Thread.obj
 0001:0002a070       ??1Semaphore@OpenHome@@UAE@XZ 0042b070 f   libohNetCore:Thread.obj
 0001:0002a0b0       ?Wait@Semaphore@OpenHome@@QAEXXZ 0042b0b0 f   libohNetCore:Thread.obj
 0001:0002a0e0       ?Wait@Semaphore@OpenHome@@QAEXI@Z 0042b0e0 f   libohNetCore:Thread.obj
 0001:0002a1d0       ?Clear@Semaphore@OpenHome@@QAE_NXZ 0042b1d0 f   libohNetCore:Thread.obj
 0001:0002a210       ?Signal@Semaphore@OpenHome@@QAEXXZ 0042b210 f   libohNetCore:Thread.obj
 0001:0002a240       ??0Mutex@OpenHome@@QAE@PBD@Z 0042b240 f   libohNetCore:Thread.obj
 0001:0002a2d0       ??1Mutex@OpenHome@@UAE@XZ  0042b2d0 f   libohNetCore:Thread.obj
 0001:0002a310       ?Wait@Mutex@OpenHome@@QAEXXZ 0042b310 f   libohNetCore:Thread.obj
 0001:0002a440       ?Signal@Mutex@OpenHome@@QAEXXZ 0042b440 f   libohNetCore:Thread.obj
 0001:0002a470       ??0SemaphoreActive@OpenHome@@QAE@AAVSemaphore@1@@Z 0042b470 f   libohNetCore:Thread.obj
 0001:0002a4c0       ??0SemaphoreActive@OpenHome@@QAE@AAVThread@1@@Z 0042b4c0 f   libohNetCore:Thread.obj
 0001:0002a510       ?Signal@SemaphoreActive@OpenHome@@QAEXXZ 0042b510 f   libohNetCore:Thread.obj
 0001:0002a560       ?Signalled@SemaphoreActive@OpenHome@@QAE_NXZ 0042b560 f   libohNetCore:Thread.obj
 0001:0002a5e0       ?ConsumeOne@SemaphoreActive@OpenHome@@QAEXXZ 0042b5e0 f   libohNetCore:Thread.obj
 0001:0002a640       ?ConsumeAll@SemaphoreActive@OpenHome@@QAEXXZ 0042b640 f   libohNetCore:Thread.obj
 0001:0002a690       ??0Thread@OpenHome@@IAE@PBDII@Z 0042b690 f   libohNetCore:Thread.obj
 0001:0002a7b0       ??1Thread@OpenHome@@UAE@XZ 0042b7b0 f   libohNetCore:Thread.obj
 0001:0002a890       ?Start@Thread@OpenHome@@QAEXXZ 0042b890 f   libohNetCore:Thread.obj
 0001:0002a8f0       ?EntryPoint@Thread@OpenHome@@CGXPAX@Z 0042b8f0 f   libohNetCore:Thread.obj
 0001:0002aa90       ?Wait@Thread@OpenHome@@QAEXXZ 0042ba90 f   libohNetCore:Thread.obj
 0001:0002aac0       ?Signal@Thread@OpenHome@@QAEXXZ 0042bac0 f   libohNetCore:Thread.obj
 0001:0002aaf0       ?TryWait@Thread@OpenHome@@QAE_NXZ 0042baf0 f   libohNetCore:Thread.obj
 0001:0002ab20       ?Sleep@Thread@OpenHome@@SGXI@Z 0042bb20 f   libohNetCore:Thread.obj
 0001:0002abf0       ?Current@Thread@OpenHome@@SGPAV12@XZ 0042bbf0 f   libohNetCore:Thread.obj
 0001:0002ac10       ?SupportsPriorities@Thread@OpenHome@@SG_NXZ 0042bc10 f   libohNetCore:Thread.obj
 0001:0002ac30       ?CheckForKill@Thread@OpenHome@@IBEXXZ 0042bc30 f   libohNetCore:Thread.obj
 0001:0002ad00       ?Kill@Thread@OpenHome@@QAEXXZ 0042bd00 f   libohNetCore:Thread.obj
 0001:0002ad70       ?Name@Thread@OpenHome@@QBEABVBrx@2@XZ 0042bd70 f   libohNetCore:Thread.obj
 0001:0002ad90       ??8Thread@OpenHome@@QBE_NABV01@@Z 0042bd90 f   libohNetCore:Thread.obj
 0001:0002adc0       ??9Thread@OpenHome@@QBE_NABV01@@Z 0042bdc0 f   libohNetCore:Thread.obj
 0001:0002ae00       ?Join@Thread@OpenHome@@IAEXXZ 0042be00 f   libohNetCore:Thread.obj
 0001:0002ae60       ??0ThreadFunctor@OpenHome@@QAE@PBDVFunctor@1@II@Z 0042be60 f   libohNetCore:Thread.obj
 0001:0002af10       ??1ThreadFunctor@OpenHome@@UAE@XZ 0042bf10 f   libohNetCore:Thread.obj
 0001:0002af90       ?Run@ThreadFunctor@OpenHome@@EAEXXZ 0042bf90 f   libohNetCore:Thread.obj
 0001:0002afd0       ??0AutoMutex@OpenHome@@QAE@AAVMutex@1@@Z 0042bfd0 f   libohNetCore:Thread.obj
 0001:0002b010       ??1AutoMutex@OpenHome@@QAE@XZ 0042c010 f   libohNetCore:Thread.obj
 0001:0002b040       ??0AtomicInt@OpenHome@@QAE@H@Z 0042c040 f   libohNetCore:Thread.obj
 0001:0002b080       ??0AtomicInt@OpenHome@@QAE@XZ 0042c080 f   libohNetCore:Thread.obj
 0001:0002b0b0       ?Inc@AtomicInt@OpenHome@@QAEHXZ 0042c0b0 f   libohNetCore:Thread.obj
 0001:0002b110       ?Dec@AtomicInt@OpenHome@@QAEHXZ 0042c110 f   libohNetCore:Thread.obj
 0001:0002b170       ?SemaphoreCreate@Os@OpenHome@@SGPAXPBDI@Z 0042c170 f i libohNetCore:Thread.obj
 0001:0002b190       ??_GSemaphore@OpenHome@@UAEPAXI@Z 0042c190 f i libohNetCore:Thread.obj
 0001:0002b190       ??_ESemaphore@OpenHome@@UAEPAXI@Z 0042c190 f i libohNetCore:Thread.obj
 0001:0002b1d0       ?SemaphoreDestroy@Os@OpenHome@@SGXPAX@Z 0042c1d0 f i libohNetCore:Thread.obj
 0001:0002b1f0       ?SemaphoreWait@Os@OpenHome@@SGXPAX@Z 0042c1f0 f i libohNetCore:Thread.obj
 0001:0002b240       ??0Timeout@OpenHome@@QAE@PBDI@Z 0042c240 f i libohNetCore:Thread.obj
 0001:0002b280       ?SemaphoreTimedWait@Os@OpenHome@@SG_NPAXI@Z 0042c280 f i libohNetCore:Thread.obj
 0001:0002b2d0       ??1Timeout@OpenHome@@QAE@XZ 0042c2d0 f i libohNetCore:Thread.obj
 0001:0002b300       ?SemaphoreClear@Os@OpenHome@@SG_NPAX@Z 0042c300 f i libohNetCore:Thread.obj
 0001:0002b330       ?SemaphoreSignal@Os@OpenHome@@SGXPAX@Z 0042c330 f i libohNetCore:Thread.obj
 0001:0002b380       ??_EMutex@OpenHome@@UAEPAXI@Z 0042c380 f i libohNetCore:Thread.obj
 0001:0002b400       ?MutexCreate@Os@OpenHome@@SGPAXPBD@Z 0042c400 f i libohNetCore:Thread.obj
 0001:0002b420       ?MutexDestroy@Os@OpenHome@@SGXPAX@Z 0042c420 f i libohNetCore:Thread.obj
 0001:0002b440       ?MutexLock@Os@OpenHome@@SGHPAX@Z 0042c440 f i libohNetCore:Thread.obj
 0001:0002b470       ?MutexUnlock@Os@OpenHome@@SGXPAX@Z 0042c470 f i libohNetCore:Thread.obj
 0001:0002b4c0       ??_EThread@OpenHome@@UAEPAXI@Z 0042c4c0 f i libohNetCore:Thread.obj
 0001:0002b4c0       ??_GThread@OpenHome@@UAEPAXI@Z 0042c4c0 f i libohNetCore:Thread.obj
 0001:0002b500       ??1?$Bws@$04@OpenHome@@UAE@XZ 0042c500 f i libohNetCore:Thread.obj
 0001:0002b530       ?ThreadDestroy@Os@OpenHome@@SGXPAX@Z 0042c530 f i libohNetCore:Thread.obj
 0001:0002b550       ?ThreadCreate@Os@OpenHome@@SGPAXPBDIIP6GXPAX@Z1@Z 0042c550 f i libohNetCore:Thread.obj
 0001:0002b580       ?ThreadTls@Os@OpenHome@@SGPAXXZ 0042c580 f i libohNetCore:Thread.obj
 0001:0002b5a0       ?ThreadSupportsPriorities@Os@OpenHome@@SG_NXZ 0042c5a0 f i libohNetCore:Thread.obj
 0001:0002b5c0       ??0ThreadKill@OpenHome@@QAE@PBDI@Z 0042c5c0 f i libohNetCore:Thread.obj
 0001:0002b600       ??1ThreadKill@OpenHome@@QAE@XZ 0042c600 f i libohNetCore:Thread.obj
 0001:0002b630       ??_EThreadFunctor@OpenHome@@UAEPAXI@Z 0042c630 f i libohNetCore:Thread.obj
 0001:0002b630       ??_GThreadFunctor@OpenHome@@UAEPAXI@Z 0042c630 f i libohNetCore:Thread.obj
 0001:0002b670       ??0?$Bws@$04@OpenHome@@QAE@XZ 0042c670 f i libohNetCore:Thread.obj
 0001:0002b6b0       ?Ptr@?$Bws@$04@OpenHome@@UBEPBEXZ 0042c6b0 f i libohNetCore:Thread.obj
 0001:0002b6d0       ??_G?$Bws@$04@OpenHome@@UAEPAXI@Z 0042c6d0 f i libohNetCore:Thread.obj
 0001:0002b6d0       ??_E?$Bws@$04@OpenHome@@UAEPAXI@Z 0042c6d0 f i libohNetCore:Thread.obj
 0001:0002b710       ?Udn@CpDevice@Net@OpenHome@@QBEABVBrx@3@XZ 0042c710 f   libohNetCore:CpDeviceCore.obj
 0001:0002b740       ??8CpDevice@Net@OpenHome@@QBE_NABV012@@Z 0042c740 f   libohNetCore:CpDeviceCore.obj
 0001:0002b770       ??9CpDevice@Net@OpenHome@@QBE_NABV012@@Z 0042c770 f   libohNetCore:CpDeviceCore.obj
 0001:0002b7a0       ?AddRef@CpDevice@Net@OpenHome@@QAEXXZ 0042c7a0 f   libohNetCore:CpDeviceCore.obj
 0001:0002b7e0       ?RemoveRef@CpDevice@Net@OpenHome@@QAEXXZ 0042c7e0 f   libohNetCore:CpDeviceCore.obj
 0001:0002b870       ?GetAttribute@CpDevice@Net@OpenHome@@QBE_NPBDAAVBrh@3@@Z 0042c870 f   libohNetCore:CpDeviceCore.obj
 0001:0002b8c0       ?Device@CpDevice@Net@OpenHome@@QAEAAVCpiDevice@23@XZ 0042c8c0 f   libohNetCore:CpDeviceCore.obj
 0001:0002b8e0       ??0CpDevice@Net@OpenHome@@QAE@AAVCpiDevice@12@@Z 0042c8e0 f   libohNetCore:CpDeviceCore.obj
 0001:0002b930       ??1CpDevice@Net@OpenHome@@MAE@XZ 0042c930 f   libohNetCore:CpDeviceCore.obj
 0001:0002b950       ??1CpDeviceList@Net@OpenHome@@QAE@XZ 0042c950 f   libohNetCore:CpDeviceCore.obj
 0001:0002bac0       ?Refresh@CpDeviceList@Net@OpenHome@@QAEXXZ 0042cac0 f   libohNetCore:CpDeviceCore.obj
 0001:0002bb00       ??0CpDeviceList@Net@OpenHome@@IAE@VFunctorCpDevice@12@0@Z 0042cb00 f   libohNetCore:CpDeviceCore.obj
 0001:0002bc20       ?GetAddedFunctor@CpDeviceList@Net@OpenHome@@IAEXAAVFunctorCpiDevice@23@@Z 0042cc20 f   libohNetCore:CpDeviceCore.obj
 0001:0002bc90       ?GetRemovedFunctor@CpDeviceList@Net@OpenHome@@IAEXAAVFunctorCpiDevice@23@@Z 0042cc90 f   libohNetCore:CpDeviceCore.obj
 0001:0002bd00       ?Added@CpDeviceList@Net@OpenHome@@AAEXAAVCpiDevice@23@@Z 0042cd00 f   libohNetCore:CpDeviceCore.obj
 0001:0002be60       ?Removed@CpDeviceList@Net@OpenHome@@AAEXAAVCpiDevice@23@@Z 0042ce60 f   libohNetCore:CpDeviceCore.obj
 0001:0002bfd0       ??_GCpDevice@Net@OpenHome@@MAEPAXI@Z 0042cfd0 f i libohNetCore:CpDeviceCore.obj
 0001:0002bfd0       ??_ECpDevice@Net@OpenHome@@MAEPAXI@Z 0042cfd0 f i libohNetCore:CpDeviceCore.obj
 0001:0002c010       ??1?$map@VBrn@OpenHome@@PAVCpDevice@Net@2@VBufferCmp@2@V?$allocator@U?$pair@$$CBVBrn@OpenHome@@PAVCpDevice@Net@2@@std@@@std@@@std@@QAE@XZ 0042d010 f i libohNetCore:CpDeviceCore.obj
 0001:0002c040       ??1?$_Tree_iterator@V?$_Tree_val@V?$_Tmap_traits@VBrn@OpenHome@@PAVCpDevice@Net@2@VBufferCmp@2@V?$allocator@U?$pair@$$CBVBrn@OpenHome@@PAVCpDevice@Net@2@@std@@@std@@$0A@@std@@@std@@@std@@QAE@XZ 0042d040 f i libohNetCore:CpDeviceCore.obj
 0001:0002c070       ??1?$_Tree_const_iterator@V?$_Tree_val@V?$_Tmap_traits@VBrn@OpenHome@@PAVCpDevice@Net@2@VBufferCmp@2@V?$allocator@U?$pair@$$CBVBrn@OpenHome@@PAVCpDevice@Net@2@@std@@@std@@$0A@@std@@@std@@@std@@QAE@XZ 0042d070 f i libohNetCore:CpDeviceCore.obj
 0001:0002c0a0       ??1?$_Tree_unchecked_const_iterator@V?$_Tree_val@V?$_Tmap_traits@VBrn@OpenHome@@PAVCpDevice@Net@2@VBufferCmp@2@V?$allocator@U?$pair@$$CBVBrn@OpenHome@@PAVCpDevice@Net@2@@std@@@std@@$0A@@std@@@std@@U_Iterator_base12@2@@std@@QAE@XZ 0042d0a0 f i libohNetCore:CpDeviceCore.obj
 0001:0002c0d0       ??1?$_Iterator012@Ubidirectional_iterator_tag@std@@U?$pair@$$CBVBrn@OpenHome@@PAVCpDevice@Net@2@@2@HPBU32@ABU32@U_Iterator_base12@2@@std@@QAE@XZ 0042d0d0 f i libohNetCore:CpDeviceCore.obj
 0001:0002c100       ??BFunctorCpDevice@Net@OpenHome@@QBE_NXZ 0042d100 f i libohNetCore:CpDeviceCore.obj
 0001:0002c120       ??0Brn@OpenHome@@QAE@ABVBrx@1@@Z 0042d120 f i libohNetCore:CpDeviceCore.obj
 0001:0002c1b0       ??RFunctorCpDevice@Net@OpenHome@@QBEXAAVCpDevice@12@@Z 0042d1b0 f i libohNetCore:CpDeviceCore.obj
 0001:0002c1f0       ??1?$pair@VBrn@OpenHome@@PAVCpDevice@Net@2@@std@@QAE@XZ 0042d1f0 f i libohNetCore:CpDeviceCore.obj
 0001:0002c220       ??1?$pair@V?$_Tree_iterator@V?$_Tree_val@V?$_Tmap_traits@VBrn@OpenHome@@PAVCpDevice@Net@2@VBufferCmp@2@V?$allocator@U?$pair@$$CBVBrn@OpenHome@@PAVCpDevice@Net@2@@std@@@std@@$0A@@std@@@std@@@std@@_N@std@@QAE@XZ 0042d220 f i libohNetCore:CpDeviceCore.obj
 0001:0002c250       ??1?$_Pair_base@VBrn@OpenHome@@PAVCpDevice@Net@2@@std@@QAE@XZ 0042d250 f i libohNetCore:CpDeviceCore.obj
 0001:0002c280       ??1?$_Pair_base@V?$_Tree_iterator@V?$_Tree_val@V?$_Tmap_traits@VBrn@OpenHome@@PAVCpDevice@Net@2@VBufferCmp@2@V?$allocator@U?$pair@$$CBVBrn@OpenHome@@PAVCpDevice@Net@2@@std@@@std@@$0A@@std@@@std@@@std@@_N@std@@QAE@XZ 0042d280 f i libohNetCore:CpDeviceCore.obj
 0001:0002c2b0       ??0?$_Tree_const_iterator@V?$_Tree_val@V?$_Tmap_traits@VBrn@OpenHome@@PAVCpDevice@Net@2@VBufferCmp@2@V?$allocator@U?$pair@$$CBVBrn@OpenHome@@PAVCpDevice@Net@2@@std@@@std@@$0A@@std@@@std@@@std@@QAE@ABV01@@Z 0042d2b0 f i libohNetCore:CpDeviceCore.obj
 0001:0002c2e0       ??0?$_Tree_unchecked_const_iterator@V?$_Tree_val@V?$_Tmap_traits@VBrn@OpenHome@@PAVCpDevice@Net@2@VBufferCmp@2@V?$allocator@U?$pair@$$CBVBrn@OpenHome@@PAVCpDevice@Net@2@@std@@@std@@$0A@@std@@@std@@U_Iterator_base12@2@@std@@QAE@ABV01@@Z 0042d2e0 f i libohNetCore:CpDeviceCore.obj
 0001:0002c320       ??0?$_Iterator012@Ubidirectional_iterator_tag@std@@U?$pair@$$CBVBrn@OpenHome@@PAVCpDevice@Net@2@@2@HPBU32@ABU32@U_Iterator_base12@2@@std@@QAE@ABU01@@Z 0042d320 f i libohNetCore:CpDeviceCore.obj
 0001:0002c350       ??0?$map@VBrn@OpenHome@@PAVCpDevice@Net@2@VBufferCmp@2@V?$allocator@U?$pair@$$CBVBrn@OpenHome@@PAVCpDevice@Net@2@@std@@@std@@@std@@QAE@XZ 0042d350 f i libohNetCore:CpDeviceCore.obj
 0001:0002c3a0       ??1?$_Tree@V?$_Tmap_traits@VBrn@OpenHome@@PAVCpDevice@Net@2@VBufferCmp@2@V?$allocator@U?$pair@$$CBVBrn@OpenHome@@PAVCpDevice@Net@2@@std@@@std@@$0A@@std@@@std@@QAE@XZ 0042d3a0 f i libohNetCore:CpDeviceCore.obj
 0001:0002c410       ?begin@?$_Tree@V?$_Tmap_traits@VBrn@OpenHome@@PAVCpDevice@Net@2@VBufferCmp@2@V?$allocator@U?$pair@$$CBVBrn@OpenHome@@PAVCpDevice@Net@2@@std@@@std@@$0A@@std@@@std@@QAE?AV?$_Tree_iterator@V?$_Tree_val@V?$_Tmap_traits@VBrn@OpenHome@@PAVCpDevice@Net@2@VBufferCmp@2@V?$allocator@U?$pair@$$CBVBrn@OpenHome@@PAVCpDevice@Net@2@@std@@@std@@$0A@@std@@@std@@@2@XZ 0042d410 f i libohNetCore:CpDeviceCore.obj
 0001:0002c470       ?end@?$_Tree@V?$_Tmap_traits@VBrn@OpenHome@@PAVCpDevice@Net@2@VBufferCmp@2@V?$allocator@U?$pair@$$CBVBrn@OpenHome@@PAVCpDevice@Net@2@@std@@@std@@$0A@@std@@@std@@QAE?AV?$_Tree_iterator@V?$_Tree_val@V?$_Tmap_traits@VBrn@OpenHome@@PAVCpDevice@Net@2@VBufferCmp@2@V?$allocator@U?$pair@$$CBVBrn@OpenHome@@PAVCpDevice@Net@2@@std@@@std@@$0A@@std@@@std@@@2@XZ 0042d470 f i libohNetCore:CpDeviceCore.obj
 0001:0002c4c0       ?erase@?$_Tree@V?$_Tmap_traits@VBrn@OpenHome@@PAVCpDevice@Net@2@VBufferCmp@2@V?$allocator@U?$pair@$$CBVBrn@OpenHome@@PAVCpDevice@Net@2@@std@@@std@@$0A@@std@@@std@@QAE?AV?$_Tree_iterator@V?$_Tree_val@V?$_Tmap_traits@VBrn@OpenHome@@PAVCpDevice@Net@2@VBufferCmp@2@V?$allocator@U?$pair@$$CBVBrn@OpenHome@@PAVCpDevice@Net@2@@std@@@std@@$0A@@std@@@std@@@2@V?$_Tree_const_iterator@V?$_Tree_val@V?$_Tmap_traits@VBrn@OpenHome@@PAVCpDevice@Net@2@VBufferCmp@2@V?$allocator@U?$pair@$$CBVBrn@OpenHome@@PAVCpDevice@Net@2@@std@@@std@@$0A@@std@@@std@@@2@@Z 0042d4c0 f i libohNetCore:CpDeviceCore.obj
 0001:0002cbd0       ?clear@?$_Tree@V?$_Tmap_traits@VBrn@OpenHome@@PAVCpDevice@Net@2@VBufferCmp@2@V?$allocator@U?$pair@$$CBVBrn@OpenHome@@PAVCpDevice@Net@2@@std@@@std@@$0A@@std@@@std@@QAEXXZ 0042dbd0 f i libohNetCore:CpDeviceCore.obj
 0001:0002cc50       ?find@?$_Tree@V?$_Tmap_traits@VBrn@OpenHome@@PAVCpDevice@Net@2@VBufferCmp@2@V?$allocator@U?$pair@$$CBVBrn@OpenHome@@PAVCpDevice@Net@2@@std@@@std@@$0A@@std@@@std@@QAE?AV?$_Tree_iterator@V?$_Tree_val@V?$_Tmap_traits@VBrn@OpenHome@@PAVCpDevice@Net@2@VBufferCmp@2@V?$allocator@U?$pair@$$CBVBrn@OpenHome@@PAVCpDevice@Net@2@@std@@@std@@$0A@@std@@@std@@@2@ABVBrn@OpenHome@@@Z 0042dc50 f i libohNetCore:CpDeviceCore.obj
 0001:0002ce30       ??C?$_Tree_iterator@V?$_Tree_val@V?$_Tmap_traits@VBrn@OpenHome@@PAVCpDevice@Net@2@VBufferCmp@2@V?$allocator@U?$pair@$$CBVBrn@OpenHome@@PAVCpDevice@Net@2@@std@@@std@@$0A@@std@@@std@@@std@@QBEPAU?$pair@$$CBVBrn@OpenHome@@PAVCpDevice@Net@2@@1@XZ 0042de30 f i libohNetCore:CpDeviceCore.obj
 0001:0002ce60       ??E?$_Tree_iterator@V?$_Tree_val@V?$_Tmap_traits@VBrn@OpenHome@@PAVCpDevice@Net@2@VBufferCmp@2@V?$allocator@U?$pair@$$CBVBrn@OpenHome@@PAVCpDevice@Net@2@@std@@@std@@$0A@@std@@@std@@@std@@QAE?AV01@H@Z 0042de60 f i libohNetCore:CpDeviceCore.obj
 0001:0002cf30       ??9?$_Tree_const_iterator@V?$_Tree_val@V?$_Tmap_traits@VBrn@OpenHome@@PAVCpDevice@Net@2@VBufferCmp@2@V?$allocator@U?$pair@$$CBVBrn@OpenHome@@PAVCpDevice@Net@2@@std@@@std@@$0A@@std@@@std@@@std@@QBE_NABV01@@Z 0042df30 f i libohNetCore:CpDeviceCore.obj
 0001:0002cf70       ??0?$_Tree_iterator@V?$_Tree_val@V?$_Tmap_traits@VBrn@OpenHome@@PAVCpDevice@Net@2@VBufferCmp@2@V?$allocator@U?$pair@$$CBVBrn@OpenHome@@PAVCpDevice@Net@2@@std@@@std@@$0A@@std@@@std@@@std@@QAE@ABV01@@Z 0042df70 f i libohNetCore:CpDeviceCore.obj
 0001:0002cfa0       ??0?$_Tree@V?$_Tmap_traits@VBrn@OpenHome@@PAVCpDevice@Net@2@VBufferCmp@2@V?$allocator@U?$pair@$$CBVBrn@OpenHome@@PAVCpDevice@Net@2@@std@@@std@@$0A@@std@@@std@@QAE@ABVBufferCmp@OpenHome@@ABV?$allocator@U?$pair@$$CBVBrn@OpenHome@@PAVCpDevice@Net@2@@std@@@1@@Z 0042dfa0 f i libohNetCore:CpDeviceCore.obj
 0001:0002cff0       ?lower_bound@?$_Tree@V?$_Tmap_traits@VBrn@OpenHome@@PAVCpDevice@Net@2@VBufferCmp@2@V?$allocator@U?$pair@$$CBVBrn@OpenHome@@PAVCpDevice@Net@2@@std@@@std@@$0A@@std@@@std@@QAE?AV?$_Tree_iterator@V?$_Tree_val@V?$_Tmap_traits@VBrn@OpenHome@@PAVCpDevice@Net@2@VBufferCmp@2@V?$allocator@U?$pair@$$CBVBrn@OpenHome@@PAVCpDevice@Net@2@@std@@@std@@$0A@@std@@@std@@@2@ABVBrn@OpenHome@@@Z 0042dff0 f i libohNetCore:CpDeviceCore.obj
 0001:0002d050       ?_Erase@?$_Tree@V?$_Tmap_traits@VBrn@OpenHome@@PAVCpDevice@Net@2@VBufferCmp@2@V?$allocator@U?$pair@$$CBVBrn@OpenHome@@PAVCpDevice@Net@2@@std@@@std@@$0A@@std@@@std@@IAEXPAU_Node@?$_Tree_nod@V?$_Tmap_traits@VBrn@OpenHome@@PAVCpDevice@Net@2@VBufferCmp@2@V?$allocator@U?$pair@$$CBVBrn@OpenHome@@PAVCpDevice@Net@2@@std@@@std@@$0A@@std@@@2@@Z 0042e050 f i libohNetCore:CpDeviceCore.obj
 0001:0002d0f0       ?_Lmost@?$_Tree@V?$_Tmap_traits@VBrn@OpenHome@@PAVCpDevice@Net@2@VBufferCmp@2@V?$allocator@U?$pair@$$CBVBrn@OpenHome@@PAVCpDevice@Net@2@@std@@@std@@$0A@@std@@@std@@IBEAAPAU_Node@?$_Tree_nod@V?$_Tmap_traits@VBrn@OpenHome@@PAVCpDevice@Net@2@VBufferCmp@2@V?$allocator@U?$pair@$$CBVBrn@OpenHome@@PAVCpDevice@Net@2@@std@@@std@@$0A@@std@@@2@XZ 0042e0f0 f i libohNetCore:CpDeviceCore.obj
 0001:0002d120       ?_Lrotate@?$_Tree@V?$_Tmap_traits@VBrn@OpenHome@@PAVCpDevice@Net@2@VBufferCmp@2@V?$allocator@U?$pair@$$CBVBrn@OpenHome@@PAVCpDevice@Net@2@@std@@@std@@$0A@@std@@@std@@IAEXPAU_Node@?$_Tree_nod@V?$_Tmap_traits@VBrn@OpenHome@@PAVCpDevice@Net@2@VBufferCmp@2@V?$allocator@U?$pair@$$CBVBrn@OpenHome@@PAVCpDevice@Net@2@@std@@@std@@$0A@@std@@@2@@Z 0042e120 f i libohNetCore:CpDeviceCore.obj
 0001:0002d240       ?_Rmost@?$_Tree@V?$_Tmap_traits@VBrn@OpenHome@@PAVCpDevice@Net@2@VBufferCmp@2@V?$allocator@U?$pair@$$CBVBrn@OpenHome@@PAVCpDevice@Net@2@@std@@@std@@$0A@@std@@@std@@IBEAAPAU_Node@?$_Tree_nod@V?$_Tmap_traits@VBrn@OpenHome@@PAVCpDevice@Net@2@VBufferCmp@2@V?$allocator@U?$pair@$$CBVBrn@OpenHome@@PAVCpDevice@Net@2@@std@@@std@@$0A@@std@@@2@XZ 0042e240 f i libohNetCore:CpDeviceCore.obj
 0001:0002d270       ?_Root@?$_Tree@V?$_Tmap_traits@VBrn@OpenHome@@PAVCpDevice@Net@2@VBufferCmp@2@V?$allocator@U?$pair@$$CBVBrn@OpenHome@@PAVCpDevice@Net@2@@std@@@std@@$0A@@std@@@std@@IBEAAPAU_Node@?$_Tree_nod@V?$_Tmap_traits@VBrn@OpenHome@@PAVCpDevice@Net@2@VBufferCmp@2@V?$allocator@U?$pair@$$CBVBrn@OpenHome@@PAVCpDevice@Net@2@@std@@@std@@$0A@@std@@@2@XZ 0042e270 f i libohNetCore:CpDeviceCore.obj
 0001:0002d2a0       ?_Rrotate@?$_Tree@V?$_Tmap_traits@VBrn@OpenHome@@PAVCpDevice@Net@2@VBufferCmp@2@V?$allocator@U?$pair@$$CBVBrn@OpenHome@@PAVCpDevice@Net@2@@std@@@std@@$0A@@std@@@std@@IAEXPAU_Node@?$_Tree_nod@V?$_Tmap_traits@VBrn@OpenHome@@PAVCpDevice@Net@2@VBufferCmp@2@V?$allocator@U?$pair@$$CBVBrn@OpenHome@@PAVCpDevice@Net@2@@std@@@std@@$0A@@std@@@2@@Z 0042e2a0 f i libohNetCore:CpDeviceCore.obj
 0001:0002d3c0       ?_Orphan_ptr@?$_Tree@V?$_Tmap_traits@VBrn@OpenHome@@PAVCpDevice@Net@2@VBufferCmp@2@V?$allocator@U?$pair@$$CBVBrn@OpenHome@@PAVCpDevice@Net@2@@std@@@std@@$0A@@std@@@std@@IBEXAAV12@PAU_Node@?$_Tree_nod@V?$_Tmap_traits@VBrn@OpenHome@@PAVCpDevice@Net@2@VBufferCmp@2@V?$allocator@U?$pair@$$CBVBrn@OpenHome@@PAVCpDevice@Net@2@@std@@@std@@$0A@@std@@@2@@Z 0042e3c0 f i libohNetCore:CpDeviceCore.obj
 0001:0002d4d0       ?_Tidy@?$_Tree@V?$_Tmap_traits@VBrn@OpenHome@@PAVCpDevice@Net@2@VBufferCmp@2@V?$allocator@U?$pair@$$CBVBrn@OpenHome@@PAVCpDevice@Net@2@@std@@@std@@$0A@@std@@@std@@IAEXXZ 0042e4d0 f i libohNetCore:CpDeviceCore.obj
 0001:0002d5d0       ??1?$_Tree_val@V?$_Tmap_traits@VBrn@OpenHome@@PAVCpDevice@Net@2@VBufferCmp@2@V?$allocator@U?$pair@$$CBVBrn@OpenHome@@PAVCpDevice@Net@2@@std@@@std@@$0A@@std@@@std@@QAE@XZ 0042e5d0 f i libohNetCore:CpDeviceCore.obj
 0001:0002d640       ?_Color@?$_Tree_val@V?$_Tmap_traits@VBrn@OpenHome@@PAVCpDevice@Net@2@VBufferCmp@2@V?$allocator@U?$pair@$$CBVBrn@OpenHome@@PAVCpDevice@Net@2@@std@@@std@@$0A@@std@@@std@@SGAADPAU_Node@?$_Tree_nod@V?$_Tmap_traits@VBrn@OpenHome@@PAVCpDevice@Net@2@VBufferCmp@2@V?$allocator@U?$pair@$$CBVBrn@OpenHome@@PAVCpDevice@Net@2@@std@@@std@@$0A@@std@@@2@@Z 0042e640 f i libohNetCore:CpDeviceCore.obj
 0001:0002d650       ?_Isnil@?$_Tree_val@V?$_Tmap_traits@VBrn@OpenHome@@PAVCpDevice@Net@2@VBufferCmp@2@V?$allocator@U?$pair@$$CBVBrn@OpenHome@@PAVCpDevice@Net@2@@std@@@std@@$0A@@std@@@std@@SGAADPAU_Node@?$_Tree_nod@V?$_Tmap_traits@VBrn@OpenHome@@PAVCpDevice@Net@2@VBufferCmp@2@V?$allocator@U?$pair@$$CBVBrn@OpenHome@@PAVCpDevice@Net@2@@std@@@std@@$0A@@std@@@2@@Z 0042e650 f i libohNetCore:CpDeviceCore.obj
 0001:0002d660       ?_Key@?$_Tree_val@V?$_Tmap_traits@VBrn@OpenHome@@PAVCpDevice@Net@2@VBufferCmp@2@V?$allocator@U?$pair@$$CBVBrn@OpenHome@@PAVCpDevice@Net@2@@std@@@std@@$0A@@std@@@std@@SGAAVBrn@OpenHome@@PAU_Node@?$_Tree_nod@V?$_Tmap_traits@VBrn@OpenHome@@PAVCpDevice@Net@2@VBufferCmp@2@V?$allocator@U?$pair@$$CBVBrn@OpenHome@@PAVCpDevice@Net@2@@std@@@std@@$0A@@std@@@2@@Z 0042e660 f i libohNetCore:CpDeviceCore.obj
 0001:0002d680       ?_Left@?$_Tree_val@V?$_Tmap_traits@VBrn@OpenHome@@PAVCpDevice@Net@2@VBufferCmp@2@V?$allocator@U?$pair@$$CBVBrn@OpenHome@@PAVCpDevice@Net@2@@std@@@std@@$0A@@std@@@std@@SGAAPAU_Node@?$_Tree_nod@V?$_Tmap_traits@VBrn@OpenHome@@PAVCpDevice@Net@2@VBufferCmp@2@V?$allocator@U?$pair@$$CBVBrn@OpenHome@@PAVCpDevice@Net@2@@std@@@std@@$0A@@std@@@2@PAU342@@Z 0042e680 f i libohNetCore:CpDeviceCore.obj
 0001:0002d690       ?_Parent@?$_Tree_val@V?$_Tmap_traits@VBrn@OpenHome@@PAVCpDevice@Net@2@VBufferCmp@2@V?$allocator@U?$pair@$$CBVBrn@OpenHome@@PAVCpDevice@Net@2@@std@@@std@@$0A@@std@@@std@@SGAAPAU_Node@?$_Tree_nod@V?$_Tmap_traits@VBrn@OpenHome@@PAVCpDevice@Net@2@VBufferCmp@2@V?$allocator@U?$pair@$$CBVBrn@OpenHome@@PAVCpDevice@Net@2@@std@@@std@@$0A@@std@@@2@PAU342@@Z 0042e690 f i libohNetCore:CpDeviceCore.obj
 0001:0002d6a0       ?_Right@?$_Tree_val@V?$_Tmap_traits@VBrn@OpenHome@@PAVCpDevice@Net@2@VBufferCmp@2@V?$allocator@U?$pair@$$CBVBrn@OpenHome@@PAVCpDevice@Net@2@@std@@@std@@$0A@@std@@@std@@SGAAPAU_Node@?$_Tree_nod@V?$_Tmap_traits@VBrn@OpenHome@@PAVCpDevice@Net@2@VBufferCmp@2@V?$allocator@U?$pair@$$CBVBrn@OpenHome@@PAVCpDevice@Net@2@@std@@@std@@$0A@@std@@@2@PAU342@@Z 0042e6a0 f i libohNetCore:CpDeviceCore.obj
 0001:0002d6b0       ?_Myval@?$_Tree_val@V?$_Tmap_traits@VBrn@OpenHome@@PAVCpDevice@Net@2@VBufferCmp@2@V?$allocator@U?$pair@$$CBVBrn@OpenHome@@PAVCpDevice@Net@2@@std@@@std@@$0A@@std@@@std@@SGAAU?$pair@$$CBVBrn@OpenHome@@PAVCpDevice@Net@2@@2@PAU_Node@?$_Tree_nod@V?$_Tmap_traits@VBrn@OpenHome@@PAVCpDevice@Net@2@VBufferCmp@2@V?$allocator@U?$pair@$$CBVBrn@OpenHome@@PAVCpDevice@Net@2@@std@@@std@@$0A@@std@@@2@@Z 0042e6b0 f i libohNetCore:CpDeviceCore.obj
 0001:0002d6c0       ?_Max@?$_Tree_val@V?$_Tmap_traits@VBrn@OpenHome@@PAVCpDevice@Net@2@VBufferCmp@2@V?$allocator@U?$pair@$$CBVBrn@OpenHome@@PAVCpDevice@Net@2@@std@@@std@@$0A@@std@@@std@@SGPAU_Node@?$_Tree_nod@V?$_Tmap_traits@VBrn@OpenHome@@PAVCpDevice@Net@2@VBufferCmp@2@V?$allocator@U?$pair@$$CBVBrn@OpenHome@@PAVCpDevice@Net@2@@std@@@std@@$0A@@std@@@2@PAU342@@Z 0042e6c0 f i libohNetCore:CpDeviceCore.obj
 0001:0002d700       ?_Min@?$_Tree_val@V?$_Tmap_traits@VBrn@OpenHome@@PAVCpDevice@Net@2@VBufferCmp@2@V?$allocator@U?$pair@$$CBVBrn@OpenHome@@PAVCpDevice@Net@2@@std@@@std@@$0A@@std@@@std@@SGPAU_Node@?$_Tree_nod@V?$_Tmap_traits@VBrn@OpenHome@@PAVCpDevice@Net@2@VBufferCmp@2@V?$allocator@U?$pair@$$CBVBrn@OpenHome@@PAVCpDevice@Net@2@@std@@@std@@$0A@@std@@@2@PAU342@@Z 0042e700 f i libohNetCore:CpDeviceCore.obj
 0001:0002d740       ??0?$allocator@U?$pair@$$CBVBrn@OpenHome@@PAVCpDevice@Net@2@@std@@@std@@QAE@XZ 0042e740 f i libohNetCore:CpDeviceCore.obj
 0001:0002d760       ?deallocate@?$allocator@U_Node@?$_Tree_nod@V?$_Tmap_traits@VBrn@OpenHome@@PAVCpDevice@Net@2@VBufferCmp@2@V?$allocator@U?$pair@$$CBVBrn@OpenHome@@PAVCpDevice@Net@2@@std@@@std@@$0A@@std@@@std@@@std@@QAEXPAU_Node@?$_Tree_nod@V?$_Tmap_traits@VBrn@OpenHome@@PAVCpDevice@Net@2@VBufferCmp@2@V?$allocator@U?$pair@$$CBVBrn@OpenHome@@PAVCpDevice@Net@2@@std@@@std@@$0A@@std@@@2@I@Z 0042e760 f i libohNetCore:CpDeviceCore.obj
 0001:0002d790       ??0?$_Tree_iterator@V?$_Tree_val@V?$_Tmap_traits@VBrn@OpenHome@@PAVCpDevice@Net@2@VBufferCmp@2@V?$allocator@U?$pair@$$CBVBrn@OpenHome@@PAVCpDevice@Net@2@@std@@@std@@$0A@@std@@@std@@@std@@QAE@PAU_Node@?$_Tree_nod@V?$_Tmap_traits@VBrn@OpenHome@@PAVCpDevice@Net@2@VBufferCmp@2@V?$allocator@U?$pair@$$CBVBrn@OpenHome@@PAVCpDevice@Net@2@@std@@@std@@$0A@@std@@@1@PBV?$_Tree_val@V?$_Tmap_traits@VBrn@OpenHome@@PAVCpDevice@Net@2@VBufferCmp@2@V?$allocator@U?$pair@$$CBVBrn@OpenHome@@PAVCpDevice@Net@2@@std@@@std@@$0A@@std@@@1@@Z 0042e790 f i libohNetCore:CpDeviceCore.obj
 0001:0002d7d0       ??D?$_Tree_iterator@V?$_Tree_val@V?$_Tmap_traits@VBrn@OpenHome@@PAVCpDevice@Net@2@VBufferCmp@2@V?$allocator@U?$pair@$$CBVBrn@OpenHome@@PAVCpDevice@Net@2@@std@@@std@@$0A@@std@@@std@@@std@@QBEAAU?$pair@$$CBVBrn@OpenHome@@PAVCpDevice@Net@2@@1@XZ 0042e7d0 f i libohNetCore:CpDeviceCore.obj
 0001:0002d800       ??E?$_Tree_iterator@V?$_Tree_val@V?$_Tmap_traits@VBrn@OpenHome@@PAVCpDevice@Net@2@VBufferCmp@2@V?$allocator@U?$pair@$$CBVBrn@OpenHome@@PAVCpDevice@Net@2@@std@@@std@@$0A@@std@@@std@@@std@@QAEAAV01@XZ 0042e800 f i libohNetCore:CpDeviceCore.obj
 0001:0002d830       ??E?$_Tree_const_iterator@V?$_Tree_val@V?$_Tmap_traits@VBrn@OpenHome@@PAVCpDevice@Net@2@VBufferCmp@2@V?$allocator@U?$pair@$$CBVBrn@OpenHome@@PAVCpDevice@Net@2@@std@@@std@@$0A@@std@@@std@@@std@@QAEAAV01@XZ 0042e830 f i libohNetCore:CpDeviceCore.obj
 0001:0002d8f0       ??8?$_Tree_const_iterator@V?$_Tree_val@V?$_Tmap_traits@VBrn@OpenHome@@PAVCpDevice@Net@2@VBufferCmp@2@V?$allocator@U?$pair@$$CBVBrn@OpenHome@@PAVCpDevice@Net@2@@std@@@std@@$0A@@std@@@std@@@std@@QBE_NABV01@@Z 0042e8f0 f i libohNetCore:CpDeviceCore.obj
 0001:0002d9b0       ?_Mynode@?$_Tree_unchecked_const_iterator@V?$_Tree_val@V?$_Tmap_traits@VBrn@OpenHome@@PAVCpDevice@Net@2@VBufferCmp@2@V?$allocator@U?$pair@$$CBVBrn@OpenHome@@PAVCpDevice@Net@2@@std@@@std@@$0A@@std@@@std@@U_Iterator_base12@2@@std@@QBEPAU_Node@?$_Tree_nod@V?$_Tmap_traits@VBrn@OpenHome@@PAVCpDevice@Net@2@VBufferCmp@2@V?$allocator@U?$pair@$$CBVBrn@OpenHome@@PAVCpDevice@Net@2@@std@@@std@@$0A@@std@@@2@XZ 0042e9b0 f i libohNetCore:CpDeviceCore.obj
 0001:0002d9d0       ?erase@?$_Tree@V?$_Tmap_traits@VBrn@OpenHome@@PAVCpDevice@Net@2@VBufferCmp@2@V?$allocator@U?$pair@$$CBVBrn@OpenHome@@PAVCpDevice@Net@2@@std@@@std@@$0A@@std@@@std@@QAE?AV?$_Tree_iterator@V?$_Tree_val@V?$_Tmap_traits@VBrn@OpenHome@@PAVCpDevice@Net@2@VBufferCmp@2@V?$allocator@U?$pair@$$CBVBrn@OpenHome@@PAVCpDevice@Net@2@@std@@@std@@$0A@@std@@@std@@@2@V?$_Tree_const_iterator@V?$_Tree_val@V?$_Tmap_traits@VBrn@OpenHome@@PAVCpDevice@Net@2@VBufferCmp@2@V?$allocator@U?$pair@$$CBVBrn@OpenHome@@PAVCpDevice@Net@2@@std@@@std@@$0A@@std@@@std@@@2@0@Z 0042e9d0 f i libohNetCore:CpDeviceCore.obj
 0001:0002dbd0       ?_Lbound@?$_Tree@V?$_Tmap_traits@VBrn@OpenHome@@PAVCpDevice@Net@2@VBufferCmp@2@V?$allocator@U?$pair@$$CBVBrn@OpenHome@@PAVCpDevice@Net@2@@std@@@std@@$0A@@std@@@std@@IAEPAU_Node@?$_Tree_nod@V?$_Tmap_traits@VBrn@OpenHome@@PAVCpDevice@Net@2@VBufferCmp@2@V?$allocator@U?$pair@$$CBVBrn@OpenHome@@PAVCpDevice@Net@2@@std@@@std@@$0A@@std@@@2@ABVBrn@OpenHome@@@Z 0042ebd0 f i libohNetCore:CpDeviceCore.obj
 0001:0002dc80       ??0?$_Tree_val@V?$_Tmap_traits@VBrn@OpenHome@@PAVCpDevice@Net@2@VBufferCmp@2@V?$allocator@U?$pair@$$CBVBrn@OpenHome@@PAVCpDevice@Net@2@@std@@@std@@$0A@@std@@@std@@QAE@ABVBufferCmp@OpenHome@@V?$allocator@U?$pair@$$CBVBrn@OpenHome@@PAVCpDevice@Net@2@@std@@@1@@Z 0042ec80 f i libohNetCore:CpDeviceCore.obj
 0001:0002dd80       ??1?$_Tree_nod@V?$_Tmap_traits@VBrn@OpenHome@@PAVCpDevice@Net@2@VBufferCmp@2@V?$allocator@U?$pair@$$CBVBrn@OpenHome@@PAVCpDevice@Net@2@@std@@@std@@$0A@@std@@@std@@QAE@XZ 0042ed80 f i libohNetCore:CpDeviceCore.obj
 0001:0002de60       ??0?$allocator@U?$pair@$$CBVBrn@OpenHome@@PAVCpDevice@Net@2@@std@@@std@@QAE@ABV01@@Z 0042ee60 f i libohNetCore:CpDeviceCore.obj
 0001:0002de80       ??0?$_Tree_const_iterator@V?$_Tree_val@V?$_Tmap_traits@VBrn@OpenHome@@PAVCpDevice@Net@2@VBufferCmp@2@V?$allocator@U?$pair@$$CBVBrn@OpenHome@@PAVCpDevice@Net@2@@std@@@std@@$0A@@std@@@std@@@std@@QAE@PAU_Node@?$_Tree_nod@V?$_Tmap_traits@VBrn@OpenHome@@PAVCpDevice@Net@2@VBufferCmp@2@V?$allocator@U?$pair@$$CBVBrn@OpenHome@@PAVCpDevice@Net@2@@std@@@std@@$0A@@std@@@1@PBV?$_Tree_val@V?$_Tmap_traits@VBrn@OpenHome@@PAVCpDevice@Net@2@VBufferCmp@2@V?$allocator@U?$pair@$$CBVBrn@OpenHome@@PAVCpDevice@Net@2@@std@@@std@@$0A@@std@@@1@@Z 0042ee80 f i libohNetCore:CpDeviceCore.obj
 0001:0002dec0       ??D?$_Tree_const_iterator@V?$_Tree_val@V?$_Tmap_traits@VBrn@OpenHome@@PAVCpDevice@Net@2@VBufferCmp@2@V?$allocator@U?$pair@$$CBVBrn@OpenHome@@PAVCpDevice@Net@2@@std@@@std@@$0A@@std@@@std@@@std@@QBEABU?$pair@$$CBVBrn@OpenHome@@PAVCpDevice@Net@2@@1@XZ 0042eec0 f i libohNetCore:CpDeviceCore.obj
 0001:0002df80       ??E?$_Tree_unchecked_const_iterator@V?$_Tree_val@V?$_Tmap_traits@VBrn@OpenHome@@PAVCpDevice@Net@2@VBufferCmp@2@V?$allocator@U?$pair@$$CBVBrn@OpenHome@@PAVCpDevice@Net@2@@std@@@std@@$0A@@std@@@std@@U_Iterator_base12@2@@std@@QAEAAV01@XZ 0042ef80 f i libohNetCore:CpDeviceCore.obj
 0001:0002e040       ??1?$_Tmap_traits@VBrn@OpenHome@@PAVCpDevice@Net@2@VBufferCmp@2@V?$allocator@U?$pair@$$CBVBrn@OpenHome@@PAVCpDevice@Net@2@@std@@@std@@$0A@@std@@QAE@XZ 0042f040 f i libohNetCore:CpDeviceCore.obj
 0001:0002e070       ??0?$_Tree_nod@V?$_Tmap_traits@VBrn@OpenHome@@PAVCpDevice@Net@2@VBufferCmp@2@V?$allocator@U?$pair@$$CBVBrn@OpenHome@@PAVCpDevice@Net@2@@std@@@std@@$0A@@std@@@std@@QAE@ABVBufferCmp@OpenHome@@V?$allocator@U?$pair@$$CBVBrn@OpenHome@@PAVCpDevice@Net@2@@std@@@1@@Z 0042f070 f i libohNetCore:CpDeviceCore.obj
 0001:0002e180       ?allocate@?$allocator@U_Node@?$_Tree_nod@V?$_Tmap_traits@VBrn@OpenHome@@PAVCpDevice@Net@2@VBufferCmp@2@V?$allocator@U?$pair@$$CBVBrn@OpenHome@@PAVCpDevice@Net@2@@std@@@std@@$0A@@std@@@std@@@std@@QAEPAU_Node@?$_Tree_nod@V?$_Tmap_traits@VBrn@OpenHome@@PAVCpDevice@Net@2@VBufferCmp@2@V?$allocator@U?$pair@$$CBVBrn@OpenHome@@PAVCpDevice@Net@2@@std@@@std@@$0A@@std@@@2@I@Z 0042f180 f i libohNetCore:CpDeviceCore.obj
 0001:0002e1b0       ??E?$_Tree_const_iterator@V?$_Tree_val@V?$_Tmap_traits@VBrn@OpenHome@@PAVCpDevice@Net@2@VBufferCmp@2@V?$allocator@U?$pair@$$CBVBrn@OpenHome@@PAVCpDevice@Net@2@@std@@@std@@$0A@@std@@@std@@@std@@QAE?AV01@H@Z 0042f1b0 f i libohNetCore:CpDeviceCore.obj
 0001:0002e280       ??0?$_Tree_unchecked_const_iterator@V?$_Tree_val@V?$_Tmap_traits@VBrn@OpenHome@@PAVCpDevice@Net@2@VBufferCmp@2@V?$allocator@U?$pair@$$CBVBrn@OpenHome@@PAVCpDevice@Net@2@@std@@@std@@$0A@@std@@@std@@U_Iterator_base12@2@@std@@QAE@PAU_Node@?$_Tree_nod@V?$_Tmap_traits@VBrn@OpenHome@@PAVCpDevice@Net@2@VBufferCmp@2@V?$allocator@U?$pair@$$CBVBrn@OpenHome@@PAVCpDevice@Net@2@@std@@@std@@$0A@@std@@@1@PBV?$_Tree_val@V?$_Tmap_traits@VBrn@OpenHome@@PAVCpDevice@Net@2@VBufferCmp@2@V?$allocator@U?$pair@$$CBVBrn@OpenHome@@PAVCpDevice@Net@2@@std@@@std@@$0A@@std@@@1@@Z 0042f280 f i libohNetCore:CpDeviceCore.obj
 0001:0002e300       ??0?$_Iterator012@Ubidirectional_iterator_tag@std@@U?$pair@$$CBVBrn@OpenHome@@PAVCpDevice@Net@2@@2@HPBU32@ABU32@U_Iterator_base12@2@@std@@QAE@XZ 0042f300 f i libohNetCore:CpDeviceCore.obj
 0001:0002e330       ??0?$_Tmap_traits@VBrn@OpenHome@@PAVCpDevice@Net@2@VBufferCmp@2@V?$allocator@U?$pair@$$CBVBrn@OpenHome@@PAVCpDevice@Net@2@@std@@@std@@$0A@@std@@QAE@VBufferCmp@OpenHome@@@Z 0042f330 f i libohNetCore:CpDeviceCore.obj
 0001:0002e360       ??$MakeFunctorCpiDevice@VCpDeviceList@Net@OpenHome@@V123@@Net@OpenHome@@YG?AV?$MemberTranslatorCpiDevice@VCpDeviceList@Net@OpenHome@@P8123@AEXAAVCpiDevice@23@@Z@01@AAVCpDeviceList@01@ABQ8301@AEXAAVCpiDevice@01@@Z@Z 0042f360 f i libohNetCore:CpDeviceCore.obj
 0001:0002e390       ??$?0AAVBrn@OpenHome@@AAPAVCpDevice@Net@1@@?$pair@VBrn@OpenHome@@PAVCpDevice@Net@2@@std@@QAE@AAVBrn@OpenHome@@AAPAVCpDevice@Net@3@@Z 0042f390 f i libohNetCore:CpDeviceCore.obj
 0001:0002e3d0       ??$insert@U?$pair@VBrn@OpenHome@@PAVCpDevice@Net@2@@std@@@?$_Tree@V?$_Tmap_traits@VBrn@OpenHome@@PAVCpDevice@Net@2@VBufferCmp@2@V?$allocator@U?$pair@$$CBVBrn@OpenHome@@PAVCpDevice@Net@2@@std@@@std@@$0A@@std@@@std@@QAE?AU?$pair@V?$_Tree_iterator@V?$_Tree_val@V?$_Tmap_traits@VBrn@OpenHome@@PAVCpDevice@Net@2@VBufferCmp@2@V?$allocator@U?$pair@$$CBVBrn@OpenHome@@PAVCpDevice@Net@2@@std@@@std@@$0A@@std@@@std@@@std@@_N@1@$$QAU?$pair@VBrn@OpenHome@@PAVCpDevice@Net@2@@1@@Z 0042f3d0 f i libohNetCore:CpDeviceCore.obj
 0001:0002e430       ??$addressof@U?$pair@$$CBVBrn@OpenHome@@PAVCpDevice@Net@2@@std@@@std@@YGPAU?$pair@$$CBVBrn@OpenHome@@PAVCpDevice@Net@2@@0@AAU10@@Z 0042f430 f i libohNetCore:CpDeviceCore.obj
 0001:0002e440       ??$_Dest_val@V?$allocator@U?$pair@$$CBVBrn@OpenHome@@PAVCpDevice@Net@2@@std@@@std@@U?$pair@$$CBVBrn@OpenHome@@PAVCpDevice@Net@2@@2@@std@@YGXAAV?$allocator@U?$pair@$$CBVBrn@OpenHome@@PAVCpDevice@Net@2@@std@@@0@PAU?$pair@$$CBVBrn@OpenHome@@PAVCpDevice@Net@2@@0@@Z 0042f440 f i libohNetCore:CpDeviceCore.obj
 0001:0002e460       ??$_Kfn@$$CBVBrn@OpenHome@@PAVCpDevice@Net@2@@?$_Tmap_traits@VBrn@OpenHome@@PAVCpDevice@Net@2@VBufferCmp@2@V?$allocator@U?$pair@$$CBVBrn@OpenHome@@PAVCpDevice@Net@2@@std@@@std@@$0A@@std@@SGABVBrn@OpenHome@@ABU?$pair@$$CBVBrn@OpenHome@@PAVCpDevice@Net@2@@1@@Z 0042f460 f i libohNetCore:CpDeviceCore.obj
 0001:0002e470       ??$?0U_Node@?$_Tree_nod@V?$_Tmap_traits@VBrn@OpenHome@@PAVCpDevice@Net@2@VBufferCmp@2@V?$allocator@U?$pair@$$CBVBrn@OpenHome@@PAVCpDevice@Net@2@@std@@@std@@$0A@@std@@@std@@@?$allocator@U_Container_proxy@std@@@std@@QAE@ABV?$allocator@U_Node@?$_Tree_nod@V?$_Tmap_traits@VBrn@OpenHome@@PAVCpDevice@Net@2@VBufferCmp@2@V?$allocator@U?$pair@$$CBVBrn@OpenHome@@PAVCpDevice@Net@2@@std@@@std@@$0A@@std@@@std@@@1@@Z 0042f470 f i libohNetCore:CpDeviceCore.obj
 0001:0002e490       ??$?0U?$pair@$$CBVBrn@OpenHome@@PAVCpDevice@Net@2@@std@@@?$allocator@U_Node@?$_Tree_nod@V?$_Tmap_traits@VBrn@OpenHome@@PAVCpDevice@Net@2@VBufferCmp@2@V?$allocator@U?$pair@$$CBVBrn@OpenHome@@PAVCpDevice@Net@2@@std@@@std@@$0A@@std@@@std@@@std@@QAE@ABV?$allocator@U?$pair@$$CBVBrn@OpenHome@@PAVCpDevice@Net@2@@std@@@1@@Z 0042f490 f i libohNetCore:CpDeviceCore.obj
 0001:0002e4b0       ??$_Allocate@U_Node@?$_Tree_nod@V?$_Tmap_traits@VBrn@OpenHome@@PAVCpDevice@Net@2@VBufferCmp@2@V?$allocator@U?$pair@$$CBVBrn@OpenHome@@PAVCpDevice@Net@2@@std@@@std@@$0A@@std@@@std@@@std@@YGPAU_Node@?$_Tree_nod@V?$_Tmap_traits@VBrn@OpenHome@@PAVCpDevice@Net@2@VBufferCmp@2@V?$allocator@U?$pair@$$CBVBrn@OpenHome@@PAVCpDevice@Net@2@@std@@@std@@$0A@@std@@@0@IPAU120@@Z 0042f4b0 f i libohNetCore:CpDeviceCore.obj
 0001:0002e530       ?_Linsert@?$_Tree@V?$_Tmap_traits@VBrn@OpenHome@@PAVCpDevice@Net@2@VBufferCmp@2@V?$allocator@U?$pair@$$CBVBrn@OpenHome@@PAVCpDevice@Net@2@@std@@@std@@$0A@@std@@@std@@QAE?AU?$pair@V?$_Tree_iterator@V?$_Tree_val@V?$_Tmap_traits@VBrn@OpenHome@@PAVCpDevice@Net@2@VBufferCmp@2@V?$allocator@U?$pair@$$CBVBrn@OpenHome@@PAVCpDevice@Net@2@@std@@@std@@$0A@@std@@@std@@@std@@_N@2@PAU_Node@?$_Tree_nod@V?$_Tmap_traits@VBrn@OpenHome@@PAVCpDevice@Net@2@VBufferCmp@2@V?$allocator@U?$pair@$$CBVBrn@OpenHome@@PAVCpDevice@Net@2@@std@@@std@@$0A@@std@@@2@_N@Z 0042f530 f i libohNetCore:CpDeviceCore.obj
 0001:0002e910       ?destroy@?$allocator@U?$pair@$$CBVBrn@OpenHome@@PAVCpDevice@Net@2@@std@@@std@@QAEXPAU?$pair@$$CBVBrn@OpenHome@@PAVCpDevice@Net@2@@2@@Z 0042f910 f i libohNetCore:CpDeviceCore.obj
 0001:0002e940       ??0?$MemberTranslatorCpiDevice@VCpDeviceList@Net@OpenHome@@P8123@AEXAAVCpiDevice@23@@Z@Net@OpenHome@@QAE@AAVCpDeviceList@12@ABQ8312@AEXAAVCpiDevice@12@@Z@Z 0042f940 f i libohNetCore:CpDeviceCore.obj
 0001:0002e980       ??0FunctorCpiDevice@Net@OpenHome@@IAE@P6GXABV012@AAVCpiDevice@12@@ZPBX3I@Z 0042f980 f i libohNetCore:CpDeviceCore.obj
 0001:0002e9d0       ?_Insert@?$_Tree@V?$_Tmap_traits@VBrn@OpenHome@@PAVCpDevice@Net@2@VBufferCmp@2@V?$allocator@U?$pair@$$CBVBrn@OpenHome@@PAVCpDevice@Net@2@@std@@@std@@$0A@@std@@@std@@IAE?AV?$_Tree_iterator@V?$_Tree_val@V?$_Tmap_traits@VBrn@OpenHome@@PAVCpDevice@Net@2@VBufferCmp@2@V?$allocator@U?$pair@$$CBVBrn@OpenHome@@PAVCpDevice@Net@2@@std@@@std@@$0A@@std@@@std@@@2@_NPAU_Node@?$_Tree_nod@V?$_Tmap_traits@VBrn@OpenHome@@PAVCpDevice@Net@2@VBufferCmp@2@V?$allocator@U?$pair@$$CBVBrn@OpenHome@@PAVCpDevice@Net@2@@std@@@std@@$0A@@std@@@2@1@Z 0042f9d0 f i libohNetCore:CpDeviceCore.obj
 0001:0002ed90       ??F?$_Tree_iterator@V?$_Tree_val@V?$_Tmap_traits@VBrn@OpenHome@@PAVCpDevice@Net@2@VBufferCmp@2@V?$allocator@U?$pair@$$CBVBrn@OpenHome@@PAVCpDevice@Net@2@@std@@@std@@$0A@@std@@@std@@@std@@QAEAAV01@XZ 0042fd90 f i libohNetCore:CpDeviceCore.obj
 0001:0002edc0       ?Thunk@?$MemberTranslatorCpiDevice@VCpDeviceList@Net@OpenHome@@P8123@AEXAAVCpiDevice@23@@Z@Net@OpenHome@@SGXABVFunctorCpiDevice@23@AAVCpiDevice@23@@Z 0042fdc0 f i libohNetCore:CpDeviceCore.obj
 0001:0002ee10       ??0?$pair@V?$_Tree_iterator@V?$_Tree_val@V?$_Tmap_traits@VBrn@OpenHome@@PAVCpDevice@Net@2@VBufferCmp@2@V?$allocator@U?$pair@$$CBVBrn@OpenHome@@PAVCpDevice@Net@2@@std@@@std@@$0A@@std@@@std@@@std@@_N@std@@QAE@$$QAV?$_Tree_iterator@V?$_Tree_val@V?$_Tmap_traits@VBrn@OpenHome@@PAVCpDevice@Net@2@VBufferCmp@2@V?$allocator@U?$pair@$$CBVBrn@OpenHome@@PAVCpDevice@Net@2@@std@@@std@@$0A@@std@@@std@@@1@$$QA_N@Z 0042fe10 f i libohNetCore:CpDeviceCore.obj
 0001:0002ee50       ?max_size@?$_Tree@V?$_Tmap_traits@VBrn@OpenHome@@PAVCpDevice@Net@2@VBufferCmp@2@V?$allocator@U?$pair@$$CBVBrn@OpenHome@@PAVCpDevice@Net@2@@std@@@std@@$0A@@std@@@std@@QBEIXZ 0042fe50 f i libohNetCore:CpDeviceCore.obj
 0001:0002ee80       ??F?$_Tree_const_iterator@V?$_Tree_val@V?$_Tmap_traits@VBrn@OpenHome@@PAVCpDevice@Net@2@VBufferCmp@2@V?$allocator@U?$pair@$$CBVBrn@OpenHome@@PAVCpDevice@Net@2@@std@@@std@@$0A@@std@@@std@@@std@@QAEAAV01@XZ 0042fe80 f i libohNetCore:CpDeviceCore.obj
 0001:0002efa0       ??0?$_Pair_base@V?$_Tree_iterator@V?$_Tree_val@V?$_Tmap_traits@VBrn@OpenHome@@PAVCpDevice@Net@2@VBufferCmp@2@V?$allocator@U?$pair@$$CBVBrn@OpenHome@@PAVCpDevice@Net@2@@std@@@std@@$0A@@std@@@std@@@std@@_N@std@@QAE@$$QAV?$_Tree_iterator@V?$_Tree_val@V?$_Tmap_traits@VBrn@OpenHome@@PAVCpDevice@Net@2@VBufferCmp@2@V?$allocator@U?$pair@$$CBVBrn@OpenHome@@PAVCpDevice@Net@2@@std@@@std@@$0A@@std@@@std@@@1@$$QA_N@Z 0042ffa0 f i libohNetCore:CpDeviceCore.obj
 0001:0002f020       ?max_size@?$allocator@U?$pair@$$CBVBrn@OpenHome@@PAVCpDevice@Net@2@@std@@@std@@QBEIXZ 00430020 f i libohNetCore:CpDeviceCore.obj
 0001:0002f070       ??F?$_Tree_unchecked_const_iterator@V?$_Tree_val@V?$_Tmap_traits@VBrn@OpenHome@@PAVCpDevice@Net@2@VBufferCmp@2@V?$allocator@U?$pair@$$CBVBrn@OpenHome@@PAVCpDevice@Net@2@@std@@@std@@$0A@@std@@@std@@U_Iterator_base12@2@@std@@QAEAAV01@XZ 00430070 f i libohNetCore:CpDeviceCore.obj
 0001:0002f160       ??$forward@AAPAVCpDevice@Net@OpenHome@@@std@@YGAAPAVCpDevice@Net@OpenHome@@AAPAV123@@Z 00430160 f i libohNetCore:CpDeviceCore.obj
 0001:0002f170       ??$?0AAVBrn@OpenHome@@AAPAVCpDevice@Net@1@@?$_Pair_base@VBrn@OpenHome@@PAVCpDevice@Net@2@@std@@QAE@AAVBrn@OpenHome@@AAPAVCpDevice@Net@3@@Z 00430170 f i libohNetCore:CpDeviceCore.obj
 0001:0002f1f0       ??$forward@U?$pair@VBrn@OpenHome@@PAVCpDevice@Net@2@@std@@@std@@YG$$QAU?$pair@VBrn@OpenHome@@PAVCpDevice@Net@2@@0@AAU10@@Z 004301f0 f i libohNetCore:CpDeviceCore.obj
 0001:0002f200       ??$_Buynode@U?$pair@VBrn@OpenHome@@PAVCpDevice@Net@2@@std@@@?$_Tree_val@V?$_Tmap_traits@VBrn@OpenHome@@PAVCpDevice@Net@2@VBufferCmp@2@V?$allocator@U?$pair@$$CBVBrn@OpenHome@@PAVCpDevice@Net@2@@std@@@std@@$0A@@std@@@std@@QAEPAU_Node@?$_Tree_nod@V?$_Tmap_traits@VBrn@OpenHome@@PAVCpDevice@Net@2@VBufferCmp@2@V?$allocator@U?$pair@$$CBVBrn@OpenHome@@PAVCpDevice@Net@2@@std@@@std@@$0A@@std@@@1@$$QAU?$pair@VBrn@OpenHome@@PAVCpDevice@Net@2@@1@@Z 00430200 f i libohNetCore:CpDeviceCore.obj
 0001:0002f2e0       ??$?0AAV?$_Tree_iterator@V?$_Tree_val@V?$_Tmap_traits@VBrn@OpenHome@@PAVCpDevice@Net@2@VBufferCmp@2@V?$allocator@U?$pair@$$CBVBrn@OpenHome@@PAVCpDevice@Net@2@@std@@@std@@$0A@@std@@@std@@@std@@_N@?$pair@V?$_Tree_iterator@V?$_Tree_val@V?$_Tmap_traits@VBrn@OpenHome@@PAVCpDevice@Net@2@VBufferCmp@2@V?$allocator@U?$pair@$$CBVBrn@OpenHome@@PAVCpDevice@Net@2@@std@@@std@@$0A@@std@@@std@@@std@@_N@std@@QAE@AAV?$_Tree_iterator@V?$_Tree_val@V?$_Tmap_traits@VBrn@OpenHome@@PAVCpDevice@Net@2@VBufferCmp@2@V?$allocator@U?$pair@$$CBVBrn@OpenHome@@PAVCpDevice@Net@2@@std@@@std@@$0A@@std@@@std@@@1@$$QA_N@Z 004302e0 f i libohNetCore:CpDeviceCore.obj
 0001:0002f320       ??$_Destroy@U?$pair@$$CBVBrn@OpenHome@@PAVCpDevice@Net@2@@std@@@std@@YGXPAU?$pair@$$CBVBrn@OpenHome@@PAVCpDevice@Net@2@@0@@Z 00430320 f i libohNetCore:CpDeviceCore.obj
 0001:0002f340       ??$move@AAV?$_Tree_iterator@V?$_Tree_val@V?$_Tmap_traits@VBrn@OpenHome@@PAVCpDevice@Net@2@VBufferCmp@2@V?$allocator@U?$pair@$$CBVBrn@OpenHome@@PAVCpDevice@Net@2@@std@@@std@@$0A@@std@@@std@@@std@@@std@@YG$$QAV?$_Tree_iterator@V?$_Tree_val@V?$_Tmap_traits@VBrn@OpenHome@@PAVCpDevice@Net@2@VBufferCmp@2@V?$allocator@U?$pair@$$CBVBrn@OpenHome@@PAVCpDevice@Net@2@@std@@@std@@$0A@@std@@@std@@@0@AAV10@@Z 00430340 f i libohNetCore:CpDeviceCore.obj
 0001:0002f350       ??_G?$pair@$$CBVBrn@OpenHome@@PAVCpDevice@Net@2@@std@@QAEPAXI@Z 00430350 f i libohNetCore:CpDeviceCore.obj
 0001:0002f390       ??1?$pair@$$CBVBrn@OpenHome@@PAVCpDevice@Net@2@@std@@QAE@XZ 00430390 f i libohNetCore:CpDeviceCore.obj
 0001:0002f3c0       ??1?$_Pair_base@$$CBVBrn@OpenHome@@PAVCpDevice@Net@2@@std@@QAE@XZ 004303c0 f i libohNetCore:CpDeviceCore.obj
 0001:0002f3f0       ?_Buynode@?$_Tree_val@V?$_Tmap_traits@VBrn@OpenHome@@PAVCpDevice@Net@2@VBufferCmp@2@V?$allocator@U?$pair@$$CBVBrn@OpenHome@@PAVCpDevice@Net@2@@std@@@std@@$0A@@std@@@std@@QAEPAU_Node@?$_Tree_nod@V?$_Tmap_traits@VBrn@OpenHome@@PAVCpDevice@Net@2@VBufferCmp@2@V?$allocator@U?$pair@$$CBVBrn@OpenHome@@PAVCpDevice@Net@2@@std@@@std@@$0A@@std@@@2@XZ 004303f0 f i libohNetCore:CpDeviceCore.obj
 0001:0002f480       ??$_Cons_val@V?$allocator@U?$pair@$$CBVBrn@OpenHome@@PAVCpDevice@Net@2@@std@@@std@@U?$pair@$$CBVBrn@OpenHome@@PAVCpDevice@Net@2@@2@U?$pair@VBrn@OpenHome@@PAVCpDevice@Net@2@@2@@std@@YGXAAV?$allocator@U?$pair@$$CBVBrn@OpenHome@@PAVCpDevice@Net@2@@std@@@0@PAU?$pair@$$CBVBrn@OpenHome@@PAVCpDevice@Net@2@@0@$$QAU?$pair@VBrn@OpenHome@@PAVCpDevice@Net@2@@0@@Z 00430480 f i libohNetCore:CpDeviceCore.obj
 0001:0002f4b0       ??$forward@AAV?$_Tree_iterator@V?$_Tree_val@V?$_Tmap_traits@VBrn@OpenHome@@PAVCpDevice@Net@2@VBufferCmp@2@V?$allocator@U?$pair@$$CBVBrn@OpenHome@@PAVCpDevice@Net@2@@std@@@std@@$0A@@std@@@std@@@std@@@std@@YGAAV?$_Tree_iterator@V?$_Tree_val@V?$_Tmap_traits@VBrn@OpenHome@@PAVCpDevice@Net@2@VBufferCmp@2@V?$allocator@U?$pair@$$CBVBrn@OpenHome@@PAVCpDevice@Net@2@@std@@@std@@$0A@@std@@@std@@@0@AAV10@@Z 004304b0 f i libohNetCore:CpDeviceCore.obj
 0001:0002f4c0       ??$?0AAV?$_Tree_iterator@V?$_Tree_val@V?$_Tmap_traits@VBrn@OpenHome@@PAVCpDevice@Net@2@VBufferCmp@2@V?$allocator@U?$pair@$$CBVBrn@OpenHome@@PAVCpDevice@Net@2@@std@@@std@@$0A@@std@@@std@@@std@@_N@?$_Pair_base@V?$_Tree_iterator@V?$_Tree_val@V?$_Tmap_traits@VBrn@OpenHome@@PAVCpDevice@Net@2@VBufferCmp@2@V?$allocator@U?$pair@$$CBVBrn@OpenHome@@PAVCpDevice@Net@2@@std@@@std@@$0A@@std@@@std@@@std@@_N@std@@QAE@AAV?$_Tree_iterator@V?$_Tree_val@V?$_Tmap_traits@VBrn@OpenHome@@PAVCpDevice@Net@2@VBufferCmp@2@V?$allocator@U?$pair@$$CBVBrn@OpenHome@@PAVCpDevice@Net@2@@std@@@std@@$0A@@std@@@std@@@1@$$QA_N@Z 004304c0 f i libohNetCore:CpDeviceCore.obj
 0001:0002f540       ??$construct@U?$pair@VBrn@OpenHome@@PAVCpDevice@Net@2@@std@@@?$allocator@U?$pair@$$CBVBrn@OpenHome@@PAVCpDevice@Net@2@@std@@@std@@QAEXPAU?$pair@$$CBVBrn@OpenHome@@PAVCpDevice@Net@2@@1@$$QAU?$pair@VBrn@OpenHome@@PAVCpDevice@Net@2@@1@@Z 00430540 f i libohNetCore:CpDeviceCore.obj
 0001:0002f5e0       ??$?0VBrn@OpenHome@@PAVCpDevice@Net@1@@?$pair@$$CBVBrn@OpenHome@@PAVCpDevice@Net@2@@std@@QAE@$$QAU?$pair@VBrn@OpenHome@@PAVCpDevice@Net@2@@1@@Z 004305e0 f i libohNetCore:CpDeviceCore.obj
 0001:0002f620       ??$?0VBrn@OpenHome@@PAVCpDevice@Net@1@@?$_Pair_base@$$CBVBrn@OpenHome@@PAVCpDevice@Net@2@@std@@QAE@$$QAVBrn@OpenHome@@$$QAPAVCpDevice@Net@3@@Z 00430620 f i libohNetCore:CpDeviceCore.obj
 0001:0002f6a0       ?Subscribe@CpProxy@Net@OpenHome@@QAEXXZ 004306a0 f   libohNetCore:CpProxy.obj
 0001:0002f780       ?Unsubscribe@CpProxy@Net@OpenHome@@QAEXXZ 00430780 f   libohNetCore:CpProxy.obj
 0001:0002f7f0       ??0CpProxy@Net@OpenHome@@IAE@PBD0IAAVCpiDevice@12@@Z 004307f0 f   libohNetCore:CpProxy.obj
 0001:0002f9d0       ??1CpProxy@Net@OpenHome@@MAE@XZ 004309d0 f   libohNetCore:CpProxy.obj
 0001:0002fc60       ?AddProperty@CpProxy@Net@OpenHome@@IAEXPAVProperty@23@@Z 00430c60 f   libohNetCore:CpProxy.obj
 0001:0002fd70       ?DestroyService@CpProxy@Net@OpenHome@@IAEXXZ 00430d70 f   libohNetCore:CpProxy.obj
 0001:0002fdd0       ?SetPropertyChanged@CpProxy@Net@OpenHome@@QAEXAAVFunctor@3@@Z 00430dd0 f   libohNetCore:CpProxy.obj
 0001:0002fe30       ?SetPropertyInitialEvent@CpProxy@Net@OpenHome@@QAEXAAVFunctor@3@@Z 00430e30 f   libohNetCore:CpProxy.obj
 0001:0002feb0       ?PropertyReadLock@CpProxy@Net@OpenHome@@IBEXXZ 00430eb0 f   libohNetCore:CpProxy.obj
 0001:0002fee0       ?PropertyReadUnlock@CpProxy@Net@OpenHome@@IBEXXZ 00430ee0 f   libohNetCore:CpProxy.obj
 0001:0002ff10       ?ReportEvent@CpProxy@Net@OpenHome@@IAEXVFunctor@3@@Z 00430f10 f   libohNetCore:CpProxy.obj
 0001:0002ff80       ?EventUpdateStart@CpProxy@Net@OpenHome@@EAEXXZ 00430f80 f   libohNetCore:CpProxy.obj
 0001:0002ffb0       ?EventUpdate@CpProxy@Net@OpenHome@@EAEXABVBrx@3@0AAVIOutputProcessor@23@@Z 00430fb0 f   libohNetCore:CpProxy.obj
 0001:00030100       ?EventUpdateEnd@CpProxy@Net@OpenHome@@EAEXXZ 00431100 f   libohNetCore:CpProxy.obj
 0001:00030310       ??_ECpProxy@Net@OpenHome@@MAEPAXI@Z 00431310 f i libohNetCore:CpProxy.obj
 0001:00030390       ??0IEventProcessor@Net@OpenHome@@QAE@XZ 00431390 f i libohNetCore:CpProxy.obj
 0001:000303b0       ??1?$map@VBrn@OpenHome@@PAVProperty@Net@2@VBufferCmp@2@V?$allocator@U?$pair@$$CBVBrn@OpenHome@@PAVProperty@Net@2@@std@@@std@@@std@@QAE@XZ 004313b0 f i libohNetCore:CpProxy.obj
 0001:000303e0       ??_GCpiService@Net@OpenHome@@QAEPAXI@Z 004313e0 f i libohNetCore:CpProxy.obj
 0001:00030420       ??1?$_Tree_iterator@V?$_Tree_val@V?$_Tmap_traits@VBrn@OpenHome@@PAVProperty@Net@2@VBufferCmp@2@V?$allocator@U?$pair@$$CBVBrn@OpenHome@@PAVProperty@Net@2@@std@@@std@@$0A@@std@@@std@@@std@@QAE@XZ 00431420 f i libohNetCore:CpProxy.obj
 0001:00030450       ??1?$_Tree_const_iterator@V?$_Tree_val@V?$_Tmap_traits@VBrn@OpenHome@@PAVProperty@Net@2@VBufferCmp@2@V?$allocator@U?$pair@$$CBVBrn@OpenHome@@PAVProperty@Net@2@@std@@@std@@$0A@@std@@@std@@@std@@QAE@XZ 00431450 f i libohNetCore:CpProxy.obj
 0001:00030480       ??1?$_Tree_unchecked_const_iterator@V?$_Tree_val@V?$_Tmap_traits@VBrn@OpenHome@@PAVProperty@Net@2@VBufferCmp@2@V?$allocator@U?$pair@$$CBVBrn@OpenHome@@PAVProperty@Net@2@@std@@@std@@$0A@@std@@@std@@U_Iterator_base12@2@@std@@QAE@XZ 00431480 f i libohNetCore:CpProxy.obj
 0001:000304b0       ??1?$_Iterator012@Ubidirectional_iterator_tag@std@@U?$pair@$$CBVBrn@OpenHome@@PAVProperty@Net@2@@2@HPBU32@ABU32@U_Iterator_base12@2@@std@@QAE@XZ 004314b0 f i libohNetCore:CpProxy.obj
 0001:000304e0       ??1?$pair@VBrn@OpenHome@@PAVProperty@Net@2@@std@@QAE@XZ 004314e0 f i libohNetCore:CpProxy.obj
 0001:00030510       ??1?$pair@V?$_Tree_iterator@V?$_Tree_val@V?$_Tmap_traits@VBrn@OpenHome@@PAVProperty@Net@2@VBufferCmp@2@V?$allocator@U?$pair@$$CBVBrn@OpenHome@@PAVProperty@Net@2@@std@@@std@@$0A@@std@@@std@@@std@@_N@std@@QAE@XZ 00431510 f i libohNetCore:CpProxy.obj
 0001:00030540       ??1?$_Pair_base@VBrn@OpenHome@@PAVProperty@Net@2@@std@@QAE@XZ 00431540 f i libohNetCore:CpProxy.obj
 0001:00030570       ??1?$_Pair_base@V?$_Tree_iterator@V?$_Tree_val@V?$_Tmap_traits@VBrn@OpenHome@@PAVProperty@Net@2@VBufferCmp@2@V?$allocator@U?$pair@$$CBVBrn@OpenHome@@PAVProperty@Net@2@@std@@@std@@$0A@@std@@@std@@@std@@_N@std@@QAE@XZ 00431570 f i libohNetCore:CpProxy.obj
 0001:000305a0       ??0?$map@VBrn@OpenHome@@PAVProperty@Net@2@VBufferCmp@2@V?$allocator@U?$pair@$$CBVBrn@OpenHome@@PAVProperty@Net@2@@std@@@std@@@std@@QAE@XZ 004315a0 f i libohNetCore:CpProxy.obj
 0001:000305f0       ??1?$_Tree@V?$_Tmap_traits@VBrn@OpenHome@@PAVProperty@Net@2@VBufferCmp@2@V?$allocator@U?$pair@$$CBVBrn@OpenHome@@PAVProperty@Net@2@@std@@@std@@$0A@@std@@@std@@QAE@XZ 004315f0 f i libohNetCore:CpProxy.obj
 0001:00030660       ?begin@?$_Tree@V?$_Tmap_traits@VBrn@OpenHome@@PAVProperty@Net@2@VBufferCmp@2@V?$allocator@U?$pair@$$CBVBrn@OpenHome@@PAVProperty@Net@2@@std@@@std@@$0A@@std@@@std@@QAE?AV?$_Tree_iterator@V?$_Tree_val@V?$_Tmap_traits@VBrn@OpenHome@@PAVProperty@Net@2@VBufferCmp@2@V?$allocator@U?$pair@$$CBVBrn@OpenHome@@PAVProperty@Net@2@@std@@@std@@$0A@@std@@@std@@@2@XZ 00431660 f i libohNetCore:CpProxy.obj
 0001:000306c0       ?end@?$_Tree@V?$_Tmap_traits@VBrn@OpenHome@@PAVProperty@Net@2@VBufferCmp@2@V?$allocator@U?$pair@$$CBVBrn@OpenHome@@PAVProperty@Net@2@@std@@@std@@$0A@@std@@@std@@QAE?AV?$_Tree_iterator@V?$_Tree_val@V?$_Tmap_traits@VBrn@OpenHome@@PAVProperty@Net@2@VBufferCmp@2@V?$allocator@U?$pair@$$CBVBrn@OpenHome@@PAVProperty@Net@2@@std@@@std@@$0A@@std@@@std@@@2@XZ 004316c0 f i libohNetCore:CpProxy.obj
 0001:00030710       ?find@?$_Tree@V?$_Tmap_traits@VBrn@OpenHome@@PAVProperty@Net@2@VBufferCmp@2@V?$allocator@U?$pair@$$CBVBrn@OpenHome@@PAVProperty@Net@2@@std@@@std@@$0A@@std@@@std@@QAE?AV?$_Tree_iterator@V?$_Tree_val@V?$_Tmap_traits@VBrn@OpenHome@@PAVProperty@Net@2@VBufferCmp@2@V?$allocator@U?$pair@$$CBVBrn@OpenHome@@PAVProperty@Net@2@@std@@@std@@$0A@@std@@@std@@@2@ABVBrn@OpenHome@@@Z 00431710 f i libohNetCore:CpProxy.obj
 0001:000308f0       ??C?$_Tree_iterator@V?$_Tree_val@V?$_Tmap_traits@VBrn@OpenHome@@PAVProperty@Net@2@VBufferCmp@2@V?$allocator@U?$pair@$$CBVBrn@OpenHome@@PAVProperty@Net@2@@std@@@std@@$0A@@std@@@std@@@std@@QBEPAU?$pair@$$CBVBrn@OpenHome@@PAVProperty@Net@2@@1@XZ 004318f0 f i libohNetCore:CpProxy.obj
 0001:00030920       ??E?$_Tree_iterator@V?$_Tree_val@V?$_Tmap_traits@VBrn@OpenHome@@PAVProperty@Net@2@VBufferCmp@2@V?$allocator@U?$pair@$$CBVBrn@OpenHome@@PAVProperty@Net@2@@std@@@std@@$0A@@std@@@std@@@std@@QAE?AV01@H@Z 00431920 f i libohNetCore:CpProxy.obj
 0001:000309f0       ??9?$_Tree_const_iterator@V?$_Tree_val@V?$_Tmap_traits@VBrn@OpenHome@@PAVProperty@Net@2@VBufferCmp@2@V?$allocator@U?$pair@$$CBVBrn@OpenHome@@PAVProperty@Net@2@@std@@@std@@$0A@@std@@@std@@@std@@QBE_NABV01@@Z 004319f0 f i libohNetCore:CpProxy.obj
 0001:00030a30       ??0?$_Tree_iterator@V?$_Tree_val@V?$_Tmap_traits@VBrn@OpenHome@@PAVProperty@Net@2@VBufferCmp@2@V?$allocator@U?$pair@$$CBVBrn@OpenHome@@PAVProperty@Net@2@@std@@@std@@$0A@@std@@@std@@@std@@QAE@ABV01@@Z 00431a30 f i libohNetCore:CpProxy.obj
 0001:00030a60       ??0?$_Tree_const_iterator@V?$_Tree_val@V?$_Tmap_traits@VBrn@OpenHome@@PAVProperty@Net@2@VBufferCmp@2@V?$allocator@U?$pair@$$CBVBrn@OpenHome@@PAVProperty@Net@2@@std@@@std@@$0A@@std@@@std@@@std@@QAE@ABV01@@Z 00431a60 f i libohNetCore:CpProxy.obj
 0001:00030a90       ??0?$_Tree_unchecked_const_iterator@V?$_Tree_val@V?$_Tmap_traits@VBrn@OpenHome@@PAVProperty@Net@2@VBufferCmp@2@V?$allocator@U?$pair@$$CBVBrn@OpenHome@@PAVProperty@Net@2@@std@@@std@@$0A@@std@@@std@@U_Iterator_base12@2@@std@@QAE@ABV01@@Z 00431a90 f i libohNetCore:CpProxy.obj
 0001:00030ad0       ??0?$_Iterator012@Ubidirectional_iterator_tag@std@@U?$pair@$$CBVBrn@OpenHome@@PAVProperty@Net@2@@2@HPBU32@ABU32@U_Iterator_base12@2@@std@@QAE@ABU01@@Z 00431ad0 f i libohNetCore:CpProxy.obj
 0001:00030b00       ??0?$_Tree@V?$_Tmap_traits@VBrn@OpenHome@@PAVProperty@Net@2@VBufferCmp@2@V?$allocator@U?$pair@$$CBVBrn@OpenHome@@PAVProperty@Net@2@@std@@@std@@$0A@@std@@@std@@QAE@ABVBufferCmp@OpenHome@@ABV?$allocator@U?$pair@$$CBVBrn@OpenHome@@PAVProperty@Net@2@@std@@@1@@Z 00431b00 f i libohNetCore:CpProxy.obj
 0001:00030b50       ?lower_bound@?$_Tree@V?$_Tmap_traits@VBrn@OpenHome@@PAVProperty@Net@2@VBufferCmp@2@V?$allocator@U?$pair@$$CBVBrn@OpenHome@@PAVProperty@Net@2@@std@@@std@@$0A@@std@@@std@@QAE?AV?$_Tree_iterator@V?$_Tree_val@V?$_Tmap_traits@VBrn@OpenHome@@PAVProperty@Net@2@VBufferCmp@2@V?$allocator@U?$pair@$$CBVBrn@OpenHome@@PAVProperty@Net@2@@std@@@std@@$0A@@std@@@std@@@2@ABVBrn@OpenHome@@@Z 00431b50 f i libohNetCore:CpProxy.obj
 0001:00030bb0       ?_Lmost@?$_Tree@V?$_Tmap_traits@VBrn@OpenHome@@PAVProperty@Net@2@VBufferCmp@2@V?$allocator@U?$pair@$$CBVBrn@OpenHome@@PAVProperty@Net@2@@std@@@std@@$0A@@std@@@std@@IBEAAPAU_Node@?$_Tree_nod@V?$_Tmap_traits@VBrn@OpenHome@@PAVProperty@Net@2@VBufferCmp@2@V?$allocator@U?$pair@$$CBVBrn@OpenHome@@PAVProperty@Net@2@@std@@@std@@$0A@@std@@@2@XZ 00431bb0 f i libohNetCore:CpProxy.obj
 0001:00030be0       ?_Tidy@?$_Tree@V?$_Tmap_traits@VBrn@OpenHome@@PAVProperty@Net@2@VBufferCmp@2@V?$allocator@U?$pair@$$CBVBrn@OpenHome@@PAVProperty@Net@2@@std@@@std@@$0A@@std@@@std@@IAEXXZ 00431be0 f i libohNetCore:CpProxy.obj
 0001:00030ce0       ??1?$_Tree_val@V?$_Tmap_traits@VBrn@OpenHome@@PAVProperty@Net@2@VBufferCmp@2@V?$allocator@U?$pair@$$CBVBrn@OpenHome@@PAVProperty@Net@2@@std@@@std@@$0A@@std@@@std@@QAE@XZ 00431ce0 f i libohNetCore:CpProxy.obj
 0001:00030d50       ?_Key@?$_Tree_val@V?$_Tmap_traits@VBrn@OpenHome@@PAVProperty@Net@2@VBufferCmp@2@V?$allocator@U?$pair@$$CBVBrn@OpenHome@@PAVProperty@Net@2@@std@@@std@@$0A@@std@@@std@@SGAAVBrn@OpenHome@@PAU_Node@?$_Tree_nod@V?$_Tmap_traits@VBrn@OpenHome@@PAVProperty@Net@2@VBufferCmp@2@V?$allocator@U?$pair@$$CBVBrn@OpenHome@@PAVProperty@Net@2@@std@@@std@@$0A@@std@@@2@@Z 00431d50 f i libohNetCore:CpProxy.obj
 0001:00030d70       ??0?$allocator@U?$pair@$$CBVBrn@OpenHome@@PAVProperty@Net@2@@std@@@std@@QAE@XZ 00431d70 f i libohNetCore:CpProxy.obj
 0001:00030d90       ??0?$_Tree_iterator@V?$_Tree_val@V?$_Tmap_traits@VBrn@OpenHome@@PAVProperty@Net@2@VBufferCmp@2@V?$allocator@U?$pair@$$CBVBrn@OpenHome@@PAVProperty@Net@2@@std@@@std@@$0A@@std@@@std@@@std@@QAE@PAU_Node@?$_Tree_nod@V?$_Tmap_traits@VBrn@OpenHome@@PAVProperty@Net@2@VBufferCmp@2@V?$allocator@U?$pair@$$CBVBrn@OpenHome@@PAVProperty@Net@2@@std@@@std@@$0A@@std@@@1@PBV?$_Tree_val@V?$_Tmap_traits@VBrn@OpenHome@@PAVProperty@Net@2@VBufferCmp@2@V?$allocator@U?$pair@$$CBVBrn@OpenHome@@PAVProperty@Net@2@@std@@@std@@$0A@@std@@@1@@Z 00431d90 f i libohNetCore:CpProxy.obj
 0001:00030dd0       ??D?$_Tree_iterator@V?$_Tree_val@V?$_Tmap_traits@VBrn@OpenHome@@PAVProperty@Net@2@VBufferCmp@2@V?$allocator@U?$pair@$$CBVBrn@OpenHome@@PAVProperty@Net@2@@std@@@std@@$0A@@std@@@std@@@std@@QBEAAU?$pair@$$CBVBrn@OpenHome@@PAVProperty@Net@2@@1@XZ 00431dd0 f i libohNetCore:CpProxy.obj
 0001:00030e00       ??E?$_Tree_iterator@V?$_Tree_val@V?$_Tmap_traits@VBrn@OpenHome@@PAVProperty@Net@2@VBufferCmp@2@V?$allocator@U?$pair@$$CBVBrn@OpenHome@@PAVProperty@Net@2@@std@@@std@@$0A@@std@@@std@@@std@@QAEAAV01@XZ 00431e00 f i libohNetCore:CpProxy.obj
 0001:00030e30       ??8?$_Tree_const_iterator@V?$_Tree_val@V?$_Tmap_traits@VBrn@OpenHome@@PAVProperty@Net@2@VBufferCmp@2@V?$allocator@U?$pair@$$CBVBrn@OpenHome@@PAVProperty@Net@2@@std@@@std@@$0A@@std@@@std@@@std@@QBE_NABV01@@Z 00431e30 f i libohNetCore:CpProxy.obj
 0001:00030ef0       ?_Mynode@?$_Tree_unchecked_const_iterator@V?$_Tree_val@V?$_Tmap_traits@VBrn@OpenHome@@PAVProperty@Net@2@VBufferCmp@2@V?$allocator@U?$pair@$$CBVBrn@OpenHome@@PAVProperty@Net@2@@std@@@std@@$0A@@std@@@std@@U_Iterator_base12@2@@std@@QBEPAU_Node@?$_Tree_nod@V?$_Tmap_traits@VBrn@OpenHome@@PAVProperty@Net@2@VBufferCmp@2@V?$allocator@U?$pair@$$CBVBrn@OpenHome@@PAVProperty@Net@2@@std@@@std@@$0A@@std@@@2@XZ 00431ef0 f i libohNetCore:CpProxy.obj
 0001:00030f10       ?erase@?$_Tree@V?$_Tmap_traits@VBrn@OpenHome@@PAVProperty@Net@2@VBufferCmp@2@V?$allocator@U?$pair@$$CBVBrn@OpenHome@@PAVProperty@Net@2@@std@@@std@@$0A@@std@@@std@@QAE?AV?$_Tree_iterator@V?$_Tree_val@V?$_Tmap_traits@VBrn@OpenHome@@PAVProperty@Net@2@VBufferCmp@2@V?$allocator@U?$pair@$$CBVBrn@OpenHome@@PAVProperty@Net@2@@std@@@std@@$0A@@std@@@std@@@2@V?$_Tree_const_iterator@V?$_Tree_val@V?$_Tmap_traits@VBrn@OpenHome@@PAVProperty@Net@2@VBufferCmp@2@V?$allocator@U?$pair@$$CBVBrn@OpenHome@@PAVProperty@Net@2@@std@@@std@@$0A@@std@@@std@@@2@0@Z 00431f10 f i libohNetCore:CpProxy.obj
 0001:00031110       ?_Lbound@?$_Tree@V?$_Tmap_traits@VBrn@OpenHome@@PAVProperty@Net@2@VBufferCmp@2@V?$allocator@U?$pair@$$CBVBrn@OpenHome@@PAVProperty@Net@2@@std@@@std@@$0A@@std@@@std@@IAEPAU_Node@?$_Tree_nod@V?$_Tmap_traits@VBrn@OpenHome@@PAVProperty@Net@2@VBufferCmp@2@V?$allocator@U?$pair@$$CBVBrn@OpenHome@@PAVProperty@Net@2@@std@@@std@@$0A@@std@@@2@ABVBrn@OpenHome@@@Z 00432110 f i libohNetCore:CpProxy.obj
 0001:000311c0       ??0?$_Tree_val@V?$_Tmap_traits@VBrn@OpenHome@@PAVProperty@Net@2@VBufferCmp@2@V?$allocator@U?$pair@$$CBVBrn@OpenHome@@PAVProperty@Net@2@@std@@@std@@$0A@@std@@@std@@QAE@ABVBufferCmp@OpenHome@@V?$allocator@U?$pair@$$CBVBrn@OpenHome@@PAVProperty@Net@2@@std@@@1@@Z 004321c0 f i libohNetCore:CpProxy.obj
 0001:000312c0       ?_Left@?$_Tree_val@V?$_Tmap_traits@VBrn@OpenHome@@PAVProperty@Net@2@VBufferCmp@2@V?$allocator@U?$pair@$$CBVBrn@OpenHome@@PAVProperty@Net@2@@std@@@std@@$0A@@std@@@std@@SGAAPAU_Node@?$_Tree_nod@V?$_Tmap_traits@VBrn@OpenHome@@PAVProperty@Net@2@VBufferCmp@2@V?$allocator@U?$pair@$$CBVBrn@OpenHome@@PAVProperty@Net@2@@std@@@std@@$0A@@std@@@2@PAU342@@Z 004322c0 f i libohNetCore:CpProxy.obj
 0001:000312d0       ?_Myval@?$_Tree_val@V?$_Tmap_traits@VBrn@OpenHome@@PAVProperty@Net@2@VBufferCmp@2@V?$allocator@U?$pair@$$CBVBrn@OpenHome@@PAVProperty@Net@2@@std@@@std@@$0A@@std@@@std@@SGAAU?$pair@$$CBVBrn@OpenHome@@PAVProperty@Net@2@@2@PAU_Node@?$_Tree_nod@V?$_Tmap_traits@VBrn@OpenHome@@PAVProperty@Net@2@VBufferCmp@2@V?$allocator@U?$pair@$$CBVBrn@OpenHome@@PAVProperty@Net@2@@std@@@std@@$0A@@std@@@2@@Z 004322d0 f i libohNetCore:CpProxy.obj
 0001:000312e0       ??1?$_Tree_nod@V?$_Tmap_traits@VBrn@OpenHome@@PAVProperty@Net@2@VBufferCmp@2@V?$allocator@U?$pair@$$CBVBrn@OpenHome@@PAVProperty@Net@2@@std@@@std@@$0A@@std@@@std@@QAE@XZ 004322e0 f i libohNetCore:CpProxy.obj
 0001:000313c0       ??0?$allocator@U?$pair@$$CBVBrn@OpenHome@@PAVProperty@Net@2@@std@@@std@@QAE@ABV01@@Z 004323c0 f i libohNetCore:CpProxy.obj
 0001:000313e0       ?deallocate@?$allocator@U_Node@?$_Tree_nod@V?$_Tmap_traits@VBrn@OpenHome@@PAVProperty@Net@2@VBufferCmp@2@V?$allocator@U?$pair@$$CBVBrn@OpenHome@@PAVProperty@Net@2@@std@@@std@@$0A@@std@@@std@@@std@@QAEXPAU_Node@?$_Tree_nod@V?$_Tmap_traits@VBrn@OpenHome@@PAVProperty@Net@2@VBufferCmp@2@V?$allocator@U?$pair@$$CBVBrn@OpenHome@@PAVProperty@Net@2@@std@@@std@@$0A@@std@@@2@I@Z 004323e0 f i libohNetCore:CpProxy.obj
 0001:00031410       ??0?$_Tree_const_iterator@V?$_Tree_val@V?$_Tmap_traits@VBrn@OpenHome@@PAVProperty@Net@2@VBufferCmp@2@V?$allocator@U?$pair@$$CBVBrn@OpenHome@@PAVProperty@Net@2@@std@@@std@@$0A@@std@@@std@@@std@@QAE@PAU_Node@?$_Tree_nod@V?$_Tmap_traits@VBrn@OpenHome@@PAVProperty@Net@2@VBufferCmp@2@V?$allocator@U?$pair@$$CBVBrn@OpenHome@@PAVProperty@Net@2@@std@@@std@@$0A@@std@@@1@PBV?$_Tree_val@V?$_Tmap_traits@VBrn@OpenHome@@PAVProperty@Net@2@VBufferCmp@2@V?$allocator@U?$pair@$$CBVBrn@OpenHome@@PAVProperty@Net@2@@std@@@std@@$0A@@std@@@1@@Z 00432410 f i libohNetCore:CpProxy.obj
 0001:00031450       ??D?$_Tree_const_iterator@V?$_Tree_val@V?$_Tmap_traits@VBrn@OpenHome@@PAVProperty@Net@2@VBufferCmp@2@V?$allocator@U?$pair@$$CBVBrn@OpenHome@@PAVProperty@Net@2@@std@@@std@@$0A@@std@@@std@@@std@@QBEABU?$pair@$$CBVBrn@OpenHome@@PAVProperty@Net@2@@1@XZ 00432450 f i libohNetCore:CpProxy.obj
 0001:00031510       ??E?$_Tree_const_iterator@V?$_Tree_val@V?$_Tmap_traits@VBrn@OpenHome@@PAVProperty@Net@2@VBufferCmp@2@V?$allocator@U?$pair@$$CBVBrn@OpenHome@@PAVProperty@Net@2@@std@@@std@@$0A@@std@@@std@@@std@@QAEAAV01@XZ 00432510 f i libohNetCore:CpProxy.obj
 0001:000315d0       ??1?$_Tmap_traits@VBrn@OpenHome@@PAVProperty@Net@2@VBufferCmp@2@V?$allocator@U?$pair@$$CBVBrn@OpenHome@@PAVProperty@Net@2@@std@@@std@@$0A@@std@@QAE@XZ 004325d0 f i libohNetCore:CpProxy.obj
 0001:00031600       ?erase@?$_Tree@V?$_Tmap_traits@VBrn@OpenHome@@PAVProperty@Net@2@VBufferCmp@2@V?$allocator@U?$pair@$$CBVBrn@OpenHome@@PAVProperty@Net@2@@std@@@std@@$0A@@std@@@std@@QAE?AV?$_Tree_iterator@V?$_Tree_val@V?$_Tmap_traits@VBrn@OpenHome@@PAVProperty@Net@2@VBufferCmp@2@V?$allocator@U?$pair@$$CBVBrn@OpenHome@@PAVProperty@Net@2@@std@@@std@@$0A@@std@@@std@@@2@V?$_Tree_const_iterator@V?$_Tree_val@V?$_Tmap_traits@VBrn@OpenHome@@PAVProperty@Net@2@VBufferCmp@2@V?$allocator@U?$pair@$$CBVBrn@OpenHome@@PAVProperty@Net@2@@std@@@std@@$0A@@std@@@std@@@2@@Z 00432600 f i libohNetCore:CpProxy.obj
 0001:00031d10       ?clear@?$_Tree@V?$_Tmap_traits@VBrn@OpenHome@@PAVProperty@Net@2@VBufferCmp@2@V?$allocator@U?$pair@$$CBVBrn@OpenHome@@PAVProperty@Net@2@@std@@@std@@$0A@@std@@@std@@QAEXXZ 00432d10 f i libohNetCore:CpProxy.obj
 0001:00031d90       ?_Root@?$_Tree@V?$_Tmap_traits@VBrn@OpenHome@@PAVProperty@Net@2@VBufferCmp@2@V?$allocator@U?$pair@$$CBVBrn@OpenHome@@PAVProperty@Net@2@@std@@@std@@$0A@@std@@@std@@IBEAAPAU_Node@?$_Tree_nod@V?$_Tmap_traits@VBrn@OpenHome@@PAVProperty@Net@2@VBufferCmp@2@V?$allocator@U?$pair@$$CBVBrn@OpenHome@@PAVProperty@Net@2@@std@@@std@@$0A@@std@@@2@XZ 00432d90 f i libohNetCore:CpProxy.obj
 0001:00031dc0       ?_Color@?$_Tree_val@V?$_Tmap_traits@VBrn@OpenHome@@PAVProperty@Net@2@VBufferCmp@2@V?$allocator@U?$pair@$$CBVBrn@OpenHome@@PAVProperty@Net@2@@std@@@std@@$0A@@std@@@std@@SGAADPAU_Node@?$_Tree_nod@V?$_Tmap_traits@VBrn@OpenHome@@PAVProperty@Net@2@VBufferCmp@2@V?$allocator@U?$pair@$$CBVBrn@OpenHome@@PAVProperty@Net@2@@std@@@std@@$0A@@std@@@2@@Z 00432dc0 f i libohNetCore:CpProxy.obj
 0001:00031dd0       ?_Isnil@?$_Tree_val@V?$_Tmap_traits@VBrn@OpenHome@@PAVProperty@Net@2@VBufferCmp@2@V?$allocator@U?$pair@$$CBVBrn@OpenHome@@PAVProperty@Net@2@@std@@@std@@$0A@@std@@@std@@SGAADPAU_Node@?$_Tree_nod@V?$_Tmap_traits@VBrn@OpenHome@@PAVProperty@Net@2@VBufferCmp@2@V?$allocator@U?$pair@$$CBVBrn@OpenHome@@PAVProperty@Net@2@@std@@@std@@$0A@@std@@@2@@Z 00432dd0 f i libohNetCore:CpProxy.obj
 0001:00031de0       ?_Parent@?$_Tree_val@V?$_Tmap_traits@VBrn@OpenHome@@PAVProperty@Net@2@VBufferCmp@2@V?$allocator@U?$pair@$$CBVBrn@OpenHome@@PAVProperty@Net@2@@std@@@std@@$0A@@std@@@std@@SGAAPAU_Node@?$_Tree_nod@V?$_Tmap_traits@VBrn@OpenHome@@PAVProperty@Net@2@VBufferCmp@2@V?$allocator@U?$pair@$$CBVBrn@OpenHome@@PAVProperty@Net@2@@std@@@std@@$0A@@std@@@2@PAU342@@Z 00432de0 f i libohNetCore:CpProxy.obj
 0001:00031df0       ?_Right@?$_Tree_val@V?$_Tmap_traits@VBrn@OpenHome@@PAVProperty@Net@2@VBufferCmp@2@V?$allocator@U?$pair@$$CBVBrn@OpenHome@@PAVProperty@Net@2@@std@@@std@@$0A@@std@@@std@@SGAAPAU_Node@?$_Tree_nod@V?$_Tmap_traits@VBrn@OpenHome@@PAVProperty@Net@2@VBufferCmp@2@V?$allocator@U?$pair@$$CBVBrn@OpenHome@@PAVProperty@Net@2@@std@@@std@@$0A@@std@@@2@PAU342@@Z 00432df0 f i libohNetCore:CpProxy.obj
 0001:00031e00       ??0?$_Tree_nod@V?$_Tmap_traits@VBrn@OpenHome@@PAVProperty@Net@2@VBufferCmp@2@V?$allocator@U?$pair@$$CBVBrn@OpenHome@@PAVProperty@Net@2@@std@@@std@@$0A@@std@@@std@@QAE@ABVBufferCmp@OpenHome@@V?$allocator@U?$pair@$$CBVBrn@OpenHome@@PAVProperty@Net@2@@std@@@1@@Z 00432e00 f i libohNetCore:CpProxy.obj
 0001:00031f10       ?allocate@?$allocator@U_Node@?$_Tree_nod@V?$_Tmap_traits@VBrn@OpenHome@@PAVProperty@Net@2@VBufferCmp@2@V?$allocator@U?$pair@$$CBVBrn@OpenHome@@PAVProperty@Net@2@@std@@@std@@$0A@@std@@@std@@@std@@QAEPAU_Node@?$_Tree_nod@V?$_Tmap_traits@VBrn@OpenHome@@PAVProperty@Net@2@VBufferCmp@2@V?$allocator@U?$pair@$$CBVBrn@OpenHome@@PAVProperty@Net@2@@std@@@std@@$0A@@std@@@2@I@Z 00432f10 f i libohNetCore:CpProxy.obj
 0001:00031f40       ??E?$_Tree_const_iterator@V?$_Tree_val@V?$_Tmap_traits@VBrn@OpenHome@@PAVProperty@Net@2@VBufferCmp@2@V?$allocator@U?$pair@$$CBVBrn@OpenHome@@PAVProperty@Net@2@@std@@@std@@$0A@@std@@@std@@@std@@QAE?AV01@H@Z 00432f40 f i libohNetCore:CpProxy.obj
 0001:00032010       ??0?$_Tree_unchecked_const_iterator@V?$_Tree_val@V?$_Tmap_traits@VBrn@OpenHome@@PAVProperty@Net@2@VBufferCmp@2@V?$allocator@U?$pair@$$CBVBrn@OpenHome@@PAVProperty@Net@2@@std@@@std@@$0A@@std@@@std@@U_Iterator_base12@2@@std@@QAE@PAU_Node@?$_Tree_nod@V?$_Tmap_traits@VBrn@OpenHome@@PAVProperty@Net@2@VBufferCmp@2@V?$allocator@U?$pair@$$CBVBrn@OpenHome@@PAVProperty@Net@2@@std@@@std@@$0A@@std@@@1@PBV?$_Tree_val@V?$_Tmap_traits@VBrn@OpenHome@@PAVProperty@Net@2@VBufferCmp@2@V?$allocator@U?$pair@$$CBVBrn@OpenHome@@PAVProperty@Net@2@@std@@@std@@$0A@@std@@@1@@Z 00433010 f i libohNetCore:CpProxy.obj
 0001:00032090       ??E?$_Tree_unchecked_const_iterator@V?$_Tree_val@V?$_Tmap_traits@VBrn@OpenHome@@PAVProperty@Net@2@VBufferCmp@2@V?$allocator@U?$pair@$$CBVBrn@OpenHome@@PAVProperty@Net@2@@std@@@std@@$0A@@std@@@std@@U_Iterator_base12@2@@std@@QAEAAV01@XZ 00433090 f i libohNetCore:CpProxy.obj
 0001:00032150       ??0?$_Iterator012@Ubidirectional_iterator_tag@std@@U?$pair@$$CBVBrn@OpenHome@@PAVProperty@Net@2@@2@HPBU32@ABU32@U_Iterator_base12@2@@std@@QAE@XZ 00433150 f i libohNetCore:CpProxy.obj
 0001:00032180       ?_Erase@?$_Tree@V?$_Tmap_traits@VBrn@OpenHome@@PAVProperty@Net@2@VBufferCmp@2@V?$allocator@U?$pair@$$CBVBrn@OpenHome@@PAVProperty@Net@2@@std@@@std@@$0A@@std@@@std@@IAEXPAU_Node@?$_Tree_nod@V?$_Tmap_traits@VBrn@OpenHome@@PAVProperty@Net@2@VBufferCmp@2@V?$allocator@U?$pair@$$CBVBrn@OpenHome@@PAVProperty@Net@2@@std@@@std@@$0A@@std@@@2@@Z 00433180 f i libohNetCore:CpProxy.obj
 0001:00032220       ?_Lrotate@?$_Tree@V?$_Tmap_traits@VBrn@OpenHome@@PAVProperty@Net@2@VBufferCmp@2@V?$allocator@U?$pair@$$CBVBrn@OpenHome@@PAVProperty@Net@2@@std@@@std@@$0A@@std@@@std@@IAEXPAU_Node@?$_Tree_nod@V?$_Tmap_traits@VBrn@OpenHome@@PAVProperty@Net@2@VBufferCmp@2@V?$allocator@U?$pair@$$CBVBrn@OpenHome@@PAVProperty@Net@2@@std@@@std@@$0A@@std@@@2@@Z 00433220 f i libohNetCore:CpProxy.obj
 0001:00032340       ?_Rmost@?$_Tree@V?$_Tmap_traits@VBrn@OpenHome@@PAVProperty@Net@2@VBufferCmp@2@V?$allocator@U?$pair@$$CBVBrn@OpenHome@@PAVProperty@Net@2@@std@@@std@@$0A@@std@@@std@@IBEAAPAU_Node@?$_Tree_nod@V?$_Tmap_traits@VBrn@OpenHome@@PAVProperty@Net@2@VBufferCmp@2@V?$allocator@U?$pair@$$CBVBrn@OpenHome@@PAVProperty@Net@2@@std@@@std@@$0A@@std@@@2@XZ 00433340 f i libohNetCore:CpProxy.obj
 0001:00032370       ?_Rrotate@?$_Tree@V?$_Tmap_traits@VBrn@OpenHome@@PAVProperty@Net@2@VBufferCmp@2@V?$allocator@U?$pair@$$CBVBrn@OpenHome@@PAVProperty@Net@2@@std@@@std@@$0A@@std@@@std@@IAEXPAU_Node@?$_Tree_nod@V?$_Tmap_traits@VBrn@OpenHome@@PAVProperty@Net@2@VBufferCmp@2@V?$allocator@U?$pair@$$CBVBrn@OpenHome@@PAVProperty@Net@2@@std@@@std@@$0A@@std@@@2@@Z 00433370 f i libohNetCore:CpProxy.obj
 0001:00032490       ?_Orphan_ptr@?$_Tree@V?$_Tmap_traits@VBrn@OpenHome@@PAVProperty@Net@2@VBufferCmp@2@V?$allocator@U?$pair@$$CBVBrn@OpenHome@@PAVProperty@Net@2@@std@@@std@@$0A@@std@@@std@@IBEXAAV12@PAU_Node@?$_Tree_nod@V?$_Tmap_traits@VBrn@OpenHome@@PAVProperty@Net@2@VBufferCmp@2@V?$allocator@U?$pair@$$CBVBrn@OpenHome@@PAVProperty@Net@2@@std@@@std@@$0A@@std@@@2@@Z 00433490 f i libohNetCore:CpProxy.obj
 0001:000325a0       ?_Max@?$_Tree_val@V?$_Tmap_traits@VBrn@OpenHome@@PAVProperty@Net@2@VBufferCmp@2@V?$allocator@U?$pair@$$CBVBrn@OpenHome@@PAVProperty@Net@2@@std@@@std@@$0A@@std@@@std@@SGPAU_Node@?$_Tree_nod@V?$_Tmap_traits@VBrn@OpenHome@@PAVProperty@Net@2@VBufferCmp@2@V?$allocator@U?$pair@$$CBVBrn@OpenHome@@PAVProperty@Net@2@@std@@@std@@$0A@@std@@@2@PAU342@@Z 004335a0 f i libohNetCore:CpProxy.obj
 0001:000325e0       ?_Min@?$_Tree_val@V?$_Tmap_traits@VBrn@OpenHome@@PAVProperty@Net@2@VBufferCmp@2@V?$allocator@U?$pair@$$CBVBrn@OpenHome@@PAVProperty@Net@2@@std@@@std@@$0A@@std@@@std@@SGPAU_Node@?$_Tree_nod@V?$_Tmap_traits@VBrn@OpenHome@@PAVProperty@Net@2@VBufferCmp@2@V?$allocator@U?$pair@$$CBVBrn@OpenHome@@PAVProperty@Net@2@@std@@@std@@$0A@@std@@@2@PAU342@@Z 004335e0 f i libohNetCore:CpProxy.obj
 0001:00032620       ??0?$_Tmap_traits@VBrn@OpenHome@@PAVProperty@Net@2@VBufferCmp@2@V?$allocator@U?$pair@$$CBVBrn@OpenHome@@PAVProperty@Net@2@@std@@@std@@$0A@@std@@QAE@VBufferCmp@OpenHome@@@Z 00433620 f i libohNetCore:CpProxy.obj
 0001:00032650       ??$?0AAVBrn@OpenHome@@AAPAVProperty@Net@1@@?$pair@VBrn@OpenHome@@PAVProperty@Net@2@@std@@QAE@AAVBrn@OpenHome@@AAPAVProperty@Net@3@@Z 00433650 f i libohNetCore:CpProxy.obj
 0001:00032690       ??$insert@U?$pair@VBrn@OpenHome@@PAVProperty@Net@2@@std@@@?$_Tree@V?$_Tmap_traits@VBrn@OpenHome@@PAVProperty@Net@2@VBufferCmp@2@V?$allocator@U?$pair@$$CBVBrn@OpenHome@@PAVProperty@Net@2@@std@@@std@@$0A@@std@@@std@@QAE?AU?$pair@V?$_Tree_iterator@V?$_Tree_val@V?$_Tmap_traits@VBrn@OpenHome@@PAVProperty@Net@2@VBufferCmp@2@V?$allocator@U?$pair@$$CBVBrn@OpenHome@@PAVProperty@Net@2@@std@@@std@@$0A@@std@@@std@@@std@@_N@1@$$QAU?$pair@VBrn@OpenHome@@PAVProperty@Net@2@@1@@Z 00433690 f i libohNetCore:CpProxy.obj
 0001:000326f0       ??$_Kfn@$$CBVBrn@OpenHome@@PAVProperty@Net@2@@?$_Tmap_traits@VBrn@OpenHome@@PAVProperty@Net@2@VBufferCmp@2@V?$allocator@U?$pair@$$CBVBrn@OpenHome@@PAVProperty@Net@2@@std@@@std@@$0A@@std@@SGABVBrn@OpenHome@@ABU?$pair@$$CBVBrn@OpenHome@@PAVProperty@Net@2@@1@@Z 004336f0 f i libohNetCore:CpProxy.obj
 0001:00032700       ??$?0U_Node@?$_Tree_nod@V?$_Tmap_traits@VBrn@OpenHome@@PAVProperty@Net@2@VBufferCmp@2@V?$allocator@U?$pair@$$CBVBrn@OpenHome@@PAVProperty@Net@2@@std@@@std@@$0A@@std@@@std@@@?$allocator@U_Container_proxy@std@@@std@@QAE@ABV?$allocator@U_Node@?$_Tree_nod@V?$_Tmap_traits@VBrn@OpenHome@@PAVProperty@Net@2@VBufferCmp@2@V?$allocator@U?$pair@$$CBVBrn@OpenHome@@PAVProperty@Net@2@@std@@@std@@$0A@@std@@@std@@@1@@Z 00433700 f i libohNetCore:CpProxy.obj
 0001:00032720       ??$addressof@U?$pair@$$CBVBrn@OpenHome@@PAVProperty@Net@2@@std@@@std@@YGPAU?$pair@$$CBVBrn@OpenHome@@PAVProperty@Net@2@@0@AAU10@@Z 00433720 f i libohNetCore:CpProxy.obj
 0001:00032730       ??$_Dest_val@V?$allocator@U?$pair@$$CBVBrn@OpenHome@@PAVProperty@Net@2@@std@@@std@@U?$pair@$$CBVBrn@OpenHome@@PAVProperty@Net@2@@2@@std@@YGXAAV?$allocator@U?$pair@$$CBVBrn@OpenHome@@PAVProperty@Net@2@@std@@@0@PAU?$pair@$$CBVBrn@OpenHome@@PAVProperty@Net@2@@0@@Z 00433730 f i libohNetCore:CpProxy.obj
 0001:00032750       ??$?0U?$pair@$$CBVBrn@OpenHome@@PAVProperty@Net@2@@std@@@?$allocator@U_Node@?$_Tree_nod@V?$_Tmap_traits@VBrn@OpenHome@@PAVProperty@Net@2@VBufferCmp@2@V?$allocator@U?$pair@$$CBVBrn@OpenHome@@PAVProperty@Net@2@@std@@@std@@$0A@@std@@@std@@@std@@QAE@ABV?$allocator@U?$pair@$$CBVBrn@OpenHome@@PAVProperty@Net@2@@std@@@1@@Z 00433750 f i libohNetCore:CpProxy.obj
 0001:00032770       ??$_Allocate@U_Node@?$_Tree_nod@V?$_Tmap_traits@VBrn@OpenHome@@PAVProperty@Net@2@VBufferCmp@2@V?$allocator@U?$pair@$$CBVBrn@OpenHome@@PAVProperty@Net@2@@std@@@std@@$0A@@std@@@std@@@std@@YGPAU_Node@?$_Tree_nod@V?$_Tmap_traits@VBrn@OpenHome@@PAVProperty@Net@2@VBufferCmp@2@V?$allocator@U?$pair@$$CBVBrn@OpenHome@@PAVProperty@Net@2@@std@@@std@@$0A@@std@@@0@IPAU120@@Z 00433770 f i libohNetCore:CpProxy.obj
 0001:000327f0       ?_Linsert@?$_Tree@V?$_Tmap_traits@VBrn@OpenHome@@PAVProperty@Net@2@VBufferCmp@2@V?$allocator@U?$pair@$$CBVBrn@OpenHome@@PAVProperty@Net@2@@std@@@std@@$0A@@std@@@std@@QAE?AU?$pair@V?$_Tree_iterator@V?$_Tree_val@V?$_Tmap_traits@VBrn@OpenHome@@PAVProperty@Net@2@VBufferCmp@2@V?$allocator@U?$pair@$$CBVBrn@OpenHome@@PAVProperty@Net@2@@std@@@std@@$0A@@std@@@std@@@std@@_N@2@PAU_Node@?$_Tree_nod@V?$_Tmap_traits@VBrn@OpenHome@@PAVProperty@Net@2@VBufferCmp@2@V?$allocator@U?$pair@$$CBVBrn@OpenHome@@PAVProperty@Net@2@@std@@@std@@$0A@@std@@@2@_N@Z 004337f0 f i libohNetCore:CpProxy.obj
 0001:00032bd0       ?destroy@?$allocator@U?$pair@$$CBVBrn@OpenHome@@PAVProperty@Net@2@@std@@@std@@QAEXPAU?$pair@$$CBVBrn@OpenHome@@PAVProperty@Net@2@@2@@Z 00433bd0 f i libohNetCore:CpProxy.obj
 0001:00032c00       ?_Insert@?$_Tree@V?$_Tmap_traits@VBrn@OpenHome@@PAVProperty@Net@2@VBufferCmp@2@V?$allocator@U?$pair@$$CBVBrn@OpenHome@@PAVProperty@Net@2@@std@@@std@@$0A@@std@@@std@@IAE?AV?$_Tree_iterator@V?$_Tree_val@V?$_Tmap_traits@VBrn@OpenHome@@PAVProperty@Net@2@VBufferCmp@2@V?$allocator@U?$pair@$$CBVBrn@OpenHome@@PAVProperty@Net@2@@std@@@std@@$0A@@std@@@std@@@2@_NPAU_Node@?$_Tree_nod@V?$_Tmap_traits@VBrn@OpenHome@@PAVProperty@Net@2@VBufferCmp@2@V?$allocator@U?$pair@$$CBVBrn@OpenHome@@PAVProperty@Net@2@@std@@@std@@$0A@@std@@@2@1@Z 00433c00 f i libohNetCore:CpProxy.obj
 0001:00032fc0       ??F?$_Tree_iterator@V?$_Tree_val@V?$_Tmap_traits@VBrn@OpenHome@@PAVProperty@Net@2@VBufferCmp@2@V?$allocator@U?$pair@$$CBVBrn@OpenHome@@PAVProperty@Net@2@@std@@@std@@$0A@@std@@@std@@@std@@QAEAAV01@XZ 00433fc0 f i libohNetCore:CpProxy.obj
 0001:00032ff0       ??0?$pair@V?$_Tree_iterator@V?$_Tree_val@V?$_Tmap_traits@VBrn@OpenHome@@PAVProperty@Net@2@VBufferCmp@2@V?$allocator@U?$pair@$$CBVBrn@OpenHome@@PAVProperty@Net@2@@std@@@std@@$0A@@std@@@std@@@std@@_N@std@@QAE@$$QAV?$_Tree_iterator@V?$_Tree_val@V?$_Tmap_traits@VBrn@OpenHome@@PAVProperty@Net@2@VBufferCmp@2@V?$allocator@U?$pair@$$CBVBrn@OpenHome@@PAVProperty@Net@2@@std@@@std@@$0A@@std@@@std@@@1@$$QA_N@Z 00433ff0 f i libohNetCore:CpProxy.obj
 0001:00033030       ?max_size@?$_Tree@V?$_Tmap_traits@VBrn@OpenHome@@PAVProperty@Net@2@VBufferCmp@2@V?$allocator@U?$pair@$$CBVBrn@OpenHome@@PAVProperty@Net@2@@std@@@std@@$0A@@std@@@std@@QBEIXZ 00434030 f i libohNetCore:CpProxy.obj
 0001:00033060       ??F?$_Tree_const_iterator@V?$_Tree_val@V?$_Tmap_traits@VBrn@OpenHome@@PAVProperty@Net@2@VBufferCmp@2@V?$allocator@U?$pair@$$CBVBrn@OpenHome@@PAVProperty@Net@2@@std@@@std@@$0A@@std@@@std@@@std@@QAEAAV01@XZ 00434060 f i libohNetCore:CpProxy.obj
 0001:00033180       ??0?$_Pair_base@V?$_Tree_iterator@V?$_Tree_val@V?$_Tmap_traits@VBrn@OpenHome@@PAVProperty@Net@2@VBufferCmp@2@V?$allocator@U?$pair@$$CBVBrn@OpenHome@@PAVProperty@Net@2@@std@@@std@@$0A@@std@@@std@@@std@@_N@std@@QAE@$$QAV?$_Tree_iterator@V?$_Tree_val@V?$_Tmap_traits@VBrn@OpenHome@@PAVProperty@Net@2@VBufferCmp@2@V?$allocator@U?$pair@$$CBVBrn@OpenHome@@PAVProperty@Net@2@@std@@@std@@$0A@@std@@@std@@@1@$$QA_N@Z 00434180 f i libohNetCore:CpProxy.obj
 0001:00033200       ?max_size@?$allocator@U?$pair@$$CBVBrn@OpenHome@@PAVProperty@Net@2@@std@@@std@@QBEIXZ 00434200 f i libohNetCore:CpProxy.obj
 0001:00033250       ??F?$_Tree_unchecked_const_iterator@V?$_Tree_val@V?$_Tmap_traits@VBrn@OpenHome@@PAVProperty@Net@2@VBufferCmp@2@V?$allocator@U?$pair@$$CBVBrn@OpenHome@@PAVProperty@Net@2@@std@@@std@@$0A@@std@@@std@@U_Iterator_base12@2@@std@@QAEAAV01@XZ 00434250 f i libohNetCore:CpProxy.obj
 0001:00033340       ??$forward@AAPAVProperty@Net@OpenHome@@@std@@YGAAPAVProperty@Net@OpenHome@@AAPAV123@@Z 00434340 f i libohNetCore:CpProxy.obj
 0001:00033350       ??$?0AAVBrn@OpenHome@@AAPAVProperty@Net@1@@?$_Pair_base@VBrn@OpenHome@@PAVProperty@Net@2@@std@@QAE@AAVBrn@OpenHome@@AAPAVProperty@Net@3@@Z 00434350 f i libohNetCore:CpProxy.obj
 0001:000333d0       ??$forward@U?$pair@VBrn@OpenHome@@PAVProperty@Net@2@@std@@@std@@YG$$QAU?$pair@VBrn@OpenHome@@PAVProperty@Net@2@@0@AAU10@@Z 004343d0 f i libohNetCore:CpProxy.obj
 0001:000333e0       ??$_Buynode@U?$pair@VBrn@OpenHome@@PAVProperty@Net@2@@std@@@?$_Tree_val@V?$_Tmap_traits@VBrn@OpenHome@@PAVProperty@Net@2@VBufferCmp@2@V?$allocator@U?$pair@$$CBVBrn@OpenHome@@PAVProperty@Net@2@@std@@@std@@$0A@@std@@@std@@QAEPAU_Node@?$_Tree_nod@V?$_Tmap_traits@VBrn@OpenHome@@PAVProperty@Net@2@VBufferCmp@2@V?$allocator@U?$pair@$$CBVBrn@OpenHome@@PAVProperty@Net@2@@std@@@std@@$0A@@std@@@1@$$QAU?$pair@VBrn@OpenHome@@PAVProperty@Net@2@@1@@Z 004343e0 f i libohNetCore:CpProxy.obj
 0001:000334c0       ??$?0AAV?$_Tree_iterator@V?$_Tree_val@V?$_Tmap_traits@VBrn@OpenHome@@PAVProperty@Net@2@VBufferCmp@2@V?$allocator@U?$pair@$$CBVBrn@OpenHome@@PAVProperty@Net@2@@std@@@std@@$0A@@std@@@std@@@std@@_N@?$pair@V?$_Tree_iterator@V?$_Tree_val@V?$_Tmap_traits@VBrn@OpenHome@@PAVProperty@Net@2@VBufferCmp@2@V?$allocator@U?$pair@$$CBVBrn@OpenHome@@PAVProperty@Net@2@@std@@@std@@$0A@@std@@@std@@@std@@_N@std@@QAE@AAV?$_Tree_iterator@V?$_Tree_val@V?$_Tmap_traits@VBrn@OpenHome@@PAVProperty@Net@2@VBufferCmp@2@V?$allocator@U?$pair@$$CBVBrn@OpenHome@@PAVProperty@Net@2@@std@@@std@@$0A@@std@@@std@@@1@$$QA_N@Z 004344c0 f i libohNetCore:CpProxy.obj
 0001:00033500       ??$_Destroy@U?$pair@$$CBVBrn@OpenHome@@PAVProperty@Net@2@@std@@@std@@YGXPAU?$pair@$$CBVBrn@OpenHome@@PAVProperty@Net@2@@0@@Z 00434500 f i libohNetCore:CpProxy.obj
 0001:00033520       ??$move@AAV?$_Tree_iterator@V?$_Tree_val@V?$_Tmap_traits@VBrn@OpenHome@@PAVProperty@Net@2@VBufferCmp@2@V?$allocator@U?$pair@$$CBVBrn@OpenHome@@PAVProperty@Net@2@@std@@@std@@$0A@@std@@@std@@@std@@@std@@YG$$QAV?$_Tree_iterator@V?$_Tree_val@V?$_Tmap_traits@VBrn@OpenHome@@PAVProperty@Net@2@VBufferCmp@2@V?$allocator@U?$pair@$$CBVBrn@OpenHome@@PAVProperty@Net@2@@std@@@std@@$0A@@std@@@std@@@0@AAV10@@Z 00434520 f i libohNetCore:CpProxy.obj
 0001:00033530       ??_G?$pair@$$CBVBrn@OpenHome@@PAVProperty@Net@2@@std@@QAEPAXI@Z 00434530 f i libohNetCore:CpProxy.obj
 0001:00033570       ??1?$pair@$$CBVBrn@OpenHome@@PAVProperty@Net@2@@std@@QAE@XZ 00434570 f i libohNetCore:CpProxy.obj
 0001:000335a0       ??1?$_Pair_base@$$CBVBrn@OpenHome@@PAVProperty@Net@2@@std@@QAE@XZ 004345a0 f i libohNetCore:CpProxy.obj
 0001:000335d0       ?_Buynode@?$_Tree_val@V?$_Tmap_traits@VBrn@OpenHome@@PAVProperty@Net@2@VBufferCmp@2@V?$allocator@U?$pair@$$CBVBrn@OpenHome@@PAVProperty@Net@2@@std@@@std@@$0A@@std@@@std@@QAEPAU_Node@?$_Tree_nod@V?$_Tmap_traits@VBrn@OpenHome@@PAVProperty@Net@2@VBufferCmp@2@V?$allocator@U?$pair@$$CBVBrn@OpenHome@@PAVProperty@Net@2@@std@@@std@@$0A@@std@@@2@XZ 004345d0 f i libohNetCore:CpProxy.obj
 0001:00033660       ??$_Cons_val@V?$allocator@U?$pair@$$CBVBrn@OpenHome@@PAVProperty@Net@2@@std@@@std@@U?$pair@$$CBVBrn@OpenHome@@PAVProperty@Net@2@@2@U?$pair@VBrn@OpenHome@@PAVProperty@Net@2@@2@@std@@YGXAAV?$allocator@U?$pair@$$CBVBrn@OpenHome@@PAVProperty@Net@2@@std@@@0@PAU?$pair@$$CBVBrn@OpenHome@@PAVProperty@Net@2@@0@$$QAU?$pair@VBrn@OpenHome@@PAVProperty@Net@2@@0@@Z 00434660 f i libohNetCore:CpProxy.obj
 0001:00033690       ??$forward@AAV?$_Tree_iterator@V?$_Tree_val@V?$_Tmap_traits@VBrn@OpenHome@@PAVProperty@Net@2@VBufferCmp@2@V?$allocator@U?$pair@$$CBVBrn@OpenHome@@PAVProperty@Net@2@@std@@@std@@$0A@@std@@@std@@@std@@@std@@YGAAV?$_Tree_iterator@V?$_Tree_val@V?$_Tmap_traits@VBrn@OpenHome@@PAVProperty@Net@2@VBufferCmp@2@V?$allocator@U?$pair@$$CBVBrn@OpenHome@@PAVProperty@Net@2@@std@@@std@@$0A@@std@@@std@@@0@AAV10@@Z 00434690 f i libohNetCore:CpProxy.obj
 0001:000336a0       ??$?0AAV?$_Tree_iterator@V?$_Tree_val@V?$_Tmap_traits@VBrn@OpenHome@@PAVProperty@Net@2@VBufferCmp@2@V?$allocator@U?$pair@$$CBVBrn@OpenHome@@PAVProperty@Net@2@@std@@@std@@$0A@@std@@@std@@@std@@_N@?$_Pair_base@V?$_Tree_iterator@V?$_Tree_val@V?$_Tmap_traits@VBrn@OpenHome@@PAVProperty@Net@2@VBufferCmp@2@V?$allocator@U?$pair@$$CBVBrn@OpenHome@@PAVProperty@Net@2@@std@@@std@@$0A@@std@@@std@@@std@@_N@std@@QAE@AAV?$_Tree_iterator@V?$_Tree_val@V?$_Tmap_traits@VBrn@OpenHome@@PAVProperty@Net@2@VBufferCmp@2@V?$allocator@U?$pair@$$CBVBrn@OpenHome@@PAVProperty@Net@2@@std@@@std@@$0A@@std@@@std@@@1@$$QA_N@Z 004346a0 f i libohNetCore:CpProxy.obj
 0001:00033720       ??$construct@U?$pair@VBrn@OpenHome@@PAVProperty@Net@2@@std@@@?$allocator@U?$pair@$$CBVBrn@OpenHome@@PAVProperty@Net@2@@std@@@std@@QAEXPAU?$pair@$$CBVBrn@OpenHome@@PAVProperty@Net@2@@1@$$QAU?$pair@VBrn@OpenHome@@PAVProperty@Net@2@@1@@Z 00434720 f i libohNetCore:CpProxy.obj
 0001:000337c0       ??$?0VBrn@OpenHome@@PAVProperty@Net@1@@?$pair@$$CBVBrn@OpenHome@@PAVProperty@Net@2@@std@@QAE@$$QAU?$pair@VBrn@OpenHome@@PAVProperty@Net@2@@1@@Z 004347c0 f i libohNetCore:CpProxy.obj
 0001:00033800       ??$forward@PAVProperty@Net@OpenHome@@@std@@YG$$QAPAVProperty@Net@OpenHome@@AAPAV123@@Z 00434800 f i libohNetCore:CpProxy.obj
 0001:00033810       ??$?0VBrn@OpenHome@@PAVProperty@Net@1@@?$_Pair_base@$$CBVBrn@OpenHome@@PAVProperty@Net@2@@std@@QAE@$$QAVBrn@OpenHome@@$$QAPAVProperty@Net@3@@Z 00434810 f i libohNetCore:CpProxy.obj
 0001:00033890       ?SetAssertHandler@OpenHome@@YGP6GXPBDI@ZP6GX0I@Z@Z 00434890 f   libohNetCore:Exception.obj
 0001:000338c0       ?CallAssertHandler@OpenHome@@YGXPBDI@Z 004348c0 f   libohNetCore:Exception.obj
 0001:000338f0       ?AssertHandlerDefault@OpenHome@@YGXPBDI@Z 004348f0 f   libohNetCore:Exception.obj
 0001:000339e0       ?UnhandledExceptionHandler@OpenHome@@YGXPBD0I@Z 004349e0 f   libohNetCore:Exception.obj
 0001:00033a80       ?UnhandledExceptionHandler@OpenHome@@YGXAAVException@1@@Z 00434a80 f   libohNetCore:Exception.obj
 0001:00033b30       ?UnhandledExceptionHandler@OpenHome@@YGXAAVexception@std@@@Z 00434b30 f   libohNetCore:Exception.obj
 0001:00033be0       ??0Exception@OpenHome@@QAE@PBD0I@Z 00434be0 f   libohNetCore:Exception.obj
 0001:00033c20       ??0Exception@OpenHome@@QAE@PBD@Z 00434c20 f   libohNetCore:Exception.obj
 0001:00033c60       ??1Exception@OpenHome@@QAE@XZ 00434c60 f   libohNetCore:Exception.obj
 0001:00033c80       ?Message@Exception@OpenHome@@QAEPBDXZ 00434c80 f   libohNetCore:Exception.obj
 0001:00033ca0       ?File@Exception@OpenHome@@QAEPBDXZ 00434ca0 f   libohNetCore:Exception.obj
 0001:00033cc0       ?Line@Exception@OpenHome@@QAEIXZ 00434cc0 f   libohNetCore:Exception.obj
 0001:00033ce0       ??RFunctorMsg@OpenHome@@QBEXPBD@Z 00434ce0 f i libohNetCore:Exception.obj
 0001:00033d20       ??0CpDeviceListUpnpAll@Net@OpenHome@@QAE@VFunctorCpDevice@12@0@Z 00434d20 f   libohNetCore:CpDeviceUpnpCore.obj
 0001:00033ee0       ??0CpDeviceListUpnpRoot@Net@OpenHome@@QAE@VFunctorCpDevice@12@0@Z 00434ee0 f   libohNetCore:CpDeviceUpnpCore.obj
 0001:000340a0       ??0CpDeviceListUpnpUuid@Net@OpenHome@@QAE@ABVBrx@2@VFunctorCpDevice@12@1@Z 004350a0 f   libohNetCore:CpDeviceUpnpCore.obj
 0001:00034270       ??0CpDeviceListUpnpDeviceType@Net@OpenHome@@QAE@ABVBrx@2@0IVFunctorCpDevice@12@1@Z 00435270 f   libohNetCore:CpDeviceUpnpCore.obj
 0001:00034440       ??0CpDeviceListUpnpServiceType@Net@OpenHome@@QAE@ABVBrx@2@0IVFunctorCpDevice@12@1@Z 00435440 f   libohNetCore:CpDeviceUpnpCore.obj
 0001:00034610       ??0FunctorCpiDevice@Net@OpenHome@@QAE@XZ 00435610 f i libohNetCore:CpDeviceUpnpCore.obj
 0001:00034640       ?StartCombined@UpnpLibrary@Net@OpenHome@@SGXI@Z 00435640 f   libohNetCore:OhNetCombined.obj
 0001:00034670       ??0Parameter@Net@OpenHome@@IAE@PBDW4EType@012@@Z 00435670 f   libohNetCore:Service.obj
 0001:000346c0       ??1Parameter@Net@OpenHome@@UAE@XZ 004356c0 f   libohNetCore:Service.obj
 0001:000346f0       ?Name@Parameter@Net@OpenHome@@QBEABVBrx@3@XZ 004356f0 f   libohNetCore:Service.obj
 0001:00034710       ?Type@Parameter@Net@OpenHome@@QBE?AW4EType@123@XZ 00435710 f   libohNetCore:Service.obj
 0001:00034730       ?ValidateBool@Parameter@Net@OpenHome@@UBEX_N@Z 00435730 f   libohNetCore:Service.obj
 0001:00034760       ?ValidateInt@Parameter@Net@OpenHome@@UBEXH@Z 00435760 f   libohNetCore:Service.obj
 0001:00034790       ?ValidateUint@Parameter@Net@OpenHome@@UBEXI@Z 00435790 f   libohNetCore:Service.obj
 0001:000347c0       ?ValidateString@Parameter@Net@OpenHome@@UBEXABVBrx@3@@Z 004357c0 f   libohNetCore:Service.obj
 0001:000347f0       ?ValidateBinary@Parameter@Net@OpenHome@@UBEXABVBrx@3@@Z 004357f0 f   libohNetCore:Service.obj
 0001:00034820       ??0ParameterBool@Net@OpenHome@@QAE@PBD@Z 00435820 f   libohNetCore:Service.obj
 0001:00034860       ??1ParameterBool@Net@OpenHome@@UAE@XZ 00435860 f   libohNetCore:Service.obj
 0001:00034890       ?ValidateBool@ParameterBool@Net@OpenHome@@UBEX_N@Z 00435890 f   libohNetCore:Service.obj
 0001:000348b0       ??0ParameterInt@Net@OpenHome@@QAE@PBDHHH@Z 004358b0 f   libohNetCore:Service.obj
 0001:00034980       ??1ParameterInt@Net@OpenHome@@UAE@XZ 00435980 f   libohNetCore:Service.obj
 0001:000349b0       ?ValidateInt@ParameterInt@Net@OpenHome@@UBEXH@Z 004359b0 f   libohNetCore:Service.obj
 0001:00034a90       ?MinValue@ParameterInt@Net@OpenHome@@QBEHXZ 00435a90 f   libohNetCore:Service.obj
 0001:00034ab0       ?MaxValue@ParameterInt@Net@OpenHome@@QBEHXZ 00435ab0 f   libohNetCore:Service.obj
 0001:00034ad0       ?Step@ParameterInt@Net@OpenHome@@QBEHXZ 00435ad0 f   libohNetCore:Service.obj
 0001:00034af0       ??0ParameterUint@Net@OpenHome@@QAE@PBDIII@Z 00435af0 f   libohNetCore:Service.obj
 0001:00034bc0       ??1ParameterUint@Net@OpenHome@@UAE@XZ 00435bc0 f   libohNetCore:Service.obj
 0001:00034bf0       ?ValidateUint@ParameterUint@Net@OpenHome@@UBEXI@Z 00435bf0 f   libohNetCore:Service.obj
 0001:00034ce0       ?MinValue@ParameterUint@Net@OpenHome@@QBEIXZ 00435ce0 f   libohNetCore:Service.obj
 0001:00034d00       ?MaxValue@ParameterUint@Net@OpenHome@@QBEIXZ 00435d00 f   libohNetCore:Service.obj
 0001:00034d20       ?Step@ParameterUint@Net@OpenHome@@QBEIXZ 00435d20 f   libohNetCore:Service.obj
 0001:00034d40       ??0ParameterString@Net@OpenHome@@QAE@PBD@Z 00435d40 f   libohNetCore:Service.obj
 0001:00034dc0       ??0ParameterString@Net@OpenHome@@QAE@PBDPAPADI@Z 00435dc0 f   libohNetCore:Service.obj
 0001:00034f50       ??1ParameterString@Net@OpenHome@@UAE@XZ 00435f50 f   libohNetCore:Service.obj
 0001:000350d0       ?ValidateString@ParameterString@Net@OpenHome@@UBEXABVBrx@3@@Z 004360d0 f   libohNetCore:Service.obj
 0001:00035250       ?AllowedValues@ParameterString@Net@OpenHome@@QBEABV?$map@VBrn@OpenHome@@PAVBrh@2@VBufferCmp@2@V?$allocator@U?$pair@$$CBVBrn@OpenHome@@PAVBrh@2@@std@@@std@@@std@@XZ 00436250 f   libohNetCore:Service.obj
 0001:00035270       ??0ParameterBinary@Net@OpenHome@@QAE@PBD@Z 00436270 f   libohNetCore:Service.obj
 0001:000352b0       ??1ParameterBinary@Net@OpenHome@@UAE@XZ 004362b0 f   libohNetCore:Service.obj
 0001:000352e0       ?ValidateBinary@ParameterBinary@Net@OpenHome@@UBEXABVBrx@3@@Z 004362e0 f   libohNetCore:Service.obj
 0001:00035300       ??0ParameterRelated@Net@OpenHome@@QAE@PBDABVProperty@12@@Z 00436300 f   libohNetCore:Service.obj
 0001:00035350       ??1ParameterRelated@Net@OpenHome@@UAE@XZ 00436350 f   libohNetCore:Service.obj
 0001:00035380       ?Related@ParameterRelated@Net@OpenHome@@QBEABVProperty@23@XZ 00436380 f   libohNetCore:Service.obj
 0001:000353a0       ?Parameter@Property@Net@OpenHome@@QBEABV023@XZ 004363a0 f   libohNetCore:Service.obj
 0001:000353c0       ?SequenceNumber@Property@Net@OpenHome@@QBEIXZ 004363c0 f   libohNetCore:Service.obj
 0001:000353e0       ?ReportChanged@Property@Net@OpenHome@@QAE_NXZ 004363e0 f   libohNetCore:Service.obj
 0001:00035420       ??0Property@Net@OpenHome@@IAE@PAVParameter@12@AAVFunctor@2@@Z 00436420 f   libohNetCore:Service.obj
 0001:000354c0       ??0Property@Net@OpenHome@@IAE@PAVParameter@12@@Z 004364c0 f   libohNetCore:Service.obj
 0001:00035550       ?Construct@Property@Net@OpenHome@@AAEXPAVParameter@23@@Z 00436550 f   libohNetCore:Service.obj
 0001:000355c0       ??1Property@Net@OpenHome@@UAE@XZ 004365c0 f   libohNetCore:Service.obj
 0001:00035630       ??0PropertyString@Net@OpenHome@@QAE@PBDAAVFunctor@2@@Z 00436630 f   libohNetCore:Service.obj
 0001:00035700       ??0PropertyString@Net@OpenHome@@QAE@PAVParameter@12@@Z 00436700 f   libohNetCore:Service.obj
 0001:00035780       ??1PropertyString@Net@OpenHome@@UAE@XZ 00436780 f   libohNetCore:Service.obj
 0001:000357f0       ?Value@PropertyString@Net@OpenHome@@QBEABVBrx@3@XZ 004367f0 f   libohNetCore:Service.obj
 0001:000358c0       ?Process@PropertyString@Net@OpenHome@@UAEXAAVIOutputProcessor@23@ABVBrx@3@@Z 004368c0 f   libohNetCore:Service.obj
 0001:00035a00       ?SetValue@PropertyString@Net@OpenHome@@QAE_NABVBrx@3@@Z 00436a00 f   libohNetCore:Service.obj
 0001:00035b00       ?Write@PropertyString@Net@OpenHome@@UAEXAAVIPropertyWriter@23@@Z 00436b00 f   libohNetCore:Service.obj
 0001:00035b50       ??0PropertyInt@Net@OpenHome@@QAE@PBDAAVFunctor@2@@Z 00436b50 f   libohNetCore:Service.obj
 0001:00035c10       ??0PropertyInt@Net@OpenHome@@QAE@PAVParameter@12@@Z 00436c10 f   libohNetCore:Service.obj
 0001:00035c50       ??1PropertyInt@Net@OpenHome@@UAE@XZ 00436c50 f   libohNetCore:Service.obj
 0001:00035c80       ?Value@PropertyInt@Net@OpenHome@@QBEHXZ 00436c80 f   libohNetCore:Service.obj
 0001:00035cf0       ?Process@PropertyInt@Net@OpenHome@@UAEXAAVIOutputProcessor@23@ABVBrx@3@@Z 00436cf0 f   libohNetCore:Service.obj
 0001:00035df0       ?SetValue@PropertyInt@Net@OpenHome@@QAE_NH@Z 00436df0 f   libohNetCore:Service.obj
 0001:00035ee0       ?Write@PropertyInt@Net@OpenHome@@UAEXAAVIPropertyWriter@23@@Z 00436ee0 f   libohNetCore:Service.obj
 0001:00035f30       ??0PropertyUint@Net@OpenHome@@QAE@PBDAAVFunctor@2@@Z 00436f30 f   libohNetCore:Service.obj
 0001:00035ff0       ??0PropertyUint@Net@OpenHome@@QAE@PAVParameter@12@@Z 00436ff0 f   libohNetCore:Service.obj
 0001:00036030       ??1PropertyUint@Net@OpenHome@@UAE@XZ 00437030 f   libohNetCore:Service.obj
 0001:00036060       ?Value@PropertyUint@Net@OpenHome@@QBEIXZ 00437060 f   libohNetCore:Service.obj
 0001:000360d0       ?Process@PropertyUint@Net@OpenHome@@UAEXAAVIOutputProcessor@23@ABVBrx@3@@Z 004370d0 f   libohNetCore:Service.obj
 0001:000361d0       ?SetValue@PropertyUint@Net@OpenHome@@QAE_NI@Z 004371d0 f   libohNetCore:Service.obj
 0001:000362c0       ?Write@PropertyUint@Net@OpenHome@@UAEXAAVIPropertyWriter@23@@Z 004372c0 f   libohNetCore:Service.obj
 0001:00036310       ??0PropertyBool@Net@OpenHome@@QAE@PBDAAVFunctor@2@@Z 00437310 f   libohNetCore:Service.obj
 0001:000363c0       ??0PropertyBool@Net@OpenHome@@QAE@PAVParameter@12@@Z 004373c0 f   libohNetCore:Service.obj
 0001:00036400       ??1PropertyBool@Net@OpenHome@@UAE@XZ 00437400 f   libohNetCore:Service.obj
 0001:00036430       ?Value@PropertyBool@Net@OpenHome@@QBE_NXZ 00437430 f   libohNetCore:Service.obj
 0001:000364a0       ?Process@PropertyBool@Net@OpenHome@@UAEXAAVIOutputProcessor@23@ABVBrx@3@@Z 004374a0 f   libohNetCore:Service.obj
 0001:000365a0       ?SetValue@PropertyBool@Net@OpenHome@@QAE_N_N@Z 004375a0 f   libohNetCore:Service.obj
 0001:000366a0       ?Write@PropertyBool@Net@OpenHome@@UAEXAAVIPropertyWriter@23@@Z 004376a0 f   libohNetCore:Service.obj
 0001:000366f0       ??0PropertyBinary@Net@OpenHome@@QAE@PBDAAVFunctor@2@@Z 004376f0 f   libohNetCore:Service.obj
 0001:000367c0       ??0PropertyBinary@Net@OpenHome@@QAE@PAVParameter@12@@Z 004377c0 f   libohNetCore:Service.obj
 0001:00036840       ??1PropertyBinary@Net@OpenHome@@UAE@XZ 00437840 f   libohNetCore:Service.obj
 0001:000368b0       ?Value@PropertyBinary@Net@OpenHome@@QBEABVBrx@3@XZ 004378b0 f   libohNetCore:Service.obj
 0001:00036980       ?Process@PropertyBinary@Net@OpenHome@@UAEXAAVIOutputProcessor@23@ABVBrx@3@@Z 00437980 f   libohNetCore:Service.obj
 0001:00036ad0       ?SetValue@PropertyBinary@Net@OpenHome@@QAE_NABVBrx@3@@Z 00437ad0 f   libohNetCore:Service.obj
 0001:00036bd0       ?Write@PropertyBinary@Net@OpenHome@@UAEXAAVIPropertyWriter@23@@Z 00437bd0 f   libohNetCore:Service.obj
 0001:00036c20       ??0Action@Net@OpenHome@@QAE@PBD@Z 00437c20 f   libohNetCore:Service.obj
 0001:00036ca0       ??1Action@Net@OpenHome@@QAE@XZ 00437ca0 f   libohNetCore:Service.obj
 0001:00036e10       ?AddInputParameter@Action@Net@OpenHome@@QAEXPAVParameter@23@@Z 00437e10 f   libohNetCore:Service.obj
 0001:00036e40       ?AddOutputParameter@Action@Net@OpenHome@@QAEXPAVParameter@23@@Z 00437e40 f   libohNetCore:Service.obj
 0001:00036e70       ?Name@Action@Net@OpenHome@@QBEABVBrx@3@XZ 00437e70 f   libohNetCore:Service.obj
 0001:00036e90       ?InputParameters@Action@Net@OpenHome@@QBEABV?$vector@PAVParameter@Net@OpenHome@@V?$allocator@PAVParameter@Net@OpenHome@@@std@@@std@@XZ 00437e90 f   libohNetCore:Service.obj
 0001:00036eb0       ?OutputParameters@Action@Net@OpenHome@@QBEABV?$vector@PAVParameter@Net@OpenHome@@V?$allocator@PAVParameter@Net@OpenHome@@@std@@@std@@XZ 00437eb0 f   libohNetCore:Service.obj
 0001:00036ed0       ??0ServiceType@Net@OpenHome@@QAE@PBD0I@Z 00437ed0 f   libohNetCore:Service.obj
 0001:00036f90       ??0ServiceType@Net@OpenHome@@QAE@ABV012@@Z 00437f90 f   libohNetCore:Service.obj
 0001:00037070       ??1ServiceType@Net@OpenHome@@QAE@XZ 00438070 f   libohNetCore:Service.obj
 0001:00037120       ?Domain@ServiceType@Net@OpenHome@@QBEABVBrx@3@XZ 00438120 f   libohNetCore:Service.obj
 0001:00037140       ?Name@ServiceType@Net@OpenHome@@QBEABVBrx@3@XZ 00438140 f   libohNetCore:Service.obj
 0001:00037160       ?Version@ServiceType@Net@OpenHome@@QBEIXZ 00438160 f   libohNetCore:Service.obj
 0001:00037180       ?FullName@ServiceType@Net@OpenHome@@QBEABVBrx@3@XZ 00438180 f   libohNetCore:Service.obj
 0001:00037290       ?FullNameUpnp@ServiceType@Net@OpenHome@@QBEABVBrx@3@XZ 00438290 f   libohNetCore:Service.obj
 0001:00037440       ?PathUpnp@ServiceType@Net@OpenHome@@QBEABVBrx@3@XZ 00438440 f   libohNetCore:Service.obj
 0001:00037520       ?ServiceId@ServiceType@Net@OpenHome@@QBEABVBrx@3@XZ 00438520 f   libohNetCore:Service.obj
 0001:000376e0       ??0Service@Net@OpenHome@@IAE@PBD0I@Z 004386e0 f   libohNetCore:Service.obj
 0001:00037720       ?ServiceType@Service@Net@OpenHome@@QBEABV023@XZ 00438720 f   libohNetCore:Service.obj
 0001:00037740       ??_EParameter@Net@OpenHome@@UAEPAXI@Z 00438740 f i libohNetCore:Service.obj
 0001:00037740       ??_GParameter@Net@OpenHome@@UAEPAXI@Z 00438740 f i libohNetCore:Service.obj
 0001:00037780       ??_EParameterBool@Net@OpenHome@@UAEPAXI@Z 00438780 f i libohNetCore:Service.obj
 0001:00037800       ??_EParameterInt@Net@OpenHome@@UAEPAXI@Z 00438800 f i libohNetCore:Service.obj
 0001:00037880       ??0ParameterValidationError@OpenHome@@QAE@PBDI@Z 00438880 f i libohNetCore:Service.obj
 0001:000378c0       ??1ParameterValidationError@OpenHome@@QAE@XZ 004388c0 f i libohNetCore:Service.obj
 0001:000378f0       ??_EParameterUint@Net@OpenHome@@UAEPAXI@Z 004388f0 f i libohNetCore:Service.obj
 0001:00037970       ??_EParameterString@Net@OpenHome@@UAEPAXI@Z 00438970 f i libohNetCore:Service.obj
 0001:000379f0       ??1?$map@VBrn@OpenHome@@PAVBrh@2@VBufferCmp@2@V?$allocator@U?$pair@$$CBVBrn@OpenHome@@PAVBrh@2@@std@@@std@@@std@@QAE@XZ 004389f0 f i libohNetCore:Service.obj
 0001:00037a20       ??1?$pair@VBrn@OpenHome@@PAVBrh@2@@std@@QAE@XZ 00438a20 f i libohNetCore:Service.obj
 0001:00037a50       ??1?$pair@V?$_Tree_iterator@V?$_Tree_val@V?$_Tmap_traits@VBrn@OpenHome@@PAVBrh@2@VBufferCmp@2@V?$allocator@U?$pair@$$CBVBrn@OpenHome@@PAVBrh@2@@std@@@std@@$0A@@std@@@std@@@std@@_N@std@@QAE@XZ 00438a50 f i libohNetCore:Service.obj
 0001:00037a80       ??1?$_Pair_base@VBrn@OpenHome@@PAVBrh@2@@std@@QAE@XZ 00438a80 f i libohNetCore:Service.obj
 0001:00037ab0       ??1?$_Pair_base@V?$_Tree_iterator@V?$_Tree_val@V?$_Tmap_traits@VBrn@OpenHome@@PAVBrh@2@VBufferCmp@2@V?$allocator@U?$pair@$$CBVBrn@OpenHome@@PAVBrh@2@@std@@@std@@$0A@@std@@@std@@@std@@_N@std@@QAE@XZ 00438ab0 f i libohNetCore:Service.obj
 0001:00037ae0       ??1?$_Tree_iterator@V?$_Tree_val@V?$_Tmap_traits@VBrn@OpenHome@@PAVBrh@2@VBufferCmp@2@V?$allocator@U?$pair@$$CBVBrn@OpenHome@@PAVBrh@2@@std@@@std@@$0A@@std@@@std@@@std@@QAE@XZ 00438ae0 f i libohNetCore:Service.obj
 0001:00037b10       ??1?$_Tree_const_iterator@V?$_Tree_val@V?$_Tmap_traits@VBrn@OpenHome@@PAVBrh@2@VBufferCmp@2@V?$allocator@U?$pair@$$CBVBrn@OpenHome@@PAVBrh@2@@std@@@std@@$0A@@std@@@std@@@std@@QAE@XZ 00438b10 f i libohNetCore:Service.obj
 0001:00037b40       ??1?$_Tree_unchecked_const_iterator@V?$_Tree_val@V?$_Tmap_traits@VBrn@OpenHome@@PAVBrh@2@VBufferCmp@2@V?$allocator@U?$pair@$$CBVBrn@OpenHome@@PAVBrh@2@@std@@@std@@$0A@@std@@@std@@U_Iterator_base12@2@@std@@QAE@XZ 00438b40 f i libohNetCore:Service.obj
 0001:00037b70       ??1?$_Iterator012@Ubidirectional_iterator_tag@std@@U?$pair@$$CBVBrn@OpenHome@@PAVBrh@2@@2@HPBU32@ABU32@U_Iterator_base12@2@@std@@QAE@XZ 00438b70 f i libohNetCore:Service.obj
 0001:00037ba0       ??_EParameterBinary@Net@OpenHome@@UAEPAXI@Z 00438ba0 f i libohNetCore:Service.obj
 0001:00037c20       ??_EParameterRelated@Net@OpenHome@@UAEPAXI@Z 00438c20 f i libohNetCore:Service.obj
 0001:00037ca0       ??_EProperty@Net@OpenHome@@UAEPAXI@Z 00438ca0 f i libohNetCore:Service.obj
 0001:00037ca0       ??_GProperty@Net@OpenHome@@UAEPAXI@Z 00438ca0 f i libohNetCore:Service.obj
 0001:00037ce0       ??_EPropertyString@Net@OpenHome@@UAEPAXI@Z 00438ce0 f i libohNetCore:Service.obj
 0001:00037d60       ??9Brx@OpenHome@@QBE_NABV01@@Z 00438d60 f i libohNetCore:Service.obj
 0001:00037da0       ??_EPropertyInt@Net@OpenHome@@UAEPAXI@Z 00438da0 f i libohNetCore:Service.obj
 0001:00037e20       ??_EPropertyUint@Net@OpenHome@@UAEPAXI@Z 00438e20 f i libohNetCore:Service.obj
 0001:00037ea0       ??_EPropertyBool@Net@OpenHome@@UAEPAXI@Z 00438ea0 f i libohNetCore:Service.obj
 0001:00037f20       ??_EPropertyBinary@Net@OpenHome@@UAEPAXI@Z 00438f20 f i libohNetCore:Service.obj
 0001:00037fa0       ??0?$map@VBrn@OpenHome@@PAVBrh@2@VBufferCmp@2@V?$allocator@U?$pair@$$CBVBrn@OpenHome@@PAVBrh@2@@std@@@std@@@std@@QAE@XZ 00438fa0 f i libohNetCore:Service.obj
 0001:00037ff0       ??1?$_Tree@V?$_Tmap_traits@VBrn@OpenHome@@PAVBrh@2@VBufferCmp@2@V?$allocator@U?$pair@$$CBVBrn@OpenHome@@PAVBrh@2@@std@@@std@@$0A@@std@@@std@@QAE@XZ 00438ff0 f i libohNetCore:Service.obj
 0001:00038060       ?begin@?$_Tree@V?$_Tmap_traits@VBrn@OpenHome@@PAVBrh@2@VBufferCmp@2@V?$allocator@U?$pair@$$CBVBrn@OpenHome@@PAVBrh@2@@std@@@std@@$0A@@std@@@std@@QAE?AV?$_Tree_iterator@V?$_Tree_val@V?$_Tmap_traits@VBrn@OpenHome@@PAVBrh@2@VBufferCmp@2@V?$allocator@U?$pair@$$CBVBrn@OpenHome@@PAVBrh@2@@std@@@std@@$0A@@std@@@std@@@2@XZ 00439060 f i libohNetCore:Service.obj
 0001:000380c0       ?end@?$_Tree@V?$_Tmap_traits@VBrn@OpenHome@@PAVBrh@2@VBufferCmp@2@V?$allocator@U?$pair@$$CBVBrn@OpenHome@@PAVBrh@2@@std@@@std@@$0A@@std@@@std@@QAE?AV?$_Tree_iterator@V?$_Tree_val@V?$_Tmap_traits@VBrn@OpenHome@@PAVBrh@2@VBufferCmp@2@V?$allocator@U?$pair@$$CBVBrn@OpenHome@@PAVBrh@2@@std@@@std@@$0A@@std@@@std@@@2@XZ 004390c0 f i libohNetCore:Service.obj
 0001:00038110       ?end@?$_Tree@V?$_Tmap_traits@VBrn@OpenHome@@PAVBrh@2@VBufferCmp@2@V?$allocator@U?$pair@$$CBVBrn@OpenHome@@PAVBrh@2@@std@@@std@@$0A@@std@@@std@@QBE?AV?$_Tree_const_iterator@V?$_Tree_val@V?$_Tmap_traits@VBrn@OpenHome@@PAVBrh@2@VBufferCmp@2@V?$allocator@U?$pair@$$CBVBrn@OpenHome@@PAVBrh@2@@std@@@std@@$0A@@std@@@std@@@2@XZ 00439110 f i libohNetCore:Service.obj
 0001:00038160       ?size@?$_Tree@V?$_Tmap_traits@VBrn@OpenHome@@PAVBrh@2@VBufferCmp@2@V?$allocator@U?$pair@$$CBVBrn@OpenHome@@PAVBrh@2@@std@@@std@@$0A@@std@@@std@@QBEIXZ 00439160 f i libohNetCore:Service.obj
 0001:00038180       ?find@?$_Tree@V?$_Tmap_traits@VBrn@OpenHome@@PAVBrh@2@VBufferCmp@2@V?$allocator@U?$pair@$$CBVBrn@OpenHome@@PAVBrh@2@@std@@@std@@$0A@@std@@@std@@QBE?AV?$_Tree_const_iterator@V?$_Tree_val@V?$_Tmap_traits@VBrn@OpenHome@@PAVBrh@2@VBufferCmp@2@V?$allocator@U?$pair@$$CBVBrn@OpenHome@@PAVBrh@2@@std@@@std@@$0A@@std@@@std@@@2@ABVBrn@OpenHome@@@Z 00439180 f i libohNetCore:Service.obj
 0001:00038360       ??0?$vector@PAVParameter@Net@OpenHome@@V?$allocator@PAVParameter@Net@OpenHome@@@std@@@std@@QAE@XZ 00439360 f i libohNetCore:Service.obj
 0001:000383a0       ??1?$vector@PAVParameter@Net@OpenHome@@V?$allocator@PAVParameter@Net@OpenHome@@@std@@@std@@QAE@XZ 004393a0 f i libohNetCore:Service.obj
 0001:00038410       ??A?$vector@PAVParameter@Net@OpenHome@@V?$allocator@PAVParameter@Net@OpenHome@@@std@@@std@@QAEAAPAVParameter@Net@OpenHome@@I@Z 00439410 f i libohNetCore:Service.obj
 0001:000384b0       ?push_back@?$vector@PAVParameter@Net@OpenHome@@V?$allocator@PAVParameter@Net@OpenHome@@@std@@@std@@QAEXABQAVParameter@Net@OpenHome@@@Z 004394b0 f i libohNetCore:Service.obj
 0001:000385c0       ??C?$_Tree_iterator@V?$_Tree_val@V?$_Tmap_traits@VBrn@OpenHome@@PAVBrh@2@VBufferCmp@2@V?$allocator@U?$pair@$$CBVBrn@OpenHome@@PAVBrh@2@@std@@@std@@$0A@@std@@@std@@@std@@QBEPAU?$pair@$$CBVBrn@OpenHome@@PAVBrh@2@@1@XZ 004395c0 f i libohNetCore:Service.obj
 0001:000385f0       ??E?$_Tree_iterator@V?$_Tree_val@V?$_Tmap_traits@VBrn@OpenHome@@PAVBrh@2@VBufferCmp@2@V?$allocator@U?$pair@$$CBVBrn@OpenHome@@PAVBrh@2@@std@@@std@@$0A@@std@@@std@@@std@@QAE?AV01@H@Z 004395f0 f i libohNetCore:Service.obj
 0001:000386c0       ??8?$_Tree_const_iterator@V?$_Tree_val@V?$_Tmap_traits@VBrn@OpenHome@@PAVBrh@2@VBufferCmp@2@V?$allocator@U?$pair@$$CBVBrn@OpenHome@@PAVBrh@2@@std@@@std@@$0A@@std@@@std@@@std@@QBE_NABV01@@Z 004396c0 f i libohNetCore:Service.obj
 0001:00038780       ??9?$_Tree_const_iterator@V?$_Tree_val@V?$_Tmap_traits@VBrn@OpenHome@@PAVBrh@2@VBufferCmp@2@V?$allocator@U?$pair@$$CBVBrn@OpenHome@@PAVBrh@2@@std@@@std@@$0A@@std@@@std@@@std@@QBE_NABV01@@Z 00439780 f i libohNetCore:Service.obj
 0001:000387c0       ??0?$_Tree_const_iterator@V?$_Tree_val@V?$_Tmap_traits@VBrn@OpenHome@@PAVBrh@2@VBufferCmp@2@V?$allocator@U?$pair@$$CBVBrn@OpenHome@@PAVBrh@2@@std@@@std@@$0A@@std@@@std@@@std@@QAE@ABV01@@Z 004397c0 f i libohNetCore:Service.obj
 0001:000387f0       ??0?$_Tree_iterator@V?$_Tree_val@V?$_Tmap_traits@VBrn@OpenHome@@PAVBrh@2@VBufferCmp@2@V?$allocator@U?$pair@$$CBVBrn@OpenHome@@PAVBrh@2@@std@@@std@@$0A@@std@@@std@@@std@@QAE@ABV01@@Z 004397f0 f i libohNetCore:Service.obj
 0001:00038820       ??0?$_Tree_unchecked_const_iterator@V?$_Tree_val@V?$_Tmap_traits@VBrn@OpenHome@@PAVBrh@2@VBufferCmp@2@V?$allocator@U?$pair@$$CBVBrn@OpenHome@@PAVBrh@2@@std@@@std@@$0A@@std@@@std@@U_Iterator_base12@2@@std@@QAE@ABV01@@Z 00439820 f i libohNetCore:Service.obj
 0001:00038860       ??0?$_Iterator012@Ubidirectional_iterator_tag@std@@U?$pair@$$CBVBrn@OpenHome@@PAVBrh@2@@2@HPBU32@ABU32@U_Iterator_base12@2@@std@@QAE@ABU01@@Z 00439860 f i libohNetCore:Service.obj
 0001:00038890       ??0?$_Tree@V?$_Tmap_traits@VBrn@OpenHome@@PAVBrh@2@VBufferCmp@2@V?$allocator@U?$pair@$$CBVBrn@OpenHome@@PAVBrh@2@@std@@@std@@$0A@@std@@@std@@QAE@ABVBufferCmp@OpenHome@@ABV?$allocator@U?$pair@$$CBVBrn@OpenHome@@PAVBrh@2@@std@@@1@@Z 00439890 f i libohNetCore:Service.obj
 0001:000388e0       ?lower_bound@?$_Tree@V?$_Tmap_traits@VBrn@OpenHome@@PAVBrh@2@VBufferCmp@2@V?$allocator@U?$pair@$$CBVBrn@OpenHome@@PAVBrh@2@@std@@@std@@$0A@@std@@@std@@QBE?AV?$_Tree_const_iterator@V?$_Tree_val@V?$_Tmap_traits@VBrn@OpenHome@@PAVBrh@2@VBufferCmp@2@V?$allocator@U?$pair@$$CBVBrn@OpenHome@@PAVBrh@2@@std@@@std@@$0A@@std@@@std@@@2@ABVBrn@OpenHome@@@Z 004398e0 f i libohNetCore:Service.obj
 0001:00038940       ?_Lmost@?$_Tree@V?$_Tmap_traits@VBrn@OpenHome@@PAVBrh@2@VBufferCmp@2@V?$allocator@U?$pair@$$CBVBrn@OpenHome@@PAVBrh@2@@std@@@std@@$0A@@std@@@std@@IBEAAPAU_Node@?$_Tree_nod@V?$_Tmap_traits@VBrn@OpenHome@@PAVBrh@2@VBufferCmp@2@V?$allocator@U?$pair@$$CBVBrn@OpenHome@@PAVBrh@2@@std@@@std@@$0A@@std@@@2@XZ 00439940 f i libohNetCore:Service.obj
 0001:00038970       ?_Tidy@?$_Tree@V?$_Tmap_traits@VBrn@OpenHome@@PAVBrh@2@VBufferCmp@2@V?$allocator@U?$pair@$$CBVBrn@OpenHome@@PAVBrh@2@@std@@@std@@$0A@@std@@@std@@IAEXXZ 00439970 f i libohNetCore:Service.obj
 0001:00038a70       ??1?$_Tree_val@V?$_Tmap_traits@VBrn@OpenHome@@PAVBrh@2@VBufferCmp@2@V?$allocator@U?$pair@$$CBVBrn@OpenHome@@PAVBrh@2@@std@@@std@@$0A@@std@@@std@@QAE@XZ 00439a70 f i libohNetCore:Service.obj
 0001:00038ae0       ?_Key@?$_Tree_val@V?$_Tmap_traits@VBrn@OpenHome@@PAVBrh@2@VBufferCmp@2@V?$allocator@U?$pair@$$CBVBrn@OpenHome@@PAVBrh@2@@std@@@std@@$0A@@std@@@std@@SGAAVBrn@OpenHome@@PAU_Node@?$_Tree_nod@V?$_Tmap_traits@VBrn@OpenHome@@PAVBrh@2@VBufferCmp@2@V?$allocator@U?$pair@$$CBVBrn@OpenHome@@PAVBrh@2@@std@@@std@@$0A@@std@@@2@@Z 00439ae0 f i libohNetCore:Service.obj
 0001:00038b00       ??0?$allocator@U?$pair@$$CBVBrn@OpenHome@@PAVBrh@2@@std@@@std@@QAE@XZ 00439b00 f i libohNetCore:Service.obj
 0001:00038b20       ?_Inside@?$vector@PAVParameter@Net@OpenHome@@V?$allocator@PAVParameter@Net@OpenHome@@@std@@@std@@IBE_NPBQAVParameter@Net@OpenHome@@@Z 00439b20 f i libohNetCore:Service.obj
 0001:00038b70       ?_Reserve@?$vector@PAVParameter@Net@OpenHome@@V?$allocator@PAVParameter@Net@OpenHome@@@std@@@std@@IAEXI@Z 00439b70 f i libohNetCore:Service.obj
 0001:00038bf0       ?_Tidy@?$vector@PAVParameter@Net@OpenHome@@V?$allocator@PAVParameter@Net@OpenHome@@@std@@@std@@IAEXXZ 00439bf0 f i libohNetCore:Service.obj
 0001:00038c80       ?_Orphan_range@?$vector@PAVParameter@Net@OpenHome@@V?$allocator@PAVParameter@Net@OpenHome@@@std@@@std@@IBEXPAPAVParameter@Net@OpenHome@@0@Z 00439c80 f i libohNetCore:Service.obj
 0001:00038d90       ??0?$_Vector_val@PAVParameter@Net@OpenHome@@V?$allocator@PAVParameter@Net@OpenHome@@@std@@@std@@QAE@V?$allocator@PAVParameter@Net@OpenHome@@@1@@Z 00439d90 f i libohNetCore:Service.obj
 0001:00038eb0       ??1?$_Vector_val@PAVParameter@Net@OpenHome@@V?$allocator@PAVParameter@Net@OpenHome@@@std@@@std@@QAE@XZ 00439eb0 f i libohNetCore:Service.obj
 0001:00038f90       ??0?$allocator@PAVParameter@Net@OpenHome@@@std@@QAE@XZ 00439f90 f i libohNetCore:Service.obj
 0001:00038fb0       ??0?$_Tree_iterator@V?$_Tree_val@V?$_Tmap_traits@VBrn@OpenHome@@PAVBrh@2@VBufferCmp@2@V?$allocator@U?$pair@$$CBVBrn@OpenHome@@PAVBrh@2@@std@@@std@@$0A@@std@@@std@@@std@@QAE@PAU_Node@?$_Tree_nod@V?$_Tmap_traits@VBrn@OpenHome@@PAVBrh@2@VBufferCmp@2@V?$allocator@U?$pair@$$CBVBrn@OpenHome@@PAVBrh@2@@std@@@std@@$0A@@std@@@1@PBV?$_Tree_val@V?$_Tmap_traits@VBrn@OpenHome@@PAVBrh@2@VBufferCmp@2@V?$allocator@U?$pair@$$CBVBrn@OpenHome@@PAVBrh@2@@std@@@std@@$0A@@std@@@1@@Z 00439fb0 f i libohNetCore:Service.obj
 0001:00038ff0       ??D?$_Tree_iterator@V?$_Tree_val@V?$_Tmap_traits@VBrn@OpenHome@@PAVBrh@2@VBufferCmp@2@V?$allocator@U?$pair@$$CBVBrn@OpenHome@@PAVBrh@2@@std@@@std@@$0A@@std@@@std@@@std@@QBEAAU?$pair@$$CBVBrn@OpenHome@@PAVBrh@2@@1@XZ 00439ff0 f i libohNetCore:Service.obj
 0001:00039020       ??E?$_Tree_iterator@V?$_Tree_val@V?$_Tmap_traits@VBrn@OpenHome@@PAVBrh@2@VBufferCmp@2@V?$allocator@U?$pair@$$CBVBrn@OpenHome@@PAVBrh@2@@std@@@std@@$0A@@std@@@std@@@std@@QAEAAV01@XZ 0043a020 f i libohNetCore:Service.obj
 0001:00039050       ??0?$_Tree_const_iterator@V?$_Tree_val@V?$_Tmap_traits@VBrn@OpenHome@@PAVBrh@2@VBufferCmp@2@V?$allocator@U?$pair@$$CBVBrn@OpenHome@@PAVBrh@2@@std@@@std@@$0A@@std@@@std@@@std@@QAE@PAU_Node@?$_Tree_nod@V?$_Tmap_traits@VBrn@OpenHome@@PAVBrh@2@VBufferCmp@2@V?$allocator@U?$pair@$$CBVBrn@OpenHome@@PAVBrh@2@@std@@@std@@$0A@@std@@@1@PBV?$_Tree_val@V?$_Tmap_traits@VBrn@OpenHome@@PAVBrh@2@VBufferCmp@2@V?$allocator@U?$pair@$$CBVBrn@OpenHome@@PAVBrh@2@@std@@@std@@$0A@@std@@@1@@Z 0043a050 f i libohNetCore:Service.obj
 0001:00039090       ?_Mynode@?$_Tree_unchecked_const_iterator@V?$_Tree_val@V?$_Tmap_traits@VBrn@OpenHome@@PAVBrh@2@VBufferCmp@2@V?$allocator@U?$pair@$$CBVBrn@OpenHome@@PAVBrh@2@@std@@@std@@$0A@@std@@@std@@U_Iterator_base12@2@@std@@QBEPAU_Node@?$_Tree_nod@V?$_Tmap_traits@VBrn@OpenHome@@PAVBrh@2@VBufferCmp@2@V?$allocator@U?$pair@$$CBVBrn@OpenHome@@PAVBrh@2@@std@@@std@@$0A@@std@@@2@XZ 0043a090 f i libohNetCore:Service.obj
 0001:000390b0       ?erase@?$_Tree@V?$_Tmap_traits@VBrn@OpenHome@@PAVBrh@2@VBufferCmp@2@V?$allocator@U?$pair@$$CBVBrn@OpenHome@@PAVBrh@2@@std@@@std@@$0A@@std@@@std@@QAE?AV?$_Tree_iterator@V?$_Tree_val@V?$_Tmap_traits@VBrn@OpenHome@@PAVBrh@2@VBufferCmp@2@V?$allocator@U?$pair@$$CBVBrn@OpenHome@@PAVBrh@2@@std@@@std@@$0A@@std@@@std@@@2@V?$_Tree_const_iterator@V?$_Tree_val@V?$_Tmap_traits@VBrn@OpenHome@@PAVBrh@2@VBufferCmp@2@V?$allocator@U?$pair@$$CBVBrn@OpenHome@@PAVBrh@2@@std@@@std@@$0A@@std@@@std@@@2@0@Z 0043a0b0 f i libohNetCore:Service.obj
 0001:000392b0       ?_Lbound@?$_Tree@V?$_Tmap_traits@VBrn@OpenHome@@PAVBrh@2@VBufferCmp@2@V?$allocator@U?$pair@$$CBVBrn@OpenHome@@PAVBrh@2@@std@@@std@@$0A@@std@@@std@@IBEPAU_Node@?$_Tree_nod@V?$_Tmap_traits@VBrn@OpenHome@@PAVBrh@2@VBufferCmp@2@V?$allocator@U?$pair@$$CBVBrn@OpenHome@@PAVBrh@2@@std@@@std@@$0A@@std@@@2@ABVBrn@OpenHome@@@Z 0043a2b0 f i libohNetCore:Service.obj
 0001:00039360       ??0?$_Tree_val@V?$_Tmap_traits@VBrn@OpenHome@@PAVBrh@2@VBufferCmp@2@V?$allocator@U?$pair@$$CBVBrn@OpenHome@@PAVBrh@2@@std@@@std@@$0A@@std@@@std@@QAE@ABVBufferCmp@OpenHome@@V?$allocator@U?$pair@$$CBVBrn@OpenHome@@PAVBrh@2@@std@@@1@@Z 0043a360 f i libohNetCore:Service.obj
 0001:00039460       ?_Left@?$_Tree_val@V?$_Tmap_traits@VBrn@OpenHome@@PAVBrh@2@VBufferCmp@2@V?$allocator@U?$pair@$$CBVBrn@OpenHome@@PAVBrh@2@@std@@@std@@$0A@@std@@@std@@SGAAPAU_Node@?$_Tree_nod@V?$_Tmap_traits@VBrn@OpenHome@@PAVBrh@2@VBufferCmp@2@V?$allocator@U?$pair@$$CBVBrn@OpenHome@@PAVBrh@2@@std@@@std@@$0A@@std@@@2@PAU342@@Z 0043a460 f i libohNetCore:Service.obj
 0001:00039470       ?_Myval@?$_Tree_val@V?$_Tmap_traits@VBrn@OpenHome@@PAVBrh@2@VBufferCmp@2@V?$allocator@U?$pair@$$CBVBrn@OpenHome@@PAVBrh@2@@std@@@std@@$0A@@std@@@std@@SGAAU?$pair@$$CBVBrn@OpenHome@@PAVBrh@2@@2@PAU_Node@?$_Tree_nod@V?$_Tmap_traits@VBrn@OpenHome@@PAVBrh@2@VBufferCmp@2@V?$allocator@U?$pair@$$CBVBrn@OpenHome@@PAVBrh@2@@std@@@std@@$0A@@std@@@2@@Z 0043a470 f i libohNetCore:Service.obj
 0001:00039480       ??1?$_Tree_nod@V?$_Tmap_traits@VBrn@OpenHome@@PAVBrh@2@VBufferCmp@2@V?$allocator@U?$pair@$$CBVBrn@OpenHome@@PAVBrh@2@@std@@@std@@$0A@@std@@@std@@QAE@XZ 0043a480 f i libohNetCore:Service.obj
 0001:00039560       ??0?$allocator@U?$pair@$$CBVBrn@OpenHome@@PAVBrh@2@@std@@@std@@QAE@ABV01@@Z 0043a560 f i libohNetCore:Service.obj
 0001:00039580       ?deallocate@?$allocator@U_Node@?$_Tree_nod@V?$_Tmap_traits@VBrn@OpenHome@@PAVBrh@2@VBufferCmp@2@V?$allocator@U?$pair@$$CBVBrn@OpenHome@@PAVBrh@2@@std@@@std@@$0A@@std@@@std@@@std@@QAEXPAU_Node@?$_Tree_nod@V?$_Tmap_traits@VBrn@OpenHome@@PAVBrh@2@VBufferCmp@2@V?$allocator@U?$pair@$$CBVBrn@OpenHome@@PAVBrh@2@@std@@@std@@$0A@@std@@@2@I@Z 0043a580 f i libohNetCore:Service.obj
 0001:000395b0       ?reserve@?$vector@PAVParameter@Net@OpenHome@@V?$allocator@PAVParameter@Net@OpenHome@@@std@@@std@@QAEXI@Z 0043a5b0 f i libohNetCore:Service.obj
 0001:00039720       ?capacity@?$vector@PAVParameter@Net@OpenHome@@V?$allocator@PAVParameter@Net@OpenHome@@@std@@@std@@QBEIXZ 0043a720 f i libohNetCore:Service.obj
 0001:00039750       ?max_size@?$vector@PAVParameter@Net@OpenHome@@V?$allocator@PAVParameter@Net@OpenHome@@@std@@@std@@QBEIXZ 0043a750 f i libohNetCore:Service.obj
 0001:00039780       ?_Destroy@?$vector@PAVParameter@Net@OpenHome@@V?$allocator@PAVParameter@Net@OpenHome@@@std@@@std@@IAEXPAPAVParameter@Net@OpenHome@@0@Z 0043a780 f i libohNetCore:Service.obj
 0001:000397c0       ?_Grow_to@?$vector@PAVParameter@Net@OpenHome@@V?$allocator@PAVParameter@Net@OpenHome@@@std@@@std@@IBEII@Z 0043a7c0 f i libohNetCore:Service.obj
 0001:00039840       ?_Xlen@?$vector@PAVParameter@Net@OpenHome@@V?$allocator@PAVParameter@Net@OpenHome@@@std@@@std@@IBEXXZ 0043a840 f i libohNetCore:Service.obj
 0001:00039870       ??0?$allocator@PAVParameter@Net@OpenHome@@@std@@QAE@ABV01@@Z 0043a870 f i libohNetCore:Service.obj
 0001:00039890       ?deallocate@?$allocator@PAVParameter@Net@OpenHome@@@std@@QAEXPAPAVParameter@Net@OpenHome@@I@Z 0043a890 f i libohNetCore:Service.obj
 0001:000398c0       ??D?$_Tree_const_iterator@V?$_Tree_val@V?$_Tmap_traits@VBrn@OpenHome@@PAVBrh@2@VBufferCmp@2@V?$allocator@U?$pair@$$CBVBrn@OpenHome@@PAVBrh@2@@std@@@std@@$0A@@std@@@std@@@std@@QBEABU?$pair@$$CBVBrn@OpenHome@@PAVBrh@2@@1@XZ 0043a8c0 f i libohNetCore:Service.obj
 0001:00039980       ??E?$_Tree_const_iterator@V?$_Tree_val@V?$_Tmap_traits@VBrn@OpenHome@@PAVBrh@2@VBufferCmp@2@V?$allocator@U?$pair@$$CBVBrn@OpenHome@@PAVBrh@2@@std@@@std@@$0A@@std@@@std@@@std@@QAEAAV01@XZ 0043a980 f i libohNetCore:Service.obj
 0001:00039a40       ??0?$_Tree_unchecked_const_iterator@V?$_Tree_val@V?$_Tmap_traits@VBrn@OpenHome@@PAVBrh@2@VBufferCmp@2@V?$allocator@U?$pair@$$CBVBrn@OpenHome@@PAVBrh@2@@std@@@std@@$0A@@std@@@std@@U_Iterator_base12@2@@std@@QAE@PAU_Node@?$_Tree_nod@V?$_Tmap_traits@VBrn@OpenHome@@PAVBrh@2@VBufferCmp@2@V?$allocator@U?$pair@$$CBVBrn@OpenHome@@PAVBrh@2@@std@@@std@@$0A@@std@@@1@PBV?$_Tree_val@V?$_Tmap_traits@VBrn@OpenHome@@PAVBrh@2@VBufferCmp@2@V?$allocator@U?$pair@$$CBVBrn@OpenHome@@PAVBrh@2@@std@@@std@@$0A@@std@@@1@@Z 0043aa40 f i libohNetCore:Service.obj
 0001:00039ac0       ??1?$_Tmap_traits@VBrn@OpenHome@@PAVBrh@2@VBufferCmp@2@V?$allocator@U?$pair@$$CBVBrn@OpenHome@@PAVBrh@2@@std@@@std@@$0A@@std@@QAE@XZ 0043aac0 f i libohNetCore:Service.obj
 0001:00039af0       ??0?$_Iterator012@Ubidirectional_iterator_tag@std@@U?$pair@$$CBVBrn@OpenHome@@PAVBrh@2@@2@HPBU32@ABU32@U_Iterator_base12@2@@std@@QAE@XZ 0043aaf0 f i libohNetCore:Service.obj
 0001:00039b20       ?erase@?$_Tree@V?$_Tmap_traits@VBrn@OpenHome@@PAVBrh@2@VBufferCmp@2@V?$allocator@U?$pair@$$CBVBrn@OpenHome@@PAVBrh@2@@std@@@std@@$0A@@std@@@std@@QAE?AV?$_Tree_iterator@V?$_Tree_val@V?$_Tmap_traits@VBrn@OpenHome@@PAVBrh@2@VBufferCmp@2@V?$allocator@U?$pair@$$CBVBrn@OpenHome@@PAVBrh@2@@std@@@std@@$0A@@std@@@std@@@2@V?$_Tree_const_iterator@V?$_Tree_val@V?$_Tmap_traits@VBrn@OpenHome@@PAVBrh@2@VBufferCmp@2@V?$allocator@U?$pair@$$CBVBrn@OpenHome@@PAVBrh@2@@std@@@std@@$0A@@std@@@std@@@2@@Z 0043ab20 f i libohNetCore:Service.obj
 0001:0003a230       ?clear@?$_Tree@V?$_Tmap_traits@VBrn@OpenHome@@PAVBrh@2@VBufferCmp@2@V?$allocator@U?$pair@$$CBVBrn@OpenHome@@PAVBrh@2@@std@@@std@@$0A@@std@@@std@@QAEXXZ 0043b230 f i libohNetCore:Service.obj
 0001:0003a2b0       ?_Root@?$_Tree@V?$_Tmap_traits@VBrn@OpenHome@@PAVBrh@2@VBufferCmp@2@V?$allocator@U?$pair@$$CBVBrn@OpenHome@@PAVBrh@2@@std@@@std@@$0A@@std@@@std@@IBEAAPAU_Node@?$_Tree_nod@V?$_Tmap_traits@VBrn@OpenHome@@PAVBrh@2@VBufferCmp@2@V?$allocator@U?$pair@$$CBVBrn@OpenHome@@PAVBrh@2@@std@@@std@@$0A@@std@@@2@XZ 0043b2b0 f i libohNetCore:Service.obj
 0001:0003a2e0       ?_Color@?$_Tree_val@V?$_Tmap_traits@VBrn@OpenHome@@PAVBrh@2@VBufferCmp@2@V?$allocator@U?$pair@$$CBVBrn@OpenHome@@PAVBrh@2@@std@@@std@@$0A@@std@@@std@@SGAADPAU_Node@?$_Tree_nod@V?$_Tmap_traits@VBrn@OpenHome@@PAVBrh@2@VBufferCmp@2@V?$allocator@U?$pair@$$CBVBrn@OpenHome@@PAVBrh@2@@std@@@std@@$0A@@std@@@2@@Z 0043b2e0 f i libohNetCore:Service.obj
 0001:0003a2f0       ?_Isnil@?$_Tree_val@V?$_Tmap_traits@VBrn@OpenHome@@PAVBrh@2@VBufferCmp@2@V?$allocator@U?$pair@$$CBVBrn@OpenHome@@PAVBrh@2@@std@@@std@@$0A@@std@@@std@@SGAADPAU_Node@?$_Tree_nod@V?$_Tmap_traits@VBrn@OpenHome@@PAVBrh@2@VBufferCmp@2@V?$allocator@U?$pair@$$CBVBrn@OpenHome@@PAVBrh@2@@std@@@std@@$0A@@std@@@2@@Z 0043b2f0 f i libohNetCore:Service.obj
 0001:0003a300       ?_Parent@?$_Tree_val@V?$_Tmap_traits@VBrn@OpenHome@@PAVBrh@2@VBufferCmp@2@V?$allocator@U?$pair@$$CBVBrn@OpenHome@@PAVBrh@2@@std@@@std@@$0A@@std@@@std@@SGAAPAU_Node@?$_Tree_nod@V?$_Tmap_traits@VBrn@OpenHome@@PAVBrh@2@VBufferCmp@2@V?$allocator@U?$pair@$$CBVBrn@OpenHome@@PAVBrh@2@@std@@@std@@$0A@@std@@@2@PAU342@@Z 0043b300 f i libohNetCore:Service.obj
 0001:0003a310       ?_Right@?$_Tree_val@V?$_Tmap_traits@VBrn@OpenHome@@PAVBrh@2@VBufferCmp@2@V?$allocator@U?$pair@$$CBVBrn@OpenHome@@PAVBrh@2@@std@@@std@@$0A@@std@@@std@@SGAAPAU_Node@?$_Tree_nod@V?$_Tmap_traits@VBrn@OpenHome@@PAVBrh@2@VBufferCmp@2@V?$allocator@U?$pair@$$CBVBrn@OpenHome@@PAVBrh@2@@std@@@std@@$0A@@std@@@2@PAU342@@Z 0043b310 f i libohNetCore:Service.obj
 0001:0003a320       ??0?$_Tree_nod@V?$_Tmap_traits@VBrn@OpenHome@@PAVBrh@2@VBufferCmp@2@V?$allocator@U?$pair@$$CBVBrn@OpenHome@@PAVBrh@2@@std@@@std@@$0A@@std@@@std@@QAE@ABVBufferCmp@OpenHome@@V?$allocator@U?$pair@$$CBVBrn@OpenHome@@PAVBrh@2@@std@@@1@@Z 0043b320 f i libohNetCore:Service.obj
 0001:0003a430       ?allocate@?$allocator@U_Node@?$_Tree_nod@V?$_Tmap_traits@VBrn@OpenHome@@PAVBrh@2@VBufferCmp@2@V?$allocator@U?$pair@$$CBVBrn@OpenHome@@PAVBrh@2@@std@@@std@@$0A@@std@@@std@@@std@@QAEPAU_Node@?$_Tree_nod@V?$_Tmap_traits@VBrn@OpenHome@@PAVBrh@2@VBufferCmp@2@V?$allocator@U?$pair@$$CBVBrn@OpenHome@@PAVBrh@2@@std@@@std@@$0A@@std@@@2@I@Z 0043b430 f i libohNetCore:Service.obj
 0001:0003a460       ?allocate@?$allocator@PAVParameter@Net@OpenHome@@@std@@QAEPAPAVParameter@Net@OpenHome@@I@Z 0043b460 f i libohNetCore:Service.obj
 0001:0003a490       ?max_size@?$allocator@PAVParameter@Net@OpenHome@@@std@@QBEIXZ 0043b490 f i libohNetCore:Service.obj
 0001:0003a4e0       ??E?$_Tree_const_iterator@V?$_Tree_val@V?$_Tmap_traits@VBrn@OpenHome@@PAVBrh@2@VBufferCmp@2@V?$allocator@U?$pair@$$CBVBrn@OpenHome@@PAVBrh@2@@std@@@std@@$0A@@std@@@std@@@std@@QAE?AV01@H@Z 0043b4e0 f i libohNetCore:Service.obj
 0001:0003a5b0       ??E?$_Tree_unchecked_const_iterator@V?$_Tree_val@V?$_Tmap_traits@VBrn@OpenHome@@PAVBrh@2@VBufferCmp@2@V?$allocator@U?$pair@$$CBVBrn@OpenHome@@PAVBrh@2@@std@@@std@@$0A@@std@@@std@@U_Iterator_base12@2@@std@@QAEAAV01@XZ 0043b5b0 f i libohNetCore:Service.obj
 0001:0003a670       ?_Erase@?$_Tree@V?$_Tmap_traits@VBrn@OpenHome@@PAVBrh@2@VBufferCmp@2@V?$allocator@U?$pair@$$CBVBrn@OpenHome@@PAVBrh@2@@std@@@std@@$0A@@std@@@std@@IAEXPAU_Node@?$_Tree_nod@V?$_Tmap_traits@VBrn@OpenHome@@PAVBrh@2@VBufferCmp@2@V?$allocator@U?$pair@$$CBVBrn@OpenHome@@PAVBrh@2@@std@@@std@@$0A@@std@@@2@@Z 0043b670 f i libohNetCore:Service.obj
 0001:0003a710       ?_Lrotate@?$_Tree@V?$_Tmap_traits@VBrn@OpenHome@@PAVBrh@2@VBufferCmp@2@V?$allocator@U?$pair@$$CBVBrn@OpenHome@@PAVBrh@2@@std@@@std@@$0A@@std@@@std@@IAEXPAU_Node@?$_Tree_nod@V?$_Tmap_traits@VBrn@OpenHome@@PAVBrh@2@VBufferCmp@2@V?$allocator@U?$pair@$$CBVBrn@OpenHome@@PAVBrh@2@@std@@@std@@$0A@@std@@@2@@Z 0043b710 f i libohNetCore:Service.obj
 0001:0003a830       ?_Rmost@?$_Tree@V?$_Tmap_traits@VBrn@OpenHome@@PAVBrh@2@VBufferCmp@2@V?$allocator@U?$pair@$$CBVBrn@OpenHome@@PAVBrh@2@@std@@@std@@$0A@@std@@@std@@IBEAAPAU_Node@?$_Tree_nod@V?$_Tmap_traits@VBrn@OpenHome@@PAVBrh@2@VBufferCmp@2@V?$allocator@U?$pair@$$CBVBrn@OpenHome@@PAVBrh@2@@std@@@std@@$0A@@std@@@2@XZ 0043b830 f i libohNetCore:Service.obj
 0001:0003a860       ?_Rrotate@?$_Tree@V?$_Tmap_traits@VBrn@OpenHome@@PAVBrh@2@VBufferCmp@2@V?$allocator@U?$pair@$$CBVBrn@OpenHome@@PAVBrh@2@@std@@@std@@$0A@@std@@@std@@IAEXPAU_Node@?$_Tree_nod@V?$_Tmap_traits@VBrn@OpenHome@@PAVBrh@2@VBufferCmp@2@V?$allocator@U?$pair@$$CBVBrn@OpenHome@@PAVBrh@2@@std@@@std@@$0A@@std@@@2@@Z 0043b860 f i libohNetCore:Service.obj
 0001:0003a980       ?_Orphan_ptr@?$_Tree@V?$_Tmap_traits@VBrn@OpenHome@@PAVBrh@2@VBufferCmp@2@V?$allocator@U?$pair@$$CBVBrn@OpenHome@@PAVBrh@2@@std@@@std@@$0A@@std@@@std@@IBEXAAV12@PAU_Node@?$_Tree_nod@V?$_Tmap_traits@VBrn@OpenHome@@PAVBrh@2@VBufferCmp@2@V?$allocator@U?$pair@$$CBVBrn@OpenHome@@PAVBrh@2@@std@@@std@@$0A@@std@@@2@@Z 0043b980 f i libohNetCore:Service.obj
 0001:0003aa90       ?_Max@?$_Tree_val@V?$_Tmap_traits@VBrn@OpenHome@@PAVBrh@2@VBufferCmp@2@V?$allocator@U?$pair@$$CBVBrn@OpenHome@@PAVBrh@2@@std@@@std@@$0A@@std@@@std@@SGPAU_Node@?$_Tree_nod@V?$_Tmap_traits@VBrn@OpenHome@@PAVBrh@2@VBufferCmp@2@V?$allocator@U?$pair@$$CBVBrn@OpenHome@@PAVBrh@2@@std@@@std@@$0A@@std@@@2@PAU342@@Z 0043ba90 f i libohNetCore:Service.obj
 0001:0003aad0       ?_Min@?$_Tree_val@V?$_Tmap_traits@VBrn@OpenHome@@PAVBrh@2@VBufferCmp@2@V?$allocator@U?$pair@$$CBVBrn@OpenHome@@PAVBrh@2@@std@@@std@@$0A@@std@@@std@@SGPAU_Node@?$_Tree_nod@V?$_Tmap_traits@VBrn@OpenHome@@PAVBrh@2@VBufferCmp@2@V?$allocator@U?$pair@$$CBVBrn@OpenHome@@PAVBrh@2@@std@@@std@@$0A@@std@@@2@PAU342@@Z 0043bad0 f i libohNetCore:Service.obj
 0001:0003ab10       ??0?$_Tmap_traits@VBrn@OpenHome@@PAVBrh@2@VBufferCmp@2@V?$allocator@U?$pair@$$CBVBrn@OpenHome@@PAVBrh@2@@std@@@std@@$0A@@std@@QAE@VBufferCmp@OpenHome@@@Z 0043bb10 f i libohNetCore:Service.obj
 0001:0003ab40       ??$?0AAVBrn@OpenHome@@AAPAVBrh@1@@?$pair@VBrn@OpenHome@@PAVBrh@2@@std@@QAE@AAVBrn@OpenHome@@AAPAVBrh@3@@Z 0043bb40 f i libohNetCore:Service.obj
 0001:0003ab80       ??$insert@U?$pair@VBrn@OpenHome@@PAVBrh@2@@std@@@?$_Tree@V?$_Tmap_traits@VBrn@OpenHome@@PAVBrh@2@VBufferCmp@2@V?$allocator@U?$pair@$$CBVBrn@OpenHome@@PAVBrh@2@@std@@@std@@$0A@@std@@@std@@QAE?AU?$pair@V?$_Tree_iterator@V?$_Tree_val@V?$_Tmap_traits@VBrn@OpenHome@@PAVBrh@2@VBufferCmp@2@V?$allocator@U?$pair@$$CBVBrn@OpenHome@@PAVBrh@2@@std@@@std@@$0A@@std@@@std@@@std@@_N@1@$$QAU?$pair@VBrn@OpenHome@@PAVBrh@2@@1@@Z 0043bb80 f i libohNetCore:Service.obj
 0001:0003abe0       ??$addressof@QAVParameter@Net@OpenHome@@@std@@YGPBQAVParameter@Net@OpenHome@@ABQAV123@@Z 0043bbe0 f i libohNetCore:Service.obj
 0001:0003abf0       ??$_Cons_val@V?$allocator@PAVParameter@Net@OpenHome@@@std@@PAVParameter@Net@OpenHome@@AAPAV345@@std@@YGXAAV?$allocator@PAVParameter@Net@OpenHome@@@0@PAPAVParameter@Net@OpenHome@@AAPAV234@@Z 0043bbf0 f i libohNetCore:Service.obj
 0001:0003ac20       ??$_Cons_val@V?$allocator@PAVParameter@Net@OpenHome@@@std@@PAVParameter@Net@OpenHome@@ABQAV345@@std@@YGXAAV?$allocator@PAVParameter@Net@OpenHome@@@0@PAPAVParameter@Net@OpenHome@@ABQAV234@@Z 0043bc20 f i libohNetCore:Service.obj
 0001:0003ac50       ??$_Kfn@$$CBVBrn@OpenHome@@PAVBrh@2@@?$_Tmap_traits@VBrn@OpenHome@@PAVBrh@2@VBufferCmp@2@V?$allocator@U?$pair@$$CBVBrn@OpenHome@@PAVBrh@2@@std@@@std@@$0A@@std@@SGABVBrn@OpenHome@@ABU?$pair@$$CBVBrn@OpenHome@@PAVBrh@2@@1@@Z 0043bc50 f i libohNetCore:Service.obj
 0001:0003ac60       ??$?0PAVParameter@Net@OpenHome@@@?$allocator@U_Container_proxy@std@@@std@@QAE@ABV?$allocator@PAVParameter@Net@OpenHome@@@1@@Z 0043bc60 f i libohNetCore:Service.obj
 0001:0003ac80       ??$?0U_Node@?$_Tree_nod@V?$_Tmap_traits@VBrn@OpenHome@@PAVBrh@2@VBufferCmp@2@V?$allocator@U?$pair@$$CBVBrn@OpenHome@@PAVBrh@2@@std@@@std@@$0A@@std@@@std@@@?$allocator@U_Container_proxy@std@@@std@@QAE@ABV?$allocator@U_Node@?$_Tree_nod@V?$_Tmap_traits@VBrn@OpenHome@@PAVBrh@2@VBufferCmp@2@V?$allocator@U?$pair@$$CBVBrn@OpenHome@@PAVBrh@2@@std@@@std@@$0A@@std@@@std@@@1@@Z 0043bc80 f i libohNetCore:Service.obj
 0001:0003aca0       ??$_Umove@PAPAVParameter@Net@OpenHome@@@?$vector@PAVParameter@Net@OpenHome@@V?$allocator@PAVParameter@Net@OpenHome@@@std@@@std@@IAEPAPAVParameter@Net@OpenHome@@PAPAV234@00@Z 0043bca0 f i libohNetCore:Service.obj
 0001:0003ace0       ??$_Destroy_range@V?$allocator@PAVParameter@Net@OpenHome@@@std@@@std@@YGXPAPAVParameter@Net@OpenHome@@0AAV?$allocator@PAVParameter@Net@OpenHome@@@0@@Z 0043bce0 f i libohNetCore:Service.obj
 0001:0003ad30       ??$addressof@U?$pair@$$CBVBrn@OpenHome@@PAVBrh@2@@std@@@std@@YGPAU?$pair@$$CBVBrn@OpenHome@@PAVBrh@2@@0@AAU10@@Z 0043bd30 f i libohNetCore:Service.obj
 0001:0003ad40       ??$_Dest_val@V?$allocator@U?$pair@$$CBVBrn@OpenHome@@PAVBrh@2@@std@@@std@@U?$pair@$$CBVBrn@OpenHome@@PAVBrh@2@@2@@std@@YGXAAV?$allocator@U?$pair@$$CBVBrn@OpenHome@@PAVBrh@2@@std@@@0@PAU?$pair@$$CBVBrn@OpenHome@@PAVBrh@2@@0@@Z 0043bd40 f i libohNetCore:Service.obj
 0001:0003ad60       ??$?0U?$pair@$$CBVBrn@OpenHome@@PAVBrh@2@@std@@@?$allocator@U_Node@?$_Tree_nod@V?$_Tmap_traits@VBrn@OpenHome@@PAVBrh@2@VBufferCmp@2@V?$allocator@U?$pair@$$CBVBrn@OpenHome@@PAVBrh@2@@std@@@std@@$0A@@std@@@std@@@std@@QAE@ABV?$allocator@U?$pair@$$CBVBrn@OpenHome@@PAVBrh@2@@std@@@1@@Z 0043bd60 f i libohNetCore:Service.obj
 0001:0003ad80       ??$_Allocate@U_Node@?$_Tree_nod@V?$_Tmap_traits@VBrn@OpenHome@@PAVBrh@2@VBufferCmp@2@V?$allocator@U?$pair@$$CBVBrn@OpenHome@@PAVBrh@2@@std@@@std@@$0A@@std@@@std@@@std@@YGPAU_Node@?$_Tree_nod@V?$_Tmap_traits@VBrn@OpenHome@@PAVBrh@2@VBufferCmp@2@V?$allocator@U?$pair@$$CBVBrn@OpenHome@@PAVBrh@2@@std@@@std@@$0A@@std@@@0@IPAU120@@Z 0043bd80 f i libohNetCore:Service.obj
 0001:0003ae00       ??$_Allocate@PAVParameter@Net@OpenHome@@@std@@YGPAPAVParameter@Net@OpenHome@@IPAPAV123@@Z 0043be00 f i libohNetCore:Service.obj
 0001:0003ae80       ?_Linsert@?$_Tree@V?$_Tmap_traits@VBrn@OpenHome@@PAVBrh@2@VBufferCmp@2@V?$allocator@U?$pair@$$CBVBrn@OpenHome@@PAVBrh@2@@std@@@std@@$0A@@std@@@std@@QAE?AU?$pair@V?$_Tree_iterator@V?$_Tree_val@V?$_Tmap_traits@VBrn@OpenHome@@PAVBrh@2@VBufferCmp@2@V?$allocator@U?$pair@$$CBVBrn@OpenHome@@PAVBrh@2@@std@@@std@@$0A@@std@@@std@@@std@@_N@2@PAU_Node@?$_Tree_nod@V?$_Tmap_traits@VBrn@OpenHome@@PAVBrh@2@VBufferCmp@2@V?$allocator@U?$pair@$$CBVBrn@OpenHome@@PAVBrh@2@@std@@@std@@$0A@@std@@@2@_N@Z 0043be80 f i libohNetCore:Service.obj
 0001:0003b260       ?destroy@?$allocator@U?$pair@$$CBVBrn@OpenHome@@PAVBrh@2@@std@@@std@@QAEXPAU?$pair@$$CBVBrn@OpenHome@@PAVBrh@2@@2@@Z 0043c260 f i libohNetCore:Service.obj
 0001:0003b290       ?construct@?$allocator@PAVParameter@Net@OpenHome@@@std@@QAEXPAPAVParameter@Net@OpenHome@@ABQAV345@@Z 0043c290 f i libohNetCore:Service.obj
 0001:0003b2c0       ?_Insert@?$_Tree@V?$_Tmap_traits@VBrn@OpenHome@@PAVBrh@2@VBufferCmp@2@V?$allocator@U?$pair@$$CBVBrn@OpenHome@@PAVBrh@2@@std@@@std@@$0A@@std@@@std@@IAE?AV?$_Tree_iterator@V?$_Tree_val@V?$_Tmap_traits@VBrn@OpenHome@@PAVBrh@2@VBufferCmp@2@V?$allocator@U?$pair@$$CBVBrn@OpenHome@@PAVBrh@2@@std@@@std@@$0A@@std@@@std@@@2@_NPAU_Node@?$_Tree_nod@V?$_Tmap_traits@VBrn@OpenHome@@PAVBrh@2@VBufferCmp@2@V?$allocator@U?$pair@$$CBVBrn@OpenHome@@PAVBrh@2@@std@@@std@@$0A@@std@@@2@1@Z 0043c2c0 f i libohNetCore:Service.obj
 0001:0003b680       ??0?$pair@V?$_Tree_iterator@V?$_Tree_val@V?$_Tmap_traits@VBrn@OpenHome@@PAVBrh@2@VBufferCmp@2@V?$allocator@U?$pair@$$CBVBrn@OpenHome@@PAVBrh@2@@std@@@std@@$0A@@std@@@std@@@std@@_N@std@@QAE@$$QAV?$_Tree_iterator@V?$_Tree_val@V?$_Tmap_traits@VBrn@OpenHome@@PAVBrh@2@VBufferCmp@2@V?$allocator@U?$pair@$$CBVBrn@OpenHome@@PAVBrh@2@@std@@@std@@$0A@@std@@@std@@@1@$$QA_N@Z 0043c680 f i libohNetCore:Service.obj
 0001:0003b6c0       ??F?$_Tree_iterator@V?$_Tree_val@V?$_Tmap_traits@VBrn@OpenHome@@PAVBrh@2@VBufferCmp@2@V?$allocator@U?$pair@$$CBVBrn@OpenHome@@PAVBrh@2@@std@@@std@@$0A@@std@@@std@@@std@@QAEAAV01@XZ 0043c6c0 f i libohNetCore:Service.obj
 0001:0003b6f0       ?max_size@?$_Tree@V?$_Tmap_traits@VBrn@OpenHome@@PAVBrh@2@VBufferCmp@2@V?$allocator@U?$pair@$$CBVBrn@OpenHome@@PAVBrh@2@@std@@@std@@$0A@@std@@@std@@QBEIXZ 0043c6f0 f i libohNetCore:Service.obj
 0001:0003b720       ??0?$_Pair_base@V?$_Tree_iterator@V?$_Tree_val@V?$_Tmap_traits@VBrn@OpenHome@@PAVBrh@2@VBufferCmp@2@V?$allocator@U?$pair@$$CBVBrn@OpenHome@@PAVBrh@2@@std@@@std@@$0A@@std@@@std@@@std@@_N@std@@QAE@$$QAV?$_Tree_iterator@V?$_Tree_val@V?$_Tmap_traits@VBrn@OpenHome@@PAVBrh@2@VBufferCmp@2@V?$allocator@U?$pair@$$CBVBrn@OpenHome@@PAVBrh@2@@std@@@std@@$0A@@std@@@std@@@1@$$QA_N@Z 0043c720 f i libohNetCore:Service.obj
 0001:0003b7a0       ??F?$_Tree_const_iterator@V?$_Tree_val@V?$_Tmap_traits@VBrn@OpenHome@@PAVBrh@2@VBufferCmp@2@V?$allocator@U?$pair@$$CBVBrn@OpenHome@@PAVBrh@2@@std@@@std@@$0A@@std@@@std@@@std@@QAEAAV01@XZ 0043c7a0 f i libohNetCore:Service.obj
 0001:0003b8c0       ?max_size@?$allocator@U?$pair@$$CBVBrn@OpenHome@@PAVBrh@2@@std@@@std@@QBEIXZ 0043c8c0 f i libohNetCore:Service.obj
 0001:0003b910       ??F?$_Tree_unchecked_const_iterator@V?$_Tree_val@V?$_Tmap_traits@VBrn@OpenHome@@PAVBrh@2@VBufferCmp@2@V?$allocator@U?$pair@$$CBVBrn@OpenHome@@PAVBrh@2@@std@@@std@@$0A@@std@@@std@@U_Iterator_base12@2@@std@@QAEAAV01@XZ 0043c910 f i libohNetCore:Service.obj
 0001:0003ba00       ??$forward@AAPAVBrh@OpenHome@@@std@@YGAAPAVBrh@OpenHome@@AAPAV12@@Z 0043ca00 f i libohNetCore:Service.obj
 0001:0003ba10       ??$?0AAVBrn@OpenHome@@AAPAVBrh@1@@?$_Pair_base@VBrn@OpenHome@@PAVBrh@2@@std@@QAE@AAVBrn@OpenHome@@AAPAVBrh@3@@Z 0043ca10 f i libohNetCore:Service.obj
 0001:0003ba90       ??$forward@U?$pair@VBrn@OpenHome@@PAVBrh@2@@std@@@std@@YG$$QAU?$pair@VBrn@OpenHome@@PAVBrh@2@@0@AAU10@@Z 0043ca90 f i libohNetCore:Service.obj
 0001:0003baa0       ??$_Buynode@U?$pair@VBrn@OpenHome@@PAVBrh@2@@std@@@?$_Tree_val@V?$_Tmap_traits@VBrn@OpenHome@@PAVBrh@2@VBufferCmp@2@V?$allocator@U?$pair@$$CBVBrn@OpenHome@@PAVBrh@2@@std@@@std@@$0A@@std@@@std@@QAEPAU_Node@?$_Tree_nod@V?$_Tmap_traits@VBrn@OpenHome@@PAVBrh@2@VBufferCmp@2@V?$allocator@U?$pair@$$CBVBrn@OpenHome@@PAVBrh@2@@std@@@std@@$0A@@std@@@1@$$QAU?$pair@VBrn@OpenHome@@PAVBrh@2@@1@@Z 0043caa0 f i libohNetCore:Service.obj
 0001:0003bb80       ??$forward@AAPAVParameter@Net@OpenHome@@@std@@YGAAPAVParameter@Net@OpenHome@@AAPAV123@@Z 0043cb80 f i libohNetCore:Service.obj
 0001:0003bb90       ??$construct@AAPAVParameter@Net@OpenHome@@@?$allocator@PAVParameter@Net@OpenHome@@@std@@QAEXPAPAVParameter@Net@OpenHome@@AAPAV234@@Z 0043cb90 f i libohNetCore:Service.obj
 0001:0003bc30       ??$forward@ABQAVParameter@Net@OpenHome@@@std@@YGABQAVParameter@Net@OpenHome@@ABQAV123@@Z 0043cc30 f i libohNetCore:Service.obj
 0001:0003bc40       ??$_Uninitialized_move@PAPAVParameter@Net@OpenHome@@PAPAV123@V?$allocator@PAVParameter@Net@OpenHome@@@std@@@std@@YGPAPAVParameter@Net@OpenHome@@PAPAV123@00AAV?$allocator@PAVParameter@Net@OpenHome@@@0@@Z 0043cc40 f i libohNetCore:Service.obj
 0001:0003bc90       ??$_Ptr_cat@PAVParameter@Net@OpenHome@@PAV123@@std@@YG?AU_Scalar_ptr_iterator_tag@0@PAPAVParameter@Net@OpenHome@@0@Z 0043cc90 f i libohNetCore:Service.obj
 0001:0003bcf0       ??$_Destroy_range@V?$allocator@PAVParameter@Net@OpenHome@@@std@@@std@@YGXPAPAVParameter@Net@OpenHome@@0AAV?$allocator@PAVParameter@Net@OpenHome@@@0@U_Scalar_ptr_iterator_tag@0@@Z 0043ccf0 f i libohNetCore:Service.obj
 0001:0003bd00       ??$?0AAV?$_Tree_iterator@V?$_Tree_val@V?$_Tmap_traits@VBrn@OpenHome@@PAVBrh@2@VBufferCmp@2@V?$allocator@U?$pair@$$CBVBrn@OpenHome@@PAVBrh@2@@std@@@std@@$0A@@std@@@std@@@std@@_N@?$pair@V?$_Tree_iterator@V?$_Tree_val@V?$_Tmap_traits@VBrn@OpenHome@@PAVBrh@2@VBufferCmp@2@V?$allocator@U?$pair@$$CBVBrn@OpenHome@@PAVBrh@2@@std@@@std@@$0A@@std@@@std@@@std@@_N@std@@QAE@AAV?$_Tree_iterator@V?$_Tree_val@V?$_Tmap_traits@VBrn@OpenHome@@PAVBrh@2@VBufferCmp@2@V?$allocator@U?$pair@$$CBVBrn@OpenHome@@PAVBrh@2@@std@@@std@@$0A@@std@@@std@@@1@$$QA_N@Z 0043cd00 f i libohNetCore:Service.obj
 0001:0003bd40       ??$_Destroy@U?$pair@$$CBVBrn@OpenHome@@PAVBrh@2@@std@@@std@@YGXPAU?$pair@$$CBVBrn@OpenHome@@PAVBrh@2@@0@@Z 0043cd40 f i libohNetCore:Service.obj
 0001:0003bd60       ??$_Construct@PAVParameter@Net@OpenHome@@ABQAV123@@std@@YGXPAPAVParameter@Net@OpenHome@@ABQAV123@@Z 0043cd60 f i libohNetCore:Service.obj
 0001:0003be10       ??$move@AAV?$_Tree_iterator@V?$_Tree_val@V?$_Tmap_traits@VBrn@OpenHome@@PAVBrh@2@VBufferCmp@2@V?$allocator@U?$pair@$$CBVBrn@OpenHome@@PAVBrh@2@@std@@@std@@$0A@@std@@@std@@@std@@@std@@YG$$QAV?$_Tree_iterator@V?$_Tree_val@V?$_Tmap_traits@VBrn@OpenHome@@PAVBrh@2@VBufferCmp@2@V?$allocator@U?$pair@$$CBVBrn@OpenHome@@PAVBrh@2@@std@@@std@@$0A@@std@@@std@@@0@AAV10@@Z 0043ce10 f i libohNetCore:Service.obj
 0001:0003be20       ??_G?$pair@$$CBVBrn@OpenHome@@PAVBrh@2@@std@@QAEPAXI@Z 0043ce20 f i libohNetCore:Service.obj
 0001:0003be60       ??1?$pair@$$CBVBrn@OpenHome@@PAVBrh@2@@std@@QAE@XZ 0043ce60 f i libohNetCore:Service.obj
 0001:0003be90       ??1?$_Pair_base@$$CBVBrn@OpenHome@@PAVBrh@2@@std@@QAE@XZ 0043ce90 f i libohNetCore:Service.obj
 0001:0003bec0       ?_Buynode@?$_Tree_val@V?$_Tmap_traits@VBrn@OpenHome@@PAVBrh@2@VBufferCmp@2@V?$allocator@U?$pair@$$CBVBrn@OpenHome@@PAVBrh@2@@std@@@std@@$0A@@std@@@std@@QAEPAU_Node@?$_Tree_nod@V?$_Tmap_traits@VBrn@OpenHome@@PAVBrh@2@VBufferCmp@2@V?$allocator@U?$pair@$$CBVBrn@OpenHome@@PAVBrh@2@@std@@@std@@$0A@@std@@@2@XZ 0043cec0 f i libohNetCore:Service.obj
 0001:0003bf50       ??$_Cons_val@V?$allocator@U?$pair@$$CBVBrn@OpenHome@@PAVBrh@2@@std@@@std@@U?$pair@$$CBVBrn@OpenHome@@PAVBrh@2@@2@U?$pair@VBrn@OpenHome@@PAVBrh@2@@2@@std@@YGXAAV?$allocator@U?$pair@$$CBVBrn@OpenHome@@PAVBrh@2@@std@@@0@PAU?$pair@$$CBVBrn@OpenHome@@PAVBrh@2@@0@$$QAU?$pair@VBrn@OpenHome@@PAVBrh@2@@0@@Z 0043cf50 f i libohNetCore:Service.obj
 0001:0003bf80       ??$_Val_type@PAPAVParameter@Net@OpenHome@@@std@@YGPAPAVParameter@Net@OpenHome@@PAPAV123@@Z 0043cf80 f i libohNetCore:Service.obj
 0001:0003bf90       ??$_Uninit_move@PAVParameter@Net@OpenHome@@PAV123@PAV123@@std@@YGPAPAVParameter@Net@OpenHome@@PAPAV123@00AAV?$allocator@PAVParameter@Net@OpenHome@@@0@0U_Scalar_ptr_iterator_tag@0@@Z 0043cf90 f i libohNetCore:Service.obj
 0001:0003c000       ??$forward@AAV?$_Tree_iterator@V?$_Tree_val@V?$_Tmap_traits@VBrn@OpenHome@@PAVBrh@2@VBufferCmp@2@V?$allocator@U?$pair@$$CBVBrn@OpenHome@@PAVBrh@2@@std@@@std@@$0A@@std@@@std@@@std@@@std@@YGAAV?$_Tree_iterator@V?$_Tree_val@V?$_Tmap_traits@VBrn@OpenHome@@PAVBrh@2@VBufferCmp@2@V?$allocator@U?$pair@$$CBVBrn@OpenHome@@PAVBrh@2@@std@@@std@@$0A@@std@@@std@@@0@AAV10@@Z 0043d000 f i libohNetCore:Service.obj
 0001:0003c010       ??$?0AAV?$_Tree_iterator@V?$_Tree_val@V?$_Tmap_traits@VBrn@OpenHome@@PAVBrh@2@VBufferCmp@2@V?$allocator@U?$pair@$$CBVBrn@OpenHome@@PAVBrh@2@@std@@@std@@$0A@@std@@@std@@@std@@_N@?$_Pair_base@V?$_Tree_iterator@V?$_Tree_val@V?$_Tmap_traits@VBrn@OpenHome@@PAVBrh@2@VBufferCmp@2@V?$allocator@U?$pair@$$CBVBrn@OpenHome@@PAVBrh@2@@std@@@std@@$0A@@std@@@std@@@std@@_N@std@@QAE@AAV?$_Tree_iterator@V?$_Tree_val@V?$_Tmap_traits@VBrn@OpenHome@@PAVBrh@2@VBufferCmp@2@V?$allocator@U?$pair@$$CBVBrn@OpenHome@@PAVBrh@2@@std@@@std@@$0A@@std@@@std@@@1@$$QA_N@Z 0043d010 f i libohNetCore:Service.obj
 0001:0003c090       ??$construct@U?$pair@VBrn@OpenHome@@PAVBrh@2@@std@@@?$allocator@U?$pair@$$CBVBrn@OpenHome@@PAVBrh@2@@std@@@std@@QAEXPAU?$pair@$$CBVBrn@OpenHome@@PAVBrh@2@@1@$$QAU?$pair@VBrn@OpenHome@@PAVBrh@2@@1@@Z 0043d090 f i libohNetCore:Service.obj
 0001:0003c130       ??$_Debug_range@PAPAVParameter@Net@OpenHome@@@std@@YGXPAPAVParameter@Net@OpenHome@@0PB_WI@Z 0043d130 f i libohNetCore:Service.obj
 0001:0003c180       ??$_Debug_pointer@PAVParameter@Net@OpenHome@@@std@@YGXPAPAVParameter@Net@OpenHome@@PB_WI@Z 0043d180 f i libohNetCore:Service.obj
 0001:0003c1b0       ??$?0VBrn@OpenHome@@PAVBrh@1@@?$pair@$$CBVBrn@OpenHome@@PAVBrh@2@@std@@QAE@$$QAU?$pair@VBrn@OpenHome@@PAVBrh@2@@1@@Z 0043d1b0 f i libohNetCore:Service.obj
 0001:0003c1f0       ??$_Iter_cat@PAPAVParameter@Net@OpenHome@@@std@@YG?AUrandom_access_iterator_tag@0@ABQAPAVParameter@Net@OpenHome@@@Z 0043d1f0 f i libohNetCore:Service.obj
 0001:0003c250       ??$_Debug_range2@PAPAVParameter@Net@OpenHome@@@std@@YGXPAPAVParameter@Net@OpenHome@@0PB_WIUrandom_access_iterator_tag@0@@Z 0043d250 f i libohNetCore:Service.obj
 0001:0003c2b0       ??$forward@PAVBrh@OpenHome@@@std@@YG$$QAPAVBrh@OpenHome@@AAPAV12@@Z 0043d2b0 f i libohNetCore:Service.obj
 0001:0003c2c0       ??$?0VBrn@OpenHome@@PAVBrh@1@@?$_Pair_base@$$CBVBrn@OpenHome@@PAVBrh@2@@std@@QAE@$$QAVBrn@OpenHome@@$$QAPAVBrh@3@@Z 0043d2c0 f i libohNetCore:Service.obj
 0001:0003c340       ??0DvAction@Net@OpenHome@@QAE@PAVAction@12@VFunctorDviInvocation@12@@Z 0043d340 f   libohNetCore:DviService.obj
 0001:0003c380       ?Action@DvAction@Net@OpenHome@@QAEPAV023@XZ 0043d380 f   libohNetCore:DviService.obj
 0001:0003c3a0       ?Action@DvAction@Net@OpenHome@@QBEPBV023@XZ 0043d3a0 f   libohNetCore:DviService.obj
 0001:0003c3c0       ?Functor@DvAction@Net@OpenHome@@QBE?AVFunctorDviInvocation@23@XZ 0043d3c0 f   libohNetCore:DviService.obj
 0001:0003c400       ??0DviService@Net@OpenHome@@QAE@PBD0I@Z 0043d400 f   libohNetCore:DviService.obj
 0001:0003c4f0       ??1DviService@Net@OpenHome@@AAE@XZ 0043d4f0 f   libohNetCore:DviService.obj
 0001:0003c710       ?AddRef@DviService@Net@OpenHome@@QAEXXZ 0043d710 f   libohNetCore:DviService.obj
 0001:0003c760       ?RemoveRef@DviService@Net@OpenHome@@QAEXXZ 0043d760 f   libohNetCore:DviService.obj
 0001:0003c800       ?AddAction@DviService@Net@OpenHome@@QAEXPAVAction@23@VFunctorDviInvocation@23@@Z 0043d800 f   libohNetCore:DviService.obj
 0001:0003c8a0       ?DvActions@DviService@Net@OpenHome@@QBEABV?$vector@VDvAction@Net@OpenHome@@V?$allocator@VDvAction@Net@OpenHome@@@std@@@std@@XZ 0043d8a0 f   libohNetCore:DviService.obj
 0001:0003c8c0       ?Invoke@DviService@Net@OpenHome@@QAEXAAVIDviInvocation@23@IABVBrx@3@@Z 0043d8c0 f   libohNetCore:DviService.obj
 0001:0003c9f0       ?PropertiesLock@DviService@Net@OpenHome@@QAEXXZ 0043d9f0 f   libohNetCore:DviService.obj
 0001:0003ca20       ?PropertiesUnlock@DviService@Net@OpenHome@@QAEXXZ 0043da20 f   libohNetCore:DviService.obj
 0001:0003ca50       ?AddProperty@DviService@Net@OpenHome@@QAEXPAVProperty@23@@Z 0043da50 f   libohNetCore:DviService.obj
 0001:0003ca80       ?Properties@DviService@Net@OpenHome@@QBEABV?$vector@PAVProperty@Net@OpenHome@@V?$allocator@PAVProperty@Net@OpenHome@@@std@@@std@@XZ 0043da80 f   libohNetCore:DviService.obj
 0001:0003caa0       ?PublishPropertyUpdates@DviService@Net@OpenHome@@QAEXXZ 0043daa0 f   libohNetCore:DviService.obj
 0001:0003cb20       ?AddSubscription@DviService@Net@OpenHome@@QAEXPAVDviSubscription@23@@Z 0043db20 f   libohNetCore:DviService.obj
 0001:0003cb80       ?RemoveSubscription@DviService@Net@OpenHome@@QAEXABVBrx@3@@Z 0043db80 f   libohNetCore:DviService.obj
 0001:0003cd00       ??0InvocationResponse@Net@OpenHome@@QAE@AAVIDviInvocation@12@@Z 0043dd00 f   libohNetCore:DviService.obj
 0001:0003cd80       ?Error@InvocationResponse@Net@OpenHome@@UAEXHABVBrx@3@@Z 0043dd80 f   libohNetCore:DviService.obj
 0001:0003cdd0       ?Start@InvocationResponse@Net@OpenHome@@UAEXXZ 0043ddd0 f   libohNetCore:DviService.obj
 0001:0003ce10       ?End@InvocationResponse@Net@OpenHome@@UAEXXZ 0043de10 f   libohNetCore:DviService.obj
 0001:0003ce50       ??0InvocationResponseBool@Net@OpenHome@@QAE@AAVIDviInvocation@12@PBD@Z 0043de50 f   libohNetCore:DviService.obj
 0001:0003cee0       ?Write@InvocationResponseBool@Net@OpenHome@@UAEX_N@Z 0043dee0 f   libohNetCore:DviService.obj
 0001:0003cf30       ??0InvocationResponseUint@Net@OpenHome@@QAE@AAVIDviInvocation@12@PBD@Z 0043df30 f   libohNetCore:DviService.obj
 0001:0003cfc0       ?Write@InvocationResponseUint@Net@OpenHome@@UAEXI@Z 0043dfc0 f   libohNetCore:DviService.obj
 0001:0003d010       ??0InvocationResponseInt@Net@OpenHome@@QAE@AAVIDviInvocation@12@PBD@Z 0043e010 f   libohNetCore:DviService.obj
 0001:0003d0a0       ?Write@InvocationResponseInt@Net@OpenHome@@UAEXH@Z 0043e0a0 f   libohNetCore:DviService.obj
 0001:0003d0f0       ??0InvocationResponseBinary@Net@OpenHome@@QAE@AAVIDviInvocation@12@PBD@Z 0043e0f0 f   libohNetCore:DviService.obj
 0001:0003d180       ?CheckFirst@InvocationResponseBinary@Net@OpenHome@@AAEXXZ 0043e180 f   libohNetCore:DviService.obj
 0001:0003d1e0       ?Write@InvocationResponseBinary@Net@OpenHome@@UAEXE@Z 0043e1e0 f   libohNetCore:DviService.obj
 0001:0003d230       ?Write@InvocationResponseBinary@Net@OpenHome@@UAEXABVBrx@3@@Z 0043e230 f   libohNetCore:DviService.obj
 0001:0003d280       ?WriteFlush@InvocationResponseBinary@Net@OpenHome@@UAEXXZ 0043e280 f   libohNetCore:DviService.obj
 0001:0003d2d0       ??0InvocationResponseString@Net@OpenHome@@QAE@AAVIDviInvocation@12@PBD@Z 0043e2d0 f   libohNetCore:DviService.obj
 0001:0003d360       ?CheckFirst@InvocationResponseString@Net@OpenHome@@AAEXXZ 0043e360 f   libohNetCore:DviService.obj
 0001:0003d3c0       ?Write@InvocationResponseString@Net@OpenHome@@UAEXE@Z 0043e3c0 f   libohNetCore:DviService.obj
 0001:0003d410       ?Write@InvocationResponseString@Net@OpenHome@@UAEXABVBrx@3@@Z 0043e410 f   libohNetCore:DviService.obj
 0001:0003d460       ?WriteFlush@InvocationResponseString@Net@OpenHome@@UAEXXZ 0043e460 f   libohNetCore:DviService.obj
 0001:0003d4b0       ??1Service@Net@OpenHome@@IAE@XZ 0043e4b0 f i libohNetCore:DviService.obj
 0001:0003d4e0       ??_GDviService@Net@OpenHome@@AAEPAXI@Z 0043e4e0 f i libohNetCore:DviService.obj
 0001:0003d520       ??RFunctorDviInvocation@Net@OpenHome@@QBEXAAVIDviInvocation@12@I@Z 0043e520 f i libohNetCore:DviService.obj
 0001:0003d560       ??1?$_Vector_iterator@V?$_Vector_val@PAVDviSubscription@Net@OpenHome@@V?$allocator@PAVDviSubscription@Net@OpenHome@@@std@@@std@@@std@@QAE@XZ 0043e560 f i libohNetCore:DviService.obj
 0001:0003d590       ??0?$_Vector_const_iterator@V?$_Vector_val@PAVDviSubscription@Net@OpenHome@@V?$allocator@PAVDviSubscription@Net@OpenHome@@@std@@@std@@@std@@QAE@ABV01@@Z 0043e590 f i libohNetCore:DviService.obj
 0001:0003d5d0       ??1?$_Vector_const_iterator@V?$_Vector_val@PAVDviSubscription@Net@OpenHome@@V?$allocator@PAVDviSubscription@Net@OpenHome@@@std@@@std@@@std@@QAE@XZ 0043e5d0 f i libohNetCore:DviService.obj
 0001:0003d600       ??0?$_Iterator012@Urandom_access_iterator_tag@std@@PAVDviSubscription@Net@OpenHome@@HPBQAV345@ABQAV345@U_Iterator_base12@2@@std@@QAE@ABU01@@Z 0043e600 f i libohNetCore:DviService.obj
 0001:0003d630       ??1?$_Iterator012@Urandom_access_iterator_tag@std@@PAVDviSubscription@Net@OpenHome@@HPBQAV345@ABQAV345@U_Iterator_base12@2@@std@@QAE@XZ 0043e630 f i libohNetCore:DviService.obj
 0001:0003d660       ??_EInvocationResponse@Net@OpenHome@@UAEPAXI@Z 0043e660 f i libohNetCore:DviService.obj
 0001:0003d660       ??_GInvocationResponse@Net@OpenHome@@UAEPAXI@Z 0043e660 f i libohNetCore:DviService.obj
 0001:0003d6a0       ??0IInvocationResponse@Net@OpenHome@@QAE@XZ 0043e6a0 f i libohNetCore:DviService.obj
 0001:0003d6c0       ??_EInvocationResponseBool@Net@OpenHome@@UAEPAXI@Z 0043e6c0 f i libohNetCore:DviService.obj
 0001:0003d6c0       ??_GInvocationResponseBool@Net@OpenHome@@UAEPAXI@Z 0043e6c0 f i libohNetCore:DviService.obj
 0001:0003d700       ??0IInvocationResponseBool@Net@OpenHome@@QAE@XZ 0043e700 f i libohNetCore:DviService.obj
 0001:0003d720       ??_EInvocationResponseUint@Net@OpenHome@@UAEPAXI@Z 0043e720 f i libohNetCore:DviService.obj
 0001:0003d720       ??_GInvocationResponseUint@Net@OpenHome@@UAEPAXI@Z 0043e720 f i libohNetCore:DviService.obj
 0001:0003d760       ??0IInvocationResponseUint@Net@OpenHome@@QAE@XZ 0043e760 f i libohNetCore:DviService.obj
 0001:0003d780       ??_GInvocationResponseInt@Net@OpenHome@@UAEPAXI@Z 0043e780 f i libohNetCore:DviService.obj
 0001:0003d780       ??_EInvocationResponseInt@Net@OpenHome@@UAEPAXI@Z 0043e780 f i libohNetCore:DviService.obj
 0001:0003d7c0       ??0IInvocationResponseInt@Net@OpenHome@@QAE@XZ 0043e7c0 f i libohNetCore:DviService.obj
 0001:0003d7e0       ??_EInvocationResponseBinary@Net@OpenHome@@UAEPAXI@Z 0043e7e0 f i libohNetCore:DviService.obj
 0001:0003d7e0       ??_GInvocationResponseBinary@Net@OpenHome@@UAEPAXI@Z 0043e7e0 f i libohNetCore:DviService.obj
 0001:0003d820       ??0IInvocationResponseBinary@Net@OpenHome@@QAE@XZ 0043e820 f i libohNetCore:DviService.obj
 0001:0003d850       ??_GInvocationResponseString@Net@OpenHome@@UAEPAXI@Z 0043e850 f i libohNetCore:DviService.obj
 0001:0003d850       ??_EInvocationResponseString@Net@OpenHome@@UAEPAXI@Z 0043e850 f i libohNetCore:DviService.obj
 0001:0003d890       ??0IInvocationResponseString@Net@OpenHome@@QAE@XZ 0043e890 f i libohNetCore:DviService.obj
 0001:0003d8c0       ??0?$vector@VDvAction@Net@OpenHome@@V?$allocator@VDvAction@Net@OpenHome@@@std@@@std@@QAE@XZ 0043e8c0 f i libohNetCore:DviService.obj
 0001:0003d900       ??1?$vector@VDvAction@Net@OpenHome@@V?$allocator@VDvAction@Net@OpenHome@@@std@@@std@@QAE@XZ 0043e900 f i libohNetCore:DviService.obj
 0001:0003d970       ?size@?$vector@VDvAction@Net@OpenHome@@V?$allocator@VDvAction@Net@OpenHome@@@std@@@std@@QBEIXZ 0043e970 f i libohNetCore:DviService.obj
 0001:0003d9a0       ??A?$vector@VDvAction@Net@OpenHome@@V?$allocator@VDvAction@Net@OpenHome@@@std@@@std@@QAEAAVDvAction@Net@OpenHome@@I@Z 0043e9a0 f i libohNetCore:DviService.obj
 0001:0003da40       ?push_back@?$vector@VDvAction@Net@OpenHome@@V?$allocator@VDvAction@Net@OpenHome@@@std@@@std@@QAEXABVDvAction@Net@OpenHome@@@Z 0043ea40 f i libohNetCore:DviService.obj
 0001:0003db50       ??0?$vector@PAVProperty@Net@OpenHome@@V?$allocator@PAVProperty@Net@OpenHome@@@std@@@std@@QAE@XZ 0043eb50 f i libohNetCore:DviService.obj
 0001:0003db90       ??1?$vector@PAVProperty@Net@OpenHome@@V?$allocator@PAVProperty@Net@OpenHome@@@std@@@std@@QAE@XZ 0043eb90 f i libohNetCore:DviService.obj
 0001:0003dc00       ?size@?$vector@PAVProperty@Net@OpenHome@@V?$allocator@PAVProperty@Net@OpenHome@@@std@@@std@@QBEIXZ 0043ec00 f i libohNetCore:DviService.obj
 0001:0003dc30       ??A?$vector@PAVProperty@Net@OpenHome@@V?$allocator@PAVProperty@Net@OpenHome@@@std@@@std@@QAEAAPAVProperty@Net@OpenHome@@I@Z 0043ec30 f i libohNetCore:DviService.obj
 0001:0003dcd0       ?push_back@?$vector@PAVProperty@Net@OpenHome@@V?$allocator@PAVProperty@Net@OpenHome@@@std@@@std@@QAEXABQAVProperty@Net@OpenHome@@@Z 0043ecd0 f i libohNetCore:DviService.obj
 0001:0003dde0       ??0?$vector@PAVDviSubscription@Net@OpenHome@@V?$allocator@PAVDviSubscription@Net@OpenHome@@@std@@@std@@QAE@XZ 0043ede0 f i libohNetCore:DviService.obj
 0001:0003de20       ??1?$vector@PAVDviSubscription@Net@OpenHome@@V?$allocator@PAVDviSubscription@Net@OpenHome@@@std@@@std@@QAE@XZ 0043ee20 f i libohNetCore:DviService.obj
 0001:0003de90       ?begin@?$vector@PAVDviSubscription@Net@OpenHome@@V?$allocator@PAVDviSubscription@Net@OpenHome@@@std@@@std@@QAE?AV?$_Vector_iterator@V?$_Vector_val@PAVDviSubscription@Net@OpenHome@@V?$allocator@PAVDviSubscription@Net@OpenHome@@@std@@@std@@@2@XZ 0043ee90 f i libohNetCore:DviService.obj
 0001:0003dee0       ?size@?$vector@PAVDviSubscription@Net@OpenHome@@V?$allocator@PAVDviSubscription@Net@OpenHome@@@std@@@std@@QBEIXZ 0043eee0 f i libohNetCore:DviService.obj
 0001:0003df10       ??A?$vector@PAVDviSubscription@Net@OpenHome@@V?$allocator@PAVDviSubscription@Net@OpenHome@@@std@@@std@@QAEAAPAVDviSubscription@Net@OpenHome@@I@Z 0043ef10 f i libohNetCore:DviService.obj
 0001:0003dfb0       ?push_back@?$vector@PAVDviSubscription@Net@OpenHome@@V?$allocator@PAVDviSubscription@Net@OpenHome@@@std@@@std@@QAEXABQAVDviSubscription@Net@OpenHome@@@Z 0043efb0 f i libohNetCore:DviService.obj
 0001:0003e0c0       ?erase@?$vector@PAVDviSubscription@Net@OpenHome@@V?$allocator@PAVDviSubscription@Net@OpenHome@@@std@@@std@@QAE?AV?$_Vector_iterator@V?$_Vector_val@PAVDviSubscription@Net@OpenHome@@V?$allocator@PAVDviSubscription@Net@OpenHome@@@std@@@std@@@2@V?$_Vector_const_iterator@V?$_Vector_val@PAVDviSubscription@Net@OpenHome@@V?$allocator@PAVDviSubscription@Net@OpenHome@@@std@@@std@@@2@@Z 0043f0c0 f i libohNetCore:DviService.obj
 0001:0003e1f0       ??H?$_Vector_iterator@V?$_Vector_val@PAVDviSubscription@Net@OpenHome@@V?$allocator@PAVDviSubscription@Net@OpenHome@@@std@@@std@@@std@@QBE?AV01@H@Z 0043f1f0 f i libohNetCore:DviService.obj
 0001:0003e2d0       ??0?$_Vector_iterator@V?$_Vector_val@PAVDviSubscription@Net@OpenHome@@V?$allocator@PAVDviSubscription@Net@OpenHome@@@std@@@std@@@std@@QAE@ABV01@@Z 0043f2d0 f i libohNetCore:DviService.obj
 0001:0003e300       ??0?$allocator@PAVDviSubscription@Net@OpenHome@@@std@@QAE@XZ 0043f300 f i libohNetCore:DviService.obj
 0001:0003e320       ?_Inside@?$vector@VDvAction@Net@OpenHome@@V?$allocator@VDvAction@Net@OpenHome@@@std@@@std@@IBE_NPBVDvAction@Net@OpenHome@@@Z 0043f320 f i libohNetCore:DviService.obj
 0001:0003e370       ?_Reserve@?$vector@VDvAction@Net@OpenHome@@V?$allocator@VDvAction@Net@OpenHome@@@std@@@std@@IAEXI@Z 0043f370 f i libohNetCore:DviService.obj
 0001:0003e3f0       ?_Tidy@?$vector@VDvAction@Net@OpenHome@@V?$allocator@VDvAction@Net@OpenHome@@@std@@@std@@IAEXXZ 0043f3f0 f i libohNetCore:DviService.obj
 0001:0003e480       ?_Orphan_range@?$vector@VDvAction@Net@OpenHome@@V?$allocator@VDvAction@Net@OpenHome@@@std@@@std@@IBEXPAVDvAction@Net@OpenHome@@0@Z 0043f480 f i libohNetCore:DviService.obj
 0001:0003e590       ??0?$_Vector_val@VDvAction@Net@OpenHome@@V?$allocator@VDvAction@Net@OpenHome@@@std@@@std@@QAE@V?$allocator@VDvAction@Net@OpenHome@@@1@@Z 0043f590 f i libohNetCore:DviService.obj
 0001:0003e6b0       ??1?$_Vector_val@VDvAction@Net@OpenHome@@V?$allocator@VDvAction@Net@OpenHome@@@std@@@std@@QAE@XZ 0043f6b0 f i libohNetCore:DviService.obj
 0001:0003e790       ??0?$allocator@VDvAction@Net@OpenHome@@@std@@QAE@XZ 0043f790 f i libohNetCore:DviService.obj
 0001:0003e7b0       ?_Inside@?$vector@PAVProperty@Net@OpenHome@@V?$allocator@PAVProperty@Net@OpenHome@@@std@@@std@@IBE_NPBQAVProperty@Net@OpenHome@@@Z 0043f7b0 f i libohNetCore:DviService.obj
 0001:0003e800       ?_Reserve@?$vector@PAVProperty@Net@OpenHome@@V?$allocator@PAVProperty@Net@OpenHome@@@std@@@std@@IAEXI@Z 0043f800 f i libohNetCore:DviService.obj
 0001:0003e880       ?_Tidy@?$vector@PAVProperty@Net@OpenHome@@V?$allocator@PAVProperty@Net@OpenHome@@@std@@@std@@IAEXXZ 0043f880 f i libohNetCore:DviService.obj
 0001:0003e910       ?_Orphan_range@?$vector@PAVProperty@Net@OpenHome@@V?$allocator@PAVProperty@Net@OpenHome@@@std@@@std@@IBEXPAPAVProperty@Net@OpenHome@@0@Z 0043f910 f i libohNetCore:DviService.obj
 0001:0003ea20       ??0?$_Vector_val@PAVProperty@Net@OpenHome@@V?$allocator@PAVProperty@Net@OpenHome@@@std@@@std@@QAE@V?$allocator@PAVProperty@Net@OpenHome@@@1@@Z 0043fa20 f i libohNetCore:DviService.obj
 0001:0003eb40       ??1?$_Vector_val@PAVProperty@Net@OpenHome@@V?$allocator@PAVProperty@Net@OpenHome@@@std@@@std@@QAE@XZ 0043fb40 f i libohNetCore:DviService.obj
 0001:0003ec20       ??0?$allocator@PAVProperty@Net@OpenHome@@@std@@QAE@XZ 0043fc20 f i libohNetCore:DviService.obj
 0001:0003ec40       ?_Make_iter@?$vector@PAVDviSubscription@Net@OpenHome@@V?$allocator@PAVDviSubscription@Net@OpenHome@@@std@@@std@@QBE?AV?$_Vector_iterator@V?$_Vector_val@PAVDviSubscription@Net@OpenHome@@V?$allocator@PAVDviSubscription@Net@OpenHome@@@std@@@std@@@2@V?$_Vector_const_iterator@V?$_Vector_val@PAVDviSubscription@Net@OpenHome@@V?$allocator@PAVDviSubscription@Net@OpenHome@@@std@@@std@@@2@@Z 0043fc40 f i libohNetCore:DviService.obj
 0001:0003ecd0       ?_Destroy@?$vector@PAVDviSubscription@Net@OpenHome@@V?$allocator@PAVDviSubscription@Net@OpenHome@@@std@@@std@@IAEXPAPAVDviSubscription@Net@OpenHome@@0@Z 0043fcd0 f i libohNetCore:DviService.obj
 0001:0003ed10       ?_Inside@?$vector@PAVDviSubscription@Net@OpenHome@@V?$allocator@PAVDviSubscription@Net@OpenHome@@@std@@@std@@IBE_NPBQAVDviSubscription@Net@OpenHome@@@Z 0043fd10 f i libohNetCore:DviService.obj
 0001:0003ed60       ?_Reserve@?$vector@PAVDviSubscription@Net@OpenHome@@V?$allocator@PAVDviSubscription@Net@OpenHome@@@std@@@std@@IAEXI@Z 0043fd60 f i libohNetCore:DviService.obj
 0001:0003ede0       ?_Tidy@?$vector@PAVDviSubscription@Net@OpenHome@@V?$allocator@PAVDviSubscription@Net@OpenHome@@@std@@@std@@IAEXXZ 0043fde0 f i libohNetCore:DviService.obj
 0001:0003ee70       ?_Orphan_range@?$vector@PAVDviSubscription@Net@OpenHome@@V?$allocator@PAVDviSubscription@Net@OpenHome@@@std@@@std@@IBEXPAPAVDviSubscription@Net@OpenHome@@0@Z 0043fe70 f i libohNetCore:DviService.obj
 0001:0003ef80       ??0?$_Vector_val@PAVDviSubscription@Net@OpenHome@@V?$allocator@PAVDviSubscription@Net@OpenHome@@@std@@@std@@QAE@V?$allocator@PAVDviSubscription@Net@OpenHome@@@1@@Z 0043ff80 f i libohNetCore:DviService.obj
 0001:0003f0a0       ??1?$_Vector_val@PAVDviSubscription@Net@OpenHome@@V?$allocator@PAVDviSubscription@Net@OpenHome@@@std@@@std@@QAE@XZ 004400a0 f i libohNetCore:DviService.obj
 0001:0003f180       ??0?$_Vector_iterator@V?$_Vector_val@PAVDviSubscription@Net@OpenHome@@V?$allocator@PAVDviSubscription@Net@OpenHome@@@std@@@std@@@std@@QAE@PAPAVDviSubscription@Net@OpenHome@@PBU_Container_base12@1@@Z 00440180 f i libohNetCore:DviService.obj
 0001:0003f1c0       ??Y?$_Vector_iterator@V?$_Vector_val@PAVDviSubscription@Net@OpenHome@@V?$allocator@PAVDviSubscription@Net@OpenHome@@@std@@@std@@@std@@QAEAAV01@H@Z 004401c0 f i libohNetCore:DviService.obj
 0001:0003f1f0       ??0?$allocator@PAVDviSubscription@Net@OpenHome@@@std@@QAE@ABV01@@Z 004401f0 f i libohNetCore:DviService.obj
 0001:0003f210       ?deallocate@?$allocator@PAVDviSubscription@Net@OpenHome@@@std@@QAEXPAPAVDviSubscription@Net@OpenHome@@I@Z 00440210 f i libohNetCore:DviService.obj
 0001:0003f240       ?reserve@?$vector@VDvAction@Net@OpenHome@@V?$allocator@VDvAction@Net@OpenHome@@@std@@@std@@QAEXI@Z 00440240 f i libohNetCore:DviService.obj
 0001:0003f3c0       ?capacity@?$vector@VDvAction@Net@OpenHome@@V?$allocator@VDvAction@Net@OpenHome@@@std@@@std@@QBEIXZ 004403c0 f i libohNetCore:DviService.obj
 0001:0003f3f0       ?max_size@?$vector@VDvAction@Net@OpenHome@@V?$allocator@VDvAction@Net@OpenHome@@@std@@@std@@QBEIXZ 004403f0 f i libohNetCore:DviService.obj
 0001:0003f420       ?_Destroy@?$vector@VDvAction@Net@OpenHome@@V?$allocator@VDvAction@Net@OpenHome@@@std@@@std@@IAEXPAVDvAction@Net@OpenHome@@0@Z 00440420 f i libohNetCore:DviService.obj
 0001:0003f460       ?_Grow_to@?$vector@VDvAction@Net@OpenHome@@V?$allocator@VDvAction@Net@OpenHome@@@std@@@std@@IBEII@Z 00440460 f i libohNetCore:DviService.obj
 0001:0003f4e0       ?_Xlen@?$vector@VDvAction@Net@OpenHome@@V?$allocator@VDvAction@Net@OpenHome@@@std@@@std@@IBEXXZ 004404e0 f i libohNetCore:DviService.obj
 0001:0003f510       ??0?$allocator@VDvAction@Net@OpenHome@@@std@@QAE@ABV01@@Z 00440510 f i libohNetCore:DviService.obj
 0001:0003f530       ?deallocate@?$allocator@VDvAction@Net@OpenHome@@@std@@QAEXPAVDvAction@Net@OpenHome@@I@Z 00440530 f i libohNetCore:DviService.obj
 0001:0003f560       ?reserve@?$vector@PAVProperty@Net@OpenHome@@V?$allocator@PAVProperty@Net@OpenHome@@@std@@@std@@QAEXI@Z 00440560 f i libohNetCore:DviService.obj
 0001:0003f6d0       ?capacity@?$vector@PAVProperty@Net@OpenHome@@V?$allocator@PAVProperty@Net@OpenHome@@@std@@@std@@QBEIXZ 004406d0 f i libohNetCore:DviService.obj
 0001:0003f700       ?max_size@?$vector@PAVProperty@Net@OpenHome@@V?$allocator@PAVProperty@Net@OpenHome@@@std@@@std@@QBEIXZ 00440700 f i libohNetCore:DviService.obj
 0001:0003f730       ?_Destroy@?$vector@PAVProperty@Net@OpenHome@@V?$allocator@PAVProperty@Net@OpenHome@@@std@@@std@@IAEXPAPAVProperty@Net@OpenHome@@0@Z 00440730 f i libohNetCore:DviService.obj
 0001:0003f770       ?_Grow_to@?$vector@PAVProperty@Net@OpenHome@@V?$allocator@PAVProperty@Net@OpenHome@@@std@@@std@@IBEII@Z 00440770 f i libohNetCore:DviService.obj
 0001:0003f7f0       ?_Xlen@?$vector@PAVProperty@Net@OpenHome@@V?$allocator@PAVProperty@Net@OpenHome@@@std@@@std@@IBEXXZ 004407f0 f i libohNetCore:DviService.obj
 0001:0003f820       ??0?$allocator@PAVProperty@Net@OpenHome@@@std@@QAE@ABV01@@Z 00440820 f i libohNetCore:DviService.obj
 0001:0003f840       ?deallocate@?$allocator@PAVProperty@Net@OpenHome@@@std@@QAEXPAPAVProperty@Net@OpenHome@@I@Z 00440840 f i libohNetCore:DviService.obj
 0001:0003f870       ?reserve@?$vector@PAVDviSubscription@Net@OpenHome@@V?$allocator@PAVDviSubscription@Net@OpenHome@@@std@@@std@@QAEXI@Z 00440870 f i libohNetCore:DviService.obj
 0001:0003f9e0       ?capacity@?$vector@PAVDviSubscription@Net@OpenHome@@V?$allocator@PAVDviSubscription@Net@OpenHome@@@std@@@std@@QBEIXZ 004409e0 f i libohNetCore:DviService.obj
 0001:0003fa10       ?max_size@?$vector@PAVDviSubscription@Net@OpenHome@@V?$allocator@PAVDviSubscription@Net@OpenHome@@@std@@@std@@QBEIXZ 00440a10 f i libohNetCore:DviService.obj
 0001:0003fa40       ?_Grow_to@?$vector@PAVDviSubscription@Net@OpenHome@@V?$allocator@PAVDviSubscription@Net@OpenHome@@@std@@@std@@IBEII@Z 00440a40 f i libohNetCore:DviService.obj
 0001:0003fac0       ?_Xlen@?$vector@PAVDviSubscription@Net@OpenHome@@V?$allocator@PAVDviSubscription@Net@OpenHome@@@std@@@std@@IBEXXZ 00440ac0 f i libohNetCore:DviService.obj
 0001:0003faf0       ??0?$_Vector_const_iterator@V?$_Vector_val@PAVDviSubscription@Net@OpenHome@@V?$allocator@PAVDviSubscription@Net@OpenHome@@@std@@@std@@@std@@QAE@PAPAVDviSubscription@Net@OpenHome@@PBU_Container_base12@1@@Z 00440af0 f i libohNetCore:DviService.obj
 0001:0003fb70       ??Y?$_Vector_const_iterator@V?$_Vector_val@PAVDviSubscription@Net@OpenHome@@V?$allocator@PAVDviSubscription@Net@OpenHome@@@std@@@std@@@std@@QAEAAV01@H@Z 00440b70 f i libohNetCore:DviService.obj
 0001:0003fc50       ??0?$_Iterator012@Urandom_access_iterator_tag@std@@PAVDviSubscription@Net@OpenHome@@HPBQAV345@ABQAV345@U_Iterator_base12@2@@std@@QAE@XZ 00440c50 f i libohNetCore:DviService.obj
 0001:0003fc80       ?allocate@?$allocator@PAVDviSubscription@Net@OpenHome@@@std@@QAEPAPAVDviSubscription@Net@OpenHome@@I@Z 00440c80 f i libohNetCore:DviService.obj
 0001:0003fcb0       ?max_size@?$allocator@PAVDviSubscription@Net@OpenHome@@@std@@QBEIXZ 00440cb0 f i libohNetCore:DviService.obj
 0001:0003fd00       ?allocate@?$allocator@VDvAction@Net@OpenHome@@@std@@QAEPAVDvAction@Net@OpenHome@@I@Z 00440d00 f i libohNetCore:DviService.obj
 0001:0003fd30       ?max_size@?$allocator@VDvAction@Net@OpenHome@@@std@@QBEIXZ 00440d30 f i libohNetCore:DviService.obj
 0001:0003fd80       ?allocate@?$allocator@PAVProperty@Net@OpenHome@@@std@@QAEPAPAVProperty@Net@OpenHome@@I@Z 00440d80 f i libohNetCore:DviService.obj
 0001:0003fdb0       ?max_size@?$allocator@PAVProperty@Net@OpenHome@@@std@@QBEIXZ 00440db0 f i libohNetCore:DviService.obj
 0001:0003fe00       ??$addressof@$$CBVDvAction@Net@OpenHome@@@std@@YGPBVDvAction@Net@OpenHome@@ABV123@@Z 00440e00 f i libohNetCore:DviService.obj
 0001:0003fe10       ??$_Cons_val@V?$allocator@VDvAction@Net@OpenHome@@@std@@VDvAction@Net@OpenHome@@AAV345@@std@@YGXAAV?$allocator@VDvAction@Net@OpenHome@@@0@PAVDvAction@Net@OpenHome@@AAV234@@Z 00440e10 f i libohNetCore:DviService.obj
 0001:0003fe40       ??$_Cons_val@V?$allocator@VDvAction@Net@OpenHome@@@std@@VDvAction@Net@OpenHome@@ABV345@@std@@YGXAAV?$allocator@VDvAction@Net@OpenHome@@@0@PAVDvAction@Net@OpenHome@@ABV234@@Z 00440e40 f i libohNetCore:DviService.obj
 0001:0003fe70       ??$addressof@QAVProperty@Net@OpenHome@@@std@@YGPBQAVProperty@Net@OpenHome@@ABQAV123@@Z 00440e70 f i libohNetCore:DviService.obj
 0001:0003fe80       ??$_Cons_val@V?$allocator@PAVProperty@Net@OpenHome@@@std@@PAVProperty@Net@OpenHome@@AAPAV345@@std@@YGXAAV?$allocator@PAVProperty@Net@OpenHome@@@0@PAPAVProperty@Net@OpenHome@@AAPAV234@@Z 00440e80 f i libohNetCore:DviService.obj
 0001:0003feb0       ??$_Cons_val@V?$allocator@PAVProperty@Net@OpenHome@@@std@@PAVProperty@Net@OpenHome@@ABQAV345@@std@@YGXAAV?$allocator@PAVProperty@Net@OpenHome@@@0@PAPAVProperty@Net@OpenHome@@ABQAV234@@Z 00440eb0 f i libohNetCore:DviService.obj
 0001:0003fee0       ??$addressof@QAVDviSubscription@Net@OpenHome@@@std@@YGPBQAVDviSubscription@Net@OpenHome@@ABQAV123@@Z 00440ee0 f i libohNetCore:DviService.obj
 0001:0003fef0       ??$_Cons_val@V?$allocator@PAVDviSubscription@Net@OpenHome@@@std@@PAVDviSubscription@Net@OpenHome@@AAPAV345@@std@@YGXAAV?$allocator@PAVDviSubscription@Net@OpenHome@@@0@PAPAVDviSubscription@Net@OpenHome@@AAPAV234@@Z 00440ef0 f i libohNetCore:DviService.obj
 0001:0003ff20       ??$_Cons_val@V?$allocator@PAVDviSubscription@Net@OpenHome@@@std@@PAVDviSubscription@Net@OpenHome@@ABQAV345@@std@@YGXAAV?$allocator@PAVDviSubscription@Net@OpenHome@@@0@PAPAVDviSubscription@Net@OpenHome@@ABQAV234@@Z 00440f20 f i libohNetCore:DviService.obj
 0001:0003ff50       ??$_Move@PAPAVDviSubscription@Net@OpenHome@@PAPAV123@@std@@YGPAPAVDviSubscription@Net@OpenHome@@PAPAV123@00@Z 00440f50 f i libohNetCore:DviService.obj
 0001:0003ffa0       ??$?0VDvAction@Net@OpenHome@@@?$allocator@U_Container_proxy@std@@@std@@QAE@ABV?$allocator@VDvAction@Net@OpenHome@@@1@@Z 00440fa0 f i libohNetCore:DviService.obj
 0001:0003ffc0       ??$?0PAVProperty@Net@OpenHome@@@?$allocator@U_Container_proxy@std@@@std@@QAE@ABV?$allocator@PAVProperty@Net@OpenHome@@@1@@Z 00440fc0 f i libohNetCore:DviService.obj
 0001:0003ffe0       ??$_Destroy_range@V?$allocator@PAVDviSubscription@Net@OpenHome@@@std@@@std@@YGXPAPAVDviSubscription@Net@OpenHome@@0AAV?$allocator@PAVDviSubscription@Net@OpenHome@@@0@@Z 00440fe0 f i libohNetCore:DviService.obj
 0001:00040030       ??$?0PAVDviSubscription@Net@OpenHome@@@?$allocator@U_Container_proxy@std@@@std@@QAE@ABV?$allocator@PAVDviSubscription@Net@OpenHome@@@1@@Z 00441030 f i libohNetCore:DviService.obj
 0001:00040050       ??$_Umove@PAVDvAction@Net@OpenHome@@@?$vector@VDvAction@Net@OpenHome@@V?$allocator@VDvAction@Net@OpenHome@@@std@@@std@@IAEPAVDvAction@Net@OpenHome@@PAV234@00@Z 00441050 f i libohNetCore:DviService.obj
 0001:00040090       ??$_Destroy_range@V?$allocator@VDvAction@Net@OpenHome@@@std@@@std@@YGXPAVDvAction@Net@OpenHome@@0AAV?$allocator@VDvAction@Net@OpenHome@@@0@@Z 00441090 f i libohNetCore:DviService.obj
 0001:000400e0       ??$_Umove@PAPAVProperty@Net@OpenHome@@@?$vector@PAVProperty@Net@OpenHome@@V?$allocator@PAVProperty@Net@OpenHome@@@std@@@std@@IAEPAPAVProperty@Net@OpenHome@@PAPAV234@00@Z 004410e0 f i libohNetCore:DviService.obj
 0001:00040120       ??$_Destroy_range@V?$allocator@PAVProperty@Net@OpenHome@@@std@@@std@@YGXPAPAVProperty@Net@OpenHome@@0AAV?$allocator@PAVProperty@Net@OpenHome@@@0@@Z 00441120 f i libohNetCore:DviService.obj
 0001:00040170       ??$_Umove@PAPAVDviSubscription@Net@OpenHome@@@?$vector@PAVDviSubscription@Net@OpenHome@@V?$allocator@PAVDviSubscription@Net@OpenHome@@@std@@@std@@IAEPAPAVDviSubscription@Net@OpenHome@@PAPAV234@00@Z 00441170 f i libohNetCore:DviService.obj
 0001:000401b0       ??$_Allocate@PAVDviSubscription@Net@OpenHome@@@std@@YGPAPAVDviSubscription@Net@OpenHome@@IPAPAV123@@Z 004411b0 f i libohNetCore:DviService.obj
 0001:00040230       ??$_Allocate@VDvAction@Net@OpenHome@@@std@@YGPAVDvAction@Net@OpenHome@@IPAV123@@Z 00441230 f i libohNetCore:DviService.obj
 0001:000402b0       ??$_Allocate@PAVProperty@Net@OpenHome@@@std@@YGPAPAVProperty@Net@OpenHome@@IPAPAV123@@Z 004412b0 f i libohNetCore:DviService.obj
 0001:00040330       ?construct@?$allocator@PAVDviSubscription@Net@OpenHome@@@std@@QAEXPAPAVDviSubscription@Net@OpenHome@@ABQAV345@@Z 00441330 f i libohNetCore:DviService.obj
 0001:00040360       ?construct@?$allocator@VDvAction@Net@OpenHome@@@std@@QAEXPAVDvAction@Net@OpenHome@@ABV345@@Z 00441360 f i libohNetCore:DviService.obj
 0001:00040390       ?construct@?$allocator@PAVProperty@Net@OpenHome@@@std@@QAEXPAPAVProperty@Net@OpenHome@@ABQAV345@@Z 00441390 f i libohNetCore:DviService.obj
 0001:000403c0       ??$forward@AAVDvAction@Net@OpenHome@@@std@@YGAAVDvAction@Net@OpenHome@@AAV123@@Z 004413c0 f i libohNetCore:DviService.obj
 0001:000403d0       ??$construct@AAVDvAction@Net@OpenHome@@@?$allocator@VDvAction@Net@OpenHome@@@std@@QAEXPAVDvAction@Net@OpenHome@@AAV234@@Z 004413d0 f i libohNetCore:DviService.obj
 0001:00040490       ??$forward@ABVDvAction@Net@OpenHome@@@std@@YGABVDvAction@Net@OpenHome@@ABV123@@Z 00441490 f i libohNetCore:DviService.obj
 0001:000404a0       ??$construct@AAPAVProperty@Net@OpenHome@@@?$allocator@PAVProperty@Net@OpenHome@@@std@@QAEXPAPAVProperty@Net@OpenHome@@AAPAV234@@Z 004414a0 f i libohNetCore:DviService.obj
 0001:00040540       ??$forward@ABQAVProperty@Net@OpenHome@@@std@@YGABQAVProperty@Net@OpenHome@@ABQAV123@@Z 00441540 f i libohNetCore:DviService.obj
 0001:00040550       ??$forward@AAPAVDviSubscription@Net@OpenHome@@@std@@YGAAPAVDviSubscription@Net@OpenHome@@AAPAV123@@Z 00441550 f i libohNetCore:DviService.obj
 0001:00040560       ??$construct@AAPAVDviSubscription@Net@OpenHome@@@?$allocator@PAVDviSubscription@Net@OpenHome@@@std@@QAEXPAPAVDviSubscription@Net@OpenHome@@AAPAV234@@Z 00441560 f i libohNetCore:DviService.obj
 0001:00040600       ??$forward@ABQAVDviSubscription@Net@OpenHome@@@std@@YGABQAVDviSubscription@Net@OpenHome@@ABQAV123@@Z 00441600 f i libohNetCore:DviService.obj
 0001:00040610       ??$_Ptr_cat@PAVDviSubscription@Net@OpenHome@@PAV123@@std@@YG?AU_Scalar_ptr_iterator_tag@0@PAPAVDviSubscription@Net@OpenHome@@0@Z 00441610 f i libohNetCore:DviService.obj
 0001:00040670       ??$_Move@PAPAVDviSubscription@Net@OpenHome@@PAPAV123@@std@@YGPAPAVDviSubscription@Net@OpenHome@@PAPAV123@00U_Scalar_ptr_iterator_tag@0@@Z 00441670 f i libohNetCore:DviService.obj
 0001:000406c0       ??$_Destroy_range@V?$allocator@PAVDviSubscription@Net@OpenHome@@@std@@@std@@YGXPAPAVDviSubscription@Net@OpenHome@@0AAV?$allocator@PAVDviSubscription@Net@OpenHome@@@0@U_Scalar_ptr_iterator_tag@0@@Z 004416c0 f i libohNetCore:DviService.obj
 0001:000406d0       ??$_Uninitialized_move@PAVDvAction@Net@OpenHome@@PAV123@V?$allocator@VDvAction@Net@OpenHome@@@std@@@std@@YGPAVDvAction@Net@OpenHome@@PAV123@00AAV?$allocator@VDvAction@Net@OpenHome@@@0@@Z 004416d0 f i libohNetCore:DviService.obj
 0001:00040720       ??$_Ptr_cat@VDvAction@Net@OpenHome@@V123@@std@@YG?AU_Nonscalar_ptr_iterator_tag@0@PAVDvAction@Net@OpenHome@@0@Z 00441720 f i libohNetCore:DviService.obj
 0001:00040780       ??$_Destroy_range@V?$allocator@VDvAction@Net@OpenHome@@@std@@@std@@YGXPAVDvAction@Net@OpenHome@@0AAV?$allocator@VDvAction@Net@OpenHome@@@0@U_Nonscalar_ptr_iterator_tag@0@@Z 00441780 f i libohNetCore:DviService.obj
 0001:000407b0       ??$_Uninitialized_move@PAPAVProperty@Net@OpenHome@@PAPAV123@V?$allocator@PAVProperty@Net@OpenHome@@@std@@@std@@YGPAPAVProperty@Net@OpenHome@@PAPAV123@00AAV?$allocator@PAVProperty@Net@OpenHome@@@0@@Z 004417b0 f i libohNetCore:DviService.obj
 0001:00040800       ??$_Ptr_cat@PAVProperty@Net@OpenHome@@PAV123@@std@@YG?AU_Scalar_ptr_iterator_tag@0@PAPAVProperty@Net@OpenHome@@0@Z 00441800 f i libohNetCore:DviService.obj
 0001:00040860       ??$_Destroy_range@V?$allocator@PAVProperty@Net@OpenHome@@@std@@@std@@YGXPAPAVProperty@Net@OpenHome@@0AAV?$allocator@PAVProperty@Net@OpenHome@@@0@U_Scalar_ptr_iterator_tag@0@@Z 00441860 f i libohNetCore:DviService.obj
 0001:00040870       ??$_Uninitialized_move@PAPAVDviSubscription@Net@OpenHome@@PAPAV123@V?$allocator@PAVDviSubscription@Net@OpenHome@@@std@@@std@@YGPAPAVDviSubscription@Net@OpenHome@@PAPAV123@00AAV?$allocator@PAVDviSubscription@Net@OpenHome@@@0@@Z 00441870 f i libohNetCore:DviService.obj
 0001:000408c0       ??$_Construct@PAVDviSubscription@Net@OpenHome@@ABQAV123@@std@@YGXPAPAVDviSubscription@Net@OpenHome@@ABQAV123@@Z 004418c0 f i libohNetCore:DviService.obj
 0001:00040970       ??$_Construct@VDvAction@Net@OpenHome@@ABV123@@std@@YGXPAVDvAction@Net@OpenHome@@ABV123@@Z 00441970 f i libohNetCore:DviService.obj
 0001:00040a30       ??$_Construct@PAVProperty@Net@OpenHome@@ABQAV123@@std@@YGXPAPAVProperty@Net@OpenHome@@ABQAV123@@Z 00441a30 f i libohNetCore:DviService.obj
 0001:00040ae0       ??$_Val_type@PAVDvAction@Net@OpenHome@@@std@@YGPAVDvAction@Net@OpenHome@@PAV123@@Z 00441ae0 f i libohNetCore:DviService.obj
 0001:00040af0       ??$_Uninit_move@PAVDvAction@Net@OpenHome@@PAV123@V?$allocator@VDvAction@Net@OpenHome@@@std@@V123@@std@@YGPAVDvAction@Net@OpenHome@@PAV123@00AAV?$allocator@VDvAction@Net@OpenHome@@@0@0U_Nonscalar_ptr_iterator_tag@0@@Z 00441af0 f i libohNetCore:DviService.obj
 0001:00040bf0       ??$_Dest_val@V?$allocator@VDvAction@Net@OpenHome@@@std@@VDvAction@Net@OpenHome@@@std@@YGXAAV?$allocator@VDvAction@Net@OpenHome@@@0@PAVDvAction@Net@OpenHome@@@Z 00441bf0 f i libohNetCore:DviService.obj
 0001:00040c10       ??$_Val_type@PAPAVProperty@Net@OpenHome@@@std@@YGPAPAVProperty@Net@OpenHome@@PAPAV123@@Z 00441c10 f i libohNetCore:DviService.obj
 0001:00040c20       ??$_Uninit_move@PAVProperty@Net@OpenHome@@PAV123@PAV123@@std@@YGPAPAVProperty@Net@OpenHome@@PAPAV123@00AAV?$allocator@PAVProperty@Net@OpenHome@@@0@0U_Scalar_ptr_iterator_tag@0@@Z 00441c20 f i libohNetCore:DviService.obj
 0001:00040c90       ??$_Val_type@PAPAVDviSubscription@Net@OpenHome@@@std@@YGPAPAVDviSubscription@Net@OpenHome@@PAPAV123@@Z 00441c90 f i libohNetCore:DviService.obj
 0001:00040ca0       ??$_Uninit_move@PAVDviSubscription@Net@OpenHome@@PAV123@PAV123@@std@@YGPAPAVDviSubscription@Net@OpenHome@@PAPAV123@00AAV?$allocator@PAVDviSubscription@Net@OpenHome@@@0@0U_Scalar_ptr_iterator_tag@0@@Z 00441ca0 f i libohNetCore:DviService.obj
 0001:00040d10       ?destroy@?$allocator@VDvAction@Net@OpenHome@@@std@@QAEXPAVDvAction@Net@OpenHome@@@Z 00441d10 f i libohNetCore:DviService.obj
 0001:00040d40       ??$_Debug_range@PAVDvAction@Net@OpenHome@@@std@@YGXPAVDvAction@Net@OpenHome@@0PB_WI@Z 00441d40 f i libohNetCore:DviService.obj
 0001:00040d90       ??$_Debug_pointer@VDvAction@Net@OpenHome@@@std@@YGXPAVDvAction@Net@OpenHome@@PB_WI@Z 00441d90 f i libohNetCore:DviService.obj
 0001:00040dc0       ??$_Cons_val@V?$allocator@VDvAction@Net@OpenHome@@@std@@VDvAction@Net@OpenHome@@V345@@std@@YGXAAV?$allocator@VDvAction@Net@OpenHome@@@0@PAVDvAction@Net@OpenHome@@$$QAV234@@Z 00441dc0 f i libohNetCore:DviService.obj
 0001:00040df0       ??$_Debug_range@PAPAVProperty@Net@OpenHome@@@std@@YGXPAPAVProperty@Net@OpenHome@@0PB_WI@Z 00441df0 f i libohNetCore:DviService.obj
 0001:00040e40       ??$_Debug_pointer@PAVProperty@Net@OpenHome@@@std@@YGXPAPAVProperty@Net@OpenHome@@PB_WI@Z 00441e40 f i libohNetCore:DviService.obj
 0001:00040e70       ??$_Debug_range@PAPAVDviSubscription@Net@OpenHome@@@std@@YGXPAPAVDviSubscription@Net@OpenHome@@0PB_WI@Z 00441e70 f i libohNetCore:DviService.obj
 0001:00040ec0       ??$_Debug_pointer@PAVDviSubscription@Net@OpenHome@@@std@@YGXPAPAVDviSubscription@Net@OpenHome@@PB_WI@Z 00441ec0 f i libohNetCore:DviService.obj
 0001:00040ef0       ??$_Destroy@VDvAction@Net@OpenHome@@@std@@YGXPAVDvAction@Net@OpenHome@@@Z 00441ef0 f i libohNetCore:DviService.obj
 0001:00040f00       ?construct@?$allocator@VDvAction@Net@OpenHome@@@std@@QAEXPAVDvAction@Net@OpenHome@@$$QAV345@@Z 00441f00 f i libohNetCore:DviService.obj
 0001:00040fc0       ??$_Iter_cat@PAVDvAction@Net@OpenHome@@@std@@YG?AUrandom_access_iterator_tag@0@ABQAVDvAction@Net@OpenHome@@@Z 00441fc0 f i libohNetCore:DviService.obj
 0001:00041020       ??$_Debug_range2@PAVDvAction@Net@OpenHome@@@std@@YGXPAVDvAction@Net@OpenHome@@0PB_WIUrandom_access_iterator_tag@0@@Z 00442020 f i libohNetCore:DviService.obj
 0001:00041080       ??$forward@VDvAction@Net@OpenHome@@@std@@YG$$QAVDvAction@Net@OpenHome@@AAV123@@Z 00442080 f i libohNetCore:DviService.obj
 0001:00041090       ??$_Iter_cat@PAPAVProperty@Net@OpenHome@@@std@@YG?AUrandom_access_iterator_tag@0@ABQAPAVProperty@Net@OpenHome@@@Z 00442090 f i libohNetCore:DviService.obj
 0001:000410f0       ??$_Debug_range2@PAPAVProperty@Net@OpenHome@@@std@@YGXPAPAVProperty@Net@OpenHome@@0PB_WIUrandom_access_iterator_tag@0@@Z 004420f0 f i libohNetCore:DviService.obj
 0001:00041150       ??$_Iter_cat@PAPAVDviSubscription@Net@OpenHome@@@std@@YG?AUrandom_access_iterator_tag@0@ABQAPAVDviSubscription@Net@OpenHome@@@Z 00442150 f i libohNetCore:DviService.obj
 0001:000411b0       ??$_Debug_range2@PAPAVDviSubscription@Net@OpenHome@@@std@@YGXPAPAVDviSubscription@Net@OpenHome@@0PB_WIUrandom_access_iterator_tag@0@@Z 004421b0 f i libohNetCore:DviService.obj
 0001:00041210       ?Functor@SyncProxyAction@Net@OpenHome@@QAEAAVFunctorAsync@23@XZ 00442210 f   libohNetCore:AsyncPrivate.obj
 0001:00041230       ?Wait@SyncProxyAction@Net@OpenHome@@QAEXXZ 00442230 f   libohNetCore:AsyncPrivate.obj
 0001:00041300       ??0SyncProxyAction@Net@OpenHome@@IAE@XZ 00442300 f   libohNetCore:AsyncPrivate.obj
 0001:000413d0       ??1SyncProxyAction@Net@OpenHome@@IAE@XZ 004423d0 f   libohNetCore:AsyncPrivate.obj
 0001:00041400       ?Completed@SyncProxyAction@Net@OpenHome@@AAEXAAVIAsync@23@@Z 00442400 f   libohNetCore:AsyncPrivate.obj
 0001:00041510       ??$MakeFunctorAsync@VSyncProxyAction@Net@OpenHome@@V123@@Net@OpenHome@@YG?AV?$MemberTranslatorAsync@VSyncProxyAction@Net@OpenHome@@P8123@AEXAAVIAsync@23@@Z@01@AAVSyncProxyAction@01@ABQ8301@AEXAAVIAsync@01@@Z@Z 00442510 f i libohNetCore:AsyncPrivate.obj
 0001:00041540       ??0?$MemberTranslatorAsync@VSyncProxyAction@Net@OpenHome@@P8123@AEXAAVIAsync@23@@Z@Net@OpenHome@@QAE@AAVSyncProxyAction@12@ABQ8312@AEXAAVIAsync@12@@Z@Z 00442540 f i libohNetCore:AsyncPrivate.obj
 0001:00041580       ?Thunk@?$MemberTranslatorAsync@VSyncProxyAction@Net@OpenHome@@P8123@AEXAAVIAsync@23@@Z@Net@OpenHome@@SGXABVFunctorAsync@23@AAVIAsync@23@@Z 00442580 f i libohNetCore:AsyncPrivate.obj
 0001:000415e0       ??0CpiService@Net@OpenHome@@QAE@PBD0IAAVCpiDevice@12@@Z 004425e0 f   libohNetCore:CpiService.obj
 0001:000416c0       ??1CpiService@Net@OpenHome@@QAE@XZ 004426c0 f   libohNetCore:CpiService.obj
 0001:000417e0       ?Invocation@CpiService@Net@OpenHome@@QAEPAV023@ABVAction@23@AAVFunctorAsync@23@@Z 004427e0 f   libohNetCore:CpiService.obj
 0001:00041860       ?Subscribe@CpiService@Net@OpenHome@@QAEXAAVIEventProcessor@23@@Z 00442860 f   libohNetCore:CpiService.obj
 0001:000418c0       ?Unsubscribe@CpiService@Net@OpenHome@@QAEXXZ 004428c0 f   libohNetCore:CpiService.obj
 0001:00041920       ?InvocationCompleted@CpiService@Net@OpenHome@@QAEXXZ 00442920 f   libohNetCore:CpiService.obj
 0001:000419a0       ?Interrupt@CpiService@Net@OpenHome@@QBE_NXZ 004429a0 f   libohNetCore:CpiService.obj
 0001:000419c0       ?Device@CpiService@Net@OpenHome@@QAEAAVCpiDevice@23@XZ 004429c0 f   libohNetCore:CpiService.obj
 0001:000419e0       ?Parameter@Argument@Net@OpenHome@@QBEABV023@XZ 004429e0 f   libohNetCore:CpiService.obj
 0001:00041a00       ??0Argument@Net@OpenHome@@IAE@ABVParameter@12@@Z 00442a00 f   libohNetCore:CpiService.obj
 0001:00041a40       ??1Argument@Net@OpenHome@@UAE@XZ 00442a40 f   libohNetCore:CpiService.obj
 0001:00041a60       ?ValidationFailed@Argument@Net@OpenHome@@IAEXABVParameter@23@@Z 00442a60 f   libohNetCore:CpiService.obj
 0001:00041ac0       ??0ArgumentString@Net@OpenHome@@QAE@ABVParameter@12@@Z 00442ac0 f   libohNetCore:CpiService.obj
 0001:00041b40       ??0ArgumentString@Net@OpenHome@@QAE@ABVParameter@12@ABVBrx@2@@Z 00442b40 f   libohNetCore:CpiService.obj
 0001:00041c30       ??1ArgumentString@Net@OpenHome@@UAE@XZ 00442c30 f   libohNetCore:CpiService.obj
 0001:00041ca0       ?Value@ArgumentString@Net@OpenHome@@QBEABVBrx@3@XZ 00442ca0 f   libohNetCore:CpiService.obj
 0001:00041cc0       ?TransferTo@ArgumentString@Net@OpenHome@@QAEXAAVBrh@3@@Z 00442cc0 f   libohNetCore:CpiService.obj
 0001:00041cf0       ?ProcessInput@ArgumentString@Net@OpenHome@@UAEXAAVIInputArgumentProcessor@23@@Z 00442cf0 f   libohNetCore:CpiService.obj
 0001:00041d30       ?ProcessOutput@ArgumentString@Net@OpenHome@@UAEXAAVIOutputProcessor@23@ABVBrx@3@@Z 00442d30 f   libohNetCore:CpiService.obj
 0001:00041da0       ??0ArgumentInt@Net@OpenHome@@QAE@ABVParameter@12@@Z 00442da0 f   libohNetCore:CpiService.obj
 0001:00041de0       ??0ArgumentInt@Net@OpenHome@@QAE@ABVParameter@12@H@Z 00442de0 f   libohNetCore:CpiService.obj
 0001:00041eb0       ??1ArgumentInt@Net@OpenHome@@UAE@XZ 00442eb0 f   libohNetCore:CpiService.obj
 0001:00041ee0       ?Value@ArgumentInt@Net@OpenHome@@QBEHXZ 00442ee0 f   libohNetCore:CpiService.obj
 0001:00041f00       ?ProcessInput@ArgumentInt@Net@OpenHome@@UAEXAAVIInputArgumentProcessor@23@@Z 00442f00 f   libohNetCore:CpiService.obj
 0001:00041f40       ?ProcessOutput@ArgumentInt@Net@OpenHome@@UAEXAAVIOutputProcessor@23@ABVBrx@3@@Z 00442f40 f   libohNetCore:CpiService.obj
 0001:00041fb0       ??0ArgumentUint@Net@OpenHome@@QAE@ABVParameter@12@@Z 00442fb0 f   libohNetCore:CpiService.obj
 0001:00041ff0       ??0ArgumentUint@Net@OpenHome@@QAE@ABVParameter@12@I@Z 00442ff0 f   libohNetCore:CpiService.obj
 0001:000420c0       ??1ArgumentUint@Net@OpenHome@@UAE@XZ 004430c0 f   libohNetCore:CpiService.obj
 0001:000420f0       ?Value@ArgumentUint@Net@OpenHome@@QBEIXZ 004430f0 f   libohNetCore:CpiService.obj
 0001:00042110       ?ProcessInput@ArgumentUint@Net@OpenHome@@UAEXAAVIInputArgumentProcessor@23@@Z 00443110 f   libohNetCore:CpiService.obj
 0001:00042150       ?ProcessOutput@ArgumentUint@Net@OpenHome@@UAEXAAVIOutputProcessor@23@ABVBrx@3@@Z 00443150 f   libohNetCore:CpiService.obj
 0001:000421c0       ??0ArgumentBool@Net@OpenHome@@QAE@ABVParameter@12@@Z 004431c0 f   libohNetCore:CpiService.obj
 0001:00042200       ??0ArgumentBool@Net@OpenHome@@QAE@ABVParameter@12@_N@Z 00443200 f   libohNetCore:CpiService.obj
 0001:000422d0       ??1ArgumentBool@Net@OpenHome@@UAE@XZ 004432d0 f   libohNetCore:CpiService.obj
 0001:00042300       ?Value@ArgumentBool@Net@OpenHome@@QBE_NXZ 00443300 f   libohNetCore:CpiService.obj
 0001:00042320       ?ProcessInput@ArgumentBool@Net@OpenHome@@UAEXAAVIInputArgumentProcessor@23@@Z 00443320 f   libohNetCore:CpiService.obj
 0001:00042360       ?ProcessOutput@ArgumentBool@Net@OpenHome@@UAEXAAVIOutputProcessor@23@ABVBrx@3@@Z 00443360 f   libohNetCore:CpiService.obj
 0001:000423d0       ??0ArgumentBinary@Net@OpenHome@@QAE@ABVParameter@12@@Z 004433d0 f   libohNetCore:CpiService.obj
 0001:00042450       ??0ArgumentBinary@Net@OpenHome@@QAE@ABVParameter@12@ABVBrx@2@@Z 00443450 f   libohNetCore:CpiService.obj
 0001:00042540       ??1ArgumentBinary@Net@OpenHome@@UAE@XZ 00443540 f   libohNetCore:CpiService.obj
 0001:000425b0       ?Value@ArgumentBinary@Net@OpenHome@@QBEABVBrx@3@XZ 004435b0 f   libohNetCore:CpiService.obj
 0001:000425d0       ?TransferTo@ArgumentBinary@Net@OpenHome@@QAEXAAVBrh@3@@Z 004435d0 f   libohNetCore:CpiService.obj
 0001:00042600       ?ProcessInput@ArgumentBinary@Net@OpenHome@@UAEXAAVIInputArgumentProcessor@23@@Z 00443600 f   libohNetCore:CpiService.obj
 0001:00042640       ?ProcessOutput@ArgumentBinary@Net@OpenHome@@UAEXAAVIOutputProcessor@23@ABVBrx@3@@Z 00443640 f   libohNetCore:CpiService.obj
 0001:000426b0       ?SignalCompleted@Invocation@Net@OpenHome@@QAEXXZ 004436b0 f   libohNetCore:CpiService.obj
 0001:000427f0       ?Error@Invocation@Net@OpenHome@@QBE_NXZ 004437f0 f   libohNetCore:CpiService.obj
 0001:00042820       ?Interrupt@Invocation@Net@OpenHome@@QBE_NXZ 00443820 f   libohNetCore:CpiService.obj
 0001:00042850       ?Set@Invocation@Net@OpenHome@@QAEXAAVCpiService@23@ABVAction@23@AAVCpiDevice@23@AAVFunctorAsync@23@@Z 00443850 f   libohNetCore:CpiService.obj
 0001:000428c0       ?AddInput@Invocation@Net@OpenHome@@QAEXPAVArgument@23@@Z 004438c0 f   libohNetCore:CpiService.obj
 0001:000428f0       ?AddOutput@Invocation@Net@OpenHome@@QAEXPAVArgument@23@@Z 004438f0 f   libohNetCore:CpiService.obj
 0001:00042920       ?SetError@Invocation@Net@OpenHome@@QAEXW4ELevel@Error@23@IABVBrx@3@@Z 00443920 f   libohNetCore:CpiService.obj
 0001:00042970       ?SetInterruptHandler@Invocation@Net@OpenHome@@QAEXPAVIInterruptHandler@23@@Z 00443970 f   libohNetCore:CpiService.obj
 0001:00042a60       ?Interrupt@Invocation@Net@OpenHome@@QAEXABVService@23@@Z 00443a60 f   libohNetCore:CpiService.obj
 0001:00042b50       ?ServiceType@Invocation@Net@OpenHome@@QBEABV023@XZ 00443b50 f   libohNetCore:CpiService.obj
 0001:00042b90       ?Action@Invocation@Net@OpenHome@@QBEABV023@XZ 00443b90 f   libohNetCore:CpiService.obj
 0001:00042bd0       ?Device@Invocation@Net@OpenHome@@QAEAAVCpiDevice@23@XZ 00443bd0 f   libohNetCore:CpiService.obj
 0001:00042bf0       ?Output@Invocation@Net@OpenHome@@UAEXAAVIAsyncOutput@23@@Z 00443bf0 f   libohNetCore:CpiService.obj
 0001:00042e50       ?OutputArgument@Invocation@Net@OpenHome@@CGXAAVIAsyncOutput@23@PBDABVArgument@23@@Z 00443e50 f   libohNetCore:CpiService.obj
 0001:00043250       ?InputArguments@Invocation@Net@OpenHome@@QBEABV?$vector@PAVArgument@Net@OpenHome@@V?$allocator@PAVArgument@Net@OpenHome@@@std@@@std@@XZ 00444250 f   libohNetCore:CpiService.obj
 0001:00043270       ?OutputArguments@Invocation@Net@OpenHome@@QAEAAV?$vector@PAVArgument@Net@OpenHome@@V?$allocator@PAVArgument@Net@OpenHome@@@std@@@std@@XZ 00444270 f   libohNetCore:CpiService.obj
 0001:00043290       ?SetInvoker@Invocation@Net@OpenHome@@QAEXAAVIInvocable@23@@Z 00444290 f   libohNetCore:CpiService.obj
 0001:000432b0       ?Invoker@Invocation@Net@OpenHome@@QAEAAVIInvocable@23@XZ 004442b0 f   libohNetCore:CpiService.obj
 0001:000432f0       ?Type@Invocation@Net@OpenHome@@EBEIXZ 004442f0 f   libohNetCore:CpiService.obj
 0001:00043310       ??0Invocation@Net@OpenHome@@AAE@AAV?$Fifo@PAVInvocation@Net@OpenHome@@@2@@Z 00444310 f   libohNetCore:CpiService.obj
 0001:00043400       ??1Invocation@Net@OpenHome@@AAE@XZ 00444400 f   libohNetCore:CpiService.obj
 0001:000434a0       ?Clear@Invocation@Net@OpenHome@@AAEXXZ 004444a0 f   libohNetCore:CpiService.obj
 0001:00043650       ??0Invoker@Net@OpenHome@@QAE@PBDAAV?$Fifo@PAVInvoker@Net@OpenHome@@@2@@Z 00444650 f   libohNetCore:CpiService.obj
 0001:000436f0       ??1Invoker@Net@OpenHome@@UAE@XZ 004446f0 f   libohNetCore:CpiService.obj
 0001:00043780       ?Invoke@Invoker@Net@OpenHome@@QAEXPAVInvocation@23@@Z 00444780 f   libohNetCore:CpiService.obj
 0001:000437d0       ?Interrupt@Invoker@Net@OpenHome@@QAEXABVService@23@@Z 004447d0 f   libohNetCore:CpiService.obj
 0001:00043890       ?LogError@Invoker@Net@OpenHome@@AAEXPBD@Z 00444890 f   libohNetCore:CpiService.obj
 0001:00043920       ?Run@Invoker@Net@OpenHome@@EAEXXZ 00444920 f   libohNetCore:CpiService.obj
 0001:00043bd0       ??0InvocationManager@Net@OpenHome@@QAE@XZ 00444bd0 f   libohNetCore:CpiService.obj
 0001:00043e70       ??1InvocationManager@Net@OpenHome@@UAE@XZ 00444e70 f   libohNetCore:CpiService.obj
 0001:00044050       ?Invocation@InvocationManager@Net@OpenHome@@CGPAV023@XZ 00445050 f   libohNetCore:CpiService.obj
 0001:00044140       ?Invoke@InvocationManager@Net@OpenHome@@SGXPAVInvocation@23@@Z 00445140 f   libohNetCore:CpiService.obj
 0001:000441b0       ?Interrupt@InvocationManager@Net@OpenHome@@SGXABVService@23@@Z 004451b0 f   libohNetCore:CpiService.obj
 0001:00044220       ?Self@InvocationManager@Net@OpenHome@@CGAAV123@XZ 00445220 f   libohNetCore:CpiService.obj
 0001:00044240       ?Run@InvocationManager@Net@OpenHome@@EAEXXZ 00445240 f   libohNetCore:CpiService.obj
 0001:00044370       ??_EArgument@Net@OpenHome@@UAEPAXI@Z 00445370 f i libohNetCore:CpiService.obj
 0001:00044370       ??_GArgument@Net@OpenHome@@UAEPAXI@Z 00445370 f i libohNetCore:CpiService.obj
 0001:000443b0       ??_EArgumentString@Net@OpenHome@@UAEPAXI@Z 004453b0 f i libohNetCore:CpiService.obj
 0001:00044430       ??_EArgumentInt@Net@OpenHome@@UAEPAXI@Z 00445430 f i libohNetCore:CpiService.obj
 0001:000444b0       ??_EArgumentUint@Net@OpenHome@@UAEPAXI@Z 004454b0 f i libohNetCore:CpiService.obj
 0001:00044530       ??_EArgumentBool@Net@OpenHome@@UAEPAXI@Z 00445530 f i libohNetCore:CpiService.obj
 0001:000445b0       ??_EArgumentBinary@Net@OpenHome@@UAEPAXI@Z 004455b0 f i libohNetCore:CpiService.obj
 0001:00044630       ??RFunctorAsync@Net@OpenHome@@QBEXAAVIAsync@12@@Z 00445630 f i libohNetCore:CpiService.obj
 0001:00044670       ??BFunctorAsync@Net@OpenHome@@QBE_NXZ 00445670 f i libohNetCore:CpiService.obj
 0001:000446b0       ?Level@Error@Net@OpenHome@@QBE?AW4ELevel@123@XZ 004456b0 f i libohNetCore:CpiService.obj
 0001:000446d0       ??0Async@Net@OpenHome@@QAE@XZ 004456d0 f i libohNetCore:CpiService.obj
 0001:00044700       ??1Error@Net@OpenHome@@QAE@XZ 00445700 f i libohNetCore:CpiService.obj
 0001:00044730       ??0IAsync@Net@OpenHome@@QAE@XZ 00445730 f i libohNetCore:CpiService.obj
 0001:00044750       ??_EInvoker@Net@OpenHome@@UAEPAXI@Z 00445750 f i libohNetCore:CpiService.obj
 0001:00044750       ??_GInvoker@Net@OpenHome@@UAEPAXI@Z 00445750 f i libohNetCore:CpiService.obj
 0001:00044790       ??_GInvocationManager@Net@OpenHome@@UAEPAXI@Z 00445790 f i libohNetCore:CpiService.obj
 0001:00044790       ??_EInvocationManager@Net@OpenHome@@UAEPAXI@Z 00445790 f i libohNetCore:CpiService.obj
 0001:000447d0       ??_GInvocation@Net@OpenHome@@AAEPAXI@Z 004457d0 f i libohNetCore:CpiService.obj
 0001:00044810       ??0?$vector@PAVArgument@Net@OpenHome@@V?$allocator@PAVArgument@Net@OpenHome@@@std@@@std@@QAE@XZ 00445810 f i libohNetCore:CpiService.obj
 0001:00044850       ??1?$vector@PAVArgument@Net@OpenHome@@V?$allocator@PAVArgument@Net@OpenHome@@@std@@@std@@QAE@XZ 00445850 f i libohNetCore:CpiService.obj
 0001:000448c0       ?push_back@?$vector@PAVArgument@Net@OpenHome@@V?$allocator@PAVArgument@Net@OpenHome@@@std@@@std@@QAEXABQAVArgument@Net@OpenHome@@@Z 004458c0 f i libohNetCore:CpiService.obj
 0001:000449d0       ?clear@?$vector@PAVArgument@Net@OpenHome@@V?$allocator@PAVArgument@Net@OpenHome@@@std@@@std@@QAEXXZ 004459d0 f i libohNetCore:CpiService.obj
 0001:00044ad0       ??0?$Fifo@PAVInvocation@Net@OpenHome@@@OpenHome@@QAE@I@Z 00445ad0 f i libohNetCore:CpiService.obj
 0001:00044b70       ??1?$Fifo@PAVInvocation@Net@OpenHome@@@OpenHome@@QAE@XZ 00445b70 f i libohNetCore:CpiService.obj
 0001:00044bc0       ??0?$Fifo@PAVInvoker@Net@OpenHome@@@OpenHome@@QAE@I@Z 00445bc0 f i libohNetCore:CpiService.obj
 0001:00044c60       ??1?$Fifo@PAVInvoker@Net@OpenHome@@@OpenHome@@QAE@XZ 00445c60 f i libohNetCore:CpiService.obj
 0001:00044cb0       ??1?$_Vector_iterator@V?$_Vector_val@PAVArgument@Net@OpenHome@@V?$allocator@PAVArgument@Net@OpenHome@@@std@@@std@@@std@@QAE@XZ 00445cb0 f i libohNetCore:CpiService.obj
 0001:00044ce0       ??0?$_Vector_const_iterator@V?$_Vector_val@PAVArgument@Net@OpenHome@@V?$allocator@PAVArgument@Net@OpenHome@@@std@@@std@@@std@@QAE@ABV01@@Z 00445ce0 f i libohNetCore:CpiService.obj
 0001:00044d20       ??1?$_Vector_const_iterator@V?$_Vector_val@PAVArgument@Net@OpenHome@@V?$allocator@PAVArgument@Net@OpenHome@@@std@@@std@@@std@@QAE@XZ 00445d20 f i libohNetCore:CpiService.obj
 0001:00044d50       ??1FifoBase@OpenHome@@QAE@XZ 00445d50 f i libohNetCore:CpiService.obj
 0001:00044dd0       ??0?$_Iterator012@Urandom_access_iterator_tag@std@@PAVArgument@Net@OpenHome@@HPBQAV345@ABQAV345@U_Iterator_base12@2@@std@@QAE@ABU01@@Z 00445dd0 f i libohNetCore:CpiService.obj
 0001:00044e00       ??1?$_Iterator012@Urandom_access_iterator_tag@std@@PAVArgument@Net@OpenHome@@HPBQAV345@ABQAV345@U_Iterator_base12@2@@std@@QAE@XZ 00445e00 f i libohNetCore:CpiService.obj
 0001:00044e30       ?begin@?$vector@PAVArgument@Net@OpenHome@@V?$allocator@PAVArgument@Net@OpenHome@@@std@@@std@@QAE?AV?$_Vector_iterator@V?$_Vector_val@PAVArgument@Net@OpenHome@@V?$allocator@PAVArgument@Net@OpenHome@@@std@@@std@@@2@XZ 00445e30 f i libohNetCore:CpiService.obj
 0001:00044e80       ?end@?$vector@PAVArgument@Net@OpenHome@@V?$allocator@PAVArgument@Net@OpenHome@@@std@@@std@@QAE?AV?$_Vector_iterator@V?$_Vector_val@PAVArgument@Net@OpenHome@@V?$allocator@PAVArgument@Net@OpenHome@@@std@@@std@@@2@XZ 00445e80 f i libohNetCore:CpiService.obj
 0001:00044ed0       ?erase@?$vector@PAVArgument@Net@OpenHome@@V?$allocator@PAVArgument@Net@OpenHome@@@std@@@std@@QAE?AV?$_Vector_iterator@V?$_Vector_val@PAVArgument@Net@OpenHome@@V?$allocator@PAVArgument@Net@OpenHome@@@std@@@std@@@2@V?$_Vector_const_iterator@V?$_Vector_val@PAVArgument@Net@OpenHome@@V?$allocator@PAVArgument@Net@OpenHome@@@std@@@std@@@2@0@Z 00445ed0 f i libohNetCore:CpiService.obj
 0001:000450c0       ?_Inside@?$vector@PAVArgument@Net@OpenHome@@V?$allocator@PAVArgument@Net@OpenHome@@@std@@@std@@IBE_NPBQAVArgument@Net@OpenHome@@@Z 004460c0 f i libohNetCore:CpiService.obj
 0001:00045110       ?_Reserve@?$vector@PAVArgument@Net@OpenHome@@V?$allocator@PAVArgument@Net@OpenHome@@@std@@@std@@IAEXI@Z 00446110 f i libohNetCore:CpiService.obj
 0001:00045190       ?_Tidy@?$vector@PAVArgument@Net@OpenHome@@V?$allocator@PAVArgument@Net@OpenHome@@@std@@@std@@IAEXXZ 00446190 f i libohNetCore:CpiService.obj
 0001:00045220       ?_Orphan_range@?$vector@PAVArgument@Net@OpenHome@@V?$allocator@PAVArgument@Net@OpenHome@@@std@@@std@@IBEXPAPAVArgument@Net@OpenHome@@0@Z 00446220 f i libohNetCore:CpiService.obj
 0001:00045330       ??0?$_Vector_val@PAVArgument@Net@OpenHome@@V?$allocator@PAVArgument@Net@OpenHome@@@std@@@std@@QAE@V?$allocator@PAVArgument@Net@OpenHome@@@1@@Z 00446330 f i libohNetCore:CpiService.obj
 0001:00045450       ??1?$_Vector_val@PAVArgument@Net@OpenHome@@V?$allocator@PAVArgument@Net@OpenHome@@@std@@@std@@QAE@XZ 00446450 f i libohNetCore:CpiService.obj
 0001:00045530       ??0?$allocator@PAVArgument@Net@OpenHome@@@std@@QAE@XZ 00446530 f i libohNetCore:CpiService.obj
 0001:00045550       ??0?$_Vector_iterator@V?$_Vector_val@PAVArgument@Net@OpenHome@@V?$allocator@PAVArgument@Net@OpenHome@@@std@@@std@@@std@@QAE@ABV01@@Z 00446550 f i libohNetCore:CpiService.obj
 0001:00045580       ?reserve@?$vector@PAVArgument@Net@OpenHome@@V?$allocator@PAVArgument@Net@OpenHome@@@std@@@std@@QAEXI@Z 00446580 f i libohNetCore:CpiService.obj
 0001:000456f0       ?capacity@?$vector@PAVArgument@Net@OpenHome@@V?$allocator@PAVArgument@Net@OpenHome@@@std@@@std@@QBEIXZ 004466f0 f i libohNetCore:CpiService.obj
 0001:00045720       ?_Make_iter@?$vector@PAVArgument@Net@OpenHome@@V?$allocator@PAVArgument@Net@OpenHome@@@std@@@std@@QBE?AV?$_Vector_iterator@V?$_Vector_val@PAVArgument@Net@OpenHome@@V?$allocator@PAVArgument@Net@OpenHome@@@std@@@std@@@2@V?$_Vector_const_iterator@V?$_Vector_val@PAVArgument@Net@OpenHome@@V?$allocator@PAVArgument@Net@OpenHome@@@std@@@std@@@2@@Z 00446720 f i libohNetCore:CpiService.obj
 0001:000457b0       ?max_size@?$vector@PAVArgument@Net@OpenHome@@V?$allocator@PAVArgument@Net@OpenHome@@@std@@@std@@QBEIXZ 004467b0 f i libohNetCore:CpiService.obj
 0001:000457e0       ?_Destroy@?$vector@PAVArgument@Net@OpenHome@@V?$allocator@PAVArgument@Net@OpenHome@@@std@@@std@@IAEXPAPAVArgument@Net@OpenHome@@0@Z 004467e0 f i libohNetCore:CpiService.obj
 0001:00045820       ?_Grow_to@?$vector@PAVArgument@Net@OpenHome@@V?$allocator@PAVArgument@Net@OpenHome@@@std@@@std@@IBEII@Z 00446820 f i libohNetCore:CpiService.obj
 0001:000458a0       ?_Xlen@?$vector@PAVArgument@Net@OpenHome@@V?$allocator@PAVArgument@Net@OpenHome@@@std@@@std@@IBEXXZ 004468a0 f i libohNetCore:CpiService.obj
 0001:000458d0       ??0?$allocator@PAVArgument@Net@OpenHome@@@std@@QAE@ABV01@@Z 004468d0 f i libohNetCore:CpiService.obj
 0001:000458f0       ?deallocate@?$allocator@PAVArgument@Net@OpenHome@@@std@@QAEXPAPAVArgument@Net@OpenHome@@I@Z 004468f0 f i libohNetCore:CpiService.obj
 0001:00045920       ??0?$_Vector_iterator@V?$_Vector_val@PAVArgument@Net@OpenHome@@V?$allocator@PAVArgument@Net@OpenHome@@@std@@@std@@@std@@QAE@PAPAVArgument@Net@OpenHome@@PBU_Container_base12@1@@Z 00446920 f i libohNetCore:CpiService.obj
 0001:00045960       ??9?$_Vector_const_iterator@V?$_Vector_val@PAVArgument@Net@OpenHome@@V?$allocator@PAVArgument@Net@OpenHome@@@std@@@std@@@std@@QBE_NABV01@@Z 00446960 f i libohNetCore:CpiService.obj
 0001:000459a0       ??M?$_Vector_const_iterator@V?$_Vector_val@PAVArgument@Net@OpenHome@@V?$allocator@PAVArgument@Net@OpenHome@@@std@@@std@@@std@@QBE_NABV01@@Z 004469a0 f i libohNetCore:CpiService.obj
 0001:000459e0       ?allocate@?$allocator@PAVArgument@Net@OpenHome@@@std@@QAEPAPAVArgument@Net@OpenHome@@I@Z 004469e0 f i libohNetCore:CpiService.obj
 0001:00045a10       ?max_size@?$allocator@PAVArgument@Net@OpenHome@@@std@@QBEIXZ 00446a10 f i libohNetCore:CpiService.obj
 0001:00045a60       ??0?$_Vector_const_iterator@V?$_Vector_val@PAVArgument@Net@OpenHome@@V?$allocator@PAVArgument@Net@OpenHome@@@std@@@std@@@std@@QAE@PAPAVArgument@Net@OpenHome@@PBU_Container_base12@1@@Z 00446a60 f i libohNetCore:CpiService.obj
 0001:00045ae0       ??8?$_Vector_const_iterator@V?$_Vector_val@PAVArgument@Net@OpenHome@@V?$allocator@PAVArgument@Net@OpenHome@@@std@@@std@@@std@@QBE_NABV01@@Z 00446ae0 f i libohNetCore:CpiService.obj
 0001:00045b20       ?_Compat@?$_Vector_const_iterator@V?$_Vector_val@PAVArgument@Net@OpenHome@@V?$allocator@PAVArgument@Net@OpenHome@@@std@@@std@@@std@@QBEXABV12@@Z 00446b20 f i libohNetCore:CpiService.obj
 0001:00045bd0       ??0?$_Iterator012@Urandom_access_iterator_tag@std@@PAVArgument@Net@OpenHome@@HPBQAV345@ABQAV345@U_Iterator_base12@2@@std@@QAE@XZ 00446bd0 f i libohNetCore:CpiService.obj
 0001:00045c00       ?Write@?$Fifo@PAVInvocation@Net@OpenHome@@@OpenHome@@QAEXPAVInvocation@Net@2@@Z 00446c00 f i libohNetCore:CpiService.obj
 0001:00045c30       ?Read@?$Fifo@PAVInvocation@Net@OpenHome@@@OpenHome@@QAEPAVInvocation@Net@2@XZ 00446c30 f i libohNetCore:CpiService.obj
 0001:00045c60       ?Write@?$Fifo@PAVInvoker@Net@OpenHome@@@OpenHome@@QAEXPAVInvoker@Net@2@@Z 00446c60 f i libohNetCore:CpiService.obj
 0001:00045c90       ?Read@?$Fifo@PAVInvoker@Net@OpenHome@@@OpenHome@@QAEPAVInvoker@Net@2@XZ 00446c90 f i libohNetCore:CpiService.obj
 0001:00045cc0       ??$addressof@QAVArgument@Net@OpenHome@@@std@@YGPBQAVArgument@Net@OpenHome@@ABQAV123@@Z 00446cc0 f i libohNetCore:CpiService.obj
 0001:00045cd0       ??$_Cons_val@V?$allocator@PAVArgument@Net@OpenHome@@@std@@PAVArgument@Net@OpenHome@@AAPAV345@@std@@YGXAAV?$allocator@PAVArgument@Net@OpenHome@@@0@PAPAVArgument@Net@OpenHome@@AAPAV234@@Z 00446cd0 f i libohNetCore:CpiService.obj
 0001:00045d00       ??$_Cons_val@V?$allocator@PAVArgument@Net@OpenHome@@@std@@PAVArgument@Net@OpenHome@@ABQAV345@@std@@YGXAAV?$allocator@PAVArgument@Net@OpenHome@@@0@PAPAVArgument@Net@OpenHome@@ABQAV234@@Z 00446d00 f i libohNetCore:CpiService.obj
 0001:00045d30       ??$_Move@PAPAVArgument@Net@OpenHome@@PAPAV123@@std@@YGPAPAVArgument@Net@OpenHome@@PAPAV123@00@Z 00446d30 f i libohNetCore:CpiService.obj
 0001:00045d80       ??$?0PAVArgument@Net@OpenHome@@@?$allocator@U_Container_proxy@std@@@std@@QAE@ABV?$allocator@PAVArgument@Net@OpenHome@@@1@@Z 00446d80 f i libohNetCore:CpiService.obj
 0001:00045da0       ??$_Umove@PAPAVArgument@Net@OpenHome@@@?$vector@PAVArgument@Net@OpenHome@@V?$allocator@PAVArgument@Net@OpenHome@@@std@@@std@@IAEPAPAVArgument@Net@OpenHome@@PAPAV234@00@Z 00446da0 f i libohNetCore:CpiService.obj
 0001:00045de0       ??$_Destroy_range@V?$allocator@PAVArgument@Net@OpenHome@@@std@@@std@@YGXPAPAVArgument@Net@OpenHome@@0AAV?$allocator@PAVArgument@Net@OpenHome@@@0@@Z 00446de0 f i libohNetCore:CpiService.obj
 0001:00045e30       ??$_Allocate@PAVArgument@Net@OpenHome@@@std@@YGPAPAVArgument@Net@OpenHome@@IPAPAV123@@Z 00446e30 f i libohNetCore:CpiService.obj
 0001:00045eb0       ?construct@?$allocator@PAVArgument@Net@OpenHome@@@std@@QAEXPAPAVArgument@Net@OpenHome@@ABQAV345@@Z 00446eb0 f i libohNetCore:CpiService.obj
 0001:00045ee0       ?Write@?$Fifo@PAVInvocation@Net@OpenHome@@@OpenHome@@QAEXPAVInvocation@Net@2@I@Z 00446ee0 f i libohNetCore:CpiService.obj
 0001:00045f20       ?Read@?$Fifo@PAVInvocation@Net@OpenHome@@@OpenHome@@QAEPAVInvocation@Net@2@I@Z 00446f20 f i libohNetCore:CpiService.obj
 0001:00045f70       ?Write@?$Fifo@PAVInvoker@Net@OpenHome@@@OpenHome@@QAEXPAVInvoker@Net@2@I@Z 00446f70 f i libohNetCore:CpiService.obj
 0001:00045fb0       ?Read@?$Fifo@PAVInvoker@Net@OpenHome@@@OpenHome@@QAEPAVInvoker@Net@2@I@Z 00446fb0 f i libohNetCore:CpiService.obj
 0001:00046000       ??$forward@AAPAVArgument@Net@OpenHome@@@std@@YGAAPAVArgument@Net@OpenHome@@AAPAV123@@Z 00447000 f i libohNetCore:CpiService.obj
 0001:00046010       ??$construct@AAPAVArgument@Net@OpenHome@@@?$allocator@PAVArgument@Net@OpenHome@@@std@@QAEXPAPAVArgument@Net@OpenHome@@AAPAV234@@Z 00447010 f i libohNetCore:CpiService.obj
 0001:000460b0       ??$forward@ABQAVArgument@Net@OpenHome@@@std@@YGABQAVArgument@Net@OpenHome@@ABQAV123@@Z 004470b0 f i libohNetCore:CpiService.obj
 0001:000460c0       ??$_Ptr_cat@PAVArgument@Net@OpenHome@@PAV123@@std@@YG?AU_Scalar_ptr_iterator_tag@0@PAPAVArgument@Net@OpenHome@@0@Z 004470c0 f i libohNetCore:CpiService.obj
 0001:00046120       ??$_Move@PAPAVArgument@Net@OpenHome@@PAPAV123@@std@@YGPAPAVArgument@Net@OpenHome@@PAPAV123@00U_Scalar_ptr_iterator_tag@0@@Z 00447120 f i libohNetCore:CpiService.obj
 0001:00046170       ??$_Uninitialized_move@PAPAVArgument@Net@OpenHome@@PAPAV123@V?$allocator@PAVArgument@Net@OpenHome@@@std@@@std@@YGPAPAVArgument@Net@OpenHome@@PAPAV123@00AAV?$allocator@PAVArgument@Net@OpenHome@@@0@@Z 00447170 f i libohNetCore:CpiService.obj
 0001:000461c0       ??$_Destroy_range@V?$allocator@PAVArgument@Net@OpenHome@@@std@@@std@@YGXPAPAVArgument@Net@OpenHome@@0AAV?$allocator@PAVArgument@Net@OpenHome@@@0@U_Scalar_ptr_iterator_tag@0@@Z 004471c0 f i libohNetCore:CpiService.obj
 0001:000461d0       ??$_Construct@PAVArgument@Net@OpenHome@@ABQAV123@@std@@YGXPAPAVArgument@Net@OpenHome@@ABQAV123@@Z 004471d0 f i libohNetCore:CpiService.obj
 0001:00046280       ??$_Val_type@PAPAVArgument@Net@OpenHome@@@std@@YGPAPAVArgument@Net@OpenHome@@PAPAV123@@Z 00447280 f i libohNetCore:CpiService.obj
 0001:00046290       ??$_Uninit_move@PAVArgument@Net@OpenHome@@PAV123@PAV123@@std@@YGPAPAVArgument@Net@OpenHome@@PAPAV123@00AAV?$allocator@PAVArgument@Net@OpenHome@@@0@0U_Scalar_ptr_iterator_tag@0@@Z 00447290 f i libohNetCore:CpiService.obj
 0001:00046300       ??$_Debug_range@PAPAVArgument@Net@OpenHome@@@std@@YGXPAPAVArgument@Net@OpenHome@@0PB_WI@Z 00447300 f i libohNetCore:CpiService.obj
 0001:00046350       ??$_Debug_pointer@PAVArgument@Net@OpenHome@@@std@@YGXPAPAVArgument@Net@OpenHome@@PB_WI@Z 00447350 f i libohNetCore:CpiService.obj
 0001:00046380       ??$_Iter_cat@PAPAVArgument@Net@OpenHome@@@std@@YG?AUrandom_access_iterator_tag@0@ABQAPAVArgument@Net@OpenHome@@@Z 00447380 f i libohNetCore:CpiService.obj
 0001:000463e0       ??$_Debug_range2@PAPAVArgument@Net@OpenHome@@@std@@YGXPAPAVArgument@Net@OpenHome@@0PB_WIUrandom_access_iterator_tag@0@@Z 004473e0 f i libohNetCore:CpiService.obj
 0001:00046440       _OsCreate@0                00447440 f   libohNetCore:Os.obj
 0001:00046610       _OsDestroy@0               00447610 f   libohNetCore:Os.obj
 0001:00046720       _OsQuit@0                  00447720 f   libohNetCore:Os.obj
 0001:00046740       _OsTimeInUs@0              00447740 f   libohNetCore:Os.obj
 0001:00046820       _OsConsoleWrite@4          00447820 f   libohNetCore:Os.obj
 0001:00046860       _OsGetPlatformNameAndVersion@12 00447860 f   libohNetCore:Os.obj
 0001:00046930       _OsSemaphoreCreate@8       00447930 f   libohNetCore:Os.obj
 0001:00046970       _OsSemaphoreDestroy@4      00447970 f   libohNetCore:Os.obj
 0001:000469a0       _OsSemaphoreWait@4         004479a0 f   libohNetCore:Os.obj
 0001:000469e0       _OsSemaphoreTimedWait@8    004479e0 f   libohNetCore:Os.obj
 0001:00046a40       _OsSemaphoreClear@4        00447a40 f   libohNetCore:Os.obj
 0001:00046a90       _OsSemaphoreSignal@4       00447a90 f   libohNetCore:Os.obj
 0001:00046ae0       _OsMutexCreate@4           00447ae0 f   libohNetCore:Os.obj
 0001:00046b40       _OsMutexDestroy@4          00447b40 f   libohNetCore:Os.obj
 0001:00046b90       _OsMutexLock@4             00447b90 f   libohNetCore:Os.obj
 0001:00046c00       _OsMutexUnlock@4           00447c00 f   libohNetCore:Os.obj
 0001:00046c60       _threadEntrypoint@4        00447c60 f   libohNetCore:Os.obj
 0001:00046d60       _OsThreadCreate@20         00447d60 f   libohNetCore:Os.obj
 0001:00046e40       _OsThreadTls@0             00447e40 f   libohNetCore:Os.obj
 0001:00046e70       _OsThreadDestroy@4         00447e70 f   libohNetCore:Os.obj
 0001:00046e90       _OsThreadSupportsPriorities@0 00447e90 f   libohNetCore:Os.obj
 0001:00046ea0       _OsNetworkCreate@4         00447ea0 f   libohNetCore:Os.obj
 0001:00046fa0       _OsNetworkBind@12          00447fa0 f   libohNetCore:Os.obj
 0001:000470a0       _OsNetworkPort@8           004480a0 f   libohNetCore:Os.obj
 0001:00047170       _OsNetworkConnect@16       00448170 f   libohNetCore:Os.obj
 0001:00047400       _OsNetworkSend@12          00448400 f   libohNetCore:Os.obj
 0001:000474a0       _OsNetworkSendTo@20        004484a0 f   libohNetCore:Os.obj
 0001:00047590       _OsNetworkReceive@12       00448590 f   libohNetCore:Os.obj
 0001:00047720       _OsNetworkReceiveFrom@20   00448720 f   libohNetCore:Os.obj
 0001:00047920       _OsNetworkInterrupt@8      00448920 f   libohNetCore:Os.obj
 0001:000479b0       _OsNetworkClose@4          004489b0 f   libohNetCore:Os.obj
 0001:00047a20       _OsNetworkListen@8         00448a20 f   libohNetCore:Os.obj
 0001:00047a80       _OsNetworkAccept@4         00448a80 f   libohNetCore:Os.obj
 0001:00047c20       _OsNetworkGetHostByName@8  00448c20 f   libohNetCore:Os.obj
 0001:00047c90       _OsNetworkSocketSetSendBufBytes@8 00448c90 f   libohNetCore:Os.obj
 0001:00047cf0       _OsNetworkSocketSetRecvBufBytes@8 00448cf0 f   libohNetCore:Os.obj
 0001:00047d50       _OsNetworkSocketSetReceiveTimeout@8 00448d50 f   libohNetCore:Os.obj
 0001:00047e00       _OsNetworkTcpSetNoDelay@4  00448e00 f   libohNetCore:Os.obj
 0001:00047e90       _OsNetworkSocketSetReuseAddress@4 00448e90 f   libohNetCore:Os.obj
 0001:00047f30       _OsNetworkSocketSetMulticastTtl@8 00448f30 f   libohNetCore:Os.obj
 0001:00047f90       _OsNetworkSocketMulticastAddMembership@12 00448f90 f   libohNetCore:Os.obj
 0001:00048070       _OsNetworkSocketMulticastDropMembership@12 00449070 f   libohNetCore:Os.obj
 0001:00048110       _OsNetworkListAdapters@8   00449110 f   libohNetCore:Os.obj
 0001:00048530       _OsNetworkFreeInterfaces@4 00449530 f   libohNetCore:Os.obj
 0001:00048580       _interfaceChangeThread@4   00449580 f   libohNetCore:Os.obj
 0001:000486e0       _OsNetworkSetInterfaceChangedObserver@8 004496e0 f   libohNetCore:Os.obj
 0001:00048800       _OsNetworkSetTestInterfaceIndex@4 00449800 f   libohNetCore:Os.obj
 0001:00048840       ?hexChar@@YGDE@Z           00449840 f   libohNetCore:Printer.obj
 0001:00048880       ?RegisterOutput@Log@OpenHome@@SGXAAVFunctorMsg@2@@Z 00449880 f   libohNetCore:Printer.obj
 0001:000488b0       ?Print@Log@OpenHome@@SGHABVBrx@2@@Z 004498b0 f   libohNetCore:Printer.obj
 0001:000488d0       ?PrintHex@Log@OpenHome@@SGHABVBrx@2@@Z 004498d0 f   libohNetCore:Printer.obj
 0001:000488f0       ?Print@Log@OpenHome@@SAHPBDZZ 004498f0 f   libohNetCore:Printer.obj
 0001:00048940       ?Print@Log@OpenHome@@SGHPBDPAD@Z 00449940 f   libohNetCore:Printer.obj
 0001:00048960       ?PrintHex@Log@OpenHome@@SGHAAVFunctorMsg@2@ABVBrx@2@@Z 00449960 f   libohNetCore:Printer.obj
 0001:00048cc0       ?Print@Log@OpenHome@@SGHAAVFunctorMsg@2@ABVBrx@2@@Z 00449cc0 f   libohNetCore:Printer.obj
 0001:00048e50       ?Print@Log@OpenHome@@SGHAAVFunctorMsg@2@PBDPAD@Z 00449e50 f   libohNetCore:Printer.obj
 0001:00048fa0       ?DoPrint@Log@OpenHome@@CGHAAVFunctorMsg@2@PBE@Z 00449fa0 f   libohNetCore:Printer.obj
 0001:00048fe0       ??1?$Bws@$0EAB@@OpenHome@@UAE@XZ 00449fe0 f i libohNetCore:Printer.obj
 0001:00049010       ??0?$Bws@$0EAB@@OpenHome@@QAE@I@Z 0044a010 f i libohNetCore:Printer.obj
 0001:00049050       ?Ptr@?$Bws@$0EAB@@OpenHome@@UBEPBEXZ 0044a050 f i libohNetCore:Printer.obj
 0001:00049070       ??_G?$Bws@$0EAB@@OpenHome@@UAEPAXI@Z 0044a070 f i libohNetCore:Printer.obj
 0001:00049070       ??_E?$Bws@$0EAB@@OpenHome@@UAEPAXI@Z 0044a070 f i libohNetCore:Printer.obj
 0001:000490b0       ?Now@Time@OpenHome@@SGIXZ  0044a0b0 f   libohNetCore:Timer.obj
 0001:000490d0       ?IsBeforeOrAt@Time@OpenHome@@SG_NII@Z 0044a0d0 f   libohNetCore:Timer.obj
 0001:00049100       ?IsAfter@Time@OpenHome@@SG_NII@Z 0044a100 f   libohNetCore:Timer.obj
 0001:00049130       ?IsInPastOrNow@Time@OpenHome@@SG_NI@Z 0044a130 f   libohNetCore:Timer.obj
 0001:00049150       ?IsInFuture@Time@OpenHome@@SG_NI@Z 0044a150 f   libohNetCore:Timer.obj
 0001:00049170       ?TimeToWaitFor@Time@OpenHome@@SGHI@Z 0044a170 f   libohNetCore:Timer.obj
 0001:00049190       ??0Timer@OpenHome@@QAE@VFunctor@1@@Z 0044a190 f   libohNetCore:Timer.obj
 0001:000491e0       ?FireIn@Timer@OpenHome@@QAEXI@Z 0044a1e0 f   libohNetCore:Timer.obj
 0001:00049250       ?FireAt@Timer@OpenHome@@QAEXI@Z 0044a250 f   libohNetCore:Timer.obj
 0001:000492e0       ?Cancel@Timer@OpenHome@@QAEXXZ 0044a2e0 f   libohNetCore:Timer.obj
 0001:00049330       ?DoCancel@Timer@OpenHome@@AAEXXZ 0044a330 f   libohNetCore:Timer.obj
 0001:000493a0       ??1Timer@OpenHome@@QAE@XZ  0044a3a0 f   libohNetCore:Timer.obj
 0001:00049420       ??0TimerManager@OpenHome@@QAE@XZ 0044a420 f   libohNetCore:Timer.obj
 0001:00049610       ??1TimerManager@OpenHome@@UAE@XZ 0044a610 f   libohNetCore:Timer.obj
 0001:00049750       ?Stop@TimerManager@OpenHome@@QAEXXZ 0044a750 f   libohNetCore:Timer.obj
 0001:00049830       ?CallbackLock@TimerManager@OpenHome@@QAEXXZ 0044a830 f   libohNetCore:Timer.obj
 0001:00049860       ?CallbackUnlock@TimerManager@OpenHome@@QAEXXZ 0044a860 f   libohNetCore:Timer.obj
 0001:00049890       ?HeadChanged@TimerManager@OpenHome@@EAEXAAVQueueSortedEntry@2@@Z 0044a890 f   libohNetCore:Timer.obj
 0001:000499b0       ?Fire@TimerManager@OpenHome@@AAEXXZ 0044a9b0 f   libohNetCore:Timer.obj
 0001:00049ab0       ?Thread@TimerManager@OpenHome@@ABEPAV02@XZ 0044aab0 f   libohNetCore:Timer.obj
 0001:00049ad0       ?Compare@TimerManager@OpenHome@@EAEHAAVQueueSortedEntry@2@0@Z 0044aad0 f   libohNetCore:Timer.obj
 0001:00049b20       ?Run@TimerManager@OpenHome@@AAEXXZ 0044ab20 f   libohNetCore:Timer.obj
 0001:00049c30       ??0QueueSortedEntryTimer@OpenHome@@QAE@XZ 0044ac30 f i libohNetCore:Timer.obj
 0001:00049c60       ??_ETimerManager@OpenHome@@UAEPAXI@Z 0044ac60 f i libohNetCore:Timer.obj
 0001:00049c60       ??_GTimerManager@OpenHome@@UAEPAXI@Z 0044ac60 f i libohNetCore:Timer.obj
 0001:00049ca0       ??0?$QueueSorted@VTimer@OpenHome@@@OpenHome@@QAE@XZ 0044aca0 f i libohNetCore:Timer.obj
 0001:00049cd0       ??1?$QueueSorted@VTimer@OpenHome@@@OpenHome@@UAE@XZ 0044acd0 f i libohNetCore:Timer.obj
 0001:00049d00       ??_E?$QueueSorted@VTimer@OpenHome@@@OpenHome@@UAEPAXI@Z 0044ad00 f i libohNetCore:Timer.obj
 0001:00049d00       ??_G?$QueueSorted@VTimer@OpenHome@@@OpenHome@@UAEPAXI@Z 0044ad00 f i libohNetCore:Timer.obj
 0001:00049d40       ?Add@?$QueueSorted@VTimer@OpenHome@@@OpenHome@@QAEXAAVTimer@2@@Z 0044ad40 f i libohNetCore:Timer.obj
 0001:00049d70       ?Remove@?$QueueSorted@VTimer@OpenHome@@@OpenHome@@QAEXAAVTimer@2@@Z 0044ad70 f i libohNetCore:Timer.obj
 0001:00049da0       ?RemoveHead@?$QueueSorted@VTimer@OpenHome@@@OpenHome@@QAEAAVTimer@2@XZ 0044ada0 f i libohNetCore:Timer.obj
 0001:00049dd0       ?Entry@?$QueueSorted@VTimer@OpenHome@@@OpenHome@@IAEAAVTimer@2@AAVQueueSortedEntry@2@@Z 0044add0 f i libohNetCore:Timer.obj
 0001:00049df0       ??$MakeFunctor@VTimerManager@OpenHome@@XV12@@OpenHome@@YG?AV?$MemberTranslator@VTimerManager@OpenHome@@P812@AEXXZ@0@AAVTimerManager@0@ABQ820@AEXXZ@Z 0044adf0 f i libohNetCore:Timer.obj
 0001:00049e20       ??0?$MemberTranslator@VTimerManager@OpenHome@@P812@AEXXZ@OpenHome@@QAE@AAVTimerManager@1@ABQ821@AEXXZ@Z 0044ae20 f i libohNetCore:Timer.obj
 0001:00049e60       ?Thunk@?$MemberTranslator@VTimerManager@OpenHome@@P812@AEXXZ@OpenHome@@SGXABVFunctor@2@@Z 0044ae60 f i libohNetCore:Timer.obj
 0001:00049eb0       ??0DviDevice@Net@OpenHome@@QAE@ABVBrx@2@@Z 0044aeb0 f   libohNetCore:DviDevice.obj
 0001:00049fc0       ??0DviDevice@Net@OpenHome@@IAE@ABVBrx@2@AAVIResourceManager@12@@Z 0044afc0 f   libohNetCore:DviDevice.obj
 0001:0004a0d0       ?Construct@DviDevice@Net@OpenHome@@AAEXABVBrx@3@@Z 0044b0d0 f   libohNetCore:DviDevice.obj
 0001:0004a160       ?AddProtocol@DviDevice@Net@OpenHome@@IAEXPAVIDvProtocol@23@@Z 0044b160 f   libohNetCore:DviDevice.obj
 0001:0004a190       ??1DviDevice@Net@OpenHome@@MAE@XZ 0044b190 f   libohNetCore:DviDevice.obj
 0001:0004a330       ?Destroy@DviDevice@Net@OpenHome@@QAEXXZ 0044b330 f   libohNetCore:DviDevice.obj
 0001:0004a450       ?AddWeakRef@DviDevice@Net@OpenHome@@QAEXXZ 0044b450 f   libohNetCore:DviDevice.obj
 0001:0004a4a0       ?RemoveWeakRef@DviDevice@Net@OpenHome@@QAEXXZ 0044b4a0 f   libohNetCore:DviDevice.obj
 0001:0004a540       ?Udn@DviDevice@Net@OpenHome@@QBEABVBrx@3@XZ 0044b540 f   libohNetCore:DviDevice.obj
 0001:0004a560       ?Enabled@DviDevice@Net@OpenHome@@QBE_NXZ 0044b560 f   libohNetCore:DviDevice.obj
 0001:0004a5b0       ?SetEnabled@DviDevice@Net@OpenHome@@QAEXXZ 0044b5b0 f   libohNetCore:DviDevice.obj
 0001:0004a6c0       ?SetDisabled@DviDevice@Net@OpenHome@@QAEXVFunctor@3@@Z 0044b6c0 f   libohNetCore:DviDevice.obj
 0001:0004a710       ?GetAttribute@DviDevice@Net@OpenHome@@QBEXPBDPAPBD@Z 0044b710 f   libohNetCore:DviDevice.obj
 0001:0004a8e0       ?SetAttribute@DviDevice@Net@OpenHome@@QAEXPBD0@Z 0044b8e0 f   libohNetCore:DviDevice.obj
 0001:0004aac0       ?SetXmlExtension@DviDevice@Net@OpenHome@@QAEXPBD@Z 0044bac0 f   libohNetCore:DviDevice.obj
 0001:0004aaf0       ?XmlExtension@DviDevice@Net@OpenHome@@QBEABVBrx@3@XZ 0044baf0 f   libohNetCore:DviDevice.obj
 0001:0004ab10       ?AddService@DviDevice@Net@OpenHome@@QAEXPAVDviService@23@@Z 0044bb10 f   libohNetCore:DviDevice.obj
 0001:0004ab90       ?ServiceCount@DviDevice@Net@OpenHome@@QBEIXZ 0044bb90 f   libohNetCore:DviDevice.obj
 0001:0004abc0       ?Service@DviDevice@Net@OpenHome@@QBEAAVDviService@23@I@Z 0044bbc0 f   libohNetCore:DviDevice.obj
 0001:0004ac10       ?AddDevice@DviDevice@Net@OpenHome@@QAEXPAV123@@Z 0044bc10 f   libohNetCore:DviDevice.obj
 0001:0004ac70       ?DeviceCount@DviDevice@Net@OpenHome@@QBEIXZ 0044bc70 f   libohNetCore:DviDevice.obj
 0001:0004aca0       ?Device@DviDevice@Net@OpenHome@@QBEAAV123@I@Z 0044bca0 f   libohNetCore:DviDevice.obj
 0001:0004acf0       ?IsRoot@DviDevice@Net@OpenHome@@QBE_NXZ 0044bcf0 f   libohNetCore:DviDevice.obj
 0001:0004ad30       ?WriteResource@DviDevice@Net@OpenHome@@UAEXABVBrx@3@IAAV?$vector@PADV?$allocator@PAD@std@@@std@@AAVIResourceWriter@23@@Z 0044bd30 f   libohNetCore:DviDevice.obj
 0001:0004af30       ?GetUriBase@DviDevice@Net@OpenHome@@QAEXAAVBwh@3@IIAAVIDvProtocol@23@@Z 0044bf30 f   libohNetCore:DviDevice.obj
 0001:0004b0b0       ?ConfigId@DviDevice@Net@OpenHome@@QAEIXZ 0044c0b0 f   libohNetCore:DviDevice.obj
 0001:0004b0d0       ?CreateSid@DviDevice@Net@OpenHome@@QAEXAAVBrh@3@@Z 0044c0d0 f   libohNetCore:DviDevice.obj
 0001:0004b230       ?ResourceManager@DviDevice@Net@OpenHome@@QAEPAVIResourceManager@23@XZ 0044c230 f   libohNetCore:DviDevice.obj
 0001:0004b250       ?SetCustomData@DviDevice@Net@OpenHome@@QAEXPBD0PAX@Z 0044c250 f   libohNetCore:DviDevice.obj
 0001:0004b390       ?SetParent@DviDevice@Net@OpenHome@@AAEXPAV123@@Z 0044c390 f   libohNetCore:DviDevice.obj
 0001:0004b410       ?Root@DviDevice@Net@OpenHome@@QBEPAV123@XZ 0044c410 f   libohNetCore:DviDevice.obj
 0001:0004b450       ?SetDisabled@DviDevice@Net@OpenHome@@AAEXVFunctor@3@_N@Z 0044c450 f   libohNetCore:DviDevice.obj
 0001:0004b5e0       ?ProtocolDisabled@DviDevice@Net@OpenHome@@AAEXXZ 0044c5e0 f   libohNetCore:DviDevice.obj
 0001:0004b690       ?HasService@DviDevice@Net@OpenHome@@ABE_NABVServiceType@23@@Z 0044c690 f   libohNetCore:DviDevice.obj
 0001:0004b770       ?ChildHasService@DviDevice@Net@OpenHome@@ABE_NABVServiceType@23@@Z 0044c770 f   libohNetCore:DviDevice.obj
 0001:0004b7f0       ?ConfigChanged@DviDevice@Net@OpenHome@@AAEXXZ 0044c7f0 f   libohNetCore:DviDevice.obj
 0001:0004b830       ?SubscriptionId@DviDevice@Net@OpenHome@@AAEIXZ 0044c830 f   libohNetCore:DviDevice.obj
 0001:0004b890       ??0AttributeMap@Net@OpenHome@@QAE@XZ 0044c890 f   libohNetCore:DviDevice.obj
 0001:0004b900       ??1AttributeMap@Net@OpenHome@@QAE@XZ 0044c900 f   libohNetCore:DviDevice.obj
 0001:0004ba50       ?Get@AttributeMap@Net@OpenHome@@QBEPBDPBD@Z 0044ca50 f   libohNetCore:DviDevice.obj
 0001:0004bbe0       ?Set@AttributeMap@Net@OpenHome@@QAEXPBD0@Z 0044cbe0 f   libohNetCore:DviDevice.obj
 0001:0004be20       ??0DviDeviceStandard@Net@OpenHome@@QAE@ABVBrx@2@@Z 0044ce20 f   libohNetCore:DviDevice.obj
 0001:0004bea0       ??0DviDeviceStandard@Net@OpenHome@@QAE@ABVBrx@2@AAVIResourceManager@12@@Z 0044cea0 f   libohNetCore:DviDevice.obj
 0001:0004bf20       ?Construct@DviDeviceStandard@Net@OpenHome@@AAEXXZ 0044cf20 f   libohNetCore:DviDevice.obj
 0001:0004bfc0       ??0Attribute@AttributeMap@Net@OpenHome@@QAE@PBD0@Z 0044cfc0 f   libohNetCore:DviDevice.obj
 0001:0004c040       ?Key@Attribute@AttributeMap@Net@OpenHome@@QBE?AVBrn@4@XZ 0044d040 f   libohNetCore:DviDevice.obj
 0001:0004c110       ?Value@Attribute@AttributeMap@Net@OpenHome@@QBEPBDXZ 0044d110 f   libohNetCore:DviDevice.obj
 0001:0004c140       ?UpdateValue@Attribute@AttributeMap@Net@OpenHome@@QAEXPBD@Z 0044d140 f   libohNetCore:DviDevice.obj
 0001:0004c170       ??0DviDeviceMap@Net@OpenHome@@QAE@XZ 0044d170 f   libohNetCore:DviDevice.obj
 0001:0004c200       ??1DviDeviceMap@Net@OpenHome@@UAE@XZ 0044d200 f   libohNetCore:DviDevice.obj
 0001:0004c2b0       ?Add@DviDeviceMap@Net@OpenHome@@SGXAAVDviDevice@23@@Z 0044d2b0 f   libohNetCore:DviDevice.obj
 0001:0004c3c0       ?Remove@DviDeviceMap@Net@OpenHome@@SGXAAVDviDevice@23@@Z 0044d3c0 f   libohNetCore:DviDevice.obj
 0001:0004c520       ?Find@DviDeviceMap@Net@OpenHome@@SGPAVDviDevice@23@ABVBrx@3@@Z 0044d520 f   libohNetCore:DviDevice.obj
 0001:0004c670       ?WriteResource@DviDeviceMap@Net@OpenHome@@UAEXABVBrx@3@IAAV?$vector@PADV?$allocator@PAD@std@@@std@@AAVIResourceWriter@23@@Z 0044d670 f   libohNetCore:DviDevice.obj
 0001:0004c8a0       ??1IResourceManager@Net@OpenHome@@UAE@XZ 0044d8a0 f i libohNetCore:DviDevice.obj
 0001:0004c8c0       ??_EIResourceManager@Net@OpenHome@@UAEPAXI@Z 0044d8c0 f i libohNetCore:DviDevice.obj
 0001:0004c8c0       ??_GIResourceManager@Net@OpenHome@@UAEPAXI@Z 0044d8c0 f i libohNetCore:DviDevice.obj
 0001:0004c900       ??_EDviDevice@Net@OpenHome@@MAEPAXI@Z 0044d900 f i libohNetCore:DviDevice.obj
 0001:0004c900       ??_GDviDevice@Net@OpenHome@@MAEPAXI@Z 0044d900 f i libohNetCore:DviDevice.obj
 0001:0004c940       ??0IResourceManager@Net@OpenHome@@QAE@XZ 0044d940 f i libohNetCore:DviDevice.obj
 0001:0004c960       ??1Parser@OpenHome@@QAE@XZ 0044d960 f i libohNetCore:DviDevice.obj
 0001:0004c990       ??1?$Bws@$0BG@@OpenHome@@UAE@XZ 0044d990 f i libohNetCore:DviDevice.obj
 0001:0004c9c0       ??1?$map@VBrn@OpenHome@@PAVAttribute@AttributeMap@Net@2@VBufferCmp@2@V?$allocator@U?$pair@$$CBVBrn@OpenHome@@PAVAttribute@AttributeMap@Net@2@@std@@@std@@@std@@QAE@XZ 0044d9c0 f i libohNetCore:DviDevice.obj
 0001:0004c9f0       ??1?$_Tree_iterator@V?$_Tree_val@V?$_Tmap_traits@VBrn@OpenHome@@PAVAttribute@AttributeMap@Net@2@VBufferCmp@2@V?$allocator@U?$pair@$$CBVBrn@OpenHome@@PAVAttribute@AttributeMap@Net@2@@std@@@std@@$0A@@std@@@std@@@std@@QAE@XZ 0044d9f0 f i libohNetCore:DviDevice.obj
 0001:0004ca20       ??_GAttribute@AttributeMap@Net@OpenHome@@QAEPAXI@Z 0044da20 f i libohNetCore:DviDevice.obj
 0001:0004ca60       ??1?$_Tree_const_iterator@V?$_Tree_val@V?$_Tmap_traits@VBrn@OpenHome@@PAVAttribute@AttributeMap@Net@2@VBufferCmp@2@V?$allocator@U?$pair@$$CBVBrn@OpenHome@@PAVAttribute@AttributeMap@Net@2@@std@@@std@@$0A@@std@@@std@@@std@@QAE@XZ 0044da60 f i libohNetCore:DviDevice.obj
 0001:0004ca90       ??1Attribute@AttributeMap@Net@OpenHome@@QAE@XZ 0044da90 f i libohNetCore:DviDevice.obj
 0001:0004cb00       ??1?$_Tree_unchecked_const_iterator@V?$_Tree_val@V?$_Tmap_traits@VBrn@OpenHome@@PAVAttribute@AttributeMap@Net@2@VBufferCmp@2@V?$allocator@U?$pair@$$CBVBrn@OpenHome@@PAVAttribute@AttributeMap@Net@2@@std@@@std@@$0A@@std@@@std@@U_Iterator_base12@2@@std@@QAE@XZ 0044db00 f i libohNetCore:DviDevice.obj
 0001:0004cb30       ??1?$_Iterator012@Ubidirectional_iterator_tag@std@@U?$pair@$$CBVBrn@OpenHome@@PAVAttribute@AttributeMap@Net@2@@2@HPBU32@ABU32@U_Iterator_base12@2@@std@@QAE@XZ 0044db30 f i libohNetCore:DviDevice.obj
 0001:0004cb60       ??1?$pair@VBrn@OpenHome@@PAVAttribute@AttributeMap@Net@2@@std@@QAE@XZ 0044db60 f i libohNetCore:DviDevice.obj
 0001:0004cb90       ??1?$pair@V?$_Tree_iterator@V?$_Tree_val@V?$_Tmap_traits@VBrn@OpenHome@@PAVAttribute@AttributeMap@Net@2@VBufferCmp@2@V?$allocator@U?$pair@$$CBVBrn@OpenHome@@PAVAttribute@AttributeMap@Net@2@@std@@@std@@$0A@@std@@@std@@@std@@_N@std@@QAE@XZ 0044db90 f i libohNetCore:DviDevice.obj
 0001:0004cbc0       ??1?$_Pair_base@VBrn@OpenHome@@PAVAttribute@AttributeMap@Net@2@@std@@QAE@XZ 0044dbc0 f i libohNetCore:DviDevice.obj
 0001:0004cbf0       ??1?$_Pair_base@V?$_Tree_iterator@V?$_Tree_val@V?$_Tmap_traits@VBrn@OpenHome@@PAVAttribute@AttributeMap@Net@2@VBufferCmp@2@V?$allocator@U?$pair@$$CBVBrn@OpenHome@@PAVAttribute@AttributeMap@Net@2@@std@@@std@@$0A@@std@@@std@@@std@@_N@std@@QAE@XZ 0044dbf0 f i libohNetCore:DviDevice.obj
 0001:0004cc20       ??_EDviDeviceStandard@Net@OpenHome@@UAEPAXI@Z 0044dc20 f i libohNetCore:DviDevice.obj
 0001:0004cc20       ??_GDviDeviceStandard@Net@OpenHome@@UAEPAXI@Z 0044dc20 f i libohNetCore:DviDevice.obj
 0001:0004cc60       ??1DviDeviceStandard@Net@OpenHome@@UAE@XZ 0044dc60 f i libohNetCore:DviDevice.obj
 0001:0004cc90       ??_GDviDeviceMap@Net@OpenHome@@UAEPAXI@Z 0044dc90 f i libohNetCore:DviDevice.obj
 0001:0004cc90       ??_EDviDeviceMap@Net@OpenHome@@UAEPAXI@Z 0044dc90 f i libohNetCore:DviDevice.obj
 0001:0004ccd0       ??1?$map@VBrn@OpenHome@@PAVDviDevice@Net@2@VBufferCmp@2@V?$allocator@U?$pair@$$CBVBrn@OpenHome@@PAVDviDevice@Net@2@@std@@@std@@@std@@QAE@XZ 0044dcd0 f i libohNetCore:DviDevice.obj
 0001:0004cd00       ??1?$pair@VBrn@OpenHome@@PAVDviDevice@Net@2@@std@@QAE@XZ 0044dd00 f i libohNetCore:DviDevice.obj
 0001:0004cd30       ??1?$pair@V?$_Tree_iterator@V?$_Tree_val@V?$_Tmap_traits@VBrn@OpenHome@@PAVDviDevice@Net@2@VBufferCmp@2@V?$allocator@U?$pair@$$CBVBrn@OpenHome@@PAVDviDevice@Net@2@@std@@@std@@$0A@@std@@@std@@@std@@_N@std@@QAE@XZ 0044dd30 f i libohNetCore:DviDevice.obj
 0001:0004cd60       ??1?$_Pair_base@VBrn@OpenHome@@PAVDviDevice@Net@2@@std@@QAE@XZ 0044dd60 f i libohNetCore:DviDevice.obj
 0001:0004cd90       ??1?$_Pair_base@V?$_Tree_iterator@V?$_Tree_val@V?$_Tmap_traits@VBrn@OpenHome@@PAVDviDevice@Net@2@VBufferCmp@2@V?$allocator@U?$pair@$$CBVBrn@OpenHome@@PAVDviDevice@Net@2@@std@@@std@@$0A@@std@@@std@@@std@@_N@std@@QAE@XZ 0044dd90 f i libohNetCore:DviDevice.obj
 0001:0004cdc0       ??1?$_Tree_iterator@V?$_Tree_val@V?$_Tmap_traits@VBrn@OpenHome@@PAVDviDevice@Net@2@VBufferCmp@2@V?$allocator@U?$pair@$$CBVBrn@OpenHome@@PAVDviDevice@Net@2@@std@@@std@@$0A@@std@@@std@@@std@@QAE@XZ 0044ddc0 f i libohNetCore:DviDevice.obj
 0001:0004cdf0       ??1?$_Tree_const_iterator@V?$_Tree_val@V?$_Tmap_traits@VBrn@OpenHome@@PAVDviDevice@Net@2@VBufferCmp@2@V?$allocator@U?$pair@$$CBVBrn@OpenHome@@PAVDviDevice@Net@2@@std@@@std@@$0A@@std@@@std@@@std@@QAE@XZ 0044ddf0 f i libohNetCore:DviDevice.obj
 0001:0004ce20       ??1?$_Tree_unchecked_const_iterator@V?$_Tree_val@V?$_Tmap_traits@VBrn@OpenHome@@PAVDviDevice@Net@2@VBufferCmp@2@V?$allocator@U?$pair@$$CBVBrn@OpenHome@@PAVDviDevice@Net@2@@std@@@std@@$0A@@std@@@std@@U_Iterator_base12@2@@std@@QAE@XZ 0044de20 f i libohNetCore:DviDevice.obj
 0001:0004ce50       ??1?$_Iterator012@Ubidirectional_iterator_tag@std@@U?$pair@$$CBVBrn@OpenHome@@PAVDviDevice@Net@2@@2@HPBU32@ABU32@U_Iterator_base12@2@@std@@QAE@XZ 0044de50 f i libohNetCore:DviDevice.obj
 0001:0004ce80       ??0?$_Tree_const_iterator@V?$_Tree_val@V?$_Tmap_traits@VBrn@OpenHome@@PAVDviDevice@Net@2@VBufferCmp@2@V?$allocator@U?$pair@$$CBVBrn@OpenHome@@PAVDviDevice@Net@2@@std@@@std@@$0A@@std@@@std@@@std@@QAE@ABV01@@Z 0044de80 f i libohNetCore:DviDevice.obj
 0001:0004ceb0       ??0?$_Tree_unchecked_const_iterator@V?$_Tree_val@V?$_Tmap_traits@VBrn@OpenHome@@PAVDviDevice@Net@2@VBufferCmp@2@V?$allocator@U?$pair@$$CBVBrn@OpenHome@@PAVDviDevice@Net@2@@std@@@std@@$0A@@std@@@std@@U_Iterator_base12@2@@std@@QAE@ABV01@@Z 0044deb0 f i libohNetCore:DviDevice.obj
 0001:0004cef0       ??0?$_Iterator012@Ubidirectional_iterator_tag@std@@U?$pair@$$CBVBrn@OpenHome@@PAVDviDevice@Net@2@@2@HPBU32@ABU32@U_Iterator_base12@2@@std@@QAE@ABU01@@Z 0044def0 f i libohNetCore:DviDevice.obj
 0001:0004cf20       ??0?$vector@PAVDviService@Net@OpenHome@@V?$allocator@PAVDviService@Net@OpenHome@@@std@@@std@@QAE@XZ 0044df20 f i libohNetCore:DviDevice.obj
 0001:0004cf60       ??1?$vector@PAVDviService@Net@OpenHome@@V?$allocator@PAVDviService@Net@OpenHome@@@std@@@std@@QAE@XZ 0044df60 f i libohNetCore:DviDevice.obj
 0001:0004cfd0       ?size@?$vector@PAVDviService@Net@OpenHome@@V?$allocator@PAVDviService@Net@OpenHome@@@std@@@std@@QBEIXZ 0044dfd0 f i libohNetCore:DviDevice.obj
 0001:0004d000       ??A?$vector@PAVDviService@Net@OpenHome@@V?$allocator@PAVDviService@Net@OpenHome@@@std@@@std@@QBEABQAVDviService@Net@OpenHome@@I@Z 0044e000 f i libohNetCore:DviDevice.obj
 0001:0004d0a0       ??A?$vector@PAVDviService@Net@OpenHome@@V?$allocator@PAVDviService@Net@OpenHome@@@std@@@std@@QAEAAPAVDviService@Net@OpenHome@@I@Z 0044e0a0 f i libohNetCore:DviDevice.obj
 0001:0004d140       ?push_back@?$vector@PAVDviService@Net@OpenHome@@V?$allocator@PAVDviService@Net@OpenHome@@@std@@@std@@QAEXABQAVDviService@Net@OpenHome@@@Z 0044e140 f i libohNetCore:DviDevice.obj
 0001:0004d250       ??0?$vector@PAVDviDevice@Net@OpenHome@@V?$allocator@PAVDviDevice@Net@OpenHome@@@std@@@std@@QAE@XZ 0044e250 f i libohNetCore:DviDevice.obj
 0001:0004d290       ??1?$vector@PAVDviDevice@Net@OpenHome@@V?$allocator@PAVDviDevice@Net@OpenHome@@@std@@@std@@QAE@XZ 0044e290 f i libohNetCore:DviDevice.obj
 0001:0004d300       ?size@?$vector@PAVDviDevice@Net@OpenHome@@V?$allocator@PAVDviDevice@Net@OpenHome@@@std@@@std@@QBEIXZ 0044e300 f i libohNetCore:DviDevice.obj
 0001:0004d330       ??A?$vector@PAVDviDevice@Net@OpenHome@@V?$allocator@PAVDviDevice@Net@OpenHome@@@std@@@std@@QBEABQAVDviDevice@Net@OpenHome@@I@Z 0044e330 f i libohNetCore:DviDevice.obj
 0001:0004d3d0       ??A?$vector@PAVDviDevice@Net@OpenHome@@V?$allocator@PAVDviDevice@Net@OpenHome@@@std@@@std@@QAEAAPAVDviDevice@Net@OpenHome@@I@Z 0044e3d0 f i libohNetCore:DviDevice.obj
 0001:0004d470       ?push_back@?$vector@PAVDviDevice@Net@OpenHome@@V?$allocator@PAVDviDevice@Net@OpenHome@@@std@@@std@@QAEXABQAVDviDevice@Net@OpenHome@@@Z 0044e470 f i libohNetCore:DviDevice.obj
 0001:0004d580       ?clear@?$vector@PAVDviDevice@Net@OpenHome@@V?$allocator@PAVDviDevice@Net@OpenHome@@@std@@@std@@QAEXXZ 0044e580 f i libohNetCore:DviDevice.obj
 0001:0004d680       ??0?$vector@PAVIDvProtocol@Net@OpenHome@@V?$allocator@PAVIDvProtocol@Net@OpenHome@@@std@@@std@@QAE@XZ 0044e680 f i libohNetCore:DviDevice.obj
 0001:0004d6c0       ??1?$vector@PAVIDvProtocol@Net@OpenHome@@V?$allocator@PAVIDvProtocol@Net@OpenHome@@@std@@@std@@QAE@XZ 0044e6c0 f i libohNetCore:DviDevice.obj
 0001:0004d730       ?size@?$vector@PAVIDvProtocol@Net@OpenHome@@V?$allocator@PAVIDvProtocol@Net@OpenHome@@@std@@@std@@QBEIXZ 0044e730 f i libohNetCore:DviDevice.obj
 0001:0004d760       ??A?$vector@PAVIDvProtocol@Net@OpenHome@@V?$allocator@PAVIDvProtocol@Net@OpenHome@@@std@@@std@@QBEABQAVIDvProtocol@Net@OpenHome@@I@Z 0044e760 f i libohNetCore:DviDevice.obj
 0001:0004d800       ??A?$vector@PAVIDvProtocol@Net@OpenHome@@V?$allocator@PAVIDvProtocol@Net@OpenHome@@@std@@@std@@QAEAAPAVIDvProtocol@Net@OpenHome@@I@Z 0044e800 f i libohNetCore:DviDevice.obj
 0001:0004d8a0       ?push_back@?$vector@PAVIDvProtocol@Net@OpenHome@@V?$allocator@PAVIDvProtocol@Net@OpenHome@@@std@@@std@@QAEXABQAVIDvProtocol@Net@OpenHome@@@Z 0044e8a0 f i libohNetCore:DviDevice.obj
 0001:0004d9b0       ??0?$map@VBrn@OpenHome@@PAVAttribute@AttributeMap@Net@2@VBufferCmp@2@V?$allocator@U?$pair@$$CBVBrn@OpenHome@@PAVAttribute@AttributeMap@Net@2@@std@@@std@@@std@@QAE@XZ 0044e9b0 f i libohNetCore:DviDevice.obj
 0001:0004da00       ??1?$_Tree@V?$_Tmap_traits@VBrn@OpenHome@@PAVAttribute@AttributeMap@Net@2@VBufferCmp@2@V?$allocator@U?$pair@$$CBVBrn@OpenHome@@PAVAttribute@AttributeMap@Net@2@@std@@@std@@$0A@@std@@@std@@QAE@XZ 0044ea00 f i libohNetCore:DviDevice.obj
 0001:0004da70       ?begin@?$_Tree@V?$_Tmap_traits@VBrn@OpenHome@@PAVAttribute@AttributeMap@Net@2@VBufferCmp@2@V?$allocator@U?$pair@$$CBVBrn@OpenHome@@PAVAttribute@AttributeMap@Net@2@@std@@@std@@$0A@@std@@@std@@QAE?AV?$_Tree_iterator@V?$_Tree_val@V?$_Tmap_traits@VBrn@OpenHome@@PAVAttribute@AttributeMap@Net@2@VBufferCmp@2@V?$allocator@U?$pair@$$CBVBrn@OpenHome@@PAVAttribute@AttributeMap@Net@2@@std@@@std@@$0A@@std@@@std@@@2@XZ 0044ea70 f i libohNetCore:DviDevice.obj
 0001:0004dad0       ?end@?$_Tree@V?$_Tmap_traits@VBrn@OpenHome@@PAVAttribute@AttributeMap@Net@2@VBufferCmp@2@V?$allocator@U?$pair@$$CBVBrn@OpenHome@@PAVAttribute@AttributeMap@Net@2@@std@@@std@@$0A@@std@@@std@@QAE?AV?$_Tree_iterator@V?$_Tree_val@V?$_Tmap_traits@VBrn@OpenHome@@PAVAttribute@AttributeMap@Net@2@VBufferCmp@2@V?$allocator@U?$pair@$$CBVBrn@OpenHome@@PAVAttribute@AttributeMap@Net@2@@std@@@std@@$0A@@std@@@std@@@2@XZ 0044ead0 f i libohNetCore:DviDevice.obj
 0001:0004db20       ?end@?$_Tree@V?$_Tmap_traits@VBrn@OpenHome@@PAVAttribute@AttributeMap@Net@2@VBufferCmp@2@V?$allocator@U?$pair@$$CBVBrn@OpenHome@@PAVAttribute@AttributeMap@Net@2@@std@@@std@@$0A@@std@@@std@@QBE?AV?$_Tree_const_iterator@V?$_Tree_val@V?$_Tmap_traits@VBrn@OpenHome@@PAVAttribute@AttributeMap@Net@2@VBufferCmp@2@V?$allocator@U?$pair@$$CBVBrn@OpenHome@@PAVAttribute@AttributeMap@Net@2@@std@@@std@@$0A@@std@@@std@@@2@XZ 0044eb20 f i libohNetCore:DviDevice.obj
 0001:0004db70       ?find@?$_Tree@V?$_Tmap_traits@VBrn@OpenHome@@PAVAttribute@AttributeMap@Net@2@VBufferCmp@2@V?$allocator@U?$pair@$$CBVBrn@OpenHome@@PAVAttribute@AttributeMap@Net@2@@std@@@std@@$0A@@std@@@std@@QAE?AV?$_Tree_iterator@V?$_Tree_val@V?$_Tmap_traits@VBrn@OpenHome@@PAVAttribute@AttributeMap@Net@2@VBufferCmp@2@V?$allocator@U?$pair@$$CBVBrn@OpenHome@@PAVAttribute@AttributeMap@Net@2@@std@@@std@@$0A@@std@@@std@@@2@ABVBrn@OpenHome@@@Z 0044eb70 f i libohNetCore:DviDevice.obj
 0001:0004dd50       ?find@?$_Tree@V?$_Tmap_traits@VBrn@OpenHome@@PAVAttribute@AttributeMap@Net@2@VBufferCmp@2@V?$allocator@U?$pair@$$CBVBrn@OpenHome@@PAVAttribute@AttributeMap@Net@2@@std@@@std@@$0A@@std@@@std@@QBE?AV?$_Tree_const_iterator@V?$_Tree_val@V?$_Tmap_traits@VBrn@OpenHome@@PAVAttribute@AttributeMap@Net@2@VBufferCmp@2@V?$allocator@U?$pair@$$CBVBrn@OpenHome@@PAVAttribute@AttributeMap@Net@2@@std@@@std@@$0A@@std@@@std@@@2@ABVBrn@OpenHome@@@Z 0044ed50 f i libohNetCore:DviDevice.obj
 0001:0004df30       ??0?$map@VBrn@OpenHome@@PAVDviDevice@Net@2@VBufferCmp@2@V?$allocator@U?$pair@$$CBVBrn@OpenHome@@PAVDviDevice@Net@2@@std@@@std@@@std@@QAE@XZ 0044ef30 f i libohNetCore:DviDevice.obj
 0001:0004df80       ??1?$_Tree@V?$_Tmap_traits@VBrn@OpenHome@@PAVDviDevice@Net@2@VBufferCmp@2@V?$allocator@U?$pair@$$CBVBrn@OpenHome@@PAVDviDevice@Net@2@@std@@@std@@$0A@@std@@@std@@QAE@XZ 0044ef80 f i libohNetCore:DviDevice.obj
 0001:0004dff0       ?end@?$_Tree@V?$_Tmap_traits@VBrn@OpenHome@@PAVDviDevice@Net@2@VBufferCmp@2@V?$allocator@U?$pair@$$CBVBrn@OpenHome@@PAVDviDevice@Net@2@@std@@@std@@$0A@@std@@@std@@QAE?AV?$_Tree_iterator@V?$_Tree_val@V?$_Tmap_traits@VBrn@OpenHome@@PAVDviDevice@Net@2@VBufferCmp@2@V?$allocator@U?$pair@$$CBVBrn@OpenHome@@PAVDviDevice@Net@2@@std@@@std@@$0A@@std@@@std@@@2@XZ 0044eff0 f i libohNetCore:DviDevice.obj
 0001:0004e040       ?size@?$_Tree@V?$_Tmap_traits@VBrn@OpenHome@@PAVDviDevice@Net@2@VBufferCmp@2@V?$allocator@U?$pair@$$CBVBrn@OpenHome@@PAVDviDevice@Net@2@@std@@@std@@$0A@@std@@@std@@QBEIXZ 0044f040 f i libohNetCore:DviDevice.obj
 0001:0004e060       ?erase@?$_Tree@V?$_Tmap_traits@VBrn@OpenHome@@PAVDviDevice@Net@2@VBufferCmp@2@V?$allocator@U?$pair@$$CBVBrn@OpenHome@@PAVDviDevice@Net@2@@std@@@std@@$0A@@std@@@std@@QAE?AV?$_Tree_iterator@V?$_Tree_val@V?$_Tmap_traits@VBrn@OpenHome@@PAVDviDevice@Net@2@VBufferCmp@2@V?$allocator@U?$pair@$$CBVBrn@OpenHome@@PAVDviDevice@Net@2@@std@@@std@@$0A@@std@@@std@@@2@V?$_Tree_const_iterator@V?$_Tree_val@V?$_Tmap_traits@VBrn@OpenHome@@PAVDviDevice@Net@2@VBufferCmp@2@V?$allocator@U?$pair@$$CBVBrn@OpenHome@@PAVDviDevice@Net@2@@std@@@std@@$0A@@std@@@std@@@2@@Z 0044f060 f i libohNetCore:DviDevice.obj
 0001:0004e770       ?find@?$_Tree@V?$_Tmap_traits@VBrn@OpenHome@@PAVDviDevice@Net@2@VBufferCmp@2@V?$allocator@U?$pair@$$CBVBrn@OpenHome@@PAVDviDevice@Net@2@@std@@@std@@$0A@@std@@@std@@QAE?AV?$_Tree_iterator@V?$_Tree_val@V?$_Tmap_traits@VBrn@OpenHome@@PAVDviDevice@Net@2@VBufferCmp@2@V?$allocator@U?$pair@$$CBVBrn@OpenHome@@PAVDviDevice@Net@2@@std@@@std@@$0A@@std@@@std@@@2@ABVBrn@OpenHome@@@Z 0044f770 f i libohNetCore:DviDevice.obj
 0001:0004e950       ??C?$_Tree_iterator@V?$_Tree_val@V?$_Tmap_traits@VBrn@OpenHome@@PAVAttribute@AttributeMap@Net@2@VBufferCmp@2@V?$allocator@U?$pair@$$CBVBrn@OpenHome@@PAVAttribute@AttributeMap@Net@2@@std@@@std@@$0A@@std@@@std@@@std@@QBEPAU?$pair@$$CBVBrn@OpenHome@@PAVAttribute@AttributeMap@Net@2@@1@XZ 0044f950 f i libohNetCore:DviDevice.obj
 0001:0004e980       ??E?$_Tree_iterator@V?$_Tree_val@V?$_Tmap_traits@VBrn@OpenHome@@PAVAttribute@AttributeMap@Net@2@VBufferCmp@2@V?$allocator@U?$pair@$$CBVBrn@OpenHome@@PAVAttribute@AttributeMap@Net@2@@std@@@std@@$0A@@std@@@std@@@std@@QAE?AV01@H@Z 0044f980 f i libohNetCore:DviDevice.obj
 0001:0004ea50       ??8?$_Tree_const_iterator@V?$_Tree_val@V?$_Tmap_traits@VBrn@OpenHome@@PAVAttribute@AttributeMap@Net@2@VBufferCmp@2@V?$allocator@U?$pair@$$CBVBrn@OpenHome@@PAVAttribute@AttributeMap@Net@2@@std@@@std@@$0A@@std@@@std@@@std@@QBE_NABV01@@Z 0044fa50 f i libohNetCore:DviDevice.obj
 0001:0004eb10       ??9?$_Tree_const_iterator@V?$_Tree_val@V?$_Tmap_traits@VBrn@OpenHome@@PAVAttribute@AttributeMap@Net@2@VBufferCmp@2@V?$allocator@U?$pair@$$CBVBrn@OpenHome@@PAVAttribute@AttributeMap@Net@2@@std@@@std@@$0A@@std@@@std@@@std@@QBE_NABV01@@Z 0044fb10 f i libohNetCore:DviDevice.obj
 0001:0004eb50       ??C?$_Tree_unchecked_const_iterator@V?$_Tree_val@V?$_Tmap_traits@VBrn@OpenHome@@PAVAttribute@AttributeMap@Net@2@VBufferCmp@2@V?$allocator@U?$pair@$$CBVBrn@OpenHome@@PAVAttribute@AttributeMap@Net@2@@std@@@std@@$0A@@std@@@std@@U_Iterator_base12@2@@std@@QBEPBU?$pair@$$CBVBrn@OpenHome@@PAVAttribute@AttributeMap@Net@2@@1@XZ 0044fb50 f i libohNetCore:DviDevice.obj
 0001:0004eb80       ??C?$_Tree_iterator@V?$_Tree_val@V?$_Tmap_traits@VBrn@OpenHome@@PAVDviDevice@Net@2@VBufferCmp@2@V?$allocator@U?$pair@$$CBVBrn@OpenHome@@PAVDviDevice@Net@2@@std@@@std@@$0A@@std@@@std@@@std@@QBEPAU?$pair@$$CBVBrn@OpenHome@@PAVDviDevice@Net@2@@1@XZ 0044fb80 f i libohNetCore:DviDevice.obj
 0001:0004ebb0       ??9?$_Tree_const_iterator@V?$_Tree_val@V?$_Tmap_traits@VBrn@OpenHome@@PAVDviDevice@Net@2@VBufferCmp@2@V?$allocator@U?$pair@$$CBVBrn@OpenHome@@PAVDviDevice@Net@2@@std@@@std@@$0A@@std@@@std@@@std@@QBE_NABV01@@Z 0044fbb0 f i libohNetCore:DviDevice.obj
 0001:0004ebf0       ??1?$_Vector_iterator@V?$_Vector_val@PAVDviDevice@Net@OpenHome@@V?$allocator@PAVDviDevice@Net@OpenHome@@@std@@@std@@@std@@QAE@XZ 0044fbf0 f i libohNetCore:DviDevice.obj
 0001:0004ec20       ??0?$_Vector_const_iterator@V?$_Vector_val@PAVDviDevice@Net@OpenHome@@V?$allocator@PAVDviDevice@Net@OpenHome@@@std@@@std@@@std@@QAE@ABV01@@Z 0044fc20 f i libohNetCore:DviDevice.obj
 0001:0004ec60       ??1?$_Vector_const_iterator@V?$_Vector_val@PAVDviDevice@Net@OpenHome@@V?$allocator@PAVDviDevice@Net@OpenHome@@@std@@@std@@@std@@QAE@XZ 0044fc60 f i libohNetCore:DviDevice.obj
 0001:0004ec90       ??0?$_Tree_iterator@V?$_Tree_val@V?$_Tmap_traits@VBrn@OpenHome@@PAVAttribute@AttributeMap@Net@2@VBufferCmp@2@V?$allocator@U?$pair@$$CBVBrn@OpenHome@@PAVAttribute@AttributeMap@Net@2@@std@@@std@@$0A@@std@@@std@@@std@@QAE@ABV01@@Z 0044fc90 f i libohNetCore:DviDevice.obj
 0001:0004ecc0       ??0?$_Tree_const_iterator@V?$_Tree_val@V?$_Tmap_traits@VBrn@OpenHome@@PAVAttribute@AttributeMap@Net@2@VBufferCmp@2@V?$allocator@U?$pair@$$CBVBrn@OpenHome@@PAVAttribute@AttributeMap@Net@2@@std@@@std@@$0A@@std@@@std@@@std@@QAE@ABV01@@Z 0044fcc0 f i libohNetCore:DviDevice.obj
 0001:0004ecf0       ??0?$_Tree_iterator@V?$_Tree_val@V?$_Tmap_traits@VBrn@OpenHome@@PAVDviDevice@Net@2@VBufferCmp@2@V?$allocator@U?$pair@$$CBVBrn@OpenHome@@PAVDviDevice@Net@2@@std@@@std@@$0A@@std@@@std@@@std@@QAE@ABV01@@Z 0044fcf0 f i libohNetCore:DviDevice.obj
 0001:0004ed20       ??0?$_Iterator012@Urandom_access_iterator_tag@std@@PAVDviDevice@Net@OpenHome@@HPBQAV345@ABQAV345@U_Iterator_base12@2@@std@@QAE@ABU01@@Z 0044fd20 f i libohNetCore:DviDevice.obj
 0001:0004ed50       ??1?$_Iterator012@Urandom_access_iterator_tag@std@@PAVDviDevice@Net@OpenHome@@HPBQAV345@ABQAV345@U_Iterator_base12@2@@std@@QAE@XZ 0044fd50 f i libohNetCore:DviDevice.obj
 0001:0004ed80       ??0?$_Tree_unchecked_const_iterator@V?$_Tree_val@V?$_Tmap_traits@VBrn@OpenHome@@PAVAttribute@AttributeMap@Net@2@VBufferCmp@2@V?$allocator@U?$pair@$$CBVBrn@OpenHome@@PAVAttribute@AttributeMap@Net@2@@std@@@std@@$0A@@std@@@std@@U_Iterator_base12@2@@std@@QAE@ABV01@@Z 0044fd80 f i libohNetCore:DviDevice.obj
 0001:0004edc0       ??0?$_Iterator012@Ubidirectional_iterator_tag@std@@U?$pair@$$CBVBrn@OpenHome@@PAVAttribute@AttributeMap@Net@2@@2@HPBU32@ABU32@U_Iterator_base12@2@@std@@QAE@ABU01@@Z 0044fdc0 f i libohNetCore:DviDevice.obj
 0001:0004edf0       ?_Inside@?$vector@PAVDviService@Net@OpenHome@@V?$allocator@PAVDviService@Net@OpenHome@@@std@@@std@@IBE_NPBQAVDviService@Net@OpenHome@@@Z 0044fdf0 f i libohNetCore:DviDevice.obj
 0001:0004ee40       ?_Reserve@?$vector@PAVDviService@Net@OpenHome@@V?$allocator@PAVDviService@Net@OpenHome@@@std@@@std@@IAEXI@Z 0044fe40 f i libohNetCore:DviDevice.obj
 0001:0004eec0       ?_Tidy@?$vector@PAVDviService@Net@OpenHome@@V?$allocator@PAVDviService@Net@OpenHome@@@std@@@std@@IAEXXZ 0044fec0 f i libohNetCore:DviDevice.obj
 0001:0004ef50       ?_Orphan_range@?$vector@PAVDviService@Net@OpenHome@@V?$allocator@PAVDviService@Net@OpenHome@@@std@@@std@@IBEXPAPAVDviService@Net@OpenHome@@0@Z 0044ff50 f i libohNetCore:DviDevice.obj
 0001:0004f060       ??0?$_Vector_val@PAVDviService@Net@OpenHome@@V?$allocator@PAVDviService@Net@OpenHome@@@std@@@std@@QAE@V?$allocator@PAVDviService@Net@OpenHome@@@1@@Z 00450060 f i libohNetCore:DviDevice.obj
 0001:0004f180       ??1?$_Vector_val@PAVDviService@Net@OpenHome@@V?$allocator@PAVDviService@Net@OpenHome@@@std@@@std@@QAE@XZ 00450180 f i libohNetCore:DviDevice.obj
 0001:0004f260       ??0?$allocator@PAVDviService@Net@OpenHome@@@std@@QAE@XZ 00450260 f i libohNetCore:DviDevice.obj
 0001:0004f280       ?begin@?$vector@PAVDviDevice@Net@OpenHome@@V?$allocator@PAVDviDevice@Net@OpenHome@@@std@@@std@@QAE?AV?$_Vector_iterator@V?$_Vector_val@PAVDviDevice@Net@OpenHome@@V?$allocator@PAVDviDevice@Net@OpenHome@@@std@@@std@@@2@XZ 00450280 f i libohNetCore:DviDevice.obj
 0001:0004f2d0       ?end@?$vector@PAVDviDevice@Net@OpenHome@@V?$allocator@PAVDviDevice@Net@OpenHome@@@std@@@std@@QAE?AV?$_Vector_iterator@V?$_Vector_val@PAVDviDevice@Net@OpenHome@@V?$allocator@PAVDviDevice@Net@OpenHome@@@std@@@std@@@2@XZ 004502d0 f i libohNetCore:DviDevice.obj
 0001:0004f320       ?erase@?$vector@PAVDviDevice@Net@OpenHome@@V?$allocator@PAVDviDevice@Net@OpenHome@@@std@@@std@@QAE?AV?$_Vector_iterator@V?$_Vector_val@PAVDviDevice@Net@OpenHome@@V?$allocator@PAVDviDevice@Net@OpenHome@@@std@@@std@@@2@V?$_Vector_const_iterator@V?$_Vector_val@PAVDviDevice@Net@OpenHome@@V?$allocator@PAVDviDevice@Net@OpenHome@@@std@@@std@@@2@0@Z 00450320 f i libohNetCore:DviDevice.obj
 0001:0004f510       ?_Inside@?$vector@PAVDviDevice@Net@OpenHome@@V?$allocator@PAVDviDevice@Net@OpenHome@@@std@@@std@@IBE_NPBQAVDviDevice@Net@OpenHome@@@Z 00450510 f i libohNetCore:DviDevice.obj
 0001:0004f560       ?_Reserve@?$vector@PAVDviDevice@Net@OpenHome@@V?$allocator@PAVDviDevice@Net@OpenHome@@@std@@@std@@IAEXI@Z 00450560 f i libohNetCore:DviDevice.obj
 0001:0004f5e0       ?_Tidy@?$vector@PAVDviDevice@Net@OpenHome@@V?$allocator@PAVDviDevice@Net@OpenHome@@@std@@@std@@IAEXXZ 004505e0 f i libohNetCore:DviDevice.obj
 0001:0004f670       ?_Orphan_range@?$vector@PAVDviDevice@Net@OpenHome@@V?$allocator@PAVDviDevice@Net@OpenHome@@@std@@@std@@IBEXPAPAVDviDevice@Net@OpenHome@@0@Z 00450670 f i libohNetCore:DviDevice.obj
 0001:0004f780       ??0?$_Vector_val@PAVDviDevice@Net@OpenHome@@V?$allocator@PAVDviDevice@Net@OpenHome@@@std@@@std@@QAE@V?$allocator@PAVDviDevice@Net@OpenHome@@@1@@Z 00450780 f i libohNetCore:DviDevice.obj
 0001:0004f8a0       ??1?$_Vector_val@PAVDviDevice@Net@OpenHome@@V?$allocator@PAVDviDevice@Net@OpenHome@@@std@@@std@@QAE@XZ 004508a0 f i libohNetCore:DviDevice.obj
 0001:0004f980       ??0?$allocator@PAVDviDevice@Net@OpenHome@@@std@@QAE@XZ 00450980 f i libohNetCore:DviDevice.obj
 0001:0004f9a0       ?_Inside@?$vector@PAVIDvProtocol@Net@OpenHome@@V?$allocator@PAVIDvProtocol@Net@OpenHome@@@std@@@std@@IBE_NPBQAVIDvProtocol@Net@OpenHome@@@Z 004509a0 f i libohNetCore:DviDevice.obj
 0001:0004f9f0       ?_Reserve@?$vector@PAVIDvProtocol@Net@OpenHome@@V?$allocator@PAVIDvProtocol@Net@OpenHome@@@std@@@std@@IAEXI@Z 004509f0 f i libohNetCore:DviDevice.obj
 0001:0004fa70       ?_Tidy@?$vector@PAVIDvProtocol@Net@OpenHome@@V?$allocator@PAVIDvProtocol@Net@OpenHome@@@std@@@std@@IAEXXZ 00450a70 f i libohNetCore:DviDevice.obj
 0001:0004fb00       ?_Orphan_range@?$vector@PAVIDvProtocol@Net@OpenHome@@V?$allocator@PAVIDvProtocol@Net@OpenHome@@@std@@@std@@IBEXPAPAVIDvProtocol@Net@OpenHome@@0@Z 00450b00 f i libohNetCore:DviDevice.obj
 0001:0004fc10       ??0?$_Vector_val@PAVIDvProtocol@Net@OpenHome@@V?$allocator@PAVIDvProtocol@Net@OpenHome@@@std@@@std@@QAE@V?$allocator@PAVIDvProtocol@Net@OpenHome@@@1@@Z 00450c10 f i libohNetCore:DviDevice.obj
 0001:0004fd30       ??1?$_Vector_val@PAVIDvProtocol@Net@OpenHome@@V?$allocator@PAVIDvProtocol@Net@OpenHome@@@std@@@std@@QAE@XZ 00450d30 f i libohNetCore:DviDevice.obj
 0001:0004fe10       ??0?$allocator@PAVIDvProtocol@Net@OpenHome@@@std@@QAE@XZ 00450e10 f i libohNetCore:DviDevice.obj
 0001:0004fe30       ??0?$_Tree@V?$_Tmap_traits@VBrn@OpenHome@@PAVAttribute@AttributeMap@Net@2@VBufferCmp@2@V?$allocator@U?$pair@$$CBVBrn@OpenHome@@PAVAttribute@AttributeMap@Net@2@@std@@@std@@$0A@@std@@@std@@QAE@ABVBufferCmp@OpenHome@@ABV?$allocator@U?$pair@$$CBVBrn@OpenHome@@PAVAttribute@AttributeMap@Net@2@@std@@@1@@Z 00450e30 f i libohNetCore:DviDevice.obj
 0001:0004fe80       ?lower_bound@?$_Tree@V?$_Tmap_traits@VBrn@OpenHome@@PAVAttribute@AttributeMap@Net@2@VBufferCmp@2@V?$allocator@U?$pair@$$CBVBrn@OpenHome@@PAVAttribute@AttributeMap@Net@2@@std@@@std@@$0A@@std@@@std@@QAE?AV?$_Tree_iterator@V?$_Tree_val@V?$_Tmap_traits@VBrn@OpenHome@@PAVAttribute@AttributeMap@Net@2@VBufferCmp@2@V?$allocator@U?$pair@$$CBVBrn@OpenHome@@PAVAttribute@AttributeMap@Net@2@@std@@@std@@$0A@@std@@@std@@@2@ABVBrn@OpenHome@@@Z 00450e80 f i libohNetCore:DviDevice.obj
 0001:0004fee0       ?lower_bound@?$_Tree@V?$_Tmap_traits@VBrn@OpenHome@@PAVAttribute@AttributeMap@Net@2@VBufferCmp@2@V?$allocator@U?$pair@$$CBVBrn@OpenHome@@PAVAttribute@AttributeMap@Net@2@@std@@@std@@$0A@@std@@@std@@QBE?AV?$_Tree_const_iterator@V?$_Tree_val@V?$_Tmap_traits@VBrn@OpenHome@@PAVAttribute@AttributeMap@Net@2@VBufferCmp@2@V?$allocator@U?$pair@$$CBVBrn@OpenHome@@PAVAttribute@AttributeMap@Net@2@@std@@@std@@$0A@@std@@@std@@@2@ABVBrn@OpenHome@@@Z 00450ee0 f i libohNetCore:DviDevice.obj
 0001:0004ff40       ?_Lmost@?$_Tree@V?$_Tmap_traits@VBrn@OpenHome@@PAVAttribute@AttributeMap@Net@2@VBufferCmp@2@V?$allocator@U?$pair@$$CBVBrn@OpenHome@@PAVAttribute@AttributeMap@Net@2@@std@@@std@@$0A@@std@@@std@@IBEAAPAU_Node@?$_Tree_nod@V?$_Tmap_traits@VBrn@OpenHome@@PAVAttribute@AttributeMap@Net@2@VBufferCmp@2@V?$allocator@U?$pair@$$CBVBrn@OpenHome@@PAVAttribute@AttributeMap@Net@2@@std@@@std@@$0A@@std@@@2@XZ 00450f40 f i libohNetCore:DviDevice.obj
 0001:0004ff70       ?_Tidy@?$_Tree@V?$_Tmap_traits@VBrn@OpenHome@@PAVAttribute@AttributeMap@Net@2@VBufferCmp@2@V?$allocator@U?$pair@$$CBVBrn@OpenHome@@PAVAttribute@AttributeMap@Net@2@@std@@@std@@$0A@@std@@@std@@IAEXXZ 00450f70 f i libohNetCore:DviDevice.obj
 0001:00050070       ??1?$_Tree_val@V?$_Tmap_traits@VBrn@OpenHome@@PAVAttribute@AttributeMap@Net@2@VBufferCmp@2@V?$allocator@U?$pair@$$CBVBrn@OpenHome@@PAVAttribute@AttributeMap@Net@2@@std@@@std@@$0A@@std@@@std@@QAE@XZ 00451070 f i libohNetCore:DviDevice.obj
 0001:000500e0       ?_Key@?$_Tree_val@V?$_Tmap_traits@VBrn@OpenHome@@PAVAttribute@AttributeMap@Net@2@VBufferCmp@2@V?$allocator@U?$pair@$$CBVBrn@OpenHome@@PAVAttribute@AttributeMap@Net@2@@std@@@std@@$0A@@std@@@std@@SGAAVBrn@OpenHome@@PAU_Node@?$_Tree_nod@V?$_Tmap_traits@VBrn@OpenHome@@PAVAttribute@AttributeMap@Net@2@VBufferCmp@2@V?$allocator@U?$pair@$$CBVBrn@OpenHome@@PAVAttribute@AttributeMap@Net@2@@std@@@std@@$0A@@std@@@2@@Z 004510e0 f i libohNetCore:DviDevice.obj
 0001:00050100       ??0?$allocator@U?$pair@$$CBVBrn@OpenHome@@PAVAttribute@AttributeMap@Net@2@@std@@@std@@QAE@XZ 00451100 f i libohNetCore:DviDevice.obj
 0001:00050120       ??0?$_Tree@V?$_Tmap_traits@VBrn@OpenHome@@PAVDviDevice@Net@2@VBufferCmp@2@V?$allocator@U?$pair@$$CBVBrn@OpenHome@@PAVDviDevice@Net@2@@std@@@std@@$0A@@std@@@std@@QAE@ABVBufferCmp@OpenHome@@ABV?$allocator@U?$pair@$$CBVBrn@OpenHome@@PAVDviDevice@Net@2@@std@@@1@@Z 00451120 f i libohNetCore:DviDevice.obj
 0001:00050170       ?lower_bound@?$_Tree@V?$_Tmap_traits@VBrn@OpenHome@@PAVDviDevice@Net@2@VBufferCmp@2@V?$allocator@U?$pair@$$CBVBrn@OpenHome@@PAVDviDevice@Net@2@@std@@@std@@$0A@@std@@@std@@QAE?AV?$_Tree_iterator@V?$_Tree_val@V?$_Tmap_traits@VBrn@OpenHome@@PAVDviDevice@Net@2@VBufferCmp@2@V?$allocator@U?$pair@$$CBVBrn@OpenHome@@PAVDviDevice@Net@2@@std@@@std@@$0A@@std@@@std@@@2@ABVBrn@OpenHome@@@Z 00451170 f i libohNetCore:DviDevice.obj
 0001:000501d0       ?_Lmost@?$_Tree@V?$_Tmap_traits@VBrn@OpenHome@@PAVDviDevice@Net@2@VBufferCmp@2@V?$allocator@U?$pair@$$CBVBrn@OpenHome@@PAVDviDevice@Net@2@@std@@@std@@$0A@@std@@@std@@IBEAAPAU_Node@?$_Tree_nod@V?$_Tmap_traits@VBrn@OpenHome@@PAVDviDevice@Net@2@VBufferCmp@2@V?$allocator@U?$pair@$$CBVBrn@OpenHome@@PAVDviDevice@Net@2@@std@@@std@@$0A@@std@@@2@XZ 004511d0 f i libohNetCore:DviDevice.obj
 0001:00050200       ?_Lrotate@?$_Tree@V?$_Tmap_traits@VBrn@OpenHome@@PAVDviDevice@Net@2@VBufferCmp@2@V?$allocator@U?$pair@$$CBVBrn@OpenHome@@PAVDviDevice@Net@2@@std@@@std@@$0A@@std@@@std@@IAEXPAU_Node@?$_Tree_nod@V?$_Tmap_traits@VBrn@OpenHome@@PAVDviDevice@Net@2@VBufferCmp@2@V?$allocator@U?$pair@$$CBVBrn@OpenHome@@PAVDviDevice@Net@2@@std@@@std@@$0A@@std@@@2@@Z 00451200 f i libohNetCore:DviDevice.obj
 0001:00050320       ?_Rmost@?$_Tree@V?$_Tmap_traits@VBrn@OpenHome@@PAVDviDevice@Net@2@VBufferCmp@2@V?$allocator@U?$pair@$$CBVBrn@OpenHome@@PAVDviDevice@Net@2@@std@@@std@@$0A@@std@@@std@@IBEAAPAU_Node@?$_Tree_nod@V?$_Tmap_traits@VBrn@OpenHome@@PAVDviDevice@Net@2@VBufferCmp@2@V?$allocator@U?$pair@$$CBVBrn@OpenHome@@PAVDviDevice@Net@2@@std@@@std@@$0A@@std@@@2@XZ 00451320 f i libohNetCore:DviDevice.obj
 0001:00050350       ?_Root@?$_Tree@V?$_Tmap_traits@VBrn@OpenHome@@PAVDviDevice@Net@2@VBufferCmp@2@V?$allocator@U?$pair@$$CBVBrn@OpenHome@@PAVDviDevice@Net@2@@std@@@std@@$0A@@std@@@std@@IBEAAPAU_Node@?$_Tree_nod@V?$_Tmap_traits@VBrn@OpenHome@@PAVDviDevice@Net@2@VBufferCmp@2@V?$allocator@U?$pair@$$CBVBrn@OpenHome@@PAVDviDevice@Net@2@@std@@@std@@$0A@@std@@@2@XZ 00451350 f i libohNetCore:DviDevice.obj
 0001:00050380       ?_Rrotate@?$_Tree@V?$_Tmap_traits@VBrn@OpenHome@@PAVDviDevice@Net@2@VBufferCmp@2@V?$allocator@U?$pair@$$CBVBrn@OpenHome@@PAVDviDevice@Net@2@@std@@@std@@$0A@@std@@@std@@IAEXPAU_Node@?$_Tree_nod@V?$_Tmap_traits@VBrn@OpenHome@@PAVDviDevice@Net@2@VBufferCmp@2@V?$allocator@U?$pair@$$CBVBrn@OpenHome@@PAVDviDevice@Net@2@@std@@@std@@$0A@@std@@@2@@Z 00451380 f i libohNetCore:DviDevice.obj
 0001:000504a0       ?_Orphan_ptr@?$_Tree@V?$_Tmap_traits@VBrn@OpenHome@@PAVDviDevice@Net@2@VBufferCmp@2@V?$allocator@U?$pair@$$CBVBrn@OpenHome@@PAVDviDevice@Net@2@@std@@@std@@$0A@@std@@@std@@IBEXAAV12@PAU_Node@?$_Tree_nod@V?$_Tmap_traits@VBrn@OpenHome@@PAVDviDevice@Net@2@VBufferCmp@2@V?$allocator@U?$pair@$$CBVBrn@OpenHome@@PAVDviDevice@Net@2@@std@@@std@@$0A@@std@@@2@@Z 004514a0 f i libohNetCore:DviDevice.obj
 0001:000505b0       ?_Tidy@?$_Tree@V?$_Tmap_traits@VBrn@OpenHome@@PAVDviDevice@Net@2@VBufferCmp@2@V?$allocator@U?$pair@$$CBVBrn@OpenHome@@PAVDviDevice@Net@2@@std@@@std@@$0A@@std@@@std@@IAEXXZ 004515b0 f i libohNetCore:DviDevice.obj
 0001:000506b0       ??1?$_Tree_val@V?$_Tmap_traits@VBrn@OpenHome@@PAVDviDevice@Net@2@VBufferCmp@2@V?$allocator@U?$pair@$$CBVBrn@OpenHome@@PAVDviDevice@Net@2@@std@@@std@@$0A@@std@@@std@@QAE@XZ 004516b0 f i libohNetCore:DviDevice.obj
 0001:00050720       ?_Color@?$_Tree_val@V?$_Tmap_traits@VBrn@OpenHome@@PAVDviDevice@Net@2@VBufferCmp@2@V?$allocator@U?$pair@$$CBVBrn@OpenHome@@PAVDviDevice@Net@2@@std@@@std@@$0A@@std@@@std@@SGAADPAU_Node@?$_Tree_nod@V?$_Tmap_traits@VBrn@OpenHome@@PAVDviDevice@Net@2@VBufferCmp@2@V?$allocator@U?$pair@$$CBVBrn@OpenHome@@PAVDviDevice@Net@2@@std@@@std@@$0A@@std@@@2@@Z 00451720 f i libohNetCore:DviDevice.obj
 0001:00050730       ?_Isnil@?$_Tree_val@V?$_Tmap_traits@VBrn@OpenHome@@PAVDviDevice@Net@2@VBufferCmp@2@V?$allocator@U?$pair@$$CBVBrn@OpenHome@@PAVDviDevice@Net@2@@std@@@std@@$0A@@std@@@std@@SGAADPAU_Node@?$_Tree_nod@V?$_Tmap_traits@VBrn@OpenHome@@PAVDviDevice@Net@2@VBufferCmp@2@V?$allocator@U?$pair@$$CBVBrn@OpenHome@@PAVDviDevice@Net@2@@std@@@std@@$0A@@std@@@2@@Z 00451730 f i libohNetCore:DviDevice.obj
 0001:00050740       ?_Key@?$_Tree_val@V?$_Tmap_traits@VBrn@OpenHome@@PAVDviDevice@Net@2@VBufferCmp@2@V?$allocator@U?$pair@$$CBVBrn@OpenHome@@PAVDviDevice@Net@2@@std@@@std@@$0A@@std@@@std@@SGAAVBrn@OpenHome@@PAU_Node@?$_Tree_nod@V?$_Tmap_traits@VBrn@OpenHome@@PAVDviDevice@Net@2@VBufferCmp@2@V?$allocator@U?$pair@$$CBVBrn@OpenHome@@PAVDviDevice@Net@2@@std@@@std@@$0A@@std@@@2@@Z 00451740 f i libohNetCore:DviDevice.obj
 0001:00050760       ?_Left@?$_Tree_val@V?$_Tmap_traits@VBrn@OpenHome@@PAVDviDevice@Net@2@VBufferCmp@2@V?$allocator@U?$pair@$$CBVBrn@OpenHome@@PAVDviDevice@Net@2@@std@@@std@@$0A@@std@@@std@@SGAAPAU_Node@?$_Tree_nod@V?$_Tmap_traits@VBrn@OpenHome@@PAVDviDevice@Net@2@VBufferCmp@2@V?$allocator@U?$pair@$$CBVBrn@OpenHome@@PAVDviDevice@Net@2@@std@@@std@@$0A@@std@@@2@PAU342@@Z 00451760 f i libohNetCore:DviDevice.obj
 0001:00050770       ?_Parent@?$_Tree_val@V?$_Tmap_traits@VBrn@OpenHome@@PAVDviDevice@Net@2@VBufferCmp@2@V?$allocator@U?$pair@$$CBVBrn@OpenHome@@PAVDviDevice@Net@2@@std@@@std@@$0A@@std@@@std@@SGAAPAU_Node@?$_Tree_nod@V?$_Tmap_traits@VBrn@OpenHome@@PAVDviDevice@Net@2@VBufferCmp@2@V?$allocator@U?$pair@$$CBVBrn@OpenHome@@PAVDviDevice@Net@2@@std@@@std@@$0A@@std@@@2@PAU342@@Z 00451770 f i libohNetCore:DviDevice.obj
 0001:00050780       ?_Right@?$_Tree_val@V?$_Tmap_traits@VBrn@OpenHome@@PAVDviDevice@Net@2@VBufferCmp@2@V?$allocator@U?$pair@$$CBVBrn@OpenHome@@PAVDviDevice@Net@2@@std@@@std@@$0A@@std@@@std@@SGAAPAU_Node@?$_Tree_nod@V?$_Tmap_traits@VBrn@OpenHome@@PAVDviDevice@Net@2@VBufferCmp@2@V?$allocator@U?$pair@$$CBVBrn@OpenHome@@PAVDviDevice@Net@2@@std@@@std@@$0A@@std@@@2@PAU342@@Z 00451780 f i libohNetCore:DviDevice.obj
 0001:00050790       ?_Myval@?$_Tree_val@V?$_Tmap_traits@VBrn@OpenHome@@PAVDviDevice@Net@2@VBufferCmp@2@V?$allocator@U?$pair@$$CBVBrn@OpenHome@@PAVDviDevice@Net@2@@std@@@std@@$0A@@std@@@std@@SGAAU?$pair@$$CBVBrn@OpenHome@@PAVDviDevice@Net@2@@2@PAU_Node@?$_Tree_nod@V?$_Tmap_traits@VBrn@OpenHome@@PAVDviDevice@Net@2@VBufferCmp@2@V?$allocator@U?$pair@$$CBVBrn@OpenHome@@PAVDviDevice@Net@2@@std@@@std@@$0A@@std@@@2@@Z 00451790 f i libohNetCore:DviDevice.obj
 0001:000507a0       ?_Max@?$_Tree_val@V?$_Tmap_traits@VBrn@OpenHome@@PAVDviDevice@Net@2@VBufferCmp@2@V?$allocator@U?$pair@$$CBVBrn@OpenHome@@PAVDviDevice@Net@2@@std@@@std@@$0A@@std@@@std@@SGPAU_Node@?$_Tree_nod@V?$_Tmap_traits@VBrn@OpenHome@@PAVDviDevice@Net@2@VBufferCmp@2@V?$allocator@U?$pair@$$CBVBrn@OpenHome@@PAVDviDevice@Net@2@@std@@@std@@$0A@@std@@@2@PAU342@@Z 004517a0 f i libohNetCore:DviDevice.obj
 0001:000507e0       ?_Min@?$_Tree_val@V?$_Tmap_traits@VBrn@OpenHome@@PAVDviDevice@Net@2@VBufferCmp@2@V?$allocator@U?$pair@$$CBVBrn@OpenHome@@PAVDviDevice@Net@2@@std@@@std@@$0A@@std@@@std@@SGPAU_Node@?$_Tree_nod@V?$_Tmap_traits@VBrn@OpenHome@@PAVDviDevice@Net@2@VBufferCmp@2@V?$allocator@U?$pair@$$CBVBrn@OpenHome@@PAVDviDevice@Net@2@@std@@@std@@$0A@@std@@@2@PAU342@@Z 004517e0 f i libohNetCore:DviDevice.obj
 0001:00050820       ??0?$allocator@U?$pair@$$CBVBrn@OpenHome@@PAVDviDevice@Net@2@@std@@@std@@QAE@XZ 00451820 f i libohNetCore:DviDevice.obj
 0001:00050840       ?deallocate@?$allocator@U_Node@?$_Tree_nod@V?$_Tmap_traits@VBrn@OpenHome@@PAVDviDevice@Net@2@VBufferCmp@2@V?$allocator@U?$pair@$$CBVBrn@OpenHome@@PAVDviDevice@Net@2@@std@@@std@@$0A@@std@@@std@@@std@@QAEXPAU_Node@?$_Tree_nod@V?$_Tmap_traits@VBrn@OpenHome@@PAVDviDevice@Net@2@VBufferCmp@2@V?$allocator@U?$pair@$$CBVBrn@OpenHome@@PAVDviDevice@Net@2@@std@@@std@@$0A@@std@@@2@I@Z 00451840 f i libohNetCore:DviDevice.obj
 0001:00050870       ??0?$_Tree_iterator@V?$_Tree_val@V?$_Tmap_traits@VBrn@OpenHome@@PAVAttribute@AttributeMap@Net@2@VBufferCmp@2@V?$allocator@U?$pair@$$CBVBrn@OpenHome@@PAVAttribute@AttributeMap@Net@2@@std@@@std@@$0A@@std@@@std@@@std@@QAE@PAU_Node@?$_Tree_nod@V?$_Tmap_traits@VBrn@OpenHome@@PAVAttribute@AttributeMap@Net@2@VBufferCmp@2@V?$allocator@U?$pair@$$CBVBrn@OpenHome@@PAVAttribute@AttributeMap@Net@2@@std@@@std@@$0A@@std@@@1@PBV?$_Tree_val@V?$_Tmap_traits@VBrn@OpenHome@@PAVAttribute@AttributeMap@Net@2@VBufferCmp@2@V?$allocator@U?$pair@$$CBVBrn@OpenHome@@PAVAttribute@AttributeMap@Net@2@@std@@@std@@$0A@@std@@@1@@Z 00451870 f i libohNetCore:DviDevice.obj
 0001:000508b0       ??D?$_Tree_iterator@V?$_Tree_val@V?$_Tmap_traits@VBrn@OpenHome@@PAVAttribute@AttributeMap@Net@2@VBufferCmp@2@V?$allocator@U?$pair@$$CBVBrn@OpenHome@@PAVAttribute@AttributeMap@Net@2@@std@@@std@@$0A@@std@@@std@@@std@@QBEAAU?$pair@$$CBVBrn@OpenHome@@PAVAttribute@AttributeMap@Net@2@@1@XZ 004518b0 f i libohNetCore:DviDevice.obj
 0001:000508e0       ??E?$_Tree_iterator@V?$_Tree_val@V?$_Tmap_traits@VBrn@OpenHome@@PAVAttribute@AttributeMap@Net@2@VBufferCmp@2@V?$allocator@U?$pair@$$CBVBrn@OpenHome@@PAVAttribute@AttributeMap@Net@2@@std@@@std@@$0A@@std@@@std@@@std@@QAEAAV01@XZ 004518e0 f i libohNetCore:DviDevice.obj
 0001:00050910       ??0?$_Tree_const_iterator@V?$_Tree_val@V?$_Tmap_traits@VBrn@OpenHome@@PAVAttribute@AttributeMap@Net@2@VBufferCmp@2@V?$allocator@U?$pair@$$CBVBrn@OpenHome@@PAVAttribute@AttributeMap@Net@2@@std@@@std@@$0A@@std@@@std@@@std@@QAE@PAU_Node@?$_Tree_nod@V?$_Tmap_traits@VBrn@OpenHome@@PAVAttribute@AttributeMap@Net@2@VBufferCmp@2@V?$allocator@U?$pair@$$CBVBrn@OpenHome@@PAVAttribute@AttributeMap@Net@2@@std@@@std@@$0A@@std@@@1@PBV?$_Tree_val@V?$_Tmap_traits@VBrn@OpenHome@@PAVAttribute@AttributeMap@Net@2@VBufferCmp@2@V?$allocator@U?$pair@$$CBVBrn@OpenHome@@PAVAttribute@AttributeMap@Net@2@@std@@@std@@$0A@@std@@@1@@Z 00451910 f i libohNetCore:DviDevice.obj
 0001:00050950       ??D?$_Tree_unchecked_const_iterator@V?$_Tree_val@V?$_Tmap_traits@VBrn@OpenHome@@PAVAttribute@AttributeMap@Net@2@VBufferCmp@2@V?$allocator@U?$pair@$$CBVBrn@OpenHome@@PAVAttribute@AttributeMap@Net@2@@std@@@std@@$0A@@std@@@std@@U_Iterator_base12@2@@std@@QBEABU?$pair@$$CBVBrn@OpenHome@@PAVAttribute@AttributeMap@Net@2@@1@XZ 00451950 f i libohNetCore:DviDevice.obj
 0001:00050980       ?_Mynode@?$_Tree_unchecked_const_iterator@V?$_Tree_val@V?$_Tmap_traits@VBrn@OpenHome@@PAVAttribute@AttributeMap@Net@2@VBufferCmp@2@V?$allocator@U?$pair@$$CBVBrn@OpenHome@@PAVAttribute@AttributeMap@Net@2@@std@@@std@@$0A@@std@@@std@@U_Iterator_base12@2@@std@@QBEPAU_Node@?$_Tree_nod@V?$_Tmap_traits@VBrn@OpenHome@@PAVAttribute@AttributeMap@Net@2@VBufferCmp@2@V?$allocator@U?$pair@$$CBVBrn@OpenHome@@PAVAttribute@AttributeMap@Net@2@@std@@@std@@$0A@@std@@@2@XZ 00451980 f i libohNetCore:DviDevice.obj
 0001:000509a0       ??0?$_Tree_iterator@V?$_Tree_val@V?$_Tmap_traits@VBrn@OpenHome@@PAVDviDevice@Net@2@VBufferCmp@2@V?$allocator@U?$pair@$$CBVBrn@OpenHome@@PAVDviDevice@Net@2@@std@@@std@@$0A@@std@@@std@@@std@@QAE@PAU_Node@?$_Tree_nod@V?$_Tmap_traits@VBrn@OpenHome@@PAVDviDevice@Net@2@VBufferCmp@2@V?$allocator@U?$pair@$$CBVBrn@OpenHome@@PAVDviDevice@Net@2@@std@@@std@@$0A@@std@@@1@PBV?$_Tree_val@V?$_Tmap_traits@VBrn@OpenHome@@PAVDviDevice@Net@2@VBufferCmp@2@V?$allocator@U?$pair@$$CBVBrn@OpenHome@@PAVDviDevice@Net@2@@std@@@std@@$0A@@std@@@1@@Z 004519a0 f i libohNetCore:DviDevice.obj
 0001:000509e0       ??D?$_Tree_iterator@V?$_Tree_val@V?$_Tmap_traits@VBrn@OpenHome@@PAVDviDevice@Net@2@VBufferCmp@2@V?$allocator@U?$pair@$$CBVBrn@OpenHome@@PAVDviDevice@Net@2@@std@@@std@@$0A@@std@@@std@@@std@@QBEAAU?$pair@$$CBVBrn@OpenHome@@PAVDviDevice@Net@2@@1@XZ 004519e0 f i libohNetCore:DviDevice.obj
 0001:00050a10       ??E?$_Tree_const_iterator@V?$_Tree_val@V?$_Tmap_traits@VBrn@OpenHome@@PAVDviDevice@Net@2@VBufferCmp@2@V?$allocator@U?$pair@$$CBVBrn@OpenHome@@PAVDviDevice@Net@2@@std@@@std@@$0A@@std@@@std@@@std@@QAEAAV01@XZ 00451a10 f i libohNetCore:DviDevice.obj
 0001:00050ad0       ??8?$_Tree_const_iterator@V?$_Tree_val@V?$_Tmap_traits@VBrn@OpenHome@@PAVDviDevice@Net@2@VBufferCmp@2@V?$allocator@U?$pair@$$CBVBrn@OpenHome@@PAVDviDevice@Net@2@@std@@@std@@$0A@@std@@@std@@@std@@QBE_NABV01@@Z 00451ad0 f i libohNetCore:DviDevice.obj
 0001:00050b90       ?_Mynode@?$_Tree_unchecked_const_iterator@V?$_Tree_val@V?$_Tmap_traits@VBrn@OpenHome@@PAVDviDevice@Net@2@VBufferCmp@2@V?$allocator@U?$pair@$$CBVBrn@OpenHome@@PAVDviDevice@Net@2@@std@@@std@@$0A@@std@@@std@@U_Iterator_base12@2@@std@@QBEPAU_Node@?$_Tree_nod@V?$_Tmap_traits@VBrn@OpenHome@@PAVDviDevice@Net@2@VBufferCmp@2@V?$allocator@U?$pair@$$CBVBrn@OpenHome@@PAVDviDevice@Net@2@@std@@@std@@$0A@@std@@@2@XZ 00451b90 f i libohNetCore:DviDevice.obj
 0001:00050bb0       ??0?$_Vector_iterator@V?$_Vector_val@PAVDviDevice@Net@OpenHome@@V?$allocator@PAVDviDevice@Net@OpenHome@@@std@@@std@@@std@@QAE@ABV01@@Z 00451bb0 f i libohNetCore:DviDevice.obj
 0001:00050be0       ?reserve@?$vector@PAVDviService@Net@OpenHome@@V?$allocator@PAVDviService@Net@OpenHome@@@std@@@std@@QAEXI@Z 00451be0 f i libohNetCore:DviDevice.obj
 0001:00050d50       ?capacity@?$vector@PAVDviService@Net@OpenHome@@V?$allocator@PAVDviService@Net@OpenHome@@@std@@@std@@QBEIXZ 00451d50 f i libohNetCore:DviDevice.obj
 0001:00050d80       ?max_size@?$vector@PAVDviService@Net@OpenHome@@V?$allocator@PAVDviService@Net@OpenHome@@@std@@@std@@QBEIXZ 00451d80 f i libohNetCore:DviDevice.obj
 0001:00050db0       ?_Destroy@?$vector@PAVDviService@Net@OpenHome@@V?$allocator@PAVDviService@Net@OpenHome@@@std@@@std@@IAEXPAPAVDviService@Net@OpenHome@@0@Z 00451db0 f i libohNetCore:DviDevice.obj
 0001:00050df0       ?_Grow_to@?$vector@PAVDviService@Net@OpenHome@@V?$allocator@PAVDviService@Net@OpenHome@@@std@@@std@@IBEII@Z 00451df0 f i libohNetCore:DviDevice.obj
 0001:00050e70       ?_Xlen@?$vector@PAVDviService@Net@OpenHome@@V?$allocator@PAVDviService@Net@OpenHome@@@std@@@std@@IBEXXZ 00451e70 f i libohNetCore:DviDevice.obj
 0001:00050ea0       ??0?$allocator@PAVDviService@Net@OpenHome@@@std@@QAE@ABV01@@Z 00451ea0 f i libohNetCore:DviDevice.obj
 0001:00050ec0       ?deallocate@?$allocator@PAVDviService@Net@OpenHome@@@std@@QAEXPAPAVDviService@Net@OpenHome@@I@Z 00451ec0 f i libohNetCore:DviDevice.obj
 0001:00050ef0       ?reserve@?$vector@PAVDviDevice@Net@OpenHome@@V?$allocator@PAVDviDevice@Net@OpenHome@@@std@@@std@@QAEXI@Z 00451ef0 f i libohNetCore:DviDevice.obj
 0001:00051060       ?capacity@?$vector@PAVDviDevice@Net@OpenHome@@V?$allocator@PAVDviDevice@Net@OpenHome@@@std@@@std@@QBEIXZ 00452060 f i libohNetCore:DviDevice.obj
 0001:00051090       ?_Make_iter@?$vector@PAVDviDevice@Net@OpenHome@@V?$allocator@PAVDviDevice@Net@OpenHome@@@std@@@std@@QBE?AV?$_Vector_iterator@V?$_Vector_val@PAVDviDevice@Net@OpenHome@@V?$allocator@PAVDviDevice@Net@OpenHome@@@std@@@std@@@2@V?$_Vector_const_iterator@V?$_Vector_val@PAVDviDevice@Net@OpenHome@@V?$allocator@PAVDviDevice@Net@OpenHome@@@std@@@std@@@2@@Z 00452090 f i libohNetCore:DviDevice.obj
 0001:00051120       ?max_size@?$vector@PAVDviDevice@Net@OpenHome@@V?$allocator@PAVDviDevice@Net@OpenHome@@@std@@@std@@QBEIXZ 00452120 f i libohNetCore:DviDevice.obj
 0001:00051150       ?_Destroy@?$vector@PAVDviDevice@Net@OpenHome@@V?$allocator@PAVDviDevice@Net@OpenHome@@@std@@@std@@IAEXPAPAVDviDevice@Net@OpenHome@@0@Z 00452150 f i libohNetCore:DviDevice.obj
 0001:00051190       ?_Grow_to@?$vector@PAVDviDevice@Net@OpenHome@@V?$allocator@PAVDviDevice@Net@OpenHome@@@std@@@std@@IBEII@Z 00452190 f i libohNetCore:DviDevice.obj
 0001:00051210       ?_Xlen@?$vector@PAVDviDevice@Net@OpenHome@@V?$allocator@PAVDviDevice@Net@OpenHome@@@std@@@std@@IBEXXZ 00452210 f i libohNetCore:DviDevice.obj
 0001:00051240       ??0?$allocator@PAVDviDevice@Net@OpenHome@@@std@@QAE@ABV01@@Z 00452240 f i libohNetCore:DviDevice.obj
 0001:00051260       ?deallocate@?$allocator@PAVDviDevice@Net@OpenHome@@@std@@QAEXPAPAVDviDevice@Net@OpenHome@@I@Z 00452260 f i libohNetCore:DviDevice.obj
 0001:00051290       ?reserve@?$vector@PAVIDvProtocol@Net@OpenHome@@V?$allocator@PAVIDvProtocol@Net@OpenHome@@@std@@@std@@QAEXI@Z 00452290 f i libohNetCore:DviDevice.obj
 0001:00051400       ?capacity@?$vector@PAVIDvProtocol@Net@OpenHome@@V?$allocator@PAVIDvProtocol@Net@OpenHome@@@std@@@std@@QBEIXZ 00452400 f i libohNetCore:DviDevice.obj
 0001:00051430       ?max_size@?$vector@PAVIDvProtocol@Net@OpenHome@@V?$allocator@PAVIDvProtocol@Net@OpenHome@@@std@@@std@@QBEIXZ 00452430 f i libohNetCore:DviDevice.obj
 0001:00051460       ?_Destroy@?$vector@PAVIDvProtocol@Net@OpenHome@@V?$allocator@PAVIDvProtocol@Net@OpenHome@@@std@@@std@@IAEXPAPAVIDvProtocol@Net@OpenHome@@0@Z 00452460 f i libohNetCore:DviDevice.obj
 0001:000514a0       ?_Grow_to@?$vector@PAVIDvProtocol@Net@OpenHome@@V?$allocator@PAVIDvProtocol@Net@OpenHome@@@std@@@std@@IBEII@Z 004524a0 f i libohNetCore:DviDevice.obj
 0001:00051520       ?_Xlen@?$vector@PAVIDvProtocol@Net@OpenHome@@V?$allocator@PAVIDvProtocol@Net@OpenHome@@@std@@@std@@IBEXXZ 00452520 f i libohNetCore:DviDevice.obj
 0001:00051550       ??0?$allocator@PAVIDvProtocol@Net@OpenHome@@@std@@QAE@ABV01@@Z 00452550 f i libohNetCore:DviDevice.obj
 0001:00051570       ?deallocate@?$allocator@PAVIDvProtocol@Net@OpenHome@@@std@@QAEXPAPAVIDvProtocol@Net@OpenHome@@I@Z 00452570 f i libohNetCore:DviDevice.obj
 0001:000515a0       ?erase@?$_Tree@V?$_Tmap_traits@VBrn@OpenHome@@PAVAttribute@AttributeMap@Net@2@VBufferCmp@2@V?$allocator@U?$pair@$$CBVBrn@OpenHome@@PAVAttribute@AttributeMap@Net@2@@std@@@std@@$0A@@std@@@std@@QAE?AV?$_Tree_iterator@V?$_Tree_val@V?$_Tmap_traits@VBrn@OpenHome@@PAVAttribute@AttributeMap@Net@2@VBufferCmp@2@V?$allocator@U?$pair@$$CBVBrn@OpenHome@@PAVAttribute@AttributeMap@Net@2@@std@@@std@@$0A@@std@@@std@@@2@V?$_Tree_const_iterator@V?$_Tree_val@V?$_Tmap_traits@VBrn@OpenHome@@PAVAttribute@AttributeMap@Net@2@VBufferCmp@2@V?$allocator@U?$pair@$$CBVBrn@OpenHome@@PAVAttribute@AttributeMap@Net@2@@std@@@std@@$0A@@std@@@std@@@2@0@Z 004525a0 f i libohNetCore:DviDevice.obj
 0001:000517a0       ?_Lbound@?$_Tree@V?$_Tmap_traits@VBrn@OpenHome@@PAVAttribute@AttributeMap@Net@2@VBufferCmp@2@V?$allocator@U?$pair@$$CBVBrn@OpenHome@@PAVAttribute@AttributeMap@Net@2@@std@@@std@@$0A@@std@@@std@@IBEPAU_Node@?$_Tree_nod@V?$_Tmap_traits@VBrn@OpenHome@@PAVAttribute@AttributeMap@Net@2@VBufferCmp@2@V?$allocator@U?$pair@$$CBVBrn@OpenHome@@PAVAttribute@AttributeMap@Net@2@@std@@@std@@$0A@@std@@@2@ABVBrn@OpenHome@@@Z 004527a0 f i libohNetCore:DviDevice.obj
 0001:00051850       ?_Lbound@?$_Tree@V?$_Tmap_traits@VBrn@OpenHome@@PAVAttribute@AttributeMap@Net@2@VBufferCmp@2@V?$allocator@U?$pair@$$CBVBrn@OpenHome@@PAVAttribute@AttributeMap@Net@2@@std@@@std@@$0A@@std@@@std@@IAEPAU_Node@?$_Tree_nod@V?$_Tmap_traits@VBrn@OpenHome@@PAVAttribute@AttributeMap@Net@2@VBufferCmp@2@V?$allocator@U?$pair@$$CBVBrn@OpenHome@@PAVAttribute@AttributeMap@Net@2@@std@@@std@@$0A@@std@@@2@ABVBrn@OpenHome@@@Z 00452850 f i libohNetCore:DviDevice.obj
 0001:00051900       ??0?$_Tree_val@V?$_Tmap_traits@VBrn@OpenHome@@PAVAttribute@AttributeMap@Net@2@VBufferCmp@2@V?$allocator@U?$pair@$$CBVBrn@OpenHome@@PAVAttribute@AttributeMap@Net@2@@std@@@std@@$0A@@std@@@std@@QAE@ABVBufferCmp@OpenHome@@V?$allocator@U?$pair@$$CBVBrn@OpenHome@@PAVAttribute@AttributeMap@Net@2@@std@@@1@@Z 00452900 f i libohNetCore:DviDevice.obj
 0001:00051a00       ?_Left@?$_Tree_val@V?$_Tmap_traits@VBrn@OpenHome@@PAVAttribute@AttributeMap@Net@2@VBufferCmp@2@V?$allocator@U?$pair@$$CBVBrn@OpenHome@@PAVAttribute@AttributeMap@Net@2@@std@@@std@@$0A@@std@@@std@@SGAAPAU_Node@?$_Tree_nod@V?$_Tmap_traits@VBrn@OpenHome@@PAVAttribute@AttributeMap@Net@2@VBufferCmp@2@V?$allocator@U?$pair@$$CBVBrn@OpenHome@@PAVAttribute@AttributeMap@Net@2@@std@@@std@@$0A@@std@@@2@PAU342@@Z 00452a00 f i libohNetCore:DviDevice.obj
 0001:00051a10       ?_Myval@?$_Tree_val@V?$_Tmap_traits@VBrn@OpenHome@@PAVAttribute@AttributeMap@Net@2@VBufferCmp@2@V?$allocator@U?$pair@$$CBVBrn@OpenHome@@PAVAttribute@AttributeMap@Net@2@@std@@@std@@$0A@@std@@@std@@SGAAU?$pair@$$CBVBrn@OpenHome@@PAVAttribute@AttributeMap@Net@2@@2@PAU_Node@?$_Tree_nod@V?$_Tmap_traits@VBrn@OpenHome@@PAVAttribute@AttributeMap@Net@2@VBufferCmp@2@V?$allocator@U?$pair@$$CBVBrn@OpenHome@@PAVAttribute@AttributeMap@Net@2@@std@@@std@@$0A@@std@@@2@@Z 00452a10 f i libohNetCore:DviDevice.obj
 0001:00051a20       ??1?$_Tree_nod@V?$_Tmap_traits@VBrn@OpenHome@@PAVAttribute@AttributeMap@Net@2@VBufferCmp@2@V?$allocator@U?$pair@$$CBVBrn@OpenHome@@PAVAttribute@AttributeMap@Net@2@@std@@@std@@$0A@@std@@@std@@QAE@XZ 00452a20 f i libohNetCore:DviDevice.obj
 0001:00051b00       ??0?$allocator@U?$pair@$$CBVBrn@OpenHome@@PAVAttribute@AttributeMap@Net@2@@std@@@std@@QAE@ABV01@@Z 00452b00 f i libohNetCore:DviDevice.obj
 0001:00051b20       ?deallocate@?$allocator@U_Node@?$_Tree_nod@V?$_Tmap_traits@VBrn@OpenHome@@PAVAttribute@AttributeMap@Net@2@VBufferCmp@2@V?$allocator@U?$pair@$$CBVBrn@OpenHome@@PAVAttribute@AttributeMap@Net@2@@std@@@std@@$0A@@std@@@std@@@std@@QAEXPAU_Node@?$_Tree_nod@V?$_Tmap_traits@VBrn@OpenHome@@PAVAttribute@AttributeMap@Net@2@VBufferCmp@2@V?$allocator@U?$pair@$$CBVBrn@OpenHome@@PAVAttribute@AttributeMap@Net@2@@std@@@std@@$0A@@std@@@2@I@Z 00452b20 f i libohNetCore:DviDevice.obj
 0001:00051b50       ?begin@?$_Tree@V?$_Tmap_traits@VBrn@OpenHome@@PAVDviDevice@Net@2@VBufferCmp@2@V?$allocator@U?$pair@$$CBVBrn@OpenHome@@PAVDviDevice@Net@2@@std@@@std@@$0A@@std@@@std@@QAE?AV?$_Tree_iterator@V?$_Tree_val@V?$_Tmap_traits@VBrn@OpenHome@@PAVDviDevice@Net@2@VBufferCmp@2@V?$allocator@U?$pair@$$CBVBrn@OpenHome@@PAVDviDevice@Net@2@@std@@@std@@$0A@@std@@@std@@@2@XZ 00452b50 f i libohNetCore:DviDevice.obj
 0001:00051bb0       ?erase@?$_Tree@V?$_Tmap_traits@VBrn@OpenHome@@PAVDviDevice@Net@2@VBufferCmp@2@V?$allocator@U?$pair@$$CBVBrn@OpenHome@@PAVDviDevice@Net@2@@std@@@std@@$0A@@std@@@std@@QAE?AV?$_Tree_iterator@V?$_Tree_val@V?$_Tmap_traits@VBrn@OpenHome@@PAVDviDevice@Net@2@VBufferCmp@2@V?$allocator@U?$pair@$$CBVBrn@OpenHome@@PAVDviDevice@Net@2@@std@@@std@@$0A@@std@@@std@@@2@V?$_Tree_const_iterator@V?$_Tree_val@V?$_Tmap_traits@VBrn@OpenHome@@PAVDviDevice@Net@2@VBufferCmp@2@V?$allocator@U?$pair@$$CBVBrn@OpenHome@@PAVDviDevice@Net@2@@std@@@std@@$0A@@std@@@std@@@2@0@Z 00452bb0 f i libohNetCore:DviDevice.obj
 0001:00051db0       ?_Lbound@?$_Tree@V?$_Tmap_traits@VBrn@OpenHome@@PAVDviDevice@Net@2@VBufferCmp@2@V?$allocator@U?$pair@$$CBVBrn@OpenHome@@PAVDviDevice@Net@2@@std@@@std@@$0A@@std@@@std@@IAEPAU_Node@?$_Tree_nod@V?$_Tmap_traits@VBrn@OpenHome@@PAVDviDevice@Net@2@VBufferCmp@2@V?$allocator@U?$pair@$$CBVBrn@OpenHome@@PAVDviDevice@Net@2@@std@@@std@@$0A@@std@@@2@ABVBrn@OpenHome@@@Z 00452db0 f i libohNetCore:DviDevice.obj
 0001:00051e60       ??0?$_Tree_val@V?$_Tmap_traits@VBrn@OpenHome@@PAVDviDevice@Net@2@VBufferCmp@2@V?$allocator@U?$pair@$$CBVBrn@OpenHome@@PAVDviDevice@Net@2@@std@@@std@@$0A@@std@@@std@@QAE@ABVBufferCmp@OpenHome@@V?$allocator@U?$pair@$$CBVBrn@OpenHome@@PAVDviDevice@Net@2@@std@@@1@@Z 00452e60 f i libohNetCore:DviDevice.obj
 0001:00051f60       ??1?$_Tree_nod@V?$_Tmap_traits@VBrn@OpenHome@@PAVDviDevice@Net@2@VBufferCmp@2@V?$allocator@U?$pair@$$CBVBrn@OpenHome@@PAVDviDevice@Net@2@@std@@@std@@$0A@@std@@@std@@QAE@XZ 00452f60 f i libohNetCore:DviDevice.obj
 0001:00052040       ??0?$allocator@U?$pair@$$CBVBrn@OpenHome@@PAVDviDevice@Net@2@@std@@@std@@QAE@ABV01@@Z 00453040 f i libohNetCore:DviDevice.obj
