 TestSsdpUListen

 Timestamp is 4e1c1b8b (Tue Jul 12 11:01:47 2011)

 Preferred load address is 00400000

 Start         Length     Name                   Class
 0001:00000000 0007a8dcH .text                   CODE
 0001:0007a8e0 000054a3H .text$x                 CODE
 0001:0007fd90 000034beH .text$yc                CODE
 0001:00083250 00001431H .text$yd                CODE
 0002:00000000 000001e4H .idata$5                DATA
 0002:000001e4 00000004H .CRT$XCA                DATA
 0002:000001e8 00000004H .CRT$XCC                DATA
 0002:000001ec 00000284H .CRT$XCU                DATA
 0002:00000470 00000004H .CRT$XCZ                DATA
 0002:00000474 00000004H .CRT$XIA                DATA
 0002:00000478 00000010H .CRT$XIC                DATA
 0002:00000488 00000004H .CRT$XIY                DATA
 0002:0000048c 00000004H .CRT$XIZ                DATA
 0002:00000490 00000004H .CRT$XPA                DATA
 0002:00000494 00000008H .CRT$XPX                DATA
 0002:0000049c 00000004H .CRT$XPXA               DATA
 0002:000004a0 00000004H .CRT$XPZ                DATA
 0002:000004a4 00000004H .CRT$XTA                DATA
 0002:000004a8 00000004H .CRT$XTZ                DATA
 0002:000004b0 00013fc8H .rdata                  DATA
 0002:00014478 00000056H .rdata$debug            DATA
 0002:000144d0 000022c8H .rdata$r                DATA
 0002:000167a0 000006acH .rdata$sxdata           DATA
 0002:00016e4c 00000004H .rtc$IAA                DATA
 0002:00016e50 00000060H .rtc$IMZ                DATA
 0002:00016eb0 00000004H .rtc$IZZ                DATA
 0002:00016eb4 00000004H .rtc$TAA                DATA
 0002:00016eb8 00000060H .rtc$TMZ                DATA
 0002:00016f18 00000004H .rtc$TZZ                DATA
 0002:00016f20 00006b44H .xdata$x                DATA
 0002:0001da64 0000003cH .idata$2                DATA
 0002:0001daa0 00000014H .idata$3                DATA
 0002:0001dab4 000001e4H .idata$4                DATA
 0002:0001dc98 00000776H .idata$6                DATA
 0002:0001e410 000004a3H .edata                  DATA
 0003:00000000 00002090H .data                   DATA
 0003:000020a0 000031ccH .bss                    DATA

  Address         Publics by Value              Rva+Base       Lib:Object

 0000:00000000       __except_list              00000000     <absolute>
 0000:000001ab       ___safe_se_handler_count   000001ab     <absolute>
 0000:00000000       ___ImageBase               00400000     <linker-defined>
 0001:00000000       ?SsdpNotifyRootAlive@SsdpNotifyLogger@@UAEXABVBrx@OpenHome@@0I@Z 00401000 f   TestSsdpUListen.obj
 0001:00000060       ?SsdpNotifyUuidAlive@SsdpNotifyLogger@@UAEXABVBrx@OpenHome@@0I@Z 00401060 f   TestSsdpUListen.obj
 0001:000000c0       ?SsdpNotifyDeviceTypeAlive@SsdpNotifyLogger@@UAEXABVBrx@OpenHome@@00I0I@Z 004010c0 f   TestSsdpUListen.obj
 0001:00000150       ?SsdpNotifyServiceTypeAlive@SsdpNotifyLogger@@UAEXABVBrx@OpenHome@@00I0I@Z 00401150 f   TestSsdpUListen.obj
 0001:000001e0       ?SsdpNotifyRootByeBye@SsdpNotifyLogger@@UAEXABVBrx@OpenHome@@@Z 004011e0 f   TestSsdpUListen.obj
 0001:00000230       ?SsdpNotifyUuidByeBye@SsdpNotifyLogger@@UAEXABVBrx@OpenHome@@@Z 00401230 f   TestSsdpUListen.obj
 0001:00000280       ?SsdpNotifyDeviceTypeByeBye@SsdpNotifyLogger@@UAEXABVBrx@OpenHome@@00I@Z 00401280 f   TestSsdpUListen.obj
 0001:00000300       ?SsdpNotifyServiceTypeByeBye@SsdpNotifyLogger@@UAEXABVBrx@OpenHome@@00I@Z 00401300 f   TestSsdpUListen.obj
 0001:00000380       ?Main@Runner@TestFramework@OpenHome@@SGXHQAPADPAVInitialisationParams@Net@3@@Z 00401380 f   TestSsdpUListen.obj
 0001:00000c10       ?Bytes@Brx@OpenHome@@QBEIXZ 00401c10 f i TestSsdpUListen.obj
 0001:00000c30       ??0Brn@OpenHome@@QAE@XZ    00401c30 f i TestSsdpUListen.obj
 0001:00000c70       ??0Brx@OpenHome@@IAE@I@Z   00401c70 f i TestSsdpUListen.obj
 0001:00000ca0       ??_GBrx@OpenHome@@UAEPAXI@Z 00401ca0 f i TestSsdpUListen.obj
 0001:00000ca0       ??_EBrx@OpenHome@@UAEPAXI@Z 00401ca0 f i TestSsdpUListen.obj
 0001:00000ce0       ??1Brx@OpenHome@@UAE@XZ    00401ce0 f i TestSsdpUListen.obj
 0001:00000d00       ??_EBrn@OpenHome@@UAEPAXI@Z 00401d00 f i TestSsdpUListen.obj
 0001:00000d00       ??_GBrn@OpenHome@@UAEPAXI@Z 00401d00 f i TestSsdpUListen.obj
 0001:00000d40       ??1Brn@OpenHome@@UAE@XZ    00401d40 f i TestSsdpUListen.obj
 0001:00000d70       ??1?$Bws@$0BA@@OpenHome@@UAE@XZ 00401d70 f i TestSsdpUListen.obj
 0001:00000da0       ??1Bwx@OpenHome@@UAE@XZ    00401da0 f i TestSsdpUListen.obj
 0001:00000dd0       ??1OptionUint@TestFramework@OpenHome@@QAE@XZ 00401dd0 f i TestSsdpUListen.obj
 0001:00000e00       ??1OptionBool@TestFramework@OpenHome@@QAE@XZ 00401e00 f i TestSsdpUListen.obj
 0001:00000e30       ??1OptionString@TestFramework@OpenHome@@QAE@XZ 00401e30 f i TestSsdpUListen.obj
 0001:00000eb0       ??1Brhz@OpenHome@@UAE@XZ   00401eb0 f i TestSsdpUListen.obj
 0001:00000ee0       ??0SsdpNotifyLogger@@QAE@XZ 00401ee0 f i TestSsdpUListen.obj
 0001:00000f10       ??1SsdpNotifyLogger@@UAE@XZ 00401f10 f i TestSsdpUListen.obj
 0001:00000f40       ??1ISsdpNotifyHandler@Net@OpenHome@@UAE@XZ 00401f40 f i TestSsdpUListen.obj
 0001:00000f60       ??_GISsdpNotifyHandler@Net@OpenHome@@UAEPAXI@Z 00401f60 f i TestSsdpUListen.obj
 0001:00000f60       ??_EISsdpNotifyHandler@Net@OpenHome@@UAEPAXI@Z 00401f60 f i TestSsdpUListen.obj
 0001:00000fa0       ??_GBlocker@TestFramework@OpenHome@@QAEPAXI@Z 00401fa0 f i TestSsdpUListen.obj
 0001:00000fe0       ??_ESsdpNotifyLogger@@UAEPAXI@Z 00401fe0 f i TestSsdpUListen.obj
 0001:00000fe0       ??_GSsdpNotifyLogger@@UAEPAXI@Z 00401fe0 f i TestSsdpUListen.obj
 0001:00001020       ??0ISsdpNotifyHandler@Net@OpenHome@@QAE@XZ 00402020 f i TestSsdpUListen.obj
 0001:00001040       ?size@?$vector@PAVNetworkAdapter@OpenHome@@V?$allocator@PAVNetworkAdapter@OpenHome@@@std@@@std@@QBEIXZ 00402040 f i TestSsdpUListen.obj
 0001:00001070       ??A?$vector@PAVNetworkAdapter@OpenHome@@V?$allocator@PAVNetworkAdapter@OpenHome@@@std@@@std@@QBEABQAVNetworkAdapter@OpenHome@@I@Z 00402070 f i TestSsdpUListen.obj
 0001:00001110       ??0?$Bws@$0BA@@OpenHome@@QAE@XZ 00402110 f i TestSsdpUListen.obj
 0001:00001150       ?Ptr@?$Bws@$0BA@@OpenHome@@UBEPBEXZ 00402150 f i TestSsdpUListen.obj
 0001:00001170       ??_E?$Bws@$0BA@@OpenHome@@UAEPAXI@Z 00402170 f i TestSsdpUListen.obj
 0001:00001170       ??_G?$Bws@$0BA@@OpenHome@@UAEPAXI@Z 00402170 f i TestSsdpUListen.obj
 0001:000011b0       ?Log@TestConsole@@QAEXPBD@Z 004021b0 f   libTestFramework:TestFramework.obj
 0001:000011e0       ?AssertHandlerTest@TestFramework@OpenHome@@YGXPBDI@Z 004021e0 f   libTestFramework:TestFramework.obj
 0001:00001290       ??0Suite@TestFramework@OpenHome@@IAE@PBD@Z 00402290 f   libTestFramework:TestFramework.obj
 0001:000012d0       ??1Suite@TestFramework@OpenHome@@MAE@XZ 004022d0 f   libTestFramework:TestFramework.obj
 0001:000012f0       ?Description@Suite@TestFramework@OpenHome@@QBEPBDXZ 004022f0 f   libTestFramework:TestFramework.obj
 0001:00001310       ??0Runner@TestFramework@OpenHome@@QAE@PBD@Z 00402310 f   libTestFramework:TestFramework.obj
 0001:00001350       ??1Runner@TestFramework@OpenHome@@QAE@XZ 00402350 f   libTestFramework:TestFramework.obj
 0001:00001370       ?Add@Runner@TestFramework@OpenHome@@QAEXPAVSuite@23@@Z 00402370 f   libTestFramework:TestFramework.obj
 0001:000013f0       ?Run@Runner@TestFramework@OpenHome@@QAEXXZ 004023f0 f   libTestFramework:TestFramework.obj
 0001:000016a0       ?Fail@TestFramework@OpenHome@@YGXPBDI00@Z 004026a0 f   libTestFramework:TestFramework.obj
 0001:00001700       ?Succeed@TestFramework@OpenHome@@YGXPBDI@Z 00402700 f   libTestFramework:TestFramework.obj
 0001:00001730       ?SucceedQuietly@TestFramework@OpenHome@@YGXPBDI@Z 00402730 f   libTestFramework:TestFramework.obj
 0001:00001760       ?TimeStart@TestFramework@OpenHome@@YGIXZ 00402760 f   libTestFramework:TestFramework.obj
 0001:00001780       ?TimeStop@TestFramework@OpenHome@@YGII@Z 00402780 f   libTestFramework:TestFramework.obj
 0001:000017b0       ?Print@TestFramework@OpenHome@@YAHPBDZZ 004027b0 f   libTestFramework:TestFramework.obj
 0001:00001870       ?Print@TestFramework@OpenHome@@YGHPBDPAD@Z 00402870 f   libTestFramework:TestFramework.obj
 0001:00001920       ?Print@TestFramework@OpenHome@@YGHABVBrx@2@@Z 00402920 f   libTestFramework:TestFramework.obj
 0001:000019d0       ?PrintHex@TestFramework@OpenHome@@YGHABVBrx@2@@Z 004029d0 f   libTestFramework:TestFramework.obj
 0001:00001a80       ??0Blocker@TestFramework@OpenHome@@QAE@XZ 00402a80 f   libTestFramework:TestFramework.obj
 0001:00001b80       ??1Blocker@TestFramework@OpenHome@@QAE@XZ 00402b80 f   libTestFramework:TestFramework.obj
 0001:00001c20       ?Wait@Blocker@TestFramework@OpenHome@@QAEXI@Z 00402c20 f   libTestFramework:TestFramework.obj
 0001:00001c60       ?TimerExpired@Blocker@TestFramework@OpenHome@@AAEXXZ 00402c60 f   libTestFramework:TestFramework.obj
 0001:00001c90       ?ConsoleWrite@Os@OpenHome@@SGXPBD@Z 00402c90 f i libTestFramework:TestFramework.obj
 0001:00001cb0       ??0AssertionFailed@OpenHome@@QAE@PBDI@Z 00402cb0 f i libTestFramework:TestFramework.obj
 0001:00001cf0       ??1AssertionFailed@OpenHome@@QAE@XZ 00402cf0 f i libTestFramework:TestFramework.obj
 0001:00001d20       ??_GSuite@TestFramework@OpenHome@@MAEPAXI@Z 00402d20 f i libTestFramework:TestFramework.obj
 0001:00001d20       ??_ESuite@TestFramework@OpenHome@@MAEPAXI@Z 00402d20 f i libTestFramework:TestFramework.obj
 0001:00001d60       ?TimeInMs@Os@OpenHome@@SGIXZ 00402d60 f i libTestFramework:TestFramework.obj
 0001:00001d80       ?TimeInUs@Os@OpenHome@@SG_KXZ 00402d80 f i libTestFramework:TestFramework.obj
 0001:00001da0       ??_GTimer@OpenHome@@QAEPAXI@Z 00402da0 f i libTestFramework:TestFramework.obj
 0001:00001de0       ??$MakeFunctorMsg@VTestConsole@@V1@@OpenHome@@YG?AV?$MemberTranslatorMsg@VTestConsole@@P81@AEXPBD@Z@0@AAVTestConsole@@ABQ82@AEXPBD@Z@Z 00402de0 f i libTestFramework:TestFramework.obj
 0001:00001e10       ??$MakeFunctor@VBlocker@TestFramework@OpenHome@@XV123@@OpenHome@@YG?AV?$MemberTranslator@VBlocker@TestFramework@OpenHome@@P8123@AEXXZ@0@AAVBlocker@TestFramework@0@ABQ8230@AEXXZ@Z 00402e10 f i libTestFramework:TestFramework.obj
 0001:00001e40       ??0?$MemberTranslatorMsg@VTestConsole@@P81@AEXPBD@Z@OpenHome@@QAE@AAVTestConsole@@ABQ82@AEXPBD@Z@Z 00402e40 f i libTestFramework:TestFramework.obj
 0001:00001e80       ??0FunctorMsg@OpenHome@@IAE@P6GXABV01@PBD@ZPBX3I@Z 00402e80 f i libTestFramework:TestFramework.obj
 0001:00001ed0       ??0?$MemberTranslator@VBlocker@TestFramework@OpenHome@@P8123@AEXXZ@OpenHome@@QAE@AAVBlocker@TestFramework@1@ABQ8231@AEXXZ@Z 00402ed0 f i libTestFramework:TestFramework.obj
 0001:00001f10       ??0Functor@OpenHome@@IAE@P6GXABV01@@ZPBX2I@Z 00402f10 f i libTestFramework:TestFramework.obj
 0001:00001f60       ?Thunk@?$MemberTranslatorMsg@VTestConsole@@P81@AEXPBD@Z@OpenHome@@SGXABVFunctorMsg@2@PBD@Z 00402f60 f i libTestFramework:TestFramework.obj
 0001:00001fb0       ?Thunk@?$MemberTranslator@VBlocker@TestFramework@OpenHome@@P8123@AEXXZ@OpenHome@@SGXABVFunctor@2@@Z 00402fb0 f i libTestFramework:TestFramework.obj
 0001:00002000       ??0Option@TestFramework@OpenHome@@QAE@PBD00@Z 00403000 f   libTestFramework:OptionParser.obj
 0001:00002150       ??1Option@TestFramework@OpenHome@@QAE@XZ 00403150 f   libTestFramework:OptionParser.obj
 0001:000021c0       ?Match@Option@TestFramework@OpenHome@@QBE_NPBD@Z 004031c0 f   libTestFramework:OptionParser.obj
 0001:00002230       ?HelpText@Option@TestFramework@OpenHome@@QBEPBDXZ 00403230 f   libTestFramework:OptionParser.obj
 0001:00002250       ??0OptionString@TestFramework@OpenHome@@QAE@PBD0ABVBrx@2@0@Z 00403250 f   libTestFramework:OptionParser.obj
 0001:000022f0       ?Process@OptionString@TestFramework@OpenHome@@UAEXHQAPAD@Z 004032f0 f   libTestFramework:OptionParser.obj
 0001:00002320       ?Reset@OptionString@TestFramework@OpenHome@@UAEXXZ 00403320 f   libTestFramework:OptionParser.obj
 0001:00002350       ?ExpectedArgCount@OptionString@TestFramework@OpenHome@@UBEHXZ 00403350 f   libTestFramework:OptionParser.obj
 0001:00002370       ?Value@OptionString@TestFramework@OpenHome@@QBEABVBrx@3@XZ 00403370 f   libTestFramework:OptionParser.obj
 0001:00002390       ?CString@OptionString@TestFramework@OpenHome@@QBEPBDXZ 00403390 f   libTestFramework:OptionParser.obj
 0001:000023c0       ??0OptionInt@TestFramework@OpenHome@@QAE@PBD0H0@Z 004033c0 f   libTestFramework:OptionParser.obj
 0001:00002410       ?Process@OptionInt@TestFramework@OpenHome@@UAEXHQAPAD@Z 00403410 f   libTestFramework:OptionParser.obj
 0001:000024d0       ?Reset@OptionInt@TestFramework@OpenHome@@UAEXXZ 004034d0 f   libTestFramework:OptionParser.obj
 0001:000024f0       ?ExpectedArgCount@OptionInt@TestFramework@OpenHome@@UBEHXZ 004034f0 f   libTestFramework:OptionParser.obj
 0001:00002510       ?Value@OptionInt@TestFramework@OpenHome@@QBEHXZ 00403510 f   libTestFramework:OptionParser.obj
 0001:00002530       ??0OptionUint@TestFramework@OpenHome@@QAE@PBD0I0@Z 00403530 f   libTestFramework:OptionParser.obj
 0001:00002580       ?Process@OptionUint@TestFramework@OpenHome@@UAEXHQAPAD@Z 00403580 f   libTestFramework:OptionParser.obj
 0001:00002640       ?Reset@OptionUint@TestFramework@OpenHome@@UAEXXZ 00403640 f   libTestFramework:OptionParser.obj
 0001:00002660       ?ExpectedArgCount@OptionUint@TestFramework@OpenHome@@UBEHXZ 00403660 f   libTestFramework:OptionParser.obj
 0001:00002680       ?Value@OptionUint@TestFramework@OpenHome@@QBEIXZ 00403680 f   libTestFramework:OptionParser.obj
 0001:000026a0       ??0OptionBool@TestFramework@OpenHome@@QAE@PBD00@Z 004036a0 f   libTestFramework:OptionParser.obj
 0001:000026f0       ?Process@OptionBool@TestFramework@OpenHome@@UAEXHQAPAD@Z 004036f0 f   libTestFramework:OptionParser.obj
 0001:00002710       ?Reset@OptionBool@TestFramework@OpenHome@@UAEXXZ 00403710 f   libTestFramework:OptionParser.obj
 0001:00002730       ?ExpectedArgCount@OptionBool@TestFramework@OpenHome@@UBEHXZ 00403730 f   libTestFramework:OptionParser.obj
 0001:00002750       ?Value@OptionBool@TestFramework@OpenHome@@QBE_NXZ 00403750 f   libTestFramework:OptionParser.obj
 0001:00002770       ??0OptionParser@TestFramework@OpenHome@@QAE@XZ 00403770 f   libTestFramework:OptionParser.obj
 0001:00002820       ??1OptionParser@TestFramework@OpenHome@@QAE@XZ 00403820 f   libTestFramework:OptionParser.obj
 0001:000028c0       ?AddOption@OptionParser@TestFramework@OpenHome@@QAEXPAVOption@23@@Z 004038c0 f   libTestFramework:OptionParser.obj
 0001:000028f0       ?Parse@OptionParser@TestFramework@OpenHome@@QAE_NHQAPAD@Z 004038f0 f   libTestFramework:OptionParser.obj
 0001:00002ca0       ?HelpDisplayed@OptionParser@TestFramework@OpenHome@@QAE_NXZ 00403ca0 f   libTestFramework:OptionParser.obj
 0001:00002cd0       ?DisplayHelp@OptionParser@TestFramework@OpenHome@@QAEXXZ 00403cd0 f   libTestFramework:OptionParser.obj
 0001:00002d70       ?SetUsage@OptionParser@TestFramework@OpenHome@@QAEXPBD@Z 00403d70 f   libTestFramework:OptionParser.obj
 0001:00002e00       ?PosArgs@OptionParser@TestFramework@OpenHome@@QAEAAV?$vector@PADV?$allocator@PAD@std@@@std@@XZ 00403e00 f   libTestFramework:OptionParser.obj
 0001:00002e20       ?Find@OptionParser@TestFramework@OpenHome@@AAEPAVOption@23@PBD@Z 00403e20 f   libTestFramework:OptionParser.obj
 0001:00002eb0       ??0Brhz@OpenHome@@QAE@XZ   00403eb0 f i libTestFramework:OptionParser.obj
 0001:00002ee0       ??0Brv@OpenHome@@IAE@XZ    00403ee0 f i libTestFramework:OptionParser.obj
 0001:00002f60       ??0INonCopyable@OpenHome@@IAE@XZ 00403f60 f i libTestFramework:OptionParser.obj
 0001:00002f80       ??_EBrv@OpenHome@@UAEPAXI@Z 00403f80 f i libTestFramework:OptionParser.obj
 0001:00003000       ??_GBrhz@OpenHome@@UAEPAXI@Z 00404000 f i libTestFramework:OptionParser.obj
 0001:00003000       ??_EBrhz@OpenHome@@UAEPAXI@Z 00404000 f i libTestFramework:OptionParser.obj
 0001:00003040       ?Set@Brhz@OpenHome@@QAEXABVBrx@2@@Z 00404040 f i libTestFramework:OptionParser.obj
 0001:00003090       ?CString@Brhz@OpenHome@@QBEPBDXZ 00404090 f i libTestFramework:OptionParser.obj
 0001:000030b0       ??1?$Bws@$0L@@OpenHome@@UAE@XZ 004040b0 f i libTestFramework:OptionParser.obj
 0001:000030e0       ??1?$Bws@$09@OpenHome@@UAE@XZ 004040e0 f i libTestFramework:OptionParser.obj
 0001:00003110       ??0OptionParserError@OpenHome@@QAE@PBDI@Z 00404110 f i libTestFramework:OptionParser.obj
 0001:00003150       ??1OptionParserError@OpenHome@@QAE@XZ 00404150 f i libTestFramework:OptionParser.obj
 0001:00003180       ??0?$vector@PAVOption@TestFramework@OpenHome@@V?$allocator@PAVOption@TestFramework@OpenHome@@@std@@@std@@QAE@XZ 00404180 f i libTestFramework:OptionParser.obj
 0001:000031c0       ??1?$vector@PAVOption@TestFramework@OpenHome@@V?$allocator@PAVOption@TestFramework@OpenHome@@@std@@@std@@QAE@XZ 004041c0 f i libTestFramework:OptionParser.obj
 0001:00003230       ?size@?$vector@PAVOption@TestFramework@OpenHome@@V?$allocator@PAVOption@TestFramework@OpenHome@@@std@@@std@@QBEIXZ 00404230 f i libTestFramework:OptionParser.obj
 0001:00003260       ??A?$vector@PAVOption@TestFramework@OpenHome@@V?$allocator@PAVOption@TestFramework@OpenHome@@@std@@@std@@QAEAAPAVOption@TestFramework@OpenHome@@I@Z 00404260 f i libTestFramework:OptionParser.obj
 0001:00003300       ?push_back@?$vector@PAVOption@TestFramework@OpenHome@@V?$allocator@PAVOption@TestFramework@OpenHome@@@std@@@std@@QAEXABQAVOption@TestFramework@OpenHome@@@Z 00404300 f i libTestFramework:OptionParser.obj
 0001:00003410       ??0?$vector@PADV?$allocator@PAD@std@@@std@@QAE@XZ 00404410 f i libTestFramework:OptionParser.obj
 0001:00003450       ??1?$vector@PADV?$allocator@PAD@std@@@std@@QAE@XZ 00404450 f i libTestFramework:OptionParser.obj
 0001:000034c0       ?push_back@?$vector@PADV?$allocator@PAD@std@@@std@@QAEXABQAD@Z 004044c0 f i libTestFramework:OptionParser.obj
 0001:000035d0       ?clear@?$vector@PADV?$allocator@PAD@std@@@std@@QAEXXZ 004045d0 f i libTestFramework:OptionParser.obj
 0001:000036d0       ??1?$_Vector_iterator@V?$_Vector_val@PADV?$allocator@PAD@std@@@std@@@std@@QAE@XZ 004046d0 f i libTestFramework:OptionParser.obj
 0001:00003700       ??0?$_Vector_const_iterator@V?$_Vector_val@PADV?$allocator@PAD@std@@@std@@@std@@QAE@ABV01@@Z 00404700 f i libTestFramework:OptionParser.obj
 0001:00003740       ??1?$_Vector_const_iterator@V?$_Vector_val@PADV?$allocator@PAD@std@@@std@@@std@@QAE@XZ 00404740 f i libTestFramework:OptionParser.obj
 0001:00003770       ??0?$_Iterator012@Urandom_access_iterator_tag@std@@PADHPBQADABQADU_Iterator_base12@2@@std@@QAE@ABU01@@Z 00404770 f i libTestFramework:OptionParser.obj
 0001:000037a0       ??0_Iterator_base12@std@@QAE@ABU01@@Z 004047a0 f i libTestFramework:OptionParser.obj
 0001:000037e0       ??4_Iterator_base12@std@@QAEAAU01@ABU01@@Z 004047e0 f i libTestFramework:OptionParser.obj
 0001:00003820       ?_Adopt@_Iterator_base12@std@@QAEXPBU_Container_base12@2@@Z 00404820 f i libTestFramework:OptionParser.obj
 0001:00003910       ?_Orphan_me@_Iterator_base12@std@@QAEXXZ 00404910 f i libTestFramework:OptionParser.obj
 0001:000039a0       ??1?$_Iterator012@Urandom_access_iterator_tag@std@@PADHPBQADABQADU_Iterator_base12@2@@std@@QAE@XZ 004049a0 f i libTestFramework:OptionParser.obj
 0001:000039d0       ??1_Iterator_base12@std@@QAE@XZ 004049d0 f i libTestFramework:OptionParser.obj
 0001:00003a80       ?_Inside@?$vector@PAVOption@TestFramework@OpenHome@@V?$allocator@PAVOption@TestFramework@OpenHome@@@std@@@std@@IBE_NPBQAVOption@TestFramework@OpenHome@@@Z 00404a80 f i libTestFramework:OptionParser.obj
 0001:00003ad0       ?_Reserve@?$vector@PAVOption@TestFramework@OpenHome@@V?$allocator@PAVOption@TestFramework@OpenHome@@@std@@@std@@IAEXI@Z 00404ad0 f i libTestFramework:OptionParser.obj
 0001:00003b50       ?_Tidy@?$vector@PAVOption@TestFramework@OpenHome@@V?$allocator@PAVOption@TestFramework@OpenHome@@@std@@@std@@IAEXXZ 00404b50 f i libTestFramework:OptionParser.obj
 0001:00003be0       ?_Orphan_all@_Container_base12@std@@QAEXXZ 00404be0 f i libTestFramework:OptionParser.obj
 0001:00003c90       ?_Orphan_range@?$vector@PAVOption@TestFramework@OpenHome@@V?$allocator@PAVOption@TestFramework@OpenHome@@@std@@@std@@IBEXPAPAVOption@TestFramework@OpenHome@@0@Z 00404c90 f i libTestFramework:OptionParser.obj
 0001:00003da0       ?_Getpfirst@_Container_base12@std@@QBEPAPAU_Iterator_base12@2@XZ 00404da0 f i libTestFramework:OptionParser.obj
 0001:00003de0       ?_Clrcont@_Iterator_base12@std@@QAEXXZ 00404de0 f i libTestFramework:OptionParser.obj
 0001:00003e00       ?_Getpnext@_Iterator_base12@std@@QAEPAPAU12@XZ 00404e00 f i libTestFramework:OptionParser.obj
 0001:00003e20       ??0?$_Vector_val@PAVOption@TestFramework@OpenHome@@V?$allocator@PAVOption@TestFramework@OpenHome@@@std@@@std@@QAE@V?$allocator@PAVOption@TestFramework@OpenHome@@@1@@Z 00404e20 f i libTestFramework:OptionParser.obj
 0001:00003f40       ??0_Container_proxy@std@@QAE@XZ 00404f40 f i libTestFramework:OptionParser.obj
 0001:00003f70       ??0_Container_base12@std@@QAE@XZ 00404f70 f i libTestFramework:OptionParser.obj
 0001:00003f90       ??1_Container_base12@std@@QAE@XZ 00404f90 f i libTestFramework:OptionParser.obj
 0001:00003fc0       ??1?$_Vector_val@PAVOption@TestFramework@OpenHome@@V?$allocator@PAVOption@TestFramework@OpenHome@@@std@@@std@@QAE@XZ 00404fc0 f i libTestFramework:OptionParser.obj
 0001:000040a0       ??0?$allocator@PAVOption@TestFramework@OpenHome@@@std@@QAE@XZ 004050a0 f i libTestFramework:OptionParser.obj
 0001:000040c0       ?begin@?$vector@PADV?$allocator@PAD@std@@@std@@QAE?AV?$_Vector_iterator@V?$_Vector_val@PADV?$allocator@PAD@std@@@std@@@2@XZ 004050c0 f i libTestFramework:OptionParser.obj
 0001:00004110       ?end@?$vector@PADV?$allocator@PAD@std@@@std@@QAE?AV?$_Vector_iterator@V?$_Vector_val@PADV?$allocator@PAD@std@@@std@@@2@XZ 00405110 f i libTestFramework:OptionParser.obj
 0001:00004160       ?erase@?$vector@PADV?$allocator@PAD@std@@@std@@QAE?AV?$_Vector_iterator@V?$_Vector_val@PADV?$allocator@PAD@std@@@std@@@2@V?$_Vector_const_iterator@V?$_Vector_val@PADV?$allocator@PAD@std@@@std@@@2@0@Z 00405160 f i libTestFramework:OptionParser.obj
 0001:00004350       ?_Getcont@_Iterator_base12@std@@QBEPBU_Container_base12@2@XZ 00405350 f i libTestFramework:OptionParser.obj
 0001:00004390       ?_Inside@?$vector@PADV?$allocator@PAD@std@@@std@@IBE_NPBQAD@Z 00405390 f i libTestFramework:OptionParser.obj
 0001:000043e0       ?_Reserve@?$vector@PADV?$allocator@PAD@std@@@std@@IAEXI@Z 004053e0 f i libTestFramework:OptionParser.obj
 0001:00004460       ?_Tidy@?$vector@PADV?$allocator@PAD@std@@@std@@IAEXXZ 00405460 f i libTestFramework:OptionParser.obj
 0001:000044f0       ?_Orphan_range@?$vector@PADV?$allocator@PAD@std@@@std@@IBEXPAPAD0@Z 004054f0 f i libTestFramework:OptionParser.obj
 0001:00004600       ??0?$_Vector_val@PADV?$allocator@PAD@std@@@std@@QAE@V?$allocator@PAD@1@@Z 00405600 f i libTestFramework:OptionParser.obj
 0001:00004720       ??1?$_Vector_val@PADV?$allocator@PAD@std@@@std@@QAE@XZ 00405720 f i libTestFramework:OptionParser.obj
 0001:00004800       ??0?$allocator@PAD@std@@QAE@XZ 00405800 f i libTestFramework:OptionParser.obj
 0001:00004820       ??0?$_Vector_iterator@V?$_Vector_val@PADV?$allocator@PAD@std@@@std@@@std@@QAE@ABV01@@Z 00405820 f i libTestFramework:OptionParser.obj
 0001:00004850       ?reserve@?$vector@PAVOption@TestFramework@OpenHome@@V?$allocator@PAVOption@TestFramework@OpenHome@@@std@@@std@@QAEXI@Z 00405850 f i libTestFramework:OptionParser.obj
 0001:000049c0       ?capacity@?$vector@PAVOption@TestFramework@OpenHome@@V?$allocator@PAVOption@TestFramework@OpenHome@@@std@@@std@@QBEIXZ 004059c0 f i libTestFramework:OptionParser.obj
 0001:000049f0       ?max_size@?$vector@PAVOption@TestFramework@OpenHome@@V?$allocator@PAVOption@TestFramework@OpenHome@@@std@@@std@@QBEIXZ 004059f0 f i libTestFramework:OptionParser.obj
 0001:00004a20       ?_Destroy@?$vector@PAVOption@TestFramework@OpenHome@@V?$allocator@PAVOption@TestFramework@OpenHome@@@std@@@std@@IAEXPAPAVOption@TestFramework@OpenHome@@0@Z 00405a20 f i libTestFramework:OptionParser.obj
 0001:00004a60       ?_Grow_to@?$vector@PAVOption@TestFramework@OpenHome@@V?$allocator@PAVOption@TestFramework@OpenHome@@@std@@@std@@IBEII@Z 00405a60 f i libTestFramework:OptionParser.obj
 0001:00004ae0       ?_Xlen@?$vector@PAVOption@TestFramework@OpenHome@@V?$allocator@PAVOption@TestFramework@OpenHome@@@std@@@std@@IBEXXZ 00405ae0 f i libTestFramework:OptionParser.obj
 0001:00004b10       ??0?$allocator@PAVOption@TestFramework@OpenHome@@@std@@QAE@ABV01@@Z 00405b10 f i libTestFramework:OptionParser.obj
 0001:00004b30       ?deallocate@?$allocator@PAVOption@TestFramework@OpenHome@@@std@@QAEXPAPAVOption@TestFramework@OpenHome@@I@Z 00405b30 f i libTestFramework:OptionParser.obj
 0001:00004b60       ?reserve@?$vector@PADV?$allocator@PAD@std@@@std@@QAEXI@Z 00405b60 f i libTestFramework:OptionParser.obj
 0001:00004cd0       ?capacity@?$vector@PADV?$allocator@PAD@std@@@std@@QBEIXZ 00405cd0 f i libTestFramework:OptionParser.obj
 0001:00004d00       ?_Make_iter@?$vector@PADV?$allocator@PAD@std@@@std@@QBE?AV?$_Vector_iterator@V?$_Vector_val@PADV?$allocator@PAD@std@@@std@@@2@V?$_Vector_const_iterator@V?$_Vector_val@PADV?$allocator@PAD@std@@@std@@@2@@Z 00405d00 f i libTestFramework:OptionParser.obj
 0001:00004d90       ?size@?$vector@PADV?$allocator@PAD@std@@@std@@QBEIXZ 00405d90 f i libTestFramework:OptionParser.obj
 0001:00004dc0       ?max_size@?$vector@PADV?$allocator@PAD@std@@@std@@QBEIXZ 00405dc0 f i libTestFramework:OptionParser.obj
 0001:00004df0       ?_Destroy@?$vector@PADV?$allocator@PAD@std@@@std@@IAEXPAPAD0@Z 00405df0 f i libTestFramework:OptionParser.obj
 0001:00004e30       ?_Grow_to@?$vector@PADV?$allocator@PAD@std@@@std@@IBEII@Z 00405e30 f i libTestFramework:OptionParser.obj
 0001:00004eb0       ?_Xlen@?$vector@PADV?$allocator@PAD@std@@@std@@IBEXXZ 00405eb0 f i libTestFramework:OptionParser.obj
 0001:00004ee0       ??0?$allocator@PAD@std@@QAE@ABV01@@Z 00405ee0 f i libTestFramework:OptionParser.obj
 0001:00004f00       ?deallocate@?$allocator@PAD@std@@QAEXPAPADI@Z 00405f00 f i libTestFramework:OptionParser.obj
 0001:00004f30       ??0?$_Vector_iterator@V?$_Vector_val@PADV?$allocator@PAD@std@@@std@@@std@@QAE@PAPADPBU_Container_base12@1@@Z 00405f30 f i libTestFramework:OptionParser.obj
 0001:00004f70       ??9?$_Vector_const_iterator@V?$_Vector_val@PADV?$allocator@PAD@std@@@std@@@std@@QBE_NABV01@@Z 00405f70 f i libTestFramework:OptionParser.obj
 0001:00004fb0       ??M?$_Vector_const_iterator@V?$_Vector_val@PADV?$allocator@PAD@std@@@std@@@std@@QBE_NABV01@@Z 00405fb0 f i libTestFramework:OptionParser.obj
 0001:00004ff0       ?deallocate@?$allocator@U_Container_proxy@std@@@std@@QAEXPAU_Container_proxy@2@I@Z 00405ff0 f i libTestFramework:OptionParser.obj
 0001:00005020       ?allocate@?$allocator@U_Container_proxy@std@@@std@@QAEPAU_Container_proxy@2@I@Z 00406020 f i libTestFramework:OptionParser.obj
 0001:00005050       ?allocate@?$allocator@PAVOption@TestFramework@OpenHome@@@std@@QAEPAPAVOption@TestFramework@OpenHome@@I@Z 00406050 f i libTestFramework:OptionParser.obj
 0001:00005080       ?max_size@?$allocator@PAVOption@TestFramework@OpenHome@@@std@@QBEIXZ 00406080 f i libTestFramework:OptionParser.obj
 0001:000050d0       ?allocate@?$allocator@PAD@std@@QAEPAPADI@Z 004060d0 f i libTestFramework:OptionParser.obj
 0001:00005100       ?max_size@?$allocator@PAD@std@@QBEIXZ 00406100 f i libTestFramework:OptionParser.obj
 0001:00005150       ??0?$_Vector_const_iterator@V?$_Vector_val@PADV?$allocator@PAD@std@@@std@@@std@@QAE@PAPADPBU_Container_base12@1@@Z 00406150 f i libTestFramework:OptionParser.obj
 0001:000051d0       ??8?$_Vector_const_iterator@V?$_Vector_val@PADV?$allocator@PAD@std@@@std@@@std@@QBE_NABV01@@Z 004061d0 f i libTestFramework:OptionParser.obj
 0001:00005210       ?_Compat@?$_Vector_const_iterator@V?$_Vector_val@PADV?$allocator@PAD@std@@@std@@@std@@QBEXABV12@@Z 00406210 f i libTestFramework:OptionParser.obj
 0001:000052c0       ??0?$_Iterator012@Urandom_access_iterator_tag@std@@PADHPBQADABQADU_Iterator_base12@2@@std@@QAE@XZ 004062c0 f i libTestFramework:OptionParser.obj
 0001:000052f0       ??0_Iterator_base12@std@@QAE@XZ 004062f0 f i libTestFramework:OptionParser.obj
 0001:00005320       ??0?$Bws@$0L@@OpenHome@@QAE@PBD@Z 00406320 f i libTestFramework:OptionParser.obj
 0001:000053a0       ?Ptr@?$Bws@$0L@@OpenHome@@UBEPBEXZ 004063a0 f i libTestFramework:OptionParser.obj
 0001:000053c0       ??0?$Bws@$09@OpenHome@@QAE@PBD@Z 004063c0 f i libTestFramework:OptionParser.obj
 0001:00005440       ?Ptr@?$Bws@$09@OpenHome@@UBEPBEXZ 00406440 f i libTestFramework:OptionParser.obj
 0001:00005460       ??$addressof@QAVOption@TestFramework@OpenHome@@@std@@YGPBQAVOption@TestFramework@OpenHome@@ABQAV123@@Z 00406460 f i libTestFramework:OptionParser.obj
 0001:00005470       ??$_Cons_val@V?$allocator@PAVOption@TestFramework@OpenHome@@@std@@PAVOption@TestFramework@OpenHome@@AAPAV345@@std@@YGXAAV?$allocator@PAVOption@TestFramework@OpenHome@@@0@PAPAVOption@TestFramework@OpenHome@@AAPAV234@@Z 00406470 f i libTestFramework:OptionParser.obj
 0001:000054a0       ??$_Cons_val@V?$allocator@PAVOption@TestFramework@OpenHome@@@std@@PAVOption@TestFramework@OpenHome@@ABQAV345@@std@@YGXAAV?$allocator@PAVOption@TestFramework@OpenHome@@@0@PAPAVOption@TestFramework@OpenHome@@ABQAV234@@Z 004064a0 f i libTestFramework:OptionParser.obj
 0001:000054d0       ??$addressof@QAD@std@@YGPBQADABQAD@Z 004064d0 f i libTestFramework:OptionParser.obj
 0001:000054e0       ??$_Cons_val@V?$allocator@PAD@std@@PADAAPAD@std@@YGXAAV?$allocator@PAD@0@PAPADAAPAD@Z 004064e0 f i libTestFramework:OptionParser.obj
 0001:00005510       ??$_Cons_val@V?$allocator@PAD@std@@PADABQAD@std@@YGXAAV?$allocator@PAD@0@PAPADABQAD@Z 00406510 f i libTestFramework:OptionParser.obj
 0001:00005540       ??$?0PAVOption@TestFramework@OpenHome@@@?$allocator@U_Container_proxy@std@@@std@@QAE@ABV?$allocator@PAVOption@TestFramework@OpenHome@@@1@@Z 00406540 f i libTestFramework:OptionParser.obj
 0001:00005560       ??$_Cons_val@V?$allocator@U_Container_proxy@std@@@std@@U_Container_proxy@2@U32@@std@@YGXAAV?$allocator@U_Container_proxy@std@@@0@PAU_Container_proxy@0@$$QAU20@@Z 00406560 f i libTestFramework:OptionParser.obj
 0001:00005590       ??$_Dest_val@V?$allocator@U_Container_proxy@std@@@std@@U_Container_proxy@2@@std@@YGXAAV?$allocator@U_Container_proxy@std@@@0@PAU_Container_proxy@0@@Z 00406590 f i libTestFramework:OptionParser.obj
 0001:000055b0       ??$_Move@PAPADPAPAD@std@@YGPAPADPAPAD00@Z 004065b0 f i libTestFramework:OptionParser.obj
 0001:00005600       ??$?0PAD@?$allocator@U_Container_proxy@std@@@std@@QAE@ABV?$allocator@PAD@1@@Z 00406600 f i libTestFramework:OptionParser.obj
 0001:00005620       ??$_Umove@PAPAVOption@TestFramework@OpenHome@@@?$vector@PAVOption@TestFramework@OpenHome@@V?$allocator@PAVOption@TestFramework@OpenHome@@@std@@@std@@IAEPAPAVOption@TestFramework@OpenHome@@PAPAV234@00@Z 00406620 f i libTestFramework:OptionParser.obj
 0001:00005660       ??$_Destroy_range@V?$allocator@PAVOption@TestFramework@OpenHome@@@std@@@std@@YGXPAPAVOption@TestFramework@OpenHome@@0AAV?$allocator@PAVOption@TestFramework@OpenHome@@@0@@Z 00406660 f i libTestFramework:OptionParser.obj
 0001:000056b0       ??$_Umove@PAPAD@?$vector@PADV?$allocator@PAD@std@@@std@@IAEPAPADPAPAD00@Z 004066b0 f i libTestFramework:OptionParser.obj
 0001:000056f0       ??$_Destroy_range@V?$allocator@PAD@std@@@std@@YGXPAPAD0AAV?$allocator@PAD@0@@Z 004066f0 f i libTestFramework:OptionParser.obj
 0001:00005740       ??$_Allocate@U_Container_proxy@std@@@std@@YGPAU_Container_proxy@0@IPAU10@@Z 00406740 f i libTestFramework:OptionParser.obj
 0001:000057c0       ??0bad_alloc@std@@QAE@PBD@Z 004067c0 f i libTestFramework:OptionParser.obj
 0001:00005800       ??1bad_alloc@std@@UAE@XZ   00406800 f i libTestFramework:OptionParser.obj
 0001:00005830       ??_Ebad_alloc@std@@UAEPAXI@Z 00406830 f i libTestFramework:OptionParser.obj
 0001:00005830       ??_Gbad_alloc@std@@UAEPAXI@Z 00406830 f i libTestFramework:OptionParser.obj
 0001:00005870       ??$_Allocate@PAVOption@TestFramework@OpenHome@@@std@@YGPAPAVOption@TestFramework@OpenHome@@IPAPAV123@@Z 00406870 f i libTestFramework:OptionParser.obj
 0001:000058f0       ??$_Allocate@PAD@std@@YGPAPADIPAPAD@Z 004068f0 f i libTestFramework:OptionParser.obj
 0001:00005970       ??_E?$Bws@$0L@@OpenHome@@UAEPAXI@Z 00406970 f i libTestFramework:OptionParser.obj
 0001:00005970       ??_G?$Bws@$0L@@OpenHome@@UAEPAXI@Z 00406970 f i libTestFramework:OptionParser.obj
 0001:000059b0       ??_G?$Bws@$09@OpenHome@@UAEPAXI@Z 004069b0 f i libTestFramework:OptionParser.obj
 0001:000059b0       ??_E?$Bws@$09@OpenHome@@UAEPAXI@Z 004069b0 f i libTestFramework:OptionParser.obj
 0001:000059f0       ??0bad_alloc@std@@QAE@ABV01@@Z 004069f0 f i libTestFramework:OptionParser.obj
 0001:00005a30       ?construct@?$allocator@PAVOption@TestFramework@OpenHome@@@std@@QAEXPAPAVOption@TestFramework@OpenHome@@ABQAV345@@Z 00406a30 f i libTestFramework:OptionParser.obj
 0001:00005a60       ?construct@?$allocator@PAD@std@@QAEXPAPADABQAD@Z 00406a60 f i libTestFramework:OptionParser.obj
 0001:00005a90       ?construct@?$allocator@U_Container_proxy@std@@@std@@QAEXPAU_Container_proxy@2@$$QAU32@@Z 00406a90 f i libTestFramework:OptionParser.obj
 0001:00005b40       ??2@YAPAXIPAX@Z            00406b40 f i libTestFramework:OptionParser.obj
 0001:00005b50       ??3@YAXPAX0@Z              00406b50 f i libTestFramework:OptionParser.obj
 0001:00005b60       ?destroy@?$allocator@U_Container_proxy@std@@@std@@QAEXPAU_Container_proxy@2@@Z 00406b60 f i libTestFramework:OptionParser.obj
 0001:00005b90       ??$forward@AAPAVOption@TestFramework@OpenHome@@@std@@YGAAPAVOption@TestFramework@OpenHome@@AAPAV123@@Z 00406b90 f i libTestFramework:OptionParser.obj
 0001:00005ba0       ??$construct@AAPAVOption@TestFramework@OpenHome@@@?$allocator@PAVOption@TestFramework@OpenHome@@@std@@QAEXPAPAVOption@TestFramework@OpenHome@@AAPAV234@@Z 00406ba0 f i libTestFramework:OptionParser.obj
 0001:00005c40       ??$forward@ABQAVOption@TestFramework@OpenHome@@@std@@YGABQAVOption@TestFramework@OpenHome@@ABQAV123@@Z 00406c40 f i libTestFramework:OptionParser.obj
 0001:00005c50       ??$forward@AAPAD@std@@YGAAPADAAPAD@Z 00406c50 f i libTestFramework:OptionParser.obj
 0001:00005c60       ??$construct@AAPAD@?$allocator@PAD@std@@QAEXPAPADAAPAD@Z 00406c60 f i libTestFramework:OptionParser.obj
 0001:00005d00       ??$forward@ABQAD@std@@YGABQADABQAD@Z 00406d00 f i libTestFramework:OptionParser.obj
 0001:00005d10       ??$forward@U_Container_proxy@std@@@std@@YG$$QAU_Container_proxy@0@AAU10@@Z 00406d10 f i libTestFramework:OptionParser.obj
 0001:00005d20       ??$_Ptr_cat@PADPAD@std@@YG?AU_Scalar_ptr_iterator_tag@0@PAPAD0@Z 00406d20 f i libTestFramework:OptionParser.obj
 0001:00005d80       ??$_Move@PAPADPAPAD@std@@YGPAPADPAPAD00U_Scalar_ptr_iterator_tag@0@@Z 00406d80 f i libTestFramework:OptionParser.obj
 0001:00005dd0       ??$_Uninitialized_move@PAPAVOption@TestFramework@OpenHome@@PAPAV123@V?$allocator@PAVOption@TestFramework@OpenHome@@@std@@@std@@YGPAPAVOption@TestFramework@OpenHome@@PAPAV123@00AAV?$allocator@PAVOption@TestFramework@OpenHome@@@0@@Z 00406dd0 f i libTestFramework:OptionParser.obj
 0001:00005e20       ??$_Ptr_cat@PAVOption@TestFramework@OpenHome@@PAV123@@std@@YG?AU_Scalar_ptr_iterator_tag@0@PAPAVOption@TestFramework@OpenHome@@0@Z 00406e20 f i libTestFramework:OptionParser.obj
 0001:00005e80       ??$_Destroy_range@V?$allocator@PAVOption@TestFramework@OpenHome@@@std@@@std@@YGXPAPAVOption@TestFramework@OpenHome@@0AAV?$allocator@PAVOption@TestFramework@OpenHome@@@0@U_Scalar_ptr_iterator_tag@0@@Z 00406e80 f i libTestFramework:OptionParser.obj
 0001:00005e90       ??$_Uninitialized_move@PAPADPAPADV?$allocator@PAD@std@@@std@@YGPAPADPAPAD00AAV?$allocator@PAD@0@@Z 00406e90 f i libTestFramework:OptionParser.obj
 0001:00005ee0       ??$_Destroy_range@V?$allocator@PAD@std@@@std@@YGXPAPAD0AAV?$allocator@PAD@0@U_Scalar_ptr_iterator_tag@0@@Z 00406ee0 f i libTestFramework:OptionParser.obj
 0001:00005ef0       ??$_Construct@PAVOption@TestFramework@OpenHome@@ABQAV123@@std@@YGXPAPAVOption@TestFramework@OpenHome@@ABQAV123@@Z 00406ef0 f i libTestFramework:OptionParser.obj
 0001:00005fa0       ??$_Construct@PADABQAD@std@@YGXPAPADABQAD@Z 00406fa0 f i libTestFramework:OptionParser.obj
 0001:00006050       ??$_Destroy@U_Container_proxy@std@@@std@@YGXPAU_Container_proxy@0@@Z 00407050 f i libTestFramework:OptionParser.obj
 0001:00006060       ??$_Val_type@PAPAVOption@TestFramework@OpenHome@@@std@@YGPAPAVOption@TestFramework@OpenHome@@PAPAV123@@Z 00407060 f i libTestFramework:OptionParser.obj
 0001:00006070       ??$_Uninit_move@PAVOption@TestFramework@OpenHome@@PAV123@PAV123@@std@@YGPAPAVOption@TestFramework@OpenHome@@PAPAV123@00AAV?$allocator@PAVOption@TestFramework@OpenHome@@@0@0U_Scalar_ptr_iterator_tag@0@@Z 00407070 f i libTestFramework:OptionParser.obj
 0001:000060e0       ??$_Val_type@PAPAD@std@@YGPAPADPAPAD@Z 004070e0 f i libTestFramework:OptionParser.obj
 0001:000060f0       ??$_Uninit_move@PADPADPAD@std@@YGPAPADPAPAD00AAV?$allocator@PAD@0@0U_Scalar_ptr_iterator_tag@0@@Z 004070f0 f i libTestFramework:OptionParser.obj
 0001:00006160       ??$_Debug_range@PAPAVOption@TestFramework@OpenHome@@@std@@YGXPAPAVOption@TestFramework@OpenHome@@0PB_WI@Z 00407160 f i libTestFramework:OptionParser.obj
 0001:000061b0       ??$_Debug_pointer@PAVOption@TestFramework@OpenHome@@@std@@YGXPAPAVOption@TestFramework@OpenHome@@PB_WI@Z 004071b0 f i libTestFramework:OptionParser.obj
 0001:000061e0       ??$_Debug_range@PAPAD@std@@YGXPAPAD0PB_WI@Z 004071e0 f i libTestFramework:OptionParser.obj
 0001:00006230       ??$_Debug_pointer@PAD@std@@YGXPAPADPB_WI@Z 00407230 f i libTestFramework:OptionParser.obj
 0001:00006260       ??$_Iter_cat@PAPAVOption@TestFramework@OpenHome@@@std@@YG?AUrandom_access_iterator_tag@0@ABQAPAVOption@TestFramework@OpenHome@@@Z 00407260 f i libTestFramework:OptionParser.obj
 0001:000062c0       ??$_Debug_range2@PAPAVOption@TestFramework@OpenHome@@@std@@YGXPAPAVOption@TestFramework@OpenHome@@0PB_WIUrandom_access_iterator_tag@0@@Z 004072c0 f i libTestFramework:OptionParser.obj
 0001:00006320       ??$_Iter_cat@PAPAD@std@@YG?AUrandom_access_iterator_tag@0@ABQAPAD@Z 00407320 f i libTestFramework:OptionParser.obj
 0001:00006380       ??$_Debug_range2@PAPAD@std@@YGXPAPAD0PB_WIUrandom_access_iterator_tag@0@@Z 00407380 f i libTestFramework:OptionParser.obj
 0001:000063e0       ??0NetworkAdapter@OpenHome@@QAE@IIPBD@Z 004073e0 f   libohNetCore:OhNet.obj
 0001:00006480       ??1NetworkAdapter@OpenHome@@AAE@XZ 00407480 f   libohNetCore:OhNet.obj
 0001:000064f0       ?AddRef@NetworkAdapter@OpenHome@@QAEXXZ 004074f0 f   libohNetCore:OhNet.obj
 0001:00006540       ?RemoveRef@NetworkAdapter@OpenHome@@QAEXXZ 00407540 f   libohNetCore:OhNet.obj
 0001:000065d0       ?Address@NetworkAdapter@OpenHome@@QBEIXZ 004075d0 f   libohNetCore:OhNet.obj
 0001:000065f0       ?Subnet@NetworkAdapter@OpenHome@@QBEIXZ 004075f0 f   libohNetCore:OhNet.obj
 0001:00006610       ?Mask@NetworkAdapter@OpenHome@@QBEIXZ 00407610 f   libohNetCore:OhNet.obj
 0001:00006630       ?ContainsAddress@NetworkAdapter@OpenHome@@QAE_NI@Z 00407630 f   libohNetCore:OhNet.obj
 0001:00006670       ?Name@NetworkAdapter@OpenHome@@QBEPBDXZ 00407670 f   libohNetCore:OhNet.obj
 0001:000066b0       ?FullName@NetworkAdapter@OpenHome@@QBEPADXZ 004076b0 f   libohNetCore:OhNet.obj
 0001:00006810       ?Log@DefaultLogger@Net@OpenHome@@QAEXPBD@Z 00407810 f   libohNetCore:OhNet.obj
 0001:00006860       ?LogError@DefaultAsyncHandler@Net@OpenHome@@QAEXAAVIAsync@23@@Z 00407860 f   libohNetCore:OhNet.obj
 0001:000068c0       ?Output@DefaultAsyncHandler@Net@OpenHome@@EAEXPBD0@Z 004078c0 f   libohNetCore:OhNet.obj
 0001:00006900       ?Create@InitialisationParams@Net@OpenHome@@SGPAV123@XZ 00407900 f   libohNetCore:OhNet.obj
 0001:000069a0       ??1InitialisationParams@Net@OpenHome@@QAE@XZ 004079a0 f   libohNetCore:OhNet.obj
 0001:00006a00       ?SetLogOutput@InitialisationParams@Net@OpenHome@@QAEXVFunctorMsg@3@@Z 00407a00 f   libohNetCore:OhNet.obj
 0001:00006a30       ?SetFatalErrorHandler@InitialisationParams@Net@OpenHome@@QAEXVFunctorMsg@3@@Z 00407a30 f   libohNetCore:OhNet.obj
 0001:00006a90       ?SetAsyncBeginHandler@InitialisationParams@Net@OpenHome@@QAEXVFunctorAsync@23@@Z 00407a90 f   libohNetCore:OhNet.obj
 0001:00006ad0       ?SetAsyncEndHandler@InitialisationParams@Net@OpenHome@@QAEXVFunctorAsync@23@@Z 00407ad0 f   libohNetCore:OhNet.obj
 0001:00006b10       ?SetAsyncErrorHandler@InitialisationParams@Net@OpenHome@@QAEXVFunctorAsync@23@@Z 00407b10 f   libohNetCore:OhNet.obj
 0001:00006b50       ?SetSubnetListChangedListener@InitialisationParams@Net@OpenHome@@QAEXVFunctor@3@@Z 00407b50 f   libohNetCore:OhNet.obj
 0001:00006b90       ?SetTcpConnectTimeout@InitialisationParams@Net@OpenHome@@QAEXI@Z 00407b90 f   libohNetCore:OhNet.obj
 0001:00006bd0       ?SetMsearchTime@InitialisationParams@Net@OpenHome@@QAEXI@Z 00407bd0 f   libohNetCore:OhNet.obj
 0001:00006c20       ?SetMsearchTtl@InitialisationParams@Net@OpenHome@@QAEXI@Z 00407c20 f   libohNetCore:OhNet.obj
 0001:00006c60       ?SetNumEventSessionThreads@InitialisationParams@Net@OpenHome@@QAEXI@Z 00407c60 f   libohNetCore:OhNet.obj
 0001:00006cb0       ?SetNumXmlFetcherThreads@InitialisationParams@Net@OpenHome@@QAEXI@Z 00407cb0 f   libohNetCore:OhNet.obj
 0001:00006d00       ?SetNumActionInvokerThreads@InitialisationParams@Net@OpenHome@@QAEXI@Z 00407d00 f   libohNetCore:OhNet.obj
 0001:00006d50       ?SetNumInvocations@InitialisationParams@Net@OpenHome@@QAEXI@Z 00407d50 f   libohNetCore:OhNet.obj
 0001:00006d90       ?SetNumSubscriberThreads@InitialisationParams@Net@OpenHome@@QAEXI@Z 00407d90 f   libohNetCore:OhNet.obj
 0001:00006de0       ?SetPendingSubscriptionTimeout@InitialisationParams@Net@OpenHome@@QAEXI@Z 00407de0 f   libohNetCore:OhNet.obj
 0001:00006e20       ?SetFreeExternalCallback@InitialisationParams@Net@OpenHome@@QAEXP6GXPAX@Z@Z 00407e20 f   libohNetCore:OhNet.obj
 0001:00006e40       ?SetUseLoopbackNetworkAdapter@InitialisationParams@Net@OpenHome@@QAEXXZ 00407e40 f   libohNetCore:OhNet.obj
 0001:00006e60       ?SetDvMaxUpdateTime@InitialisationParams@Net@OpenHome@@QAEXI@Z 00407e60 f   libohNetCore:OhNet.obj
 0001:00006e80       ?SetDvNumServerThreads@InitialisationParams@Net@OpenHome@@QAEXI@Z 00407e80 f   libohNetCore:OhNet.obj
 0001:00006ed0       ?SetDvNumPublisherThreads@InitialisationParams@Net@OpenHome@@QAEXI@Z 00407ed0 f   libohNetCore:OhNet.obj
 0001:00006f20       ?SetDvNumWebSocketThreads@InitialisationParams@Net@OpenHome@@QAEXI@Z 00407f20 f   libohNetCore:OhNet.obj
 0001:00006f70       ?SetDvWebSocketPort@InitialisationParams@Net@OpenHome@@QAEXI@Z 00407f70 f   libohNetCore:OhNet.obj
 0001:00006f90       ?SetDvEnableBonjour@InitialisationParams@Net@OpenHome@@QAEXXZ 00407f90 f   libohNetCore:OhNet.obj
 0001:00006fb0       ?LogOutput@InitialisationParams@Net@OpenHome@@QAEAAVFunctorMsg@3@XZ 00407fb0 f   libohNetCore:OhNet.obj
 0001:00006fd0       ?FatalErrorHandler@InitialisationParams@Net@OpenHome@@QAEAAVFunctorMsg@3@XZ 00407fd0 f   libohNetCore:OhNet.obj
 0001:00006ff0       ?AsyncBeginHandler@InitialisationParams@Net@OpenHome@@QAEAAVFunctorAsync@23@XZ 00407ff0 f   libohNetCore:OhNet.obj
 0001:00007010       ?AsyncEndHandler@InitialisationParams@Net@OpenHome@@QAEAAVFunctorAsync@23@XZ 00408010 f   libohNetCore:OhNet.obj
 0001:00007030       ?AsyncErrorHandler@InitialisationParams@Net@OpenHome@@QAEAAVFunctorAsync@23@XZ 00408030 f   libohNetCore:OhNet.obj
 0001:00007050       ?SubnetListChangedListener@InitialisationParams@Net@OpenHome@@QAEAAVFunctor@3@XZ 00408050 f   libohNetCore:OhNet.obj
 0001:00007070       ?TcpConnectTimeoutMs@InitialisationParams@Net@OpenHome@@QBEIXZ 00408070 f   libohNetCore:OhNet.obj
 0001:00007090       ?MsearchTimeSecs@InitialisationParams@Net@OpenHome@@QBEIXZ 00408090 f   libohNetCore:OhNet.obj
 0001:000070b0       ?MsearchTtl@InitialisationParams@Net@OpenHome@@QBEIXZ 004080b0 f   libohNetCore:OhNet.obj
 0001:000070d0       ?NumEventSessionThreads@InitialisationParams@Net@OpenHome@@QBEIXZ 004080d0 f   libohNetCore:OhNet.obj
 0001:000070f0       ?NumXmlFetcherThreads@InitialisationParams@Net@OpenHome@@QBEIXZ 004080f0 f   libohNetCore:OhNet.obj
 0001:00007110       ?NumActionInvokerThreads@InitialisationParams@Net@OpenHome@@QBEIXZ 00408110 f   libohNetCore:OhNet.obj
 0001:00007130       ?NumInvocations@InitialisationParams@Net@OpenHome@@QBEIXZ 00408130 f   libohNetCore:OhNet.obj
 0001:00007150       ?NumSubscriberThreads@InitialisationParams@Net@OpenHome@@QBEIXZ 00408150 f   libohNetCore:OhNet.obj
 0001:00007170       ?PendingSubscriptionTimeoutMs@InitialisationParams@Net@OpenHome@@QBEIXZ 00408170 f   libohNetCore:OhNet.obj
 0001:00007190       ?FreeExternal@InitialisationParams@Net@OpenHome@@QBEP6GXPAX@ZXZ 00408190 f   libohNetCore:OhNet.obj
 0001:000071b0       ?UseLoopbackNetworkAdapter@InitialisationParams@Net@OpenHome@@QBE_NXZ 004081b0 f   libohNetCore:OhNet.obj
 0001:000071d0       ?DvMaxUpdateTimeSecs@InitialisationParams@Net@OpenHome@@QBEIXZ 004081d0 f   libohNetCore:OhNet.obj
 0001:000071f0       ?DvNumServerThreads@InitialisationParams@Net@OpenHome@@QBEIXZ 004081f0 f   libohNetCore:OhNet.obj
 0001:00007210       ?DvNumPublisherThreads@InitialisationParams@Net@OpenHome@@QBEIXZ 00408210 f   libohNetCore:OhNet.obj
 0001:00007230       ?DvNumWebSocketThreads@InitialisationParams@Net@OpenHome@@QBEIXZ 00408230 f   libohNetCore:OhNet.obj
 0001:00007250       ?DvWebSocketPort@InitialisationParams@Net@OpenHome@@QBEIXZ 00408250 f   libohNetCore:OhNet.obj
 0001:00007270       ?DvIsBonjourEnabled@InitialisationParams@Net@OpenHome@@QBE_NXZ 00408270 f   libohNetCore:OhNet.obj
 0001:00007290       ??0InitialisationParams@Net@OpenHome@@AAE@XZ 00408290 f   libohNetCore:OhNet.obj
 0001:00007500       ?FatalErrorHandlerDefault@InitialisationParams@Net@OpenHome@@AAEXPBD@Z 00408500 f   libohNetCore:OhNet.obj
 0001:00007530       ?Initialise@UpnpLibrary@Net@OpenHome@@SGXPAVInitialisationParams@23@@Z 00408530 f   libohNetCore:OhNet.obj
 0001:00007630       ?InitialiseMinimal@UpnpLibrary@Net@OpenHome@@SGXPAVInitialisationParams@23@@Z 00408630 f   libohNetCore:OhNet.obj
 0001:000076d0       ?Close@UpnpLibrary@Net@OpenHome@@SGXXZ 004086d0 f   libohNetCore:OhNet.obj
 0001:000076f0       ?CreateSubnetList@UpnpLibrary@Net@OpenHome@@SGPAV?$vector@PAVNetworkAdapter@OpenHome@@V?$allocator@PAVNetworkAdapter@OpenHome@@@std@@@std@@XZ 004086f0 f   libohNetCore:OhNet.obj
 0001:00007710       ?DestroySubnetList@UpnpLibrary@Net@OpenHome@@SGXPAV?$vector@PAVNetworkAdapter@OpenHome@@V?$allocator@PAVNetworkAdapter@OpenHome@@@std@@@std@@@Z 00408710 f   libohNetCore:OhNet.obj
 0001:000077a0       ?SetCurrentSubnet@UpnpLibrary@Net@OpenHome@@SGXI@Z 004087a0 f   libohNetCore:OhNet.obj
 0001:000077c0       ?CurrentSubnetAdapter@UpnpLibrary@Net@OpenHome@@SGPAVNetworkAdapter@3@XZ 004087c0 f   libohNetCore:OhNet.obj
 0001:000077e0       ??_GNetworkAdapter@OpenHome@@AAEPAXI@Z 004087e0 f i libohNetCore:OhNet.obj
 0001:00007820       ?Append@Bwx@OpenHome@@QAEXD@Z 00408820 f i libohNetCore:OhNet.obj
 0001:00007850       ??BFunctorMsg@OpenHome@@QBE_NXZ 00408850 f i libohNetCore:OhNet.obj
 0001:00007890       ??0Functor@OpenHome@@QAE@XZ 00408890 f i libohNetCore:OhNet.obj
 0001:000078c0       ??0FunctorAsync@Net@OpenHome@@QAE@XZ 004088c0 f i libohNetCore:OhNet.obj
 0001:000078f0       ??0FunctorMsg@OpenHome@@QAE@XZ 004088f0 f i libohNetCore:OhNet.obj
 0001:00007920       ??0DefaultAsyncHandler@Net@OpenHome@@QAE@XZ 00408920 f i libohNetCore:OhNet.obj
 0001:00007950       ??0IAsyncOutput@Net@OpenHome@@QAE@XZ 00408950 f i libohNetCore:OhNet.obj
 0001:00007970       ?Quit@Os@OpenHome@@SGXXZ   00408970 f i libohNetCore:OhNet.obj
 0001:00007990       ??0bad_alloc@std@@QAE@XZ   00408990 f i libohNetCore:OhNet.obj
 0001:000079e0       ?Create@Os@OpenHome@@SGHXZ 004089e0 f i libohNetCore:OhNet.obj
 0001:00007a00       ?Destroy@Os@OpenHome@@SGXXZ 00408a00 f i libohNetCore:OhNet.obj
 0001:00007a20       ??_G?$vector@PAVNetworkAdapter@OpenHome@@V?$allocator@PAVNetworkAdapter@OpenHome@@@std@@@std@@QAEPAXI@Z 00408a20 f i libohNetCore:OhNet.obj
 0001:00007a60       ??1?$vector@PAVNetworkAdapter@OpenHome@@V?$allocator@PAVNetworkAdapter@OpenHome@@@std@@@std@@QAE@XZ 00408a60 f i libohNetCore:OhNet.obj
 0001:00007ad0       ??A?$vector@PAVNetworkAdapter@OpenHome@@V?$allocator@PAVNetworkAdapter@OpenHome@@@std@@@std@@QAEAAPAVNetworkAdapter@OpenHome@@I@Z 00408ad0 f i libohNetCore:OhNet.obj
 0001:00007b70       ?_Tidy@?$vector@PAVNetworkAdapter@OpenHome@@V?$allocator@PAVNetworkAdapter@OpenHome@@@std@@@std@@IAEXXZ 00408b70 f i libohNetCore:OhNet.obj
 0001:00007c00       ??1?$_Vector_val@PAVNetworkAdapter@OpenHome@@V?$allocator@PAVNetworkAdapter@OpenHome@@@std@@@std@@QAE@XZ 00408c00 f i libohNetCore:OhNet.obj
 0001:00007ce0       ?_Destroy@?$vector@PAVNetworkAdapter@OpenHome@@V?$allocator@PAVNetworkAdapter@OpenHome@@@std@@@std@@IAEXPAPAVNetworkAdapter@OpenHome@@0@Z 00408ce0 f i libohNetCore:OhNet.obj
 0001:00007d20       ?deallocate@?$allocator@PAVNetworkAdapter@OpenHome@@@std@@QAEXPAPAVNetworkAdapter@OpenHome@@I@Z 00408d20 f i libohNetCore:OhNet.obj
 0001:00007d50       ??$MakeFunctorMsg@VDefaultLogger@Net@OpenHome@@V123@@OpenHome@@YG?AV?$MemberTranslatorMsg@VDefaultLogger@Net@OpenHome@@P8123@AEXPBD@Z@0@AAVDefaultLogger@Net@0@ABQ8230@AEXPBD@Z@Z 00408d50 f i libohNetCore:OhNet.obj
 0001:00007d80       ??$MakeFunctorAsync@VDefaultAsyncHandler@Net@OpenHome@@V123@@Net@OpenHome@@YG?AV?$MemberTranslatorAsync@VDefaultAsyncHandler@Net@OpenHome@@P8123@AEXAAVIAsync@23@@Z@01@AAVDefaultAsyncHandler@01@ABQ8301@AEXAAVIAsync@01@@Z@Z 00408d80 f i libohNetCore:OhNet.obj
 0001:00007db0       ??$MakeFunctorMsg@VInitialisationParams@Net@OpenHome@@V123@@OpenHome@@YG?AV?$MemberTranslatorMsg@VInitialisationParams@Net@OpenHome@@P8123@AEXPBD@Z@0@AAVInitialisationParams@Net@0@ABQ8230@AEXPBD@Z@Z 00408db0 f i libohNetCore:OhNet.obj
 0001:00007de0       ??$?0PAVNetworkAdapter@OpenHome@@@?$allocator@U_Container_proxy@std@@@std@@QAE@ABV?$allocator@PAVNetworkAdapter@OpenHome@@@1@@Z 00408de0 f i libohNetCore:OhNet.obj
 0001:00007e00       ??$_Destroy_range@V?$allocator@PAVNetworkAdapter@OpenHome@@@std@@@std@@YGXPAPAVNetworkAdapter@OpenHome@@0AAV?$allocator@PAVNetworkAdapter@OpenHome@@@0@@Z 00408e00 f i libohNetCore:OhNet.obj
 0001:00007e50       ??0?$MemberTranslatorMsg@VDefaultLogger@Net@OpenHome@@P8123@AEXPBD@Z@OpenHome@@QAE@AAVDefaultLogger@Net@1@ABQ8231@AEXPBD@Z@Z 00408e50 f i libohNetCore:OhNet.obj
 0001:00007e90       ??0?$MemberTranslatorAsync@VDefaultAsyncHandler@Net@OpenHome@@P8123@AEXAAVIAsync@23@@Z@Net@OpenHome@@QAE@AAVDefaultAsyncHandler@12@ABQ8312@AEXAAVIAsync@12@@Z@Z 00408e90 f i libohNetCore:OhNet.obj
 0001:00007ed0       ??0FunctorAsync@Net@OpenHome@@IAE@P6GXABV012@AAVIAsync@12@@ZPBX3I@Z 00408ed0 f i libohNetCore:OhNet.obj
 0001:00007f20       ??0?$MemberTranslatorMsg@VInitialisationParams@Net@OpenHome@@P8123@AEXPBD@Z@OpenHome@@QAE@AAVInitialisationParams@Net@1@ABQ8231@AEXPBD@Z@Z 00408f20 f i libohNetCore:OhNet.obj
 0001:00007f60       ?Thunk@?$MemberTranslatorMsg@VDefaultLogger@Net@OpenHome@@P8123@AEXPBD@Z@OpenHome@@SGXABVFunctorMsg@2@PBD@Z 00408f60 f i libohNetCore:OhNet.obj
 0001:00007fb0       ?Thunk@?$MemberTranslatorAsync@VDefaultAsyncHandler@Net@OpenHome@@P8123@AEXAAVIAsync@23@@Z@Net@OpenHome@@SGXABVFunctorAsync@23@AAVIAsync@23@@Z 00408fb0 f i libohNetCore:OhNet.obj
 0001:00008000       ?Thunk@?$MemberTranslatorMsg@VInitialisationParams@Net@OpenHome@@P8123@AEXPBD@Z@OpenHome@@SGXABVFunctorMsg@2@PBD@Z 00409000 f i libohNetCore:OhNet.obj
 0001:00008050       ??$_Ptr_cat@PAVNetworkAdapter@OpenHome@@PAV12@@std@@YG?AU_Scalar_ptr_iterator_tag@0@PAPAVNetworkAdapter@OpenHome@@0@Z 00409050 f i libohNetCore:OhNet.obj
 0001:000080b0       ??$_Destroy_range@V?$allocator@PAVNetworkAdapter@OpenHome@@@std@@@std@@YGXPAPAVNetworkAdapter@OpenHome@@0AAV?$allocator@PAVNetworkAdapter@OpenHome@@@0@U_Scalar_ptr_iterator_tag@0@@Z 004090b0 f i libohNetCore:OhNet.obj
 0001:000080c0       ??0SsdpSocketReader@Net@OpenHome@@QAE@IABVEndpoint@2@@Z 004090c0 f   libohNetCore:Discovery.obj
 0001:000081b0       ??1SsdpSocketReader@Net@OpenHome@@UAE@XZ 004091b0 f   libohNetCore:Discovery.obj
 0001:00008280       ?Sender@SsdpSocketReader@Net@OpenHome@@QBE?AVEndpoint@3@XZ 00409280 f   libohNetCore:Discovery.obj
 0001:000082b0       ?Read@SsdpSocketReader@Net@OpenHome@@UAEXAAVBwx@3@@Z 004092b0 f   libohNetCore:Discovery.obj
 0001:000082f0       ?ReadFlush@SsdpSocketReader@Net@OpenHome@@UAEXXZ 004092f0 f   libohNetCore:Discovery.obj
 0001:00008330       ?ReadInterrupt@SsdpSocketReader@Net@OpenHome@@UAEXXZ 00409330 f   libohNetCore:Discovery.obj
 0001:00008370       ??0SsdpListener@Net@OpenHome@@IAE@XZ 00409370 f   libohNetCore:Discovery.obj
 0001:00008440       ??0SsdpListenerMulticast@Net@OpenHome@@QAE@I@Z 00409440 f   libohNetCore:Discovery.obj
 0001:00008720       ?Run@SsdpListenerMulticast@Net@OpenHome@@EAEXXZ 00409720 f   libohNetCore:Discovery.obj
 0001:00008b60       ?Msearch@SsdpListenerMulticast@Net@OpenHome@@AAEXAAVMsearchHandler@123@@Z 00409b60 f   libohNetCore:Discovery.obj
 0001:00008c30       ?Msearch@SsdpListenerMulticast@Net@OpenHome@@AAEXAAVISsdpMsearchHandler@23@@Z 00409c30 f   libohNetCore:Discovery.obj
 0001:00008ef0       ?Notify@SsdpListenerMulticast@Net@OpenHome@@AAEXAAVNotifyHandler@123@@Z 00409ef0 f   libohNetCore:Discovery.obj
 0001:00008fc0       ?Notify@SsdpListenerMulticast@Net@OpenHome@@AAEXAAVISsdpNotifyHandler@23@@Z 00409fc0 f   libohNetCore:Discovery.obj
 0001:000097c0       ??1SsdpListenerMulticast@Net@OpenHome@@UAE@XZ 0040a7c0 f   libohNetCore:Discovery.obj
 0001:00009990       ?AddNotifyHandler@SsdpListenerMulticast@Net@OpenHome@@QAEHPAVISsdpNotifyHandler@23@@Z 0040a990 f   libohNetCore:Discovery.obj
 0001:00009ae0       ?AddMsearchHandler@SsdpListenerMulticast@Net@OpenHome@@QAEHPAVISsdpMsearchHandler@23@@Z 0040aae0 f   libohNetCore:Discovery.obj
 0001:00009c30       ?RemoveNotifyHandler@SsdpListenerMulticast@Net@OpenHome@@QAEXH@Z 0040ac30 f   libohNetCore:Discovery.obj
 0001:00009cf0       ?RemoveMsearchHandler@SsdpListenerMulticast@Net@OpenHome@@QAEXH@Z 0040acf0 f   libohNetCore:Discovery.obj
 0001:00009db0       ?Interface@SsdpListenerMulticast@Net@OpenHome@@QBEIXZ 0040adb0 f   libohNetCore:Discovery.obj
 0001:00009dd0       ?EraseDisabled@SsdpListenerMulticast@Net@OpenHome@@AAEXAAV?$vector@PAVNotifyHandler@SsdpListenerMulticast@Net@OpenHome@@V?$allocator@PAVNotifyHandler@SsdpListenerMulticast@Net@OpenHome@@@std@@@std@@@Z 0040add0 f   libohNetCore:Discovery.obj
 0001:00009f70       ?EraseDisabled@SsdpListenerMulticast@Net@OpenHome@@AAEXAAV?$vector@PAVMsearchHandler@SsdpListenerMulticast@Net@OpenHome@@V?$allocator@PAVMsearchHandler@SsdpListenerMulticast@Net@OpenHome@@@std@@@std@@@Z 0040af70 f   libohNetCore:Discovery.obj
 0001:0000a110       ??0SsdpListenerUnicast@Net@OpenHome@@QAE@AAVISsdpNotifyHandler@12@I@Z 0040b110 f   libohNetCore:Discovery.obj
 0001:0000a370       ??1SsdpListenerUnicast@Net@OpenHome@@UAE@XZ 0040b370 f   libohNetCore:Discovery.obj
 0001:0000a4b0       ?Run@SsdpListenerUnicast@Net@OpenHome@@EAEXXZ 0040b4b0 f   libohNetCore:Discovery.obj
 0001:0000abe0       ?MsearchRoot@SsdpListenerUnicast@Net@OpenHome@@QAEXXZ 0040bbe0 f   libohNetCore:Discovery.obj
 0001:0000ac20       ?MsearchUuid@SsdpListenerUnicast@Net@OpenHome@@QAEXABVBrx@3@@Z 0040bc20 f   libohNetCore:Discovery.obj
 0001:0000ac60       ?MsearchDeviceType@SsdpListenerUnicast@Net@OpenHome@@QAEXABVBrx@3@0I@Z 0040bc60 f   libohNetCore:Discovery.obj
 0001:0000acb0       ?MsearchServiceType@SsdpListenerUnicast@Net@OpenHome@@QAEXABVBrx@3@0I@Z 0040bcb0 f   libohNetCore:Discovery.obj
 0001:0000ad00       ?MsearchAll@SsdpListenerUnicast@Net@OpenHome@@QAEXXZ 0040bd00 f   libohNetCore:Discovery.obj
 0001:0000ad40       ?MsearchDurationSeconds@SsdpListenerUnicast@Net@OpenHome@@ABEIXZ 0040bd40 f   libohNetCore:Discovery.obj
 0001:0000ad70       ??1IReaderSource@OpenHome@@UAE@XZ 0040bd70 f i libohNetCore:Discovery.obj
 0001:0000ad90       ??_EIReaderSource@OpenHome@@UAEPAXI@Z 0040bd90 f i libohNetCore:Discovery.obj
 0001:0000ad90       ??_GIReaderSource@OpenHome@@UAEPAXI@Z 0040bd90 f i libohNetCore:Discovery.obj
 0001:0000add0       ??_ESsdpSocketReader@Net@OpenHome@@UAEPAXI@Z 0040bdd0 f i libohNetCore:Discovery.obj
 0001:0000add0       ??_GSsdpSocketReader@Net@OpenHome@@UAEPAXI@Z 0040bdd0 f i libohNetCore:Discovery.obj
 0001:0000ae10       ??0IReaderSource@OpenHome@@QAE@XZ 0040be10 f i libohNetCore:Discovery.obj
 0001:0000ae30       ??_GSsdpListener@Net@OpenHome@@UAEPAXI@Z 0040be30 f i libohNetCore:Discovery.obj
 0001:0000ae30       ??_ESsdpListener@Net@OpenHome@@UAEPAXI@Z 0040be30 f i libohNetCore:Discovery.obj
 0001:0000ae70       ??0SsdpHeaderCacheControl@Net@OpenHome@@QAE@XZ 0040be70 f i libohNetCore:Discovery.obj
 0001:0000aea0       ??1SsdpHeaderCacheControl@Net@OpenHome@@UAE@XZ 0040bea0 f i libohNetCore:Discovery.obj
 0001:0000aed0       ??0HttpHeaderLocation@OpenHome@@QAE@XZ 0040bed0 f i libohNetCore:Discovery.obj
 0001:0000af50       ??1HttpHeaderLocation@OpenHome@@UAE@XZ 0040bf50 f i libohNetCore:Discovery.obj
 0001:0000afc0       ??0SsdpHeaderServer@Net@OpenHome@@QAE@XZ 0040bfc0 f i libohNetCore:Discovery.obj
 0001:0000aff0       ??1SsdpHeaderServer@Net@OpenHome@@UAE@XZ 0040bff0 f i libohNetCore:Discovery.obj
 0001:0000b020       ??0SsdpHeaderSt@Net@OpenHome@@QAE@XZ 0040c020 f i libohNetCore:Discovery.obj
 0001:0000b0c0       ??1SsdpHeaderSt@Net@OpenHome@@UAE@XZ 0040c0c0 f i libohNetCore:Discovery.obj
 0001:0000b150       ??0SsdpHeaderUsn@Net@OpenHome@@QAE@XZ 0040c150 f i libohNetCore:Discovery.obj
 0001:0000b1f0       ??1SsdpListener@Net@OpenHome@@UAE@XZ 0040c1f0 f i libohNetCore:Discovery.obj
 0001:0000b2a0       ??1SsdpHeaderUsn@Net@OpenHome@@UAE@XZ 0040c2a0 f i libohNetCore:Discovery.obj
 0001:0000b330       ??_ESsdpHeaderCacheControl@Net@OpenHome@@UAEPAXI@Z 0040c330 f i libohNetCore:Discovery.obj
 0001:0000b330       ??_GSsdpHeaderCacheControl@Net@OpenHome@@UAEPAXI@Z 0040c330 f i libohNetCore:Discovery.obj
 0001:0000b370       ??1HttpHeader@OpenHome@@UAE@XZ 0040c370 f i libohNetCore:Discovery.obj
 0001:0000b3a0       ??1IHttpHeader@OpenHome@@UAE@XZ 0040c3a0 f i libohNetCore:Discovery.obj
 0001:0000b3c0       ??_EIHttpHeader@OpenHome@@UAEPAXI@Z 0040c3c0 f i libohNetCore:Discovery.obj
 0001:0000b3c0       ??_GIHttpHeader@OpenHome@@UAEPAXI@Z 0040c3c0 f i libohNetCore:Discovery.obj
 0001:0000b400       ??_EHttpHeaderLocation@OpenHome@@UAEPAXI@Z 0040c400 f i libohNetCore:Discovery.obj
 0001:0000b400       ??_GHttpHeaderLocation@OpenHome@@UAEPAXI@Z 0040c400 f i libohNetCore:Discovery.obj
 0001:0000b440       ??1?$Bws@$0DOI@@OpenHome@@UAE@XZ 0040c440 f i libohNetCore:Discovery.obj
 0001:0000b470       ??_ESsdpHeaderServer@Net@OpenHome@@UAEPAXI@Z 0040c470 f i libohNetCore:Discovery.obj
 0001:0000b470       ??_GSsdpHeaderServer@Net@OpenHome@@UAEPAXI@Z 0040c470 f i libohNetCore:Discovery.obj
 0001:0000b4b0       ??_GSsdpHeaderSt@Net@OpenHome@@UAEPAXI@Z 0040c4b0 f i libohNetCore:Discovery.obj
 0001:0000b4b0       ??_ESsdpHeaderSt@Net@OpenHome@@UAEPAXI@Z 0040c4b0 f i libohNetCore:Discovery.obj
 0001:0000b4f0       ??1?$Bws@$0EA@@OpenHome@@UAE@XZ 0040c4f0 f i libohNetCore:Discovery.obj
 0001:0000b520       ??_GSsdpHeaderUsn@Net@OpenHome@@UAEPAXI@Z 0040c520 f i libohNetCore:Discovery.obj
 0001:0000b520       ??_ESsdpHeaderUsn@Net@OpenHome@@UAEPAXI@Z 0040c520 f i libohNetCore:Discovery.obj
 0001:0000b560       ??_GSsdpListenerMulticast@Net@OpenHome@@UAEPAXI@Z 0040c560 f i libohNetCore:Discovery.obj
 0001:0000b560       ??_ESsdpListenerMulticast@Net@OpenHome@@UAEPAXI@Z 0040c560 f i libohNetCore:Discovery.obj
 0001:0000b5a0       ??1?$Srs@$0EAA@@OpenHome@@UAE@XZ 0040c5a0 f i libohNetCore:Discovery.obj
 0001:0000b5d0       ??1ReaderHttpRequest@OpenHome@@QAE@XZ 0040c5d0 f i libohNetCore:Discovery.obj
 0001:0000b650       ??0SsdpHeaderHost@Net@OpenHome@@QAE@XZ 0040c650 f i libohNetCore:Discovery.obj
 0001:0000b680       ??1SsdpHeaderHost@Net@OpenHome@@UAE@XZ 0040c680 f i libohNetCore:Discovery.obj
 0001:0000b6b0       ??0SsdpHeaderMan@Net@OpenHome@@QAE@XZ 0040c6b0 f i libohNetCore:Discovery.obj
 0001:0000b6e0       ??1SsdpHeaderMan@Net@OpenHome@@UAE@XZ 0040c6e0 f i libohNetCore:Discovery.obj
 0001:0000b710       ??0SsdpHeaderMx@Net@OpenHome@@QAE@XZ 0040c710 f i libohNetCore:Discovery.obj
 0001:0000b740       ??1SsdpHeaderMx@Net@OpenHome@@UAE@XZ 0040c740 f i libohNetCore:Discovery.obj
 0001:0000b770       ??0SsdpHeaderNt@Net@OpenHome@@QAE@XZ 0040c770 f i libohNetCore:Discovery.obj
 0001:0000b810       ??1SsdpHeaderNt@Net@OpenHome@@UAE@XZ 0040c810 f i libohNetCore:Discovery.obj
 0001:0000b8a0       ??0SsdpHeaderNts@Net@OpenHome@@QAE@XZ 0040c8a0 f i libohNetCore:Discovery.obj
 0001:0000b8d0       ??1SsdpHeaderNts@Net@OpenHome@@UAE@XZ 0040c8d0 f i libohNetCore:Discovery.obj
 0001:0000b900       ??1Srx@OpenHome@@UAE@XZ    0040c900 f i libohNetCore:Discovery.obj
 0001:0000b970       ??1IReader@OpenHome@@UAE@XZ 0040c970 f i libohNetCore:Discovery.obj
 0001:0000b990       ??_EIReader@OpenHome@@UAEPAXI@Z 0040c990 f i libohNetCore:Discovery.obj
 0001:0000b990       ??_GIReader@OpenHome@@UAEPAXI@Z 0040c990 f i libohNetCore:Discovery.obj
 0001:0000b9d0       ??1ReaderHttpHeader@OpenHome@@QAE@XZ 0040c9d0 f i libohNetCore:Discovery.obj
 0001:0000ba00       ??1?$Bws@$0MI@@OpenHome@@UAE@XZ 0040ca00 f i libohNetCore:Discovery.obj
 0001:0000ba30       ??_ESsdpHeaderHost@Net@OpenHome@@UAEPAXI@Z 0040ca30 f i libohNetCore:Discovery.obj
 0001:0000ba30       ??_GSsdpHeaderHost@Net@OpenHome@@UAEPAXI@Z 0040ca30 f i libohNetCore:Discovery.obj
 0001:0000ba70       ??_ESsdpHeaderMan@Net@OpenHome@@UAEPAXI@Z 0040ca70 f i libohNetCore:Discovery.obj
 0001:0000ba70       ??_GSsdpHeaderMan@Net@OpenHome@@UAEPAXI@Z 0040ca70 f i libohNetCore:Discovery.obj
 0001:0000bab0       ??_ESsdpHeaderMx@Net@OpenHome@@UAEPAXI@Z 0040cab0 f i libohNetCore:Discovery.obj
 0001:0000bab0       ??_GSsdpHeaderMx@Net@OpenHome@@UAEPAXI@Z 0040cab0 f i libohNetCore:Discovery.obj
 0001:0000baf0       ??_ESsdpHeaderNt@Net@OpenHome@@UAEPAXI@Z 0040caf0 f i libohNetCore:Discovery.obj
 0001:0000baf0       ??_GSsdpHeaderNt@Net@OpenHome@@UAEPAXI@Z 0040caf0 f i libohNetCore:Discovery.obj
 0001:0000bb30       ??_GSsdpHeaderNts@Net@OpenHome@@UAEPAXI@Z 0040cb30 f i libohNetCore:Discovery.obj
 0001:0000bb30       ??_ESsdpHeaderNts@Net@OpenHome@@UAEPAXI@Z 0040cb30 f i libohNetCore:Discovery.obj
 0001:0000bb70       ??8Brx@OpenHome@@QBE_NABV01@@Z 0040cb70 f i libohNetCore:Discovery.obj
 0001:0000bba0       ?Mutex@Handler@SsdpListenerMulticast@Net@OpenHome@@QAEAAV04@XZ 0040cba0 f i libohNetCore:Discovery.obj
 0001:0000bbc0       ?IsDisabled@Handler@SsdpListenerMulticast@Net@OpenHome@@QBE_NXZ 0040cbc0 f i libohNetCore:Discovery.obj
 0001:0000bbe0       ?Handler@MsearchHandler@SsdpListenerMulticast@Net@OpenHome@@QAEPAVISsdpMsearchHandler@34@XZ 0040cbe0 f i libohNetCore:Discovery.obj
 0001:0000bc00       ?Handler@NotifyHandler@SsdpListenerMulticast@Net@OpenHome@@QAEPAVISsdpNotifyHandler@34@XZ 0040cc00 f i libohNetCore:Discovery.obj
 0001:0000bc20       ??0NotifyHandler@SsdpListenerMulticast@Net@OpenHome@@QAE@PAVISsdpNotifyHandler@23@H@Z 0040cc20 f i libohNetCore:Discovery.obj
 0001:0000bc60       ??0Handler@SsdpListenerMulticast@Net@OpenHome@@IAE@H@Z 0040cc60 f i libohNetCore:Discovery.obj
 0001:0000bca0       ??0MsearchHandler@SsdpListenerMulticast@Net@OpenHome@@QAE@PAVISsdpMsearchHandler@23@H@Z 0040cca0 f i libohNetCore:Discovery.obj
 0001:0000bce0       ?Id@Handler@SsdpListenerMulticast@Net@OpenHome@@QBEHXZ 0040cce0 f i libohNetCore:Discovery.obj
 0001:0000bd00       ?Lock@Handler@SsdpListenerMulticast@Net@OpenHome@@QAEXXZ 0040cd00 f i libohNetCore:Discovery.obj
 0001:0000bd30       ?Unlock@Handler@SsdpListenerMulticast@Net@OpenHome@@QAEXXZ 0040cd30 f i libohNetCore:Discovery.obj
 0001:0000bd60       ?Disable@Handler@SsdpListenerMulticast@Net@OpenHome@@QAEXXZ 0040cd60 f i libohNetCore:Discovery.obj
 0001:0000bd80       ??1?$_Vector_iterator@V?$_Vector_val@PAVNotifyHandler@SsdpListenerMulticast@Net@OpenHome@@V?$allocator@PAVNotifyHandler@SsdpListenerMulticast@Net@OpenHome@@@std@@@std@@@std@@QAE@XZ 0040cd80 f i libohNetCore:Discovery.obj
 0001:0000bdb0       ??_GNotifyHandler@SsdpListenerMulticast@Net@OpenHome@@QAEPAXI@Z 0040cdb0 f i libohNetCore:Discovery.obj
 0001:0000bdf0       ??0?$_Vector_const_iterator@V?$_Vector_val@PAVNotifyHandler@SsdpListenerMulticast@Net@OpenHome@@V?$allocator@PAVNotifyHandler@SsdpListenerMulticast@Net@OpenHome@@@std@@@std@@@std@@QAE@ABV01@@Z 0040cdf0 f i libohNetCore:Discovery.obj
 0001:0000be30       ??1?$_Vector_const_iterator@V?$_Vector_val@PAVNotifyHandler@SsdpListenerMulticast@Net@OpenHome@@V?$allocator@PAVNotifyHandler@SsdpListenerMulticast@Net@OpenHome@@@std@@@std@@@std@@QAE@XZ 0040ce30 f i libohNetCore:Discovery.obj
 0001:0000be60       ??4?$_Vector_iterator@V?$_Vector_val@PAVNotifyHandler@SsdpListenerMulticast@Net@OpenHome@@V?$allocator@PAVNotifyHandler@SsdpListenerMulticast@Net@OpenHome@@@std@@@std@@@std@@QAEAAV01@ABV01@@Z 0040ce60 f i libohNetCore:Discovery.obj
 0001:0000be90       ??1NotifyHandler@SsdpListenerMulticast@Net@OpenHome@@QAE@XZ 0040ce90 f i libohNetCore:Discovery.obj
 0001:0000bec0       ??1Handler@SsdpListenerMulticast@Net@OpenHome@@QAE@XZ 0040cec0 f i libohNetCore:Discovery.obj
 0001:0000bef0       ??0?$_Iterator012@Urandom_access_iterator_tag@std@@PAVNotifyHandler@SsdpListenerMulticast@Net@OpenHome@@HPBQAV3456@ABQAV3456@U_Iterator_base12@2@@std@@QAE@ABU01@@Z 0040cef0 f i libohNetCore:Discovery.obj
 0001:0000bf20       ??1?$_Iterator012@Urandom_access_iterator_tag@std@@PAVNotifyHandler@SsdpListenerMulticast@Net@OpenHome@@HPBQAV3456@ABQAV3456@U_Iterator_base12@2@@std@@QAE@XZ 0040cf20 f i libohNetCore:Discovery.obj
 0001:0000bf50       ??4?$_Vector_const_iterator@V?$_Vector_val@PAVNotifyHandler@SsdpListenerMulticast@Net@OpenHome@@V?$allocator@PAVNotifyHandler@SsdpListenerMulticast@Net@OpenHome@@@std@@@std@@@std@@QAEAAV01@ABV01@@Z 0040cf50 f i libohNetCore:Discovery.obj
 0001:0000bf90       ??4?$_Iterator012@Urandom_access_iterator_tag@std@@PAVNotifyHandler@SsdpListenerMulticast@Net@OpenHome@@HPBQAV3456@ABQAV3456@U_Iterator_base12@2@@std@@QAEAAU01@ABU01@@Z 0040cf90 f i libohNetCore:Discovery.obj
 0001:0000bfc0       ??1?$_Vector_iterator@V?$_Vector_val@PAVMsearchHandler@SsdpListenerMulticast@Net@OpenHome@@V?$allocator@PAVMsearchHandler@SsdpListenerMulticast@Net@OpenHome@@@std@@@std@@@std@@QAE@XZ 0040cfc0 f i libohNetCore:Discovery.obj
 0001:0000bff0       ??_GMsearchHandler@SsdpListenerMulticast@Net@OpenHome@@QAEPAXI@Z 0040cff0 f i libohNetCore:Discovery.obj
 0001:0000c030       ??0?$_Vector_const_iterator@V?$_Vector_val@PAVMsearchHandler@SsdpListenerMulticast@Net@OpenHome@@V?$allocator@PAVMsearchHandler@SsdpListenerMulticast@Net@OpenHome@@@std@@@std@@@std@@QAE@ABV01@@Z 0040d030 f i libohNetCore:Discovery.obj
 0001:0000c070       ??1?$_Vector_const_iterator@V?$_Vector_val@PAVMsearchHandler@SsdpListenerMulticast@Net@OpenHome@@V?$allocator@PAVMsearchHandler@SsdpListenerMulticast@Net@OpenHome@@@std@@@std@@@std@@QAE@XZ 0040d070 f i libohNetCore:Discovery.obj
 0001:0000c0a0       ??4?$_Vector_iterator@V?$_Vector_val@PAVMsearchHandler@SsdpListenerMulticast@Net@OpenHome@@V?$allocator@PAVMsearchHandler@SsdpListenerMulticast@Net@OpenHome@@@std@@@std@@@std@@QAEAAV01@ABV01@@Z 0040d0a0 f i libohNetCore:Discovery.obj
 0001:0000c0d0       ??1MsearchHandler@SsdpListenerMulticast@Net@OpenHome@@QAE@XZ 0040d0d0 f i libohNetCore:Discovery.obj
 0001:0000c100       ??0?$_Iterator012@Urandom_access_iterator_tag@std@@PAVMsearchHandler@SsdpListenerMulticast@Net@OpenHome@@HPBQAV3456@ABQAV3456@U_Iterator_base12@2@@std@@QAE@ABU01@@Z 0040d100 f i libohNetCore:Discovery.obj
 0001:0000c130       ??1?$_Iterator012@Urandom_access_iterator_tag@std@@PAVMsearchHandler@SsdpListenerMulticast@Net@OpenHome@@HPBQAV3456@ABQAV3456@U_Iterator_base12@2@@std@@QAE@XZ 0040d130 f i libohNetCore:Discovery.obj
 0001:0000c160       ??4?$_Vector_const_iterator@V?$_Vector_val@PAVMsearchHandler@SsdpListenerMulticast@Net@OpenHome@@V?$allocator@PAVMsearchHandler@SsdpListenerMulticast@Net@OpenHome@@@std@@@std@@@std@@QAEAAV01@ABV01@@Z 0040d160 f i libohNetCore:Discovery.obj
 0001:0000c1a0       ??4?$_Iterator012@Urandom_access_iterator_tag@std@@PAVMsearchHandler@SsdpListenerMulticast@Net@OpenHome@@HPBQAV3456@ABQAV3456@U_Iterator_base12@2@@std@@QAEAAU01@ABU01@@Z 0040d1a0 f i libohNetCore:Discovery.obj
 0001:0000c1d0       ??_ESsdpListenerUnicast@Net@OpenHome@@UAEPAXI@Z 0040d1d0 f i libohNetCore:Discovery.obj
 0001:0000c1d0       ??_GSsdpListenerUnicast@Net@OpenHome@@UAEPAXI@Z 0040d1d0 f i libohNetCore:Discovery.obj
 0001:0000c210       ??1UdpWriter@OpenHome@@UAE@XZ 0040d210 f i libohNetCore:Discovery.obj
 0001:0000c240       ??1IWriter@OpenHome@@UAE@XZ 0040d240 f i libohNetCore:Discovery.obj
 0001:0000c260       ??_GIWriter@OpenHome@@UAEPAXI@Z 0040d260 f i libohNetCore:Discovery.obj
 0001:0000c260       ??_EIWriter@OpenHome@@UAEPAXI@Z 0040d260 f i libohNetCore:Discovery.obj
 0001:0000c2a0       ??1UdpReader@OpenHome@@UAE@XZ 0040d2a0 f i libohNetCore:Discovery.obj
 0001:0000c2d0       ??1?$Sws@$0EAA@@OpenHome@@UAE@XZ 0040d2d0 f i libohNetCore:Discovery.obj
 0001:0000c300       ??1SsdpWriterMsearchRequest@Net@OpenHome@@QAE@XZ 0040d300 f i libohNetCore:Discovery.obj
 0001:0000c330       ??1ReaderHttpResponse@OpenHome@@QAE@XZ 0040d330 f i libohNetCore:Discovery.obj
 0001:0000c3b0       ??0SsdpHeaderExt@Net@OpenHome@@QAE@XZ 0040d3b0 f i libohNetCore:Discovery.obj
 0001:0000c3e0       ??1SsdpHeaderExt@Net@OpenHome@@UAE@XZ 0040d3e0 f i libohNetCore:Discovery.obj
 0001:0000c410       ??1Swx@OpenHome@@UAE@XZ    0040d410 f i libohNetCore:Discovery.obj
 0001:0000c480       ??1WriterHttpRequest@OpenHome@@UAE@XZ 0040d480 f i libohNetCore:Discovery.obj
 0001:0000c4f0       ??1IWriterHttpMethod@OpenHome@@UAE@XZ 0040d4f0 f i libohNetCore:Discovery.obj
 0001:0000c510       ??_EIWriterHttpMethod@OpenHome@@UAEPAXI@Z 0040d510 f i libohNetCore:Discovery.obj
 0001:0000c510       ??_GIWriterHttpMethod@OpenHome@@UAEPAXI@Z 0040d510 f i libohNetCore:Discovery.obj
 0001:0000c550       ??1StatusWritable@ReaderHttpResponse@OpenHome@@QAE@XZ 0040d550 f i libohNetCore:Discovery.obj
 0001:0000c580       ??1?$Bws@$0GE@@OpenHome@@UAE@XZ 0040d580 f i libohNetCore:Discovery.obj
 0001:0000c5b0       ??_GSsdpHeaderExt@Net@OpenHome@@UAEPAXI@Z 0040d5b0 f i libohNetCore:Discovery.obj
 0001:0000c5b0       ??_ESsdpHeaderExt@Net@OpenHome@@UAEPAXI@Z 0040d5b0 f i libohNetCore:Discovery.obj
 0001:0000c5f0       ??1WriterHttpHeader@OpenHome@@UAE@XZ 0040d5f0 f i libohNetCore:Discovery.obj
 0001:0000c660       ??1IWriterHttpHeader@OpenHome@@UAE@XZ 0040d660 f i libohNetCore:Discovery.obj
 0001:0000c690       ??_GIWriterHttpHeader@OpenHome@@UAEPAXI@Z 0040d690 f i libohNetCore:Discovery.obj
 0001:0000c690       ??_EIWriterHttpHeader@OpenHome@@UAEPAXI@Z 0040d690 f i libohNetCore:Discovery.obj
 0001:0000c6d0       ??1HttpStatus@OpenHome@@QAE@XZ 0040d6d0 f i libohNetCore:Discovery.obj
 0001:0000c700       ??1WriterHttpField@OpenHome@@UAE@XZ 0040d700 f i libohNetCore:Discovery.obj
 0001:0000c730       ??1WriterAscii@OpenHome@@UAE@XZ 0040d730 f i libohNetCore:Discovery.obj
 0001:0000c760       ??1IWriterAscii@OpenHome@@UAE@XZ 0040d760 f i libohNetCore:Discovery.obj
 0001:0000c790       ??_EIWriterAscii@OpenHome@@UAEPAXI@Z 0040d790 f i libohNetCore:Discovery.obj
 0001:0000c790       ??_GIWriterAscii@OpenHome@@UAEPAXI@Z 0040d790 f i libohNetCore:Discovery.obj
 0001:0000c7d0       ??1?$vector@PAVIHttpHeader@OpenHome@@V?$allocator@PAVIHttpHeader@OpenHome@@@std@@@std@@QAE@XZ 0040d7d0 f i libohNetCore:Discovery.obj
 0001:0000c840       ??1?$vector@PBVBrx@OpenHome@@V?$allocator@PBVBrx@OpenHome@@@std@@@std@@QAE@XZ 0040d840 f i libohNetCore:Discovery.obj
 0001:0000c8b0       ??0?$Sws@$0EAA@@OpenHome@@QAE@AAVIWriter@1@@Z 0040d8b0 f i libohNetCore:Discovery.obj
 0001:0000c900       ?Ptr@?$Sws@$0EAA@@OpenHome@@EAEPAEXZ 0040d900 f i libohNetCore:Discovery.obj
 0001:0000c920       ??0?$vector@PAVNotifyHandler@SsdpListenerMulticast@Net@OpenHome@@V?$allocator@PAVNotifyHandler@SsdpListenerMulticast@Net@OpenHome@@@std@@@std@@QAE@XZ 0040d920 f i libohNetCore:Discovery.obj
 0001:0000c960       ??1?$vector@PAVNotifyHandler@SsdpListenerMulticast@Net@OpenHome@@V?$allocator@PAVNotifyHandler@SsdpListenerMulticast@Net@OpenHome@@@std@@@std@@QAE@XZ 0040d960 f i libohNetCore:Discovery.obj
 0001:0000c9d0       ?begin@?$vector@PAVNotifyHandler@SsdpListenerMulticast@Net@OpenHome@@V?$allocator@PAVNotifyHandler@SsdpListenerMulticast@Net@OpenHome@@@std@@@std@@QAE?AV?$_Vector_iterator@V?$_Vector_val@PAVNotifyHandler@SsdpListenerMulticast@Net@OpenHome@@V?$allocator@PAVNotifyHandler@SsdpListenerMulticast@Net@OpenHome@@@std@@@std@@@2@XZ 0040d9d0 f i libohNetCore:Discovery.obj
 0001:0000ca20       ?end@?$vector@PAVNotifyHandler@SsdpListenerMulticast@Net@OpenHome@@V?$allocator@PAVNotifyHandler@SsdpListenerMulticast@Net@OpenHome@@@std@@@std@@QAE?AV?$_Vector_iterator@V?$_Vector_val@PAVNotifyHandler@SsdpListenerMulticast@Net@OpenHome@@V?$allocator@PAVNotifyHandler@SsdpListenerMulticast@Net@OpenHome@@@std@@@std@@@2@XZ 0040da20 f i libohNetCore:Discovery.obj
 0001:0000ca70       ?size@?$vector@PAVNotifyHandler@SsdpListenerMulticast@Net@OpenHome@@V?$allocator@PAVNotifyHandler@SsdpListenerMulticast@Net@OpenHome@@@std@@@std@@QBEIXZ 0040da70 f i libohNetCore:Discovery.obj
 0001:0000caa0       ??A?$vector@PAVNotifyHandler@SsdpListenerMulticast@Net@OpenHome@@V?$allocator@PAVNotifyHandler@SsdpListenerMulticast@Net@OpenHome@@@std@@@std@@QAEAAPAVNotifyHandler@SsdpListenerMulticast@Net@OpenHome@@I@Z 0040daa0 f i libohNetCore:Discovery.obj
 0001:0000cb40       ?push_back@?$vector@PAVNotifyHandler@SsdpListenerMulticast@Net@OpenHome@@V?$allocator@PAVNotifyHandler@SsdpListenerMulticast@Net@OpenHome@@@std@@@std@@QAEXABQAVNotifyHandler@SsdpListenerMulticast@Net@OpenHome@@@Z 0040db40 f i libohNetCore:Discovery.obj
 0001:0000cc50       ?erase@?$vector@PAVNotifyHandler@SsdpListenerMulticast@Net@OpenHome@@V?$allocator@PAVNotifyHandler@SsdpListenerMulticast@Net@OpenHome@@@std@@@std@@QAE?AV?$_Vector_iterator@V?$_Vector_val@PAVNotifyHandler@SsdpListenerMulticast@Net@OpenHome@@V?$allocator@PAVNotifyHandler@SsdpListenerMulticast@Net@OpenHome@@@std@@@std@@@2@V?$_Vector_const_iterator@V?$_Vector_val@PAVNotifyHandler@SsdpListenerMulticast@Net@OpenHome@@V?$allocator@PAVNotifyHandler@SsdpListenerMulticast@Net@OpenHome@@@std@@@std@@@2@@Z 0040dc50 f i libohNetCore:Discovery.obj
 0001:0000cd80       ??0?$vector@PAVMsearchHandler@SsdpListenerMulticast@Net@OpenHome@@V?$allocator@PAVMsearchHandler@SsdpListenerMulticast@Net@OpenHome@@@std@@@std@@QAE@XZ 0040dd80 f i libohNetCore:Discovery.obj
 0001:0000cdc0       ??1?$vector@PAVMsearchHandler@SsdpListenerMulticast@Net@OpenHome@@V?$allocator@PAVMsearchHandler@SsdpListenerMulticast@Net@OpenHome@@@std@@@std@@QAE@XZ 0040ddc0 f i libohNetCore:Discovery.obj
 0001:0000ce30       ?begin@?$vector@PAVMsearchHandler@SsdpListenerMulticast@Net@OpenHome@@V?$allocator@PAVMsearchHandler@SsdpListenerMulticast@Net@OpenHome@@@std@@@std@@QAE?AV?$_Vector_iterator@V?$_Vector_val@PAVMsearchHandler@SsdpListenerMulticast@Net@OpenHome@@V?$allocator@PAVMsearchHandler@SsdpListenerMulticast@Net@OpenHome@@@std@@@std@@@2@XZ 0040de30 f i libohNetCore:Discovery.obj
 0001:0000ce80       ?end@?$vector@PAVMsearchHandler@SsdpListenerMulticast@Net@OpenHome@@V?$allocator@PAVMsearchHandler@SsdpListenerMulticast@Net@OpenHome@@@std@@@std@@QAE?AV?$_Vector_iterator@V?$_Vector_val@PAVMsearchHandler@SsdpListenerMulticast@Net@OpenHome@@V?$allocator@PAVMsearchHandler@SsdpListenerMulticast@Net@OpenHome@@@std@@@std@@@2@XZ 0040de80 f i libohNetCore:Discovery.obj
 0001:0000ced0       ?size@?$vector@PAVMsearchHandler@SsdpListenerMulticast@Net@OpenHome@@V?$allocator@PAVMsearchHandler@SsdpListenerMulticast@Net@OpenHome@@@std@@@std@@QBEIXZ 0040ded0 f i libohNetCore:Discovery.obj
 0001:0000cf00       ??A?$vector@PAVMsearchHandler@SsdpListenerMulticast@Net@OpenHome@@V?$allocator@PAVMsearchHandler@SsdpListenerMulticast@Net@OpenHome@@@std@@@std@@QAEAAPAVMsearchHandler@SsdpListenerMulticast@Net@OpenHome@@I@Z 0040df00 f i libohNetCore:Discovery.obj
 0001:0000cfa0       ?push_back@?$vector@PAVMsearchHandler@SsdpListenerMulticast@Net@OpenHome@@V?$allocator@PAVMsearchHandler@SsdpListenerMulticast@Net@OpenHome@@@std@@@std@@QAEXABQAVMsearchHandler@SsdpListenerMulticast@Net@OpenHome@@@Z 0040dfa0 f i libohNetCore:Discovery.obj
 0001:0000d0b0       ?erase@?$vector@PAVMsearchHandler@SsdpListenerMulticast@Net@OpenHome@@V?$allocator@PAVMsearchHandler@SsdpListenerMulticast@Net@OpenHome@@@std@@@std@@QAE?AV?$_Vector_iterator@V?$_Vector_val@PAVMsearchHandler@SsdpListenerMulticast@Net@OpenHome@@V?$allocator@PAVMsearchHandler@SsdpListenerMulticast@Net@OpenHome@@@std@@@std@@@2@V?$_Vector_const_iterator@V?$_Vector_val@PAVMsearchHandler@SsdpListenerMulticast@Net@OpenHome@@V?$allocator@PAVMsearchHandler@SsdpListenerMulticast@Net@OpenHome@@@std@@@std@@@2@@Z 0040e0b0 f i libohNetCore:Discovery.obj
 0001:0000d1e0       ??0?$Srs@$0EAA@@OpenHome@@QAE@AAVIReaderSource@1@@Z 0040e1e0 f i libohNetCore:Discovery.obj
 0001:0000d230       ?Ptr@?$Srs@$0EAA@@OpenHome@@EAEPAEXZ 0040e230 f i libohNetCore:Discovery.obj
 0001:0000d250       ??D?$_Vector_iterator@V?$_Vector_val@PAVNotifyHandler@SsdpListenerMulticast@Net@OpenHome@@V?$allocator@PAVNotifyHandler@SsdpListenerMulticast@Net@OpenHome@@@std@@@std@@@std@@QBEAAPAVNotifyHandler@SsdpListenerMulticast@Net@OpenHome@@XZ 0040e250 f i libohNetCore:Discovery.obj
 0001:0000d280       ??E?$_Vector_iterator@V?$_Vector_val@PAVNotifyHandler@SsdpListenerMulticast@Net@OpenHome@@V?$allocator@PAVNotifyHandler@SsdpListenerMulticast@Net@OpenHome@@@std@@@std@@@std@@QAE?AV01@H@Z 0040e280 f i libohNetCore:Discovery.obj
 0001:0000d350       ??9?$_Vector_const_iterator@V?$_Vector_val@PAVNotifyHandler@SsdpListenerMulticast@Net@OpenHome@@V?$allocator@PAVNotifyHandler@SsdpListenerMulticast@Net@OpenHome@@@std@@@std@@@std@@QBE_NABV01@@Z 0040e350 f i libohNetCore:Discovery.obj
 0001:0000d390       ??D?$_Vector_iterator@V?$_Vector_val@PAVMsearchHandler@SsdpListenerMulticast@Net@OpenHome@@V?$allocator@PAVMsearchHandler@SsdpListenerMulticast@Net@OpenHome@@@std@@@std@@@std@@QBEAAPAVMsearchHandler@SsdpListenerMulticast@Net@OpenHome@@XZ 0040e390 f i libohNetCore:Discovery.obj
 0001:0000d3c0       ??E?$_Vector_iterator@V?$_Vector_val@PAVMsearchHandler@SsdpListenerMulticast@Net@OpenHome@@V?$allocator@PAVMsearchHandler@SsdpListenerMulticast@Net@OpenHome@@@std@@@std@@@std@@QAE?AV01@H@Z 0040e3c0 f i libohNetCore:Discovery.obj
 0001:0000d490       ??9?$_Vector_const_iterator@V?$_Vector_val@PAVMsearchHandler@SsdpListenerMulticast@Net@OpenHome@@V?$allocator@PAVMsearchHandler@SsdpListenerMulticast@Net@OpenHome@@@std@@@std@@@std@@QBE_NABV01@@Z 0040e490 f i libohNetCore:Discovery.obj
 0001:0000d4d0       ??_G?$Sws@$0EAA@@OpenHome@@UAEPAXI@Z 0040e4d0 f i libohNetCore:Discovery.obj
 0001:0000d4d0       ??_E?$Sws@$0EAA@@OpenHome@@UAEPAXI@Z 0040e4d0 f i libohNetCore:Discovery.obj
 0001:0000d510       ??_E?$Srs@$0EAA@@OpenHome@@UAEPAXI@Z 0040e510 f i libohNetCore:Discovery.obj
 0001:0000d510       ??_G?$Srs@$0EAA@@OpenHome@@UAEPAXI@Z 0040e510 f i libohNetCore:Discovery.obj
 0001:0000d550       ??0?$_Vector_iterator@V?$_Vector_val@PAVNotifyHandler@SsdpListenerMulticast@Net@OpenHome@@V?$allocator@PAVNotifyHandler@SsdpListenerMulticast@Net@OpenHome@@@std@@@std@@@std@@QAE@ABV01@@Z 0040e550 f i libohNetCore:Discovery.obj
 0001:0000d580       ??0?$_Vector_iterator@V?$_Vector_val@PAVMsearchHandler@SsdpListenerMulticast@Net@OpenHome@@V?$allocator@PAVMsearchHandler@SsdpListenerMulticast@Net@OpenHome@@@std@@@std@@@std@@QAE@ABV01@@Z 0040e580 f i libohNetCore:Discovery.obj
 0001:0000d5b0       ?_Tidy@?$vector@PAVIHttpHeader@OpenHome@@V?$allocator@PAVIHttpHeader@OpenHome@@@std@@@std@@IAEXXZ 0040e5b0 f i libohNetCore:Discovery.obj
 0001:0000d640       ??1?$_Vector_val@PAVIHttpHeader@OpenHome@@V?$allocator@PAVIHttpHeader@OpenHome@@@std@@@std@@QAE@XZ 0040e640 f i libohNetCore:Discovery.obj
 0001:0000d720       ?_Tidy@?$vector@PBVBrx@OpenHome@@V?$allocator@PBVBrx@OpenHome@@@std@@@std@@IAEXXZ 0040e720 f i libohNetCore:Discovery.obj
 0001:0000d7b0       ??1?$_Vector_val@PBVBrx@OpenHome@@V?$allocator@PBVBrx@OpenHome@@@std@@@std@@QAE@XZ 0040e7b0 f i libohNetCore:Discovery.obj
 0001:0000d890       ?_Make_iter@?$vector@PAVNotifyHandler@SsdpListenerMulticast@Net@OpenHome@@V?$allocator@PAVNotifyHandler@SsdpListenerMulticast@Net@OpenHome@@@std@@@std@@QBE?AV?$_Vector_iterator@V?$_Vector_val@PAVNotifyHandler@SsdpListenerMulticast@Net@OpenHome@@V?$allocator@PAVNotifyHandler@SsdpListenerMulticast@Net@OpenHome@@@std@@@std@@@2@V?$_Vector_const_iterator@V?$_Vector_val@PAVNotifyHandler@SsdpListenerMulticast@Net@OpenHome@@V?$allocator@PAVNotifyHandler@SsdpListenerMulticast@Net@OpenHome@@@std@@@std@@@2@@Z 0040e890 f i libohNetCore:Discovery.obj
 0001:0000d920       ?_Destroy@?$vector@PAVNotifyHandler@SsdpListenerMulticast@Net@OpenHome@@V?$allocator@PAVNotifyHandler@SsdpListenerMulticast@Net@OpenHome@@@std@@@std@@IAEXPAPAVNotifyHandler@SsdpListenerMulticast@Net@OpenHome@@0@Z 0040e920 f i libohNetCore:Discovery.obj
 0001:0000d960       ?_Inside@?$vector@PAVNotifyHandler@SsdpListenerMulticast@Net@OpenHome@@V?$allocator@PAVNotifyHandler@SsdpListenerMulticast@Net@OpenHome@@@std@@@std@@IBE_NPBQAVNotifyHandler@SsdpListenerMulticast@Net@OpenHome@@@Z 0040e960 f i libohNetCore:Discovery.obj
 0001:0000d9b0       ?_Reserve@?$vector@PAVNotifyHandler@SsdpListenerMulticast@Net@OpenHome@@V?$allocator@PAVNotifyHandler@SsdpListenerMulticast@Net@OpenHome@@@std@@@std@@IAEXI@Z 0040e9b0 f i libohNetCore:Discovery.obj
 0001:0000da30       ?_Tidy@?$vector@PAVNotifyHandler@SsdpListenerMulticast@Net@OpenHome@@V?$allocator@PAVNotifyHandler@SsdpListenerMulticast@Net@OpenHome@@@std@@@std@@IAEXXZ 0040ea30 f i libohNetCore:Discovery.obj
 0001:0000dac0       ?_Orphan_range@?$vector@PAVNotifyHandler@SsdpListenerMulticast@Net@OpenHome@@V?$allocator@PAVNotifyHandler@SsdpListenerMulticast@Net@OpenHome@@@std@@@std@@IBEXPAPAVNotifyHandler@SsdpListenerMulticast@Net@OpenHome@@0@Z 0040eac0 f i libohNetCore:Discovery.obj
 0001:0000dbd0       ??0?$_Vector_val@PAVNotifyHandler@SsdpListenerMulticast@Net@OpenHome@@V?$allocator@PAVNotifyHandler@SsdpListenerMulticast@Net@OpenHome@@@std@@@std@@QAE@V?$allocator@PAVNotifyHandler@SsdpListenerMulticast@Net@OpenHome@@@1@@Z 0040ebd0 f i libohNetCore:Discovery.obj
 0001:0000dcf0       ??1?$_Vector_val@PAVNotifyHandler@SsdpListenerMulticast@Net@OpenHome@@V?$allocator@PAVNotifyHandler@SsdpListenerMulticast@Net@OpenHome@@@std@@@std@@QAE@XZ 0040ecf0 f i libohNetCore:Discovery.obj
 0001:0000ddd0       ??0?$allocator@PAVNotifyHandler@SsdpListenerMulticast@Net@OpenHome@@@std@@QAE@XZ 0040edd0 f i libohNetCore:Discovery.obj
 0001:0000ddf0       ?_Make_iter@?$vector@PAVMsearchHandler@SsdpListenerMulticast@Net@OpenHome@@V?$allocator@PAVMsearchHandler@SsdpListenerMulticast@Net@OpenHome@@@std@@@std@@QBE?AV?$_Vector_iterator@V?$_Vector_val@PAVMsearchHandler@SsdpListenerMulticast@Net@OpenHome@@V?$allocator@PAVMsearchHandler@SsdpListenerMulticast@Net@OpenHome@@@std@@@std@@@2@V?$_Vector_const_iterator@V?$_Vector_val@PAVMsearchHandler@SsdpListenerMulticast@Net@OpenHome@@V?$allocator@PAVMsearchHandler@SsdpListenerMulticast@Net@OpenHome@@@std@@@std@@@2@@Z 0040edf0 f i libohNetCore:Discovery.obj
 0001:0000de80       ?_Destroy@?$vector@PAVMsearchHandler@SsdpListenerMulticast@Net@OpenHome@@V?$allocator@PAVMsearchHandler@SsdpListenerMulticast@Net@OpenHome@@@std@@@std@@IAEXPAPAVMsearchHandler@SsdpListenerMulticast@Net@OpenHome@@0@Z 0040ee80 f i libohNetCore:Discovery.obj
 0001:0000dec0       ?_Inside@?$vector@PAVMsearchHandler@SsdpListenerMulticast@Net@OpenHome@@V?$allocator@PAVMsearchHandler@SsdpListenerMulticast@Net@OpenHome@@@std@@@std@@IBE_NPBQAVMsearchHandler@SsdpListenerMulticast@Net@OpenHome@@@Z 0040eec0 f i libohNetCore:Discovery.obj
 0001:0000df10       ?_Reserve@?$vector@PAVMsearchHandler@SsdpListenerMulticast@Net@OpenHome@@V?$allocator@PAVMsearchHandler@SsdpListenerMulticast@Net@OpenHome@@@std@@@std@@IAEXI@Z 0040ef10 f i libohNetCore:Discovery.obj
 0001:0000df90       ?_Tidy@?$vector@PAVMsearchHandler@SsdpListenerMulticast@Net@OpenHome@@V?$allocator@PAVMsearchHandler@SsdpListenerMulticast@Net@OpenHome@@@std@@@std@@IAEXXZ 0040ef90 f i libohNetCore:Discovery.obj
 0001:0000e020       ?_Orphan_range@?$vector@PAVMsearchHandler@SsdpListenerMulticast@Net@OpenHome@@V?$allocator@PAVMsearchHandler@SsdpListenerMulticast@Net@OpenHome@@@std@@@std@@IBEXPAPAVMsearchHandler@SsdpListenerMulticast@Net@OpenHome@@0@Z 0040f020 f i libohNetCore:Discovery.obj
 0001:0000e130       ??0?$_Vector_val@PAVMsearchHandler@SsdpListenerMulticast@Net@OpenHome@@V?$allocator@PAVMsearchHandler@SsdpListenerMulticast@Net@OpenHome@@@std@@@std@@QAE@V?$allocator@PAVMsearchHandler@SsdpListenerMulticast@Net@OpenHome@@@1@@Z 0040f130 f i libohNetCore:Discovery.obj
 0001:0000e250       ??1?$_Vector_val@PAVMsearchHandler@SsdpListenerMulticast@Net@OpenHome@@V?$allocator@PAVMsearchHandler@SsdpListenerMulticast@Net@OpenHome@@@std@@@std@@QAE@XZ 0040f250 f i libohNetCore:Discovery.obj
 0001:0000e330       ??0?$allocator@PAVMsearchHandler@SsdpListenerMulticast@Net@OpenHome@@@std@@QAE@XZ 0040f330 f i libohNetCore:Discovery.obj
 0001:0000e350       ??0?$_Vector_iterator@V?$_Vector_val@PAVNotifyHandler@SsdpListenerMulticast@Net@OpenHome@@V?$allocator@PAVNotifyHandler@SsdpListenerMulticast@Net@OpenHome@@@std@@@std@@@std@@QAE@PAPAVNotifyHandler@SsdpListenerMulticast@Net@OpenHome@@PBU_Container_base12@1@@Z 0040f350 f i libohNetCore:Discovery.obj
 0001:0000e390       ??E?$_Vector_iterator@V?$_Vector_val@PAVNotifyHandler@SsdpListenerMulticast@Net@OpenHome@@V?$allocator@PAVNotifyHandler@SsdpListenerMulticast@Net@OpenHome@@@std@@@std@@@std@@QAEAAV01@XZ 0040f390 f i libohNetCore:Discovery.obj
 0001:0000e3c0       ??D?$_Vector_const_iterator@V?$_Vector_val@PAVNotifyHandler@SsdpListenerMulticast@Net@OpenHome@@V?$allocator@PAVNotifyHandler@SsdpListenerMulticast@Net@OpenHome@@@std@@@std@@@std@@QBEABQAVNotifyHandler@SsdpListenerMulticast@Net@OpenHome@@XZ 0040f3c0 f i libohNetCore:Discovery.obj
 0001:0000e480       ??8?$_Vector_const_iterator@V?$_Vector_val@PAVNotifyHandler@SsdpListenerMulticast@Net@OpenHome@@V?$allocator@PAVNotifyHandler@SsdpListenerMulticast@Net@OpenHome@@@std@@@std@@@std@@QBE_NABV01@@Z 0040f480 f i libohNetCore:Discovery.obj
 0001:0000e4c0       ??0?$_Vector_iterator@V?$_Vector_val@PAVMsearchHandler@SsdpListenerMulticast@Net@OpenHome@@V?$allocator@PAVMsearchHandler@SsdpListenerMulticast@Net@OpenHome@@@std@@@std@@@std@@QAE@PAPAVMsearchHandler@SsdpListenerMulticast@Net@OpenHome@@PBU_Container_base12@1@@Z 0040f4c0 f i libohNetCore:Discovery.obj
 0001:0000e500       ??E?$_Vector_iterator@V?$_Vector_val@PAVMsearchHandler@SsdpListenerMulticast@Net@OpenHome@@V?$allocator@PAVMsearchHandler@SsdpListenerMulticast@Net@OpenHome@@@std@@@std@@@std@@QAEAAV01@XZ 0040f500 f i libohNetCore:Discovery.obj
 0001:0000e530       ??D?$_Vector_const_iterator@V?$_Vector_val@PAVMsearchHandler@SsdpListenerMulticast@Net@OpenHome@@V?$allocator@PAVMsearchHandler@SsdpListenerMulticast@Net@OpenHome@@@std@@@std@@@std@@QBEABQAVMsearchHandler@SsdpListenerMulticast@Net@OpenHome@@XZ 0040f530 f i libohNetCore:Discovery.obj
 0001:0000e5f0       ??8?$_Vector_const_iterator@V?$_Vector_val@PAVMsearchHandler@SsdpListenerMulticast@Net@OpenHome@@V?$allocator@PAVMsearchHandler@SsdpListenerMulticast@Net@OpenHome@@@std@@@std@@@std@@QBE_NABV01@@Z 0040f5f0 f i libohNetCore:Discovery.obj
 0001:0000e630       ?_Destroy@?$vector@PAVIHttpHeader@OpenHome@@V?$allocator@PAVIHttpHeader@OpenHome@@@std@@@std@@IAEXPAPAVIHttpHeader@OpenHome@@0@Z 0040f630 f i libohNetCore:Discovery.obj
 0001:0000e670       ?deallocate@?$allocator@PAVIHttpHeader@OpenHome@@@std@@QAEXPAPAVIHttpHeader@OpenHome@@I@Z 0040f670 f i libohNetCore:Discovery.obj
 0001:0000e6a0       ?_Destroy@?$vector@PBVBrx@OpenHome@@V?$allocator@PBVBrx@OpenHome@@@std@@@std@@IAEXPAPBVBrx@OpenHome@@0@Z 0040f6a0 f i libohNetCore:Discovery.obj
 0001:0000e6e0       ?deallocate@?$allocator@PBVBrx@OpenHome@@@std@@QAEXPAPBVBrx@OpenHome@@I@Z 0040f6e0 f i libohNetCore:Discovery.obj
 0001:0000e710       ?reserve@?$vector@PAVNotifyHandler@SsdpListenerMulticast@Net@OpenHome@@V?$allocator@PAVNotifyHandler@SsdpListenerMulticast@Net@OpenHome@@@std@@@std@@QAEXI@Z 0040f710 f i libohNetCore:Discovery.obj
 0001:0000e880       ?capacity@?$vector@PAVNotifyHandler@SsdpListenerMulticast@Net@OpenHome@@V?$allocator@PAVNotifyHandler@SsdpListenerMulticast@Net@OpenHome@@@std@@@std@@QBEIXZ 0040f880 f i libohNetCore:Discovery.obj
 0001:0000e8b0       ?max_size@?$vector@PAVNotifyHandler@SsdpListenerMulticast@Net@OpenHome@@V?$allocator@PAVNotifyHandler@SsdpListenerMulticast@Net@OpenHome@@@std@@@std@@QBEIXZ 0040f8b0 f i libohNetCore:Discovery.obj
 0001:0000e8e0       ?_Grow_to@?$vector@PAVNotifyHandler@SsdpListenerMulticast@Net@OpenHome@@V?$allocator@PAVNotifyHandler@SsdpListenerMulticast@Net@OpenHome@@@std@@@std@@IBEII@Z 0040f8e0 f i libohNetCore:Discovery.obj
 0001:0000e960       ?_Xlen@?$vector@PAVNotifyHandler@SsdpListenerMulticast@Net@OpenHome@@V?$allocator@PAVNotifyHandler@SsdpListenerMulticast@Net@OpenHome@@@std@@@std@@IBEXXZ 0040f960 f i libohNetCore:Discovery.obj
 0001:0000e990       ??0?$allocator@PAVNotifyHandler@SsdpListenerMulticast@Net@OpenHome@@@std@@QAE@ABV01@@Z 0040f990 f i libohNetCore:Discovery.obj
 0001:0000e9b0       ?deallocate@?$allocator@PAVNotifyHandler@SsdpListenerMulticast@Net@OpenHome@@@std@@QAEXPAPAVNotifyHandler@SsdpListenerMulticast@Net@OpenHome@@I@Z 0040f9b0 f i libohNetCore:Discovery.obj
 0001:0000e9e0       ?reserve@?$vector@PAVMsearchHandler@SsdpListenerMulticast@Net@OpenHome@@V?$allocator@PAVMsearchHandler@SsdpListenerMulticast@Net@OpenHome@@@std@@@std@@QAEXI@Z 0040f9e0 f i libohNetCore:Discovery.obj
 0001:0000eb50       ?capacity@?$vector@PAVMsearchHandler@SsdpListenerMulticast@Net@OpenHome@@V?$allocator@PAVMsearchHandler@SsdpListenerMulticast@Net@OpenHome@@@std@@@std@@QBEIXZ 0040fb50 f i libohNetCore:Discovery.obj
 0001:0000eb80       ?max_size@?$vector@PAVMsearchHandler@SsdpListenerMulticast@Net@OpenHome@@V?$allocator@PAVMsearchHandler@SsdpListenerMulticast@Net@OpenHome@@@std@@@std@@QBEIXZ 0040fb80 f i libohNetCore:Discovery.obj
 0001:0000ebb0       ?_Grow_to@?$vector@PAVMsearchHandler@SsdpListenerMulticast@Net@OpenHome@@V?$allocator@PAVMsearchHandler@SsdpListenerMulticast@Net@OpenHome@@@std@@@std@@IBEII@Z 0040fbb0 f i libohNetCore:Discovery.obj
 0001:0000ec30       ?_Xlen@?$vector@PAVMsearchHandler@SsdpListenerMulticast@Net@OpenHome@@V?$allocator@PAVMsearchHandler@SsdpListenerMulticast@Net@OpenHome@@@std@@@std@@IBEXXZ 0040fc30 f i libohNetCore:Discovery.obj
 0001:0000ec60       ??0?$allocator@PAVMsearchHandler@SsdpListenerMulticast@Net@OpenHome@@@std@@QAE@ABV01@@Z 0040fc60 f i libohNetCore:Discovery.obj
 0001:0000ec80       ?deallocate@?$allocator@PAVMsearchHandler@SsdpListenerMulticast@Net@OpenHome@@@std@@QAEXPAPAVMsearchHandler@SsdpListenerMulticast@Net@OpenHome@@I@Z 0040fc80 f i libohNetCore:Discovery.obj
 0001:0000ecb0       ??0?$_Vector_const_iterator@V?$_Vector_val@PAVNotifyHandler@SsdpListenerMulticast@Net@OpenHome@@V?$allocator@PAVNotifyHandler@SsdpListenerMulticast@Net@OpenHome@@@std@@@std@@@std@@QAE@PAPAVNotifyHandler@SsdpListenerMulticast@Net@OpenHome@@PBU_Container_base12@1@@Z 0040fcb0 f i libohNetCore:Discovery.obj
 0001:0000ed30       ??E?$_Vector_const_iterator@V?$_Vector_val@PAVNotifyHandler@SsdpListenerMulticast@Net@OpenHome@@V?$allocator@PAVNotifyHandler@SsdpListenerMulticast@Net@OpenHome@@@std@@@std@@@std@@QAEAAV01@XZ 0040fd30 f i libohNetCore:Discovery.obj
 0001:0000ede0       ?_Compat@?$_Vector_const_iterator@V?$_Vector_val@PAVNotifyHandler@SsdpListenerMulticast@Net@OpenHome@@V?$allocator@PAVNotifyHandler@SsdpListenerMulticast@Net@OpenHome@@@std@@@std@@@std@@QBEXABV12@@Z 0040fde0 f i libohNetCore:Discovery.obj
 0001:0000ee90       ??0?$_Vector_const_iterator@V?$_Vector_val@PAVMsearchHandler@SsdpListenerMulticast@Net@OpenHome@@V?$allocator@PAVMsearchHandler@SsdpListenerMulticast@Net@OpenHome@@@std@@@std@@@std@@QAE@PAPAVMsearchHandler@SsdpListenerMulticast@Net@OpenHome@@PBU_Container_base12@1@@Z 0040fe90 f i libohNetCore:Discovery.obj
 0001:0000ef10       ??E?$_Vector_const_iterator@V?$_Vector_val@PAVMsearchHandler@SsdpListenerMulticast@Net@OpenHome@@V?$allocator@PAVMsearchHandler@SsdpListenerMulticast@Net@OpenHome@@@std@@@std@@@std@@QAEAAV01@XZ 0040ff10 f i libohNetCore:Discovery.obj
 0001:0000efc0       ?_Compat@?$_Vector_const_iterator@V?$_Vector_val@PAVMsearchHandler@SsdpListenerMulticast@Net@OpenHome@@V?$allocator@PAVMsearchHandler@SsdpListenerMulticast@Net@OpenHome@@@std@@@std@@@std@@QBEXABV12@@Z 0040ffc0 f i libohNetCore:Discovery.obj
 0001:0000f070       ??0?$_Iterator012@Urandom_access_iterator_tag@std@@PAVNotifyHandler@SsdpListenerMulticast@Net@OpenHome@@HPBQAV3456@ABQAV3456@U_Iterator_base12@2@@std@@QAE@XZ 00410070 f i libohNetCore:Discovery.obj
 0001:0000f0a0       ??0?$_Iterator012@Urandom_access_iterator_tag@std@@PAVMsearchHandler@SsdpListenerMulticast@Net@OpenHome@@HPBQAV3456@ABQAV3456@U_Iterator_base12@2@@std@@QAE@XZ 004100a0 f i libohNetCore:Discovery.obj
 0001:0000f0d0       ?allocate@?$allocator@PAVNotifyHandler@SsdpListenerMulticast@Net@OpenHome@@@std@@QAEPAPAVNotifyHandler@SsdpListenerMulticast@Net@OpenHome@@I@Z 004100d0 f i libohNetCore:Discovery.obj
 0001:0000f100       ?max_size@?$allocator@PAVNotifyHandler@SsdpListenerMulticast@Net@OpenHome@@@std@@QBEIXZ 00410100 f i libohNetCore:Discovery.obj
 0001:0000f150       ?allocate@?$allocator@PAVMsearchHandler@SsdpListenerMulticast@Net@OpenHome@@@std@@QAEPAPAVMsearchHandler@SsdpListenerMulticast@Net@OpenHome@@I@Z 00410150 f i libohNetCore:Discovery.obj
 0001:0000f180       ?max_size@?$allocator@PAVMsearchHandler@SsdpListenerMulticast@Net@OpenHome@@@std@@QBEIXZ 00410180 f i libohNetCore:Discovery.obj
 0001:0000f1d0       ??0?$Bws@$0DOI@@OpenHome@@QAE@XZ 004101d0 f i libohNetCore:Discovery.obj
 0001:0000f210       ?Ptr@?$Bws@$0DOI@@OpenHome@@UBEPBEXZ 00410210 f i libohNetCore:Discovery.obj
 0001:0000f230       ??0?$Bws@$0EA@@OpenHome@@QAE@XZ 00410230 f i libohNetCore:Discovery.obj
 0001:0000f270       ?Ptr@?$Bws@$0EA@@OpenHome@@UBEPBEXZ 00410270 f i libohNetCore:Discovery.obj
 0001:0000f290       ??$addressof@QAVNotifyHandler@SsdpListenerMulticast@Net@OpenHome@@@std@@YGPBQAVNotifyHandler@SsdpListenerMulticast@Net@OpenHome@@ABQAV1234@@Z 00410290 f i libohNetCore:Discovery.obj
 0001:0000f2a0       ??$_Cons_val@V?$allocator@PAVNotifyHandler@SsdpListenerMulticast@Net@OpenHome@@@std@@PAVNotifyHandler@SsdpListenerMulticast@Net@OpenHome@@AAPAV3456@@std@@YGXAAV?$allocator@PAVNotifyHandler@SsdpListenerMulticast@Net@OpenHome@@@0@PAPAVNotifyHandler@SsdpListenerMulticast@Net@OpenHome@@AAPAV2345@@Z 004102a0 f i libohNetCore:Discovery.obj
 0001:0000f2d0       ??$_Cons_val@V?$allocator@PAVNotifyHandler@SsdpListenerMulticast@Net@OpenHome@@@std@@PAVNotifyHandler@SsdpListenerMulticast@Net@OpenHome@@ABQAV3456@@std@@YGXAAV?$allocator@PAVNotifyHandler@SsdpListenerMulticast@Net@OpenHome@@@0@PAPAVNotifyHandler@SsdpListenerMulticast@Net@OpenHome@@ABQAV2345@@Z 004102d0 f i libohNetCore:Discovery.obj
 0001:0000f300       ??$_Move@PAPAVNotifyHandler@SsdpListenerMulticast@Net@OpenHome@@PAPAV1234@@std@@YGPAPAVNotifyHandler@SsdpListenerMulticast@Net@OpenHome@@PAPAV1234@00@Z 00410300 f i libohNetCore:Discovery.obj
 0001:0000f350       ??$addressof@QAVMsearchHandler@SsdpListenerMulticast@Net@OpenHome@@@std@@YGPBQAVMsearchHandler@SsdpListenerMulticast@Net@OpenHome@@ABQAV1234@@Z 00410350 f i libohNetCore:Discovery.obj
 0001:0000f360       ??$_Cons_val@V?$allocator@PAVMsearchHandler@SsdpListenerMulticast@Net@OpenHome@@@std@@PAVMsearchHandler@SsdpListenerMulticast@Net@OpenHome@@AAPAV3456@@std@@YGXAAV?$allocator@PAVMsearchHandler@SsdpListenerMulticast@Net@OpenHome@@@0@PAPAVMsearchHandler@SsdpListenerMulticast@Net@OpenHome@@AAPAV2345@@Z 00410360 f i libohNetCore:Discovery.obj
 0001:0000f390       ??$_Cons_val@V?$allocator@PAVMsearchHandler@SsdpListenerMulticast@Net@OpenHome@@@std@@PAVMsearchHandler@SsdpListenerMulticast@Net@OpenHome@@ABQAV3456@@std@@YGXAAV?$allocator@PAVMsearchHandler@SsdpListenerMulticast@Net@OpenHome@@@0@PAPAVMsearchHandler@SsdpListenerMulticast@Net@OpenHome@@ABQAV2345@@Z 00410390 f i libohNetCore:Discovery.obj
 0001:0000f3c0       ??$_Move@PAPAVMsearchHandler@SsdpListenerMulticast@Net@OpenHome@@PAPAV1234@@std@@YGPAPAVMsearchHandler@SsdpListenerMulticast@Net@OpenHome@@PAPAV1234@00@Z 004103c0 f i libohNetCore:Discovery.obj
 0001:0000f410       ??$?0PAVIHttpHeader@OpenHome@@@?$allocator@U_Container_proxy@std@@@std@@QAE@ABV?$allocator@PAVIHttpHeader@OpenHome@@@1@@Z 00410410 f i libohNetCore:Discovery.obj
 0001:0000f430       ??$?0PBVBrx@OpenHome@@@?$allocator@U_Container_proxy@std@@@std@@QAE@ABV?$allocator@PBVBrx@OpenHome@@@1@@Z 00410430 f i libohNetCore:Discovery.obj
 0001:0000f450       ??$_Destroy_range@V?$allocator@PAVNotifyHandler@SsdpListenerMulticast@Net@OpenHome@@@std@@@std@@YGXPAPAVNotifyHandler@SsdpListenerMulticast@Net@OpenHome@@0AAV?$allocator@PAVNotifyHandler@SsdpListenerMulticast@Net@OpenHome@@@0@@Z 00410450 f i libohNetCore:Discovery.obj
 0001:0000f4a0       ??$?0PAVNotifyHandler@SsdpListenerMulticast@Net@OpenHome@@@?$allocator@U_Container_proxy@std@@@std@@QAE@ABV?$allocator@PAVNotifyHandler@SsdpListenerMulticast@Net@OpenHome@@@1@@Z 004104a0 f i libohNetCore:Discovery.obj
 0001:0000f4c0       ??$_Destroy_range@V?$allocator@PAVMsearchHandler@SsdpListenerMulticast@Net@OpenHome@@@std@@@std@@YGXPAPAVMsearchHandler@SsdpListenerMulticast@Net@OpenHome@@0AAV?$allocator@PAVMsearchHandler@SsdpListenerMulticast@Net@OpenHome@@@0@@Z 004104c0 f i libohNetCore:Discovery.obj
 0001:0000f510       ??$?0PAVMsearchHandler@SsdpListenerMulticast@Net@OpenHome@@@?$allocator@U_Container_proxy@std@@@std@@QAE@ABV?$allocator@PAVMsearchHandler@SsdpListenerMulticast@Net@OpenHome@@@1@@Z 00410510 f i libohNetCore:Discovery.obj
 0001:0000f530       ??$_Destroy_range@V?$allocator@PAVIHttpHeader@OpenHome@@@std@@@std@@YGXPAPAVIHttpHeader@OpenHome@@0AAV?$allocator@PAVIHttpHeader@OpenHome@@@0@@Z 00410530 f i libohNetCore:Discovery.obj
 0001:0000f580       ??$_Destroy_range@V?$allocator@PBVBrx@OpenHome@@@std@@@std@@YGXPAPBVBrx@OpenHome@@0AAV?$allocator@PBVBrx@OpenHome@@@0@@Z 00410580 f i libohNetCore:Discovery.obj
 0001:0000f5d0       ??$_Umove@PAPAVNotifyHandler@SsdpListenerMulticast@Net@OpenHome@@@?$vector@PAVNotifyHandler@SsdpListenerMulticast@Net@OpenHome@@V?$allocator@PAVNotifyHandler@SsdpListenerMulticast@Net@OpenHome@@@std@@@std@@IAEPAPAVNotifyHandler@SsdpListenerMulticast@Net@OpenHome@@PAPAV2345@00@Z 004105d0 f i libohNetCore:Discovery.obj
 0001:0000f610       ??$_Umove@PAPAVMsearchHandler@SsdpListenerMulticast@Net@OpenHome@@@?$vector@PAVMsearchHandler@SsdpListenerMulticast@Net@OpenHome@@V?$allocator@PAVMsearchHandler@SsdpListenerMulticast@Net@OpenHome@@@std@@@std@@IAEPAPAVMsearchHandler@SsdpListenerMulticast@Net@OpenHome@@PAPAV2345@00@Z 00410610 f i libohNetCore:Discovery.obj
 0001:0000f650       ??$_Allocate@PAVNotifyHandler@SsdpListenerMulticast@Net@OpenHome@@@std@@YGPAPAVNotifyHandler@SsdpListenerMulticast@Net@OpenHome@@IPAPAV1234@@Z 00410650 f i libohNetCore:Discovery.obj
 0001:0000f6d0       ??$_Allocate@PAVMsearchHandler@SsdpListenerMulticast@Net@OpenHome@@@std@@YGPAPAVMsearchHandler@SsdpListenerMulticast@Net@OpenHome@@IPAPAV1234@@Z 004106d0 f i libohNetCore:Discovery.obj
 0001:0000f750       ??_G?$Bws@$0DOI@@OpenHome@@UAEPAXI@Z 00410750 f i libohNetCore:Discovery.obj
 0001:0000f750       ??_E?$Bws@$0DOI@@OpenHome@@UAEPAXI@Z 00410750 f i libohNetCore:Discovery.obj
 0001:0000f790       ??_G?$Bws@$0EA@@OpenHome@@UAEPAXI@Z 00410790 f i libohNetCore:Discovery.obj
 0001:0000f790       ??_E?$Bws@$0EA@@OpenHome@@UAEPAXI@Z 00410790 f i libohNetCore:Discovery.obj
 0001:0000f7d0       ?construct@?$allocator@PAVNotifyHandler@SsdpListenerMulticast@Net@OpenHome@@@std@@QAEXPAPAVNotifyHandler@SsdpListenerMulticast@Net@OpenHome@@ABQAV3456@@Z 004107d0 f i libohNetCore:Discovery.obj
 0001:0000f800       ?construct@?$allocator@PAVMsearchHandler@SsdpListenerMulticast@Net@OpenHome@@@std@@QAEXPAPAVMsearchHandler@SsdpListenerMulticast@Net@OpenHome@@ABQAV3456@@Z 00410800 f i libohNetCore:Discovery.obj
 0001:0000f830       ??$forward@AAPAVNotifyHandler@SsdpListenerMulticast@Net@OpenHome@@@std@@YGAAPAVNotifyHandler@SsdpListenerMulticast@Net@OpenHome@@AAPAV1234@@Z 00410830 f i libohNetCore:Discovery.obj
 0001:0000f840       ??$construct@AAPAVNotifyHandler@SsdpListenerMulticast@Net@OpenHome@@@?$allocator@PAVNotifyHandler@SsdpListenerMulticast@Net@OpenHome@@@std@@QAEXPAPAVNotifyHandler@SsdpListenerMulticast@Net@OpenHome@@AAPAV2345@@Z 00410840 f i libohNetCore:Discovery.obj
 0001:0000f8e0       ??$forward@ABQAVNotifyHandler@SsdpListenerMulticast@Net@OpenHome@@@std@@YGABQAVNotifyHandler@SsdpListenerMulticast@Net@OpenHome@@ABQAV1234@@Z 004108e0 f i libohNetCore:Discovery.obj
 0001:0000f8f0       ??$_Ptr_cat@PAVNotifyHandler@SsdpListenerMulticast@Net@OpenHome@@PAV1234@@std@@YG?AU_Scalar_ptr_iterator_tag@0@PAPAVNotifyHandler@SsdpListenerMulticast@Net@OpenHome@@0@Z 004108f0 f i libohNetCore:Discovery.obj
 0001:0000f950       ??$_Move@PAPAVNotifyHandler@SsdpListenerMulticast@Net@OpenHome@@PAPAV1234@@std@@YGPAPAVNotifyHandler@SsdpListenerMulticast@Net@OpenHome@@PAPAV1234@00U_Scalar_ptr_iterator_tag@0@@Z 00410950 f i libohNetCore:Discovery.obj
 0001:0000f9a0       ??$forward@AAPAVMsearchHandler@SsdpListenerMulticast@Net@OpenHome@@@std@@YGAAPAVMsearchHandler@SsdpListenerMulticast@Net@OpenHome@@AAPAV1234@@Z 004109a0 f i libohNetCore:Discovery.obj
 0001:0000f9b0       ??$construct@AAPAVMsearchHandler@SsdpListenerMulticast@Net@OpenHome@@@?$allocator@PAVMsearchHandler@SsdpListenerMulticast@Net@OpenHome@@@std@@QAEXPAPAVMsearchHandler@SsdpListenerMulticast@Net@OpenHome@@AAPAV2345@@Z 004109b0 f i libohNetCore:Discovery.obj
 0001:0000fa50       ??$forward@ABQAVMsearchHandler@SsdpListenerMulticast@Net@OpenHome@@@std@@YGABQAVMsearchHandler@SsdpListenerMulticast@Net@OpenHome@@ABQAV1234@@Z 00410a50 f i libohNetCore:Discovery.obj
 0001:0000fa60       ??$_Ptr_cat@PAVMsearchHandler@SsdpListenerMulticast@Net@OpenHome@@PAV1234@@std@@YG?AU_Scalar_ptr_iterator_tag@0@PAPAVMsearchHandler@SsdpListenerMulticast@Net@OpenHome@@0@Z 00410a60 f i libohNetCore:Discovery.obj
 0001:0000fac0       ??$_Move@PAPAVMsearchHandler@SsdpListenerMulticast@Net@OpenHome@@PAPAV1234@@std@@YGPAPAVMsearchHandler@SsdpListenerMulticast@Net@OpenHome@@PAPAV1234@00U_Scalar_ptr_iterator_tag@0@@Z 00410ac0 f i libohNetCore:Discovery.obj
 0001:0000fb10       ??$_Destroy_range@V?$allocator@PAVNotifyHandler@SsdpListenerMulticast@Net@OpenHome@@@std@@@std@@YGXPAPAVNotifyHandler@SsdpListenerMulticast@Net@OpenHome@@0AAV?$allocator@PAVNotifyHandler@SsdpListenerMulticast@Net@OpenHome@@@0@U_Scalar_ptr_iterator_tag@0@@Z 00410b10 f i libohNetCore:Discovery.obj
 0001:0000fb20       ??$_Destroy_range@V?$allocator@PAVMsearchHandler@SsdpListenerMulticast@Net@OpenHome@@@std@@@std@@YGXPAPAVMsearchHandler@SsdpListenerMulticast@Net@OpenHome@@0AAV?$allocator@PAVMsearchHandler@SsdpListenerMulticast@Net@OpenHome@@@0@U_Scalar_ptr_iterator_tag@0@@Z 00410b20 f i libohNetCore:Discovery.obj
 0001:0000fb30       ??$_Ptr_cat@PAVIHttpHeader@OpenHome@@PAV12@@std@@YG?AU_Scalar_ptr_iterator_tag@0@PAPAVIHttpHeader@OpenHome@@0@Z 00410b30 f i libohNetCore:Discovery.obj
 0001:0000fb90       ??$_Destroy_range@V?$allocator@PAVIHttpHeader@OpenHome@@@std@@@std@@YGXPAPAVIHttpHeader@OpenHome@@0AAV?$allocator@PAVIHttpHeader@OpenHome@@@0@U_Scalar_ptr_iterator_tag@0@@Z 00410b90 f i libohNetCore:Discovery.obj
 0001:0000fba0       ??$_Ptr_cat@PBVBrx@OpenHome@@PBV12@@std@@YG?AU_Scalar_ptr_iterator_tag@0@PAPBVBrx@OpenHome@@0@Z 00410ba0 f i libohNetCore:Discovery.obj
 0001:0000fc00       ??$_Destroy_range@V?$allocator@PBVBrx@OpenHome@@@std@@@std@@YGXPAPBVBrx@OpenHome@@0AAV?$allocator@PBVBrx@OpenHome@@@0@U_Scalar_ptr_iterator_tag@0@@Z 00410c00 f i libohNetCore:Discovery.obj
 0001:0000fc10       ??$_Uninitialized_move@PAPAVNotifyHandler@SsdpListenerMulticast@Net@OpenHome@@PAPAV1234@V?$allocator@PAVNotifyHandler@SsdpListenerMulticast@Net@OpenHome@@@std@@@std@@YGPAPAVNotifyHandler@SsdpListenerMulticast@Net@OpenHome@@PAPAV1234@00AAV?$allocator@PAVNotifyHandler@SsdpListenerMulticast@Net@OpenHome@@@0@@Z 00410c10 f i libohNetCore:Discovery.obj
 0001:0000fc60       ??$_Uninitialized_move@PAPAVMsearchHandler@SsdpListenerMulticast@Net@OpenHome@@PAPAV1234@V?$allocator@PAVMsearchHandler@SsdpListenerMulticast@Net@OpenHome@@@std@@@std@@YGPAPAVMsearchHandler@SsdpListenerMulticast@Net@OpenHome@@PAPAV1234@00AAV?$allocator@PAVMsearchHandler@SsdpListenerMulticast@Net@OpenHome@@@0@@Z 00410c60 f i libohNetCore:Discovery.obj
 0001:0000fcb0       ??$_Construct@PAVNotifyHandler@SsdpListenerMulticast@Net@OpenHome@@ABQAV1234@@std@@YGXPAPAVNotifyHandler@SsdpListenerMulticast@Net@OpenHome@@ABQAV1234@@Z 00410cb0 f i libohNetCore:Discovery.obj
 0001:0000fd60       ??$_Construct@PAVMsearchHandler@SsdpListenerMulticast@Net@OpenHome@@ABQAV1234@@std@@YGXPAPAVMsearchHandler@SsdpListenerMulticast@Net@OpenHome@@ABQAV1234@@Z 00410d60 f i libohNetCore:Discovery.obj
 0001:0000fe10       ??$_Val_type@PAPAVNotifyHandler@SsdpListenerMulticast@Net@OpenHome@@@std@@YGPAPAVNotifyHandler@SsdpListenerMulticast@Net@OpenHome@@PAPAV1234@@Z 00410e10 f i libohNetCore:Discovery.obj
 0001:0000fe20       ??$_Uninit_move@PAVNotifyHandler@SsdpListenerMulticast@Net@OpenHome@@PAV1234@PAV1234@@std@@YGPAPAVNotifyHandler@SsdpListenerMulticast@Net@OpenHome@@PAPAV1234@00AAV?$allocator@PAVNotifyHandler@SsdpListenerMulticast@Net@OpenHome@@@0@0U_Scalar_ptr_iterator_tag@0@@Z 00410e20 f i libohNetCore:Discovery.obj
 0001:0000fe90       ??$_Val_type@PAPAVMsearchHandler@SsdpListenerMulticast@Net@OpenHome@@@std@@YGPAPAVMsearchHandler@SsdpListenerMulticast@Net@OpenHome@@PAPAV1234@@Z 00410e90 f i libohNetCore:Discovery.obj
 0001:0000fea0       ??$_Uninit_move@PAVMsearchHandler@SsdpListenerMulticast@Net@OpenHome@@PAV1234@PAV1234@@std@@YGPAPAVMsearchHandler@SsdpListenerMulticast@Net@OpenHome@@PAPAV1234@00AAV?$allocator@PAVMsearchHandler@SsdpListenerMulticast@Net@OpenHome@@@0@0U_Scalar_ptr_iterator_tag@0@@Z 00410ea0 f i libohNetCore:Discovery.obj
 0001:0000ff10       ??$_Debug_range@PAPAVNotifyHandler@SsdpListenerMulticast@Net@OpenHome@@@std@@YGXPAPAVNotifyHandler@SsdpListenerMulticast@Net@OpenHome@@0PB_WI@Z 00410f10 f i libohNetCore:Discovery.obj
 0001:0000ff60       ??$_Debug_pointer@PAVNotifyHandler@SsdpListenerMulticast@Net@OpenHome@@@std@@YGXPAPAVNotifyHandler@SsdpListenerMulticast@Net@OpenHome@@PB_WI@Z 00410f60 f i libohNetCore:Discovery.obj
 0001:0000ff90       ??$_Debug_range@PAPAVMsearchHandler@SsdpListenerMulticast@Net@OpenHome@@@std@@YGXPAPAVMsearchHandler@SsdpListenerMulticast@Net@OpenHome@@0PB_WI@Z 00410f90 f i libohNetCore:Discovery.obj
 0001:0000ffe0       ??$_Debug_pointer@PAVMsearchHandler@SsdpListenerMulticast@Net@OpenHome@@@std@@YGXPAPAVMsearchHandler@SsdpListenerMulticast@Net@OpenHome@@PB_WI@Z 00410fe0 f i libohNetCore:Discovery.obj
 0001:00010010       ??$_Iter_cat@PAPAVNotifyHandler@SsdpListenerMulticast@Net@OpenHome@@@std@@YG?AUrandom_access_iterator_tag@0@ABQAPAVNotifyHandler@SsdpListenerMulticast@Net@OpenHome@@@Z 00411010 f i libohNetCore:Discovery.obj
 0001:00010070       ??$_Debug_range2@PAPAVNotifyHandler@SsdpListenerMulticast@Net@OpenHome@@@std@@YGXPAPAVNotifyHandler@SsdpListenerMulticast@Net@OpenHome@@0PB_WIUrandom_access_iterator_tag@0@@Z 00411070 f i libohNetCore:Discovery.obj
 0001:000100d0       ??$_Iter_cat@PAPAVMsearchHandler@SsdpListenerMulticast@Net@OpenHome@@@std@@YG?AUrandom_access_iterator_tag@0@ABQAPAVMsearchHandler@SsdpListenerMulticast@Net@OpenHome@@@Z 004110d0 f i libohNetCore:Discovery.obj
 0001:00010130       ??$_Debug_range2@PAPAVMsearchHandler@SsdpListenerMulticast@Net@OpenHome@@@std@@YGXPAPAVMsearchHandler@SsdpListenerMulticast@Net@OpenHome@@0PB_WIUrandom_access_iterator_tag@0@@Z 00411130 f i libohNetCore:Discovery.obj
 0001:00010190       ??_ESsdpSocketReader@Net@OpenHome@@WBI@AEPAXI@Z 00411190 f i libohNetCore:Discovery.obj
 0001:000101a0       ??_E?$Sws@$0EAA@@OpenHome@@WM@AEPAXI@Z 004111a0 f i libohNetCore:Discovery.obj
 0001:000101b0       ??_E?$Srs@$0EAA@@OpenHome@@WM@AEPAXI@Z 004111b0 f i libohNetCore:Discovery.obj
 0001:000101c0       ?UpnpDomainToCanonical@Ssdp@Net@OpenHome@@SGXABVBrx@3@AAVBwx@3@@Z 004111c0 f   libohNetCore:Ssdp.obj
 0001:00010250       ?CanonicalDomainToUpnp@Ssdp@Net@OpenHome@@SGXABVBrx@3@AAVBwx@3@@Z 00411250 f   libohNetCore:Ssdp.obj
 0001:000102e0       ?WriteRoot@Ssdp@Net@OpenHome@@SGXAAVIWriter@3@@Z 004112e0 f   libohNetCore:Ssdp.obj
 0001:00010310       ?WriteUuid@Ssdp@Net@OpenHome@@SGXAAVIWriter@3@ABVBrx@3@@Z 00411310 f   libohNetCore:Ssdp.obj
 0001:00010370       ?WriteDeviceType@Ssdp@Net@OpenHome@@SGXAAVIWriter@3@ABVBrx@3@1I@Z 00411370 f   libohNetCore:Ssdp.obj
 0001:00010500       ?WriteServiceType@Ssdp@Net@OpenHome@@SGXAAVIWriter@3@ABVBrx@3@1I@Z 00411500 f   libohNetCore:Ssdp.obj
 0001:00010690       ?WriteMethodNotify@Ssdp@Net@OpenHome@@SGXAAVIWriterHttpMethod@3@@Z 00411690 f   libohNetCore:Ssdp.obj
 0001:000106d0       ?WriteMethodMsearch@Ssdp@Net@OpenHome@@SGXAAVIWriterHttpMethod@3@@Z 004116d0 f   libohNetCore:Ssdp.obj
 0001:00010710       ?WriteHost@Ssdp@Net@OpenHome@@SGXAAVIWriterHttpHeader@3@@Z 00411710 f   libohNetCore:Ssdp.obj
 0001:00010740       ?WriteMan@Ssdp@Net@OpenHome@@SGXAAVIWriterHttpHeader@3@@Z 00411740 f   libohNetCore:Ssdp.obj
 0001:00010770       ?WriteMx@Ssdp@Net@OpenHome@@SGXAAVIWriterHttpHeader@3@I@Z 00411770 f   libohNetCore:Ssdp.obj
 0001:000107e0       ?WriteSearchTypeRoot@Ssdp@Net@OpenHome@@SGXAAVIWriterHttpHeader@3@@Z 004117e0 f   libohNetCore:Ssdp.obj
 0001:00010840       ?WriteSearchTypeUuid@Ssdp@Net@OpenHome@@SGXAAVIWriterHttpHeader@3@ABVBrx@3@@Z 00411840 f   libohNetCore:Ssdp.obj
 0001:000108a0       ?WriteSearchTypeDeviceType@Ssdp@Net@OpenHome@@SGXAAVIWriterHttpHeader@3@ABVBrx@3@1I@Z 004118a0 f   libohNetCore:Ssdp.obj
 0001:00010910       ?WriteSearchTypeServiceType@Ssdp@Net@OpenHome@@SGXAAVIWriterHttpHeader@3@ABVBrx@3@1I@Z 00411910 f   libohNetCore:Ssdp.obj
 0001:00010980       ?WriteSearchTypeAll@Ssdp@Net@OpenHome@@SGXAAVIWriterHttpHeader@3@@Z 00411980 f   libohNetCore:Ssdp.obj
 0001:000109b0       ?WriteServer@Ssdp@Net@OpenHome@@SGXAAVIWriterHttpHeader@3@@Z 004119b0 f   libohNetCore:Ssdp.obj
 0001:00010bd0       ?WriteMaxAge@Ssdp@Net@OpenHome@@SGXAAVIWriterHttpHeader@3@@Z 00411bd0 f   libohNetCore:Ssdp.obj
 0001:00010cb0       ?WriteLocation@Ssdp@Net@OpenHome@@SGXAAVIWriterHttpHeader@3@ABVBrx@3@@Z 00411cb0 f   libohNetCore:Ssdp.obj
 0001:00010d20       ?WriteSubTypeAlive@Ssdp@Net@OpenHome@@SGXAAVIWriterHttpHeader@3@@Z 00411d20 f   libohNetCore:Ssdp.obj
 0001:00010d50       ?WriteSubTypeByeBye@Ssdp@Net@OpenHome@@SGXAAVIWriterHttpHeader@3@@Z 00411d50 f   libohNetCore:Ssdp.obj
 0001:00010d80       ?WriteStatus@Ssdp@Net@OpenHome@@SGXAAVIWriterHttpStatus@3@@Z 00411d80 f   libohNetCore:Ssdp.obj
 0001:00010db0       ?WriteExt@Ssdp@Net@OpenHome@@SGXAAVIWriterHttpHeader@3@@Z 00411db0 f   libohNetCore:Ssdp.obj
 0001:00010e10       ?WriteNotificationTypeRoot@Ssdp@Net@OpenHome@@SGXAAVIWriterHttpHeader@3@@Z 00411e10 f   libohNetCore:Ssdp.obj
 0001:00010e70       ?WriteNotificationTypeUuid@Ssdp@Net@OpenHome@@SGXAAVIWriterHttpHeader@3@ABVBrx@3@@Z 00411e70 f   libohNetCore:Ssdp.obj
 0001:00010ed0       ?WriteNotificationTypeDeviceType@Ssdp@Net@OpenHome@@SGXAAVIWriterHttpHeader@3@ABVBrx@3@1I@Z 00411ed0 f   libohNetCore:Ssdp.obj
 0001:00010f40       ?WriteNotificationTypeServiceType@Ssdp@Net@OpenHome@@SGXAAVIWriterHttpHeader@3@ABVBrx@3@1I@Z 00411f40 f   libohNetCore:Ssdp.obj
 0001:00010fb0       ?WriteUsnRoot@Ssdp@Net@OpenHome@@SGXAAVIWriterHttpHeader@3@ABVBrx@3@@Z 00411fb0 f   libohNetCore:Ssdp.obj
 0001:00011040       ?WriteUsnUuid@Ssdp@Net@OpenHome@@SGXAAVIWriterHttpHeader@3@ABVBrx@3@@Z 00412040 f   libohNetCore:Ssdp.obj
 0001:000110a0       ?WriteUsnDeviceType@Ssdp@Net@OpenHome@@SGXAAVIWriterHttpHeader@3@ABVBrx@3@1I1@Z 004120a0 f   libohNetCore:Ssdp.obj
 0001:00011130       ?WriteUsnServiceType@Ssdp@Net@OpenHome@@SGXAAVIWriterHttpHeader@3@ABVBrx@3@1I1@Z 00412130 f   libohNetCore:Ssdp.obj
 0001:000111c0       ?WriteConfigId@Ssdp@Net@OpenHome@@SGXAAVIWriterHttpHeader@3@I@Z 004121c0 f   libohNetCore:Ssdp.obj
 0001:00011230       ?WriteSearchPort@Ssdp@Net@OpenHome@@SGXAAVIWriterHttpHeader@3@I@Z 00412230 f   libohNetCore:Ssdp.obj
 0001:000112a0       ?ParseUrnDevice@Ssdp@Net@OpenHome@@SG_NABVBrx@3@AAVBrn@3@1AAI@Z 004122a0 f   libohNetCore:Ssdp.obj
 0001:000112d0       ?ParseUrnService@Ssdp@Net@OpenHome@@SG_NABVBrx@3@AAVBrn@3@1AAI@Z 004122d0 f   libohNetCore:Ssdp.obj
 0001:00011300       ?ParseUrn@Ssdp@Net@OpenHome@@CG_NABVBrx@3@0AAVBrn@3@1AAI@Z 00412300 f   libohNetCore:Ssdp.obj
 0001:00011510       ?MaxAge@SsdpHeaderCacheControl@Net@OpenHome@@QBEIXZ 00412510 f   libohNetCore:Ssdp.obj
 0001:00011560       ?Recognise@SsdpHeaderCacheControl@Net@OpenHome@@EAE_NABVBrx@3@@Z 00412560 f   libohNetCore:Ssdp.obj
 0001:00011590       ?Process@SsdpHeaderCacheControl@Net@OpenHome@@EAEXABVBrx@3@@Z 00412590 f   libohNetCore:Ssdp.obj
 0001:00011780       ?Recognise@SsdpHeaderServer@Net@OpenHome@@EAE_NABVBrx@3@@Z 00412780 f   libohNetCore:Ssdp.obj
 0001:000117b0       ?Process@SsdpHeaderServer@Net@OpenHome@@EAEXABVBrx@3@@Z 004127b0 f   libohNetCore:Ssdp.obj
 0001:000117e0       ?Target@SsdpHeaderSt@Net@OpenHome@@QBE?AW4ESsdpTarget@23@XZ 004127e0 f   libohNetCore:Ssdp.obj
 0001:00011800       ?Uuid@SsdpHeaderSt@Net@OpenHome@@QBEABVBrx@3@XZ 00412800 f   libohNetCore:Ssdp.obj
 0001:00011820       ?Domain@SsdpHeaderSt@Net@OpenHome@@QBEABVBrx@3@XZ 00412820 f   libohNetCore:Ssdp.obj
 0001:00011840       ?Type@SsdpHeaderSt@Net@OpenHome@@QBEABVBrx@3@XZ 00412840 f   libohNetCore:Ssdp.obj
 0001:00011860       ?Version@SsdpHeaderSt@Net@OpenHome@@QBE?BIXZ 00412860 f   libohNetCore:Ssdp.obj
 0001:00011880       ?Recognise@SsdpHeaderSt@Net@OpenHome@@EAE_NABVBrx@3@@Z 00412880 f   libohNetCore:Ssdp.obj
 0001:000118b0       ?Process@SsdpHeaderSt@Net@OpenHome@@EAEXABVBrx@3@@Z 004128b0 f   libohNetCore:Ssdp.obj
 0001:00011eb0       ?Target@SsdpHeaderNt@Net@OpenHome@@QBE?AW4ESsdpTarget@23@XZ 00412eb0 f   libohNetCore:Ssdp.obj
 0001:00011ed0       ?Uuid@SsdpHeaderNt@Net@OpenHome@@QBEABVBrx@3@XZ 00412ed0 f   libohNetCore:Ssdp.obj
 0001:00011ef0       ?Domain@SsdpHeaderNt@Net@OpenHome@@QBEABVBrx@3@XZ 00412ef0 f   libohNetCore:Ssdp.obj
 0001:00011f10       ?Type@SsdpHeaderNt@Net@OpenHome@@QBEABVBrx@3@XZ 00412f10 f   libohNetCore:Ssdp.obj
 0001:00011f30       ?Version@SsdpHeaderNt@Net@OpenHome@@QBE?BIXZ 00412f30 f   libohNetCore:Ssdp.obj
 0001:00011f50       ?Recognise@SsdpHeaderNt@Net@OpenHome@@EAE_NABVBrx@3@@Z 00412f50 f   libohNetCore:Ssdp.obj
 0001:00011f80       ?Process@SsdpHeaderNt@Net@OpenHome@@EAEXABVBrx@3@@Z 00412f80 f   libohNetCore:Ssdp.obj
 0001:00012580       ?Target@SsdpHeaderUsn@Net@OpenHome@@QBE?AW4ESsdpTarget@23@XZ 00413580 f   libohNetCore:Ssdp.obj
 0001:000125a0       ?Uuid@SsdpHeaderUsn@Net@OpenHome@@QBEABVBrx@3@XZ 004135a0 f   libohNetCore:Ssdp.obj
 0001:000125c0       ?Domain@SsdpHeaderUsn@Net@OpenHome@@QBEABVBrx@3@XZ 004135c0 f   libohNetCore:Ssdp.obj
 0001:000125e0       ?Type@SsdpHeaderUsn@Net@OpenHome@@QBEABVBrx@3@XZ 004135e0 f   libohNetCore:Ssdp.obj
 0001:00012600       ?Version@SsdpHeaderUsn@Net@OpenHome@@QBE?BIXZ 00413600 f   libohNetCore:Ssdp.obj
 0001:00012620       ?Recognise@SsdpHeaderUsn@Net@OpenHome@@EAE_NABVBrx@3@@Z 00413620 f   libohNetCore:Ssdp.obj
 0001:00012650       ?Process@SsdpHeaderUsn@Net@OpenHome@@EAEXABVBrx@3@@Z 00413650 f   libohNetCore:Ssdp.obj
 0001:00012e80       ?Recognise@SsdpHeaderHost@Net@OpenHome@@EAE_NABVBrx@3@@Z 00413e80 f   libohNetCore:Ssdp.obj
 0001:00012eb0       ?Process@SsdpHeaderHost@Net@OpenHome@@EAEXABVBrx@3@@Z 00413eb0 f   libohNetCore:Ssdp.obj
 0001:00012fa0       ?Recognise@SsdpHeaderMan@Net@OpenHome@@EAE_NABVBrx@3@@Z 00413fa0 f   libohNetCore:Ssdp.obj
 0001:00012fd0       ?Process@SsdpHeaderMan@Net@OpenHome@@EAEXABVBrx@3@@Z 00413fd0 f   libohNetCore:Ssdp.obj
 0001:000130b0       ?Mx@SsdpHeaderMx@Net@OpenHome@@QBEIXZ 004140b0 f   libohNetCore:Ssdp.obj
 0001:00013100       ?Recognise@SsdpHeaderMx@Net@OpenHome@@EAE_NABVBrx@3@@Z 00414100 f   libohNetCore:Ssdp.obj
 0001:00013130       ?Process@SsdpHeaderMx@Net@OpenHome@@EAEXABVBrx@3@@Z 00414130 f   libohNetCore:Ssdp.obj
 0001:00013220       ?Alive@SsdpHeaderNts@Net@OpenHome@@QBE_NXZ 00414220 f   libohNetCore:Ssdp.obj
 0001:00013240       ?Recognise@SsdpHeaderNts@Net@OpenHome@@EAE_NABVBrx@3@@Z 00414240 f   libohNetCore:Ssdp.obj
 0001:00013270       ?Process@SsdpHeaderNts@Net@OpenHome@@EAEXABVBrx@3@@Z 00414270 f   libohNetCore:Ssdp.obj
 0001:00013370       ?Recognise@SsdpHeaderExt@Net@OpenHome@@EAE_NABVBrx@3@@Z 00414370 f   libohNetCore:Ssdp.obj
 0001:000133a0       ?Process@SsdpHeaderExt@Net@OpenHome@@EAEXABVBrx@3@@Z 004143a0 f   libohNetCore:Ssdp.obj
 0001:00013480       ??0SsdpWriterMsearchRequest@Net@OpenHome@@QAE@AAVIWriter@2@@Z 00414480 f   libohNetCore:Ssdp.obj
 0001:000134b0       ?MsearchRoot@SsdpWriterMsearchRequest@Net@OpenHome@@QAEXI@Z 004144b0 f   libohNetCore:Ssdp.obj
 0001:00013500       ?MsearchUuid@SsdpWriterMsearchRequest@Net@OpenHome@@QAEXABVBrx@3@I@Z 00414500 f   libohNetCore:Ssdp.obj
 0001:00013550       ?MsearchDeviceType@SsdpWriterMsearchRequest@Net@OpenHome@@QAEXABVBrx@3@0II@Z 00414550 f   libohNetCore:Ssdp.obj
 0001:000135b0       ?MsearchServiceType@SsdpWriterMsearchRequest@Net@OpenHome@@QAEXABVBrx@3@0II@Z 004145b0 f   libohNetCore:Ssdp.obj
 0001:00013610       ?MsearchAll@SsdpWriterMsearchRequest@Net@OpenHome@@QAEXI@Z 00414610 f   libohNetCore:Ssdp.obj
 0001:00013660       ?Msearch@SsdpWriterMsearchRequest@Net@OpenHome@@AAEXI@Z 00414660 f   libohNetCore:Ssdp.obj
 0001:00013700       ??ABwx@OpenHome@@QAEAAEI@Z 00414700 f i libohNetCore:Ssdp.obj
 0001:00013730       ?Set@Brn@OpenHome@@QAEXABVBrx@2@@Z 00414730 f i libohNetCore:Ssdp.obj
 0001:00013780       ??1Parser@OpenHome@@QAE@XZ 00414780 f i libohNetCore:Ssdp.obj
 0001:000137b0       ??0HttpError@OpenHome@@QAE@PBDI@Z 004147b0 f i libohNetCore:Ssdp.obj
 0001:000137f0       ??1HttpError@OpenHome@@QAE@XZ 004147f0 f i libohNetCore:Ssdp.obj
 0001:00013820       ??9Brx@OpenHome@@QBE_NABV01@@Z 00414820 f i libohNetCore:Ssdp.obj
 0001:00013860       ??0?$Bws@$09@OpenHome@@QAE@XZ 00414860 f i libohNetCore:Ssdp.obj
 0001:000138a0       ??0Semaphore@OpenHome@@QAE@PBDI@Z 004148a0 f   libohNetCore:Thread.obj
 0001:00013920       ??1Semaphore@OpenHome@@UAE@XZ 00414920 f   libohNetCore:Thread.obj
 0001:00013960       ?Wait@Semaphore@OpenHome@@QAEXXZ 00414960 f   libohNetCore:Thread.obj
 0001:00013990       ?Wait@Semaphore@OpenHome@@QAEXI@Z 00414990 f   libohNetCore:Thread.obj
 0001:00013a80       ?Clear@Semaphore@OpenHome@@QAE_NXZ 00414a80 f   libohNetCore:Thread.obj
 0001:00013ac0       ?Signal@Semaphore@OpenHome@@QAEXXZ 00414ac0 f   libohNetCore:Thread.obj
 0001:00013af0       ??0Mutex@OpenHome@@QAE@PBD@Z 00414af0 f   libohNetCore:Thread.obj
 0001:00013b80       ??1Mutex@OpenHome@@UAE@XZ  00414b80 f   libohNetCore:Thread.obj
 0001:00013bc0       ?Wait@Mutex@OpenHome@@QAEXXZ 00414bc0 f   libohNetCore:Thread.obj
 0001:00013cf0       ?Signal@Mutex@OpenHome@@QAEXXZ 00414cf0 f   libohNetCore:Thread.obj
 0001:00013d20       ??0SemaphoreActive@OpenHome@@QAE@AAVSemaphore@1@@Z 00414d20 f   libohNetCore:Thread.obj
 0001:00013d70       ??0SemaphoreActive@OpenHome@@QAE@AAVThread@1@@Z 00414d70 f   libohNetCore:Thread.obj
 0001:00013dc0       ?Signal@SemaphoreActive@OpenHome@@QAEXXZ 00414dc0 f   libohNetCore:Thread.obj
 0001:00013e10       ?Signalled@SemaphoreActive@OpenHome@@QAE_NXZ 00414e10 f   libohNetCore:Thread.obj
 0001:00013e90       ?ConsumeOne@SemaphoreActive@OpenHome@@QAEXXZ 00414e90 f   libohNetCore:Thread.obj
 0001:00013ef0       ?ConsumeAll@SemaphoreActive@OpenHome@@QAEXXZ 00414ef0 f   libohNetCore:Thread.obj
 0001:00013f40       ??0Thread@OpenHome@@IAE@PBDII@Z 00414f40 f   libohNetCore:Thread.obj
 0001:00014060       ??1Thread@OpenHome@@UAE@XZ 00415060 f   libohNetCore:Thread.obj
 0001:00014140       ?Start@Thread@OpenHome@@QAEXXZ 00415140 f   libohNetCore:Thread.obj
 0001:000141a0       ?EntryPoint@Thread@OpenHome@@CGXPAX@Z 004151a0 f   libohNetCore:Thread.obj
 0001:00014340       ?Wait@Thread@OpenHome@@QAEXXZ 00415340 f   libohNetCore:Thread.obj
 0001:00014370       ?Signal@Thread@OpenHome@@QAEXXZ 00415370 f   libohNetCore:Thread.obj
 0001:000143a0       ?TryWait@Thread@OpenHome@@QAE_NXZ 004153a0 f   libohNetCore:Thread.obj
 0001:000143d0       ?Sleep@Thread@OpenHome@@SGXI@Z 004153d0 f   libohNetCore:Thread.obj
 0001:000144a0       ?Current@Thread@OpenHome@@SGPAV12@XZ 004154a0 f   libohNetCore:Thread.obj
 0001:000144c0       ?SupportsPriorities@Thread@OpenHome@@SG_NXZ 004154c0 f   libohNetCore:Thread.obj
 0001:000144e0       ?CheckForKill@Thread@OpenHome@@IBEXXZ 004154e0 f   libohNetCore:Thread.obj
 0001:000145b0       ?Kill@Thread@OpenHome@@QAEXXZ 004155b0 f   libohNetCore:Thread.obj
 0001:00014620       ?Name@Thread@OpenHome@@QBEABVBrx@2@XZ 00415620 f   libohNetCore:Thread.obj
 0001:00014640       ??8Thread@OpenHome@@QBE_NABV01@@Z 00415640 f   libohNetCore:Thread.obj
 0001:00014670       ??9Thread@OpenHome@@QBE_NABV01@@Z 00415670 f   libohNetCore:Thread.obj
 0001:000146b0       ?Join@Thread@OpenHome@@IAEXXZ 004156b0 f   libohNetCore:Thread.obj
 0001:00014710       ??0ThreadFunctor@OpenHome@@QAE@PBDVFunctor@1@II@Z 00415710 f   libohNetCore:Thread.obj
 0001:000147c0       ??1ThreadFunctor@OpenHome@@UAE@XZ 004157c0 f   libohNetCore:Thread.obj
 0001:00014840       ?Run@ThreadFunctor@OpenHome@@EAEXXZ 00415840 f   libohNetCore:Thread.obj
 0001:00014880       ??0AutoMutex@OpenHome@@QAE@AAVMutex@1@@Z 00415880 f   libohNetCore:Thread.obj
 0001:000148c0       ??1AutoMutex@OpenHome@@QAE@XZ 004158c0 f   libohNetCore:Thread.obj
 0001:000148f0       ??0AtomicInt@OpenHome@@QAE@H@Z 004158f0 f   libohNetCore:Thread.obj
 0001:00014930       ??0AtomicInt@OpenHome@@QAE@XZ 00415930 f   libohNetCore:Thread.obj
 0001:00014960       ?Inc@AtomicInt@OpenHome@@QAEHXZ 00415960 f   libohNetCore:Thread.obj
 0001:000149c0       ?Dec@AtomicInt@OpenHome@@QAEHXZ 004159c0 f   libohNetCore:Thread.obj
 0001:00014a20       ?SemaphoreCreate@Os@OpenHome@@SGPAXPBDI@Z 00415a20 f i libohNetCore:Thread.obj
 0001:00014a40       ??_GSemaphore@OpenHome@@UAEPAXI@Z 00415a40 f i libohNetCore:Thread.obj
 0001:00014a40       ??_ESemaphore@OpenHome@@UAEPAXI@Z 00415a40 f i libohNetCore:Thread.obj
 0001:00014a80       ?SemaphoreDestroy@Os@OpenHome@@SGXPAX@Z 00415a80 f i libohNetCore:Thread.obj
 0001:00014aa0       ?SemaphoreWait@Os@OpenHome@@SGXPAX@Z 00415aa0 f i libohNetCore:Thread.obj
 0001:00014af0       ??0Timeout@OpenHome@@QAE@PBDI@Z 00415af0 f i libohNetCore:Thread.obj
 0001:00014b30       ?SemaphoreTimedWait@Os@OpenHome@@SG_NPAXI@Z 00415b30 f i libohNetCore:Thread.obj
 0001:00014b80       ??1Timeout@OpenHome@@QAE@XZ 00415b80 f i libohNetCore:Thread.obj
 0001:00014bb0       ?SemaphoreClear@Os@OpenHome@@SG_NPAX@Z 00415bb0 f i libohNetCore:Thread.obj
 0001:00014be0       ?SemaphoreSignal@Os@OpenHome@@SGXPAX@Z 00415be0 f i libohNetCore:Thread.obj
 0001:00014c30       ??_EMutex@OpenHome@@UAEPAXI@Z 00415c30 f i libohNetCore:Thread.obj
 0001:00014cb0       ?MutexCreate@Os@OpenHome@@SGPAXPBD@Z 00415cb0 f i libohNetCore:Thread.obj
 0001:00014cd0       ?MutexDestroy@Os@OpenHome@@SGXPAX@Z 00415cd0 f i libohNetCore:Thread.obj
 0001:00014cf0       ?MutexLock@Os@OpenHome@@SGHPAX@Z 00415cf0 f i libohNetCore:Thread.obj
 0001:00014d20       ?MutexUnlock@Os@OpenHome@@SGXPAX@Z 00415d20 f i libohNetCore:Thread.obj
 0001:00014d70       ??_EThread@OpenHome@@UAEPAXI@Z 00415d70 f i libohNetCore:Thread.obj
 0001:00014d70       ??_GThread@OpenHome@@UAEPAXI@Z 00415d70 f i libohNetCore:Thread.obj
 0001:00014db0       ??1?$Bws@$04@OpenHome@@UAE@XZ 00415db0 f i libohNetCore:Thread.obj
 0001:00014de0       ?ThreadDestroy@Os@OpenHome@@SGXPAX@Z 00415de0 f i libohNetCore:Thread.obj
 0001:00014e00       ?ThreadCreate@Os@OpenHome@@SGPAXPBDIIP6GXPAX@Z1@Z 00415e00 f i libohNetCore:Thread.obj
 0001:00014e30       ?ThreadTls@Os@OpenHome@@SGPAXXZ 00415e30 f i libohNetCore:Thread.obj
 0001:00014e50       ?ThreadSupportsPriorities@Os@OpenHome@@SG_NXZ 00415e50 f i libohNetCore:Thread.obj
 0001:00014e70       ??0ThreadKill@OpenHome@@QAE@PBDI@Z 00415e70 f i libohNetCore:Thread.obj
 0001:00014eb0       ??1ThreadKill@OpenHome@@QAE@XZ 00415eb0 f i libohNetCore:Thread.obj
 0001:00014ee0       ??_EThreadFunctor@OpenHome@@UAEPAXI@Z 00415ee0 f i libohNetCore:Thread.obj
 0001:00014ee0       ??_GThreadFunctor@OpenHome@@UAEPAXI@Z 00415ee0 f i libohNetCore:Thread.obj
 0001:00014f20       ??RFunctor@OpenHome@@QBEXXZ 00415f20 f i libohNetCore:Thread.obj
 0001:00014f60       ??0?$Bws@$04@OpenHome@@QAE@XZ 00415f60 f i libohNetCore:Thread.obj
 0001:00014fa0       ?Ptr@?$Bws@$04@OpenHome@@UBEPBEXZ 00415fa0 f i libohNetCore:Thread.obj
 0001:00014fc0       ??_E?$Bws@$04@OpenHome@@UAEPAXI@Z 00415fc0 f i libohNetCore:Thread.obj
 0001:00014fc0       ??_G?$Bws@$04@OpenHome@@UAEPAXI@Z 00415fc0 f i libohNetCore:Thread.obj
 0001:00015000       ?Empty@Brx@OpenHome@@SGABVBrn@2@XZ 00416000 f   libohNetCore:Buffer.obj
 0001:00015010       ?Equals@Brx@OpenHome@@QBE_NABV12@@Z 00416010 f   libohNetCore:Buffer.obj
 0001:00015090       ?At@Brx@OpenHome@@QBEABEI@Z 00416090 f   libohNetCore:Buffer.obj
 0001:000150f0       ?Split@Brx@OpenHome@@QBE?AVBrn@2@I@Z 004160f0 f   libohNetCore:Buffer.obj
 0001:00015180       ?Split@Brx@OpenHome@@QBE?AVBrn@2@II@Z 00416180 f   libohNetCore:Buffer.obj
 0001:00015200       ?BeginsWith@Brx@OpenHome@@QBE_NABV12@@Z 00416200 f   libohNetCore:Buffer.obj
 0001:00015280       ??0Brn@OpenHome@@QAE@PBD@Z 00416280 f   libohNetCore:Buffer.obj
 0001:000152d0       ?Set@Brn@OpenHome@@QAEXPBD@Z 004162d0 f   libohNetCore:Buffer.obj
 0001:00015310       ?Ptr@Brn@OpenHome@@UBEPBEXZ 00416310 f   libohNetCore:Buffer.obj
 0001:00015350       ??1Brv@OpenHome@@UAE@XZ    00416350 f   libohNetCore:Buffer.obj
 0001:00015390       ?Ptr@Brv@OpenHome@@UBEPBEXZ 00416390 f   libohNetCore:Buffer.obj
 0001:000153b0       ??0Brh@OpenHome@@QAE@ABVBrx@1@@Z 004163b0 f   libohNetCore:Buffer.obj
 0001:00015430       ??0Brh@OpenHome@@QAE@PBD@Z 00416430 f   libohNetCore:Buffer.obj
 0001:000154b0       ?Set@Brh@OpenHome@@QAEXPBEI@Z 004164b0 f   libohNetCore:Buffer.obj
 0001:00015510       ?Set@Brh@OpenHome@@QAEXPBD@Z 00416510 f   libohNetCore:Buffer.obj
 0001:00015550       ?TransferTo@Brh@OpenHome@@QAEXAAV12@@Z 00416550 f   libohNetCore:Buffer.obj
 0001:000155b0       ?Extract@Brh@OpenHome@@QAEPADXZ 004165b0 f   libohNetCore:Buffer.obj
 0001:000155f0       ??0Brhz@OpenHome@@QAE@ABVBrx@1@@Z 004165f0 f   libohNetCore:Buffer.obj
 0001:00015670       ??0Brhz@OpenHome@@QAE@PBD@Z 00416670 f   libohNetCore:Buffer.obj
 0001:000156f0       ?Set@Brhz@OpenHome@@QAEXPBEI@Z 004166f0 f   libohNetCore:Buffer.obj
 0001:000157b0       ?Set@Brhz@OpenHome@@QAEXPBD@Z 004167b0 f   libohNetCore:Buffer.obj
 0001:000157f0       ?Shrink@Brhz@OpenHome@@QAEXI@Z 004167f0 f   libohNetCore:Buffer.obj
 0001:00015890       ?TransferTo@Brhz@OpenHome@@QAEXAAVBrh@2@@Z 00416890 f   libohNetCore:Buffer.obj
 0001:000158f0       ?TransferTo@Brhz@OpenHome@@QAEXAAV12@@Z 004168f0 f   libohNetCore:Buffer.obj
 0001:00015950       ?Transfer@Brhz@OpenHome@@QAEPADXZ 00416950 f   libohNetCore:Buffer.obj
 0001:00015990       ??0Bwx@OpenHome@@IAE@II@Z  00416990 f   libohNetCore:Buffer.obj
 0001:00015a30       ?Replace@Bwx@OpenHome@@QAEXABVBrx@2@@Z 00416a30 f   libohNetCore:Buffer.obj
 0001:00015ac0       ?ReplaceThrow@Bwx@OpenHome@@QAEXABVBrx@2@@Z 00416ac0 f   libohNetCore:Buffer.obj
 0001:00015be0       ?Replace@Bwx@OpenHome@@QAEXPBEI@Z 00416be0 f   libohNetCore:Buffer.obj
 0001:00015c50       ?Replace@Bwx@OpenHome@@QAEXPBD@Z 00416c50 f   libohNetCore:Buffer.obj
 0001:00015ce0       ?Append@Bwx@OpenHome@@QAEXPBD@Z 00416ce0 f   libohNetCore:Buffer.obj
 0001:00015d20       ?Append@Bwx@OpenHome@@QAEXABVBrx@2@@Z 00416d20 f   libohNetCore:Buffer.obj
 0001:00015d70       ?Append@Bwx@OpenHome@@QAEXPBEI@Z 00416d70 f   libohNetCore:Buffer.obj
 0001:00015e00       ?AppendPrintf@Bwx@OpenHome@@QAAXPBDZZ 00416e00 f   libohNetCore:Buffer.obj
 0001:00015f40       ?PtrZ@Bwx@OpenHome@@QBEPBDXZ 00416f40 f   libohNetCore:Buffer.obj
 0001:00015fc0       ?Fill@Bwx@OpenHome@@QAEXE@Z 00416fc0 f   libohNetCore:Buffer.obj
 0001:00016010       ?SetBytes@Bwx@OpenHome@@QAEXI@Z 00417010 f   libohNetCore:Buffer.obj
 0001:00016060       ?At@Bwx@OpenHome@@QAEAAEI@Z 00417060 f   libohNetCore:Buffer.obj
 0001:000160c0       ??0Bwn@OpenHome@@QAE@XZ    004170c0 f   libohNetCore:Buffer.obj
 0001:00016100       ??0Bwn@OpenHome@@QAE@ABVBwx@1@@Z 00417100 f   libohNetCore:Buffer.obj
 0001:000161a0       ??0Bwn@OpenHome@@QAE@ABV01@@Z 004171a0 f   libohNetCore:Buffer.obj
 0001:00016240       ??0Bwn@OpenHome@@QAE@PBEI@Z 00417240 f   libohNetCore:Buffer.obj
 0001:00016290       ??0Bwn@OpenHome@@QAE@PBEII@Z 00417290 f   libohNetCore:Buffer.obj
 0001:000162e0       ??0Bwn@OpenHome@@QAE@PBDI@Z 004172e0 f   libohNetCore:Buffer.obj
 0001:00016330       ??0Bwn@OpenHome@@QAE@PBDII@Z 00417330 f   libohNetCore:Buffer.obj
 0001:00016380       ?Set@Bwn@OpenHome@@QAEXABVBwx@2@@Z 00417380 f   libohNetCore:Buffer.obj
 0001:000163e0       ?Set@Bwn@OpenHome@@QAEXPBEI@Z 004173e0 f   libohNetCore:Buffer.obj
 0001:00016410       ?Set@Bwn@OpenHome@@QAEXPBEII@Z 00417410 f   libohNetCore:Buffer.obj
 0001:00016460       ?Ptr@Bwn@OpenHome@@UBEPBEXZ 00417460 f   libohNetCore:Buffer.obj
 0001:00016480       ??0Bwh@OpenHome@@QAE@XZ    00417480 f   libohNetCore:Buffer.obj
 0001:000164c0       ??0Bwh@OpenHome@@QAE@I@Z   004174c0 f   libohNetCore:Buffer.obj
 0001:00016510       ??0Bwh@OpenHome@@QAE@II@Z  00417510 f   libohNetCore:Buffer.obj
 0001:00016560       ??1Bwh@OpenHome@@UAE@XZ    00417560 f   libohNetCore:Buffer.obj
 0001:000165a0       ?Ptr@Bwh@OpenHome@@UBEPBEXZ 004175a0 f   libohNetCore:Buffer.obj
 0001:000165e0       ??0Bwh@OpenHome@@QAE@PBD@Z 004175e0 f   libohNetCore:Buffer.obj
 0001:00016680       ??0Bwh@OpenHome@@QAE@PBEI@Z 00417680 f   libohNetCore:Buffer.obj
 0001:00016720       ??0Bwh@OpenHome@@QAE@ABVBrx@1@@Z 00417720 f   libohNetCore:Buffer.obj
 0001:000167c0       ??0Bwh@OpenHome@@QAE@ABV01@@Z 004177c0 f   libohNetCore:Buffer.obj
 0001:00016860       ?Grow@Bwh@OpenHome@@QAEXI@Z 00417860 f   libohNetCore:Buffer.obj
 0001:00016910       ?TransferTo@Bwh@OpenHome@@QAEXAAVBrh@2@@Z 00417910 f   libohNetCore:Buffer.obj
 0001:00016970       ?TransferTo@Bwh@OpenHome@@QAEXAAVBrhz@2@@Z 00417970 f   libohNetCore:Buffer.obj
 0001:000169d0       ?TransferTo@Bwh@OpenHome@@QAEXAAV12@@Z 004179d0 f   libohNetCore:Buffer.obj
 0001:00016a30       ??RBufferCmp@OpenHome@@QBE_NABVBrx@1@0@Z 00417a30 f   libohNetCore:Buffer.obj
 0001:00016b30       ??0Brn@OpenHome@@QAE@PBEI@Z 00417b30 f i libohNetCore:Buffer.obj
 0001:00016b70       ??_GBrh@OpenHome@@UAEPAXI@Z 00417b70 f i libohNetCore:Buffer.obj
 0001:00016b70       ??_EBrh@OpenHome@@UAEPAXI@Z 00417b70 f i libohNetCore:Buffer.obj
 0001:00016bb0       ??1Brh@OpenHome@@UAE@XZ    00417bb0 f i libohNetCore:Buffer.obj
 0001:00016be0       ?Set@Brh@OpenHome@@QAEXABVBrx@2@@Z 00417be0 f i libohNetCore:Buffer.obj
 0001:00016c30       ?MaxBytes@Bwx@OpenHome@@QBEIXZ 00417c30 f i libohNetCore:Buffer.obj
 0001:00016c50       ??_GBwx@OpenHome@@UAEPAXI@Z 00417c50 f i libohNetCore:Buffer.obj
 0001:00016c50       ??_EBwx@OpenHome@@UAEPAXI@Z 00417c50 f i libohNetCore:Buffer.obj
 0001:00016c90       ??0BufferOverflow@OpenHome@@QAE@PBDI@Z 00417c90 f i libohNetCore:Buffer.obj
 0001:00016cd0       ??1BufferOverflow@OpenHome@@QAE@XZ 00417cd0 f i libohNetCore:Buffer.obj
 0001:00016d00       ??0BufferFull@OpenHome@@QAE@PBDI@Z 00417d00 f i libohNetCore:Buffer.obj
 0001:00016d40       ??1BufferFull@OpenHome@@QAE@XZ 00417d40 f i libohNetCore:Buffer.obj
 0001:00016d70       ??_GBwn@OpenHome@@UAEPAXI@Z 00417d70 f i libohNetCore:Buffer.obj
 0001:00016d70       ??_EBwn@OpenHome@@UAEPAXI@Z 00417d70 f i libohNetCore:Buffer.obj
 0001:00016db0       ??1Bwn@OpenHome@@UAE@XZ    00417db0 f i libohNetCore:Buffer.obj
 0001:00016de0       ??_GBwh@OpenHome@@UAEPAXI@Z 00417de0 f i libohNetCore:Buffer.obj
 0001:00016de0       ??_EBwh@OpenHome@@UAEPAXI@Z 00417de0 f i libohNetCore:Buffer.obj
 0001:00016e20       ??0Endpoint@OpenHome@@QAE@XZ 00417e20 f   libohNetCore:Network.obj
 0001:00016e50       ??0Endpoint@OpenHome@@QAE@IABVBrx@1@@Z 00417e50 f   libohNetCore:Network.obj
 0001:00016e90       ??0Endpoint@OpenHome@@QAE@II@Z 00417e90 f   libohNetCore:Network.obj
 0001:00016ec0       ?SetPort@Endpoint@OpenHome@@QAEXI@Z 00417ec0 f   libohNetCore:Network.obj
 0001:00016ee0       ?SetPort@Endpoint@OpenHome@@QAEXABV12@@Z 00417ee0 f   libohNetCore:Network.obj
 0001:00016f10       ?SetAddress@Endpoint@OpenHome@@QAEXABVBrx@2@@Z 00417f10 f   libohNetCore:Network.obj
 0001:00016f60       ?SetAddress@Endpoint@OpenHome@@QAEXI@Z 00417f60 f   libohNetCore:Network.obj
 0001:00016f80       ?SetAddress@Endpoint@OpenHome@@QAEXABV12@@Z 00417f80 f   libohNetCore:Network.obj
 0001:00016fa0       ?Address@Endpoint@OpenHome@@QBEIXZ 00417fa0 f   libohNetCore:Network.obj
 0001:00016fc0       ?Port@Endpoint@OpenHome@@QBEGXZ 00417fc0 f   libohNetCore:Network.obj
 0001:00016fe0       ?AppendAddress@Endpoint@OpenHome@@QBEXAAVBwx@2@@Z 00417fe0 f   libohNetCore:Network.obj
 0001:000170b0       ?AppendEndpoint@Endpoint@OpenHome@@QBEXAAVBwx@2@@Z 004180b0 f   libohNetCore:Network.obj
 0001:00017130       ?GetAddressOctets@Endpoint@OpenHome@@QBEXAAY03E@Z 00418130 f   libohNetCore:Network.obj
 0001:00017190       ?Replace@Endpoint@OpenHome@@QAEXABV12@@Z 00418190 f   libohNetCore:Network.obj
 0001:000171d0       ?Equals@Endpoint@OpenHome@@QBE_NABV12@@Z 004181d0 f   libohNetCore:Network.obj
 0001:00017220       ??0Socket@OpenHome@@IAE@XZ 00418220 f   libohNetCore:Network.obj
 0001:00017260       ?Interrupt@Socket@OpenHome@@QAEX_N@Z 00418260 f   libohNetCore:Network.obj
 0001:00017330       ?Close@Socket@OpenHome@@QAEXXZ 00418330 f   libohNetCore:Network.obj
 0001:000173f0       ?SetSendBufBytes@Socket@OpenHome@@QAEXI@Z 004183f0 f   libohNetCore:Network.obj
 0001:00017420       ?SetRecvBufBytes@Socket@OpenHome@@QAEXI@Z 00418420 f   libohNetCore:Network.obj
 0001:00017450       ?SetRecvTimeout@Socket@OpenHome@@QAEXI@Z 00418450 f   libohNetCore:Network.obj
 0001:00017480       ?LogVerbose@Socket@OpenHome@@QAEX_N0@Z 00418480 f   libohNetCore:Network.obj
 0001:000174f0       ?Send@Socket@OpenHome@@IAEXABVBrx@2@@Z 004184f0 f   libohNetCore:Network.obj
 0001:000176f0       ?SendTo@Socket@OpenHome@@IAEXABVBrx@2@ABVEndpoint@2@@Z 004186f0 f   libohNetCore:Network.obj
 0001:00017900       ?Receive@Socket@OpenHome@@IAEXAAVBwx@2@@Z 00418900 f   libohNetCore:Network.obj
 0001:00017ab0       ?Receive@Socket@OpenHome@@IAEXAAVBwx@2@I@Z 00418ab0 f   libohNetCore:Network.obj
 0001:00017d50       ?ReceiveFrom@Socket@OpenHome@@IAEXAAVBwx@2@AAVEndpoint@2@@Z 00418d50 f   libohNetCore:Network.obj
 0001:00017ef0       ?Bind@Socket@OpenHome@@IAEXABVEndpoint@2@@Z 00418ef0 f   libohNetCore:Network.obj
 0001:00018030       ?GetPort@Socket@OpenHome@@IAEXAAI@Z 00419030 f   libohNetCore:Network.obj
 0001:00018170       ?Listen@Socket@OpenHome@@IAEXI@Z 00419170 f   libohNetCore:Network.obj
 0001:000182b0       ?Accept@Socket@OpenHome@@IAEPAXXZ 004192b0 f   libohNetCore:Network.obj
 0001:00018420       ?Log@Socket@OpenHome@@AAEXPBDABVBrx@2@@Z 00419420 f   libohNetCore:Network.obj
 0001:000186c0       ??0AutoSocket@OpenHome@@QAE@AAVSocket@1@@Z 004196c0 f   libohNetCore:Network.obj
 0001:00018700       ??1AutoSocket@OpenHome@@QAE@XZ 00419700 f   libohNetCore:Network.obj
 0001:00018730       ??0SocketTcp@OpenHome@@IAE@XZ 00419730 f   libohNetCore:Network.obj
 0001:00018800       ?Receive@SocketTcp@OpenHome@@QAEXAAVBwx@2@I@Z 00419800 f   libohNetCore:Network.obj
 0001:00018870       ?Write@SocketTcp@OpenHome@@UAEXE@Z 00419870 f   libohNetCore:Network.obj
 0001:00018940       ?Write@SocketTcp@OpenHome@@UAEXABVBrx@2@@Z 00419940 f   libohNetCore:Network.obj
 0001:00018a60       ?WriteFlush@SocketTcp@OpenHome@@UAEXXZ 00419a60 f   libohNetCore:Network.obj
 0001:00018a80       ?Read@SocketTcp@OpenHome@@UAEXAAVBwx@2@@Z 00419a80 f   libohNetCore:Network.obj
 0001:00018c20       ?ReadFlush@SocketTcp@OpenHome@@UAEXXZ 00419c20 f   libohNetCore:Network.obj
 0001:00018c40       ?ReadInterrupt@SocketTcp@OpenHome@@UAEXXZ 00419c40 f   libohNetCore:Network.obj
 0001:00018c70       ?Open@SocketTcpClient@OpenHome@@QAEXXZ 00419c70 f   libohNetCore:Network.obj
 0001:00018d70       ?Connect@SocketTcpClient@OpenHome@@QAEXABVEndpoint@2@I@Z 00419d70 f   libohNetCore:Network.obj
 0001:00018de0       ??0SocketTcpServer@OpenHome@@QAE@PBDIIIII@Z 00419de0 f   libohNetCore:Network.obj
 0001:00018f30       ?Add@SocketTcpServer@OpenHome@@QAEXPBDPAVSocketTcpSession@2@H@Z 00419f30 f   libohNetCore:Network.obj
 0001:00019060       ?Accept@SocketTcpServer@OpenHome@@AAEPAXXZ 0041a060 f   libohNetCore:Network.obj
 0001:00019200       ?Terminating@SocketTcpServer@OpenHome@@AAE_NXZ 0041a200 f   libohNetCore:Network.obj
 0001:00019260       ??1SocketTcpServer@OpenHome@@UAE@XZ 0041a260 f   libohNetCore:Network.obj
 0001:000193f0       ??0SocketTcpSession@OpenHome@@IAE@XZ 0041a3f0 f   libohNetCore:Network.obj
 0001:00019490       ?Add@SocketTcpSession@OpenHome@@AAEXAAVSocketTcpServer@2@PBDII@Z 0041a490 f   libohNetCore:Network.obj
 0001:000195a0       ?Start@SocketTcpSession@OpenHome@@AAEXXZ 0041a5a0 f   libohNetCore:Network.obj
 0001:000197e0       ?Open@SocketTcpSession@OpenHome@@AAEXPAX@Z 0041a7e0 f   libohNetCore:Network.obj
 0001:00019930       ?Close@SocketTcpSession@OpenHome@@AAEXXZ 0041a930 f   libohNetCore:Network.obj
 0001:00019a40       ??1SocketTcpSession@OpenHome@@MAE@XZ 0041aa40 f   libohNetCore:Network.obj
 0001:00019ba0       ??0SocketUdp@OpenHome@@QAE@XZ 0041aba0 f   libohNetCore:Network.obj
 0001:00019cd0       ??0SocketUdp@OpenHome@@QAE@I@Z 0041acd0 f   libohNetCore:Network.obj
 0001:00019e00       ??0SocketUdp@OpenHome@@QAE@II@Z 0041ae00 f   libohNetCore:Network.obj
 0001:00019f40       ?SetTtl@SocketUdp@OpenHome@@QAEXI@Z 0041af40 f   libohNetCore:Network.obj
 0001:00019fe0       ??1SocketUdp@OpenHome@@UAE@XZ 0041afe0 f   libohNetCore:Network.obj
 0001:0001a050       ?Port@SocketUdp@OpenHome@@QBEIXZ 0041b050 f   libohNetCore:Network.obj
 0001:0001a070       ?Send@SocketUdp@OpenHome@@QAEXABVBrx@2@ABVEndpoint@2@@Z 0041b070 f   libohNetCore:Network.obj
 0001:0001a0d0       ?Receive@SocketUdp@OpenHome@@QAE?AVEndpoint@2@AAVBwx@2@@Z 0041b0d0 f   libohNetCore:Network.obj
 0001:0001a1c0       ??0SocketUdpMulticast@OpenHome@@QAE@IABVEndpoint@1@@Z 0041b1c0 f   libohNetCore:Network.obj
 0001:0001a300       ??1SocketUdpMulticast@OpenHome@@UAE@XZ 0041b300 f   libohNetCore:Network.obj
 0001:0001a3f0       ??0UdpReader@OpenHome@@QAE@AAVSocketUdp@1@@Z 0041b3f0 f   libohNetCore:Network.obj
 0001:0001a480       ?Sender@UdpReader@OpenHome@@QBE?AVEndpoint@2@XZ 0041b480 f   libohNetCore:Network.obj
 0001:0001a4b0       ?Read@UdpReader@OpenHome@@UAEXAAVBwx@2@@Z 0041b4b0 f   libohNetCore:Network.obj
 0001:0001a610       ?ReadFlush@UdpReader@OpenHome@@UAEXXZ 0041b610 f   libohNetCore:Network.obj
 0001:0001a630       ?ReadInterrupt@UdpReader@OpenHome@@UAEXXZ 0041b630 f   libohNetCore:Network.obj
 0001:0001a660       ??0UdpWriter@OpenHome@@QAE@AAVSocketUdp@1@ABVEndpoint@1@@Z 0041b660 f   libohNetCore:Network.obj
 0001:0001a700       ?Write@UdpWriter@OpenHome@@UAEXE@Z 0041b700 f   libohNetCore:Network.obj
 0001:0001a730       ?Write@UdpWriter@OpenHome@@UAEXABVBrx@2@@Z 0041b730 f   libohNetCore:Network.obj
 0001:0001a880       ?WriteFlush@UdpWriter@OpenHome@@UAEXXZ 0041b880 f   libohNetCore:Network.obj
 0001:0001a8a0       ??_GSocket@OpenHome@@MAEPAXI@Z 0041b8a0 f i libohNetCore:Network.obj
 0001:0001a8a0       ??_ESocket@OpenHome@@MAEPAXI@Z 0041b8a0 f i libohNetCore:Network.obj
 0001:0001a8e0       ??1Socket@OpenHome@@MAE@XZ 0041b8e0 f i libohNetCore:Network.obj
 0001:0001a900       ?NetworkInterrupt@Os@OpenHome@@SGHPAX_N@Z 0041b900 f i libohNetCore:Network.obj
 0001:0001a930       ?NetworkClose@Os@OpenHome@@SGHPAX@Z 0041b930 f i libohNetCore:Network.obj
 0001:0001a950       ??0NetworkError@OpenHome@@QAE@PBDI@Z 0041b950 f i libohNetCore:Network.obj
 0001:0001a990       ?NetworkSend@Os@OpenHome@@SGHPAXABVBrx@2@@Z 0041b990 f i libohNetCore:Network.obj
 0001:0001a9d0       ??1NetworkError@OpenHome@@QAE@XZ 0041b9d0 f i libohNetCore:Network.obj
 0001:0001aa00       ?NetworkSendTo@Os@OpenHome@@SGHPAXABVBrx@2@ABVEndpoint@2@@Z 0041ba00 f i libohNetCore:Network.obj
 0001:0001aa50       ?NetworkReceive@Os@OpenHome@@SGHPAXAAVBwx@2@@Z 0041ba50 f i libohNetCore:Network.obj
 0001:0001aa90       ?NetworkListen@Os@OpenHome@@SGHPAXI@Z 0041ba90 f i libohNetCore:Network.obj
 0001:0001aab0       ?NetworkAccept@Os@OpenHome@@SGPAXPAX@Z 0041bab0 f i libohNetCore:Network.obj
 0001:0001aad0       ??ABrx@OpenHome@@QBEABEI@Z 0041bad0 f i libohNetCore:Network.obj
 0001:0001ab00       ??_GSocketTcp@OpenHome@@UAEPAXI@Z 0041bb00 f i libohNetCore:Network.obj
 0001:0001ab00       ??_ESocketTcp@OpenHome@@UAEPAXI@Z 0041bb00 f i libohNetCore:Network.obj
 0001:0001ab40       ??0IWriter@OpenHome@@QAE@XZ 0041bb40 f i libohNetCore:Network.obj
 0001:0001ab60       ??1SocketTcp@OpenHome@@UAE@XZ 0041bb60 f i libohNetCore:Network.obj
 0001:0001abe0       ??0WriterError@OpenHome@@QAE@PBDI@Z 0041bbe0 f i libohNetCore:Network.obj
 0001:0001ac20       ??1WriterError@OpenHome@@QAE@XZ 0041bc20 f i libohNetCore:Network.obj
 0001:0001ac50       ??0ReaderError@OpenHome@@QAE@PBDI@Z 0041bc50 f i libohNetCore:Network.obj
 0001:0001ac90       ??1ReaderError@OpenHome@@QAE@XZ 0041bc90 f i libohNetCore:Network.obj
 0001:0001acc0       ??_ESocketTcpServer@OpenHome@@UAEPAXI@Z 0041bcc0 f i libohNetCore:Network.obj
 0001:0001acc0       ??_GSocketTcpServer@OpenHome@@UAEPAXI@Z 0041bcc0 f i libohNetCore:Network.obj
 0001:0001ad00       ??_GSocketTcpSession@OpenHome@@MAEPAXI@Z 0041bd00 f i libohNetCore:Network.obj
 0001:0001ad00       ??_ESocketTcpSession@OpenHome@@MAEPAXI@Z 0041bd00 f i libohNetCore:Network.obj
 0001:0001ad40       ??_ESocketUdp@OpenHome@@UAEPAXI@Z 0041bd40 f i libohNetCore:Network.obj
 0001:0001ad40       ??_GSocketUdp@OpenHome@@UAEPAXI@Z 0041bd40 f i libohNetCore:Network.obj
 0001:0001ad80       ??_ESocketUdpMulticast@OpenHome@@UAEPAXI@Z 0041bd80 f i libohNetCore:Network.obj
 0001:0001ad80       ??_GSocketUdpMulticast@OpenHome@@UAEPAXI@Z 0041bd80 f i libohNetCore:Network.obj
 0001:0001adc0       ??_GUdpReader@OpenHome@@UAEPAXI@Z 0041bdc0 f i libohNetCore:Network.obj
 0001:0001adc0       ??_EUdpReader@OpenHome@@UAEPAXI@Z 0041bdc0 f i libohNetCore:Network.obj
 0001:0001ae00       ??_GUdpWriter@OpenHome@@UAEPAXI@Z 0041be00 f i libohNetCore:Network.obj
 0001:0001ae00       ??_EUdpWriter@OpenHome@@UAEPAXI@Z 0041be00 f i libohNetCore:Network.obj
 0001:0001ae40       ??0?$vector@PAVSocketTcpSession@OpenHome@@V?$allocator@PAVSocketTcpSession@OpenHome@@@std@@@std@@QAE@XZ 0041be40 f i libohNetCore:Network.obj
 0001:0001ae80       ??1?$vector@PAVSocketTcpSession@OpenHome@@V?$allocator@PAVSocketTcpSession@OpenHome@@@std@@@std@@QAE@XZ 0041be80 f i libohNetCore:Network.obj
 0001:0001aef0       ?size@?$vector@PAVSocketTcpSession@OpenHome@@V?$allocator@PAVSocketTcpSession@OpenHome@@@std@@@std@@QBEIXZ 0041bef0 f i libohNetCore:Network.obj
 0001:0001af20       ??A?$vector@PAVSocketTcpSession@OpenHome@@V?$allocator@PAVSocketTcpSession@OpenHome@@@std@@@std@@QAEAAPAVSocketTcpSession@OpenHome@@I@Z 0041bf20 f i libohNetCore:Network.obj
 0001:0001afc0       ?push_back@?$vector@PAVSocketTcpSession@OpenHome@@V?$allocator@PAVSocketTcpSession@OpenHome@@@std@@@std@@QAEXABQAVSocketTcpSession@OpenHome@@@Z 0041bfc0 f i libohNetCore:Network.obj
 0001:0001b0d0       ?pop_back@?$vector@PAVSocketTcpSession@OpenHome@@V?$allocator@PAVSocketTcpSession@OpenHome@@@std@@@std@@QAEXXZ 0041c0d0 f i libohNetCore:Network.obj
 0001:0001b160       ?empty@?$vector@PAVSocketTcpSession@OpenHome@@V?$allocator@PAVSocketTcpSession@OpenHome@@@std@@@std@@QBE_NXZ 0041c160 f i libohNetCore:Network.obj
 0001:0001b190       ?_Inside@?$vector@PAVSocketTcpSession@OpenHome@@V?$allocator@PAVSocketTcpSession@OpenHome@@@std@@@std@@IBE_NPBQAVSocketTcpSession@OpenHome@@@Z 0041c190 f i libohNetCore:Network.obj
 0001:0001b1e0       ?_Reserve@?$vector@PAVSocketTcpSession@OpenHome@@V?$allocator@PAVSocketTcpSession@OpenHome@@@std@@@std@@IAEXI@Z 0041c1e0 f i libohNetCore:Network.obj
 0001:0001b260       ?_Tidy@?$vector@PAVSocketTcpSession@OpenHome@@V?$allocator@PAVSocketTcpSession@OpenHome@@@std@@@std@@IAEXXZ 0041c260 f i libohNetCore:Network.obj
 0001:0001b2f0       ?_Orphan_range@?$vector@PAVSocketTcpSession@OpenHome@@V?$allocator@PAVSocketTcpSession@OpenHome@@@std@@@std@@IBEXPAPAVSocketTcpSession@OpenHome@@0@Z 0041c2f0 f i libohNetCore:Network.obj
 0001:0001b400       ??0?$_Vector_val@PAVSocketTcpSession@OpenHome@@V?$allocator@PAVSocketTcpSession@OpenHome@@@std@@@std@@QAE@V?$allocator@PAVSocketTcpSession@OpenHome@@@1@@Z 0041c400 f i libohNetCore:Network.obj
 0001:0001b520       ??1?$_Vector_val@PAVSocketTcpSession@OpenHome@@V?$allocator@PAVSocketTcpSession@OpenHome@@@std@@@std@@QAE@XZ 0041c520 f i libohNetCore:Network.obj
 0001:0001b600       ??0?$allocator@PAVSocketTcpSession@OpenHome@@@std@@QAE@XZ 0041c600 f i libohNetCore:Network.obj
 0001:0001b620       ?reserve@?$vector@PAVSocketTcpSession@OpenHome@@V?$allocator@PAVSocketTcpSession@OpenHome@@@std@@@std@@QAEXI@Z 0041c620 f i libohNetCore:Network.obj
 0001:0001b790       ?capacity@?$vector@PAVSocketTcpSession@OpenHome@@V?$allocator@PAVSocketTcpSession@OpenHome@@@std@@@std@@QBEIXZ 0041c790 f i libohNetCore:Network.obj
 0001:0001b7c0       ?max_size@?$vector@PAVSocketTcpSession@OpenHome@@V?$allocator@PAVSocketTcpSession@OpenHome@@@std@@@std@@QBEIXZ 0041c7c0 f i libohNetCore:Network.obj
 0001:0001b7f0       ?_Destroy@?$vector@PAVSocketTcpSession@OpenHome@@V?$allocator@PAVSocketTcpSession@OpenHome@@@std@@@std@@IAEXPAPAVSocketTcpSession@OpenHome@@0@Z 0041c7f0 f i libohNetCore:Network.obj
 0001:0001b830       ?_Grow_to@?$vector@PAVSocketTcpSession@OpenHome@@V?$allocator@PAVSocketTcpSession@OpenHome@@@std@@@std@@IBEII@Z 0041c830 f i libohNetCore:Network.obj
 0001:0001b8b0       ?_Xlen@?$vector@PAVSocketTcpSession@OpenHome@@V?$allocator@PAVSocketTcpSession@OpenHome@@@std@@@std@@IBEXXZ 0041c8b0 f i libohNetCore:Network.obj
 0001:0001b8e0       ??0?$allocator@PAVSocketTcpSession@OpenHome@@@std@@QAE@ABV01@@Z 0041c8e0 f i libohNetCore:Network.obj
 0001:0001b900       ?deallocate@?$allocator@PAVSocketTcpSession@OpenHome@@@std@@QAEXPAPAVSocketTcpSession@OpenHome@@I@Z 0041c900 f i libohNetCore:Network.obj
 0001:0001b930       ?allocate@?$allocator@PAVSocketTcpSession@OpenHome@@@std@@QAEPAPAVSocketTcpSession@OpenHome@@I@Z 0041c930 f i libohNetCore:Network.obj
 0001:0001b960       ?max_size@?$allocator@PAVSocketTcpSession@OpenHome@@@std@@QBEIXZ 0041c960 f i libohNetCore:Network.obj
 0001:0001b9b0       ??$MakeFunctor@VSocketTcpSession@OpenHome@@XV12@@OpenHome@@YG?AV?$MemberTranslator@VSocketTcpSession@OpenHome@@P812@AEXXZ@0@AAVSocketTcpSession@0@ABQ820@AEXXZ@Z 0041c9b0 f i libohNetCore:Network.obj
 0001:0001b9e0       ??$addressof@QAVSocketTcpSession@OpenHome@@@std@@YGPBQAVSocketTcpSession@OpenHome@@ABQAV12@@Z 0041c9e0 f i libohNetCore:Network.obj
 0001:0001b9f0       ??$_Cons_val@V?$allocator@PAVSocketTcpSession@OpenHome@@@std@@PAVSocketTcpSession@OpenHome@@AAPAV34@@std@@YGXAAV?$allocator@PAVSocketTcpSession@OpenHome@@@0@PAPAVSocketTcpSession@OpenHome@@AAPAV23@@Z 0041c9f0 f i libohNetCore:Network.obj
 0001:0001ba20       ??$_Cons_val@V?$allocator@PAVSocketTcpSession@OpenHome@@@std@@PAVSocketTcpSession@OpenHome@@ABQAV34@@std@@YGXAAV?$allocator@PAVSocketTcpSession@OpenHome@@@0@PAPAVSocketTcpSession@OpenHome@@ABQAV23@@Z 0041ca20 f i libohNetCore:Network.obj
 0001:0001ba50       ??$_Dest_val@V?$allocator@PAVSocketTcpSession@OpenHome@@@std@@PAVSocketTcpSession@OpenHome@@@std@@YGXAAV?$allocator@PAVSocketTcpSession@OpenHome@@@0@PAPAVSocketTcpSession@OpenHome@@@Z 0041ca50 f i libohNetCore:Network.obj
 0001:0001ba70       ??$?0PAVSocketTcpSession@OpenHome@@@?$allocator@U_Container_proxy@std@@@std@@QAE@ABV?$allocator@PAVSocketTcpSession@OpenHome@@@1@@Z 0041ca70 f i libohNetCore:Network.obj
 0001:0001ba90       ??$_Umove@PAPAVSocketTcpSession@OpenHome@@@?$vector@PAVSocketTcpSession@OpenHome@@V?$allocator@PAVSocketTcpSession@OpenHome@@@std@@@std@@IAEPAPAVSocketTcpSession@OpenHome@@PAPAV23@00@Z 0041ca90 f i libohNetCore:Network.obj
 0001:0001bad0       ??$_Destroy_range@V?$allocator@PAVSocketTcpSession@OpenHome@@@std@@@std@@YGXPAPAVSocketTcpSession@OpenHome@@0AAV?$allocator@PAVSocketTcpSession@OpenHome@@@0@@Z 0041cad0 f i libohNetCore:Network.obj
 0001:0001bb20       ??$_Allocate@PAVSocketTcpSession@OpenHome@@@std@@YGPAPAVSocketTcpSession@OpenHome@@IPAPAV12@@Z 0041cb20 f i libohNetCore:Network.obj
 0001:0001bba0       ?construct@?$allocator@PAVSocketTcpSession@OpenHome@@@std@@QAEXPAPAVSocketTcpSession@OpenHome@@ABQAV34@@Z 0041cba0 f i libohNetCore:Network.obj
 0001:0001bbd0       ?destroy@?$allocator@PAVSocketTcpSession@OpenHome@@@std@@QAEXPAPAVSocketTcpSession@OpenHome@@@Z 0041cbd0 f i libohNetCore:Network.obj
 0001:0001bc00       ??0?$MemberTranslator@VSocketTcpSession@OpenHome@@P812@AEXXZ@OpenHome@@QAE@AAVSocketTcpSession@1@ABQ821@AEXXZ@Z 0041cc00 f i libohNetCore:Network.obj
 0001:0001bc40       ?Thunk@?$MemberTranslator@VSocketTcpSession@OpenHome@@P812@AEXXZ@OpenHome@@SGXABVFunctor@2@@Z 0041cc40 f i libohNetCore:Network.obj
 0001:0001bc90       ??$forward@AAPAVSocketTcpSession@OpenHome@@@std@@YGAAPAVSocketTcpSession@OpenHome@@AAPAV12@@Z 0041cc90 f i libohNetCore:Network.obj
 0001:0001bca0       ??$construct@AAPAVSocketTcpSession@OpenHome@@@?$allocator@PAVSocketTcpSession@OpenHome@@@std@@QAEXPAPAVSocketTcpSession@OpenHome@@AAPAV23@@Z 0041cca0 f i libohNetCore:Network.obj
 0001:0001bd40       ??$forward@ABQAVSocketTcpSession@OpenHome@@@std@@YGABQAVSocketTcpSession@OpenHome@@ABQAV12@@Z 0041cd40 f i libohNetCore:Network.obj
 0001:0001bd50       ??$_Uninitialized_move@PAPAVSocketTcpSession@OpenHome@@PAPAV12@V?$allocator@PAVSocketTcpSession@OpenHome@@@std@@@std@@YGPAPAVSocketTcpSession@OpenHome@@PAPAV12@00AAV?$allocator@PAVSocketTcpSession@OpenHome@@@0@@Z 0041cd50 f i libohNetCore:Network.obj
 0001:0001bda0       ??$_Ptr_cat@PAVSocketTcpSession@OpenHome@@PAV12@@std@@YG?AU_Scalar_ptr_iterator_tag@0@PAPAVSocketTcpSession@OpenHome@@0@Z 0041cda0 f i libohNetCore:Network.obj
 0001:0001be00       ??$_Destroy_range@V?$allocator@PAVSocketTcpSession@OpenHome@@@std@@@std@@YGXPAPAVSocketTcpSession@OpenHome@@0AAV?$allocator@PAVSocketTcpSession@OpenHome@@@0@U_Scalar_ptr_iterator_tag@0@@Z 0041ce00 f i libohNetCore:Network.obj
 0001:0001be10       ??$_Construct@PAVSocketTcpSession@OpenHome@@ABQAV12@@std@@YGXPAPAVSocketTcpSession@OpenHome@@ABQAV12@@Z 0041ce10 f i libohNetCore:Network.obj
 0001:0001bec0       ??$_Destroy@PAVSocketTcpSession@OpenHome@@@std@@YGXPAPAVSocketTcpSession@OpenHome@@@Z 0041cec0 f i libohNetCore:Network.obj
 0001:0001bed0       ??$_Val_type@PAPAVSocketTcpSession@OpenHome@@@std@@YGPAPAVSocketTcpSession@OpenHome@@PAPAV12@@Z 0041ced0 f i libohNetCore:Network.obj
 0001:0001bee0       ??$_Uninit_move@PAVSocketTcpSession@OpenHome@@PAV12@PAV12@@std@@YGPAPAVSocketTcpSession@OpenHome@@PAPAV12@00AAV?$allocator@PAVSocketTcpSession@OpenHome@@@0@0U_Scalar_ptr_iterator_tag@0@@Z 0041cee0 f i libohNetCore:Network.obj
 0001:0001bf50       ??$_Debug_range@PAPAVSocketTcpSession@OpenHome@@@std@@YGXPAPAVSocketTcpSession@OpenHome@@0PB_WI@Z 0041cf50 f i libohNetCore:Network.obj
 0001:0001bfa0       ??$_Debug_pointer@PAVSocketTcpSession@OpenHome@@@std@@YGXPAPAVSocketTcpSession@OpenHome@@PB_WI@Z 0041cfa0 f i libohNetCore:Network.obj
 0001:0001bfd0       ??$_Iter_cat@PAPAVSocketTcpSession@OpenHome@@@std@@YG?AUrandom_access_iterator_tag@0@ABQAPAVSocketTcpSession@OpenHome@@@Z 0041cfd0 f i libohNetCore:Network.obj
 0001:0001c030       ??$_Debug_range2@PAPAVSocketTcpSession@OpenHome@@@std@@YGXPAPAVSocketTcpSession@OpenHome@@0PB_WIUrandom_access_iterator_tag@0@@Z 0041d030 f i libohNetCore:Network.obj
 0001:0001c090       ??_ESocketTcpSession@OpenHome@@OBA@AEPAXI@Z 0041d090 f i libohNetCore:Network.obj
 0001:0001c0a0       ??_ESocketTcp@OpenHome@@WM@AEPAXI@Z 0041d0a0 f i libohNetCore:Network.obj
 0001:0001c0b0       ??_ESocketTcp@OpenHome@@WBA@AEPAXI@Z 0041d0b0 f i libohNetCore:Network.obj
 0001:0001c0c0       ??_ESocketTcpSession@OpenHome@@OM@AEPAXI@Z 0041d0c0 f i libohNetCore:Network.obj
 0001:0001c0d0       ?SetAssertHandler@OpenHome@@YGP6GXPBDI@ZP6GX0I@Z@Z 0041d0d0 f   libohNetCore:Exception.obj
 0001:0001c100       ?CallAssertHandler@OpenHome@@YGXPBDI@Z 0041d100 f   libohNetCore:Exception.obj
 0001:0001c130       ?AssertHandlerDefault@OpenHome@@YGXPBDI@Z 0041d130 f   libohNetCore:Exception.obj
 0001:0001c220       ?UnhandledExceptionHandler@OpenHome@@YGXPBD0I@Z 0041d220 f   libohNetCore:Exception.obj
 0001:0001c2c0       ?UnhandledExceptionHandler@OpenHome@@YGXAAVException@1@@Z 0041d2c0 f   libohNetCore:Exception.obj
 0001:0001c370       ?UnhandledExceptionHandler@OpenHome@@YGXAAVexception@std@@@Z 0041d370 f   libohNetCore:Exception.obj
 0001:0001c420       ??0Exception@OpenHome@@QAE@PBD0I@Z 0041d420 f   libohNetCore:Exception.obj
 0001:0001c460       ??0Exception@OpenHome@@QAE@PBD@Z 0041d460 f   libohNetCore:Exception.obj
 0001:0001c4a0       ??1Exception@OpenHome@@QAE@XZ 0041d4a0 f   libohNetCore:Exception.obj
 0001:0001c4c0       ?Message@Exception@OpenHome@@QAEPBDXZ 0041d4c0 f   libohNetCore:Exception.obj
 0001:0001c4e0       ?File@Exception@OpenHome@@QAEPBDXZ 0041d4e0 f   libohNetCore:Exception.obj
 0001:0001c500       ?Line@Exception@OpenHome@@QAEIXZ 0041d500 f   libohNetCore:Exception.obj
 0001:0001c520       ??RFunctorMsg@OpenHome@@QBEXPBD@Z 0041d520 f i libohNetCore:Exception.obj
 0001:0001c560       ??0NetworkAdapterList@OpenHome@@QAE@I@Z 0041d560 f   libohNetCore:NetworkAdapterList.obj
 0001:0001c660       ??1NetworkAdapterList@OpenHome@@QAE@XZ 0041d660 f   libohNetCore:NetworkAdapterList.obj
 0001:0001c710       ?CurrentAdapter@NetworkAdapterList@OpenHome@@QBEPAVNetworkAdapter@2@XZ 0041d710 f   libohNetCore:NetworkAdapterList.obj
 0001:0001c7f0       ?List@NetworkAdapterList@OpenHome@@QBEABV?$vector@PAVNetworkAdapter@OpenHome@@V?$allocator@PAVNetworkAdapter@OpenHome@@@std@@@std@@XZ 0041d7f0 f   libohNetCore:NetworkAdapterList.obj
 0001:0001c810       ?CreateSubnetList@NetworkAdapterList@OpenHome@@QBEPAV?$vector@PAVNetworkAdapter@OpenHome@@V?$allocator@PAVNetworkAdapter@OpenHome@@@std@@@std@@XZ 0041d810 f   libohNetCore:NetworkAdapterList.obj
 0001:0001c860       ?DestroySubnetList@NetworkAdapterList@OpenHome@@SGXPAV?$vector@PAVNetworkAdapter@OpenHome@@V?$allocator@PAVNetworkAdapter@OpenHome@@@std@@@std@@@Z 0041d860 f   libohNetCore:NetworkAdapterList.obj
 0001:0001c8f0       ?SetCurrentSubnet@NetworkAdapterList@OpenHome@@QAEXI@Z 0041d8f0 f   libohNetCore:NetworkAdapterList.obj
 0001:0001c980       ?AddCurrentChangeListener@NetworkAdapterList@OpenHome@@QAEIVFunctor@2@@Z 0041d980 f   libohNetCore:NetworkAdapterList.obj
 0001:0001c9d0       ?RemoveCurrentChangeListener@NetworkAdapterList@OpenHome@@QAEXI@Z 0041d9d0 f   libohNetCore:NetworkAdapterList.obj
 0001:0001ca10       ?AddSubnetListChangeListener@NetworkAdapterList@OpenHome@@QAEIVFunctor@2@@Z 0041da10 f   libohNetCore:NetworkAdapterList.obj
 0001:0001ca60       ?RemoveSubnetListChangeListener@NetworkAdapterList@OpenHome@@QAEXI@Z 0041da60 f   libohNetCore:NetworkAdapterList.obj
 0001:0001caa0       ?CreateSubnetListLocked@NetworkAdapterList@OpenHome@@ABEPAV?$vector@PAVNetworkAdapter@OpenHome@@V?$allocator@PAVNetworkAdapter@OpenHome@@@std@@@std@@XZ 0041daa0 f   libohNetCore:NetworkAdapterList.obj
 0001:0001cbd0       ?AddListener@NetworkAdapterList@OpenHome@@AAEIVFunctor@2@AAV?$map@IVFunctor@OpenHome@@U?$less@I@std@@V?$allocator@U?$pair@$$CBIVFunctor@OpenHome@@@std@@@4@@std@@@Z 0041dbd0 f   libohNetCore:NetworkAdapterList.obj
 0001:0001cc80       ?RemoveSubnetListChangeListener@NetworkAdapterList@OpenHome@@AAEXIAAV?$map@IVFunctor@OpenHome@@U?$less@I@std@@V?$allocator@U?$pair@$$CBIVFunctor@OpenHome@@@std@@@4@@std@@@Z 0041dc80 f   libohNetCore:NetworkAdapterList.obj
 0001:0001cdb0       ?InterfaceListChanged@NetworkAdapterList@OpenHome@@CGXPAX@Z 0041ddb0 f   libohNetCore:NetworkAdapterList.obj
 0001:0001cdd0       ?FindSubnet@NetworkAdapterList@OpenHome@@CGHIABV?$vector@PAVNetworkAdapter@OpenHome@@V?$allocator@PAVNetworkAdapter@OpenHome@@@std@@@std@@@Z 0041ddd0 f   libohNetCore:NetworkAdapterList.obj
 0001:0001ce30       ?UpdateCurrentAdapter@NetworkAdapterList@OpenHome@@AAEXXZ 0041de30 f   libohNetCore:NetworkAdapterList.obj
 0001:0001cee0       ?HandleInterfaceListChanged@NetworkAdapterList@OpenHome@@AAEXXZ 0041dee0 f   libohNetCore:NetworkAdapterList.obj
 0001:0001d080       ?RunCallbacks@NetworkAdapterList@OpenHome@@AAEXAAV?$map@IVFunctor@OpenHome@@U?$less@I@std@@V?$allocator@U?$pair@$$CBIVFunctor@OpenHome@@@std@@@4@@std@@@Z 0041e080 f   libohNetCore:NetworkAdapterList.obj
 0001:0001d1a0       ?NetworkSetInterfaceChangedObserver@Os@OpenHome@@SGXP6GXPAX@Z0@Z 0041e1a0 f i libohNetCore:NetworkAdapterList.obj
 0001:0001d1c0       ??1?$map@IVFunctor@OpenHome@@U?$less@I@std@@V?$allocator@U?$pair@$$CBIVFunctor@OpenHome@@@std@@@4@@std@@QAE@XZ 0041e1c0 f i libohNetCore:NetworkAdapterList.obj
 0001:0001d1f0       ??1?$pair@V?$_Tree_iterator@V?$_Tree_val@V?$_Tmap_traits@IVFunctor@OpenHome@@U?$less@I@std@@V?$allocator@U?$pair@$$CBIVFunctor@OpenHome@@@std@@@4@$0A@@std@@@std@@@std@@_N@std@@QAE@XZ 0041e1f0 f i libohNetCore:NetworkAdapterList.obj
 0001:0001d220       ??1?$_Pair_base@V?$_Tree_iterator@V?$_Tree_val@V?$_Tmap_traits@IVFunctor@OpenHome@@U?$less@I@std@@V?$allocator@U?$pair@$$CBIVFunctor@OpenHome@@@std@@@4@$0A@@std@@@std@@@std@@_N@std@@QAE@XZ 0041e220 f i libohNetCore:NetworkAdapterList.obj
 0001:0001d250       ??1?$_Tree_iterator@V?$_Tree_val@V?$_Tmap_traits@IVFunctor@OpenHome@@U?$less@I@std@@V?$allocator@U?$pair@$$CBIVFunctor@OpenHome@@@std@@@4@$0A@@std@@@std@@@std@@QAE@XZ 0041e250 f i libohNetCore:NetworkAdapterList.obj
 0001:0001d280       ??1?$_Tree_const_iterator@V?$_Tree_val@V?$_Tmap_traits@IVFunctor@OpenHome@@U?$less@I@std@@V?$allocator@U?$pair@$$CBIVFunctor@OpenHome@@@std@@@4@$0A@@std@@@std@@@std@@QAE@XZ 0041e280 f i libohNetCore:NetworkAdapterList.obj
 0001:0001d2b0       ??1?$_Tree_unchecked_const_iterator@V?$_Tree_val@V?$_Tmap_traits@IVFunctor@OpenHome@@U?$less@I@std@@V?$allocator@U?$pair@$$CBIVFunctor@OpenHome@@@std@@@4@$0A@@std@@@std@@U_Iterator_base12@2@@std@@QAE@XZ 0041e2b0 f i libohNetCore:NetworkAdapterList.obj
 0001:0001d2e0       ??1?$_Iterator012@Ubidirectional_iterator_tag@std@@U?$pair@$$CBIVFunctor@OpenHome@@@2@HPBU32@ABU32@U_Iterator_base12@2@@std@@QAE@XZ 0041e2e0 f i libohNetCore:NetworkAdapterList.obj
 0001:0001d310       ??0?$_Tree_const_iterator@V?$_Tree_val@V?$_Tmap_traits@IVFunctor@OpenHome@@U?$less@I@std@@V?$allocator@U?$pair@$$CBIVFunctor@OpenHome@@@std@@@4@$0A@@std@@@std@@@std@@QAE@ABV01@@Z 0041e310 f i libohNetCore:NetworkAdapterList.obj
 0001:0001d340       ??0?$_Tree_unchecked_const_iterator@V?$_Tree_val@V?$_Tmap_traits@IVFunctor@OpenHome@@U?$less@I@std@@V?$allocator@U?$pair@$$CBIVFunctor@OpenHome@@@std@@@4@$0A@@std@@@std@@U_Iterator_base12@2@@std@@QAE@ABV01@@Z 0041e340 f i libohNetCore:NetworkAdapterList.obj
 0001:0001d380       ??0?$_Iterator012@Ubidirectional_iterator_tag@std@@U?$pair@$$CBIVFunctor@OpenHome@@@2@HPBU32@ABU32@U_Iterator_base12@2@@std@@QAE@ABU01@@Z 0041e380 f i libohNetCore:NetworkAdapterList.obj
 0001:0001d3b0       ??0?$map@IVFunctor@OpenHome@@U?$less@I@std@@V?$allocator@U?$pair@$$CBIVFunctor@OpenHome@@@std@@@4@@std@@QAE@XZ 0041e3b0 f i libohNetCore:NetworkAdapterList.obj
 0001:0001d3f0       ??1?$_Tree@V?$_Tmap_traits@IVFunctor@OpenHome@@U?$less@I@std@@V?$allocator@U?$pair@$$CBIVFunctor@OpenHome@@@std@@@4@$0A@@std@@@std@@QAE@XZ 0041e3f0 f i libohNetCore:NetworkAdapterList.obj
 0001:0001d460       ?begin@?$_Tree@V?$_Tmap_traits@IVFunctor@OpenHome@@U?$less@I@std@@V?$allocator@U?$pair@$$CBIVFunctor@OpenHome@@@std@@@4@$0A@@std@@@std@@QAE?AV?$_Tree_iterator@V?$_Tree_val@V?$_Tmap_traits@IVFunctor@OpenHome@@U?$less@I@std@@V?$allocator@U?$pair@$$CBIVFunctor@OpenHome@@@std@@@4@$0A@@std@@@std@@@2@XZ 0041e460 f i libohNetCore:NetworkAdapterList.obj
 0001:0001d4c0       ?end@?$_Tree@V?$_Tmap_traits@IVFunctor@OpenHome@@U?$less@I@std@@V?$allocator@U?$pair@$$CBIVFunctor@OpenHome@@@std@@@4@$0A@@std@@@std@@QAE?AV?$_Tree_iterator@V?$_Tree_val@V?$_Tmap_traits@IVFunctor@OpenHome@@U?$less@I@std@@V?$allocator@U?$pair@$$CBIVFunctor@OpenHome@@@std@@@4@$0A@@std@@@std@@@2@XZ 0041e4c0 f i libohNetCore:NetworkAdapterList.obj
 0001:0001d510       ?erase@?$_Tree@V?$_Tmap_traits@IVFunctor@OpenHome@@U?$less@I@std@@V?$allocator@U?$pair@$$CBIVFunctor@OpenHome@@@std@@@4@$0A@@std@@@std@@QAE?AV?$_Tree_iterator@V?$_Tree_val@V?$_Tmap_traits@IVFunctor@OpenHome@@U?$less@I@std@@V?$allocator@U?$pair@$$CBIVFunctor@OpenHome@@@std@@@4@$0A@@std@@@std@@@2@V?$_Tree_const_iterator@V?$_Tree_val@V?$_Tmap_traits@IVFunctor@OpenHome@@U?$less@I@std@@V?$allocator@U?$pair@$$CBIVFunctor@OpenHome@@@std@@@4@$0A@@std@@@std@@@2@@Z 0041e510 f i libohNetCore:NetworkAdapterList.obj
 0001:0001dc20       ?find@?$_Tree@V?$_Tmap_traits@IVFunctor@OpenHome@@U?$less@I@std@@V?$allocator@U?$pair@$$CBIVFunctor@OpenHome@@@std@@@4@$0A@@std@@@std@@QAE?AV?$_Tree_iterator@V?$_Tree_val@V?$_Tmap_traits@IVFunctor@OpenHome@@U?$less@I@std@@V?$allocator@U?$pair@$$CBIVFunctor@OpenHome@@@std@@@4@$0A@@std@@@std@@@2@ABI@Z 0041ec20 f i libohNetCore:NetworkAdapterList.obj
 0001:0001de00       ??0?$vector@PAVNetworkAdapter@OpenHome@@V?$allocator@PAVNetworkAdapter@OpenHome@@@std@@@std@@QAE@XZ 0041ee00 f i libohNetCore:NetworkAdapterList.obj
 0001:0001de40       ?push_back@?$vector@PAVNetworkAdapter@OpenHome@@V?$allocator@PAVNetworkAdapter@OpenHome@@@std@@@std@@QAEXABQAVNetworkAdapter@OpenHome@@@Z 0041ee40 f i libohNetCore:NetworkAdapterList.obj
 0001:0001df50       ??C?$_Tree_iterator@V?$_Tree_val@V?$_Tmap_traits@IVFunctor@OpenHome@@U?$less@I@std@@V?$allocator@U?$pair@$$CBIVFunctor@OpenHome@@@std@@@4@$0A@@std@@@std@@@std@@QBEPAU?$pair@$$CBIVFunctor@OpenHome@@@1@XZ 0041ef50 f i libohNetCore:NetworkAdapterList.obj
 0001:0001df80       ??E?$_Tree_iterator@V?$_Tree_val@V?$_Tmap_traits@IVFunctor@OpenHome@@U?$less@I@std@@V?$allocator@U?$pair@$$CBIVFunctor@OpenHome@@@std@@@4@$0A@@std@@@std@@@std@@QAE?AV01@H@Z 0041ef80 f i libohNetCore:NetworkAdapterList.obj
 0001:0001e050       ??9?$_Tree_const_iterator@V?$_Tree_val@V?$_Tmap_traits@IVFunctor@OpenHome@@U?$less@I@std@@V?$allocator@U?$pair@$$CBIVFunctor@OpenHome@@@std@@@4@$0A@@std@@@std@@@std@@QBE_NABV01@@Z 0041f050 f i libohNetCore:NetworkAdapterList.obj
 0001:0001e090       ??0?$_Tree_iterator@V?$_Tree_val@V?$_Tmap_traits@IVFunctor@OpenHome@@U?$less@I@std@@V?$allocator@U?$pair@$$CBIVFunctor@OpenHome@@@std@@@4@$0A@@std@@@std@@@std@@QAE@ABV01@@Z 0041f090 f i libohNetCore:NetworkAdapterList.obj
 0001:0001e0c0       ??0?$_Tree@V?$_Tmap_traits@IVFunctor@OpenHome@@U?$less@I@std@@V?$allocator@U?$pair@$$CBIVFunctor@OpenHome@@@std@@@4@$0A@@std@@@std@@QAE@ABU?$less@I@1@ABV?$allocator@U?$pair@$$CBIVFunctor@OpenHome@@@std@@@1@@Z 0041f0c0 f i libohNetCore:NetworkAdapterList.obj
 0001:0001e110       ?lower_bound@?$_Tree@V?$_Tmap_traits@IVFunctor@OpenHome@@U?$less@I@std@@V?$allocator@U?$pair@$$CBIVFunctor@OpenHome@@@std@@@4@$0A@@std@@@std@@QAE?AV?$_Tree_iterator@V?$_Tree_val@V?$_Tmap_traits@IVFunctor@OpenHome@@U?$less@I@std@@V?$allocator@U?$pair@$$CBIVFunctor@OpenHome@@@std@@@4@$0A@@std@@@std@@@2@ABI@Z 0041f110 f i libohNetCore:NetworkAdapterList.obj
 0001:0001e170       ?_Lmost@?$_Tree@V?$_Tmap_traits@IVFunctor@OpenHome@@U?$less@I@std@@V?$allocator@U?$pair@$$CBIVFunctor@OpenHome@@@std@@@4@$0A@@std@@@std@@IBEAAPAU_Node@?$_Tree_nod@V?$_Tmap_traits@IVFunctor@OpenHome@@U?$less@I@std@@V?$allocator@U?$pair@$$CBIVFunctor@OpenHome@@@std@@@4@$0A@@std@@@2@XZ 0041f170 f i libohNetCore:NetworkAdapterList.obj
 0001:0001e1a0       ?_Lrotate@?$_Tree@V?$_Tmap_traits@IVFunctor@OpenHome@@U?$less@I@std@@V?$allocator@U?$pair@$$CBIVFunctor@OpenHome@@@std@@@4@$0A@@std@@@std@@IAEXPAU_Node@?$_Tree_nod@V?$_Tmap_traits@IVFunctor@OpenHome@@U?$less@I@std@@V?$allocator@U?$pair@$$CBIVFunctor@OpenHome@@@std@@@4@$0A@@std@@@2@@Z 0041f1a0 f i libohNetCore:NetworkAdapterList.obj
 0001:0001e2c0       ?_Rmost@?$_Tree@V?$_Tmap_traits@IVFunctor@OpenHome@@U?$less@I@std@@V?$allocator@U?$pair@$$CBIVFunctor@OpenHome@@@std@@@4@$0A@@std@@@std@@IBEAAPAU_Node@?$_Tree_nod@V?$_Tmap_traits@IVFunctor@OpenHome@@U?$less@I@std@@V?$allocator@U?$pair@$$CBIVFunctor@OpenHome@@@std@@@4@$0A@@std@@@2@XZ 0041f2c0 f i libohNetCore:NetworkAdapterList.obj
 0001:0001e2f0       ?_Root@?$_Tree@V?$_Tmap_traits@IVFunctor@OpenHome@@U?$less@I@std@@V?$allocator@U?$pair@$$CBIVFunctor@OpenHome@@@std@@@4@$0A@@std@@@std@@IBEAAPAU_Node@?$_Tree_nod@V?$_Tmap_traits@IVFunctor@OpenHome@@U?$less@I@std@@V?$allocator@U?$pair@$$CBIVFunctor@OpenHome@@@std@@@4@$0A@@std@@@2@XZ 0041f2f0 f i libohNetCore:NetworkAdapterList.obj
 0001:0001e320       ?_Rrotate@?$_Tree@V?$_Tmap_traits@IVFunctor@OpenHome@@U?$less@I@std@@V?$allocator@U?$pair@$$CBIVFunctor@OpenHome@@@std@@@4@$0A@@std@@@std@@IAEXPAU_Node@?$_Tree_nod@V?$_Tmap_traits@IVFunctor@OpenHome@@U?$less@I@std@@V?$allocator@U?$pair@$$CBIVFunctor@OpenHome@@@std@@@4@$0A@@std@@@2@@Z 0041f320 f i libohNetCore:NetworkAdapterList.obj
 0001:0001e440       ?_Orphan_ptr@?$_Tree@V?$_Tmap_traits@IVFunctor@OpenHome@@U?$less@I@std@@V?$allocator@U?$pair@$$CBIVFunctor@OpenHome@@@std@@@4@$0A@@std@@@std@@IBEXAAV12@PAU_Node@?$_Tree_nod@V?$_Tmap_traits@IVFunctor@OpenHome@@U?$less@I@std@@V?$allocator@U?$pair@$$CBIVFunctor@OpenHome@@@std@@@4@$0A@@std@@@2@@Z 0041f440 f i libohNetCore:NetworkAdapterList.obj
 0001:0001e550       ?_Tidy@?$_Tree@V?$_Tmap_traits@IVFunctor@OpenHome@@U?$less@I@std@@V?$allocator@U?$pair@$$CBIVFunctor@OpenHome@@@std@@@4@$0A@@std@@@std@@IAEXXZ 0041f550 f i libohNetCore:NetworkAdapterList.obj
 0001:0001e650       ??1?$_Tree_val@V?$_Tmap_traits@IVFunctor@OpenHome@@U?$less@I@std@@V?$allocator@U?$pair@$$CBIVFunctor@OpenHome@@@std@@@4@$0A@@std@@@std@@QAE@XZ 0041f650 f i libohNetCore:NetworkAdapterList.obj
 0001:0001e6c0       ?_Color@?$_Tree_val@V?$_Tmap_traits@IVFunctor@OpenHome@@U?$less@I@std@@V?$allocator@U?$pair@$$CBIVFunctor@OpenHome@@@std@@@4@$0A@@std@@@std@@SGAADPAU_Node@?$_Tree_nod@V?$_Tmap_traits@IVFunctor@OpenHome@@U?$less@I@std@@V?$allocator@U?$pair@$$CBIVFunctor@OpenHome@@@std@@@4@$0A@@std@@@2@@Z 0041f6c0 f i libohNetCore:NetworkAdapterList.obj
 0001:0001e6d0       ?_Isnil@?$_Tree_val@V?$_Tmap_traits@IVFunctor@OpenHome@@U?$less@I@std@@V?$allocator@U?$pair@$$CBIVFunctor@OpenHome@@@std@@@4@$0A@@std@@@std@@SGAADPAU_Node@?$_Tree_nod@V?$_Tmap_traits@IVFunctor@OpenHome@@U?$less@I@std@@V?$allocator@U?$pair@$$CBIVFunctor@OpenHome@@@std@@@4@$0A@@std@@@2@@Z 0041f6d0 f i libohNetCore:NetworkAdapterList.obj
 0001:0001e6e0       ?_Key@?$_Tree_val@V?$_Tmap_traits@IVFunctor@OpenHome@@U?$less@I@std@@V?$allocator@U?$pair@$$CBIVFunctor@OpenHome@@@std@@@4@$0A@@std@@@std@@SGAAIPAU_Node@?$_Tree_nod@V?$_Tmap_traits@IVFunctor@OpenHome@@U?$less@I@std@@V?$allocator@U?$pair@$$CBIVFunctor@OpenHome@@@std@@@4@$0A@@std@@@2@@Z 0041f6e0 f i libohNetCore:NetworkAdapterList.obj
 0001:0001e700       ?_Left@?$_Tree_val@V?$_Tmap_traits@IVFunctor@OpenHome@@U?$less@I@std@@V?$allocator@U?$pair@$$CBIVFunctor@OpenHome@@@std@@@4@$0A@@std@@@std@@SGAAPAU_Node@?$_Tree_nod@V?$_Tmap_traits@IVFunctor@OpenHome@@U?$less@I@std@@V?$allocator@U?$pair@$$CBIVFunctor@OpenHome@@@std@@@4@$0A@@std@@@2@PAU342@@Z 0041f700 f i libohNetCore:NetworkAdapterList.obj
 0001:0001e710       ?_Parent@?$_Tree_val@V?$_Tmap_traits@IVFunctor@OpenHome@@U?$less@I@std@@V?$allocator@U?$pair@$$CBIVFunctor@OpenHome@@@std@@@4@$0A@@std@@@std@@SGAAPAU_Node@?$_Tree_nod@V?$_Tmap_traits@IVFunctor@OpenHome@@U?$less@I@std@@V?$allocator@U?$pair@$$CBIVFunctor@OpenHome@@@std@@@4@$0A@@std@@@2@PAU342@@Z 0041f710 f i libohNetCore:NetworkAdapterList.obj
 0001:0001e720       ?_Right@?$_Tree_val@V?$_Tmap_traits@IVFunctor@OpenHome@@U?$less@I@std@@V?$allocator@U?$pair@$$CBIVFunctor@OpenHome@@@std@@@4@$0A@@std@@@std@@SGAAPAU_Node@?$_Tree_nod@V?$_Tmap_traits@IVFunctor@OpenHome@@U?$less@I@std@@V?$allocator@U?$pair@$$CBIVFunctor@OpenHome@@@std@@@4@$0A@@std@@@2@PAU342@@Z 0041f720 f i libohNetCore:NetworkAdapterList.obj
 0001:0001e730       ?_Myval@?$_Tree_val@V?$_Tmap_traits@IVFunctor@OpenHome@@U?$less@I@std@@V?$allocator@U?$pair@$$CBIVFunctor@OpenHome@@@std@@@4@$0A@@std@@@std@@SGAAU?$pair@$$CBIVFunctor@OpenHome@@@2@PAU_Node@?$_Tree_nod@V?$_Tmap_traits@IVFunctor@OpenHome@@U?$less@I@std@@V?$allocator@U?$pair@$$CBIVFunctor@OpenHome@@@std@@@4@$0A@@std@@@2@@Z 0041f730 f i libohNetCore:NetworkAdapterList.obj
 0001:0001e740       ?_Max@?$_Tree_val@V?$_Tmap_traits@IVFunctor@OpenHome@@U?$less@I@std@@V?$allocator@U?$pair@$$CBIVFunctor@OpenHome@@@std@@@4@$0A@@std@@@std@@SGPAU_Node@?$_Tree_nod@V?$_Tmap_traits@IVFunctor@OpenHome@@U?$less@I@std@@V?$allocator@U?$pair@$$CBIVFunctor@OpenHome@@@std@@@4@$0A@@std@@@2@PAU342@@Z 0041f740 f i libohNetCore:NetworkAdapterList.obj
 0001:0001e780       ?_Min@?$_Tree_val@V?$_Tmap_traits@IVFunctor@OpenHome@@U?$less@I@std@@V?$allocator@U?$pair@$$CBIVFunctor@OpenHome@@@std@@@4@$0A@@std@@@std@@SGPAU_Node@?$_Tree_nod@V?$_Tmap_traits@IVFunctor@OpenHome@@U?$less@I@std@@V?$allocator@U?$pair@$$CBIVFunctor@OpenHome@@@std@@@4@$0A@@std@@@2@PAU342@@Z 0041f780 f i libohNetCore:NetworkAdapterList.obj
 0001:0001e7c0       ??0?$allocator@U?$pair@$$CBIVFunctor@OpenHome@@@std@@@std@@QAE@XZ 0041f7c0 f i libohNetCore:NetworkAdapterList.obj
 0001:0001e7e0       ?deallocate@?$allocator@U_Node@?$_Tree_nod@V?$_Tmap_traits@IVFunctor@OpenHome@@U?$less@I@std@@V?$allocator@U?$pair@$$CBIVFunctor@OpenHome@@@std@@@4@$0A@@std@@@std@@@std@@QAEXPAU_Node@?$_Tree_nod@V?$_Tmap_traits@IVFunctor@OpenHome@@U?$less@I@std@@V?$allocator@U?$pair@$$CBIVFunctor@OpenHome@@@std@@@4@$0A@@std@@@2@I@Z 0041f7e0 f i libohNetCore:NetworkAdapterList.obj
 0001:0001e810       ?_Inside@?$vector@PAVNetworkAdapter@OpenHome@@V?$allocator@PAVNetworkAdapter@OpenHome@@@std@@@std@@IBE_NPBQAVNetworkAdapter@OpenHome@@@Z 0041f810 f i libohNetCore:NetworkAdapterList.obj
 0001:0001e860       ?_Reserve@?$vector@PAVNetworkAdapter@OpenHome@@V?$allocator@PAVNetworkAdapter@OpenHome@@@std@@@std@@IAEXI@Z 0041f860 f i libohNetCore:NetworkAdapterList.obj
 0001:0001e8e0       ?_Orphan_range@?$vector@PAVNetworkAdapter@OpenHome@@V?$allocator@PAVNetworkAdapter@OpenHome@@@std@@@std@@IBEXPAPAVNetworkAdapter@OpenHome@@0@Z 0041f8e0 f i libohNetCore:NetworkAdapterList.obj
 0001:0001e9f0       ??0?$_Vector_val@PAVNetworkAdapter@OpenHome@@V?$allocator@PAVNetworkAdapter@OpenHome@@@std@@@std@@QAE@V?$allocator@PAVNetworkAdapter@OpenHome@@@1@@Z 0041f9f0 f i libohNetCore:NetworkAdapterList.obj
 0001:0001eb10       ??0?$allocator@PAVNetworkAdapter@OpenHome@@@std@@QAE@XZ 0041fb10 f i libohNetCore:NetworkAdapterList.obj
 0001:0001eb30       ??0?$_Tree_iterator@V?$_Tree_val@V?$_Tmap_traits@IVFunctor@OpenHome@@U?$less@I@std@@V?$allocator@U?$pair@$$CBIVFunctor@OpenHome@@@std@@@4@$0A@@std@@@std@@@std@@QAE@PAU_Node@?$_Tree_nod@V?$_Tmap_traits@IVFunctor@OpenHome@@U?$less@I@std@@V?$allocator@U?$pair@$$CBIVFunctor@OpenHome@@@std@@@4@$0A@@std@@@1@PBV?$_Tree_val@V?$_Tmap_traits@IVFunctor@OpenHome@@U?$less@I@std@@V?$allocator@U?$pair@$$CBIVFunctor@OpenHome@@@std@@@4@$0A@@std@@@1@@Z 0041fb30 f i libohNetCore:NetworkAdapterList.obj
 0001:0001eb70       ??D?$_Tree_iterator@V?$_Tree_val@V?$_Tmap_traits@IVFunctor@OpenHome@@U?$less@I@std@@V?$allocator@U?$pair@$$CBIVFunctor@OpenHome@@@std@@@4@$0A@@std@@@std@@@std@@QBEAAU?$pair@$$CBIVFunctor@OpenHome@@@1@XZ 0041fb70 f i libohNetCore:NetworkAdapterList.obj
 0001:0001eba0       ??E?$_Tree_iterator@V?$_Tree_val@V?$_Tmap_traits@IVFunctor@OpenHome@@U?$less@I@std@@V?$allocator@U?$pair@$$CBIVFunctor@OpenHome@@@std@@@4@$0A@@std@@@std@@@std@@QAEAAV01@XZ 0041fba0 f i libohNetCore:NetworkAdapterList.obj
 0001:0001ebd0       ??E?$_Tree_const_iterator@V?$_Tree_val@V?$_Tmap_traits@IVFunctor@OpenHome@@U?$less@I@std@@V?$allocator@U?$pair@$$CBIVFunctor@OpenHome@@@std@@@4@$0A@@std@@@std@@@std@@QAEAAV01@XZ 0041fbd0 f i libohNetCore:NetworkAdapterList.obj
 0001:0001ec90       ??8?$_Tree_const_iterator@V?$_Tree_val@V?$_Tmap_traits@IVFunctor@OpenHome@@U?$less@I@std@@V?$allocator@U?$pair@$$CBIVFunctor@OpenHome@@@std@@@4@$0A@@std@@@std@@@std@@QBE_NABV01@@Z 0041fc90 f i libohNetCore:NetworkAdapterList.obj
 0001:0001ed50       ?_Mynode@?$_Tree_unchecked_const_iterator@V?$_Tree_val@V?$_Tmap_traits@IVFunctor@OpenHome@@U?$less@I@std@@V?$allocator@U?$pair@$$CBIVFunctor@OpenHome@@@std@@@4@$0A@@std@@@std@@U_Iterator_base12@2@@std@@QBEPAU_Node@?$_Tree_nod@V?$_Tmap_traits@IVFunctor@OpenHome@@U?$less@I@std@@V?$allocator@U?$pair@$$CBIVFunctor@OpenHome@@@std@@@4@$0A@@std@@@2@XZ 0041fd50 f i libohNetCore:NetworkAdapterList.obj
 0001:0001ed70       ?erase@?$_Tree@V?$_Tmap_traits@IVFunctor@OpenHome@@U?$less@I@std@@V?$allocator@U?$pair@$$CBIVFunctor@OpenHome@@@std@@@4@$0A@@std@@@std@@QAE?AV?$_Tree_iterator@V?$_Tree_val@V?$_Tmap_traits@IVFunctor@OpenHome@@U?$less@I@std@@V?$allocator@U?$pair@$$CBIVFunctor@OpenHome@@@std@@@4@$0A@@std@@@std@@@2@V?$_Tree_const_iterator@V?$_Tree_val@V?$_Tmap_traits@IVFunctor@OpenHome@@U?$less@I@std@@V?$allocator@U?$pair@$$CBIVFunctor@OpenHome@@@std@@@4@$0A@@std@@@std@@@2@0@Z 0041fd70 f i libohNetCore:NetworkAdapterList.obj
 0001:0001ef70       ?_Lbound@?$_Tree@V?$_Tmap_traits@IVFunctor@OpenHome@@U?$less@I@std@@V?$allocator@U?$pair@$$CBIVFunctor@OpenHome@@@std@@@4@$0A@@std@@@std@@IAEPAU_Node@?$_Tree_nod@V?$_Tmap_traits@IVFunctor@OpenHome@@U?$less@I@std@@V?$allocator@U?$pair@$$CBIVFunctor@OpenHome@@@std@@@4@$0A@@std@@@2@ABI@Z 0041ff70 f i libohNetCore:NetworkAdapterList.obj
 0001:0001f020       ??0?$_Tree_val@V?$_Tmap_traits@IVFunctor@OpenHome@@U?$less@I@std@@V?$allocator@U?$pair@$$CBIVFunctor@OpenHome@@@std@@@4@$0A@@std@@@std@@QAE@ABU?$less@I@1@V?$allocator@U?$pair@$$CBIVFunctor@OpenHome@@@std@@@1@@Z 00420020 f i libohNetCore:NetworkAdapterList.obj
 0001:0001f120       ??1?$_Tree_nod@V?$_Tmap_traits@IVFunctor@OpenHome@@U?$less@I@std@@V?$allocator@U?$pair@$$CBIVFunctor@OpenHome@@@std@@@4@$0A@@std@@@std@@QAE@XZ 00420120 f i libohNetCore:NetworkAdapterList.obj
 0001:0001f200       ??0?$allocator@U?$pair@$$CBIVFunctor@OpenHome@@@std@@@std@@QAE@ABV01@@Z 00420200 f i libohNetCore:NetworkAdapterList.obj
 0001:0001f220       ?reserve@?$vector@PAVNetworkAdapter@OpenHome@@V?$allocator@PAVNetworkAdapter@OpenHome@@@std@@@std@@QAEXI@Z 00420220 f i libohNetCore:NetworkAdapterList.obj
 0001:0001f390       ?capacity@?$vector@PAVNetworkAdapter@OpenHome@@V?$allocator@PAVNetworkAdapter@OpenHome@@@std@@@std@@QBEIXZ 00420390 f i libohNetCore:NetworkAdapterList.obj
 0001:0001f3c0       ?max_size@?$vector@PAVNetworkAdapter@OpenHome@@V?$allocator@PAVNetworkAdapter@OpenHome@@@std@@@std@@QBEIXZ 004203c0 f i libohNetCore:NetworkAdapterList.obj
 0001:0001f3f0       ?_Grow_to@?$vector@PAVNetworkAdapter@OpenHome@@V?$allocator@PAVNetworkAdapter@OpenHome@@@std@@@std@@IBEII@Z 004203f0 f i libohNetCore:NetworkAdapterList.obj
 0001:0001f470       ?_Xlen@?$vector@PAVNetworkAdapter@OpenHome@@V?$allocator@PAVNetworkAdapter@OpenHome@@@std@@@std@@IBEXXZ 00420470 f i libohNetCore:NetworkAdapterList.obj
 0001:0001f4a0       ??0?$allocator@PAVNetworkAdapter@OpenHome@@@std@@QAE@ABV01@@Z 004204a0 f i libohNetCore:NetworkAdapterList.obj
 0001:0001f4c0       ??0?$_Tree_const_iterator@V?$_Tree_val@V?$_Tmap_traits@IVFunctor@OpenHome@@U?$less@I@std@@V?$allocator@U?$pair@$$CBIVFunctor@OpenHome@@@std@@@4@$0A@@std@@@std@@@std@@QAE@PAU_Node@?$_Tree_nod@V?$_Tmap_traits@IVFunctor@OpenHome@@U?$less@I@std@@V?$allocator@U?$pair@$$CBIVFunctor@OpenHome@@@std@@@4@$0A@@std@@@1@PBV?$_Tree_val@V?$_Tmap_traits@IVFunctor@OpenHome@@U?$less@I@std@@V?$allocator@U?$pair@$$CBIVFunctor@OpenHome@@@std@@@4@$0A@@std@@@1@@Z 004204c0 f i libohNetCore:NetworkAdapterList.obj
 0001:0001f500       ??D?$_Tree_const_iterator@V?$_Tree_val@V?$_Tmap_traits@IVFunctor@OpenHome@@U?$less@I@std@@V?$allocator@U?$pair@$$CBIVFunctor@OpenHome@@@std@@@4@$0A@@std@@@std@@@std@@QBEABU?$pair@$$CBIVFunctor@OpenHome@@@1@XZ 00420500 f i libohNetCore:NetworkAdapterList.obj
 0001:0001f5c0       ??E?$_Tree_unchecked_const_iterator@V?$_Tree_val@V?$_Tmap_traits@IVFunctor@OpenHome@@U?$less@I@std@@V?$allocator@U?$pair@$$CBIVFunctor@OpenHome@@@std@@@4@$0A@@std@@@std@@U_Iterator_base12@2@@std@@QAEAAV01@XZ 004205c0 f i libohNetCore:NetworkAdapterList.obj
 0001:0001f680       ??1?$_Tmap_traits@IVFunctor@OpenHome@@U?$less@I@std@@V?$allocator@U?$pair@$$CBIVFunctor@OpenHome@@@std@@@4@$0A@@std@@QAE@XZ 00420680 f i libohNetCore:NetworkAdapterList.obj
 0001:0001f6b0       ?clear@?$_Tree@V?$_Tmap_traits@IVFunctor@OpenHome@@U?$less@I@std@@V?$allocator@U?$pair@$$CBIVFunctor@OpenHome@@@std@@@4@$0A@@std@@@std@@QAEXXZ 004206b0 f i libohNetCore:NetworkAdapterList.obj
 0001:0001f730       ??0?$_Tree_nod@V?$_Tmap_traits@IVFunctor@OpenHome@@U?$less@I@std@@V?$allocator@U?$pair@$$CBIVFunctor@OpenHome@@@std@@@4@$0A@@std@@@std@@QAE@ABU?$less@I@1@V?$allocator@U?$pair@$$CBIVFunctor@OpenHome@@@std@@@1@@Z 00420730 f i libohNetCore:NetworkAdapterList.obj
 0001:0001f840       ?allocate@?$allocator@U_Node@?$_Tree_nod@V?$_Tmap_traits@IVFunctor@OpenHome@@U?$less@I@std@@V?$allocator@U?$pair@$$CBIVFunctor@OpenHome@@@std@@@4@$0A@@std@@@std@@@std@@QAEPAU_Node@?$_Tree_nod@V?$_Tmap_traits@IVFunctor@OpenHome@@U?$less@I@std@@V?$allocator@U?$pair@$$CBIVFunctor@OpenHome@@@std@@@4@$0A@@std@@@2@I@Z 00420840 f i libohNetCore:NetworkAdapterList.obj
 0001:0001f870       ?allocate@?$allocator@PAVNetworkAdapter@OpenHome@@@std@@QAEPAPAVNetworkAdapter@OpenHome@@I@Z 00420870 f i libohNetCore:NetworkAdapterList.obj
 0001:0001f8a0       ?max_size@?$allocator@PAVNetworkAdapter@OpenHome@@@std@@QBEIXZ 004208a0 f i libohNetCore:NetworkAdapterList.obj
 0001:0001f8f0       ??E?$_Tree_const_iterator@V?$_Tree_val@V?$_Tmap_traits@IVFunctor@OpenHome@@U?$less@I@std@@V?$allocator@U?$pair@$$CBIVFunctor@OpenHome@@@std@@@4@$0A@@std@@@std@@@std@@QAE?AV01@H@Z 004208f0 f i libohNetCore:NetworkAdapterList.obj
 0001:0001f9c0       ??0?$_Tree_unchecked_const_iterator@V?$_Tree_val@V?$_Tmap_traits@IVFunctor@OpenHome@@U?$less@I@std@@V?$allocator@U?$pair@$$CBIVFunctor@OpenHome@@@std@@@4@$0A@@std@@@std@@U_Iterator_base12@2@@std@@QAE@PAU_Node@?$_Tree_nod@V?$_Tmap_traits@IVFunctor@OpenHome@@U?$less@I@std@@V?$allocator@U?$pair@$$CBIVFunctor@OpenHome@@@std@@@4@$0A@@std@@@1@PBV?$_Tree_val@V?$_Tmap_traits@IVFunctor@OpenHome@@U?$less@I@std@@V?$allocator@U?$pair@$$CBIVFunctor@OpenHome@@@std@@@4@$0A@@std@@@1@@Z 004209c0 f i libohNetCore:NetworkAdapterList.obj
 0001:0001fa40       ??0?$_Iterator012@Ubidirectional_iterator_tag@std@@U?$pair@$$CBIVFunctor@OpenHome@@@2@HPBU32@ABU32@U_Iterator_base12@2@@std@@QAE@XZ 00420a40 f i libohNetCore:NetworkAdapterList.obj
 0001:0001fa70       ?_Erase@?$_Tree@V?$_Tmap_traits@IVFunctor@OpenHome@@U?$less@I@std@@V?$allocator@U?$pair@$$CBIVFunctor@OpenHome@@@std@@@4@$0A@@std@@@std@@IAEXPAU_Node@?$_Tree_nod@V?$_Tmap_traits@IVFunctor@OpenHome@@U?$less@I@std@@V?$allocator@U?$pair@$$CBIVFunctor@OpenHome@@@std@@@4@$0A@@std@@@2@@Z 00420a70 f i libohNetCore:NetworkAdapterList.obj
 0001:0001fb10       ??0?$_Tmap_traits@IVFunctor@OpenHome@@U?$less@I@std@@V?$allocator@U?$pair@$$CBIVFunctor@OpenHome@@@std@@@4@$0A@@std@@QAE@U?$less@I@1@@Z 00420b10 f i libohNetCore:NetworkAdapterList.obj
 0001:0001fb40       ??$?0AAIAAVFunctor@OpenHome@@@?$pair@IVFunctor@OpenHome@@@std@@QAE@AAIAAVFunctor@OpenHome@@@Z 00420b40 f i libohNetCore:NetworkAdapterList.obj
 0001:0001fb80       ??$insert@U?$pair@IVFunctor@OpenHome@@@std@@@?$_Tree@V?$_Tmap_traits@IVFunctor@OpenHome@@U?$less@I@std@@V?$allocator@U?$pair@$$CBIVFunctor@OpenHome@@@std@@@4@$0A@@std@@@std@@QAE?AU?$pair@V?$_Tree_iterator@V?$_Tree_val@V?$_Tmap_traits@IVFunctor@OpenHome@@U?$less@I@std@@V?$allocator@U?$pair@$$CBIVFunctor@OpenHome@@@std@@@4@$0A@@std@@@std@@@std@@_N@1@$$QAU?$pair@IVFunctor@OpenHome@@@1@@Z 00420b80 f i libohNetCore:NetworkAdapterList.obj
 0001:0001fbe0       ??$swap@D@std@@YGXAAD0@Z   00420be0 f i libohNetCore:NetworkAdapterList.obj
 0001:0001fc70       ??$addressof@U?$pair@$$CBIVFunctor@OpenHome@@@std@@@std@@YGPAU?$pair@$$CBIVFunctor@OpenHome@@@0@AAU10@@Z 00420c70 f i libohNetCore:NetworkAdapterList.obj
 0001:0001fc80       ??$_Dest_val@V?$allocator@U?$pair@$$CBIVFunctor@OpenHome@@@std@@@std@@U?$pair@$$CBIVFunctor@OpenHome@@@2@@std@@YGXAAV?$allocator@U?$pair@$$CBIVFunctor@OpenHome@@@std@@@0@PAU?$pair@$$CBIVFunctor@OpenHome@@@0@@Z 00420c80 f i libohNetCore:NetworkAdapterList.obj
 0001:0001fca0       ??$_Debug_lt_pred@U?$less@I@std@@II@std@@YG_NU?$less@I@0@ABIAAIPB_WI@Z 00420ca0 f i libohNetCore:NetworkAdapterList.obj
 0001:0001fd00       ??$addressof@QAVNetworkAdapter@OpenHome@@@std@@YGPBQAVNetworkAdapter@OpenHome@@ABQAV12@@Z 00420d00 f i libohNetCore:NetworkAdapterList.obj
 0001:0001fd10       ??$_Cons_val@V?$allocator@PAVNetworkAdapter@OpenHome@@@std@@PAVNetworkAdapter@OpenHome@@AAPAV34@@std@@YGXAAV?$allocator@PAVNetworkAdapter@OpenHome@@@0@PAPAVNetworkAdapter@OpenHome@@AAPAV23@@Z 00420d10 f i libohNetCore:NetworkAdapterList.obj
 0001:0001fd40       ??$_Cons_val@V?$allocator@PAVNetworkAdapter@OpenHome@@@std@@PAVNetworkAdapter@OpenHome@@ABQAV34@@std@@YGXAAV?$allocator@PAVNetworkAdapter@OpenHome@@@0@PAPAVNetworkAdapter@OpenHome@@ABQAV23@@Z 00420d40 f i libohNetCore:NetworkAdapterList.obj
 0001:0001fd70       ??$_Kfn@$$CBIVFunctor@OpenHome@@@?$_Tmap_traits@IVFunctor@OpenHome@@U?$less@I@std@@V?$allocator@U?$pair@$$CBIVFunctor@OpenHome@@@std@@@4@$0A@@std@@SGABIABU?$pair@$$CBIVFunctor@OpenHome@@@1@@Z 00420d70 f i libohNetCore:NetworkAdapterList.obj
 0001:0001fd80       ??$_Debug_lt_pred@U?$less@I@std@@II@std@@YG_NU?$less@I@0@AAIABIPB_WI@Z 00420d80 f i libohNetCore:NetworkAdapterList.obj
 0001:0001fde0       ??$?0U_Node@?$_Tree_nod@V?$_Tmap_traits@IVFunctor@OpenHome@@U?$less@I@std@@V?$allocator@U?$pair@$$CBIVFunctor@OpenHome@@@std@@@4@$0A@@std@@@std@@@?$allocator@U_Container_proxy@std@@@std@@QAE@ABV?$allocator@U_Node@?$_Tree_nod@V?$_Tmap_traits@IVFunctor@OpenHome@@U?$less@I@std@@V?$allocator@U?$pair@$$CBIVFunctor@OpenHome@@@std@@@4@$0A@@std@@@std@@@1@@Z 00420de0 f i libohNetCore:NetworkAdapterList.obj
 0001:0001fe00       ??$_Umove@PAPAVNetworkAdapter@OpenHome@@@?$vector@PAVNetworkAdapter@OpenHome@@V?$allocator@PAVNetworkAdapter@OpenHome@@@std@@@std@@IAEPAPAVNetworkAdapter@OpenHome@@PAPAV23@00@Z 00420e00 f i libohNetCore:NetworkAdapterList.obj
 0001:0001fe40       ??$?0U?$pair@$$CBIVFunctor@OpenHome@@@std@@@?$allocator@U_Node@?$_Tree_nod@V?$_Tmap_traits@IVFunctor@OpenHome@@U?$less@I@std@@V?$allocator@U?$pair@$$CBIVFunctor@OpenHome@@@std@@@4@$0A@@std@@@std@@@std@@QAE@ABV?$allocator@U?$pair@$$CBIVFunctor@OpenHome@@@std@@@1@@Z 00420e40 f i libohNetCore:NetworkAdapterList.obj
 0001:0001fe60       ??$_Allocate@U_Node@?$_Tree_nod@V?$_Tmap_traits@IVFunctor@OpenHome@@U?$less@I@std@@V?$allocator@U?$pair@$$CBIVFunctor@OpenHome@@@std@@@4@$0A@@std@@@std@@@std@@YGPAU_Node@?$_Tree_nod@V?$_Tmap_traits@IVFunctor@OpenHome@@U?$less@I@std@@V?$allocator@U?$pair@$$CBIVFunctor@OpenHome@@@std@@@4@$0A@@std@@@0@IPAU120@@Z 00420e60 f i libohNetCore:NetworkAdapterList.obj
 0001:0001fee0       ??$_Allocate@PAVNetworkAdapter@OpenHome@@@std@@YGPAPAVNetworkAdapter@OpenHome@@IPAPAV12@@Z 00420ee0 f i libohNetCore:NetworkAdapterList.obj
 0001:0001ff60       ?_Linsert@?$_Tree@V?$_Tmap_traits@IVFunctor@OpenHome@@U?$less@I@std@@V?$allocator@U?$pair@$$CBIVFunctor@OpenHome@@@std@@@4@$0A@@std@@@std@@QAE?AU?$pair@V?$_Tree_iterator@V?$_Tree_val@V?$_Tmap_traits@IVFunctor@OpenHome@@U?$less@I@std@@V?$allocator@U?$pair@$$CBIVFunctor@OpenHome@@@std@@@4@$0A@@std@@@std@@@std@@_N@2@PAU_Node@?$_Tree_nod@V?$_Tmap_traits@IVFunctor@OpenHome@@U?$less@I@std@@V?$allocator@U?$pair@$$CBIVFunctor@OpenHome@@@std@@@4@$0A@@std@@@2@_N@Z 00420f60 f i libohNetCore:NetworkAdapterList.obj
 0001:00020340       ?destroy@?$allocator@U?$pair@$$CBIVFunctor@OpenHome@@@std@@@std@@QAEXPAU?$pair@$$CBIVFunctor@OpenHome@@@2@@Z 00421340 f i libohNetCore:NetworkAdapterList.obj
 0001:00020370       ??R?$less@I@std@@QBE_NABI0@Z 00421370 f i libohNetCore:NetworkAdapterList.obj
 0001:000203a0       ?construct@?$allocator@PAVNetworkAdapter@OpenHome@@@std@@QAEXPAPAVNetworkAdapter@OpenHome@@ABQAV34@@Z 004213a0 f i libohNetCore:NetworkAdapterList.obj
 0001:000203d0       ?_Insert@?$_Tree@V?$_Tmap_traits@IVFunctor@OpenHome@@U?$less@I@std@@V?$allocator@U?$pair@$$CBIVFunctor@OpenHome@@@std@@@4@$0A@@std@@@std@@IAE?AV?$_Tree_iterator@V?$_Tree_val@V?$_Tmap_traits@IVFunctor@OpenHome@@U?$less@I@std@@V?$allocator@U?$pair@$$CBIVFunctor@OpenHome@@@std@@@4@$0A@@std@@@std@@@2@_NPAU_Node@?$_Tree_nod@V?$_Tmap_traits@IVFunctor@OpenHome@@U?$less@I@std@@V?$allocator@U?$pair@$$CBIVFunctor@OpenHome@@@std@@@4@$0A@@std@@@2@1@Z 004213d0 f i libohNetCore:NetworkAdapterList.obj
 0001:00020790       ??0?$pair@V?$_Tree_iterator@V?$_Tree_val@V?$_Tmap_traits@IVFunctor@OpenHome@@U?$less@I@std@@V?$allocator@U?$pair@$$CBIVFunctor@OpenHome@@@std@@@4@$0A@@std@@@std@@@std@@_N@std@@QAE@$$QAV?$_Tree_iterator@V?$_Tree_val@V?$_Tmap_traits@IVFunctor@OpenHome@@U?$less@I@std@@V?$allocator@U?$pair@$$CBIVFunctor@OpenHome@@@std@@@4@$0A@@std@@@std@@@1@$$QA_N@Z 00421790 f i libohNetCore:NetworkAdapterList.obj
 0001:000207d0       ??F?$_Tree_iterator@V?$_Tree_val@V?$_Tmap_traits@IVFunctor@OpenHome@@U?$less@I@std@@V?$allocator@U?$pair@$$CBIVFunctor@OpenHome@@@std@@@4@$0A@@std@@@std@@@std@@QAEAAV01@XZ 004217d0 f i libohNetCore:NetworkAdapterList.obj
 0001:00020800       ?max_size@?$_Tree@V?$_Tmap_traits@IVFunctor@OpenHome@@U?$less@I@std@@V?$allocator@U?$pair@$$CBIVFunctor@OpenHome@@@std@@@4@$0A@@std@@@std@@QBEIXZ 00421800 f i libohNetCore:NetworkAdapterList.obj
 0001:00020830       ??0?$_Pair_base@V?$_Tree_iterator@V?$_Tree_val@V?$_Tmap_traits@IVFunctor@OpenHome@@U?$less@I@std@@V?$allocator@U?$pair@$$CBIVFunctor@OpenHome@@@std@@@4@$0A@@std@@@std@@@std@@_N@std@@QAE@$$QAV?$_Tree_iterator@V?$_Tree_val@V?$_Tmap_traits@IVFunctor@OpenHome@@U?$less@I@std@@V?$allocator@U?$pair@$$CBIVFunctor@OpenHome@@@std@@@4@$0A@@std@@@std@@@1@$$QA_N@Z 00421830 f i libohNetCore:NetworkAdapterList.obj
 0001:000208b0       ??F?$_Tree_const_iterator@V?$_Tree_val@V?$_Tmap_traits@IVFunctor@OpenHome@@U?$less@I@std@@V?$allocator@U?$pair@$$CBIVFunctor@OpenHome@@@std@@@4@$0A@@std@@@std@@@std@@QAEAAV01@XZ 004218b0 f i libohNetCore:NetworkAdapterList.obj
 0001:000209d0       ?max_size@?$allocator@U?$pair@$$CBIVFunctor@OpenHome@@@std@@@std@@QBEIXZ 004219d0 f i libohNetCore:NetworkAdapterList.obj
 0001:00020a20       ??F?$_Tree_unchecked_const_iterator@V?$_Tree_val@V?$_Tmap_traits@IVFunctor@OpenHome@@U?$less@I@std@@V?$allocator@U?$pair@$$CBIVFunctor@OpenHome@@@std@@@4@$0A@@std@@@std@@U_Iterator_base12@2@@std@@QAEAAV01@XZ 00421a20 f i libohNetCore:NetworkAdapterList.obj
 0001:00020b10       ??$forward@AAI@std@@YGAAIAAI@Z 00421b10 f i libohNetCore:NetworkAdapterList.obj
 0001:00020b20       ??$forward@AAVFunctor@OpenHome@@@std@@YGAAVFunctor@OpenHome@@AAV12@@Z 00421b20 f i libohNetCore:NetworkAdapterList.obj
 0001:00020b30       ??$?0AAIAAVFunctor@OpenHome@@@?$_Pair_base@IVFunctor@OpenHome@@@std@@QAE@AAIAAVFunctor@OpenHome@@@Z 00421b30 f i libohNetCore:NetworkAdapterList.obj
 0001:00020b90       ??$forward@U?$pair@IVFunctor@OpenHome@@@std@@@std@@YG$$QAU?$pair@IVFunctor@OpenHome@@@0@AAU10@@Z 00421b90 f i libohNetCore:NetworkAdapterList.obj
 0001:00020ba0       ??$_Buynode@U?$pair@IVFunctor@OpenHome@@@std@@@?$_Tree_val@V?$_Tmap_traits@IVFunctor@OpenHome@@U?$less@I@std@@V?$allocator@U?$pair@$$CBIVFunctor@OpenHome@@@std@@@4@$0A@@std@@@std@@QAEPAU_Node@?$_Tree_nod@V?$_Tmap_traits@IVFunctor@OpenHome@@U?$less@I@std@@V?$allocator@U?$pair@$$CBIVFunctor@OpenHome@@@std@@@4@$0A@@std@@@1@$$QAU?$pair@IVFunctor@OpenHome@@@1@@Z 00421ba0 f i libohNetCore:NetworkAdapterList.obj
 0001:00020c80       ??$_Move@AAD@std@@YG$$QADAAD@Z 00421c80 f i libohNetCore:NetworkAdapterList.obj
 0001:00020c90       ??$forward@AAPAVNetworkAdapter@OpenHome@@@std@@YGAAPAVNetworkAdapter@OpenHome@@AAPAV12@@Z 00421c90 f i libohNetCore:NetworkAdapterList.obj
 0001:00020ca0       ??$construct@AAPAVNetworkAdapter@OpenHome@@@?$allocator@PAVNetworkAdapter@OpenHome@@@std@@QAEXPAPAVNetworkAdapter@OpenHome@@AAPAV23@@Z 00421ca0 f i libohNetCore:NetworkAdapterList.obj
 0001:00020d40       ??$forward@ABQAVNetworkAdapter@OpenHome@@@std@@YGABQAVNetworkAdapter@OpenHome@@ABQAV12@@Z 00421d40 f i libohNetCore:NetworkAdapterList.obj
 0001:00020d50       ??$_Uninitialized_move@PAPAVNetworkAdapter@OpenHome@@PAPAV12@V?$allocator@PAVNetworkAdapter@OpenHome@@@std@@@std@@YGPAPAVNetworkAdapter@OpenHome@@PAPAV12@00AAV?$allocator@PAVNetworkAdapter@OpenHome@@@0@@Z 00421d50 f i libohNetCore:NetworkAdapterList.obj
 0001:00020da0       ??$?0AAV?$_Tree_iterator@V?$_Tree_val@V?$_Tmap_traits@IVFunctor@OpenHome@@U?$less@I@std@@V?$allocator@U?$pair@$$CBIVFunctor@OpenHome@@@std@@@4@$0A@@std@@@std@@@std@@_N@?$pair@V?$_Tree_iterator@V?$_Tree_val@V?$_Tmap_traits@IVFunctor@OpenHome@@U?$less@I@std@@V?$allocator@U?$pair@$$CBIVFunctor@OpenHome@@@std@@@4@$0A@@std@@@std@@@std@@_N@std@@QAE@AAV?$_Tree_iterator@V?$_Tree_val@V?$_Tmap_traits@IVFunctor@OpenHome@@U?$less@I@std@@V?$allocator@U?$pair@$$CBIVFunctor@OpenHome@@@std@@@4@$0A@@std@@@std@@@1@$$QA_N@Z 00421da0 f i libohNetCore:NetworkAdapterList.obj
 0001:00020de0       ??$_Destroy@U?$pair@$$CBIVFunctor@OpenHome@@@std@@@std@@YGXPAU?$pair@$$CBIVFunctor@OpenHome@@@0@@Z 00421de0 f i libohNetCore:NetworkAdapterList.obj
 0001:00020df0       ??$_Construct@PAVNetworkAdapter@OpenHome@@ABQAV12@@std@@YGXPAPAVNetworkAdapter@OpenHome@@ABQAV12@@Z 00421df0 f i libohNetCore:NetworkAdapterList.obj
 0001:00020ea0       ??$move@AAV?$_Tree_iterator@V?$_Tree_val@V?$_Tmap_traits@IVFunctor@OpenHome@@U?$less@I@std@@V?$allocator@U?$pair@$$CBIVFunctor@OpenHome@@@std@@@4@$0A@@std@@@std@@@std@@@std@@YG$$QAV?$_Tree_iterator@V?$_Tree_val@V?$_Tmap_traits@IVFunctor@OpenHome@@U?$less@I@std@@V?$allocator@U?$pair@$$CBIVFunctor@OpenHome@@@std@@@4@$0A@@std@@@std@@@0@AAV10@@Z 00421ea0 f i libohNetCore:NetworkAdapterList.obj
 0001:00020eb0       ??$move@AA_N@std@@YG$$QA_NAA_N@Z 00421eb0 f i libohNetCore:NetworkAdapterList.obj
 0001:00020ec0       ?_Buynode@?$_Tree_val@V?$_Tmap_traits@IVFunctor@OpenHome@@U?$less@I@std@@V?$allocator@U?$pair@$$CBIVFunctor@OpenHome@@@std@@@4@$0A@@std@@@std@@QAEPAU_Node@?$_Tree_nod@V?$_Tmap_traits@IVFunctor@OpenHome@@U?$less@I@std@@V?$allocator@U?$pair@$$CBIVFunctor@OpenHome@@@std@@@4@$0A@@std@@@2@XZ 00421ec0 f i libohNetCore:NetworkAdapterList.obj
 0001:00020f50       ??$_Cons_val@V?$allocator@U?$pair@$$CBIVFunctor@OpenHome@@@std@@@std@@U?$pair@$$CBIVFunctor@OpenHome@@@2@U?$pair@IVFunctor@OpenHome@@@2@@std@@YGXAAV?$allocator@U?$pair@$$CBIVFunctor@OpenHome@@@std@@@0@PAU?$pair@$$CBIVFunctor@OpenHome@@@0@$$QAU?$pair@IVFunctor@OpenHome@@@0@@Z 00421f50 f i libohNetCore:NetworkAdapterList.obj
 0001:00020f80       ??$_Val_type@PAPAVNetworkAdapter@OpenHome@@@std@@YGPAPAVNetworkAdapter@OpenHome@@PAPAV12@@Z 00421f80 f i libohNetCore:NetworkAdapterList.obj
 0001:00020f90       ??$_Uninit_move@PAVNetworkAdapter@OpenHome@@PAV12@PAV12@@std@@YGPAPAVNetworkAdapter@OpenHome@@PAPAV12@00AAV?$allocator@PAVNetworkAdapter@OpenHome@@@0@0U_Scalar_ptr_iterator_tag@0@@Z 00421f90 f i libohNetCore:NetworkAdapterList.obj
 0001:00021000       ??$forward@AAV?$_Tree_iterator@V?$_Tree_val@V?$_Tmap_traits@IVFunctor@OpenHome@@U?$less@I@std@@V?$allocator@U?$pair@$$CBIVFunctor@OpenHome@@@std@@@4@$0A@@std@@@std@@@std@@@std@@YGAAV?$_Tree_iterator@V?$_Tree_val@V?$_Tmap_traits@IVFunctor@OpenHome@@U?$less@I@std@@V?$allocator@U?$pair@$$CBIVFunctor@OpenHome@@@std@@@4@$0A@@std@@@std@@@0@AAV10@@Z 00422000 f i libohNetCore:NetworkAdapterList.obj
 0001:00021010       ??$forward@_N@std@@YG$$QA_NAA_N@Z 00422010 f i libohNetCore:NetworkAdapterList.obj
 0001:00021020       ??$?0AAV?$_Tree_iterator@V?$_Tree_val@V?$_Tmap_traits@IVFunctor@OpenHome@@U?$less@I@std@@V?$allocator@U?$pair@$$CBIVFunctor@OpenHome@@@std@@@4@$0A@@std@@@std@@@std@@_N@?$_Pair_base@V?$_Tree_iterator@V?$_Tree_val@V?$_Tmap_traits@IVFunctor@OpenHome@@U?$less@I@std@@V?$allocator@U?$pair@$$CBIVFunctor@OpenHome@@@std@@@4@$0A@@std@@@std@@@std@@_N@std@@QAE@AAV?$_Tree_iterator@V?$_Tree_val@V?$_Tmap_traits@IVFunctor@OpenHome@@U?$less@I@std@@V?$allocator@U?$pair@$$CBIVFunctor@OpenHome@@@std@@@4@$0A@@std@@@std@@@1@$$QA_N@Z 00422020 f i libohNetCore:NetworkAdapterList.obj
 0001:000210a0       ??$construct@U?$pair@IVFunctor@OpenHome@@@std@@@?$allocator@U?$pair@$$CBIVFunctor@OpenHome@@@std@@@std@@QAEXPAU?$pair@$$CBIVFunctor@OpenHome@@@1@$$QAU?$pair@IVFunctor@OpenHome@@@1@@Z 004220a0 f i libohNetCore:NetworkAdapterList.obj
 0001:00021140       ??$_Debug_range@PAPAVNetworkAdapter@OpenHome@@@std@@YGXPAPAVNetworkAdapter@OpenHome@@0PB_WI@Z 00422140 f i libohNetCore:NetworkAdapterList.obj
 0001:00021190       ??$_Debug_pointer@PAVNetworkAdapter@OpenHome@@@std@@YGXPAPAVNetworkAdapter@OpenHome@@PB_WI@Z 00422190 f i libohNetCore:NetworkAdapterList.obj
 0001:000211c0       ??$?0IVFunctor@OpenHome@@@?$pair@$$CBIVFunctor@OpenHome@@@std@@QAE@$$QAU?$pair@IVFunctor@OpenHome@@@1@@Z 004221c0 f i libohNetCore:NetworkAdapterList.obj
 0001:00021200       ??$_Iter_cat@PAPAVNetworkAdapter@OpenHome@@@std@@YG?AUrandom_access_iterator_tag@0@ABQAPAVNetworkAdapter@OpenHome@@@Z 00422200 f i libohNetCore:NetworkAdapterList.obj
 0001:00021260       ??$_Debug_range2@PAPAVNetworkAdapter@OpenHome@@@std@@YGXPAPAVNetworkAdapter@OpenHome@@0PB_WIUrandom_access_iterator_tag@0@@Z 00422260 f i libohNetCore:NetworkAdapterList.obj
 0001:000212c0       ??$forward@I@std@@YG$$QAIAAI@Z 004222c0 f i libohNetCore:NetworkAdapterList.obj
 0001:000212d0       ??$forward@VFunctor@OpenHome@@@std@@YG$$QAVFunctor@OpenHome@@AAV12@@Z 004222d0 f i libohNetCore:NetworkAdapterList.obj
 0001:000212e0       ??$?0IVFunctor@OpenHome@@@?$_Pair_base@$$CBIVFunctor@OpenHome@@@std@@QAE@$$QAI$$QAVFunctor@OpenHome@@@Z 004222e0 f i libohNetCore:NetworkAdapterList.obj
 0001:00021340       ??0Stack@Net@OpenHome@@QAE@XZ 00422340 f   libohNetCore:Stack.obj
 0001:00021440       ??0Stack@Net@OpenHome@@QAE@PAVInitialisationParams@12@@Z 00422440 f   libohNetCore:Stack.obj
 0001:00021660       ?Destroy@Stack@Net@OpenHome@@SGXXZ 00422660 f   libohNetCore:Stack.obj
 0001:000216c0       ??1Stack@Net@OpenHome@@AAE@XZ 004226c0 f   libohNetCore:Stack.obj
 0001:000218d0       ?IsInitialised@Stack@Net@OpenHome@@SG_NXZ 004228d0 f   libohNetCore:Stack.obj
 0001:000218f0       ?GetVersion@Stack@Net@OpenHome@@SGXAAI0@Z 004228f0 f   libohNetCore:Stack.obj
 0001:00021910       ?TimerManager@Stack@Net@OpenHome@@SGAAV03@XZ 00422910 f   libohNetCore:Stack.obj
 0001:00021920       ?Mutex@Stack@Net@OpenHome@@SGAAV03@XZ 00422920 f   libohNetCore:Stack.obj
 0001:00021930       ?NetworkAdapterList@Stack@Net@OpenHome@@SGAAV03@XZ 00422930 f   libohNetCore:Stack.obj
 0001:00021940       ?MulticastListenerClaim@Stack@Net@OpenHome@@SGAAVSsdpListenerMulticast@23@I@Z 00422940 f   libohNetCore:Stack.obj
 0001:00021af0       ?MulticastListenerRelease@Stack@Net@OpenHome@@SGXI@Z 00422af0 f   libohNetCore:Stack.obj
 0001:00021c90       ?SequenceNumber@Stack@Net@OpenHome@@SGIXZ 00422c90 f   libohNetCore:Stack.obj
 0001:00021cf0       ?InitParams@Stack@Net@OpenHome@@SGAAVInitialisationParams@23@XZ 00422cf0 f   libohNetCore:Stack.obj
 0001:00021d00       ?AddObject@Stack@Net@OpenHome@@SGXPAXPBD@Z 00422d00 f   libohNetCore:Stack.obj
 0001:00021d30       ?RemoveObject@Stack@Net@OpenHome@@SGXPAXPBD@Z 00422d30 f   libohNetCore:Stack.obj
 0001:00021d60       ?ListObjects@Stack@Net@OpenHome@@SGXXZ 00422d60 f   libohNetCore:Stack.obj
 0001:00021d80       ?DoAddObject@Stack@Net@OpenHome@@AAEXPAXPBD@Z 00422d80 f   libohNetCore:Stack.obj
 0001:00021fe0       ?DoRemoveObject@Stack@Net@OpenHome@@AAEXPAXPBD@Z 00422fe0 f   libohNetCore:Stack.obj
 0001:00022280       ?DoListObjects@Stack@Net@OpenHome@@AAEXXZ 00423280 f   libohNetCore:Stack.obj
 0001:00022490       ?SetCpiStack@Stack@Net@OpenHome@@CGXPAVIStack@23@@Z 00423490 f   libohNetCore:Stack.obj
 0001:000224b0       ?SetDviStack@Stack@Net@OpenHome@@CGXPAVIStack@23@@Z 004234b0 f   libohNetCore:Stack.obj
 0001:000224d0       ?CpiStack@Stack@Net@OpenHome@@CGPAVIStack@23@XZ 004234d0 f   libohNetCore:Stack.obj
 0001:000224e0       ?DviStack@Stack@Net@OpenHome@@CGPAVIStack@23@XZ 004234e0 f   libohNetCore:Stack.obj
 0001:000224f0       ??0MListener@Stack@Net@OpenHome@@QAE@I@Z 004234f0 f   libohNetCore:Stack.obj
 0001:00022530       ?Listener@MListener@Stack@Net@OpenHome@@QAEAAVSsdpListenerMulticast@34@XZ 00423530 f   libohNetCore:Stack.obj
 0001:00022550       ?Interface@MListener@Stack@Net@OpenHome@@QBEIXZ 00423550 f   libohNetCore:Stack.obj
 0001:00022580       ?AddRef@MListener@Stack@Net@OpenHome@@QAEXXZ 00423580 f   libohNetCore:Stack.obj
 0001:000225b0       ?RemoveRef@MListener@Stack@Net@OpenHome@@QAE_NXZ 004235b0 f   libohNetCore:Stack.obj
 0001:000225f0       ??0ObjectType@Stack@Net@OpenHome@@QAE@PBD@Z 004235f0 f   libohNetCore:Stack.obj
 0001:00022660       ??1ObjectType@Stack@Net@OpenHome@@QAE@XZ 00423660 f   libohNetCore:Stack.obj
 0001:000226f0       ??1?$map@VBrn@OpenHome@@PAVObjectType@Stack@Net@2@VBufferCmp@2@V?$allocator@U?$pair@$$CBVBrn@OpenHome@@PAVObjectType@Stack@Net@2@@std@@@std@@@std@@QAE@XZ 004236f0 f i libohNetCore:Stack.obj
 0001:00022720       ??BFunctor@OpenHome@@QBE_NXZ 00423720 f i libohNetCore:Stack.obj
 0001:00022760       ??_GStack@Net@OpenHome@@AAEPAXI@Z 00423760 f i libohNetCore:Stack.obj
 0001:000227a0       ??_GNetworkAdapterList@OpenHome@@QAEPAXI@Z 004237a0 f i libohNetCore:Stack.obj
 0001:000227e0       ??_GInitialisationParams@Net@OpenHome@@QAEPAXI@Z 004237e0 f i libohNetCore:Stack.obj
 0001:00022820       ??_GMListener@Stack@Net@OpenHome@@QAEPAXI@Z 00423820 f i libohNetCore:Stack.obj
 0001:00022860       ??1?$_Vector_iterator@V?$_Vector_val@PAVMListener@Stack@Net@OpenHome@@V?$allocator@PAVMListener@Stack@Net@OpenHome@@@std@@@std@@@std@@QAE@XZ 00423860 f i libohNetCore:Stack.obj
 0001:00022890       ??0?$_Vector_const_iterator@V?$_Vector_val@PAVMListener@Stack@Net@OpenHome@@V?$allocator@PAVMListener@Stack@Net@OpenHome@@@std@@@std@@@std@@QAE@ABV01@@Z 00423890 f i libohNetCore:Stack.obj
 0001:000228d0       ??1?$_Vector_const_iterator@V?$_Vector_val@PAVMListener@Stack@Net@OpenHome@@V?$allocator@PAVMListener@Stack@Net@OpenHome@@@std@@@std@@@std@@QAE@XZ 004238d0 f i libohNetCore:Stack.obj
 0001:00022900       ??1MListener@Stack@Net@OpenHome@@QAE@XZ 00423900 f i libohNetCore:Stack.obj
 0001:00022930       ??0?$_Iterator012@Urandom_access_iterator_tag@std@@PAVMListener@Stack@Net@OpenHome@@HPBQAV3456@ABQAV3456@U_Iterator_base12@2@@std@@QAE@ABU01@@Z 00423930 f i libohNetCore:Stack.obj
 0001:00022960       ??1?$_Iterator012@Urandom_access_iterator_tag@std@@PAVMListener@Stack@Net@OpenHome@@HPBQAV3456@ABQAV3456@U_Iterator_base12@2@@std@@QAE@XZ 00423960 f i libohNetCore:Stack.obj
 0001:00022990       ?Name@ObjectType@Stack@Net@OpenHome@@QAEABVBrx@4@XZ 00423990 f i libohNetCore:Stack.obj
 0001:000229b0       ?Map@ObjectType@Stack@Net@OpenHome@@QAEAAV?$map@PAXPAXU?$less@PAX@std@@V?$allocator@U?$pair@QAXPAX@std@@@2@@std@@XZ 004239b0 f i libohNetCore:Stack.obj
 0001:000229d0       ??1?$_Tree_iterator@V?$_Tree_val@V?$_Tmap_traits@VBrn@OpenHome@@PAVObjectType@Stack@Net@2@VBufferCmp@2@V?$allocator@U?$pair@$$CBVBrn@OpenHome@@PAVObjectType@Stack@Net@2@@std@@@std@@$0A@@std@@@std@@@std@@QAE@XZ 004239d0 f i libohNetCore:Stack.obj
 0001:00022a00       ??1?$pair@VBrn@OpenHome@@PAVObjectType@Stack@Net@2@@std@@QAE@XZ 00423a00 f i libohNetCore:Stack.obj
 0001:00022a30       ??1?$pair@V?$_Tree_iterator@V?$_Tree_val@V?$_Tmap_traits@VBrn@OpenHome@@PAVObjectType@Stack@Net@2@VBufferCmp@2@V?$allocator@U?$pair@$$CBVBrn@OpenHome@@PAVObjectType@Stack@Net@2@@std@@@std@@$0A@@std@@@std@@@std@@_N@std@@QAE@XZ 00423a30 f i libohNetCore:Stack.obj
 0001:00022a60       ??1?$pair@V?$_Tree_iterator@V?$_Tree_val@V?$_Tmap_traits@PAXPAXU?$less@PAX@std@@V?$allocator@U?$pair@QAXPAX@std@@@2@$0A@@std@@@std@@@std@@_N@std@@QAE@XZ 00423a60 f i libohNetCore:Stack.obj
 0001:00022a90       ??1?$_Tree_const_iterator@V?$_Tree_val@V?$_Tmap_traits@VBrn@OpenHome@@PAVObjectType@Stack@Net@2@VBufferCmp@2@V?$allocator@U?$pair@$$CBVBrn@OpenHome@@PAVObjectType@Stack@Net@2@@std@@@std@@$0A@@std@@@std@@@std@@QAE@XZ 00423a90 f i libohNetCore:Stack.obj
 0001:00022ac0       ??1?$_Pair_base@VBrn@OpenHome@@PAVObjectType@Stack@Net@2@@std@@QAE@XZ 00423ac0 f i libohNetCore:Stack.obj
 0001:00022af0       ??1?$_Pair_base@V?$_Tree_iterator@V?$_Tree_val@V?$_Tmap_traits@VBrn@OpenHome@@PAVObjectType@Stack@Net@2@VBufferCmp@2@V?$allocator@U?$pair@$$CBVBrn@OpenHome@@PAVObjectType@Stack@Net@2@@std@@@std@@$0A@@std@@@std@@@std@@_N@std@@QAE@XZ 00423af0 f i libohNetCore:Stack.obj
 0001:00022b20       ??1?$_Pair_base@V?$_Tree_iterator@V?$_Tree_val@V?$_Tmap_traits@PAXPAXU?$less@PAX@std@@V?$allocator@U?$pair@QAXPAX@std@@@2@$0A@@std@@@std@@@std@@_N@std@@QAE@XZ 00423b20 f i libohNetCore:Stack.obj
 0001:00022b50       ??1?$_Tree_unchecked_const_iterator@V?$_Tree_val@V?$_Tmap_traits@VBrn@OpenHome@@PAVObjectType@Stack@Net@2@VBufferCmp@2@V?$allocator@U?$pair@$$CBVBrn@OpenHome@@PAVObjectType@Stack@Net@2@@std@@@std@@$0A@@std@@@std@@U_Iterator_base12@2@@std@@QAE@XZ 00423b50 f i libohNetCore:Stack.obj
 0001:00022b80       ??1?$_Tree_iterator@V?$_Tree_val@V?$_Tmap_traits@PAXPAXU?$less@PAX@std@@V?$allocator@U?$pair@QAXPAX@std@@@2@$0A@@std@@@std@@@std@@QAE@XZ 00423b80 f i libohNetCore:Stack.obj
 0001:00022bb0       ??1?$_Iterator012@Ubidirectional_iterator_tag@std@@U?$pair@$$CBVBrn@OpenHome@@PAVObjectType@Stack@Net@2@@2@HPBU32@ABU32@U_Iterator_base12@2@@std@@QAE@XZ 00423bb0 f i libohNetCore:Stack.obj
 0001:00022be0       ??1?$_Tree_const_iterator@V?$_Tree_val@V?$_Tmap_traits@PAXPAXU?$less@PAX@std@@V?$allocator@U?$pair@QAXPAX@std@@@2@$0A@@std@@@std@@@std@@QAE@XZ 00423be0 f i libohNetCore:Stack.obj
 0001:00022c10       ??1?$_Tree_unchecked_const_iterator@V?$_Tree_val@V?$_Tmap_traits@PAXPAXU?$less@PAX@std@@V?$allocator@U?$pair@QAXPAX@std@@@2@$0A@@std@@@std@@U_Iterator_base12@2@@std@@QAE@XZ 00423c10 f i libohNetCore:Stack.obj
 0001:00022c40       ??1?$_Iterator012@Ubidirectional_iterator_tag@std@@U?$pair@QAXPAX@2@HPBU32@ABU32@U_Iterator_base12@2@@std@@QAE@XZ 00423c40 f i libohNetCore:Stack.obj
 0001:00022c70       ??0?$_Tree_const_iterator@V?$_Tree_val@V?$_Tmap_traits@PAXPAXU?$less@PAX@std@@V?$allocator@U?$pair@QAXPAX@std@@@2@$0A@@std@@@std@@@std@@QAE@ABV01@@Z 00423c70 f i libohNetCore:Stack.obj
 0001:00022ca0       ??_GObjectType@Stack@Net@OpenHome@@QAEPAXI@Z 00423ca0 f i libohNetCore:Stack.obj
 0001:00022ce0       ??0?$_Tree_const_iterator@V?$_Tree_val@V?$_Tmap_traits@VBrn@OpenHome@@PAVObjectType@Stack@Net@2@VBufferCmp@2@V?$allocator@U?$pair@$$CBVBrn@OpenHome@@PAVObjectType@Stack@Net@2@@std@@@std@@$0A@@std@@@std@@@std@@QAE@ABV01@@Z 00423ce0 f i libohNetCore:Stack.obj
 0001:00022d10       ??0?$_Tree_unchecked_const_iterator@V?$_Tree_val@V?$_Tmap_traits@PAXPAXU?$less@PAX@std@@V?$allocator@U?$pair@QAXPAX@std@@@2@$0A@@std@@@std@@U_Iterator_base12@2@@std@@QAE@ABV01@@Z 00423d10 f i libohNetCore:Stack.obj
 0001:00022d50       ??0?$_Tree_unchecked_const_iterator@V?$_Tree_val@V?$_Tmap_traits@VBrn@OpenHome@@PAVObjectType@Stack@Net@2@VBufferCmp@2@V?$allocator@U?$pair@$$CBVBrn@OpenHome@@PAVObjectType@Stack@Net@2@@std@@@std@@$0A@@std@@@std@@U_Iterator_base12@2@@std@@QAE@ABV01@@Z 00423d50 f i libohNetCore:Stack.obj
 0001:00022d90       ??0?$_Iterator012@Ubidirectional_iterator_tag@std@@U?$pair@QAXPAX@2@HPBU32@ABU32@U_Iterator_base12@2@@std@@QAE@ABU01@@Z 00423d90 f i libohNetCore:Stack.obj
 0001:00022dc0       ??0?$_Iterator012@Ubidirectional_iterator_tag@std@@U?$pair@$$CBVBrn@OpenHome@@PAVObjectType@Stack@Net@2@@2@HPBU32@ABU32@U_Iterator_base12@2@@std@@QAE@ABU01@@Z 00423dc0 f i libohNetCore:Stack.obj
 0001:00022df0       ??1?$map@PAXPAXU?$less@PAX@std@@V?$allocator@U?$pair@QAXPAX@std@@@2@@std@@QAE@XZ 00423df0 f i libohNetCore:Stack.obj
 0001:00022e20       ??0?$map@PAXPAXU?$less@PAX@std@@V?$allocator@U?$pair@QAXPAX@std@@@2@@std@@QAE@XZ 00423e20 f i libohNetCore:Stack.obj
 0001:00022e60       ??1?$_Tree@V?$_Tmap_traits@PAXPAXU?$less@PAX@std@@V?$allocator@U?$pair@QAXPAX@std@@@2@$0A@@std@@@std@@QAE@XZ 00423e60 f i libohNetCore:Stack.obj
 0001:00022ed0       ?begin@?$_Tree@V?$_Tmap_traits@PAXPAXU?$less@PAX@std@@V?$allocator@U?$pair@QAXPAX@std@@@2@$0A@@std@@@std@@QAE?AV?$_Tree_iterator@V?$_Tree_val@V?$_Tmap_traits@PAXPAXU?$less@PAX@std@@V?$allocator@U?$pair@QAXPAX@std@@@2@$0A@@std@@@std@@@2@XZ 00423ed0 f i libohNetCore:Stack.obj
 0001:00022f30       ?end@?$_Tree@V?$_Tmap_traits@PAXPAXU?$less@PAX@std@@V?$allocator@U?$pair@QAXPAX@std@@@2@$0A@@std@@@std@@QAE?AV?$_Tree_iterator@V?$_Tree_val@V?$_Tmap_traits@PAXPAXU?$less@PAX@std@@V?$allocator@U?$pair@QAXPAX@std@@@2@$0A@@std@@@std@@@2@XZ 00423f30 f i libohNetCore:Stack.obj
 0001:00022f80       ?size@?$_Tree@V?$_Tmap_traits@PAXPAXU?$less@PAX@std@@V?$allocator@U?$pair@QAXPAX@std@@@2@$0A@@std@@@std@@QBEIXZ 00423f80 f i libohNetCore:Stack.obj
 0001:00022fa0       ?erase@?$_Tree@V?$_Tmap_traits@PAXPAXU?$less@PAX@std@@V?$allocator@U?$pair@QAXPAX@std@@@2@$0A@@std@@@std@@QAE?AV?$_Tree_iterator@V?$_Tree_val@V?$_Tmap_traits@PAXPAXU?$less@PAX@std@@V?$allocator@U?$pair@QAXPAX@std@@@2@$0A@@std@@@std@@@2@V?$_Tree_const_iterator@V?$_Tree_val@V?$_Tmap_traits@PAXPAXU?$less@PAX@std@@V?$allocator@U?$pair@QAXPAX@std@@@2@$0A@@std@@@std@@@2@@Z 00423fa0 f i libohNetCore:Stack.obj
 0001:000236b0       ?find@?$_Tree@V?$_Tmap_traits@PAXPAXU?$less@PAX@std@@V?$allocator@U?$pair@QAXPAX@std@@@2@$0A@@std@@@std@@QAE?AV?$_Tree_iterator@V?$_Tree_val@V?$_Tmap_traits@PAXPAXU?$less@PAX@std@@V?$allocator@U?$pair@QAXPAX@std@@@2@$0A@@std@@@std@@@2@ABQAX@Z 004246b0 f i libohNetCore:Stack.obj
 0001:00023890       ??0?$vector@PAVMListener@Stack@Net@OpenHome@@V?$allocator@PAVMListener@Stack@Net@OpenHome@@@std@@@std@@QAE@XZ 00424890 f i libohNetCore:Stack.obj
 0001:000238d0       ??1?$vector@PAVMListener@Stack@Net@OpenHome@@V?$allocator@PAVMListener@Stack@Net@OpenHome@@@std@@@std@@QAE@XZ 004248d0 f i libohNetCore:Stack.obj
 0001:00023940       ?begin@?$vector@PAVMListener@Stack@Net@OpenHome@@V?$allocator@PAVMListener@Stack@Net@OpenHome@@@std@@@std@@QAE?AV?$_Vector_iterator@V?$_Vector_val@PAVMListener@Stack@Net@OpenHome@@V?$allocator@PAVMListener@Stack@Net@OpenHome@@@std@@@std@@@2@XZ 00424940 f i libohNetCore:Stack.obj
 0001:00023990       ?size@?$vector@PAVMListener@Stack@Net@OpenHome@@V?$allocator@PAVMListener@Stack@Net@OpenHome@@@std@@@std@@QBEIXZ 00424990 f i libohNetCore:Stack.obj
 0001:000239c0       ??A?$vector@PAVMListener@Stack@Net@OpenHome@@V?$allocator@PAVMListener@Stack@Net@OpenHome@@@std@@@std@@QAEAAPAVMListener@Stack@Net@OpenHome@@I@Z 004249c0 f i libohNetCore:Stack.obj
 0001:00023a60       ?push_back@?$vector@PAVMListener@Stack@Net@OpenHome@@V?$allocator@PAVMListener@Stack@Net@OpenHome@@@std@@@std@@QAEXABQAVMListener@Stack@Net@OpenHome@@@Z 00424a60 f i libohNetCore:Stack.obj
 0001:00023b70       ?erase@?$vector@PAVMListener@Stack@Net@OpenHome@@V?$allocator@PAVMListener@Stack@Net@OpenHome@@@std@@@std@@QAE?AV?$_Vector_iterator@V?$_Vector_val@PAVMListener@Stack@Net@OpenHome@@V?$allocator@PAVMListener@Stack@Net@OpenHome@@@std@@@std@@@2@V?$_Vector_const_iterator@V?$_Vector_val@PAVMListener@Stack@Net@OpenHome@@V?$allocator@PAVMListener@Stack@Net@OpenHome@@@std@@@std@@@2@@Z 00424b70 f i libohNetCore:Stack.obj
 0001:00023ca0       ??0?$map@VBrn@OpenHome@@PAVObjectType@Stack@Net@2@VBufferCmp@2@V?$allocator@U?$pair@$$CBVBrn@OpenHome@@PAVObjectType@Stack@Net@2@@std@@@std@@@std@@QAE@XZ 00424ca0 f i libohNetCore:Stack.obj
 0001:00023cf0       ??1?$_Tree@V?$_Tmap_traits@VBrn@OpenHome@@PAVObjectType@Stack@Net@2@VBufferCmp@2@V?$allocator@U?$pair@$$CBVBrn@OpenHome@@PAVObjectType@Stack@Net@2@@std@@@std@@$0A@@std@@@std@@QAE@XZ 00424cf0 f i libohNetCore:Stack.obj
 0001:00023d60       ?begin@?$_Tree@V?$_Tmap_traits@VBrn@OpenHome@@PAVObjectType@Stack@Net@2@VBufferCmp@2@V?$allocator@U?$pair@$$CBVBrn@OpenHome@@PAVObjectType@Stack@Net@2@@std@@@std@@$0A@@std@@@std@@QAE?AV?$_Tree_iterator@V?$_Tree_val@V?$_Tmap_traits@VBrn@OpenHome@@PAVObjectType@Stack@Net@2@VBufferCmp@2@V?$allocator@U?$pair@$$CBVBrn@OpenHome@@PAVObjectType@Stack@Net@2@@std@@@std@@$0A@@std@@@std@@@2@XZ 00424d60 f i libohNetCore:Stack.obj
 0001:00023dc0       ?end@?$_Tree@V?$_Tmap_traits@VBrn@OpenHome@@PAVObjectType@Stack@Net@2@VBufferCmp@2@V?$allocator@U?$pair@$$CBVBrn@OpenHome@@PAVObjectType@Stack@Net@2@@std@@@std@@$0A@@std@@@std@@QAE?AV?$_Tree_iterator@V?$_Tree_val@V?$_Tmap_traits@VBrn@OpenHome@@PAVObjectType@Stack@Net@2@VBufferCmp@2@V?$allocator@U?$pair@$$CBVBrn@OpenHome@@PAVObjectType@Stack@Net@2@@std@@@std@@$0A@@std@@@std@@@2@XZ 00424dc0 f i libohNetCore:Stack.obj
 0001:00023e10       ?size@?$_Tree@V?$_Tmap_traits@VBrn@OpenHome@@PAVObjectType@Stack@Net@2@VBufferCmp@2@V?$allocator@U?$pair@$$CBVBrn@OpenHome@@PAVObjectType@Stack@Net@2@@std@@@std@@$0A@@std@@@std@@QBEIXZ 00424e10 f i libohNetCore:Stack.obj
 0001:00023e30       ?erase@?$_Tree@V?$_Tmap_traits@VBrn@OpenHome@@PAVObjectType@Stack@Net@2@VBufferCmp@2@V?$allocator@U?$pair@$$CBVBrn@OpenHome@@PAVObjectType@Stack@Net@2@@std@@@std@@$0A@@std@@@std@@QAE?AV?$_Tree_iterator@V?$_Tree_val@V?$_Tmap_traits@VBrn@OpenHome@@PAVObjectType@Stack@Net@2@VBufferCmp@2@V?$allocator@U?$pair@$$CBVBrn@OpenHome@@PAVObjectType@Stack@Net@2@@std@@@std@@$0A@@std@@@std@@@2@V?$_Tree_const_iterator@V?$_Tree_val@V?$_Tmap_traits@VBrn@OpenHome@@PAVObjectType@Stack@Net@2@VBufferCmp@2@V?$allocator@U?$pair@$$CBVBrn@OpenHome@@PAVObjectType@Stack@Net@2@@std@@@std@@$0A@@std@@@std@@@2@@Z 00424e30 f i libohNetCore:Stack.obj
 0001:00024540       ?find@?$_Tree@V?$_Tmap_traits@VBrn@OpenHome@@PAVObjectType@Stack@Net@2@VBufferCmp@2@V?$allocator@U?$pair@$$CBVBrn@OpenHome@@PAVObjectType@Stack@Net@2@@std@@@std@@$0A@@std@@@std@@QAE?AV?$_Tree_iterator@V?$_Tree_val@V?$_Tmap_traits@VBrn@OpenHome@@PAVObjectType@Stack@Net@2@VBufferCmp@2@V?$allocator@U?$pair@$$CBVBrn@OpenHome@@PAVObjectType@Stack@Net@2@@std@@@std@@$0A@@std@@@std@@@2@ABVBrn@OpenHome@@@Z 00425540 f i libohNetCore:Stack.obj
 0001:00024720       ??H?$_Vector_iterator@V?$_Vector_val@PAVMListener@Stack@Net@OpenHome@@V?$allocator@PAVMListener@Stack@Net@OpenHome@@@std@@@std@@@std@@QBE?AV01@H@Z 00425720 f i libohNetCore:Stack.obj
 0001:00024800       ??C?$_Tree_iterator@V?$_Tree_val@V?$_Tmap_traits@VBrn@OpenHome@@PAVObjectType@Stack@Net@2@VBufferCmp@2@V?$allocator@U?$pair@$$CBVBrn@OpenHome@@PAVObjectType@Stack@Net@2@@std@@@std@@$0A@@std@@@std@@@std@@QBEPAU?$pair@$$CBVBrn@OpenHome@@PAVObjectType@Stack@Net@2@@1@XZ 00425800 f i libohNetCore:Stack.obj
 0001:00024830       ??E?$_Tree_iterator@V?$_Tree_val@V?$_Tmap_traits@VBrn@OpenHome@@PAVObjectType@Stack@Net@2@VBufferCmp@2@V?$allocator@U?$pair@$$CBVBrn@OpenHome@@PAVObjectType@Stack@Net@2@@std@@@std@@$0A@@std@@@std@@@std@@QAE?AV01@H@Z 00425830 f i libohNetCore:Stack.obj
 0001:00024900       ??9?$_Tree_const_iterator@V?$_Tree_val@V?$_Tmap_traits@VBrn@OpenHome@@PAVObjectType@Stack@Net@2@VBufferCmp@2@V?$allocator@U?$pair@$$CBVBrn@OpenHome@@PAVObjectType@Stack@Net@2@@std@@@std@@$0A@@std@@@std@@@std@@QBE_NABV01@@Z 00425900 f i libohNetCore:Stack.obj
 0001:00024940       ??C?$_Tree_iterator@V?$_Tree_val@V?$_Tmap_traits@PAXPAXU?$less@PAX@std@@V?$allocator@U?$pair@QAXPAX@std@@@2@$0A@@std@@@std@@@std@@QBEPAU?$pair@QAXPAX@1@XZ 00425940 f i libohNetCore:Stack.obj
 0001:00024970       ??E?$_Tree_iterator@V?$_Tree_val@V?$_Tmap_traits@PAXPAXU?$less@PAX@std@@V?$allocator@U?$pair@QAXPAX@std@@@2@$0A@@std@@@std@@@std@@QAE?AV01@H@Z 00425970 f i libohNetCore:Stack.obj
 0001:00024a40       ??9?$_Tree_const_iterator@V?$_Tree_val@V?$_Tmap_traits@PAXPAXU?$less@PAX@std@@V?$allocator@U?$pair@QAXPAX@std@@@2@$0A@@std@@@std@@@std@@QBE_NABV01@@Z 00425a40 f i libohNetCore:Stack.obj
 0001:00024a80       ??0?$_Tree_iterator@V?$_Tree_val@V?$_Tmap_traits@PAXPAXU?$less@PAX@std@@V?$allocator@U?$pair@QAXPAX@std@@@2@$0A@@std@@@std@@@std@@QAE@ABV01@@Z 00425a80 f i libohNetCore:Stack.obj
 0001:00024ab0       ??0?$_Tree_iterator@V?$_Tree_val@V?$_Tmap_traits@VBrn@OpenHome@@PAVObjectType@Stack@Net@2@VBufferCmp@2@V?$allocator@U?$pair@$$CBVBrn@OpenHome@@PAVObjectType@Stack@Net@2@@std@@@std@@$0A@@std@@@std@@@std@@QAE@ABV01@@Z 00425ab0 f i libohNetCore:Stack.obj
 0001:00024ae0       ??0?$_Vector_iterator@V?$_Vector_val@PAVMListener@Stack@Net@OpenHome@@V?$allocator@PAVMListener@Stack@Net@OpenHome@@@std@@@std@@@std@@QAE@ABV01@@Z 00425ae0 f i libohNetCore:Stack.obj
 0001:00024b10       ??0?$_Tree@V?$_Tmap_traits@PAXPAXU?$less@PAX@std@@V?$allocator@U?$pair@QAXPAX@std@@@2@$0A@@std@@@std@@QAE@ABU?$less@PAX@1@ABV?$allocator@U?$pair@QAXPAX@std@@@1@@Z 00425b10 f i libohNetCore:Stack.obj
 0001:00024b60       ?lower_bound@?$_Tree@V?$_Tmap_traits@PAXPAXU?$less@PAX@std@@V?$allocator@U?$pair@QAXPAX@std@@@2@$0A@@std@@@std@@QAE?AV?$_Tree_iterator@V?$_Tree_val@V?$_Tmap_traits@PAXPAXU?$less@PAX@std@@V?$allocator@U?$pair@QAXPAX@std@@@2@$0A@@std@@@std@@@2@ABQAX@Z 00425b60 f i libohNetCore:Stack.obj
 0001:00024bc0       ?_Lmost@?$_Tree@V?$_Tmap_traits@PAXPAXU?$less@PAX@std@@V?$allocator@U?$pair@QAXPAX@std@@@2@$0A@@std@@@std@@IBEAAPAU_Node@?$_Tree_nod@V?$_Tmap_traits@PAXPAXU?$less@PAX@std@@V?$allocator@U?$pair@QAXPAX@std@@@2@$0A@@std@@@2@XZ 00425bc0 f i libohNetCore:Stack.obj
 0001:00024bf0       ?_Lrotate@?$_Tree@V?$_Tmap_traits@PAXPAXU?$less@PAX@std@@V?$allocator@U?$pair@QAXPAX@std@@@2@$0A@@std@@@std@@IAEXPAU_Node@?$_Tree_nod@V?$_Tmap_traits@PAXPAXU?$less@PAX@std@@V?$allocator@U?$pair@QAXPAX@std@@@2@$0A@@std@@@2@@Z 00425bf0 f i libohNetCore:Stack.obj
 0001:00024d10       ?_Rmost@?$_Tree@V?$_Tmap_traits@PAXPAXU?$less@PAX@std@@V?$allocator@U?$pair@QAXPAX@std@@@2@$0A@@std@@@std@@IBEAAPAU_Node@?$_Tree_nod@V?$_Tmap_traits@PAXPAXU?$less@PAX@std@@V?$allocator@U?$pair@QAXPAX@std@@@2@$0A@@std@@@2@XZ 00425d10 f i libohNetCore:Stack.obj
 0001:00024d40       ?_Root@?$_Tree@V?$_Tmap_traits@PAXPAXU?$less@PAX@std@@V?$allocator@U?$pair@QAXPAX@std@@@2@$0A@@std@@@std@@IBEAAPAU_Node@?$_Tree_nod@V?$_Tmap_traits@PAXPAXU?$less@PAX@std@@V?$allocator@U?$pair@QAXPAX@std@@@2@$0A@@std@@@2@XZ 00425d40 f i libohNetCore:Stack.obj
 0001:00024d70       ?_Rrotate@?$_Tree@V?$_Tmap_traits@PAXPAXU?$less@PAX@std@@V?$allocator@U?$pair@QAXPAX@std@@@2@$0A@@std@@@std@@IAEXPAU_Node@?$_Tree_nod@V?$_Tmap_traits@PAXPAXU?$less@PAX@std@@V?$allocator@U?$pair@QAXPAX@std@@@2@$0A@@std@@@2@@Z 00425d70 f i libohNetCore:Stack.obj
 0001:00024e90       ?_Orphan_ptr@?$_Tree@V?$_Tmap_traits@PAXPAXU?$less@PAX@std@@V?$allocator@U?$pair@QAXPAX@std@@@2@$0A@@std@@@std@@IBEXAAV12@PAU_Node@?$_Tree_nod@V?$_Tmap_traits@PAXPAXU?$less@PAX@std@@V?$allocator@U?$pair@QAXPAX@std@@@2@$0A@@std@@@2@@Z 00425e90 f i libohNetCore:Stack.obj
 0001:00024fa0       ?_Tidy@?$_Tree@V?$_Tmap_traits@PAXPAXU?$less@PAX@std@@V?$allocator@U?$pair@QAXPAX@std@@@2@$0A@@std@@@std@@IAEXXZ 00425fa0 f i libohNetCore:Stack.obj
 0001:000250a0       ??1?$_Tree_val@V?$_Tmap_traits@PAXPAXU?$less@PAX@std@@V?$allocator@U?$pair@QAXPAX@std@@@2@$0A@@std@@@std@@QAE@XZ 004260a0 f i libohNetCore:Stack.obj
 0001:00025110       ?_Color@?$_Tree_val@V?$_Tmap_traits@PAXPAXU?$less@PAX@std@@V?$allocator@U?$pair@QAXPAX@std@@@2@$0A@@std@@@std@@SGAADPAU_Node@?$_Tree_nod@V?$_Tmap_traits@PAXPAXU?$less@PAX@std@@V?$allocator@U?$pair@QAXPAX@std@@@2@$0A@@std@@@2@@Z 00426110 f i libohNetCore:Stack.obj
 0001:00025120       ?_Isnil@?$_Tree_val@V?$_Tmap_traits@PAXPAXU?$less@PAX@std@@V?$allocator@U?$pair@QAXPAX@std@@@2@$0A@@std@@@std@@SGAADPAU_Node@?$_Tree_nod@V?$_Tmap_traits@PAXPAXU?$less@PAX@std@@V?$allocator@U?$pair@QAXPAX@std@@@2@$0A@@std@@@2@@Z 00426120 f i libohNetCore:Stack.obj
 0001:00025130       ?_Key@?$_Tree_val@V?$_Tmap_traits@PAXPAXU?$less@PAX@std@@V?$allocator@U?$pair@QAXPAX@std@@@2@$0A@@std@@@std@@SGAAPAXPAU_Node@?$_Tree_nod@V?$_Tmap_traits@PAXPAXU?$less@PAX@std@@V?$allocator@U?$pair@QAXPAX@std@@@2@$0A@@std@@@2@@Z 00426130 f i libohNetCore:Stack.obj
 0001:00025150       ?_Left@?$_Tree_val@V?$_Tmap_traits@PAXPAXU?$less@PAX@std@@V?$allocator@U?$pair@QAXPAX@std@@@2@$0A@@std@@@std@@SGAAPAU_Node@?$_Tree_nod@V?$_Tmap_traits@PAXPAXU?$less@PAX@std@@V?$allocator@U?$pair@QAXPAX@std@@@2@$0A@@std@@@2@PAU342@@Z 00426150 f i libohNetCore:Stack.obj
 0001:00025160       ?_Parent@?$_Tree_val@V?$_Tmap_traits@PAXPAXU?$less@PAX@std@@V?$allocator@U?$pair@QAXPAX@std@@@2@$0A@@std@@@std@@SGAAPAU_Node@?$_Tree_nod@V?$_Tmap_traits@PAXPAXU?$less@PAX@std@@V?$allocator@U?$pair@QAXPAX@std@@@2@$0A@@std@@@2@PAU342@@Z 00426160 f i libohNetCore:Stack.obj
 0001:00025170       ?_Right@?$_Tree_val@V?$_Tmap_traits@PAXPAXU?$less@PAX@std@@V?$allocator@U?$pair@QAXPAX@std@@@2@$0A@@std@@@std@@SGAAPAU_Node@?$_Tree_nod@V?$_Tmap_traits@PAXPAXU?$less@PAX@std@@V?$allocator@U?$pair@QAXPAX@std@@@2@$0A@@std@@@2@PAU342@@Z 00426170 f i libohNetCore:Stack.obj
 0001:00025180       ?_Myval@?$_Tree_val@V?$_Tmap_traits@PAXPAXU?$less@PAX@std@@V?$allocator@U?$pair@QAXPAX@std@@@2@$0A@@std@@@std@@SGAAU?$pair@QAXPAX@2@PAU_Node@?$_Tree_nod@V?$_Tmap_traits@PAXPAXU?$less@PAX@std@@V?$allocator@U?$pair@QAXPAX@std@@@2@$0A@@std@@@2@@Z 00426180 f i libohNetCore:Stack.obj
 0001:00025190       ?_Max@?$_Tree_val@V?$_Tmap_traits@PAXPAXU?$less@PAX@std@@V?$allocator@U?$pair@QAXPAX@std@@@2@$0A@@std@@@std@@SGPAU_Node@?$_Tree_nod@V?$_Tmap_traits@PAXPAXU?$less@PAX@std@@V?$allocator@U?$pair@QAXPAX@std@@@2@$0A@@std@@@2@PAU342@@Z 00426190 f i libohNetCore:Stack.obj
 0001:000251d0       ?_Min@?$_Tree_val@V?$_Tmap_traits@PAXPAXU?$less@PAX@std@@V?$allocator@U?$pair@QAXPAX@std@@@2@$0A@@std@@@std@@SGPAU_Node@?$_Tree_nod@V?$_Tmap_traits@PAXPAXU?$less@PAX@std@@V?$allocator@U?$pair@QAXPAX@std@@@2@$0A@@std@@@2@PAU342@@Z 004261d0 f i libohNetCore:Stack.obj
 0001:00025210       ??0?$allocator@U?$pair@QAXPAX@std@@@std@@QAE@XZ 00426210 f i libohNetCore:Stack.obj
 0001:00025230       ?deallocate@?$allocator@U_Node@?$_Tree_nod@V?$_Tmap_traits@PAXPAXU?$less@PAX@std@@V?$allocator@U?$pair@QAXPAX@std@@@2@$0A@@std@@@std@@@std@@QAEXPAU_Node@?$_Tree_nod@V?$_Tmap_traits@PAXPAXU?$less@PAX@std@@V?$allocator@U?$pair@QAXPAX@std@@@2@$0A@@std@@@2@I@Z 00426230 f i libohNetCore:Stack.obj
 0001:00025260       ?_Make_iter@?$vector@PAVMListener@Stack@Net@OpenHome@@V?$allocator@PAVMListener@Stack@Net@OpenHome@@@std@@@std@@QBE?AV?$_Vector_iterator@V?$_Vector_val@PAVMListener@Stack@Net@OpenHome@@V?$allocator@PAVMListener@Stack@Net@OpenHome@@@std@@@std@@@2@V?$_Vector_const_iterator@V?$_Vector_val@PAVMListener@Stack@Net@OpenHome@@V?$allocator@PAVMListener@Stack@Net@OpenHome@@@std@@@std@@@2@@Z 00426260 f i libohNetCore:Stack.obj
 0001:000252f0       ?_Destroy@?$vector@PAVMListener@Stack@Net@OpenHome@@V?$allocator@PAVMListener@Stack@Net@OpenHome@@@std@@@std@@IAEXPAPAVMListener@Stack@Net@OpenHome@@0@Z 004262f0 f i libohNetCore:Stack.obj
 0001:00025330       ?_Inside@?$vector@PAVMListener@Stack@Net@OpenHome@@V?$allocator@PAVMListener@Stack@Net@OpenHome@@@std@@@std@@IBE_NPBQAVMListener@Stack@Net@OpenHome@@@Z 00426330 f i libohNetCore:Stack.obj
 0001:00025380       ?_Reserve@?$vector@PAVMListener@Stack@Net@OpenHome@@V?$allocator@PAVMListener@Stack@Net@OpenHome@@@std@@@std@@IAEXI@Z 00426380 f i libohNetCore:Stack.obj
 0001:00025400       ?_Tidy@?$vector@PAVMListener@Stack@Net@OpenHome@@V?$allocator@PAVMListener@Stack@Net@OpenHome@@@std@@@std@@IAEXXZ 00426400 f i libohNetCore:Stack.obj
 0001:00025490       ?_Orphan_range@?$vector@PAVMListener@Stack@Net@OpenHome@@V?$allocator@PAVMListener@Stack@Net@OpenHome@@@std@@@std@@IBEXPAPAVMListener@Stack@Net@OpenHome@@0@Z 00426490 f i libohNetCore:Stack.obj
 0001:000255a0       ??0?$_Vector_val@PAVMListener@Stack@Net@OpenHome@@V?$allocator@PAVMListener@Stack@Net@OpenHome@@@std@@@std@@QAE@V?$allocator@PAVMListener@Stack@Net@OpenHome@@@1@@Z 004265a0 f i libohNetCore:Stack.obj
 0001:000256c0       ??1?$_Vector_val@PAVMListener@Stack@Net@OpenHome@@V?$allocator@PAVMListener@Stack@Net@OpenHome@@@std@@@std@@QAE@XZ 004266c0 f i libohNetCore:Stack.obj
 0001:000257a0       ??0?$allocator@PAVMListener@Stack@Net@OpenHome@@@std@@QAE@XZ 004267a0 f i libohNetCore:Stack.obj
 0001:000257c0       ??0?$_Tree@V?$_Tmap_traits@VBrn@OpenHome@@PAVObjectType@Stack@Net@2@VBufferCmp@2@V?$allocator@U?$pair@$$CBVBrn@OpenHome@@PAVObjectType@Stack@Net@2@@std@@@std@@$0A@@std@@@std@@QAE@ABVBufferCmp@OpenHome@@ABV?$allocator@U?$pair@$$CBVBrn@OpenHome@@PAVObjectType@Stack@Net@2@@std@@@1@@Z 004267c0 f i libohNetCore:Stack.obj
 0001:00025810       ?lower_bound@?$_Tree@V?$_Tmap_traits@VBrn@OpenHome@@PAVObjectType@Stack@Net@2@VBufferCmp@2@V?$allocator@U?$pair@$$CBVBrn@OpenHome@@PAVObjectType@Stack@Net@2@@std@@@std@@$0A@@std@@@std@@QAE?AV?$_Tree_iterator@V?$_Tree_val@V?$_Tmap_traits@VBrn@OpenHome@@PAVObjectType@Stack@Net@2@VBufferCmp@2@V?$allocator@U?$pair@$$CBVBrn@OpenHome@@PAVObjectType@Stack@Net@2@@std@@@std@@$0A@@std@@@std@@@2@ABVBrn@OpenHome@@@Z 00426810 f i libohNetCore:Stack.obj
 0001:00025870       ?_Lmost@?$_Tree@V?$_Tmap_traits@VBrn@OpenHome@@PAVObjectType@Stack@Net@2@VBufferCmp@2@V?$allocator@U?$pair@$$CBVBrn@OpenHome@@PAVObjectType@Stack@Net@2@@std@@@std@@$0A@@std@@@std@@IBEAAPAU_Node@?$_Tree_nod@V?$_Tmap_traits@VBrn@OpenHome@@PAVObjectType@Stack@Net@2@VBufferCmp@2@V?$allocator@U?$pair@$$CBVBrn@OpenHome@@PAVObjectType@Stack@Net@2@@std@@@std@@$0A@@std@@@2@XZ 00426870 f i libohNetCore:Stack.obj
 0001:000258a0       ?_Lrotate@?$_Tree@V?$_Tmap_traits@VBrn@OpenHome@@PAVObjectType@Stack@Net@2@VBufferCmp@2@V?$allocator@U?$pair@$$CBVBrn@OpenHome@@PAVObjectType@Stack@Net@2@@std@@@std@@$0A@@std@@@std@@IAEXPAU_Node@?$_Tree_nod@V?$_Tmap_traits@VBrn@OpenHome@@PAVObjectType@Stack@Net@2@VBufferCmp@2@V?$allocator@U?$pair@$$CBVBrn@OpenHome@@PAVObjectType@Stack@Net@2@@std@@@std@@$0A@@std@@@2@@Z 004268a0 f i libohNetCore:Stack.obj
 0001:000259c0       ?_Rmost@?$_Tree@V?$_Tmap_traits@VBrn@OpenHome@@PAVObjectType@Stack@Net@2@VBufferCmp@2@V?$allocator@U?$pair@$$CBVBrn@OpenHome@@PAVObjectType@Stack@Net@2@@std@@@std@@$0A@@std@@@std@@IBEAAPAU_Node@?$_Tree_nod@V?$_Tmap_traits@VBrn@OpenHome@@PAVObjectType@Stack@Net@2@VBufferCmp@2@V?$allocator@U?$pair@$$CBVBrn@OpenHome@@PAVObjectType@Stack@Net@2@@std@@@std@@$0A@@std@@@2@XZ 004269c0 f i libohNetCore:Stack.obj
 0001:000259f0       ?_Root@?$_Tree@V?$_Tmap_traits@VBrn@OpenHome@@PAVObjectType@Stack@Net@2@VBufferCmp@2@V?$allocator@U?$pair@$$CBVBrn@OpenHome@@PAVObjectType@Stack@Net@2@@std@@@std@@$0A@@std@@@std@@IBEAAPAU_Node@?$_Tree_nod@V?$_Tmap_traits@VBrn@OpenHome@@PAVObjectType@Stack@Net@2@VBufferCmp@2@V?$allocator@U?$pair@$$CBVBrn@OpenHome@@PAVObjectType@Stack@Net@2@@std@@@std@@$0A@@std@@@2@XZ 004269f0 f i libohNetCore:Stack.obj
 0001:00025a20       ?_Rrotate@?$_Tree@V?$_Tmap_traits@VBrn@OpenHome@@PAVObjectType@Stack@Net@2@VBufferCmp@2@V?$allocator@U?$pair@$$CBVBrn@OpenHome@@PAVObjectType@Stack@Net@2@@std@@@std@@$0A@@std@@@std@@IAEXPAU_Node@?$_Tree_nod@V?$_Tmap_traits@VBrn@OpenHome@@PAVObjectType@Stack@Net@2@VBufferCmp@2@V?$allocator@U?$pair@$$CBVBrn@OpenHome@@PAVObjectType@Stack@Net@2@@std@@@std@@$0A@@std@@@2@@Z 00426a20 f i libohNetCore:Stack.obj
 0001:00025b40       ?_Orphan_ptr@?$_Tree@V?$_Tmap_traits@VBrn@OpenHome@@PAVObjectType@Stack@Net@2@VBufferCmp@2@V?$allocator@U?$pair@$$CBVBrn@OpenHome@@PAVObjectType@Stack@Net@2@@std@@@std@@$0A@@std@@@std@@IBEXAAV12@PAU_Node@?$_Tree_nod@V?$_Tmap_traits@VBrn@OpenHome@@PAVObjectType@Stack@Net@2@VBufferCmp@2@V?$allocator@U?$pair@$$CBVBrn@OpenHome@@PAVObjectType@Stack@Net@2@@std@@@std@@$0A@@std@@@2@@Z 00426b40 f i libohNetCore:Stack.obj
 0001:00025c50       ?_Tidy@?$_Tree@V?$_Tmap_traits@VBrn@OpenHome@@PAVObjectType@Stack@Net@2@VBufferCmp@2@V?$allocator@U?$pair@$$CBVBrn@OpenHome@@PAVObjectType@Stack@Net@2@@std@@@std@@$0A@@std@@@std@@IAEXXZ 00426c50 f i libohNetCore:Stack.obj
 0001:00025d50       ??1?$_Tree_val@V?$_Tmap_traits@VBrn@OpenHome@@PAVObjectType@Stack@Net@2@VBufferCmp@2@V?$allocator@U?$pair@$$CBVBrn@OpenHome@@PAVObjectType@Stack@Net@2@@std@@@std@@$0A@@std@@@std@@QAE@XZ 00426d50 f i libohNetCore:Stack.obj
 0001:00025dc0       ?_Color@?$_Tree_val@V?$_Tmap_traits@VBrn@OpenHome@@PAVObjectType@Stack@Net@2@VBufferCmp@2@V?$allocator@U?$pair@$$CBVBrn@OpenHome@@PAVObjectType@Stack@Net@2@@std@@@std@@$0A@@std@@@std@@SGAADPAU_Node@?$_Tree_nod@V?$_Tmap_traits@VBrn@OpenHome@@PAVObjectType@Stack@Net@2@VBufferCmp@2@V?$allocator@U?$pair@$$CBVBrn@OpenHome@@PAVObjectType@Stack@Net@2@@std@@@std@@$0A@@std@@@2@@Z 00426dc0 f i libohNetCore:Stack.obj
 0001:00025dd0       ?_Isnil@?$_Tree_val@V?$_Tmap_traits@VBrn@OpenHome@@PAVObjectType@Stack@Net@2@VBufferCmp@2@V?$allocator@U?$pair@$$CBVBrn@OpenHome@@PAVObjectType@Stack@Net@2@@std@@@std@@$0A@@std@@@std@@SGAADPAU_Node@?$_Tree_nod@V?$_Tmap_traits@VBrn@OpenHome@@PAVObjectType@Stack@Net@2@VBufferCmp@2@V?$allocator@U?$pair@$$CBVBrn@OpenHome@@PAVObjectType@Stack@Net@2@@std@@@std@@$0A@@std@@@2@@Z 00426dd0 f i libohNetCore:Stack.obj
 0001:00025de0       ?_Key@?$_Tree_val@V?$_Tmap_traits@VBrn@OpenHome@@PAVObjectType@Stack@Net@2@VBufferCmp@2@V?$allocator@U?$pair@$$CBVBrn@OpenHome@@PAVObjectType@Stack@Net@2@@std@@@std@@$0A@@std@@@std@@SGAAVBrn@OpenHome@@PAU_Node@?$_Tree_nod@V?$_Tmap_traits@VBrn@OpenHome@@PAVObjectType@Stack@Net@2@VBufferCmp@2@V?$allocator@U?$pair@$$CBVBrn@OpenHome@@PAVObjectType@Stack@Net@2@@std@@@std@@$0A@@std@@@2@@Z 00426de0 f i libohNetCore:Stack.obj
 0001:00025e00       ?_Left@?$_Tree_val@V?$_Tmap_traits@VBrn@OpenHome@@PAVObjectType@Stack@Net@2@VBufferCmp@2@V?$allocator@U?$pair@$$CBVBrn@OpenHome@@PAVObjectType@Stack@Net@2@@std@@@std@@$0A@@std@@@std@@SGAAPAU_Node@?$_Tree_nod@V?$_Tmap_traits@VBrn@OpenHome@@PAVObjectType@Stack@Net@2@VBufferCmp@2@V?$allocator@U?$pair@$$CBVBrn@OpenHome@@PAVObjectType@Stack@Net@2@@std@@@std@@$0A@@std@@@2@PAU342@@Z 00426e00 f i libohNetCore:Stack.obj
 0001:00025e10       ?_Parent@?$_Tree_val@V?$_Tmap_traits@VBrn@OpenHome@@PAVObjectType@Stack@Net@2@VBufferCmp@2@V?$allocator@U?$pair@$$CBVBrn@OpenHome@@PAVObjectType@Stack@Net@2@@std@@@std@@$0A@@std@@@std@@SGAAPAU_Node@?$_Tree_nod@V?$_Tmap_traits@VBrn@OpenHome@@PAVObjectType@Stack@Net@2@VBufferCmp@2@V?$allocator@U?$pair@$$CBVBrn@OpenHome@@PAVObjectType@Stack@Net@2@@std@@@std@@$0A@@std@@@2@PAU342@@Z 00426e10 f i libohNetCore:Stack.obj
 0001:00025e20       ?_Right@?$_Tree_val@V?$_Tmap_traits@VBrn@OpenHome@@PAVObjectType@Stack@Net@2@VBufferCmp@2@V?$allocator@U?$pair@$$CBVBrn@OpenHome@@PAVObjectType@Stack@Net@2@@std@@@std@@$0A@@std@@@std@@SGAAPAU_Node@?$_Tree_nod@V?$_Tmap_traits@VBrn@OpenHome@@PAVObjectType@Stack@Net@2@VBufferCmp@2@V?$allocator@U?$pair@$$CBVBrn@OpenHome@@PAVObjectType@Stack@Net@2@@std@@@std@@$0A@@std@@@2@PAU342@@Z 00426e20 f i libohNetCore:Stack.obj
 0001:00025e30       ?_Myval@?$_Tree_val@V?$_Tmap_traits@VBrn@OpenHome@@PAVObjectType@Stack@Net@2@VBufferCmp@2@V?$allocator@U?$pair@$$CBVBrn@OpenHome@@PAVObjectType@Stack@Net@2@@std@@@std@@$0A@@std@@@std@@SGAAU?$pair@$$CBVBrn@OpenHome@@PAVObjectType@Stack@Net@2@@2@PAU_Node@?$_Tree_nod@V?$_Tmap_traits@VBrn@OpenHome@@PAVObjectType@Stack@Net@2@VBufferCmp@2@V?$allocator@U?$pair@$$CBVBrn@OpenHome@@PAVObjectType@Stack@Net@2@@std@@@std@@$0A@@std@@@2@@Z 00426e30 f i libohNetCore:Stack.obj
 0001:00025e40       ?_Max@?$_Tree_val@V?$_Tmap_traits@VBrn@OpenHome@@PAVObjectType@Stack@Net@2@VBufferCmp@2@V?$allocator@U?$pair@$$CBVBrn@OpenHome@@PAVObjectType@Stack@Net@2@@std@@@std@@$0A@@std@@@std@@SGPAU_Node@?$_Tree_nod@V?$_Tmap_traits@VBrn@OpenHome@@PAVObjectType@Stack@Net@2@VBufferCmp@2@V?$allocator@U?$pair@$$CBVBrn@OpenHome@@PAVObjectType@Stack@Net@2@@std@@@std@@$0A@@std@@@2@PAU342@@Z 00426e40 f i libohNetCore:Stack.obj
 0001:00025e80       ?_Min@?$_Tree_val@V?$_Tmap_traits@VBrn@OpenHome@@PAVObjectType@Stack@Net@2@VBufferCmp@2@V?$allocator@U?$pair@$$CBVBrn@OpenHome@@PAVObjectType@Stack@Net@2@@std@@@std@@$0A@@std@@@std@@SGPAU_Node@?$_Tree_nod@V?$_Tmap_traits@VBrn@OpenHome@@PAVObjectType@Stack@Net@2@VBufferCmp@2@V?$allocator@U?$pair@$$CBVBrn@OpenHome@@PAVObjectType@Stack@Net@2@@std@@@std@@$0A@@std@@@2@PAU342@@Z 00426e80 f i libohNetCore:Stack.obj
 0001:00025ec0       ??0?$allocator@U?$pair@$$CBVBrn@OpenHome@@PAVObjectType@Stack@Net@2@@std@@@std@@QAE@XZ 00426ec0 f i libohNetCore:Stack.obj
 0001:00025ee0       ?deallocate@?$allocator@U_Node@?$_Tree_nod@V?$_Tmap_traits@VBrn@OpenHome@@PAVObjectType@Stack@Net@2@VBufferCmp@2@V?$allocator@U?$pair@$$CBVBrn@OpenHome@@PAVObjectType@Stack@Net@2@@std@@@std@@$0A@@std@@@std@@@std@@QAEXPAU_Node@?$_Tree_nod@V?$_Tmap_traits@VBrn@OpenHome@@PAVObjectType@Stack@Net@2@VBufferCmp@2@V?$allocator@U?$pair@$$CBVBrn@OpenHome@@PAVObjectType@Stack@Net@2@@std@@@std@@$0A@@std@@@2@I@Z 00426ee0 f i libohNetCore:Stack.obj
 0001:00025f10       ??0?$_Vector_iterator@V?$_Vector_val@PAVMListener@Stack@Net@OpenHome@@V?$allocator@PAVMListener@Stack@Net@OpenHome@@@std@@@std@@@std@@QAE@PAPAVMListener@Stack@Net@OpenHome@@PBU_Container_base12@1@@Z 00426f10 f i libohNetCore:Stack.obj
 0001:00025f50       ??Y?$_Vector_iterator@V?$_Vector_val@PAVMListener@Stack@Net@OpenHome@@V?$allocator@PAVMListener@Stack@Net@OpenHome@@@std@@@std@@@std@@QAEAAV01@H@Z 00426f50 f i libohNetCore:Stack.obj
 0001:00025f80       ??0?$_Tree_iterator@V?$_Tree_val@V?$_Tmap_traits@VBrn@OpenHome@@PAVObjectType@Stack@Net@2@VBufferCmp@2@V?$allocator@U?$pair@$$CBVBrn@OpenHome@@PAVObjectType@Stack@Net@2@@std@@@std@@$0A@@std@@@std@@@std@@QAE@PAU_Node@?$_Tree_nod@V?$_Tmap_traits@VBrn@OpenHome@@PAVObjectType@Stack@Net@2@VBufferCmp@2@V?$allocator@U?$pair@$$CBVBrn@OpenHome@@PAVObjectType@Stack@Net@2@@std@@@std@@$0A@@std@@@1@PBV?$_Tree_val@V?$_Tmap_traits@VBrn@OpenHome@@PAVObjectType@Stack@Net@2@VBufferCmp@2@V?$allocator@U?$pair@$$CBVBrn@OpenHome@@PAVObjectType@Stack@Net@2@@std@@@std@@$0A@@std@@@1@@Z 00426f80 f i libohNetCore:Stack.obj
 0001:00025fc0       ??D?$_Tree_iterator@V?$_Tree_val@V?$_Tmap_traits@VBrn@OpenHome@@PAVObjectType@Stack@Net@2@VBufferCmp@2@V?$allocator@U?$pair@$$CBVBrn@OpenHome@@PAVObjectType@Stack@Net@2@@std@@@std@@$0A@@std@@@std@@@std@@QBEAAU?$pair@$$CBVBrn@OpenHome@@PAVObjectType@Stack@Net@2@@1@XZ 00426fc0 f i libohNetCore:Stack.obj
 0001:00025ff0       ??E?$_Tree_iterator@V?$_Tree_val@V?$_Tmap_traits@VBrn@OpenHome@@PAVObjectType@Stack@Net@2@VBufferCmp@2@V?$allocator@U?$pair@$$CBVBrn@OpenHome@@PAVObjectType@Stack@Net@2@@std@@@std@@$0A@@std@@@std@@@std@@QAEAAV01@XZ 00426ff0 f i libohNetCore:Stack.obj
 0001:00026020       ??E?$_Tree_const_iterator@V?$_Tree_val@V?$_Tmap_traits@VBrn@OpenHome@@PAVObjectType@Stack@Net@2@VBufferCmp@2@V?$allocator@U?$pair@$$CBVBrn@OpenHome@@PAVObjectType@Stack@Net@2@@std@@@std@@$0A@@std@@@std@@@std@@QAEAAV01@XZ 00427020 f i libohNetCore:Stack.obj
 0001:000260e0       ??8?$_Tree_const_iterator@V?$_Tree_val@V?$_Tmap_traits@VBrn@OpenHome@@PAVObjectType@Stack@Net@2@VBufferCmp@2@V?$allocator@U?$pair@$$CBVBrn@OpenHome@@PAVObjectType@Stack@Net@2@@std@@@std@@$0A@@std@@@std@@@std@@QBE_NABV01@@Z 004270e0 f i libohNetCore:Stack.obj
 0001:000261a0       ?_Mynode@?$_Tree_unchecked_const_iterator@V?$_Tree_val@V?$_Tmap_traits@VBrn@OpenHome@@PAVObjectType@Stack@Net@2@VBufferCmp@2@V?$allocator@U?$pair@$$CBVBrn@OpenHome@@PAVObjectType@Stack@Net@2@@std@@@std@@$0A@@std@@@std@@U_Iterator_base12@2@@std@@QBEPAU_Node@?$_Tree_nod@V?$_Tmap_traits@VBrn@OpenHome@@PAVObjectType@Stack@Net@2@VBufferCmp@2@V?$allocator@U?$pair@$$CBVBrn@OpenHome@@PAVObjectType@Stack@Net@2@@std@@@std@@$0A@@std@@@2@XZ 004271a0 f i libohNetCore:Stack.obj
 0001:000261c0       ??0?$_Tree_iterator@V?$_Tree_val@V?$_Tmap_traits@PAXPAXU?$less@PAX@std@@V?$allocator@U?$pair@QAXPAX@std@@@2@$0A@@std@@@std@@@std@@QAE@PAU_Node@?$_Tree_nod@V?$_Tmap_traits@PAXPAXU?$less@PAX@std@@V?$allocator@U?$pair@QAXPAX@std@@@2@$0A@@std@@@1@PBV?$_Tree_val@V?$_Tmap_traits@PAXPAXU?$less@PAX@std@@V?$allocator@U?$pair@QAXPAX@std@@@2@$0A@@std@@@1@@Z 004271c0 f i libohNetCore:Stack.obj
 0001:00026200       ??D?$_Tree_iterator@V?$_Tree_val@V?$_Tmap_traits@PAXPAXU?$less@PAX@std@@V?$allocator@U?$pair@QAXPAX@std@@@2@$0A@@std@@@std@@@std@@QBEAAU?$pair@QAXPAX@1@XZ 00427200 f i libohNetCore:Stack.obj
 0001:00026230       ??E?$_Tree_iterator@V?$_Tree_val@V?$_Tmap_traits@PAXPAXU?$less@PAX@std@@V?$allocator@U?$pair@QAXPAX@std@@@2@$0A@@std@@@std@@@std@@QAEAAV01@XZ 00427230 f i libohNetCore:Stack.obj
 0001:00026260       ??E?$_Tree_const_iterator@V?$_Tree_val@V?$_Tmap_traits@PAXPAXU?$less@PAX@std@@V?$allocator@U?$pair@QAXPAX@std@@@2@$0A@@std@@@std@@@std@@QAEAAV01@XZ 00427260 f i libohNetCore:Stack.obj
 0001:00026320       ??8?$_Tree_const_iterator@V?$_Tree_val@V?$_Tmap_traits@PAXPAXU?$less@PAX@std@@V?$allocator@U?$pair@QAXPAX@std@@@2@$0A@@std@@@std@@@std@@QBE_NABV01@@Z 00427320 f i libohNetCore:Stack.obj
 0001:000263e0       ?_Mynode@?$_Tree_unchecked_const_iterator@V?$_Tree_val@V?$_Tmap_traits@PAXPAXU?$less@PAX@std@@V?$allocator@U?$pair@QAXPAX@std@@@2@$0A@@std@@@std@@U_Iterator_base12@2@@std@@QBEPAU_Node@?$_Tree_nod@V?$_Tmap_traits@PAXPAXU?$less@PAX@std@@V?$allocator@U?$pair@QAXPAX@std@@@2@$0A@@std@@@2@XZ 004273e0 f i libohNetCore:Stack.obj
 0001:00026400       ?erase@?$_Tree@V?$_Tmap_traits@PAXPAXU?$less@PAX@std@@V?$allocator@U?$pair@QAXPAX@std@@@2@$0A@@std@@@std@@QAE?AV?$_Tree_iterator@V?$_Tree_val@V?$_Tmap_traits@PAXPAXU?$less@PAX@std@@V?$allocator@U?$pair@QAXPAX@std@@@2@$0A@@std@@@std@@@2@V?$_Tree_const_iterator@V?$_Tree_val@V?$_Tmap_traits@PAXPAXU?$less@PAX@std@@V?$allocator@U?$pair@QAXPAX@std@@@2@$0A@@std@@@std@@@2@0@Z 00427400 f i libohNetCore:Stack.obj
 0001:00026600       ?_Lbound@?$_Tree@V?$_Tmap_traits@PAXPAXU?$less@PAX@std@@V?$allocator@U?$pair@QAXPAX@std@@@2@$0A@@std@@@std@@IAEPAU_Node@?$_Tree_nod@V?$_Tmap_traits@PAXPAXU?$less@PAX@std@@V?$allocator@U?$pair@QAXPAX@std@@@2@$0A@@std@@@2@ABQAX@Z 00427600 f i libohNetCore:Stack.obj
 0001:000266b0       ??0?$_Tree_val@V?$_Tmap_traits@PAXPAXU?$less@PAX@std@@V?$allocator@U?$pair@QAXPAX@std@@@2@$0A@@std@@@std@@QAE@ABU?$less@PAX@1@V?$allocator@U?$pair@QAXPAX@std@@@1@@Z 004276b0 f i libohNetCore:Stack.obj
 0001:000267b0       ??1?$_Tree_nod@V?$_Tmap_traits@PAXPAXU?$less@PAX@std@@V?$allocator@U?$pair@QAXPAX@std@@@2@$0A@@std@@@std@@QAE@XZ 004277b0 f i libohNetCore:Stack.obj
 0001:00026890       ??0?$allocator@U?$pair@QAXPAX@std@@@std@@QAE@ABV01@@Z 00427890 f i libohNetCore:Stack.obj
 0001:000268b0       ?reserve@?$vector@PAVMListener@Stack@Net@OpenHome@@V?$allocator@PAVMListener@Stack@Net@OpenHome@@@std@@@std@@QAEXI@Z 004278b0 f i libohNetCore:Stack.obj
 0001:00026a20       ?capacity@?$vector@PAVMListener@Stack@Net@OpenHome@@V?$allocator@PAVMListener@Stack@Net@OpenHome@@@std@@@std@@QBEIXZ 00427a20 f i libohNetCore:Stack.obj
 0001:00026a50       ?max_size@?$vector@PAVMListener@Stack@Net@OpenHome@@V?$allocator@PAVMListener@Stack@Net@OpenHome@@@std@@@std@@QBEIXZ 00427a50 f i libohNetCore:Stack.obj
 0001:00026a80       ?_Grow_to@?$vector@PAVMListener@Stack@Net@OpenHome@@V?$allocator@PAVMListener@Stack@Net@OpenHome@@@std@@@std@@IBEII@Z 00427a80 f i libohNetCore:Stack.obj
 0001:00026b00       ?_Xlen@?$vector@PAVMListener@Stack@Net@OpenHome@@V?$allocator@PAVMListener@Stack@Net@OpenHome@@@std@@@std@@IBEXXZ 00427b00 f i libohNetCore:Stack.obj
 0001:00026b30       ??0?$allocator@PAVMListener@Stack@Net@OpenHome@@@std@@QAE@ABV01@@Z 00427b30 f i libohNetCore:Stack.obj
 0001:00026b50       ?deallocate@?$allocator@PAVMListener@Stack@Net@OpenHome@@@std@@QAEXPAPAVMListener@Stack@Net@OpenHome@@I@Z 00427b50 f i libohNetCore:Stack.obj
 0001:00026b80       ?erase@?$_Tree@V?$_Tmap_traits@VBrn@OpenHome@@PAVObjectType@Stack@Net@2@VBufferCmp@2@V?$allocator@U?$pair@$$CBVBrn@OpenHome@@PAVObjectType@Stack@Net@2@@std@@@std@@$0A@@std@@@std@@QAE?AV?$_Tree_iterator@V?$_Tree_val@V?$_Tmap_traits@VBrn@OpenHome@@PAVObjectType@Stack@Net@2@VBufferCmp@2@V?$allocator@U?$pair@$$CBVBrn@OpenHome@@PAVObjectType@Stack@Net@2@@std@@@std@@$0A@@std@@@std@@@2@V?$_Tree_const_iterator@V?$_Tree_val@V?$_Tmap_traits@VBrn@OpenHome@@PAVObjectType@Stack@Net@2@VBufferCmp@2@V?$allocator@U?$pair@$$CBVBrn@OpenHome@@PAVObjectType@Stack@Net@2@@std@@@std@@$0A@@std@@@std@@@2@0@Z 00427b80 f i libohNetCore:Stack.obj
 0001:00026d80       ?_Lbound@?$_Tree@V?$_Tmap_traits@VBrn@OpenHome@@PAVObjectType@Stack@Net@2@VBufferCmp@2@V?$allocator@U?$pair@$$CBVBrn@OpenHome@@PAVObjectType@Stack@Net@2@@std@@@std@@$0A@@std@@@std@@IAEPAU_Node@?$_Tree_nod@V?$_Tmap_traits@VBrn@OpenHome@@PAVObjectType@Stack@Net@2@VBufferCmp@2@V?$allocator@U?$pair@$$CBVBrn@OpenHome@@PAVObjectType@Stack@Net@2@@std@@@std@@$0A@@std@@@2@ABVBrn@OpenHome@@@Z 00427d80 f i libohNetCore:Stack.obj
 0001:00026e30       ??0?$_Tree_val@V?$_Tmap_traits@VBrn@OpenHome@@PAVObjectType@Stack@Net@2@VBufferCmp@2@V?$allocator@U?$pair@$$CBVBrn@OpenHome@@PAVObjectType@Stack@Net@2@@std@@@std@@$0A@@std@@@std@@QAE@ABVBufferCmp@OpenHome@@V?$allocator@U?$pair@$$CBVBrn@OpenHome@@PAVObjectType@Stack@Net@2@@std@@@1@@Z 00427e30 f i libohNetCore:Stack.obj
 0001:00026f30       ??1?$_Tree_nod@V?$_Tmap_traits@VBrn@OpenHome@@PAVObjectType@Stack@Net@2@VBufferCmp@2@V?$allocator@U?$pair@$$CBVBrn@OpenHome@@PAVObjectType@Stack@Net@2@@std@@@std@@$0A@@std@@@std@@QAE@XZ 00427f30 f i libohNetCore:Stack.obj
 0001:00027010       ??0?$allocator@U?$pair@$$CBVBrn@OpenHome@@PAVObjectType@Stack@Net@2@@std@@@std@@QAE@ABV01@@Z 00428010 f i libohNetCore:Stack.obj
 0001:00027030       ??0?$_Vector_const_iterator@V?$_Vector_val@PAVMListener@Stack@Net@OpenHome@@V?$allocator@PAVMListener@Stack@Net@OpenHome@@@std@@@std@@@std@@QAE@PAPAVMListener@Stack@Net@OpenHome@@PBU_Container_base12@1@@Z 00428030 f i libohNetCore:Stack.obj
 0001:000270b0       ??Y?$_Vector_const_iterator@V?$_Vector_val@PAVMListener@Stack@Net@OpenHome@@V?$allocator@PAVMListener@Stack@Net@OpenHome@@@std@@@std@@@std@@QAEAAV01@H@Z 004280b0 f i libohNetCore:Stack.obj
 0001:00027190       ??0?$_Tree_const_iterator@V?$_Tree_val@V?$_Tmap_traits@VBrn@OpenHome@@PAVObjectType@Stack@Net@2@VBufferCmp@2@V?$allocator@U?$pair@$$CBVBrn@OpenHome@@PAVObjectType@Stack@Net@2@@std@@@std@@$0A@@std@@@std@@@std@@QAE@PAU_Node@?$_Tree_nod@V?$_Tmap_traits@VBrn@OpenHome@@PAVObjectType@Stack@Net@2@VBufferCmp@2@V?$allocator@U?$pair@$$CBVBrn@OpenHome@@PAVObjectType@Stack@Net@2@@std@@@std@@$0A@@std@@@1@PBV?$_Tree_val@V?$_Tmap_traits@VBrn@OpenHome@@PAVObjectType@Stack@Net@2@VBufferCmp@2@V?$allocator@U?$pair@$$CBVBrn@OpenHome@@PAVObjectType@Stack@Net@2@@std@@@std@@$0A@@std@@@1@@Z 00428190 f i libohNetCore:Stack.obj
 0001:000271d0       ??D?$_Tree_const_iterator@V?$_Tree_val@V?$_Tmap_traits@VBrn@OpenHome@@PAVObjectType@Stack@Net@2@VBufferCmp@2@V?$allocator@U?$pair@$$CBVBrn@OpenHome@@PAVObjectType@Stack@Net@2@@std@@@std@@$0A@@std@@@std@@@std@@QBEABU?$pair@$$CBVBrn@OpenHome@@PAVObjectType@Stack@Net@2@@1@XZ 004281d0 f i libohNetCore:Stack.obj
 0001:00027290       ??E?$_Tree_unchecked_const_iterator@V?$_Tree_val@V?$_Tmap_traits@VBrn@OpenHome@@PAVObjectType@Stack@Net@2@VBufferCmp@2@V?$allocator@U?$pair@$$CBVBrn@OpenHome@@PAVObjectType@Stack@Net@2@@std@@@std@@$0A@@std@@@std@@U_Iterator_base12@2@@std@@QAEAAV01@XZ 00428290 f i libohNetCore:Stack.obj
 0001:00027350       ??0?$_Tree_const_iterator@V?$_Tree_val@V?$_Tmap_traits@PAXPAXU?$less@PAX@std@@V?$allocator@U?$pair@QAXPAX@std@@@2@$0A@@std@@@std@@@std@@QAE@PAU_Node@?$_Tree_nod@V?$_Tmap_traits@PAXPAXU?$less@PAX@std@@V?$allocator@U?$pair@QAXPAX@std@@@2@$0A@@std@@@1@PBV?$_Tree_val@V?$_Tmap_traits@PAXPAXU?$less@PAX@std@@V?$allocator@U?$pair@QAXPAX@std@@@2@$0A@@std@@@1@@Z 00428350 f i libohNetCore:Stack.obj
 0001:00027390       ??D?$_Tree_const_iterator@V?$_Tree_val@V?$_Tmap_traits@PAXPAXU?$less@PAX@std@@V?$allocator@U?$pair@QAXPAX@std@@@2@$0A@@std@@@std@@@std@@QBEABU?$pair@QAXPAX@1@XZ 00428390 f i libohNetCore:Stack.obj
 0001:00027450       ??E?$_Tree_unchecked_const_iterator@V?$_Tree_val@V?$_Tmap_traits@PAXPAXU?$less@PAX@std@@V?$allocator@U?$pair@QAXPAX@std@@@2@$0A@@std@@@std@@U_Iterator_base12@2@@std@@QAEAAV01@XZ 00428450 f i libohNetCore:Stack.obj
 0001:00027510       ??1?$_Tmap_traits@PAXPAXU?$less@PAX@std@@V?$allocator@U?$pair@QAXPAX@std@@@2@$0A@@std@@QAE@XZ 00428510 f i libohNetCore:Stack.obj
 0001:00027540       ??1?$_Tmap_traits@VBrn@OpenHome@@PAVObjectType@Stack@Net@2@VBufferCmp@2@V?$allocator@U?$pair@$$CBVBrn@OpenHome@@PAVObjectType@Stack@Net@2@@std@@@std@@$0A@@std@@QAE@XZ 00428540 f i libohNetCore:Stack.obj
 0001:00027570       ??0?$_Iterator012@Urandom_access_iterator_tag@std@@PAVMListener@Stack@Net@OpenHome@@HPBQAV3456@ABQAV3456@U_Iterator_base12@2@@std@@QAE@XZ 00428570 f i libohNetCore:Stack.obj
 0001:000275a0       ?clear@?$_Tree@V?$_Tmap_traits@PAXPAXU?$less@PAX@std@@V?$allocator@U?$pair@QAXPAX@std@@@2@$0A@@std@@@std@@QAEXXZ 004285a0 f i libohNetCore:Stack.obj
 0001:00027620       ??0?$_Tree_nod@V?$_Tmap_traits@PAXPAXU?$less@PAX@std@@V?$allocator@U?$pair@QAXPAX@std@@@2@$0A@@std@@@std@@QAE@ABU?$less@PAX@1@V?$allocator@U?$pair@QAXPAX@std@@@1@@Z 00428620 f i libohNetCore:Stack.obj
 0001:00027730       ?allocate@?$allocator@U_Node@?$_Tree_nod@V?$_Tmap_traits@PAXPAXU?$less@PAX@std@@V?$allocator@U?$pair@QAXPAX@std@@@2@$0A@@std@@@std@@@std@@QAEPAU_Node@?$_Tree_nod@V?$_Tmap_traits@PAXPAXU?$less@PAX@std@@V?$allocator@U?$pair@QAXPAX@std@@@2@$0A@@std@@@2@I@Z 00428730 f i libohNetCore:Stack.obj
 0001:00027760       ?allocate@?$allocator@PAVMListener@Stack@Net@OpenHome@@@std@@QAEPAPAVMListener@Stack@Net@OpenHome@@I@Z 00428760 f i libohNetCore:Stack.obj
 0001:00027790       ?max_size@?$allocator@PAVMListener@Stack@Net@OpenHome@@@std@@QBEIXZ 00428790 f i libohNetCore:Stack.obj
 0001:000277e0       ?clear@?$_Tree@V?$_Tmap_traits@VBrn@OpenHome@@PAVObjectType@Stack@Net@2@VBufferCmp@2@V?$allocator@U?$pair@$$CBVBrn@OpenHome@@PAVObjectType@Stack@Net@2@@std@@@std@@$0A@@std@@@std@@QAEXXZ 004287e0 f i libohNetCore:Stack.obj
 0001:00027860       ??0?$_Tree_nod@V?$_Tmap_traits@VBrn@OpenHome@@PAVObjectType@Stack@Net@2@VBufferCmp@2@V?$allocator@U?$pair@$$CBVBrn@OpenHome@@PAVObjectType@Stack@Net@2@@std@@@std@@$0A@@std@@@std@@QAE@ABVBufferCmp@OpenHome@@V?$allocator@U?$pair@$$CBVBrn@OpenHome@@PAVObjectType@Stack@Net@2@@std@@@1@@Z 00428860 f i libohNetCore:Stack.obj
 0001:00027970       ?allocate@?$allocator@U_Node@?$_Tree_nod@V?$_Tmap_traits@VBrn@OpenHome@@PAVObjectType@Stack@Net@2@VBufferCmp@2@V?$allocator@U?$pair@$$CBVBrn@OpenHome@@PAVObjectType@Stack@Net@2@@std@@@std@@$0A@@std@@@std@@@std@@QAEPAU_Node@?$_Tree_nod@V?$_Tmap_traits@VBrn@OpenHome@@PAVObjectType@Stack@Net@2@VBufferCmp@2@V?$allocator@U?$pair@$$CBVBrn@OpenHome@@PAVObjectType@Stack@Net@2@@std@@@std@@$0A@@std@@@2@I@Z 00428970 f i libohNetCore:Stack.obj
 0001:000279a0       ??E?$_Tree_const_iterator@V?$_Tree_val@V?$_Tmap_traits@VBrn@OpenHome@@PAVObjectType@Stack@Net@2@VBufferCmp@2@V?$allocator@U?$pair@$$CBVBrn@OpenHome@@PAVObjectType@Stack@Net@2@@std@@@std@@$0A@@std@@@std@@@std@@QAE?AV01@H@Z 004289a0 f i libohNetCore:Stack.obj
 0001:00027a70       ??0?$_Tree_unchecked_const_iterator@V?$_Tree_val@V?$_Tmap_traits@VBrn@OpenHome@@PAVObjectType@Stack@Net@2@VBufferCmp@2@V?$allocator@U?$pair@$$CBVBrn@OpenHome@@PAVObjectType@Stack@Net@2@@std@@@std@@$0A@@std@@@std@@U_Iterator_base12@2@@std@@QAE@PAU_Node@?$_Tree_nod@V?$_Tmap_traits@VBrn@OpenHome@@PAVObjectType@Stack@Net@2@VBufferCmp@2@V?$allocator@U?$pair@$$CBVBrn@OpenHome@@PAVObjectType@Stack@Net@2@@std@@@std@@$0A@@std@@@1@PBV?$_Tree_val@V?$_Tmap_traits@VBrn@OpenHome@@PAVObjectType@Stack@Net@2@VBufferCmp@2@V?$allocator@U?$pair@$$CBVBrn@OpenHome@@PAVObjectType@Stack@Net@2@@std@@@std@@$0A@@std@@@1@@Z 00428a70 f i libohNetCore:Stack.obj
 0001:00027af0       ??E?$_Tree_const_iterator@V?$_Tree_val@V?$_Tmap_traits@PAXPAXU?$less@PAX@std@@V?$allocator@U?$pair@QAXPAX@std@@@2@$0A@@std@@@std@@@std@@QAE?AV01@H@Z 00428af0 f i libohNetCore:Stack.obj
 0001:00027bc0       ??0?$_Tree_unchecked_const_iterator@V?$_Tree_val@V?$_Tmap_traits@PAXPAXU?$less@PAX@std@@V?$allocator@U?$pair@QAXPAX@std@@@2@$0A@@std@@@std@@U_Iterator_base12@2@@std@@QAE@PAU_Node@?$_Tree_nod@V?$_Tmap_traits@PAXPAXU?$less@PAX@std@@V?$allocator@U?$pair@QAXPAX@std@@@2@$0A@@std@@@1@PBV?$_Tree_val@V?$_Tmap_traits@PAXPAXU?$less@PAX@std@@V?$allocator@U?$pair@QAXPAX@std@@@2@$0A@@std@@@1@@Z 00428bc0 f i libohNetCore:Stack.obj
 0001:00027c40       ??0?$_Iterator012@Ubidirectional_iterator_tag@std@@U?$pair@$$CBVBrn@OpenHome@@PAVObjectType@Stack@Net@2@@2@HPBU32@ABU32@U_Iterator_base12@2@@std@@QAE@XZ 00428c40 f i libohNetCore:Stack.obj
 0001:00027c70       ??0?$_Iterator012@Ubidirectional_iterator_tag@std@@U?$pair@QAXPAX@2@HPBU32@ABU32@U_Iterator_base12@2@@std@@QAE@XZ 00428c70 f i libohNetCore:Stack.obj
 0001:00027ca0       ?_Erase@?$_Tree@V?$_Tmap_traits@PAXPAXU?$less@PAX@std@@V?$allocator@U?$pair@QAXPAX@std@@@2@$0A@@std@@@std@@IAEXPAU_Node@?$_Tree_nod@V?$_Tmap_traits@PAXPAXU?$less@PAX@std@@V?$allocator@U?$pair@QAXPAX@std@@@2@$0A@@std@@@2@@Z 00428ca0 f i libohNetCore:Stack.obj
 0001:00027d40       ??0?$_Tmap_traits@PAXPAXU?$less@PAX@std@@V?$allocator@U?$pair@QAXPAX@std@@@2@$0A@@std@@QAE@U?$less@PAX@1@@Z 00428d40 f i libohNetCore:Stack.obj
 0001:00027d70       ?_Erase@?$_Tree@V?$_Tmap_traits@VBrn@OpenHome@@PAVObjectType@Stack@Net@2@VBufferCmp@2@V?$allocator@U?$pair@$$CBVBrn@OpenHome@@PAVObjectType@Stack@Net@2@@std@@@std@@$0A@@std@@@std@@IAEXPAU_Node@?$_Tree_nod@V?$_Tmap_traits@VBrn@OpenHome@@PAVObjectType@Stack@Net@2@VBufferCmp@2@V?$allocator@U?$pair@$$CBVBrn@OpenHome@@PAVObjectType@Stack@Net@2@@std@@@std@@$0A@@std@@@2@@Z 00428d70 f i libohNetCore:Stack.obj
 0001:00027e10       ??0?$_Tmap_traits@VBrn@OpenHome@@PAVObjectType@Stack@Net@2@VBufferCmp@2@V?$allocator@U?$pair@$$CBVBrn@OpenHome@@PAVObjectType@Stack@Net@2@@std@@@std@@$0A@@std@@QAE@VBufferCmp@OpenHome@@@Z 00428e10 f i libohNetCore:Stack.obj
 0001:00027e40       ??$?0AAVBrn@OpenHome@@AAPAVObjectType@Stack@Net@1@@?$pair@VBrn@OpenHome@@PAVObjectType@Stack@Net@2@@std@@QAE@AAVBrn@OpenHome@@AAPAVObjectType@Stack@Net@3@@Z 00428e40 f i libohNetCore:Stack.obj
 0001:00027e80       ??$insert@U?$pair@VBrn@OpenHome@@PAVObjectType@Stack@Net@2@@std@@@?$_Tree@V?$_Tmap_traits@VBrn@OpenHome@@PAVObjectType@Stack@Net@2@VBufferCmp@2@V?$allocator@U?$pair@$$CBVBrn@OpenHome@@PAVObjectType@Stack@Net@2@@std@@@std@@$0A@@std@@@std@@QAE?AU?$pair@V?$_Tree_iterator@V?$_Tree_val@V?$_Tmap_traits@VBrn@OpenHome@@PAVObjectType@Stack@Net@2@VBufferCmp@2@V?$allocator@U?$pair@$$CBVBrn@OpenHome@@PAVObjectType@Stack@Net@2@@std@@@std@@$0A@@std@@@std@@@std@@_N@1@$$QAU?$pair@VBrn@OpenHome@@PAVObjectType@Stack@Net@2@@1@@Z 00428e80 f i libohNetCore:Stack.obj
 0001:00027ee0       ??$?0AAPAXAAPAX@?$pair@PAXPAX@std@@QAE@AAPAX0@Z 00428ee0 f i libohNetCore:Stack.obj
 0001:00027f20       ??$insert@U?$pair@PAXPAX@std@@@?$_Tree@V?$_Tmap_traits@PAXPAXU?$less@PAX@std@@V?$allocator@U?$pair@QAXPAX@std@@@2@$0A@@std@@@std@@QAE?AU?$pair@V?$_Tree_iterator@V?$_Tree_val@V?$_Tmap_traits@PAXPAXU?$less@PAX@std@@V?$allocator@U?$pair@QAXPAX@std@@@2@$0A@@std@@@std@@@std@@_N@1@$$QAU?$pair@PAXPAX@1@@Z 00428f20 f i libohNetCore:Stack.obj
 0001:00027f80       ??$addressof@U?$pair@QAXPAX@std@@@std@@YGPAU?$pair@QAXPAX@0@AAU10@@Z 00428f80 f i libohNetCore:Stack.obj
 0001:00027f90       ??$_Dest_val@V?$allocator@U?$pair@QAXPAX@std@@@std@@U?$pair@QAXPAX@2@@std@@YGXAAV?$allocator@U?$pair@QAXPAX@std@@@0@PAU?$pair@QAXPAX@0@@Z 00428f90 f i libohNetCore:Stack.obj
 0001:00027fb0       ??$_Debug_lt_pred@U?$less@PAX@std@@PAXPAX@std@@YG_NU?$less@PAX@0@ABQAXAAPAXPB_WI@Z 00428fb0 f i libohNetCore:Stack.obj
 0001:00028010       ??$addressof@QAVMListener@Stack@Net@OpenHome@@@std@@YGPBQAVMListener@Stack@Net@OpenHome@@ABQAV1234@@Z 00429010 f i libohNetCore:Stack.obj
 0001:00028020       ??$_Cons_val@V?$allocator@PAVMListener@Stack@Net@OpenHome@@@std@@PAVMListener@Stack@Net@OpenHome@@AAPAV3456@@std@@YGXAAV?$allocator@PAVMListener@Stack@Net@OpenHome@@@0@PAPAVMListener@Stack@Net@OpenHome@@AAPAV2345@@Z 00429020 f i libohNetCore:Stack.obj
 0001:00028050       ??$_Cons_val@V?$allocator@PAVMListener@Stack@Net@OpenHome@@@std@@PAVMListener@Stack@Net@OpenHome@@ABQAV3456@@std@@YGXAAV?$allocator@PAVMListener@Stack@Net@OpenHome@@@0@PAPAVMListener@Stack@Net@OpenHome@@ABQAV2345@@Z 00429050 f i libohNetCore:Stack.obj
 0001:00028080       ??$_Move@PAPAVMListener@Stack@Net@OpenHome@@PAPAV1234@@std@@YGPAPAVMListener@Stack@Net@OpenHome@@PAPAV1234@00@Z 00429080 f i libohNetCore:Stack.obj
 0001:000280d0       ??$addressof@U?$pair@$$CBVBrn@OpenHome@@PAVObjectType@Stack@Net@2@@std@@@std@@YGPAU?$pair@$$CBVBrn@OpenHome@@PAVObjectType@Stack@Net@2@@0@AAU10@@Z 004290d0 f i libohNetCore:Stack.obj
 0001:000280e0       ??$_Dest_val@V?$allocator@U?$pair@$$CBVBrn@OpenHome@@PAVObjectType@Stack@Net@2@@std@@@std@@U?$pair@$$CBVBrn@OpenHome@@PAVObjectType@Stack@Net@2@@2@@std@@YGXAAV?$allocator@U?$pair@$$CBVBrn@OpenHome@@PAVObjectType@Stack@Net@2@@std@@@0@PAU?$pair@$$CBVBrn@OpenHome@@PAVObjectType@Stack@Net@2@@0@@Z 004290e0 f i libohNetCore:Stack.obj
 0001:00028100       ??$_Debug_lt_pred@VBufferCmp@OpenHome@@VBrn@2@V32@@std@@YG_NVBufferCmp@OpenHome@@ABVBrn@2@AAV32@PB_WI@Z 00429100 f i libohNetCore:Stack.obj
 0001:00028160       ??$_Kfn@QAXPAX@?$_Tmap_traits@PAXPAXU?$less@PAX@std@@V?$allocator@U?$pair@QAXPAX@std@@@2@$0A@@std@@SGABQAXABU?$pair@QAXPAX@1@@Z 00429160 f i libohNetCore:Stack.obj
 0001:00028170       ??$_Destroy_range@V?$allocator@PAVMListener@Stack@Net@OpenHome@@@std@@@std@@YGXPAPAVMListener@Stack@Net@OpenHome@@0AAV?$allocator@PAVMListener@Stack@Net@OpenHome@@@0@@Z 00429170 f i libohNetCore:Stack.obj
 0001:000281c0       ??$?0PAVMListener@Stack@Net@OpenHome@@@?$allocator@U_Container_proxy@std@@@std@@QAE@ABV?$allocator@PAVMListener@Stack@Net@OpenHome@@@1@@Z 004291c0 f i libohNetCore:Stack.obj
 0001:000281e0       ??$_Kfn@$$CBVBrn@OpenHome@@PAVObjectType@Stack@Net@2@@?$_Tmap_traits@VBrn@OpenHome@@PAVObjectType@Stack@Net@2@VBufferCmp@2@V?$allocator@U?$pair@$$CBVBrn@OpenHome@@PAVObjectType@Stack@Net@2@@std@@@std@@$0A@@std@@SGABVBrn@OpenHome@@ABU?$pair@$$CBVBrn@OpenHome@@PAVObjectType@Stack@Net@2@@1@@Z 004291e0 f i libohNetCore:Stack.obj
 0001:000281f0       ??$_Debug_lt_pred@U?$less@PAX@std@@PAXPAX@std@@YG_NU?$less@PAX@0@AAPAXABQAXPB_WI@Z 004291f0 f i libohNetCore:Stack.obj
 0001:00028250       ??$?0U_Node@?$_Tree_nod@V?$_Tmap_traits@PAXPAXU?$less@PAX@std@@V?$allocator@U?$pair@QAXPAX@std@@@2@$0A@@std@@@std@@@?$allocator@U_Container_proxy@std@@@std@@QAE@ABV?$allocator@U_Node@?$_Tree_nod@V?$_Tmap_traits@PAXPAXU?$less@PAX@std@@V?$allocator@U?$pair@QAXPAX@std@@@2@$0A@@std@@@std@@@1@@Z 00429250 f i libohNetCore:Stack.obj
 0001:00028270       ??$_Umove@PAPAVMListener@Stack@Net@OpenHome@@@?$vector@PAVMListener@Stack@Net@OpenHome@@V?$allocator@PAVMListener@Stack@Net@OpenHome@@@std@@@std@@IAEPAPAVMListener@Stack@Net@OpenHome@@PAPAV2345@00@Z 00429270 f i libohNetCore:Stack.obj
 0001:000282b0       ??$_Debug_lt_pred@VBufferCmp@OpenHome@@VBrn@2@V32@@std@@YG_NVBufferCmp@OpenHome@@AAVBrn@2@ABV32@PB_WI@Z 004292b0 f i libohNetCore:Stack.obj
 0001:00028310       ??$?0U_Node@?$_Tree_nod@V?$_Tmap_traits@VBrn@OpenHome@@PAVObjectType@Stack@Net@2@VBufferCmp@2@V?$allocator@U?$pair@$$CBVBrn@OpenHome@@PAVObjectType@Stack@Net@2@@std@@@std@@$0A@@std@@@std@@@?$allocator@U_Container_proxy@std@@@std@@QAE@ABV?$allocator@U_Node@?$_Tree_nod@V?$_Tmap_traits@VBrn@OpenHome@@PAVObjectType@Stack@Net@2@VBufferCmp@2@V?$allocator@U?$pair@$$CBVBrn@OpenHome@@PAVObjectType@Stack@Net@2@@std@@@std@@$0A@@std@@@std@@@1@@Z 00429310 f i libohNetCore:Stack.obj
 0001:00028330       ??$?0U?$pair@QAXPAX@std@@@?$allocator@U_Node@?$_Tree_nod@V?$_Tmap_traits@PAXPAXU?$less@PAX@std@@V?$allocator@U?$pair@QAXPAX@std@@@2@$0A@@std@@@std@@@std@@QAE@ABV?$allocator@U?$pair@QAXPAX@std@@@1@@Z 00429330 f i libohNetCore:Stack.obj
 0001:00028350       ??$_Allocate@U_Node@?$_Tree_nod@V?$_Tmap_traits@PAXPAXU?$less@PAX@std@@V?$allocator@U?$pair@QAXPAX@std@@@2@$0A@@std@@@std@@@std@@YGPAU_Node@?$_Tree_nod@V?$_Tmap_traits@PAXPAXU?$less@PAX@std@@V?$allocator@U?$pair@QAXPAX@std@@@2@$0A@@std@@@0@IPAU120@@Z 00429350 f i libohNetCore:Stack.obj
 0001:000283d0       ??$_Allocate@PAVMListener@Stack@Net@OpenHome@@@std@@YGPAPAVMListener@Stack@Net@OpenHome@@IPAPAV1234@@Z 004293d0 f i libohNetCore:Stack.obj
 0001:00028450       ??$?0U?$pair@$$CBVBrn@OpenHome@@PAVObjectType@Stack@Net@2@@std@@@?$allocator@U_Node@?$_Tree_nod@V?$_Tmap_traits@VBrn@OpenHome@@PAVObjectType@Stack@Net@2@VBufferCmp@2@V?$allocator@U?$pair@$$CBVBrn@OpenHome@@PAVObjectType@Stack@Net@2@@std@@@std@@$0A@@std@@@std@@@std@@QAE@ABV?$allocator@U?$pair@$$CBVBrn@OpenHome@@PAVObjectType@Stack@Net@2@@std@@@1@@Z 00429450 f i libohNetCore:Stack.obj
 0001:00028470       ??$_Allocate@U_Node@?$_Tree_nod@V?$_Tmap_traits@VBrn@OpenHome@@PAVObjectType@Stack@Net@2@VBufferCmp@2@V?$allocator@U?$pair@$$CBVBrn@OpenHome@@PAVObjectType@Stack@Net@2@@std@@@std@@$0A@@std@@@std@@@std@@YGPAU_Node@?$_Tree_nod@V?$_Tmap_traits@VBrn@OpenHome@@PAVObjectType@Stack@Net@2@VBufferCmp@2@V?$allocator@U?$pair@$$CBVBrn@OpenHome@@PAVObjectType@Stack@Net@2@@std@@@std@@$0A@@std@@@0@IPAU120@@Z 00429470 f i libohNetCore:Stack.obj
 0001:000284f0       ?_Linsert@?$_Tree@V?$_Tmap_traits@PAXPAXU?$less@PAX@std@@V?$allocator@U?$pair@QAXPAX@std@@@2@$0A@@std@@@std@@QAE?AU?$pair@V?$_Tree_iterator@V?$_Tree_val@V?$_Tmap_traits@PAXPAXU?$less@PAX@std@@V?$allocator@U?$pair@QAXPAX@std@@@2@$0A@@std@@@std@@@std@@_N@2@PAU_Node@?$_Tree_nod@V?$_Tmap_traits@PAXPAXU?$less@PAX@std@@V?$allocator@U?$pair@QAXPAX@std@@@2@$0A@@std@@@2@_N@Z 004294f0 f i libohNetCore:Stack.obj
 0001:000288d0       ?destroy@?$allocator@U?$pair@QAXPAX@std@@@std@@QAEXPAU?$pair@QAXPAX@2@@Z 004298d0 f i libohNetCore:Stack.obj
 0001:00028900       ??R?$less@PAX@std@@QBE_NABQAX0@Z 00429900 f i libohNetCore:Stack.obj
 0001:00028930       ?construct@?$allocator@PAVMListener@Stack@Net@OpenHome@@@std@@QAEXPAPAVMListener@Stack@Net@OpenHome@@ABQAV3456@@Z 00429930 f i libohNetCore:Stack.obj
 0001:00028960       ?_Linsert@?$_Tree@V?$_Tmap_traits@VBrn@OpenHome@@PAVObjectType@Stack@Net@2@VBufferCmp@2@V?$allocator@U?$pair@$$CBVBrn@OpenHome@@PAVObjectType@Stack@Net@2@@std@@@std@@$0A@@std@@@std@@QAE?AU?$pair@V?$_Tree_iterator@V?$_Tree_val@V?$_Tmap_traits@VBrn@OpenHome@@PAVObjectType@Stack@Net@2@VBufferCmp@2@V?$allocator@U?$pair@$$CBVBrn@OpenHome@@PAVObjectType@Stack@Net@2@@std@@@std@@$0A@@std@@@std@@@std@@_N@2@PAU_Node@?$_Tree_nod@V?$_Tmap_traits@VBrn@OpenHome@@PAVObjectType@Stack@Net@2@VBufferCmp@2@V?$allocator@U?$pair@$$CBVBrn@OpenHome@@PAVObjectType@Stack@Net@2@@std@@@std@@$0A@@std@@@2@_N@Z 00429960 f i libohNetCore:Stack.obj
 0001:00028d40       ?destroy@?$allocator@U?$pair@$$CBVBrn@OpenHome@@PAVObjectType@Stack@Net@2@@std@@@std@@QAEXPAU?$pair@$$CBVBrn@OpenHome@@PAVObjectType@Stack@Net@2@@2@@Z 00429d40 f i libohNetCore:Stack.obj
 0001:00028d70       ?_Insert@?$_Tree@V?$_Tmap_traits@PAXPAXU?$less@PAX@std@@V?$allocator@U?$pair@QAXPAX@std@@@2@$0A@@std@@@std@@IAE?AV?$_Tree_iterator@V?$_Tree_val@V?$_Tmap_traits@PAXPAXU?$less@PAX@std@@V?$allocator@U?$pair@QAXPAX@std@@@2@$0A@@std@@@std@@@2@_NPAU_Node@?$_Tree_nod@V?$_Tmap_traits@PAXPAXU?$less@PAX@std@@V?$allocator@U?$pair@QAXPAX@std@@@2@$0A@@std@@@2@1@Z 00429d70 f i libohNetCore:Stack.obj
 0001:00029130       ?_Insert@?$_Tree@V?$_Tmap_traits@VBrn@OpenHome@@PAVObjectType@Stack@Net@2@VBufferCmp@2@V?$allocator@U?$pair@$$CBVBrn@OpenHome@@PAVObjectType@Stack@Net@2@@std@@@std@@$0A@@std@@@std@@IAE?AV?$_Tree_iterator@V?$_Tree_val@V?$_Tmap_traits@VBrn@OpenHome@@PAVObjectType@Stack@Net@2@VBufferCmp@2@V?$allocator@U?$pair@$$CBVBrn@OpenHome@@PAVObjectType@Stack@Net@2@@std@@@std@@$0A@@std@@@std@@@2@_NPAU_Node@?$_Tree_nod@V?$_Tmap_traits@VBrn@OpenHome@@PAVObjectType@Stack@Net@2@VBufferCmp@2@V?$allocator@U?$pair@$$CBVBrn@OpenHome@@PAVObjectType@Stack@Net@2@@std@@@std@@$0A@@std@@@2@1@Z 0042a130 f i libohNetCore:Stack.obj
 0001:000294f0       ??F?$_Tree_iterator@V?$_Tree_val@V?$_Tmap_traits@VBrn@OpenHome@@PAVObjectType@Stack@Net@2@VBufferCmp@2@V?$allocator@U?$pair@$$CBVBrn@OpenHome@@PAVObjectType@Stack@Net@2@@std@@@std@@$0A@@std@@@std@@@std@@QAEAAV01@XZ 0042a4f0 f i libohNetCore:Stack.obj
 0001:00029520       ??0?$pair@V?$_Tree_iterator@V?$_Tree_val@V?$_Tmap_traits@VBrn@OpenHome@@PAVObjectType@Stack@Net@2@VBufferCmp@2@V?$allocator@U?$pair@$$CBVBrn@OpenHome@@PAVObjectType@Stack@Net@2@@std@@@std@@$0A@@std@@@std@@@std@@_N@std@@QAE@$$QAV?$_Tree_iterator@V?$_Tree_val@V?$_Tmap_traits@VBrn@OpenHome@@PAVObjectType@Stack@Net@2@VBufferCmp@2@V?$allocator@U?$pair@$$CBVBrn@OpenHome@@PAVObjectType@Stack@Net@2@@std@@@std@@$0A@@std@@@std@@@1@$$QA_N@Z 0042a520 f i libohNetCore:Stack.obj
 0001:00029560       ??0?$pair@V?$_Tree_iterator@V?$_Tree_val@V?$_Tmap_traits@PAXPAXU?$less@PAX@std@@V?$allocator@U?$pair@QAXPAX@std@@@2@$0A@@std@@@std@@@std@@_N@std@@QAE@$$QAV?$_Tree_iterator@V?$_Tree_val@V?$_Tmap_traits@PAXPAXU?$less@PAX@std@@V?$allocator@U?$pair@QAXPAX@std@@@2@$0A@@std@@@std@@@1@$$QA_N@Z 0042a560 f i libohNetCore:Stack.obj
 0001:000295a0       ??F?$_Tree_iterator@V?$_Tree_val@V?$_Tmap_traits@PAXPAXU?$less@PAX@std@@V?$allocator@U?$pair@QAXPAX@std@@@2@$0A@@std@@@std@@@std@@QAEAAV01@XZ 0042a5a0 f i libohNetCore:Stack.obj
 0001:000295d0       ?max_size@?$_Tree@V?$_Tmap_traits@PAXPAXU?$less@PAX@std@@V?$allocator@U?$pair@QAXPAX@std@@@2@$0A@@std@@@std@@QBEIXZ 0042a5d0 f i libohNetCore:Stack.obj
 0001:00029600       ?max_size@?$_Tree@V?$_Tmap_traits@VBrn@OpenHome@@PAVObjectType@Stack@Net@2@VBufferCmp@2@V?$allocator@U?$pair@$$CBVBrn@OpenHome@@PAVObjectType@Stack@Net@2@@std@@@std@@$0A@@std@@@std@@QBEIXZ 0042a600 f i libohNetCore:Stack.obj
 0001:00029630       ??F?$_Tree_const_iterator@V?$_Tree_val@V?$_Tmap_traits@VBrn@OpenHome@@PAVObjectType@Stack@Net@2@VBufferCmp@2@V?$allocator@U?$pair@$$CBVBrn@OpenHome@@PAVObjectType@Stack@Net@2@@std@@@std@@$0A@@std@@@std@@@std@@QAEAAV01@XZ 0042a630 f i libohNetCore:Stack.obj
 0001:00029750       ??0?$_Pair_base@V?$_Tree_iterator@V?$_Tree_val@V?$_Tmap_traits@VBrn@OpenHome@@PAVObjectType@Stack@Net@2@VBufferCmp@2@V?$allocator@U?$pair@$$CBVBrn@OpenHome@@PAVObjectType@Stack@Net@2@@std@@@std@@$0A@@std@@@std@@@std@@_N@std@@QAE@$$QAV?$_Tree_iterator@V?$_Tree_val@V?$_Tmap_traits@VBrn@OpenHome@@PAVObjectType@Stack@Net@2@VBufferCmp@2@V?$allocator@U?$pair@$$CBVBrn@OpenHome@@PAVObjectType@Stack@Net@2@@std@@@std@@$0A@@std@@@std@@@1@$$QA_N@Z 0042a750 f i libohNetCore:Stack.obj
 0001:000297d0       ??0?$_Pair_base@V?$_Tree_iterator@V?$_Tree_val@V?$_Tmap_traits@PAXPAXU?$less@PAX@std@@V?$allocator@U?$pair@QAXPAX@std@@@2@$0A@@std@@@std@@@std@@_N@std@@QAE@$$QAV?$_Tree_iterator@V?$_Tree_val@V?$_Tmap_traits@PAXPAXU?$less@PAX@std@@V?$allocator@U?$pair@QAXPAX@std@@@2@$0A@@std@@@std@@@1@$$QA_N@Z 0042a7d0 f i libohNetCore:Stack.obj
 0001:00029850       ??F?$_Tree_const_iterator@V?$_Tree_val@V?$_Tmap_traits@PAXPAXU?$less@PAX@std@@V?$allocator@U?$pair@QAXPAX@std@@@2@$0A@@std@@@std@@@std@@QAEAAV01@XZ 0042a850 f i libohNetCore:Stack.obj
 0001:00029970       ?max_size@?$allocator@U?$pair@QAXPAX@std@@@std@@QBEIXZ 0042a970 f i libohNetCore:Stack.obj
 0001:000299c0       ?max_size@?$allocator@U?$pair@$$CBVBrn@OpenHome@@PAVObjectType@Stack@Net@2@@std@@@std@@QBEIXZ 0042a9c0 f i libohNetCore:Stack.obj
 0001:00029a10       ??F?$_Tree_unchecked_const_iterator@V?$_Tree_val@V?$_Tmap_traits@VBrn@OpenHome@@PAVObjectType@Stack@Net@2@VBufferCmp@2@V?$allocator@U?$pair@$$CBVBrn@OpenHome@@PAVObjectType@Stack@Net@2@@std@@@std@@$0A@@std@@@std@@U_Iterator_base12@2@@std@@QAEAAV01@XZ 0042aa10 f i libohNetCore:Stack.obj
 0001:00029b00       ??F?$_Tree_unchecked_const_iterator@V?$_Tree_val@V?$_Tmap_traits@PAXPAXU?$less@PAX@std@@V?$allocator@U?$pair@QAXPAX@std@@@2@$0A@@std@@@std@@U_Iterator_base12@2@@std@@QAEAAV01@XZ 0042ab00 f i libohNetCore:Stack.obj
 0001:00029bf0       ??$forward@AAVBrn@OpenHome@@@std@@YGAAVBrn@OpenHome@@AAV12@@Z 0042abf0 f i libohNetCore:Stack.obj
 0001:00029c00       ??$forward@AAPAVObjectType@Stack@Net@OpenHome@@@std@@YGAAPAVObjectType@Stack@Net@OpenHome@@AAPAV1234@@Z 0042ac00 f i libohNetCore:Stack.obj
 0001:00029c10       ??$?0AAVBrn@OpenHome@@AAPAVObjectType@Stack@Net@1@@?$_Pair_base@VBrn@OpenHome@@PAVObjectType@Stack@Net@2@@std@@QAE@AAVBrn@OpenHome@@AAPAVObjectType@Stack@Net@3@@Z 0042ac10 f i libohNetCore:Stack.obj
 0001:00029c90       ??0Brn@OpenHome@@QAE@ABV01@@Z 0042ac90 f i libohNetCore:Stack.obj
 0001:00029d20       ??0Brx@OpenHome@@IAE@ABV01@@Z 0042ad20 f i libohNetCore:Stack.obj
 0001:00029d60       ??$forward@U?$pair@VBrn@OpenHome@@PAVObjectType@Stack@Net@2@@std@@@std@@YG$$QAU?$pair@VBrn@OpenHome@@PAVObjectType@Stack@Net@2@@0@AAU10@@Z 0042ad60 f i libohNetCore:Stack.obj
 0001:00029d70       ??$_Buynode@U?$pair@VBrn@OpenHome@@PAVObjectType@Stack@Net@2@@std@@@?$_Tree_val@V?$_Tmap_traits@VBrn@OpenHome@@PAVObjectType@Stack@Net@2@VBufferCmp@2@V?$allocator@U?$pair@$$CBVBrn@OpenHome@@PAVObjectType@Stack@Net@2@@std@@@std@@$0A@@std@@@std@@QAEPAU_Node@?$_Tree_nod@V?$_Tmap_traits@VBrn@OpenHome@@PAVObjectType@Stack@Net@2@VBufferCmp@2@V?$allocator@U?$pair@$$CBVBrn@OpenHome@@PAVObjectType@Stack@Net@2@@std@@@std@@$0A@@std@@@1@$$QAU?$pair@VBrn@OpenHome@@PAVObjectType@Stack@Net@2@@1@@Z 0042ad70 f i libohNetCore:Stack.obj
 0001:00029e50       ??$forward@AAPAX@std@@YGAAPAXAAPAX@Z 0042ae50 f i libohNetCore:Stack.obj
 0001:00029e60       ??$?0AAPAXAAPAX@?$_Pair_base@PAXPAX@std@@QAE@AAPAX0@Z 0042ae60 f i libohNetCore:Stack.obj
 0001:00029eb0       ??$forward@U?$pair@PAXPAX@std@@@std@@YG$$QAU?$pair@PAXPAX@0@AAU10@@Z 0042aeb0 f i libohNetCore:Stack.obj
 0001:00029ec0       ??$_Buynode@U?$pair@PAXPAX@std@@@?$_Tree_val@V?$_Tmap_traits@PAXPAXU?$less@PAX@std@@V?$allocator@U?$pair@QAXPAX@std@@@2@$0A@@std@@@std@@QAEPAU_Node@?$_Tree_nod@V?$_Tmap_traits@PAXPAXU?$less@PAX@std@@V?$allocator@U?$pair@QAXPAX@std@@@2@$0A@@std@@@1@$$QAU?$pair@PAXPAX@1@@Z 0042aec0 f i libohNetCore:Stack.obj
 0001:00029fa0       ??$forward@AAPAVMListener@Stack@Net@OpenHome@@@std@@YGAAPAVMListener@Stack@Net@OpenHome@@AAPAV1234@@Z 0042afa0 f i libohNetCore:Stack.obj
 0001:00029fb0       ??$construct@AAPAVMListener@Stack@Net@OpenHome@@@?$allocator@PAVMListener@Stack@Net@OpenHome@@@std@@QAEXPAPAVMListener@Stack@Net@OpenHome@@AAPAV2345@@Z 0042afb0 f i libohNetCore:Stack.obj
 0001:0002a050       ??$forward@ABQAVMListener@Stack@Net@OpenHome@@@std@@YGABQAVMListener@Stack@Net@OpenHome@@ABQAV1234@@Z 0042b050 f i libohNetCore:Stack.obj
 0001:0002a060       ??$_Ptr_cat@PAVMListener@Stack@Net@OpenHome@@PAV1234@@std@@YG?AU_Scalar_ptr_iterator_tag@0@PAPAVMListener@Stack@Net@OpenHome@@0@Z 0042b060 f i libohNetCore:Stack.obj
 0001:0002a0c0       ??$_Move@PAPAVMListener@Stack@Net@OpenHome@@PAPAV1234@@std@@YGPAPAVMListener@Stack@Net@OpenHome@@PAPAV1234@00U_Scalar_ptr_iterator_tag@0@@Z 0042b0c0 f i libohNetCore:Stack.obj
 0001:0002a110       ??$_Destroy_range@V?$allocator@PAVMListener@Stack@Net@OpenHome@@@std@@@std@@YGXPAPAVMListener@Stack@Net@OpenHome@@0AAV?$allocator@PAVMListener@Stack@Net@OpenHome@@@0@U_Scalar_ptr_iterator_tag@0@@Z 0042b110 f i libohNetCore:Stack.obj
 0001:0002a120       ??$_Uninitialized_move@PAPAVMListener@Stack@Net@OpenHome@@PAPAV1234@V?$allocator@PAVMListener@Stack@Net@OpenHome@@@std@@@std@@YGPAPAVMListener@Stack@Net@OpenHome@@PAPAV1234@00AAV?$allocator@PAVMListener@Stack@Net@OpenHome@@@0@@Z 0042b120 f i libohNetCore:Stack.obj
 0001:0002a170       ??$?0AAV?$_Tree_iterator@V?$_Tree_val@V?$_Tmap_traits@PAXPAXU?$less@PAX@std@@V?$allocator@U?$pair@QAXPAX@std@@@2@$0A@@std@@@std@@@std@@_N@?$pair@V?$_Tree_iterator@V?$_Tree_val@V?$_Tmap_traits@PAXPAXU?$less@PAX@std@@V?$allocator@U?$pair@QAXPAX@std@@@2@$0A@@std@@@std@@@std@@_N@std@@QAE@AAV?$_Tree_iterator@V?$_Tree_val@V?$_Tmap_traits@PAXPAXU?$less@PAX@std@@V?$allocator@U?$pair@QAXPAX@std@@@2@$0A@@std@@@std@@@1@$$QA_N@Z 0042b170 f i libohNetCore:Stack.obj
 0001:0002a1b0       ??$_Destroy@U?$pair@QAXPAX@std@@@std@@YGXPAU?$pair@QAXPAX@0@@Z 0042b1b0 f i libohNetCore:Stack.obj
 0001:0002a1c0       ??$_Construct@PAVMListener@Stack@Net@OpenHome@@ABQAV1234@@std@@YGXPAPAVMListener@Stack@Net@OpenHome@@ABQAV1234@@Z 0042b1c0 f i libohNetCore:Stack.obj
 0001:0002a270       ??$?0AAV?$_Tree_iterator@V?$_Tree_val@V?$_Tmap_traits@VBrn@OpenHome@@PAVObjectType@Stack@Net@2@VBufferCmp@2@V?$allocator@U?$pair@$$CBVBrn@OpenHome@@PAVObjectType@Stack@Net@2@@std@@@std@@$0A@@std@@@std@@@std@@_N@?$pair@V?$_Tree_iterator@V?$_Tree_val@V?$_Tmap_traits@VBrn@OpenHome@@PAVObjectType@Stack@Net@2@VBufferCmp@2@V?$allocator@U?$pair@$$CBVBrn@OpenHome@@PAVObjectType@Stack@Net@2@@std@@@std@@$0A@@std@@@std@@@std@@_N@std@@QAE@AAV?$_Tree_iterator@V?$_Tree_val@V?$_Tmap_traits@VBrn@OpenHome@@PAVObjectType@Stack@Net@2@VBufferCmp@2@V?$allocator@U?$pair@$$CBVBrn@OpenHome@@PAVObjectType@Stack@Net@2@@std@@@std@@$0A@@std@@@std@@@1@$$QA_N@Z 0042b270 f i libohNetCore:Stack.obj
 0001:0002a2b0       ??$_Destroy@U?$pair@$$CBVBrn@OpenHome@@PAVObjectType@Stack@Net@2@@std@@@std@@YGXPAU?$pair@$$CBVBrn@OpenHome@@PAVObjectType@Stack@Net@2@@0@@Z 0042b2b0 f i libohNetCore:Stack.obj
 0001:0002a2d0       ??$move@AAV?$_Tree_iterator@V?$_Tree_val@V?$_Tmap_traits@VBrn@OpenHome@@PAVObjectType@Stack@Net@2@VBufferCmp@2@V?$allocator@U?$pair@$$CBVBrn@OpenHome@@PAVObjectType@Stack@Net@2@@std@@@std@@$0A@@std@@@std@@@std@@@std@@YG$$QAV?$_Tree_iterator@V?$_Tree_val@V?$_Tmap_traits@VBrn@OpenHome@@PAVObjectType@Stack@Net@2@VBufferCmp@2@V?$allocator@U?$pair@$$CBVBrn@OpenHome@@PAVObjectType@Stack@Net@2@@std@@@std@@$0A@@std@@@std@@@0@AAV10@@Z 0042b2d0 f i libohNetCore:Stack.obj
 0001:0002a2e0       ??$move@AAV?$_Tree_iterator@V?$_Tree_val@V?$_Tmap_traits@PAXPAXU?$less@PAX@std@@V?$allocator@U?$pair@QAXPAX@std@@@2@$0A@@std@@@std@@@std@@@std@@YG$$QAV?$_Tree_iterator@V?$_Tree_val@V?$_Tmap_traits@PAXPAXU?$less@PAX@std@@V?$allocator@U?$pair@QAXPAX@std@@@2@$0A@@std@@@std@@@0@AAV10@@Z 0042b2e0 f i libohNetCore:Stack.obj
 0001:0002a2f0       ??_G?$pair@$$CBVBrn@OpenHome@@PAVObjectType@Stack@Net@2@@std@@QAEPAXI@Z 0042b2f0 f i libohNetCore:Stack.obj
 0001:0002a330       ??1?$pair@$$CBVBrn@OpenHome@@PAVObjectType@Stack@Net@2@@std@@QAE@XZ 0042b330 f i libohNetCore:Stack.obj
 0001:0002a360       ??1?$_Pair_base@$$CBVBrn@OpenHome@@PAVObjectType@Stack@Net@2@@std@@QAE@XZ 0042b360 f i libohNetCore:Stack.obj
 0001:0002a390       ?_Buynode@?$_Tree_val@V?$_Tmap_traits@PAXPAXU?$less@PAX@std@@V?$allocator@U?$pair@QAXPAX@std@@@2@$0A@@std@@@std@@QAEPAU_Node@?$_Tree_nod@V?$_Tmap_traits@PAXPAXU?$less@PAX@std@@V?$allocator@U?$pair@QAXPAX@std@@@2@$0A@@std@@@2@XZ 0042b390 f i libohNetCore:Stack.obj
 0001:0002a420       ?_Buynode@?$_Tree_val@V?$_Tmap_traits@VBrn@OpenHome@@PAVObjectType@Stack@Net@2@VBufferCmp@2@V?$allocator@U?$pair@$$CBVBrn@OpenHome@@PAVObjectType@Stack@Net@2@@std@@@std@@$0A@@std@@@std@@QAEPAU_Node@?$_Tree_nod@V?$_Tmap_traits@VBrn@OpenHome@@PAVObjectType@Stack@Net@2@VBufferCmp@2@V?$allocator@U?$pair@$$CBVBrn@OpenHome@@PAVObjectType@Stack@Net@2@@std@@@std@@$0A@@std@@@2@XZ 0042b420 f i libohNetCore:Stack.obj
 0001:0002a4b0       ??$_Cons_val@V?$allocator@U?$pair@$$CBVBrn@OpenHome@@PAVObjectType@Stack@Net@2@@std@@@std@@U?$pair@$$CBVBrn@OpenHome@@PAVObjectType@Stack@Net@2@@2@U?$pair@VBrn@OpenHome@@PAVObjectType@Stack@Net@2@@2@@std@@YGXAAV?$allocator@U?$pair@$$CBVBrn@OpenHome@@PAVObjectType@Stack@Net@2@@std@@@0@PAU?$pair@$$CBVBrn@OpenHome@@PAVObjectType@Stack@Net@2@@0@$$QAU?$pair@VBrn@OpenHome@@PAVObjectType@Stack@Net@2@@0@@Z 0042b4b0 f i libohNetCore:Stack.obj
 0001:0002a4e0       ??$_Cons_val@V?$allocator@U?$pair@QAXPAX@std@@@std@@U?$pair@QAXPAX@2@U?$pair@PAXPAX@2@@std@@YGXAAV?$allocator@U?$pair@QAXPAX@std@@@0@PAU?$pair@QAXPAX@0@$$QAU?$pair@PAXPAX@0@@Z 0042b4e0 f i libohNetCore:Stack.obj
 0001:0002a510       ??$_Val_type@PAPAVMListener@Stack@Net@OpenHome@@@std@@YGPAPAVMListener@Stack@Net@OpenHome@@PAPAV1234@@Z 0042b510 f i libohNetCore:Stack.obj
 0001:0002a520       ??$_Uninit_move@PAVMListener@Stack@Net@OpenHome@@PAV1234@PAV1234@@std@@YGPAPAVMListener@Stack@Net@OpenHome@@PAPAV1234@00AAV?$allocator@PAVMListener@Stack@Net@OpenHome@@@0@0U_Scalar_ptr_iterator_tag@0@@Z 0042b520 f i libohNetCore:Stack.obj
 0001:0002a590       ??$forward@AAV?$_Tree_iterator@V?$_Tree_val@V?$_Tmap_traits@PAXPAXU?$less@PAX@std@@V?$allocator@U?$pair@QAXPAX@std@@@2@$0A@@std@@@std@@@std@@@std@@YGAAV?$_Tree_iterator@V?$_Tree_val@V?$_Tmap_traits@PAXPAXU?$less@PAX@std@@V?$allocator@U?$pair@QAXPAX@std@@@2@$0A@@std@@@std@@@0@AAV10@@Z 0042b590 f i libohNetCore:Stack.obj
 0001:0002a5a0       ??$?0AAV?$_Tree_iterator@V?$_Tree_val@V?$_Tmap_traits@PAXPAXU?$less@PAX@std@@V?$allocator@U?$pair@QAXPAX@std@@@2@$0A@@std@@@std@@@std@@_N@?$_Pair_base@V?$_Tree_iterator@V?$_Tree_val@V?$_Tmap_traits@PAXPAXU?$less@PAX@std@@V?$allocator@U?$pair@QAXPAX@std@@@2@$0A@@std@@@std@@@std@@_N@std@@QAE@AAV?$_Tree_iterator@V?$_Tree_val@V?$_Tmap_traits@PAXPAXU?$less@PAX@std@@V?$allocator@U?$pair@QAXPAX@std@@@2@$0A@@std@@@std@@@1@$$QA_N@Z 0042b5a0 f i libohNetCore:Stack.obj
 0001:0002a620       ??$forward@AAV?$_Tree_iterator@V?$_Tree_val@V?$_Tmap_traits@VBrn@OpenHome@@PAVObjectType@Stack@Net@2@VBufferCmp@2@V?$allocator@U?$pair@$$CBVBrn@OpenHome@@PAVObjectType@Stack@Net@2@@std@@@std@@$0A@@std@@@std@@@std@@@std@@YGAAV?$_Tree_iterator@V?$_Tree_val@V?$_Tmap_traits@VBrn@OpenHome@@PAVObjectType@Stack@Net@2@VBufferCmp@2@V?$allocator@U?$pair@$$CBVBrn@OpenHome@@PAVObjectType@Stack@Net@2@@std@@@std@@$0A@@std@@@std@@@0@AAV10@@Z 0042b620 f i libohNetCore:Stack.obj
 0001:0002a630       ??$?0AAV?$_Tree_iterator@V?$_Tree_val@V?$_Tmap_traits@VBrn@OpenHome@@PAVObjectType@Stack@Net@2@VBufferCmp@2@V?$allocator@U?$pair@$$CBVBrn@OpenHome@@PAVObjectType@Stack@Net@2@@std@@@std@@$0A@@std@@@std@@@std@@_N@?$_Pair_base@V?$_Tree_iterator@V?$_Tree_val@V?$_Tmap_traits@VBrn@OpenHome@@PAVObjectType@Stack@Net@2@VBufferCmp@2@V?$allocator@U?$pair@$$CBVBrn@OpenHome@@PAVObjectType@Stack@Net@2@@std@@@std@@$0A@@std@@@std@@@std@@_N@std@@QAE@AAV?$_Tree_iterator@V?$_Tree_val@V?$_Tmap_traits@VBrn@OpenHome@@PAVObjectType@Stack@Net@2@VBufferCmp@2@V?$allocator@U?$pair@$$CBVBrn@OpenHome@@PAVObjectType@Stack@Net@2@@std@@@std@@$0A@@std@@@std@@@1@$$QA_N@Z 0042b630 f i libohNetCore:Stack.obj
 0001:0002a6b0       ??$construct@U?$pair@VBrn@OpenHome@@PAVObjectType@Stack@Net@2@@std@@@?$allocator@U?$pair@$$CBVBrn@OpenHome@@PAVObjectType@Stack@Net@2@@std@@@std@@QAEXPAU?$pair@$$CBVBrn@OpenHome@@PAVObjectType@Stack@Net@2@@1@$$QAU?$pair@VBrn@OpenHome@@PAVObjectType@Stack@Net@2@@1@@Z 0042b6b0 f i libohNetCore:Stack.obj
 0001:0002a750       ??$construct@U?$pair@PAXPAX@std@@@?$allocator@U?$pair@QAXPAX@std@@@std@@QAEXPAU?$pair@QAXPAX@1@$$QAU?$pair@PAXPAX@1@@Z 0042b750 f i libohNetCore:Stack.obj
 0001:0002a7f0       ??$_Debug_range@PAPAVMListener@Stack@Net@OpenHome@@@std@@YGXPAPAVMListener@Stack@Net@OpenHome@@0PB_WI@Z 0042b7f0 f i libohNetCore:Stack.obj
 0001:0002a840       ??$_Debug_pointer@PAVMListener@Stack@Net@OpenHome@@@std@@YGXPAPAVMListener@Stack@Net@OpenHome@@PB_WI@Z 0042b840 f i libohNetCore:Stack.obj
 0001:0002a870       ??$?0VBrn@OpenHome@@PAVObjectType@Stack@Net@1@@?$pair@$$CBVBrn@OpenHome@@PAVObjectType@Stack@Net@2@@std@@QAE@$$QAU?$pair@VBrn@OpenHome@@PAVObjectType@Stack@Net@2@@1@@Z 0042b870 f i libohNetCore:Stack.obj
 0001:0002a8b0       ??$?0PAXPAX@?$pair@QAXPAX@std@@QAE@$$QAU?$pair@PAXPAX@1@@Z 0042b8b0 f i libohNetCore:Stack.obj
 0001:0002a8f0       ??$_Iter_cat@PAPAVMListener@Stack@Net@OpenHome@@@std@@YG?AUrandom_access_iterator_tag@0@ABQAPAVMListener@Stack@Net@OpenHome@@@Z 0042b8f0 f i libohNetCore:Stack.obj
 0001:0002a950       ??$_Debug_range2@PAPAVMListener@Stack@Net@OpenHome@@@std@@YGXPAPAVMListener@Stack@Net@OpenHome@@0PB_WIUrandom_access_iterator_tag@0@@Z 0042b950 f i libohNetCore:Stack.obj
 0001:0002a9b0       ??$forward@VBrn@OpenHome@@@std@@YG$$QAVBrn@OpenHome@@AAV12@@Z 0042b9b0 f i libohNetCore:Stack.obj
 0001:0002a9c0       ??$forward@PAVObjectType@Stack@Net@OpenHome@@@std@@YG$$QAPAVObjectType@Stack@Net@OpenHome@@AAPAV1234@@Z 0042b9c0 f i libohNetCore:Stack.obj
 0001:0002a9d0       ??$?0VBrn@OpenHome@@PAVObjectType@Stack@Net@1@@?$_Pair_base@$$CBVBrn@OpenHome@@PAVObjectType@Stack@Net@2@@std@@QAE@$$QAVBrn@OpenHome@@$$QAPAVObjectType@Stack@Net@3@@Z 0042b9d0 f i libohNetCore:Stack.obj
 0001:0002aa50       ??$forward@PAX@std@@YG$$QAPAXAAPAX@Z 0042ba50 f i libohNetCore:Stack.obj
 0001:0002aa60       ??$?0PAXPAX@?$_Pair_base@QAXPAX@std@@QAE@$$QAPAX0@Z 0042ba60 f i libohNetCore:Stack.obj
 0001:0002aac0       _OsCreate@0                0042bac0 f   libohNetCore:Os.obj
 0001:0002ac90       _OsDestroy@0               0042bc90 f   libohNetCore:Os.obj
 0001:0002ada0       _OsQuit@0                  0042bda0 f   libohNetCore:Os.obj
 0001:0002adc0       _OsTimeInUs@0              0042bdc0 f   libohNetCore:Os.obj
 0001:0002aea0       _OsConsoleWrite@4          0042bea0 f   libohNetCore:Os.obj
 0001:0002aee0       _OsGetPlatformNameAndVersion@12 0042bee0 f   libohNetCore:Os.obj
 0001:0002afb0       _OsSemaphoreCreate@8       0042bfb0 f   libohNetCore:Os.obj
 0001:0002aff0       _OsSemaphoreDestroy@4      0042bff0 f   libohNetCore:Os.obj
 0001:0002b020       _OsSemaphoreWait@4         0042c020 f   libohNetCore:Os.obj
 0001:0002b060       _OsSemaphoreTimedWait@8    0042c060 f   libohNetCore:Os.obj
 0001:0002b0c0       _OsSemaphoreClear@4        0042c0c0 f   libohNetCore:Os.obj
 0001:0002b110       _OsSemaphoreSignal@4       0042c110 f   libohNetCore:Os.obj
 0001:0002b160       _OsMutexCreate@4           0042c160 f   libohNetCore:Os.obj
 0001:0002b1c0       _OsMutexDestroy@4          0042c1c0 f   libohNetCore:Os.obj
 0001:0002b210       _OsMutexLock@4             0042c210 f   libohNetCore:Os.obj
 0001:0002b280       _OsMutexUnlock@4           0042c280 f   libohNetCore:Os.obj
 0001:0002b2e0       _threadEntrypoint@4        0042c2e0 f   libohNetCore:Os.obj
 0001:0002b3e0       _OsThreadCreate@20         0042c3e0 f   libohNetCore:Os.obj
 0001:0002b4c0       _OsThreadTls@0             0042c4c0 f   libohNetCore:Os.obj
 0001:0002b4f0       _OsThreadDestroy@4         0042c4f0 f   libohNetCore:Os.obj
 0001:0002b510       _OsThreadSupportsPriorities@0 0042c510 f   libohNetCore:Os.obj
 0001:0002b520       _OsNetworkCreate@4         0042c520 f   libohNetCore:Os.obj
 0001:0002b620       _OsNetworkBind@12          0042c620 f   libohNetCore:Os.obj
 0001:0002b720       _OsNetworkPort@8           0042c720 f   libohNetCore:Os.obj
 0001:0002b7f0       _OsNetworkConnect@16       0042c7f0 f   libohNetCore:Os.obj
 0001:0002ba80       _OsNetworkSend@12          0042ca80 f   libohNetCore:Os.obj
 0001:0002bb20       _OsNetworkSendTo@20        0042cb20 f   libohNetCore:Os.obj
 0001:0002bc10       _OsNetworkReceive@12       0042cc10 f   libohNetCore:Os.obj
 0001:0002bda0       _OsNetworkReceiveFrom@20   0042cda0 f   libohNetCore:Os.obj
 0001:0002bfa0       _OsNetworkInterrupt@8      0042cfa0 f   libohNetCore:Os.obj
 0001:0002c030       _OsNetworkClose@4          0042d030 f   libohNetCore:Os.obj
 0001:0002c0a0       _OsNetworkListen@8         0042d0a0 f   libohNetCore:Os.obj
 0001:0002c100       _OsNetworkAccept@4         0042d100 f   libohNetCore:Os.obj
 0001:0002c2a0       _OsNetworkGetHostByName@8  0042d2a0 f   libohNetCore:Os.obj
 0001:0002c310       _OsNetworkSocketSetSendBufBytes@8 0042d310 f   libohNetCore:Os.obj
 0001:0002c370       _OsNetworkSocketSetRecvBufBytes@8 0042d370 f   libohNetCore:Os.obj
 0001:0002c3d0       _OsNetworkSocketSetReceiveTimeout@8 0042d3d0 f   libohNetCore:Os.obj
 0001:0002c480       _OsNetworkTcpSetNoDelay@4  0042d480 f   libohNetCore:Os.obj
 0001:0002c510       _OsNetworkSocketSetReuseAddress@4 0042d510 f   libohNetCore:Os.obj
 0001:0002c5b0       _OsNetworkSocketSetMulticastTtl@8 0042d5b0 f   libohNetCore:Os.obj
 0001:0002c610       _OsNetworkSocketMulticastAddMembership@12 0042d610 f   libohNetCore:Os.obj
 0001:0002c6f0       _OsNetworkSocketMulticastDropMembership@12 0042d6f0 f   libohNetCore:Os.obj
 0001:0002c790       _OsNetworkListAdapters@8   0042d790 f   libohNetCore:Os.obj
 0001:0002cbb0       _OsNetworkFreeInterfaces@4 0042dbb0 f   libohNetCore:Os.obj
 0001:0002cc00       _interfaceChangeThread@4   0042dc00 f   libohNetCore:Os.obj
 0001:0002cd60       _OsNetworkSetInterfaceChangedObserver@8 0042dd60 f   libohNetCore:Os.obj
 0001:0002ce80       _OsNetworkSetTestInterfaceIndex@4 0042de80 f   libohNetCore:Os.obj
 0001:0002cec0       ?hexChar@@YGDE@Z           0042dec0 f   libohNetCore:Printer.obj
 0001:0002cf00       ?RegisterOutput@Log@OpenHome@@SGXAAVFunctorMsg@2@@Z 0042df00 f   libohNetCore:Printer.obj
 0001:0002cf30       ?Print@Log@OpenHome@@SGHABVBrx@2@@Z 0042df30 f   libohNetCore:Printer.obj
 0001:0002cf50       ?PrintHex@Log@OpenHome@@SGHABVBrx@2@@Z 0042df50 f   libohNetCore:Printer.obj
 0001:0002cf70       ?Print@Log@OpenHome@@SAHPBDZZ 0042df70 f   libohNetCore:Printer.obj
 0001:0002cfc0       ?Print@Log@OpenHome@@SGHPBDPAD@Z 0042dfc0 f   libohNetCore:Printer.obj
 0001:0002cfe0       ?PrintHex@Log@OpenHome@@SGHAAVFunctorMsg@2@ABVBrx@2@@Z 0042dfe0 f   libohNetCore:Printer.obj
 0001:0002d340       ?Print@Log@OpenHome@@SGHAAVFunctorMsg@2@ABVBrx@2@@Z 0042e340 f   libohNetCore:Printer.obj
 0001:0002d4d0       ?Print@Log@OpenHome@@SGHAAVFunctorMsg@2@PBDPAD@Z 0042e4d0 f   libohNetCore:Printer.obj
 0001:0002d620       ?DoPrint@Log@OpenHome@@CGHAAVFunctorMsg@2@PBE@Z 0042e620 f   libohNetCore:Printer.obj
 0001:0002d660       ??1?$Bws@$0EAB@@OpenHome@@UAE@XZ 0042e660 f i libohNetCore:Printer.obj
 0001:0002d690       ??0?$Bws@$0EAB@@OpenHome@@QAE@I@Z 0042e690 f i libohNetCore:Printer.obj
 0001:0002d6d0       ?Ptr@?$Bws@$0EAB@@OpenHome@@UBEPBEXZ 0042e6d0 f i libohNetCore:Printer.obj
 0001:0002d6f0       ??_E?$Bws@$0EAB@@OpenHome@@UAEPAXI@Z 0042e6f0 f i libohNetCore:Printer.obj
 0001:0002d6f0       ??_G?$Bws@$0EAB@@OpenHome@@UAEPAXI@Z 0042e6f0 f i libohNetCore:Printer.obj
 0001:0002d730       ?Now@Time@OpenHome@@SGIXZ  0042e730 f   libohNetCore:Timer.obj
 0001:0002d750       ?IsBeforeOrAt@Time@OpenHome@@SG_NII@Z 0042e750 f   libohNetCore:Timer.obj
 0001:0002d780       ?IsAfter@Time@OpenHome@@SG_NII@Z 0042e780 f   libohNetCore:Timer.obj
 0001:0002d7b0       ?IsInPastOrNow@Time@OpenHome@@SG_NI@Z 0042e7b0 f   libohNetCore:Timer.obj
 0001:0002d7d0       ?IsInFuture@Time@OpenHome@@SG_NI@Z 0042e7d0 f   libohNetCore:Timer.obj
 0001:0002d7f0       ?TimeToWaitFor@Time@OpenHome@@SGHI@Z 0042e7f0 f   libohNetCore:Timer.obj
 0001:0002d810       ??0Timer@OpenHome@@QAE@VFunctor@1@@Z 0042e810 f   libohNetCore:Timer.obj
 0001:0002d860       ?FireIn@Timer@OpenHome@@QAEXI@Z 0042e860 f   libohNetCore:Timer.obj
 0001:0002d8d0       ?FireAt@Timer@OpenHome@@QAEXI@Z 0042e8d0 f   libohNetCore:Timer.obj
 0001:0002d960       ?Cancel@Timer@OpenHome@@QAEXXZ 0042e960 f   libohNetCore:Timer.obj
 0001:0002d9b0       ?DoCancel@Timer@OpenHome@@AAEXXZ 0042e9b0 f   libohNetCore:Timer.obj
 0001:0002da20       ??1Timer@OpenHome@@QAE@XZ  0042ea20 f   libohNetCore:Timer.obj
 0001:0002daa0       ??0TimerManager@OpenHome@@QAE@XZ 0042eaa0 f   libohNetCore:Timer.obj
 0001:0002dc90       ??1TimerManager@OpenHome@@UAE@XZ 0042ec90 f   libohNetCore:Timer.obj
 0001:0002ddd0       ?Stop@TimerManager@OpenHome@@QAEXXZ 0042edd0 f   libohNetCore:Timer.obj
 0001:0002deb0       ?CallbackLock@TimerManager@OpenHome@@QAEXXZ 0042eeb0 f   libohNetCore:Timer.obj
 0001:0002dee0       ?CallbackUnlock@TimerManager@OpenHome@@QAEXXZ 0042eee0 f   libohNetCore:Timer.obj
 0001:0002df10       ?HeadChanged@TimerManager@OpenHome@@EAEXAAVQueueSortedEntry@2@@Z 0042ef10 f   libohNetCore:Timer.obj
 0001:0002e030       ?Fire@TimerManager@OpenHome@@AAEXXZ 0042f030 f   libohNetCore:Timer.obj
 0001:0002e130       ?Thread@TimerManager@OpenHome@@ABEPAV02@XZ 0042f130 f   libohNetCore:Timer.obj
 0001:0002e150       ?Compare@TimerManager@OpenHome@@EAEHAAVQueueSortedEntry@2@0@Z 0042f150 f   libohNetCore:Timer.obj
 0001:0002e1a0       ?Run@TimerManager@OpenHome@@AAEXXZ 0042f1a0 f   libohNetCore:Timer.obj
 0001:0002e2b0       ??0QueueSortedEntryTimer@OpenHome@@QAE@XZ 0042f2b0 f i libohNetCore:Timer.obj
 0001:0002e2e0       ??_ETimerManager@OpenHome@@UAEPAXI@Z 0042f2e0 f i libohNetCore:Timer.obj
 0001:0002e2e0       ??_GTimerManager@OpenHome@@UAEPAXI@Z 0042f2e0 f i libohNetCore:Timer.obj
 0001:0002e320       ??0?$QueueSorted@VTimer@OpenHome@@@OpenHome@@QAE@XZ 0042f320 f i libohNetCore:Timer.obj
 0001:0002e350       ??1?$QueueSorted@VTimer@OpenHome@@@OpenHome@@UAE@XZ 0042f350 f i libohNetCore:Timer.obj
 0001:0002e380       ??_G?$QueueSorted@VTimer@OpenHome@@@OpenHome@@UAEPAXI@Z 0042f380 f i libohNetCore:Timer.obj
 0001:0002e380       ??_E?$QueueSorted@VTimer@OpenHome@@@OpenHome@@UAEPAXI@Z 0042f380 f i libohNetCore:Timer.obj
 0001:0002e3c0       ?Add@?$QueueSorted@VTimer@OpenHome@@@OpenHome@@QAEXAAVTimer@2@@Z 0042f3c0 f i libohNetCore:Timer.obj
 0001:0002e3f0       ?Remove@?$QueueSorted@VTimer@OpenHome@@@OpenHome@@QAEXAAVTimer@2@@Z 0042f3f0 f i libohNetCore:Timer.obj
 0001:0002e420       ?RemoveHead@?$QueueSorted@VTimer@OpenHome@@@OpenHome@@QAEAAVTimer@2@XZ 0042f420 f i libohNetCore:Timer.obj
 0001:0002e450       ?Entry@?$QueueSorted@VTimer@OpenHome@@@OpenHome@@IAEAAVTimer@2@AAVQueueSortedEntry@2@@Z 0042f450 f i libohNetCore:Timer.obj
 0001:0002e470       ??$MakeFunctor@VTimerManager@OpenHome@@XV12@@OpenHome@@YG?AV?$MemberTranslator@VTimerManager@OpenHome@@P812@AEXXZ@0@AAVTimerManager@0@ABQ820@AEXXZ@Z 0042f470 f i libohNetCore:Timer.obj
 0001:0002e4a0       ??0?$MemberTranslator@VTimerManager@OpenHome@@P812@AEXXZ@OpenHome@@QAE@AAVTimerManager@1@ABQ821@AEXXZ@Z 0042f4a0 f i libohNetCore:Timer.obj
 0001:0002e4e0       ?Thunk@?$MemberTranslator@VTimerManager@OpenHome@@P812@AEXXZ@OpenHome@@SGXABVFunctor@2@@Z 0042f4e0 f i libohNetCore:Timer.obj
 0001:0002e530       ?IsHex@Ascii@OpenHome@@SG_ND@Z 0042f530 f   libohNetCore:Ascii.obj
 0001:0002e590       ?IsDigit@Ascii@OpenHome@@SG_ND@Z 0042f590 f   libohNetCore:Ascii.obj
 0001:0002e5d0       ?IsWhitespace@Ascii@OpenHome@@SG_ND@Z 0042f5d0 f   libohNetCore:Ascii.obj
 0001:0002e5f0       ?IsLineEnding@Ascii@OpenHome@@SG_ND@Z 0042f5f0 f   libohNetCore:Ascii.obj
 0001:0002e630       ?IsAlphabetic@Ascii@OpenHome@@SG_ND@Z 0042f630 f   libohNetCore:Ascii.obj
 0001:0002e680       ?IsUpperCase@Ascii@OpenHome@@SG_ND@Z 0042f680 f   libohNetCore:Ascii.obj
 0001:0002e6c0       ?IsLowerCase@Ascii@OpenHome@@SG_ND@Z 0042f6c0 f   libohNetCore:Ascii.obj
 0001:0002e700       ?ToLowerCase@Ascii@OpenHome@@SGDD@Z 0042f700 f   libohNetCore:Ascii.obj
 0001:0002e750       ?ToUpperCase@Ascii@OpenHome@@SGDD@Z 0042f750 f   libohNetCore:Ascii.obj
 0001:0002e7a0       ?CaseInsensitiveEquals@Ascii@OpenHome@@SG_NDD@Z 0042f7a0 f   libohNetCore:Ascii.obj
 0001:0002e7f0       ?CaseInsensitiveEquals@Ascii@OpenHome@@SG_NABVBrx@2@0@Z 0042f7f0 f   libohNetCore:Ascii.obj
 0001:0002e880       ?RemoveTheFromStart@Ascii@OpenHome@@SG_NABVBrx@2@AAVBwx@2@@Z 0042f880 f   libohNetCore:Ascii.obj
 0001:0002e9c0       ?HexChar@Ascii@OpenHome@@SGDI@Z 0042f9c0 f   libohNetCore:Ascii.obj
 0001:0002ea90       ?HexValue@Ascii@OpenHome@@SGID@Z 0042fa90 f   libohNetCore:Ascii.obj
 0001:0002eb90       ?DecChar@Ascii@OpenHome@@SGDI@Z 0042fb90 f   libohNetCore:Ascii.obj
 0001:0002ec50       ?DecValue@Ascii@OpenHome@@SGID@Z 0042fc50 f   libohNetCore:Ascii.obj
 0001:0002ed20       ?AppendDec@Ascii@OpenHome@@SGIAAVBwx@2@E@Z 0042fd20 f   libohNetCore:Ascii.obj
 0001:0002ed40       ?AppendDec@Ascii@OpenHome@@SGIAAVBwx@2@C@Z 0042fd40 f   libohNetCore:Ascii.obj
 0001:0002ed60       ?AppendDec@Ascii@OpenHome@@SGIAAVBwx@2@H@Z 0042fd60 f   libohNetCore:Ascii.obj
 0001:0002eee0       ?AppendDec@Ascii@OpenHome@@SGIAAVBwx@2@I@Z 0042fee0 f   libohNetCore:Ascii.obj
 0001:0002f040       ?AppendDec@Ascii@OpenHome@@SGIAAVBwx@2@_J@Z 00430040 f   libohNetCore:Ascii.obj
 0001:0002f1f0       ?AppendDec@Ascii@OpenHome@@SGIAAVBwx@2@_K@Z 004301f0 f   libohNetCore:Ascii.obj
 0001:0002f360       ?AppendHex@Ascii@OpenHome@@SGIAAVBwx@2@I@Z 00430360 f   libohNetCore:Ascii.obj
 0001:0002f400       ?AppendHex@Ascii@OpenHome@@SGIAAVBwx@2@E@Z 00430400 f   libohNetCore:Ascii.obj
 0001:0002f450       ?AppendHexPrefix@Ascii@OpenHome@@SGIAAVBwx@2@@Z 00430450 f   libohNetCore:Ascii.obj
 0001:0002f470       ?Contains@Ascii@OpenHome@@SG_NABVBrx@2@D@Z 00430470 f   libohNetCore:Ascii.obj
 0001:0002f4d0       ?ContainsWhitespace@Ascii@OpenHome@@SG_NABVBrx@2@@Z 004304d0 f   libohNetCore:Ascii.obj
 0001:0002f530       ?IndexOf@Ascii@OpenHome@@SGIABVBrx@2@D@Z 00430530 f   libohNetCore:Ascii.obj
 0001:0002f5c0       ?Substitute@Ascii@OpenHome@@SGXAAVBwx@2@DD@Z 004305c0 f   libohNetCore:Ascii.obj
 0001:0002f650       ?Trim@Ascii@OpenHome@@SG?AVBrn@2@ABVBrx@2@@Z 00430650 f   libohNetCore:Ascii.obj
 0001:0002f750       ?Int@Ascii@OpenHome@@SGHABVBrx@2@@Z 00430750 f   libohNetCore:Ascii.obj
 0001:0002f9d0       ?Uint@Ascii@OpenHome@@SGIABVBrx@2@@Z 004309d0 f   libohNetCore:Ascii.obj
 0001:0002fb90       ?Int64@Ascii@OpenHome@@SG_JABVBrx@2@@Z 00430b90 f   libohNetCore:Ascii.obj
 0001:0002fe60       ?Uint64@Ascii@OpenHome@@SG_KABVBrx@2@@Z 00430e60 f   libohNetCore:Ascii.obj
 0001:00030040       ?UintHex@Ascii@OpenHome@@SGIABVBrx@2@@Z 00431040 f   libohNetCore:Ascii.obj
 0001:00030200       ??0ReaderAscii@OpenHome@@QAE@AAVIReader@1@@Z 00431200 f   libohNetCore:Ascii.obj
 0001:00030280       ?ReadInt@ReaderAscii@OpenHome@@QAEHE@Z 00431280 f   libohNetCore:Ascii.obj
 0001:00030340       ?ReadUint@ReaderAscii@OpenHome@@QAEIE@Z 00431340 f   libohNetCore:Ascii.obj
 0001:00030400       ?Read@ReaderAscii@OpenHome@@UAE?AVBrn@2@I@Z 00431400 f   libohNetCore:Ascii.obj
 0001:00030460       ?ReadUntil@ReaderAscii@OpenHome@@UAE?AVBrn@2@E@Z 00431460 f   libohNetCore:Ascii.obj
 0001:000304d0       ??0WriterAscii@OpenHome@@QAE@AAVIWriter@1@@Z 004314d0 f   libohNetCore:Ascii.obj
 0001:00030550       ?WriteSpace@WriterAscii@OpenHome@@UAEXXZ 00431550 f   libohNetCore:Ascii.obj
 0001:00030590       ?WriteNewline@WriterAscii@OpenHome@@UAEXXZ 00431590 f   libohNetCore:Ascii.obj
 0001:000305d0       ?WriteTab@WriterAscii@OpenHome@@UAEXXZ 004315d0 f   libohNetCore:Ascii.obj
 0001:00030610       ?WriteInt@WriterAscii@OpenHome@@UAEXH@Z 00431610 f   libohNetCore:Ascii.obj
 0001:000306f0       ?WriteIntPadded@WriterAscii@OpenHome@@UAEXH@Z 004316f0 f   libohNetCore:Ascii.obj
 0001:000307f0       ?WriteUint@WriterAscii@OpenHome@@UAEXI@Z 004317f0 f   libohNetCore:Ascii.obj
 0001:000308d0       ?WriteUintPadded@WriterAscii@OpenHome@@UAEXI@Z 004318d0 f   libohNetCore:Ascii.obj
 0001:000309d0       ?WriteInt64@WriterAscii@OpenHome@@UAEX_J@Z 004319d0 f   libohNetCore:Ascii.obj
 0001:00030ab0       ?WriteUint64@WriterAscii@OpenHome@@UAEX_K@Z 00431ab0 f   libohNetCore:Ascii.obj
 0001:00030b90       ?WriteHex@WriterAscii@OpenHome@@UAEXI@Z 00431b90 f   libohNetCore:Ascii.obj
 0001:00030c80       ?WriteHex@WriterAscii@OpenHome@@UAEXE@Z 00431c80 f   libohNetCore:Ascii.obj
 0001:00030d70       ?WriteHexPrefix@WriterAscii@OpenHome@@UAEXXZ 00431d70 f   libohNetCore:Ascii.obj
 0001:00030db0       ?Write@WriterAscii@OpenHome@@UAEXE@Z 00431db0 f   libohNetCore:Ascii.obj
 0001:00030e00       ?Write@WriterAscii@OpenHome@@UAEXABVBrx@2@@Z 00431e00 f   libohNetCore:Ascii.obj
 0001:00030e40       ?WriteFlush@WriterAscii@OpenHome@@UAEXXZ 00431e40 f   libohNetCore:Ascii.obj
 0001:00030e80       ?StreamWriteUint@Ascii@OpenHome@@SGXAAVIWriter@2@I@Z 00431e80 f   libohNetCore:Ascii.obj
 0001:00030f60       ?StreamWriteInt@Ascii@OpenHome@@SGXAAVIWriter@2@H@Z 00431f60 f   libohNetCore:Ascii.obj
 0001:00031040       ??0AsciiError@OpenHome@@QAE@PBDI@Z 00432040 f i libohNetCore:Ascii.obj
 0001:00031080       ??1AsciiError@OpenHome@@QAE@XZ 00432080 f i libohNetCore:Ascii.obj
 0001:000310b0       ?Append@Bwx@OpenHome@@QAEXE@Z 004320b0 f i libohNetCore:Ascii.obj
 0001:000310e0       ??1?$Bws@$0BE@@OpenHome@@UAE@XZ 004320e0 f i libohNetCore:Ascii.obj
 0001:00031110       ??_GReaderAscii@OpenHome@@UAEPAXI@Z 00432110 f i libohNetCore:Ascii.obj
 0001:00031110       ??_EReaderAscii@OpenHome@@UAEPAXI@Z 00432110 f i libohNetCore:Ascii.obj
 0001:00031150       ??0IReader@OpenHome@@QAE@XZ 00432150 f i libohNetCore:Ascii.obj
 0001:00031170       ??1ReaderAscii@OpenHome@@UAE@XZ 00432170 f i libohNetCore:Ascii.obj
 0001:000311a0       ??_EWriterAscii@OpenHome@@UAEPAXI@Z 004321a0 f i libohNetCore:Ascii.obj
 0001:000311a0       ??_GWriterAscii@OpenHome@@UAEPAXI@Z 004321a0 f i libohNetCore:Ascii.obj
 0001:000311e0       ??0IWriterAscii@OpenHome@@QAE@XZ 004321e0 f i libohNetCore:Ascii.obj
 0001:00031210       ??1?$Bws@$07@OpenHome@@UAE@XZ 00432210 f i libohNetCore:Ascii.obj
 0001:00031240       ??1?$Bws@$01@OpenHome@@UAE@XZ 00432240 f i libohNetCore:Ascii.obj
 0001:00031270       ??0?$Bws@$0BE@@OpenHome@@QAE@XZ 00432270 f i libohNetCore:Ascii.obj
 0001:000312b0       ?Ptr@?$Bws@$0BE@@OpenHome@@UBEPBEXZ 004322b0 f i libohNetCore:Ascii.obj
 0001:000312d0       ??0?$Bws@$0L@@OpenHome@@QAE@XZ 004322d0 f i libohNetCore:Ascii.obj
 0001:00031310       ??0?$Bws@$07@OpenHome@@QAE@XZ 00432310 f i libohNetCore:Ascii.obj
 0001:00031350       ?Ptr@?$Bws@$07@OpenHome@@UBEPBEXZ 00432350 f i libohNetCore:Ascii.obj
 0001:00031370       ??0?$Bws@$01@OpenHome@@QAE@XZ 00432370 f i libohNetCore:Ascii.obj
 0001:000313b0       ?Ptr@?$Bws@$01@OpenHome@@UBEPBEXZ 004323b0 f i libohNetCore:Ascii.obj
 0001:000313d0       ??_G?$Bws@$0BE@@OpenHome@@UAEPAXI@Z 004323d0 f i libohNetCore:Ascii.obj
 0001:000313d0       ??_E?$Bws@$0BE@@OpenHome@@UAEPAXI@Z 004323d0 f i libohNetCore:Ascii.obj
 0001:00031410       ??_E?$Bws@$07@OpenHome@@UAEPAXI@Z 00432410 f i libohNetCore:Ascii.obj
 0001:00031410       ??_G?$Bws@$07@OpenHome@@UAEPAXI@Z 00432410 f i libohNetCore:Ascii.obj
 0001:00031450       ??_G?$Bws@$01@OpenHome@@UAEPAXI@Z 00432450 f i libohNetCore:Ascii.obj
 0001:00031450       ??_E?$Bws@$01@OpenHome@@UAEPAXI@Z 00432450 f i libohNetCore:Ascii.obj
 0001:00031490       ?Version@Http@OpenHome@@SG?AW4EVersion@12@ABVBrx@2@@Z 00432490 f   libohNetCore:Http.obj
 0001:000315b0       ?Version@Http@OpenHome@@SGABVBrx@2@W4EVersion@12@@Z 004325b0 f   libohNetCore:Http.obj
 0001:00031630       ?WriteHeaderRangeFirstOnly@Http@OpenHome@@SGXAAVWriterHttpHeader@2@_K@Z 00432630 f   libohNetCore:Http.obj
 0001:00031730       ?WriteHeaderRange@Http@OpenHome@@SGXAAVWriterHttpHeader@2@_K1@Z 00432730 f   libohNetCore:Http.obj
 0001:00031840       ?WriteHeaderHost@Http@OpenHome@@SGXAAVWriterHttpHeader@2@ABVUri@2@@Z 00432840 f   libohNetCore:Http.obj
 0001:00031880       ?WriteHeaderHostAndPort@Http@OpenHome@@SGXAAVWriterHttpHeader@2@ABVUri@2@@Z 00432880 f   libohNetCore:Http.obj
 0001:00031930       ?WriteHeaderContentLength@Http@OpenHome@@SGXAAVWriterHttpHeader@2@I@Z 00432930 f   libohNetCore:Http.obj
 0001:00031a20       ?WriteHeaderContentType@Http@OpenHome@@SGXAAVWriterHttpHeader@2@ABVBrx@2@@Z 00432a20 f   libohNetCore:Http.obj
 0001:00031a50       ?WriteHeaderConnectionClose@Http@OpenHome@@SGXAAVWriterHttpHeader@2@@Z 00432a50 f   libohNetCore:Http.obj
 0001:00031a80       ?Code@HttpStatus@OpenHome@@QBEIXZ 00432a80 f   libohNetCore:Http.obj
 0001:00031aa0       ?Reason@HttpStatus@OpenHome@@QBEABVBrx@2@XZ 00432aa0 f   libohNetCore:Http.obj
 0001:00031ac0       ??8HttpStatus@OpenHome@@QBE_NABV01@@Z 00432ac0 f   libohNetCore:Http.obj
 0001:00031af0       ??9HttpStatus@OpenHome@@QBE_NABV01@@Z 00432af0 f   libohNetCore:Http.obj
 0001:00031b20       ??0HttpStatus@OpenHome@@IAE@IVBrn@1@@Z 00432b20 f   libohNetCore:Http.obj
 0001:00031ba0       ??0ReaderHttpHeader@OpenHome@@IAE@XZ 00432ba0 f   libohNetCore:Http.obj
 0001:00031bd0       ?AddHeader@ReaderHttpHeader@OpenHome@@QAEXAAVIHttpHeader@2@@Z 00432bd0 f   libohNetCore:Http.obj
 0001:00031c00       ?Header@ReaderHttpHeader@OpenHome@@QBEAAVIHttpHeader@2@XZ 00432c00 f   libohNetCore:Http.obj
 0001:00031c40       ?ResetHeaders@ReaderHttpHeader@OpenHome@@IAEXXZ 00432c40 f   libohNetCore:Http.obj
 0001:00031cd0       ?ProcessHeader@ReaderHttpHeader@OpenHome@@IAEXABVBrx@2@0@Z 00432cd0 f   libohNetCore:Http.obj
 0001:00031d80       ??0ReaderHttpRequest@OpenHome@@QAE@AAVIReader@1@@Z 00432d80 f   libohNetCore:Http.obj
 0001:00031e10       ?Read@ReaderHttpRequest@OpenHome@@QAEXXZ 00432e10 f   libohNetCore:Http.obj
 0001:00032220       ?AddMethod@ReaderHttpRequest@OpenHome@@QAEXABVBrx@2@@Z 00433220 f   libohNetCore:Http.obj
 0001:00032250       ?MethodNotAllowed@ReaderHttpRequest@OpenHome@@QBE_NXZ 00433250 f   libohNetCore:Http.obj
 0001:00032270       ?Method@ReaderHttpRequest@OpenHome@@QBEABVBrx@2@XZ 00433270 f   libohNetCore:Http.obj
 0001:000322b0       ?Uri@ReaderHttpRequest@OpenHome@@QBEABVBrx@2@XZ 004332b0 f   libohNetCore:Http.obj
 0001:000322d0       ?Version@ReaderHttpRequest@OpenHome@@QBE?AW4EVersion@Http@2@XZ 004332d0 f   libohNetCore:Http.obj
 0001:000322f0       ?ProcessMethod@ReaderHttpRequest@OpenHome@@IAEXABVBrx@2@00@Z 004332f0 f   libohNetCore:Http.obj
 0001:000324f0       ?Flush@ReaderHttpRequest@OpenHome@@QAEXXZ 004334f0 f   libohNetCore:Http.obj
 0001:00032530       ?Interrupt@ReaderHttpRequest@OpenHome@@QAEXXZ 00433530 f   libohNetCore:Http.obj
 0001:00032570       ??0ReaderHttpResponse@OpenHome@@QAE@AAVIReader@1@@Z 00433570 f   libohNetCore:Http.obj
 0001:00032600       ?Version@ReaderHttpResponse@OpenHome@@QBE?AW4EVersion@Http@2@XZ 00433600 f   libohNetCore:Http.obj
 0001:00032620       ?Status@ReaderHttpResponse@OpenHome@@QBEABVHttpStatus@2@XZ 00433620 f   libohNetCore:Http.obj
 0001:00032640       ?Read@ReaderHttpResponse@OpenHome@@QAEXXZ 00433640 f   libohNetCore:Http.obj
 0001:00032a60       ?ProcessStatus@ReaderHttpResponse@OpenHome@@MAEXABVBrx@2@00@Z 00433a60 f   libohNetCore:Http.obj
 0001:00032c20       ?Flush@ReaderHttpResponse@OpenHome@@QAEXXZ 00433c20 f   libohNetCore:Http.obj
 0001:00032c60       ?Interrupt@ReaderHttpResponse@OpenHome@@QAEXXZ 00433c60 f   libohNetCore:Http.obj
 0001:00032ca0       ??0StatusWritable@ReaderHttpResponse@OpenHome@@QAE@XZ 00433ca0 f   libohNetCore:Http.obj
 0001:00032cf0       ?Set@StatusWritable@ReaderHttpResponse@OpenHome@@QAEXIABVBrx@3@@Z 00433cf0 f   libohNetCore:Http.obj
 0001:00032d30       ??0WriterHttpField@OpenHome@@QAE@AAVIWriter@1@@Z 00433d30 f   libohNetCore:Http.obj
 0001:00032d70       ?Write@WriterHttpField@OpenHome@@UAEXE@Z 00433d70 f   libohNetCore:Http.obj
 0001:00032e20       ?Write@WriterHttpField@OpenHome@@UAEXABVBrx@2@@Z 00433e20 f   libohNetCore:Http.obj
 0001:00032e70       ?WriteFlush@WriterHttpField@OpenHome@@UAEXXZ 00433e70 f   libohNetCore:Http.obj
 0001:00032ea0       ?Flush@WriterHttpField@OpenHome@@AAEXXZ 00433ea0 f   libohNetCore:Http.obj
 0001:00032ed0       ??0WriterHttpHeader@OpenHome@@IAE@AAVIWriter@1@@Z 00433ed0 f   libohNetCore:Http.obj
 0001:00032f50       ?Write@WriterHttpHeader@OpenHome@@UAEXE@Z 00433f50 f   libohNetCore:Http.obj
 0001:00032f80       ?Write@WriterHttpHeader@OpenHome@@UAEXABVBrx@2@@Z 00433f80 f   libohNetCore:Http.obj
 0001:00032fb0       ?WriteFlush@WriterHttpHeader@OpenHome@@UAEXXZ 00433fb0 f   libohNetCore:Http.obj
 0001:00033020       ?WriteHeader@WriterHttpHeader@OpenHome@@UAEXABVBrx@2@0@Z 00434020 f   libohNetCore:Http.obj
 0001:000330d0       ?WriteHeaderField@WriterHttpHeader@OpenHome@@UAEAAVIWriterAscii@2@ABVBrx@2@@Z 004340d0 f   libohNetCore:Http.obj
 0001:00033150       ??0WriterHttpRequest@OpenHome@@QAE@AAVIWriter@1@@Z 00434150 f   libohNetCore:Http.obj
 0001:000331a0       ?WriteMethod@WriterHttpRequest@OpenHome@@UAEXABVBrx@2@0W4EVersion@Http@2@@Z 004341a0 f   libohNetCore:Http.obj
 0001:00033290       ??0WriterHttpResponse@OpenHome@@QAE@AAVIWriter@1@@Z 00434290 f   libohNetCore:Http.obj
 0001:000332e0       ?WriteStatus@WriterHttpResponse@OpenHome@@UAEXABVHttpStatus@2@W4EVersion@Http@2@@Z 004342e0 f   libohNetCore:Http.obj
 0001:000333e0       ?Write@WriterHttpResponse@OpenHome@@UAEXABVBrx@2@@Z 004343e0 f   libohNetCore:Http.obj
 0001:00033420       ??0HttpHeader@OpenHome@@IAE@XZ 00434420 f   libohNetCore:Http.obj
 0001:00033460       ?Received@HttpHeader@OpenHome@@QBE_NXZ 00434460 f   libohNetCore:Http.obj
 0001:00033480       ?SetReceived@HttpHeader@OpenHome@@IAEXXZ 00434480 f   libohNetCore:Http.obj
 0001:000334a0       ?Reset@HttpHeader@OpenHome@@MAEXXZ 004344a0 f   libohNetCore:Http.obj
 0001:000334c0       ?Endpoint@HttpHeaderHost@OpenHome@@QAEAAV02@XZ 004344c0 f   libohNetCore:Http.obj
 0001:00033550       ?Host@HttpHeaderHost@OpenHome@@QBEABVBrx@2@XZ 00434550 f   libohNetCore:Http.obj
 0001:00033570       ?Recognise@HttpHeaderHost@OpenHome@@EAE_NABVBrx@2@@Z 00434570 f   libohNetCore:Http.obj
 0001:000335a0       ?Process@HttpHeaderHost@OpenHome@@EAEXABVBrx@2@@Z 004345a0 f   libohNetCore:Http.obj
 0001:00033880       ?Location@HttpHeaderLocation@OpenHome@@QBEABVBrx@2@XZ 00434880 f   libohNetCore:Http.obj
 0001:000338a0       ?Recognise@HttpHeaderLocation@OpenHome@@EAE_NABVBrx@2@@Z 004348a0 f   libohNetCore:Http.obj
 0001:000338d0       ?Process@HttpHeaderLocation@OpenHome@@EAEXABVBrx@2@@Z 004348d0 f   libohNetCore:Http.obj
 0001:00033960       ?Type@HttpHeaderContentType@OpenHome@@QBEABVBrx@2@XZ 00434960 f   libohNetCore:Http.obj
 0001:00033980       ?Recognise@HttpHeaderContentType@OpenHome@@EAE_NABVBrx@2@@Z 00434980 f   libohNetCore:Http.obj
 0001:000339b0       ?Process@HttpHeaderContentType@OpenHome@@EAEXABVBrx@2@@Z 004349b0 f   libohNetCore:Http.obj
 0001:00033c80       ?Process@HttpHeaderContentType@OpenHome@@IAEXABVBrx@2@0@Z 00434c80 f   libohNetCore:Http.obj
 0001:00033ca0       ?ContentLength@HttpHeaderContentLength@OpenHome@@QBEIXZ 00434ca0 f   libohNetCore:Http.obj
 0001:00033cf0       ?Recognise@HttpHeaderContentLength@OpenHome@@EAE_NABVBrx@2@@Z 00434cf0 f   libohNetCore:Http.obj
 0001:00033d20       ?Process@HttpHeaderContentLength@OpenHome@@EAEXABVBrx@2@@Z 00434d20 f   libohNetCore:Http.obj
 0001:00033e10       ?IsChunked@HttpHeaderTransferEncoding@OpenHome@@QBE_NXZ 00434e10 f   libohNetCore:Http.obj
 0001:00033e60       ?Recognise@HttpHeaderTransferEncoding@OpenHome@@EAE_NABVBrx@2@@Z 00434e60 f   libohNetCore:Http.obj
 0001:00033e90       ?Process@HttpHeaderTransferEncoding@OpenHome@@EAEXABVBrx@2@@Z 00434e90 f   libohNetCore:Http.obj
 0001:00033ee0       ?Close@HttpHeaderConnection@OpenHome@@QBE_NXZ 00434ee0 f   libohNetCore:Http.obj
 0001:00033f30       ?Upgrade@HttpHeaderConnection@OpenHome@@QBE_NXZ 00434f30 f   libohNetCore:Http.obj
 0001:00033f80       ?Recognise@HttpHeaderConnection@OpenHome@@EAE_NABVBrx@2@@Z 00434f80 f   libohNetCore:Http.obj
 0001:00033fb0       ?Process@HttpHeaderConnection@OpenHome@@EAEXABVBrx@2@@Z 00434fb0 f   libohNetCore:Http.obj
 0001:00034030       ?Continue@HttpHeaderExpect@OpenHome@@QBE_NXZ 00435030 f   libohNetCore:Http.obj
 0001:00034080       ?Recognise@HttpHeaderExpect@OpenHome@@EAE_NABVBrx@2@@Z 00435080 f   libohNetCore:Http.obj
 0001:000340b0       ?Process@HttpHeaderExpect@OpenHome@@EAEXABVBrx@2@@Z 004350b0 f   libohNetCore:Http.obj
 0001:000340f0       ??0EndpointHttp@OpenHome@@QAE@ABVUri@1@@Z 004350f0 f   libohNetCore:Http.obj
 0001:00034160       ??0ReaderHttpChunked@OpenHome@@QAE@AAVIReader@1@@Z 00435160 f   libohNetCore:Http.obj
 0001:000341a0       ?Read@ReaderHttpChunked@OpenHome@@QAEXXZ 004351a0 f   libohNetCore:Http.obj
 0001:00034480       ?TransferTo@ReaderHttpChunked@OpenHome@@QAEXAAVBwh@2@@Z 00435480 f   libohNetCore:Http.obj
 0001:000344b0       ??0WriterHttpChunked@OpenHome@@QAE@AAVIWriter@1@@Z 004354b0 f   libohNetCore:Http.obj
 0001:00034540       ?SetChunked@WriterHttpChunked@OpenHome@@QAEX_N@Z 00435540 f   libohNetCore:Http.obj
 0001:00034560       ?Write@WriterHttpChunked@OpenHome@@UAEXE@Z 00435560 f   libohNetCore:Http.obj
 0001:00034630       ?Write@WriterHttpChunked@OpenHome@@UAEXABVBrx@2@@Z 00435630 f   libohNetCore:Http.obj
 0001:000347a0       ?WriteFlush@WriterHttpChunked@OpenHome@@UAEXXZ 004357a0 f   libohNetCore:Http.obj
 0001:00034840       ??1?$Bws@$0BL@@OpenHome@@UAE@XZ 00435840 f i libohNetCore:Http.obj
 0001:00034870       ??1?$Bws@$0CP@@OpenHome@@UAE@XZ 00435870 f i libohNetCore:Http.obj
 0001:000348a0       ?Host@Uri@OpenHome@@QBEABVBrx@2@XZ 004358a0 f i libohNetCore:Http.obj
 0001:000348c0       ?Port@Uri@OpenHome@@QBEHXZ 004358c0 f i libohNetCore:Http.obj
 0001:000348e0       ??_EWriterHttpField@OpenHome@@UAEPAXI@Z 004358e0 f i libohNetCore:Http.obj
 0001:000348e0       ??_GWriterHttpField@OpenHome@@UAEPAXI@Z 004358e0 f i libohNetCore:Http.obj
 0001:00034920       ??_GWriterHttpHeader@OpenHome@@UAEPAXI@Z 00435920 f i libohNetCore:Http.obj
 0001:00034920       ??_EWriterHttpHeader@OpenHome@@UAEPAXI@Z 00435920 f i libohNetCore:Http.obj
 0001:00034960       ??0IWriterHttpHeader@OpenHome@@QAE@XZ 00435960 f i libohNetCore:Http.obj
 0001:00034990       ??_GWriterHttpRequest@OpenHome@@UAEPAXI@Z 00435990 f i libohNetCore:Http.obj
 0001:00034990       ??_EWriterHttpRequest@OpenHome@@UAEPAXI@Z 00435990 f i libohNetCore:Http.obj
 0001:000349d0       ??0IWriterHttpMethod@OpenHome@@QAE@XZ 004359d0 f i libohNetCore:Http.obj
 0001:000349f0       ??_GWriterHttpResponse@OpenHome@@UAEPAXI@Z 004359f0 f i libohNetCore:Http.obj
 0001:000349f0       ??_EWriterHttpResponse@OpenHome@@UAEPAXI@Z 004359f0 f i libohNetCore:Http.obj
 0001:00034a30       ??0IWriterHttpStatus@OpenHome@@QAE@XZ 00435a30 f i libohNetCore:Http.obj
 0001:00034a50       ??_EIWriterHttpStatus@OpenHome@@UAEPAXI@Z 00435a50 f i libohNetCore:Http.obj
 0001:00034a50       ??_GIWriterHttpStatus@OpenHome@@UAEPAXI@Z 00435a50 f i libohNetCore:Http.obj
 0001:00034a90       ??1IWriterHttpStatus@OpenHome@@UAE@XZ 00435a90 f i libohNetCore:Http.obj
 0001:00034ab0       ??1WriterHttpResponse@OpenHome@@UAE@XZ 00435ab0 f i libohNetCore:Http.obj
 0001:00034b20       ??_EHttpHeader@OpenHome@@UAEPAXI@Z 00435b20 f i libohNetCore:Http.obj
 0001:00034b20       ??_GHttpHeader@OpenHome@@UAEPAXI@Z 00435b20 f i libohNetCore:Http.obj
 0001:00034b60       ??0IHttpHeader@OpenHome@@QAE@XZ 00435b60 f i libohNetCore:Http.obj
 0001:00034b80       ??0Brn@OpenHome@@QAE@ABVBrx@1@@Z 00435b80 f i libohNetCore:Http.obj
 0001:00034c10       ?Set@Brn@OpenHome@@QAEXPBEI@Z 00435c10 f i libohNetCore:Http.obj
 0001:00034c40       ??_GWriterHttpChunked@OpenHome@@UAEPAXI@Z 00435c40 f i libohNetCore:Http.obj
 0001:00034c40       ??_EWriterHttpChunked@OpenHome@@UAEPAXI@Z 00435c40 f i libohNetCore:Http.obj
 0001:00034c80       ??1WriterHttpChunked@OpenHome@@UAE@XZ 00435c80 f i libohNetCore:Http.obj
 0001:00034cf0       ??1?$Sws@$0BHHA@@OpenHome@@UAE@XZ 00435cf0 f i libohNetCore:Http.obj
 0001:00034d20       ??0?$vector@PAVIHttpHeader@OpenHome@@V?$allocator@PAVIHttpHeader@OpenHome@@@std@@@std@@QAE@XZ 00435d20 f i libohNetCore:Http.obj
 0001:00034d60       ?push_back@?$vector@PAVIHttpHeader@OpenHome@@V?$allocator@PAVIHttpHeader@OpenHome@@@std@@@std@@QAEX$$QAPAVIHttpHeader@OpenHome@@@Z 00435d60 f i libohNetCore:Http.obj
 0001:00034e80       ?size@?$vector@PAVIHttpHeader@OpenHome@@V?$allocator@PAVIHttpHeader@OpenHome@@@std@@@std@@QBEIXZ 00435e80 f i libohNetCore:Http.obj
 0001:00034eb0       ??A?$vector@PAVIHttpHeader@OpenHome@@V?$allocator@PAVIHttpHeader@OpenHome@@@std@@@std@@QAEAAPAVIHttpHeader@OpenHome@@I@Z 00435eb0 f i libohNetCore:Http.obj
 0001:00034f50       ??0?$vector@PBVBrx@OpenHome@@V?$allocator@PBVBrx@OpenHome@@@std@@@std@@QAE@XZ 00435f50 f i libohNetCore:Http.obj
 0001:00034f90       ?push_back@?$vector@PBVBrx@OpenHome@@V?$allocator@PBVBrx@OpenHome@@@std@@@std@@QAEX$$QAPBVBrx@OpenHome@@@Z 00435f90 f i libohNetCore:Http.obj
 0001:000350b0       ?size@?$vector@PBVBrx@OpenHome@@V?$allocator@PBVBrx@OpenHome@@@std@@@std@@QBEIXZ 004360b0 f i libohNetCore:Http.obj
 0001:000350e0       ??A?$vector@PBVBrx@OpenHome@@V?$allocator@PBVBrx@OpenHome@@@std@@@std@@QAEAAPBVBrx@OpenHome@@I@Z 004360e0 f i libohNetCore:Http.obj
 0001:00035180       ??0?$Sws@$0BHHA@@OpenHome@@QAE@AAVIWriter@1@@Z 00436180 f i libohNetCore:Http.obj
 0001:000351d0       ?Ptr@?$Sws@$0BHHA@@OpenHome@@EAEPAEXZ 004361d0 f i libohNetCore:Http.obj
 0001:000351f0       ??_E?$Sws@$0BHHA@@OpenHome@@UAEPAXI@Z 004361f0 f i libohNetCore:Http.obj
 0001:000351f0       ??_G?$Sws@$0BHHA@@OpenHome@@UAEPAXI@Z 004361f0 f i libohNetCore:Http.obj
 0001:00035230       ?_Inside@?$vector@PAVIHttpHeader@OpenHome@@V?$allocator@PAVIHttpHeader@OpenHome@@@std@@@std@@IBE_NPBQAVIHttpHeader@OpenHome@@@Z 00436230 f i libohNetCore:Http.obj
 0001:00035280       ?_Reserve@?$vector@PAVIHttpHeader@OpenHome@@V?$allocator@PAVIHttpHeader@OpenHome@@@std@@@std@@IAEXI@Z 00436280 f i libohNetCore:Http.obj
 0001:00035300       ?_Orphan_range@?$vector@PAVIHttpHeader@OpenHome@@V?$allocator@PAVIHttpHeader@OpenHome@@@std@@@std@@IBEXPAPAVIHttpHeader@OpenHome@@0@Z 00436300 f i libohNetCore:Http.obj
 0001:00035410       ??0?$_Vector_val@PAVIHttpHeader@OpenHome@@V?$allocator@PAVIHttpHeader@OpenHome@@@std@@@std@@QAE@V?$allocator@PAVIHttpHeader@OpenHome@@@1@@Z 00436410 f i libohNetCore:Http.obj
 0001:00035530       ??0?$allocator@PAVIHttpHeader@OpenHome@@@std@@QAE@XZ 00436530 f i libohNetCore:Http.obj
 0001:00035550       ?_Inside@?$vector@PBVBrx@OpenHome@@V?$allocator@PBVBrx@OpenHome@@@std@@@std@@IBE_NPBQBVBrx@OpenHome@@@Z 00436550 f i libohNetCore:Http.obj
 0001:000355a0       ?_Reserve@?$vector@PBVBrx@OpenHome@@V?$allocator@PBVBrx@OpenHome@@@std@@@std@@IAEXI@Z 004365a0 f i libohNetCore:Http.obj
 0001:00035620       ?_Orphan_range@?$vector@PBVBrx@OpenHome@@V?$allocator@PBVBrx@OpenHome@@@std@@@std@@IBEXPAPBVBrx@OpenHome@@0@Z 00436620 f i libohNetCore:Http.obj
 0001:00035730       ??0?$_Vector_val@PBVBrx@OpenHome@@V?$allocator@PBVBrx@OpenHome@@@std@@@std@@QAE@V?$allocator@PBVBrx@OpenHome@@@1@@Z 00436730 f i libohNetCore:Http.obj
 0001:00035850       ??0?$allocator@PBVBrx@OpenHome@@@std@@QAE@XZ 00436850 f i libohNetCore:Http.obj
 0001:00035870       ?reserve@?$vector@PAVIHttpHeader@OpenHome@@V?$allocator@PAVIHttpHeader@OpenHome@@@std@@@std@@QAEXI@Z 00436870 f i libohNetCore:Http.obj
 0001:000359e0       ?capacity@?$vector@PAVIHttpHeader@OpenHome@@V?$allocator@PAVIHttpHeader@OpenHome@@@std@@@std@@QBEIXZ 004369e0 f i libohNetCore:Http.obj
 0001:00035a10       ?max_size@?$vector@PAVIHttpHeader@OpenHome@@V?$allocator@PAVIHttpHeader@OpenHome@@@std@@@std@@QBEIXZ 00436a10 f i libohNetCore:Http.obj
 0001:00035a40       ?_Grow_to@?$vector@PAVIHttpHeader@OpenHome@@V?$allocator@PAVIHttpHeader@OpenHome@@@std@@@std@@IBEII@Z 00436a40 f i libohNetCore:Http.obj
 0001:00035ac0       ?_Xlen@?$vector@PAVIHttpHeader@OpenHome@@V?$allocator@PAVIHttpHeader@OpenHome@@@std@@@std@@IBEXXZ 00436ac0 f i libohNetCore:Http.obj
 0001:00035af0       ??0?$allocator@PAVIHttpHeader@OpenHome@@@std@@QAE@ABV01@@Z 00436af0 f i libohNetCore:Http.obj
 0001:00035b10       ?reserve@?$vector@PBVBrx@OpenHome@@V?$allocator@PBVBrx@OpenHome@@@std@@@std@@QAEXI@Z 00436b10 f i libohNetCore:Http.obj
 0001:00035c80       ?capacity@?$vector@PBVBrx@OpenHome@@V?$allocator@PBVBrx@OpenHome@@@std@@@std@@QBEIXZ 00436c80 f i libohNetCore:Http.obj
 0001:00035cb0       ?max_size@?$vector@PBVBrx@OpenHome@@V?$allocator@PBVBrx@OpenHome@@@std@@@std@@QBEIXZ 00436cb0 f i libohNetCore:Http.obj
 0001:00035ce0       ?_Grow_to@?$vector@PBVBrx@OpenHome@@V?$allocator@PBVBrx@OpenHome@@@std@@@std@@IBEII@Z 00436ce0 f i libohNetCore:Http.obj
 0001:00035d60       ?_Xlen@?$vector@PBVBrx@OpenHome@@V?$allocator@PBVBrx@OpenHome@@@std@@@std@@IBEXXZ 00436d60 f i libohNetCore:Http.obj
 0001:00035d90       ??0?$allocator@PBVBrx@OpenHome@@@std@@QAE@ABV01@@Z 00436d90 f i libohNetCore:Http.obj
 0001:00035db0       ?allocate@?$allocator@PAVIHttpHeader@OpenHome@@@std@@QAEPAPAVIHttpHeader@OpenHome@@I@Z 00436db0 f i libohNetCore:Http.obj
 0001:00035de0       ?max_size@?$allocator@PAVIHttpHeader@OpenHome@@@std@@QBEIXZ 00436de0 f i libohNetCore:Http.obj
 0001:00035e30       ?allocate@?$allocator@PBVBrx@OpenHome@@@std@@QAEPAPBVBrx@OpenHome@@I@Z 00436e30 f i libohNetCore:Http.obj
 0001:00035e60       ?max_size@?$allocator@PBVBrx@OpenHome@@@std@@QBEIXZ 00436e60 f i libohNetCore:Http.obj
 0001:00035eb0       ??0?$Bws@$0MI@@OpenHome@@QAE@XZ 00436eb0 f i libohNetCore:Http.obj
 0001:00035ef0       ?Ptr@?$Bws@$0MI@@OpenHome@@UBEPBEXZ 00436ef0 f i libohNetCore:Http.obj
 0001:00035f10       ??0?$Bws@$0GE@@OpenHome@@QAE@XZ 00436f10 f i libohNetCore:Http.obj
 0001:00035f50       ?Ptr@?$Bws@$0GE@@OpenHome@@UBEPBEXZ 00436f50 f i libohNetCore:Http.obj
 0001:00035f70       ??0?$Bws@$0BL@@OpenHome@@QAE@XZ 00436f70 f i libohNetCore:Http.obj
 0001:00035fb0       ?Ptr@?$Bws@$0BL@@OpenHome@@UBEPBEXZ 00436fb0 f i libohNetCore:Http.obj
 0001:00035fd0       ??0?$Bws@$0CP@@OpenHome@@QAE@XZ 00436fd0 f i libohNetCore:Http.obj
 0001:00036010       ?Ptr@?$Bws@$0CP@@OpenHome@@UBEPBEXZ 00437010 f i libohNetCore:Http.obj
 0001:00036030       ??$addressof@PAVIHttpHeader@OpenHome@@@std@@YGPAPAVIHttpHeader@OpenHome@@AAPAV12@@Z 00437030 f i libohNetCore:Http.obj
 0001:00036040       ??$forward@PAVIHttpHeader@OpenHome@@@std@@YG$$QAPAVIHttpHeader@OpenHome@@AAPAV12@@Z 00437040 f i libohNetCore:Http.obj
 0001:00036050       ??$_Cons_val@V?$allocator@PAVIHttpHeader@OpenHome@@@std@@PAVIHttpHeader@OpenHome@@PAV34@@std@@YGXAAV?$allocator@PAVIHttpHeader@OpenHome@@@0@PAPAVIHttpHeader@OpenHome@@$$QAPAV23@@Z 00437050 f i libohNetCore:Http.obj
 0001:00036080       ??$addressof@PBVBrx@OpenHome@@@std@@YGPAPBVBrx@OpenHome@@AAPBV12@@Z 00437080 f i libohNetCore:Http.obj
 0001:00036090       ??$forward@PBVBrx@OpenHome@@@std@@YG$$QAPBVBrx@OpenHome@@AAPBV12@@Z 00437090 f i libohNetCore:Http.obj
 0001:000360a0       ??$_Cons_val@V?$allocator@PBVBrx@OpenHome@@@std@@PBVBrx@OpenHome@@PBV34@@std@@YGXAAV?$allocator@PBVBrx@OpenHome@@@0@PAPBVBrx@OpenHome@@$$QAPBV23@@Z 004370a0 f i libohNetCore:Http.obj
 0001:000360d0       ??$_Umove@PAPAVIHttpHeader@OpenHome@@@?$vector@PAVIHttpHeader@OpenHome@@V?$allocator@PAVIHttpHeader@OpenHome@@@std@@@std@@IAEPAPAVIHttpHeader@OpenHome@@PAPAV23@00@Z 004370d0 f i libohNetCore:Http.obj
 0001:00036110       ??$_Umove@PAPBVBrx@OpenHome@@@?$vector@PBVBrx@OpenHome@@V?$allocator@PBVBrx@OpenHome@@@std@@@std@@IAEPAPBVBrx@OpenHome@@PAPBV23@00@Z 00437110 f i libohNetCore:Http.obj
 0001:00036150       ??$_Allocate@PAVIHttpHeader@OpenHome@@@std@@YGPAPAVIHttpHeader@OpenHome@@IPAPAV12@@Z 00437150 f i libohNetCore:Http.obj
 0001:000361d0       ??$_Allocate@PBVBrx@OpenHome@@@std@@YGPAPBVBrx@OpenHome@@IPAPBV12@@Z 004371d0 f i libohNetCore:Http.obj
 0001:00036250       ??_E?$Bws@$0MI@@OpenHome@@UAEPAXI@Z 00437250 f i libohNetCore:Http.obj
 0001:00036250       ??_G?$Bws@$0MI@@OpenHome@@UAEPAXI@Z 00437250 f i libohNetCore:Http.obj
 0001:00036290       ??_G?$Bws@$0GE@@OpenHome@@UAEPAXI@Z 00437290 f i libohNetCore:Http.obj
 0001:00036290       ??_E?$Bws@$0GE@@OpenHome@@UAEPAXI@Z 00437290 f i libohNetCore:Http.obj
 0001:000362d0       ??_G?$Bws@$0BL@@OpenHome@@UAEPAXI@Z 004372d0 f i libohNetCore:Http.obj
 0001:000362d0       ??_E?$Bws@$0BL@@OpenHome@@UAEPAXI@Z 004372d0 f i libohNetCore:Http.obj
 0001:00036310       ??_E?$Bws@$0CP@@OpenHome@@UAEPAXI@Z 00437310 f i libohNetCore:Http.obj
 0001:00036310       ??_G?$Bws@$0CP@@OpenHome@@UAEPAXI@Z 00437310 f i libohNetCore:Http.obj
 0001:00036350       ?construct@?$allocator@PAVIHttpHeader@OpenHome@@@std@@QAEXPAPAVIHttpHeader@OpenHome@@$$QAPAV34@@Z 00437350 f i libohNetCore:Http.obj
 0001:000363f0       ?construct@?$allocator@PBVBrx@OpenHome@@@std@@QAEXPAPBVBrx@OpenHome@@$$QAPBV34@@Z 004373f0 f i libohNetCore:Http.obj
 0001:00036490       ??$_Uninitialized_move@PAPAVIHttpHeader@OpenHome@@PAPAV12@V?$allocator@PAVIHttpHeader@OpenHome@@@std@@@std@@YGPAPAVIHttpHeader@OpenHome@@PAPAV12@00AAV?$allocator@PAVIHttpHeader@OpenHome@@@0@@Z 00437490 f i libohNetCore:Http.obj
 0001:000364e0       ??$_Uninitialized_move@PAPBVBrx@OpenHome@@PAPBV12@V?$allocator@PBVBrx@OpenHome@@@std@@@std@@YGPAPBVBrx@OpenHome@@PAPBV12@00AAV?$allocator@PBVBrx@OpenHome@@@0@@Z 004374e0 f i libohNetCore:Http.obj
 0001:00036530       ??$_Val_type@PAPAVIHttpHeader@OpenHome@@@std@@YGPAPAVIHttpHeader@OpenHome@@PAPAV12@@Z 00437530 f i libohNetCore:Http.obj
 0001:00036540       ??$_Uninit_move@PAVIHttpHeader@OpenHome@@PAV12@PAV12@@std@@YGPAPAVIHttpHeader@OpenHome@@PAPAV12@00AAV?$allocator@PAVIHttpHeader@OpenHome@@@0@0U_Scalar_ptr_iterator_tag@0@@Z 00437540 f i libohNetCore:Http.obj
 0001:000365b0       ??$_Val_type@PAPBVBrx@OpenHome@@@std@@YGPAPBVBrx@OpenHome@@PAPBV12@@Z 004375b0 f i libohNetCore:Http.obj
 0001:000365c0       ??$_Uninit_move@PBVBrx@OpenHome@@PBV12@PBV12@@std@@YGPAPBVBrx@OpenHome@@PAPBV12@00AAV?$allocator@PBVBrx@OpenHome@@@0@0U_Scalar_ptr_iterator_tag@0@@Z 004375c0 f i libohNetCore:Http.obj
 0001:00036630       ??$_Debug_range@PAPAVIHttpHeader@OpenHome@@@std@@YGXPAPAVIHttpHeader@OpenHome@@0PB_WI@Z 00437630 f i libohNetCore:Http.obj
 0001:00036680       ??$_Debug_pointer@PAVIHttpHeader@OpenHome@@@std@@YGXPAPAVIHttpHeader@OpenHome@@PB_WI@Z 00437680 f i libohNetCore:Http.obj
 0001:000366b0       ??$_Debug_range@PAPBVBrx@OpenHome@@@std@@YGXPAPBVBrx@OpenHome@@0PB_WI@Z 004376b0 f i libohNetCore:Http.obj
 0001:00036700       ??$_Debug_pointer@PBVBrx@OpenHome@@@std@@YGXPAPBVBrx@OpenHome@@PB_WI@Z 00437700 f i libohNetCore:Http.obj
 0001:00036730       ??$_Iter_cat@PAPAVIHttpHeader@OpenHome@@@std@@YG?AUrandom_access_iterator_tag@0@ABQAPAVIHttpHeader@OpenHome@@@Z 00437730 f i libohNetCore:Http.obj
 0001:00036790       ??$_Debug_range2@PAPAVIHttpHeader@OpenHome@@@std@@YGXPAPAVIHttpHeader@OpenHome@@0PB_WIUrandom_access_iterator_tag@0@@Z 00437790 f i libohNetCore:Http.obj
 0001:000367f0       ??$_Iter_cat@PAPBVBrx@OpenHome@@@std@@YG?AUrandom_access_iterator_tag@0@ABQAPBVBrx@OpenHome@@@Z 004377f0 f i libohNetCore:Http.obj
 0001:00036850       ??$_Debug_range2@PAPBVBrx@OpenHome@@@std@@YGXPAPBVBrx@OpenHome@@0PB_WIUrandom_access_iterator_tag@0@@Z 00437850 f i libohNetCore:Http.obj
 0001:000368b0       ??_EWriterHttpResponse@OpenHome@@WM@AEPAXI@Z 004378b0 f i libohNetCore:Http.obj
 0001:000368c0       ??_EWriterHttpRequest@OpenHome@@WM@AEPAXI@Z 004378c0 f i libohNetCore:Http.obj
 0001:000368d0       ??_E?$Sws@$0BHHA@@OpenHome@@WM@AEPAXI@Z 004378d0 f i libohNetCore:Http.obj
 0001:000368e0       ??0HttpStatusMaker@@QAE@IVBrn@OpenHome@@@Z 004378e0 f i libohNetCore:Http.obj
 0001:00036970       ??1HttpStatusMaker@@QAE@XZ 00437970 f i libohNetCore:Http.obj
 0001:000369a0       ??0HttpStatus@OpenHome@@QAE@ABV01@@Z 004379a0 f i libohNetCore:Http.obj
 0001:000369e0       ??0Sxx@OpenHome@@IAE@I@Z   004379e0 f   libohNetCore:Stream.obj
 0001:00036a30       ??1Sxx@OpenHome@@MAE@XZ    00437a30 f   libohNetCore:Stream.obj
 0001:00036a50       ??0Srx@OpenHome@@IAE@IAAVIReaderSource@1@@Z 00437a50 f   libohNetCore:Stream.obj
 0001:00036ab0       ?Read@Srx@OpenHome@@UAE?AVBrn@2@I@Z 00437ab0 f   libohNetCore:Stream.obj
 0001:00036cd0       ?ReadUntil@Srx@OpenHome@@UAE?AVBrn@2@E@Z 00437cd0 f   libohNetCore:Stream.obj
 0001:00036f60       ?ReadFlush@Srx@OpenHome@@UAEXXZ 00437f60 f   libohNetCore:Stream.obj
 0001:00036fb0       ?ReadInterrupt@Srx@OpenHome@@UAEXXZ 00437fb0 f   libohNetCore:Stream.obj
 0001:00036ff0       ?Snaffle@Srx@OpenHome@@QAE?AVBrn@2@XZ 00437ff0 f   libohNetCore:Stream.obj
 0001:000370f0       ??0Srd@OpenHome@@QAE@IAAVIReaderSource@1@@Z 004380f0 f   libohNetCore:Stream.obj
 0001:00037190       ?Ptr@Srd@OpenHome@@EAEPAEXZ 00438190 f   libohNetCore:Stream.obj
 0001:000371b0       ??1Srd@OpenHome@@UAE@XZ    004381b0 f   libohNetCore:Stream.obj
 0001:00037240       ??0Swx@OpenHome@@IAE@IAAVIWriter@1@@Z 00438240 f   libohNetCore:Stream.obj
 0001:000372a0       ?Error@Swx@OpenHome@@AAEXXZ 004382a0 f   libohNetCore:Stream.obj
 0001:00037360       ?Write@Swx@OpenHome@@UAEXE@Z 00438360 f   libohNetCore:Stream.obj
 0001:00037470       ?Write@Swx@OpenHome@@UAEXABVBrx@2@@Z 00438470 f   libohNetCore:Stream.obj
 0001:000375b0       ?WriteDrain@Swx@OpenHome@@AAEXXZ 004385b0 f   libohNetCore:Stream.obj
 0001:000376c0       ?WriteFlush@Swx@OpenHome@@UAEXXZ 004386c0 f   libohNetCore:Stream.obj
 0001:00037710       ??0Swd@OpenHome@@QAE@IAAVIWriter@1@@Z 00438710 f   libohNetCore:Stream.obj
 0001:000377b0       ?Ptr@Swd@OpenHome@@EAEPAEXZ 004387b0 f   libohNetCore:Stream.obj
 0001:000377d0       ??1Swd@OpenHome@@UAE@XZ    004387d0 f   libohNetCore:Stream.obj
 0001:00037860       ??0Swp@OpenHome@@QAE@AAVSrx@1@AAVIWriter@1@@Z 00438860 f   libohNetCore:Stream.obj
 0001:000378b0       ?Ptr@Swp@OpenHome@@EAEPAEXZ 004388b0 f   libohNetCore:Stream.obj
 0001:000378f0       ??1Swp@OpenHome@@UAE@XZ    004388f0 f   libohNetCore:Stream.obj
 0001:00037930       ??0ReaderBuffer@OpenHome@@QAE@XZ 00438930 f   libohNetCore:Stream.obj
 0001:000379b0       ?Set@ReaderBuffer@OpenHome@@QAEXABVBrx@2@@Z 004389b0 f   libohNetCore:Stream.obj
 0001:00037a00       ?Read@ReaderBuffer@OpenHome@@UAE?AVBrn@2@I@Z 00438a00 f   libohNetCore:Stream.obj
 0001:00037b50       ?Bytes@ReaderBuffer@OpenHome@@QBEIXZ 00438b50 f   libohNetCore:Stream.obj
 0001:00037b80       ?ReadRemaining@ReaderBuffer@OpenHome@@QAE?AVBrn@2@XZ 00438b80 f   libohNetCore:Stream.obj
 0001:00037c70       ?ReadPartial@ReaderBuffer@OpenHome@@QAE?AVBrn@2@I@Z 00438c70 f   libohNetCore:Stream.obj
 0001:00037dd0       ?ReadUntil@ReaderBuffer@OpenHome@@UAE?AVBrn@2@E@Z 00438dd0 f   libohNetCore:Stream.obj
 0001:00037f10       ?ReadFlush@ReaderBuffer@OpenHome@@UAEXXZ 00438f10 f   libohNetCore:Stream.obj
 0001:00037f30       ?ReadInterrupt@ReaderBuffer@OpenHome@@UAEXXZ 00438f30 f   libohNetCore:Stream.obj
 0001:00037f50       ??0WriterBuffer@OpenHome@@QAE@AAVBwx@1@@Z 00438f50 f   libohNetCore:Stream.obj
 0001:00037fd0       ?Write@WriterBuffer@OpenHome@@UAEXE@Z 00438fd0 f   libohNetCore:Stream.obj
 0001:00038000       ?Write@WriterBuffer@OpenHome@@UAEXABVBrx@2@@Z 00439000 f   libohNetCore:Stream.obj
 0001:00038030       ?WriteFlush@WriterBuffer@OpenHome@@UAEXXZ 00439030 f   libohNetCore:Stream.obj
 0001:00038050       ?Flush@WriterBuffer@OpenHome@@QAEXXZ 00439050 f   libohNetCore:Stream.obj
 0001:00038080       ??0WriterBwh@OpenHome@@QAE@H@Z 00439080 f   libohNetCore:Stream.obj
 0001:00038110       ?TransferTo@WriterBwh@OpenHome@@QAEXAAVBwh@2@@Z 00439110 f   libohNetCore:Stream.obj
 0001:00038140       ?TransferTo@WriterBwh@OpenHome@@QAEXAAVBrh@2@@Z 00439140 f   libohNetCore:Stream.obj
 0001:00038170       ?Write@WriterBwh@OpenHome@@QAEXPBD@Z 00439170 f   libohNetCore:Stream.obj
 0001:00038230       ?Write@WriterBwh@OpenHome@@UAEXE@Z 00439230 f   libohNetCore:Stream.obj
 0001:00038300       ?Write@WriterBwh@OpenHome@@UAEXABVBrx@2@@Z 00439300 f   libohNetCore:Stream.obj
 0001:000383a0       ?WriteFlush@WriterBwh@OpenHome@@UAEXXZ 004393a0 f   libohNetCore:Stream.obj
 0001:000383c0       ??0ReaderBinary@OpenHome@@QAE@AAVIReader@1@@Z 004393c0 f   libohNetCore:Stream.obj
 0001:00038400       ?Read@ReaderBinary@OpenHome@@QAE?BVBrn@2@I@Z 00439400 f   libohNetCore:Stream.obj
 0001:00038460       ?ReadUintBe@ReaderBinary@OpenHome@@QAEII@Z 00439460 f   libohNetCore:Stream.obj
 0001:00038580       ?ReadIntBe@ReaderBinary@OpenHome@@QAEHI@Z 00439580 f   libohNetCore:Stream.obj
 0001:00038700       ?ReadUintLe@ReaderBinary@OpenHome@@QAEII@Z 00439700 f   libohNetCore:Stream.obj
 0001:00038820       ?ReadUint64Be@ReaderBinary@OpenHome@@QAE_KI@Z 00439820 f   libohNetCore:Stream.obj
 0001:00038950       ?ReadUint64Le@ReaderBinary@OpenHome@@QAE_KI@Z 00439950 f   libohNetCore:Stream.obj
 0001:00038a70       ??0WriterBinary@OpenHome@@QAE@AAVIWriter@1@@Z 00439a70 f   libohNetCore:Stream.obj
 0001:00038ab0       ?Write@WriterBinary@OpenHome@@QAEXABVBrx@2@@Z 00439ab0 f   libohNetCore:Stream.obj
 0001:00038af0       ?WriteUint8@WriterBinary@OpenHome@@QAEXI@Z 00439af0 f   libohNetCore:Stream.obj
 0001:00038b30       ?WriteUint16Be@WriterBinary@OpenHome@@QAEXI@Z 00439b30 f   libohNetCore:Stream.obj
 0001:00038b90       ?WriteUint24Be@WriterBinary@OpenHome@@QAEXI@Z 00439b90 f   libohNetCore:Stream.obj
 0001:00038c20       ?WriteUint32Be@WriterBinary@OpenHome@@QAEXI@Z 00439c20 f   libohNetCore:Stream.obj
 0001:00038cd0       ?WriteUint64Be@WriterBinary@OpenHome@@QAEX_K@Z 00439cd0 f   libohNetCore:Stream.obj
 0001:00038e40       ?WriteInt8@WriterBinary@OpenHome@@QAEXH@Z 00439e40 f   libohNetCore:Stream.obj
 0001:00038e80       ?WriteInt16Be@WriterBinary@OpenHome@@QAEXH@Z 00439e80 f   libohNetCore:Stream.obj
 0001:00038ee0       ?WriteInt24Be@WriterBinary@OpenHome@@QAEXH@Z 00439ee0 f   libohNetCore:Stream.obj
 0001:00038f70       ?WriteInt32Be@WriterBinary@OpenHome@@QAEXH@Z 00439f70 f   libohNetCore:Stream.obj
 0001:00039020       ?WriteInt64Be@WriterBinary@OpenHome@@QAEX_J@Z 0043a020 f   libohNetCore:Stream.obj
 0001:00039190       ??_GSxx@OpenHome@@MAEPAXI@Z 0043a190 f i libohNetCore:Stream.obj
 0001:00039190       ??_ESxx@OpenHome@@MAEPAXI@Z 0043a190 f i libohNetCore:Stream.obj
 0001:000391d0       ??_GSrx@OpenHome@@UAEPAXI@Z 0043a1d0 f i libohNetCore:Stream.obj
 0001:000391d0       ??_ESrx@OpenHome@@UAEPAXI@Z 0043a1d0 f i libohNetCore:Stream.obj
 0001:00039210       ??_ESrd@OpenHome@@UAEPAXI@Z 0043a210 f i libohNetCore:Stream.obj
 0001:00039210       ??_GSrd@OpenHome@@UAEPAXI@Z 0043a210 f i libohNetCore:Stream.obj
 0001:00039250       ??_GSwx@OpenHome@@UAEPAXI@Z 0043a250 f i libohNetCore:Stream.obj
 0001:00039250       ??_ESwx@OpenHome@@UAEPAXI@Z 0043a250 f i libohNetCore:Stream.obj
 0001:00039290       ??_GSwd@OpenHome@@UAEPAXI@Z 0043a290 f i libohNetCore:Stream.obj
 0001:00039290       ??_ESwd@OpenHome@@UAEPAXI@Z 0043a290 f i libohNetCore:Stream.obj
 0001:000392d0       ??_GSwp@OpenHome@@UAEPAXI@Z 0043a2d0 f i libohNetCore:Stream.obj
 0001:000392d0       ??_ESwp@OpenHome@@UAEPAXI@Z 0043a2d0 f i libohNetCore:Stream.obj
 0001:00039310       ??_EReaderBuffer@OpenHome@@UAEPAXI@Z 0043a310 f i libohNetCore:Stream.obj
 0001:00039310       ??_GReaderBuffer@OpenHome@@UAEPAXI@Z 0043a310 f i libohNetCore:Stream.obj
 0001:00039350       ??1ReaderBuffer@OpenHome@@UAE@XZ 0043a350 f i libohNetCore:Stream.obj
 0001:000393c0       ??_GWriterBuffer@OpenHome@@UAEPAXI@Z 0043a3c0 f i libohNetCore:Stream.obj
 0001:000393c0       ??_EWriterBuffer@OpenHome@@UAEPAXI@Z 0043a3c0 f i libohNetCore:Stream.obj
 0001:00039400       ??1WriterBuffer@OpenHome@@UAE@XZ 0043a400 f i libohNetCore:Stream.obj
 0001:00039430       ??_EWriterBwh@OpenHome@@UAEPAXI@Z 0043a430 f i libohNetCore:Stream.obj
 0001:00039430       ??_GWriterBwh@OpenHome@@UAEPAXI@Z 0043a430 f i libohNetCore:Stream.obj
 0001:00039470       ??1WriterBwh@OpenHome@@UAE@XZ 0043a470 f i libohNetCore:Stream.obj
 0001:000394e0       ??_ESrx@OpenHome@@WM@AEPAXI@Z 0043a4e0 f i libohNetCore:Stream.obj
 0001:000394f0       ??_ESwd@OpenHome@@WM@AEPAXI@Z 0043a4f0 f i libohNetCore:Stream.obj
 0001:00039500       ??_ESwp@OpenHome@@WM@AEPAXI@Z 0043a500 f i libohNetCore:Stream.obj
 0001:00039510       ??_ESwx@OpenHome@@WM@AEPAXI@Z 0043a510 f i libohNetCore:Stream.obj
 0001:00039520       ??_ESrd@OpenHome@@WM@AEPAXI@Z 0043a520 f i libohNetCore:Stream.obj
 0001:00039530       ?Level@Debug@OpenHome@@SGIXZ 0043a530 f   libohNetCore:Debug.obj
 0001:00039540       ?SetLevel@Debug@OpenHome@@SGXI@Z 0043a540 f   libohNetCore:Debug.obj
 0001:00039550       ?TestLevel@Debug@OpenHome@@SG_NI@Z 0043a550 f   libohNetCore:Debug.obj
 0001:00039570       ?BreakBeforeThrow@Debug@OpenHome@@SG_NXZ 0043a570 f   libohNetCore:Debug.obj
 0001:00039580       ?SetBreakBeforeThrow@Debug@OpenHome@@SGX_N@Z 0043a580 f   libohNetCore:Debug.obj
 0001:00039590       ??0AutoLog@@QAE@IPBD@Z     0043a590 f   libohNetCore:Debug.obj
 0001:000395f0       ??1AutoLog@@QAE@XZ         0043a5f0 f   libohNetCore:Debug.obj
 0001:00039640       ?GetPlatformNameAndVersion@Os@OpenHome@@SG?AVBrn@2@AAI0@Z 0043a640 f   libohNetCore:OsWrapper.obj
 0001:00039730       ?NetworkCreate@Os@OpenHome@@SGPAXW4ESocketType@2@@Z 0043a730 f   libohNetCore:OsWrapper.obj
 0001:00039800       ?NetworkBind@Os@OpenHome@@SGHPAXABVEndpoint@2@@Z 0043a800 f   libohNetCore:OsWrapper.obj
 0001:00039840       ?NetworkPort@Os@OpenHome@@SGHPAXAAI@Z 0043a840 f   libohNetCore:OsWrapper.obj
 0001:000398c0       ?NetworkGetHostByName@Os@OpenHome@@SGIABVBrx@2@@Z 0043a8c0 f   libohNetCore:OsWrapper.obj
 0001:00039a10       ?NetworkConnect@Os@OpenHome@@SGXPAXABVEndpoint@2@I@Z 0043aa10 f   libohNetCore:OsWrapper.obj
 0001:00039b30       ?NetworkReceiveFrom@Os@OpenHome@@SGHPAXAAVBwx@2@AAVEndpoint@2@@Z 0043ab30 f   libohNetCore:OsWrapper.obj
 0001:00039c00       ?NetworkSocketSetSendBufBytes@Os@OpenHome@@SGXPAXI@Z 0043ac00 f   libohNetCore:OsWrapper.obj
 0001:00039d10       ?NetworkSocketSetRecvBufBytes@Os@OpenHome@@SGXPAXI@Z 0043ad10 f   libohNetCore:OsWrapper.obj
 0001:00039e20       ?NetworkSocketSetReceiveTimeout@Os@OpenHome@@SGXPAXI@Z 0043ae20 f   libohNetCore:OsWrapper.obj
 0001:00039f30       ?NetworkTcpSetNoDelay@Os@OpenHome@@SGXPAX@Z 0043af30 f   libohNetCore:OsWrapper.obj
 0001:0003a030       ?NetworkSocketSetReuseAddress@Os@OpenHome@@SGXPAX@Z 0043b030 f   libohNetCore:OsWrapper.obj
 0001:0003a130       ?NetworkSocketSetMulticastTtl@Os@OpenHome@@SGXPAXE@Z 0043b130 f   libohNetCore:OsWrapper.obj
 0001:0003a240       ?NetworkSocketMulticastAddMembership@Os@OpenHome@@SGXPAXII@Z 0043b240 f   libohNetCore:OsWrapper.obj
 0001:0003a350       ?NetworkSocketMulticastDropMembership@Os@OpenHome@@SGXPAXII@Z 0043b350 f   libohNetCore:OsWrapper.obj
 0001:0003a460       ?NetworkListAdapters@Os@OpenHome@@SGPAV?$vector@PAVNetworkAdapter@OpenHome@@V?$allocator@PAVNetworkAdapter@OpenHome@@@std@@@std@@_N@Z 0043b460 f   libohNetCore:OsWrapper.obj
 0001:0003a670       ??0Parser@OpenHome@@QAE@XZ 0043b670 f   libohNetCore:Parser.obj
 0001:0003a6b0       ??0Parser@OpenHome@@QAE@ABVBrx@1@@Z 0043b6b0 f   libohNetCore:Parser.obj
 0001:0003a6f0       ?Set@Parser@OpenHome@@QAEXABVBrx@2@@Z 0043b6f0 f   libohNetCore:Parser.obj
 0001:0003a730       ?Finished@Parser@OpenHome@@QBE_NXZ 0043b730 f   libohNetCore:Parser.obj
 0001:0003a770       ?Restart@Parser@OpenHome@@QAEXXZ 0043b770 f   libohNetCore:Parser.obj
 0001:0003a790       ?At@Parser@OpenHome@@QAEDH@Z 0043b790 f   libohNetCore:Parser.obj
 0001:0003a7d0       ?Back@Parser@OpenHome@@QAEXI@Z 0043b7d0 f   libohNetCore:Parser.obj
 0001:0003a820       ?Forward@Parser@OpenHome@@QAEXI@Z 0043b820 f   libohNetCore:Parser.obj
 0001:0003a870       ?Remaining@Parser@OpenHome@@QAE?AVBrn@2@XZ 0043b870 f   libohNetCore:Parser.obj
 0001:0003a8c0       ?Next@Parser@OpenHome@@QAE?AVBrn@2@E@Z 0043b8c0 f   libohNetCore:Parser.obj
 0001:0003aa40       ?Next@Parser@OpenHome@@QAE?AVBrn@2@XZ 0043ba40 f   libohNetCore:Parser.obj
 0001:0003aa90       ?NextNth@Parser@OpenHome@@QAE?AVBrn@2@IE@Z 0043ba90 f   libohNetCore:Parser.obj
 0001:0003ab10       ?NextNoTrim@Parser@OpenHome@@QAE?AVBrn@2@E@Z 0043bb10 f   libohNetCore:Parser.obj
 0001:0003ac10       ?NextLine@Parser@OpenHome@@QAE?AVBrn@2@XZ 0043bc10 f   libohNetCore:Parser.obj
 0001:0003adb0       ?NextToEnd@Parser@OpenHome@@QAE?AVBrn@2@XZ 0043bdb0 f   libohNetCore:Parser.obj
 0001:0003aef0       ?Twiddle@@YGIII@Z          0043bef0 f   libohNetCore:Maths.obj
 0001:0003af20       ?SetRandomSeed@OpenHome@@YGXABVBrx@1@@Z 0043bf20 f   libohNetCore:Maths.obj
 0001:0003b010       ?SetRandomSeed@OpenHome@@YGXI@Z 0043c010 f   libohNetCore:Maths.obj
 0001:0003b0a0       ?Random@OpenHome@@YGIII@Z  0043c0a0 f   libohNetCore:Maths.obj
 0001:0003b240       ?LittleEndian4@Arch@OpenHome@@SGII@Z 0043c240 f i libohNetCore:Maths.obj
 0001:0003b250       ??0QueueBase@OpenHome@@IAE@XZ 0043c250 f   libohNetCore:Queue.obj
 0001:0003b290       ?Count@QueueBase@OpenHome@@QBEIXZ 0043c290 f   libohNetCore:Queue.obj
 0001:0003b2b0       ?DoAdd@QueueBase@OpenHome@@IAEXPAVQueueEntryBase@2@@Z 0043c2b0 f   libohNetCore:Queue.obj
 0001:0003b310       ?DoMoveAllTo@QueueBase@OpenHome@@IAEXAAV12@@Z 0043c310 f   libohNetCore:Queue.obj
 0001:0003b3d0       ?DoMoveHeadTo@QueueBase@OpenHome@@IAEAAVQueueEntryBase@2@AAV12@@Z 0043c3d0 f   libohNetCore:Queue.obj
 0001:0003b4d0       ?DoMoveTo@QueueEntryBase@OpenHome@@QAEXAAVQueueBase@2@@Z 0043c4d0 f   libohNetCore:Queue.obj
 0001:0003b590       ??1QueueBase@OpenHome@@IAE@XZ 0043c590 f   libohNetCore:Queue.obj
 0001:0003b5f0       ??0QueueSortedEntry@OpenHome@@IAE@XZ 0043c5f0 f   libohNetCore:Queue.obj
 0001:0003b630       ?Next@QueueSortedEntry@OpenHome@@IAEAAV12@XZ 0043c630 f   libohNetCore:Queue.obj
 0001:0003b670       ?Prev@QueueSortedEntry@OpenHome@@IAEAAV12@XZ 0043c670 f   libohNetCore:Queue.obj
 0001:0003b6b0       ?AddBefore@QueueSortedEntry@OpenHome@@IAEXAAV12@@Z 0043c6b0 f   libohNetCore:Queue.obj
 0001:0003b720       ?Remove@QueueSortedEntry@OpenHome@@IAEXXZ 0043c720 f   libohNetCore:Queue.obj
 0001:0003b790       ??0QueueSortedEntryHead@OpenHome@@IAE@AAVQueueSortedEntry@1@@Z 0043c790 f   libohNetCore:Queue.obj
 0001:0003b7d0       ??0QueueSortedEntryTail@OpenHome@@IAE@AAVQueueSortedEntry@1@@Z 0043c7d0 f   libohNetCore:Queue.obj
 0001:0003b810       ??0QueueSortedBase@OpenHome@@IAE@XZ 0043c810 f   libohNetCore:Queue.obj
 0001:0003b8b0       ?IsEmpty@QueueSortedBase@OpenHome@@QAE_NXZ 0043c8b0 f   libohNetCore:Queue.obj
 0001:0003b8e0       ?IsTail@QueueSortedBase@OpenHome@@IBE_NAAVQueueSortedEntry@2@@Z 0043c8e0 f   libohNetCore:Queue.obj
 0001:0003b910       ?DoAdd@QueueSortedBase@OpenHome@@IAEXAAVQueueSortedEntry@2@@Z 0043c910 f   libohNetCore:Queue.obj
 0001:0003ba20       ?DoRemove@QueueSortedBase@OpenHome@@IAEXAAVQueueSortedEntry@2@@Z 0043ca20 f   libohNetCore:Queue.obj
 0001:0003bac0       ?DoRemoveHead@QueueSortedBase@OpenHome@@IAEAAVQueueSortedEntry@2@XZ 0043cac0 f   libohNetCore:Queue.obj
 0001:0003bb70       ?HeadChanged@QueueSortedBase@OpenHome@@EAEXAAVQueueSortedEntry@2@@Z 0043cb70 f   libohNetCore:Queue.obj
 0001:0003bb90       ??1QueueSortedBase@OpenHome@@UAE@XZ 0043cb90 f   libohNetCore:Queue.obj
 0001:0003bbc0       ??0?$QueueEntry@VQueueBase@OpenHome@@@OpenHome@@QAE@XZ 0043cbc0 f i libohNetCore:Queue.obj
 0001:0003bbf0       ??0QueueEntryBase@OpenHome@@QAE@XZ 0043cbf0 f i libohNetCore:Queue.obj
 0001:0003bc20       ??0QueueEmpty@OpenHome@@QAE@PBDI@Z 0043cc20 f i libohNetCore:Queue.obj
 0001:0003bc60       ??1QueueEmpty@OpenHome@@QAE@XZ 0043cc60 f i libohNetCore:Queue.obj
 0001:0003bc90       ??_GQueueSortedBase@OpenHome@@UAEPAXI@Z 0043cc90 f i libohNetCore:Queue.obj
 0001:0003bc90       ??_EQueueSortedBase@OpenHome@@UAEPAXI@Z 0043cc90 f i libohNetCore:Queue.obj
 0001:0003bcd0       ?_Debug_message@std@@YAXPB_W0I@Z 0043ccd0 f   libcpmtd:stdthrow.obj
 0001:0003bd00       ?_Debug_message@std@@YAXPBG0I@Z 0043cd00 f   libcpmtd:stdthrow.obj
 0001:0003bd20       ??_U@YAPAXI@Z              0043cd20 f   libcpmtd:newaop.obj
 0001:0003bd40       ??0_Init_locks@std@@QAE@XZ 0043cd40 f   libcpmtd:xlock.obj
 0001:0003bd90       ??1_Init_locks@std@@QAE@XZ 0043cd90 f   libcpmtd:xlock.obj
 0001:0003bde0       ?_Init_locks_ctor@_Init_locks@std@@CAXPAV12@@Z 0043cde0 f   libcpmtd:xlock.obj
 0001:0003be30       ?_Init_locks_dtor@_Init_locks@std@@CAXPAV12@@Z 0043ce30 f   libcpmtd:xlock.obj
 0001:0003be80       ??0_Lockit@std@@QAE@XZ     0043ce80 f   libcpmtd:xlock.obj
 0001:0003beb0       ??0_Lockit@std@@QAE@H@Z    0043ceb0 f   libcpmtd:xlock.obj
 0001:0003bef0       ??1_Lockit@std@@QAE@XZ     0043cef0 f   libcpmtd:xlock.obj
 0001:0003bf20       ?_Lockit_ctor@_Lockit@std@@CAXPAV12@@Z 0043cf20 f   libcpmtd:xlock.obj
 0001:0003bf40       ?_Lockit_ctor@_Lockit@std@@CAXPAV12@H@Z 0043cf40 f   libcpmtd:xlock.obj
 0001:0003bf70       ?_Lockit_dtor@_Lockit@std@@CAXPAV12@@Z 0043cf70 f   libcpmtd:xlock.obj
 0001:0003bf90       ?_Lockit_ctor@_Lockit@std@@SAXH@Z 0043cf90 f   libcpmtd:xlock.obj
 0001:0003bfb0       ?_Lockit_dtor@_Lockit@std@@SAXH@Z 0043cfb0 f   libcpmtd:xlock.obj
 0001:0003bfd0       ?_Xinvalid_argument@std@@YAXPBD@Z 0043cfd0 f   libcpmtd:xthrow.obj
 0001:0003c000       ??0invalid_argument@std@@QAE@PBD@Z 0043d000 f i libcpmtd:xthrow.obj
 0001:0003c030       ??0logic_error@std@@QAE@PBD@Z 0043d030 f i libcpmtd:xthrow.obj
 0001:0003c060       ??_Glogic_error@std@@UAEPAXI@Z 0043d060 f i libcpmtd:xthrow.obj
 0001:0003c060       ??_Elogic_error@std@@UAEPAXI@Z 0043d060 f i libcpmtd:xthrow.obj
 0001:0003c090       ??1logic_error@std@@UAE@XZ 0043d090 f i libcpmtd:xthrow.obj
 0001:0003c0b0       ??_Einvalid_argument@std@@UAEPAXI@Z 0043d0b0 f i libcpmtd:xthrow.obj
 0001:0003c0b0       ??_Ginvalid_argument@std@@UAEPAXI@Z 0043d0b0 f i libcpmtd:xthrow.obj
 0001:0003c0e0       ??1invalid_argument@std@@UAE@XZ 0043d0e0 f i libcpmtd:xthrow.obj
 0001:0003c100       ??0invalid_argument@std@@QAE@ABV01@@Z 0043d100 f i libcpmtd:xthrow.obj
 0001:0003c130       ??0logic_error@std@@QAE@ABV01@@Z 0043d130 f i libcpmtd:xthrow.obj
 0001:0003c160       ?_Xlength_error@std@@YAXPBD@Z 0043d160 f   libcpmtd:xthrow.obj
 0001:0003c190       ??0length_error@std@@QAE@PBD@Z 0043d190 f i libcpmtd:xthrow.obj
 0001:0003c1c0       ??_Elength_error@std@@UAEPAXI@Z 0043d1c0 f i libcpmtd:xthrow.obj
 0001:0003c1c0       ??_Glength_error@std@@UAEPAXI@Z 0043d1c0 f i libcpmtd:xthrow.obj
 0001:0003c1f0       ??1length_error@std@@UAE@XZ 0043d1f0 f i libcpmtd:xthrow.obj
 0001:0003c210       ??0length_error@std@@QAE@ABV01@@Z 0043d210 f i libcpmtd:xthrow.obj
 0001:0003c240       ?_Xout_of_range@std@@YAXPBD@Z 0043d240 f   libcpmtd:xthrow.obj
 0001:0003c270       ??0out_of_range@std@@QAE@PBD@Z 0043d270 f i libcpmtd:xthrow.obj
 0001:0003c2a0       ??_Eout_of_range@std@@UAEPAXI@Z 0043d2a0 f i libcpmtd:xthrow.obj
 0001:0003c2a0       ??_Gout_of_range@std@@UAEPAXI@Z 0043d2a0 f i libcpmtd:xthrow.obj
 0001:0003c2d0       ??1out_of_range@std@@UAE@XZ 0043d2d0 f i libcpmtd:xthrow.obj
 0001:0003c2f0       ??0out_of_range@std@@QAE@ABV01@@Z 0043d2f0 f i libcpmtd:xthrow.obj
 0001:0003c320       ?_Xoverflow_error@std@@YAXPBD@Z 0043d320 f   libcpmtd:xthrow.obj
 0001:0003c350       ??0overflow_error@std@@QAE@PBD@Z 0043d350 f i libcpmtd:xthrow.obj
 0001:0003c380       ??0runtime_error@std@@QAE@PBD@Z 0043d380 f i libcpmtd:xthrow.obj
 0001:0003c3b0       ??_Eruntime_error@std@@UAEPAXI@Z 0043d3b0 f i libcpmtd:xthrow.obj
 0001:0003c3b0       ??_Gruntime_error@std@@UAEPAXI@Z 0043d3b0 f i libcpmtd:xthrow.obj
 0001:0003c3e0       ??1runtime_error@std@@UAE@XZ 0043d3e0 f i libcpmtd:xthrow.obj
 0001:0003c400       ??_Eoverflow_error@std@@UAEPAXI@Z 0043d400 f i libcpmtd:xthrow.obj
 0001:0003c400       ??_Goverflow_error@std@@UAEPAXI@Z 0043d400 f i libcpmtd:xthrow.obj
 0001:0003c430       ??1overflow_error@std@@UAE@XZ 0043d430 f i libcpmtd:xthrow.obj
 0001:0003c450       ??0overflow_error@std@@QAE@ABV01@@Z 0043d450 f i libcpmtd:xthrow.obj
 0001:0003c480       ??0runtime_error@std@@QAE@ABV01@@Z 0043d480 f i libcpmtd:xthrow.obj
 0001:0003c4b0       ?_Xruntime_error@std@@YAXPBD@Z 0043d4b0 f   libcpmtd:xthrow.obj
 0001:0003c4e0       __Once                     0043d4e0 f   libcpmtd:xmtx.obj
 0001:0003c540       __Mtxinit                  0043d540 f   libcpmtd:xmtx.obj
 0001:0003c560       __Mtxdst                   0043d560 f   libcpmtd:xmtx.obj
 0001:0003c580       __Mtxlock                  0043d580 f   libcpmtd:xmtx.obj
 0001:0003c5a0       __Mtxunlock                0043d5a0 f   libcpmtd:xmtx.obj
 0001:0003c5c0       __RTC_CheckEsp             0043d5c0 f   LIBCMTD:_stack_.obj
 0001:0003c5f0       @_RTC_CheckStackVars@8     0043d5f0 f   LIBCMTD:_stack_.obj
 0001:0003c660       @_RTC_AllocaHelper@12      0043d660 f   LIBCMTD:_stack_.obj
 0001:0003c6a0       @_RTC_CheckStackVars2@12   0043d6a0 f   LIBCMTD:_stack_.obj
 0001:0003c780       __RTC_InitBase             0043d780 f   LIBCMTD:_init_.obj
 0001:0003c7b0       __RTC_Shutdown             0043d7b0 f   LIBCMTD:_init_.obj
 0001:0003c7d0       ??3@YAXPAX@Z               0043d7d0 f   LIBCMTD:dbgdel.obj
 0001:0003c8c0       ??2@YAPAXI@Z               0043d8c0 f   LIBCMTD:new.obj
 0001:0003c940       ?_JumpToContinuation@@YGXPAXPAUEHRegistrationNode@@@Z 0043d940 f   LIBCMTD:_trnsctrl_.obj
 0001:0003c980       ?_CallMemberFunction0@@YGXPAX0@Z 0043d980 f   LIBCMTD:_trnsctrl_.obj
 0001:0003c990       ?_CallMemberFunction1@@YGXPAX00@Z 0043d990 f   LIBCMTD:_trnsctrl_.obj
 0001:0003c9a0       ?_CallMemberFunction2@@YGXPAX00H@Z 0043d9a0 f   LIBCMTD:_trnsctrl_.obj
 0001:0003c9b0       ?_UnwindNestedFrames@@YGXPAUEHRegistrationNode@@PAUEHExceptionRecord@@@Z 0043d9b0 f   LIBCMTD:_trnsctrl_.obj
 0001:0003ca10       ___CxxFrameHandler         0043da10 f   LIBCMTD:_trnsctrl_.obj
 0001:0003ca50       ___CxxFrameHandler3        0043da50 f   LIBCMTD:_trnsctrl_.obj
 0001:0003ca90       ___CxxFrameHandler2        0043da90 f   LIBCMTD:_trnsctrl_.obj
 0001:0003cad0       ___CxxLongjmpUnwind@4      0043dad0 f   LIBCMTD:_trnsctrl_.obj
 0001:0003cb00       ?_CallCatchBlock2@@YAPAXPAUEHRegistrationNode@@PBU_s_FuncInfo@@PAXHK@Z 0043db00 f   LIBCMTD:_trnsctrl_.obj
 0001:0003cbc0       ?_CallSETranslator@@YAHPAUEHExceptionRecord@@PAUEHRegistrationNode@@PAX2PBU_s_FuncInfo@@H1@Z 0043dbc0 f   LIBCMTD:_trnsctrl_.obj
 0001:0003cd60       ?_GetRangeOfTrysToCheck@@YAPBU_s_TryBlockMapEntry@@PBU_s_FuncInfo@@HHPAI1@Z 0043dd60 f   LIBCMTD:_trnsctrl_.obj
 0001:0003cde0       __CreateFrameInfo          0043dde0 f   LIBCMTD:_trnsctrl_.obj
 0001:0003ce10       __IsExceptionObjectToBeDestroyed 0043de10 f   LIBCMTD:_trnsctrl_.obj
 0001:0003ce40       __FindAndUnlinkFrame       0043de40 f   LIBCMTD:_trnsctrl_.obj
 0001:0003cea0       @__security_check_cookie@4 0043dea0 f   LIBCMTD:secchk.obj
 0001:0003ceb0       ?name@type_info@@QBEPBDPAU__type_info_node@@@Z 0043deb0 f   LIBCMTD:typinfo.obj
 0001:0003ced0       ??1type_info@@UAE@XZ       0043ded0 f   LIBCMTD:typinfo.obj
 0001:0003cf00       ??_Etype_info@@UAEPAXI@Z   0043df00 f i LIBCMTD:typinfo.obj
 0001:0003cf00       ??_Gtype_info@@UAEPAXI@Z   0043df00 f i LIBCMTD:typinfo.obj
 0001:0003cf30       ?_name_internal_method@type_info@@QBEPBDPAU__type_info_node@@@Z 0043df30 f   LIBCMTD:typinfo.obj
 0001:0003cf50       ?_type_info_dtor_internal_method@type_info@@QAEXXZ 0043df50 f   LIBCMTD:typinfo.obj
 0001:0003cf70       ??8type_info@@QBE_NABV0@@Z 0043df70 f   LIBCMTD:typinfo.obj
 0001:0003cfa0       ??9type_info@@QBE_NABV0@@Z 0043dfa0 f   LIBCMTD:typinfo.obj
 0001:0003cfd0       ?before@type_info@@QBEHABV1@@Z 0043dfd0 f   LIBCMTD:typinfo.obj
 0001:0003d000       ?raw_name@type_info@@QBEPBDXZ 0043e000 f   LIBCMTD:typinfo.obj
 0001:0003d020       ??0type_info@@AAE@ABV0@@Z  0043e020 f   LIBCMTD:typinfo.obj
 0001:0003d040       ??4type_info@@AAEAAV0@ABV0@@Z 0043e040 f   LIBCMTD:typinfo.obj
 0001:0003d060       __purecall                 0043e060 f   LIBCMTD:purevirt.obj
 0001:0003d0a0       __set_purecall_handler     0043e0a0 f   LIBCMTD:purevirt.obj
 0001:0003d0e0       __get_purecall_handler     0043e0e0 f   LIBCMTD:purevirt.obj
 0001:0003d100       __initp_misc_invarg        0043e100 f   LIBCMTD:invarg.obj
 0001:0003d110       __invalid_parameter        0043e110 f   LIBCMTD:invarg.obj
 0001:0003d170       __invoke_watson            0043e170 f   LIBCMTD:invarg.obj
 0001:0003d1a0       __call_reportfault         0043e1a0 f   LIBCMTD:invarg.obj
 0001:0003d2f0       __set_invalid_parameter_handler 0043e2f0 f   LIBCMTD:invarg.obj
 0001:0003d330       __get_invalid_parameter_handler 0043e330 f   LIBCMTD:invarg.obj
 0001:0003d360       ?_invalid_parameter@@YAXPBG00II@Z 0043e360 f   LIBCMTD:invarg.obj
 0001:0003d390       ?_invoke_watson@@YAXPBG00II@Z 0043e390 f   LIBCMTD:invarg.obj
 0001:0003d3b0       __CrtSetReportHookW2       0043e3b0 f   LIBCMTD:dbgrptw.obj
 0001:0003d6e0       __CrtDbgReportW            0043e6e0 f   LIBCMTD:dbgrptw.obj
 0001:0003d720       __CrtDbgReportWV           0043e720 f i LIBCMTD:dbgrptw.obj
 0001:0003d750       ___crtMessageWindowW       0043e750 f   LIBCMTD:dbgrptw.obj
 0001:0003db50       __invoke_watson_if_error   0043eb50 f i LIBCMTD:dbgrptw.obj
 0001:0003db80       __invoke_watson_if_oneof   0043eb80 f i LIBCMTD:dbgrptw.obj
 0001:0003dbc0       ?_CrtDbgReportW@@YAHHPBGH00ZZ 0043ebc0 f   LIBCMTD:dbgrptw.obj
 0001:0003dc00       _mainCRTStartup            0043ec00 f   LIBCMTD:crt0.obj
 0001:0003de60       __CxxThrowException@8      0043ee60 f   LIBCMTD:throw.obj
 0001:0003dec0       __wassert                  0043eec0 f   LIBCMTD:wassert.obj
 0001:0003ea90       _abort                     0043fa90 f   LIBCMTD:abort.obj
 0001:0003eaf0       __set_abort_behavior       0043faf0 f   LIBCMTD:abort.obj
 0001:0003eb20       _atol                      0043fb20 f   LIBCMTD:atox.obj
 0001:0003eb40       __atol_l                   0043fb40 f   LIBCMTD:atox.obj
 0001:0003eb60       _atoi                      0043fb60 f   LIBCMTD:atox.obj
 0001:0003eb80       __atoi_l                   0043fb80 f   LIBCMTD:atox.obj
 0001:0003eba0       __atoi64                   0043fba0 f   LIBCMTD:atox.obj
 0001:0003ebc0       __atoi64_l                 0043fbc0 f   LIBCMTD:atox.obj
 0001:0003ebe0       _getenv                    0043fbe0 f   LIBCMTD:getenv.obj
 0001:0003ed30       __getenv_helper_nolock     0043fd30 f   LIBCMTD:getenv.obj
 0001:0003ee50       _getenv_s                  0043fe50 f   LIBCMTD:getenv.obj
 0001:0003f080       __dupenv_s                 00440080 f   LIBCMTD:getenv.obj
 0001:0003f0b0       __dupenv_s_dbg             004400b0 f   LIBCMTD:getenv.obj
 0001:0003f300       _memcpy                    00440300 f   LIBCMTD:memcpy.obj
 0001:0003f670       _strcpy                    00440670 f   LIBCMTD:strcat.obj
 0001:0003f680       _strcat                    00440680 f   LIBCMTD:strcat.obj
 0001:0003f770       _strlen                    00440770 f   LIBCMTD:strlen.obj
 0001:0003f800       ??_V@YAXPAX@Z              00440800 f   LIBCMTD:delete2.obj
 0001:0003f820       _strcmp                    00440820 f   LIBCMTD:strcmp.obj
 0001:0003f8b0       ??_M@YGXPAXIHP6EX0@Z@Z     004408b0 f   LIBCMTD:ehvecdtr.obj
 0001:0003f970       ?__ArrayUnwind@@YGXPAXIHP6EX0@Z@Z 00440970 f   LIBCMTD:ehvecdtr.obj
 0001:0003fa30       ??0exception@std@@QAE@XZ   00440a30 f   LIBCMTD:stdexcpt.obj
 0001:0003fa60       ??_Eexception@std@@UAEPAXI@Z 00440a60 f i LIBCMTD:stdexcpt.obj
 0001:0003fa60       ??_Gexception@std@@UAEPAXI@Z 00440a60 f i LIBCMTD:stdexcpt.obj
 0001:0003fa90       ??0exception@std@@QAE@ABQBD@Z 00440a90 f   LIBCMTD:stdexcpt.obj
 0001:0003fad0       ??0exception@std@@QAE@ABQBDH@Z 00440ad0 f   LIBCMTD:stdexcpt.obj
 0001:0003fb00       ??0exception@std@@QAE@ABV01@@Z 00440b00 f   LIBCMTD:stdexcpt.obj
 0001:0003fb40       ??4exception@std@@QAEAAV01@ABV01@@Z 00440b40 f   LIBCMTD:stdexcpt.obj
 0001:0003fb90       ??1exception@std@@UAE@XZ   00440b90 f   LIBCMTD:stdexcpt.obj
 0001:0003fbb0       ?what@exception@std@@UBEPBDXZ 00440bb0 f   LIBCMTD:stdexcpt.obj
 0001:0003fbe0       ?_Copy_str@exception@std@@AAEXPBD@Z 00440be0 f   LIBCMTD:stdexcpt.obj
 0001:0003fc50       ?_Tidy@exception@std@@AAEXXZ 00440c50 f   LIBCMTD:stdexcpt.obj
 0001:0003fc90       ??0bad_cast@std@@QAE@PBD@Z 00440c90 f   LIBCMTD:stdexcpt.obj
 0001:0003fcc0       ??_Gbad_cast@std@@UAEPAXI@Z 00440cc0 f i LIBCMTD:stdexcpt.obj
 0001:0003fcc0       ??_Ebad_cast@std@@UAEPAXI@Z 00440cc0 f i LIBCMTD:stdexcpt.obj
 0001:0003fcf0       ??0bad_cast@std@@QAE@ABV01@@Z 00440cf0 f   LIBCMTD:stdexcpt.obj
 0001:0003fd20       ??1bad_cast@std@@UAE@XZ    00440d20 f   LIBCMTD:stdexcpt.obj
 0001:0003fd40       ??0bad_typeid@std@@QAE@PBD@Z 00440d40 f   LIBCMTD:stdexcpt.obj
 0001:0003fd70       ??_Ebad_typeid@std@@UAEPAXI@Z 00440d70 f i LIBCMTD:stdexcpt.obj
 0001:0003fd70       ??_Gbad_typeid@std@@UAEPAXI@Z 00440d70 f i LIBCMTD:stdexcpt.obj
 0001:0003fda0       ??0bad_typeid@std@@QAE@ABV01@@Z 00440da0 f   LIBCMTD:stdexcpt.obj
 0001:0003fdd0       ??1bad_typeid@std@@UAE@XZ  00440dd0 f   LIBCMTD:stdexcpt.obj
 0001:0003fdf0       ??0__non_rtti_object@std@@QAE@PBD@Z 00440df0 f   LIBCMTD:stdexcpt.obj
 0001:0003fe20       ??_G__non_rtti_object@std@@UAEPAXI@Z 00440e20 f i LIBCMTD:stdexcpt.obj
 0001:0003fe20       ??_E__non_rtti_object@std@@UAEPAXI@Z 00440e20 f i LIBCMTD:stdexcpt.obj
 0001:0003fe50       ??0__non_rtti_object@std@@QAE@ABV01@@Z 00440e50 f   LIBCMTD:stdexcpt.obj
 0001:0003fe80       ??1__non_rtti_object@std@@UAE@XZ 00440e80 f   LIBCMTD:stdexcpt.obj
 0001:0003fea0       _memmove                   00440ea0 f   LIBCMTD:memmove.obj
 0001:00040210       _fflush                    00441210 f   LIBCMTD:fflush.obj
 0001:000402b0       __fflush_nolock            004412b0 f   LIBCMTD:fflush.obj
 0001:00040310       __flush                    00441310 f   LIBCMTD:fflush.obj
 0001:000403d0       __flushall                 004413d0 f   LIBCMTD:fflush.obj
 0001:000405a0       _fprintf                   004415a0 f   LIBCMTD:fprintf.obj
 0001:00040840       __fprintf_l                00441840 f   LIBCMTD:fprintf.obj
 0001:00040870       __fprintf_s_l              00441870 f   LIBCMTD:fprintf.obj
 0001:000408a0       _fprintf_s                 004418a0 f   LIBCMTD:fprintf.obj
 0001:000408d0       __fprintf_p_l              004418d0 f   LIBCMTD:fprintf.obj
 0001:00040900       __fprintf_p                00441900 f   LIBCMTD:fprintf.obj
 0001:00040930       ___iob_func                00441930 f   LIBCMTD:_file.obj
 0001:00040940       ___initstdio               00441940 f   LIBCMTD:_file.obj
 0001:00040a90       ___endstdio                00441a90 f   LIBCMTD:_file.obj
 0001:00040ac0       __lock_file                00441ac0 f   LIBCMTD:_file.obj
 0001:00040b20       __lock_file2               00441b20 f   LIBCMTD:_file.obj
 0001:00040b60       __unlock_file              00441b60 f   LIBCMTD:_file.obj
 0001:00040bc0       __unlock_file2             00441bc0 f   LIBCMTD:_file.obj
 0001:00040c00       __onexit                   00441c00 f   LIBCMTD:onexit.obj
 0001:00040dd0       _atexit                    00441dd0 f   LIBCMTD:onexit.obj
 0001:00040df0       ___onexitinit              00441df0 f   LIBCMTD:onexit.obj
 0001:00040e50       _strncpy                   00441e50 f   LIBCMTD:strncpy.obj
 0001:00040f80       _memcmp                    00441f80 f   LIBCMTD:memcmp.obj
 0001:000419f0       _free                      004429f0 f   LIBCMTD:dbgfree.obj
 0001:00041a10       _malloc                    00442a10 f   LIBCMTD:dbgmalloc.obj
 0001:00041a40       _memset                    00442a40 f   LIBCMTD:memset.obj
 0001:00041ac0       __snprintf                 00442ac0 f   LIBCMTD:snprintf.obj
 0001:00041c90       __snprintf_l               00442c90 f   LIBCMTD:snprintf.obj
 0001:00041cc0       __allrem                   00442cc0 f   LIBCMTD:llrem.obj
 0001:00041d80       __time64                   00442d80 f   LIBCMTD:time64.obj
 0001:00041e00       __allshl                   00442e00 f   LIBCMTD:llshl.obj
 0001:00041e20       __aulldiv                  00442e20 f   LIBCMTD:ulldiv.obj
 0001:00041e90       _calloc                    00442e90 f   LIBCMTD:dbgcalloc.obj
 0001:00041ec0       __alldiv                   00442ec0 f   LIBCMTD:lldiv.obj
 0001:00041f70       __aullrem                  00442f70 f   LIBCMTD:ullrem.obj
 0001:00041ff0       __allmul                   00442ff0 f   LIBCMTD:llmul.obj
 0001:00042030       __aullshr                  00443030 f   LIBCMTD:ullshr.obj
 0001:00042050       __allshr                   00443050 f   LIBCMTD:llshr.obj
 0001:00042080       _srand                     00443080 f   LIBCMTD:rand.obj
 0001:000420a0       _rand                      004430a0 f   LIBCMTD:rand.obj
 0001:000420e0       ?_RTC_Failure@@YAXPAXH@Z   004430e0 f   LIBCMTD:_error_.obj
 0001:00042490       ?_RTC_StackFailure@@YAXPAXPBD@Z 00443490 f   LIBCMTD:_error_.obj
 0001:00042590       ?_RTC_AllocaFailure@@YAXPAXPAU_RTC_ALLOCA_NODE@@H@Z 00443590 f   LIBCMTD:_error_.obj
 0001:00042740       __RTC_UninitUse            00443740 f   LIBCMTD:_error_.obj
 0001:00042830       __RTC_NumErrors            00443830 f   LIBCMTD:_userapi_.obj
 0001:00042840       __RTC_GetErrDesc           00443840 f   LIBCMTD:_userapi_.obj
 0001:00042860       __RTC_SetErrorType         00443860 f   LIBCMTD:_userapi_.obj
 0001:00042890       __RTC_SetErrorFunc         00443890 f   LIBCMTD:_userapi_.obj
 0001:000428b0       __RTC_SetErrorFuncW        004438b0 f   LIBCMTD:_userapi_.obj
 0001:000428d0       ?_RTC_GetErrorFunc@@YAP6AHHPBDH00ZZPBX@Z 004438d0 f   LIBCMTD:_userapi_.obj
 0001:000428e0       ?_RTC_GetErrorFuncW@@YAP6AHHPB_WH00ZZPBX@Z 004438e0 f   LIBCMTD:_userapi_.obj
 0001:000428f0       __chkesp                   004438f0 f   LIBCMTD:chkesp.obj
 0001:00042930       __CRT_RTC_INIT             00443930 f   LIBCMTD:chkesp.obj
 0001:00042940       __CRT_RTC_INITW            00443940 f   LIBCMTD:chkesp.obj
 0001:00042950       __mtinitlocks              00443950 f   LIBCMTD:mlock.obj
 0001:000429e0       __mtdeletelocks            004439e0 f   LIBCMTD:mlock.obj
 0001:00042aa0       __mtinitlocknum            00443aa0 f   LIBCMTD:mlock.obj
 0001:00042bf0       __lock                     00443bf0 f   LIBCMTD:mlock.obj
 0001:00042c30       __unlock                   00443c30 f   LIBCMTD:mlock.obj
 0001:00042c50       __lockerr_exit             00443c50 f   LIBCMTD:mlock.obj
 0001:00042c70       __malloc_dbg               00443c70 f   LIBCMTD:dbgheap.obj
 0001:00042ca0       __nh_malloc                00443ca0 f   LIBCMTD:dbgheap.obj
 0001:00042cc0       __nh_malloc_dbg            00443cc0 f   LIBCMTD:dbgheap.obj
 0001:00042da0       __heap_alloc               00443da0 f   LIBCMTD:dbgheap.obj
 0001:00043180       __heap_alloc_dbg           00444180 f   LIBCMTD:dbgheap.obj
 0001:000431e0       __calloc_dbg_impl          004441e0 f   LIBCMTD:dbgheap.obj
 0001:00043260       __calloc_dbg               00444260 f   LIBCMTD:dbgheap.obj
 0001:000432c0       __recalloc                 004442c0 f   LIBCMTD:dbgheap.obj
 0001:000432f0       __realloc_dbg              004442f0 f   LIBCMTD:dbgheap.obj
 0001:00043990       __recalloc_dbg             00444990 f   LIBCMTD:dbgheap.obj
 0001:00043a40       __expand                   00444a40 f   LIBCMTD:dbgheap.obj
 0001:00043a70       __expand_dbg               00444a70 f   LIBCMTD:dbgheap.obj
 0001:00043b80       __free_nolock              00444b80 f   LIBCMTD:dbgheap.obj
 0001:00043ba0       __free_dbg                 00444ba0 f   LIBCMTD:dbgheap.obj
 0001:00043c30       __free_dbg_nolock          00444c30 f   LIBCMTD:dbgheap.obj
 0001:00044110       __msize                    00445110 f   LIBCMTD:dbgheap.obj
 0001:00044130       __msize_dbg                00445130 f   LIBCMTD:dbgheap.obj
 0001:00044320       __CrtSetBreakAlloc         00445320 f   LIBCMTD:dbgheap.obj
 0001:00044340       __CrtSetDbgBlockType       00445340 f   LIBCMTD:dbgheap.obj
 0001:00044430       __CrtSetAllocHook          00445430 f   LIBCMTD:dbgheap.obj
 0001:00044450       __CrtGetAllocHook          00445450 f   LIBCMTD:dbgheap.obj
 0001:000444a0       __CrtCheckMemory           004454a0 f   LIBCMTD:dbgheap.obj
 0001:00044900       __CrtSetDbgFlag            00445900 f   LIBCMTD:dbgheap.obj
 0001:00044a50       __CrtDoForAllClientObjects 00445a50 f   LIBCMTD:dbgheap.obj
 0001:00044b70       __CrtIsValidPointer        00445b70 f   LIBCMTD:dbgheap.obj
 0001:00044b80       __CrtIsValidHeapPointer    00445b80 f   LIBCMTD:dbgheap.obj
 0001:00044bd0       __CrtIsMemoryBlock         00445bd0 f   LIBCMTD:dbgheap.obj
 0001:00044d40       __CrtReportBlockType       00445d40 f   LIBCMTD:dbgheap.obj
 0001:00044d70       __CrtSetDumpClient         00445d70 f   LIBCMTD:dbgheap.obj
 0001:00044d90       __CrtGetDumpClient         00445d90 f   LIBCMTD:dbgheap.obj
 0001:00044da0       __CrtMemCheckpoint         00445da0 f   LIBCMTD:dbgheap.obj
 0001:00044fc0       __CrtMemDifference         00445fc0 f   LIBCMTD:dbgheap.obj
 0001:000451e0       __CrtMemDumpAllObjectsSince 004461e0 f   LIBCMTD:dbgheap.obj
 0001:00045220       ??0_LocaleUpdate@@QAE@PAUlocaleinfo_struct@@@Z 00446220 f i LIBCMTD:dbgheap.obj
 0001:00045300       ??1_LocaleUpdate@@QAE@XZ   00446300 f i LIBCMTD:dbgheap.obj
 0001:00045330       ?GetLocaleT@_LocaleUpdate@@QAEPAUlocaleinfo_struct@@XZ 00446330 f i LIBCMTD:dbgheap.obj
 0001:000457f0       __CrtDumpMemoryLeaks       004467f0 f   LIBCMTD:dbgheap.obj
 0001:00045870       __CrtMemDumpStatistics     00446870 f   LIBCMTD:dbgheap.obj
 0001:00045980       __aligned_malloc           00446980 f   LIBCMTD:dbgheap.obj
 0001:000459a0       __aligned_malloc_dbg       004469a0 f   LIBCMTD:dbgheap.obj
 0001:000459d0       __aligned_realloc          004469d0 f   LIBCMTD:dbgheap.obj
 0001:00045a00       __aligned_recalloc         00446a00 f   LIBCMTD:dbgheap.obj
 0001:00045a30       __aligned_realloc_dbg      00446a30 f   LIBCMTD:dbgheap.obj
 0001:00045a60       __aligned_recalloc_dbg     00446a60 f   LIBCMTD:dbgheap.obj
 0001:00045a90       __aligned_offset_malloc    00446a90 f   LIBCMTD:dbgheap.obj
 0001:00045ab0       __aligned_offset_malloc_dbg 00446ab0 f   LIBCMTD:dbgheap.obj
 0001:00045c70       __aligned_offset_realloc   00446c70 f   LIBCMTD:dbgheap.obj
 0001:00045ca0       __aligned_offset_recalloc  00446ca0 f   LIBCMTD:dbgheap.obj
 0001:00045cd0       __aligned_offset_realloc_dbg 00446cd0 f   LIBCMTD:dbgheap.obj
 0001:00045fc0       __aligned_offset_recalloc_dbg 00446fc0 f   LIBCMTD:dbgheap.obj
 0001:00046080       __aligned_free             00447080 f   LIBCMTD:dbgheap.obj
 0001:000460a0       __aligned_free_dbg         004470a0 f   LIBCMTD:dbgheap.obj
 0001:00046150       __CrtSetDebugFillThreshold 00447150 f   LIBCMTD:dbgheap.obj
 0001:00046170       __CrtSetCheckCount         00447170 f   LIBCMTD:dbgheap.obj
 0001:00046190       __CrtGetCheckCount         00447190 f   LIBCMTD:dbgheap.obj
 0001:000461a0       __aligned_msize            004471a0 f   LIBCMTD:dbgheap.obj
 0001:000461c0       __aligned_msize_dbg        004471c0 f   LIBCMTD:dbgheap.obj
 0001:000462d0       __except_handler4          004472d0 f   LIBCMTD:chandler4.obj
 0001:000464f0       __initp_heap_handler       004474f0 f   LIBCMTD:handler.obj
 0001:00046500       ?_set_new_handler@@YAP6AHI@ZP6AHI@Z@Z 00447500 f   LIBCMTD:handler.obj
 0001:00046540       ?_set_new_handler@@YAP6AHI@ZH@Z 00447540 f   LIBCMTD:handler.obj
 0001:00046580       ?_query_new_handler@@YAP6AHI@ZXZ 00447580 f   LIBCMTD:handler.obj
 0001:000465a0       __callnewh                 004475a0 f   LIBCMTD:handler.obj
 0001:000465e0       ___InternalCxxFrameHandler 004475e0 f   LIBCMTD:frame.obj
 0001:00046be0       ??0bad_exception@std@@QAE@PBD@Z 00447be0 f i LIBCMTD:frame.obj
 0001:00046c10       ??1bad_exception@std@@UAE@XZ 00447c10 f i LIBCMTD:frame.obj
 0001:00046c30       ??_Gbad_exception@std@@UAEPAXI@Z 00447c30 f i LIBCMTD:frame.obj
 0001:00046c30       ??_Ebad_exception@std@@UAEPAXI@Z 00447c30 f i LIBCMTD:frame.obj
 0001:00046c60       ??0bad_exception@std@@QAE@ABV01@@Z 00447c60 f i LIBCMTD:frame.obj
 0001:00046e20       ___TypeMatch               00447e20 f   LIBCMTD:frame.obj
 0001:00046ed0       ___FrameUnwindFilter       00447ed0 f   LIBCMTD:frame.obj
 0001:00046f50       ___FrameUnwindToState      00447f50 f   LIBCMTD:frame.obj
 0001:00047490       ___BuildCatchObjectHelper  00448490 f   LIBCMTD:frame.obj
 0001:00047700       ___BuildCatchObject        00448700 f   LIBCMTD:frame.obj
 0001:00047810       ___DestructExceptionObject 00448810 f   LIBCMTD:frame.obj
 0001:000478c0       ___AdjustPointer           004488c0 f   LIBCMTD:frame.obj
 0001:00047910       ?__uncaught_exception@@YA_NXZ 00448910 f   LIBCMTD:frame.obj
 0001:00047930       ___CxxExceptionFilter      00448930 f   LIBCMTD:frame.obj
 0001:00047b30       ___CxxRegisterExceptionObject 00448b30 f   LIBCMTD:frame.obj
 0001:00047c60       ___CxxDetectRethrow        00448c60 f   LIBCMTD:frame.obj
 0001:00047cf0       ___CxxUnregisterExceptionObject 00448cf0 f   LIBCMTD:frame.obj
 0001:00047e70       ___CxxQueryExceptionSize   00448e70 f   LIBCMTD:frame.obj
 0001:00047e80       ___CxxCallUnwindDtor       00448e80 f   LIBCMTD:frame.obj
 0001:00047f00       ___CxxCallUnwindDelDtor    00448f00 f   LIBCMTD:frame.obj
 0001:00047f80       ___CxxCallUnwindStdDelDtor 00448f80 f   LIBCMTD:frame.obj
 0001:00048000       ___CxxCallUnwindVecDtor    00449000 f   LIBCMTD:frame.obj
 0001:00048230       ?_is_exception_typeof@@YAHABVtype_info@@PAU_EXCEPTION_POINTERS@@@Z 00449230 f   LIBCMTD:frame.obj
 0001:00048310       __CallSettingFrame@12      00449310 f   LIBCMTD:lowhelpr.obj
 0001:00048337       __NLG_Return               00449337     LIBCMTD:lowhelpr.obj
 0001:00048360       __encoded_null             00449360 f   LIBCMTD:tidtable.obj
 0001:00048370       ___crtTlsAlloc@4           00449370 f   LIBCMTD:tidtable.obj
 0001:00048380       ___fls_getvalue@4          00449380 f   LIBCMTD:tidtable.obj
 0001:000483a0       ___get_flsindex            004493a0 f   LIBCMTD:tidtable.obj
 0001:000483b0       ___set_flsgetvalue         004493b0 f   LIBCMTD:tidtable.obj
 0001:00048400       ___fls_setvalue@8          00449400 f   LIBCMTD:tidtable.obj
 0001:00048420       __mtinit                   00449420 f   LIBCMTD:tidtable.obj
 0001:00048620       __mtterm                   00449620 f   LIBCMTD:tidtable.obj
 0001:00048680       __initptd                  00449680 f   LIBCMTD:tidtable.obj
 0001:000487b0       __getptd_noexit            004497b0 f   LIBCMTD:tidtable.obj
 0001:00048870       __getptd                   00449870 f   LIBCMTD:tidtable.obj
 0001:000488a0       __freefls@4                004498a0 f   LIBCMTD:tidtable.obj
 0001:00048ab0       __freeptd                  00449ab0 f   LIBCMTD:tidtable.obj
 0001:00048b30       ___threadid                00449b30 f   LIBCMTD:tidtable.obj
 0001:00048b40       ___threadhandle            00449b40 f   LIBCMTD:tidtable.obj
 0001:00048b50       __initp_eh_hooks           00449b50 f   LIBCMTD:hooks.obj
 0001:00048b70       ?terminate@@YAXXZ          00449b70 f   LIBCMTD:hooks.obj
 0001:00048bf0       ?unexpected@@YAXXZ         00449bf0 f   LIBCMTD:hooks.obj
 0001:00048c20       ?_inconsistency@@YAXXZ     00449c20 f   LIBCMTD:hooks.obj
 0001:00048cb0       ___report_gsfailure        00449cb0 f   LIBCMTD:gs_report.obj
 0001:00048dc0       ?_Type_info_dtor@type_info@@CAXPAV1@@Z 00449dc0 f   LIBCMTD:typname.obj
 0001:00048ed0       ?_Name_base@type_info@@CAPBDPBV1@PAU__type_info_node@@@Z 00449ed0 f   LIBCMTD:typname.obj
 0001:00049080       ?_Type_info_dtor_internal@type_info@@CAXPAV1@@Z 0044a080 f   LIBCMTD:typname.obj
 0001:00049190       ___unDNameHelper           0044a190 f   LIBCMTD:typname.obj
 0001:000491d0       ?_Name_base_internal@type_info@@CAPBDPBV1@PAU__type_info_node@@@Z 0044a1d0 f   LIBCMTD:typname.obj
 0001:00049390       ___clean_type_info_names_internal 0044a390 f   LIBCMTD:typname.obj
 0001:00049450       __FF_MSGBANNER             0044a450 f   LIBCMTD:crt0msg.obj
 0001:000494a0       __GET_RTERRMSG             0044a4a0 f   LIBCMTD:crt0msg.obj
 0001:000494f0       __NMSG_WRITE               0044a4f0 f   LIBCMTD:crt0msg.obj
 0001:00049830       ___getlocaleinfo           0044a830 f   LIBCMTD:inithelp.obj
 0001:00049b10       __initp_misc_purevirt      0044ab10 f   LIBCMTD:inithelp.obj
 0001:00049b20       __CrtDefaultAllocHook      0044ab20 f   LIBCMTD:dbghook.obj
 0001:00049b30       __crt_debugger_hook        0044ab30 f   LIBCMTD:dbghook.obj
 0001:00049b50       __CrtDbgBreak              0044ab50 f   LIBCMTD:dbgrptt.obj
 0001:00049b60       __CrtSetReportMode         0044ab60 f   LIBCMTD:dbgrptt.obj
 0001:00049ca0       __CrtSetReportFile         0044aca0 f   LIBCMTD:dbgrptt.obj
 0001:00049da0       __CrtSetReportHook         0044ada0 f   LIBCMTD:dbgrptt.obj
 0001:00049dc0       __CrtGetReportHook         0044adc0 f   LIBCMTD:dbgrptt.obj
 0001:00049dd0       __VCrtDbgReportA           0044add0 f   LIBCMTD:dbgrptt.obj
 0001:0004a600       __VCrtDbgReportW           0044b600 f   LIBCMTD:dbgrptt.obj
 0001:0004af30       __dosmaperr                0044bf30 f   LIBCMTD:dosmap.obj
 0001:0004af60       __get_errno_from_oserr     0044bf60 f   LIBCMTD:dosmap.obj
 0001:0004afe0       __set_errno                0044bfe0 f   LIBCMTD:dosmap.obj
 0001:0004b010       __get_errno                0044c010 f   LIBCMTD:dosmap.obj
 0001:0004b090       __set_doserrno             0044c090 f   LIBCMTD:dosmap.obj
 0001:0004b0c0       __get_doserrno             0044c0c0 f   LIBCMTD:dosmap.obj
 0001:0004b140       __errno                    0044c140 f   LIBCMTD:dosmap.obj
 0001:0004b170       ___doserrno                0044c170 f   LIBCMTD:dosmap.obj
 0001:0004b1a0       __cinit                    0044c1a0 f   LIBCMTD:crt0dat.obj
 0001:0004b240       _exit                      0044c240 f   LIBCMTD:crt0dat.obj
 0001:0004b260       __exit                     0044c260 f   LIBCMTD:crt0dat.obj
 0001:0004b280       __cexit                    0044c280 f   LIBCMTD:crt0dat.obj
 0001:0004b2a0       __c_exit                   0044c2a0 f   LIBCMTD:crt0dat.obj
 0001:0004b2c0       __amsg_exit                0044c2c0 f   LIBCMTD:crt0dat.obj
 0001:0004b2f0       ___freeCrtMemory           0044c2f0 f   LIBCMTD:crt0dat.obj
 0001:0004b630       ___crtCorExitProcess       0044c630 f   LIBCMTD:crt0dat.obj
 0001:0004b670       ___crtExitProcess          0044c670 f   LIBCMTD:crt0dat.obj
 0001:0004b690       __lockexit                 0044c690 f   LIBCMTD:crt0dat.obj
 0001:0004b6b0       __unlockexit               0044c6b0 f   LIBCMTD:crt0dat.obj
 0001:0004b6d0       __init_pointers            0044c6d0 f   LIBCMTD:crt0dat.obj
 0001:0004b760       __initterm_e               0044c760 f   LIBCMTD:crt0dat.obj
 0001:0004b7a0       __get_wpgmptr              0044c7a0 f   LIBCMTD:crt0dat.obj
 0001:0004b890       __get_pgmptr               0044c890 f   LIBCMTD:crt0dat.obj
 0001:0004b980       __initp_misc_winsig        0044c980 f   LIBCMTD:winsig.obj
 0001:0004b9b0       _signal                    0044c9b0 f   LIBCMTD:winsig.obj
 0001:0004be50       _raise                     0044ce50 f   LIBCMTD:winsig.obj
 0001:0004c1c0       ___get_sigabrt             0044d1c0 f   LIBCMTD:winsig.obj
 0001:0004c1e0       ___fpecode                 0044d1e0 f   LIBCMTD:winsig.obj
 0001:0004c1f0       ___pxcptinfoptrs           0044d1f0 f   LIBCMTD:winsig.obj
 0001:0004c200       ___crtMessageBoxW          0044d200 f   LIBCMTD:crtmboxw.obj
 0001:0004c420       __swprintf                 0044d420 f   LIBCMTD:swprintf.obj
 0001:0004c620       ___swprintf_l              0044d620 f   LIBCMTD:swprintf.obj
 0001:0004c650       _swprintf_s                0044d650 f   LIBCMTD:swprintf.obj
 0001:0004c680       __snwprintf_s              0044d680 f   LIBCMTD:swprintf.obj
 0001:0004c6b0       __swprintf_p               0044d6b0 f   LIBCMTD:swprintf.obj
 0001:0004c6e0       __swprintf_s_l             0044d6e0 f   LIBCMTD:swprintf.obj
 0001:0004c710       __snwprintf_s_l            0044d710 f   LIBCMTD:swprintf.obj
 0001:0004c740       __swprintf_p_l             0044d740 f   LIBCMTD:swprintf.obj
 0001:0004c770       __scwprintf                0044d770 f   LIBCMTD:swprintf.obj
 0001:0004c790       __scwprintf_p              0044d790 f   LIBCMTD:swprintf.obj
 0001:0004c7b0       __scwprintf_l              0044d7b0 f   LIBCMTD:swprintf.obj
 0001:0004c7e0       __scwprintf_p_l            0044d7e0 f   LIBCMTD:swprintf.obj
 0001:0004c810       _memcpy_s                  0044d810 f   LIBCMTD:memcpy_s.obj
 0001:0004c9a0       _wcslen                    0044d9a0 f   LIBCMTD:wcslen.obj
 0001:0004c9d0       _wcscpy_s                  0044d9d0 f   LIBCMTD:wcscpy_s.obj
 0001:0004ccb0       __alloca_probe             0044dcb0     LIBCMTD:chkstk.obj
 0001:0004ccb0       __chkstk                   0044dcb0 f   LIBCMTD:chkstk.obj
 0001:0004cce0       ?__CxxUnhandledExceptionFilter@@YGJPAU_EXCEPTION_POINTERS@@@Z 0044dce0 f   LIBCMTD:unhandld.obj
 0001:0004cd50       ___CxxSetUnhandledExceptionFilter 0044dd50 f   LIBCMTD:unhandld.obj
 0001:0004cd70       ___security_init_cookie    0044dd70 f   LIBCMTD:gs_support.obj
 0001:0004ce50       ___CppXcptFilter           0044de50 f   LIBCMTD:winxfltr.obj
 0001:0004ce80       __XcptFilter               0044de80 f   LIBCMTD:winxfltr.obj
 0001:0004d0e0       __setenvp                  0044e0e0 f   LIBCMTD:stdenvp.obj
 0001:0004d280       __setargv                  0044e280 f   LIBCMTD:stdargv.obj
 0001:0004d3a0       __set_pgmptr               0044e3a0 f i LIBCMTD:stdargv.obj
 0001:0004d710       ___crtGetEnvironmentStringsA 0044e710 f   LIBCMTD:a_env.obj
 0001:0004d810       __ioinit                   0044e810 f   LIBCMTD:ioinit.obj
 0001:0004dc20       __ioterm                   0044ec20 f   LIBCMTD:ioinit.obj
 0001:0004dcc0       __RTC_Initialize           0044ecc0 f   LIBCMTD:_initsect_.obj
 0001:0004dcf0       __RTC_Terminate            0044ecf0 f   LIBCMTD:_initsect_.obj
 0001:0004dd20       __heap_init                0044ed20 f   LIBCMTD:heapinit.obj
 0001:0004dd60       __heap_term                0044ed60 f   LIBCMTD:heapinit.obj
 0001:0004dd80       __get_heap_handle          0044ed80 f   LIBCMTD:heapinit.obj
 0001:0004ddc0       __itow_s                   0044edc0 f   LIBCMTD:xtows.obj
 0001:0004e1a0       __ltow_s                   0044f1a0 f   LIBCMTD:xtows.obj
 0001:0004e1e0       __ultow_s                  0044f1e0 f   LIBCMTD:xtows.obj
 0001:0004e200       __i64tow_s                 0044f200 f   LIBCMTD:xtows.obj
 0001:0004e620       __ui64tow_s                0044f620 f   LIBCMTD:xtows.obj
 0001:0004e640       _wcsncat_s                 0044f640 f   LIBCMTD:wcsncat_s.obj
 0001:0004eaf0       _wcsncpy_s                 0044faf0 f   LIBCMTD:wcsncpy_s.obj
 0001:0004ef00       _wcscat_s                  0044ff00 f   LIBCMTD:wcscat_s.obj
 0001:0004f2f0       _fwprintf                  004502f0 f   LIBCMTD:fwprintf.obj
 0001:0004f470       __fwprintf_l               00450470 f   LIBCMTD:fwprintf.obj
 0001:0004f4a0       __fwprintf_s_l             004504a0 f   LIBCMTD:fwprintf.obj
 0001:0004f4d0       _fwprintf_s                004504d0 f   LIBCMTD:fwprintf.obj
 0001:0004f500       __fwprintf_p_l             00450500 f   LIBCMTD:fwprintf.obj
 0001:0004f530       __fwprintf_p               00450530 f   LIBCMTD:fwprintf.obj
 0001:0004f560       _setvbuf                   00450560 f   LIBCMTD:setvbuf.obj
 0001:0004f830       __set_error_mode           00450830 f   LIBCMTD:errmode.obj
 0001:0004f8f0       ___set_app_type            004508f0 f   LIBCMTD:errmode.obj
 0001:0004f900       __vswprintf_helper         00450900 f   LIBCMTD:vswprnc.obj
 0001:0004fb60       __vswprintf_c              00450b60 f   LIBCMTD:vswprnc.obj
 0001:0004fbb0       __vswprintf_c_l            00450bb0 f   LIBCMTD:vswprnc.obj
 0001:0004fc00       __vswprintf_s_l            00450c00 f   LIBCMTD:vswprnc.obj
 0001:0004fe70       _vswprintf_s               00450e70 f   LIBCMTD:vswprnc.obj
 0001:0004fea0       __vsnwprintf_s_l           00450ea0 f   LIBCMTD:vswprnc.obj
 0001:00050250       __vsnwprintf_s             00451250 f   LIBCMTD:vswprnc.obj
 0001:00050280       __vswprintf_p              00451280 f   LIBCMTD:vswprnc.obj
 0001:000502d0       __vswprintf_p_l            004512d0 f   LIBCMTD:vswprnc.obj
 0001:00050320       _strtol                    00451320 f   LIBCMTD:strtol.obj
 0001:00050850       __strtol_l                 00451850 f   LIBCMTD:strtol.obj
 0001:00050880       _strtoul                   00451880 f   LIBCMTD:strtol.obj
 0001:000508d0       __strtoul_l                004518d0 f   LIBCMTD:strtol.obj
 0001:00050900       __strtoi64                 00451900 f   LIBCMTD:strtoq.obj
 0001:00050e70       __strtoi64_l               00451e70 f   LIBCMTD:strtoq.obj
 0001:00050ea0       __strtoui64                00451ea0 f   LIBCMTD:strtoq.obj
 0001:00050ef0       __strtoui64_l              00451ef0 f   LIBCMTD:strtoq.obj
 0001:00050f20       _strnlen                   00451f20 f   LIBCMTD:strlen_s.obj
 0001:00050f60       __mbsnbicoll_l             00451f60 f   LIBCMTD:mbsnbico.obj
 0001:000511a0       __mbsnbicoll               004521a0 f   LIBCMTD:mbsnbico.obj
 0001:000511c0       ___wtomb_environ           004521c0 f   LIBCMTD:wtombenv.obj
 0001:000512b0       _strcpy_s                  004522b0 f   LIBCMTD:strcpy_s.obj
 0001:00051590       __VEC_memcpy               00452590 f   LIBCMTD:p4_memcpy.obj
 0001:000516a0       ___sse2_available_init     004526a0 f   LIBCMTD:cpu_disp.obj
 0001:000516c0       __commit                   004526c0 f   LIBCMTD:commit.obj
 0001:000518e0       __fileno                   004528e0 f   LIBCMTD:fileno.obj
 0001:00051960       __write                    00452960 f   LIBCMTD:write.obj
 0001:00051b90       __write_nolock             00452b90 f   LIBCMTD:write.obj
 0001:000526d0       __stbuf                    004536d0 f   LIBCMTD:_sftbuf.obj
 0001:00052830       __ftbuf                    00453830 f   LIBCMTD:_sftbuf.obj
 0001:000528c0       __output_l                 004538c0 f   LIBCMTD:output.obj
 0001:00053d00       _get_int_arg               00454d00 f i LIBCMTD:output.obj
 0001:00053d20       _get_int64_arg             00454d20 f i LIBCMTD:output.obj
 0001:00053d40       _get_short_arg             00454d40 f i LIBCMTD:output.obj
 0001:00053d60       _vfprintf_helper           00454d60 f   LIBCMTD:vfprintf.obj
 0001:00054000       __vfprintf_l               00455000 f   LIBCMTD:vfprintf.obj
 0001:00054030       __vfprintf_s_l             00455030 f   LIBCMTD:vfprintf.obj
 0001:00054060       __vfprintf_p_l             00455060 f   LIBCMTD:vfprintf.obj
 0001:00054090       _vfprintf                  00455090 f   LIBCMTD:vfprintf.obj
 0001:000540c0       _vfprintf_s                004550c0 f   LIBCMTD:vfprintf.obj
 0001:000540f0       __vfprintf_p               004550f0 f   LIBCMTD:vfprintf.obj
 0001:00054120       __fcloseall                00455120 f   LIBCMTD:closeall.obj
 0001:00054250       __vsnprintf_l              00455250 f   LIBCMTD:vsnprint.obj
 0001:00054410       _vsnprintf                 00455410 f   LIBCMTD:vsnprint.obj
 0001:00054410       __vsnprintf                00455410 f   LIBCMTD:vsnprint.obj
 0001:00054440       __VEC_memzero              00455440 f   LIBCMTD:p4_memset.obj
 0001:00054500       __flsbuf                   00455500 f   LIBCMTD:_flsbuf.obj
 0001:000547c0       ?_RTC_GetSrcLine@@YAHPAEPA_WKPAH1K@Z 004557c0 f   LIBCMTD:_pdblkup_.obj
 0001:00054c70       __CrtSetReportHook2        00455c70 f   LIBCMTD:dbgrpt.obj
 0001:00054fa0       __CrtDbgReport             00455fa0 f   LIBCMTD:dbgrpt.obj
 0001:00054fe0       __CrtDbgReportV            00455fe0 f i LIBCMTD:dbgrpt.obj
 0001:00055010       ___crtMessageWindowA       00456010 f   LIBCMTD:dbgrpt.obj
 0001:00055410       __malloc_base              00456410 f   LIBCMTD:malloc.obj
 0001:000554a0       __heap_alloc_base          004564a0 f i LIBCMTD:malloc.obj
 0001:00055500       __expand_base              00456500 f   LIBCMTD:expand.obj
 0001:00055660       __realloc_base             00456660 f   LIBCMTD:realloc.obj
 0001:00055760       __free_base                00456760 f   LIBCMTD:free.obj
 0001:000557b0       __heapchk                  004567b0 f   LIBCMTD:heapchk.obj
 0001:000557e0       __heapset                  004567e0 f   LIBCMTD:heapchk.obj
 0001:000557f0       ___updatetmbcinfo          004567f0 f   LIBCMTD:mbctype.obj
 0001:00055900       __setmbcp                  00456900 f   LIBCMTD:mbctype.obj
 0001:00055cb0       __setmbcp_nolock           00456cb0 f   LIBCMTD:mbctype.obj
 0001:000564a0       __getmbcp                  004574a0 f   LIBCMTD:mbctype.obj
 0001:00056510       ___initmbctable            00457510 f   LIBCMTD:mbctype.obj
 0001:00056540       ___addlocaleref            00457540 f   LIBCMTD:localref.obj
 0001:00056660       ___removelocaleref         00457660 f   LIBCMTD:localref.obj
 0001:00056790       ___freetlocinfo            00457790 f   LIBCMTD:localref.obj
 0001:00056a70       __updatetlocinfoEx_nolock  00457a70 f   LIBCMTD:localref.obj
 0001:00056af0       ___updatetlocinfo          00457af0 f   LIBCMTD:localref.obj
 0001:00056bc0       _sprintf                   00457bc0 f   LIBCMTD:sprintf.obj
 0001:00056d60       __sprintf_l                00457d60 f   LIBCMTD:sprintf.obj
 0001:00056d90       _sprintf_s                 00457d90 f   LIBCMTD:sprintf.obj
 0001:00056dc0       __sprintf_s_l              00457dc0 f   LIBCMTD:sprintf.obj
 0001:00056df0       __snprintf_s               00457df0 f   LIBCMTD:sprintf.obj
 0001:00056e20       __snprintf_s_l             00457e20 f   LIBCMTD:sprintf.obj
 0001:00056e50       __sprintf_p                00457e50 f   LIBCMTD:sprintf.obj
 0001:00056e80       __sprintf_p_l              00457e80 f   LIBCMTD:sprintf.obj
 0001:00056eb0       __scprintf                 00457eb0 f   LIBCMTD:sprintf.obj
 0001:00056ed0       __scprintf_p               00457ed0 f   LIBCMTD:sprintf.obj
 0001:00056ef0       __scprintf_l               00457ef0 f   LIBCMTD:sprintf.obj
 0001:00056f20       __scprintf_p_l             00457f20 f   LIBCMTD:sprintf.obj
 0001:00056f50       __chvalidator              00457f50 f   LIBCMTD:isctype.obj
 0001:00056fa0       __chvalidator_l            00457fa0 f   LIBCMTD:isctype.obj
 0001:00057050       __isctype_l                00458050 f   LIBCMTD:isctype.obj
 0001:00057170       __isctype                  00458170 f   LIBCMTD:isctype.obj
 0001:000571b0       __local_unwind4            004581b0 f   LIBCMTD:exsup4.obj
 0001:00057286       __seh_longjmp_unwind4@4    00458286 f   LIBCMTD:exsup4.obj
 0001:000572a2       @_EH4_CallFilterFunc@8     004582a2 f   LIBCMTD:exsup4.obj
 0001:000572b9       @_EH4_TransferToHandler@8  004582b9 f   LIBCMTD:exsup4.obj
 0001:000572d2       @_EH4_GlobalUnwind2@8      004582d2 f   LIBCMTD:exsup4.obj
 0001:000572eb       @_EH4_LocalUnwind@16       004582eb f   LIBCMTD:exsup4.obj
 0001:00057310       __ValidateImageBase        00458310 f   LIBCMTD:pesect.obj
 0001:00057370       __FindPESection            00458370 f   LIBCMTD:pesect.obj
 0001:000573f0       __IsNonwritableInCurrentImage 004583f0 f   LIBCMTD:pesect.obj
 0001:00057510       ?_ValidateRead@@YAHPBXI@Z  00458510 f   LIBCMTD:validate.obj
 0001:00057540       ?_ValidateWrite@@YAHPAXI@Z 00458540 f   LIBCMTD:validate.obj
 0001:00057570       ?_ValidateExecute@@YAHP6GHXZ@Z 00458570 f   LIBCMTD:validate.obj
 0001:000575a0       __global_unwind2           004585a0 f   LIBCMTD:exsup.obj
 0001:00057605       __local_unwind2            00458605 f   LIBCMTD:exsup.obj
 0001:00057689       __abnormal_termination     00458689 f   LIBCMTD:exsup.obj
 0001:000576ac       __NLG_Notify1              004586ac f   LIBCMTD:exsup.obj
 0001:000576b5       __NLG_Notify               004586b5 f   LIBCMTD:exsup.obj
 0001:000576cc       __NLG_Dispatch             004586cc     LIBCMTD:exsup.obj
 0001:000576cc       __NLG_Dispatch2            004586cc     LIBCMTD:exsup.obj
 0001:000576d4       __NLG_Call                 004586d4 f   LIBCMTD:exsup.obj
 0001:000576d6       __NLG_Return2              004586d6     LIBCMTD:exsup.obj
 0001:000576e0       ___unDName                 004586e0 f   LIBCMTD:undname.obj
 0001:000577c0       ?Constructor@_HeapManager@@QAEXP6APAXI@ZP6AXPAX@Z@Z 004587c0 f i LIBCMTD:undname.obj
 0001:00057800       ?Destructor@_HeapManager@@QAEXXZ 00458800 f i LIBCMTD:undname.obj
 0001:00057850       ___unDNameEx               00458850 f   LIBCMTD:undname.obj
 0001:00057930       ??0UnDecorator@@QAE@PADPBDHP6APADJ@ZK@Z 00458930 f i LIBCMTD:undname.obj
 0001:000579d0       ??BUnDecorator@@QAEPADXZ   004589d0 f i LIBCMTD:undname.obj
 0001:00057c00       ?dbGetString@DName@@QBEPADXZ 00458c00 f   LIBCMTD:undname.obj
 0001:00057c30       ?getDecoratedName@UnDecorator@@CA?AVDName@@XZ 00458c30 f   LIBCMTD:undname.obj
 0001:00057f40       ?getSymbolName@UnDecorator@@CA?AVDName@@XZ 00458f40 f i LIBCMTD:undname.obj
 0001:00057fc0       ?getZName@UnDecorator@@CA?AVDName@@_N0@Z 00458fc0 f   LIBCMTD:undname.obj
 0001:00058260       ?getOperatorName@UnDecorator@@CA?AVDName@@_NPA_N@Z 00459260 f i LIBCMTD:undname.obj
 0001:00058bd0       ?getStringEncoding@UnDecorator@@CA?AVDName@@PADH@Z 00459bd0 f   LIBCMTD:undname.obj
 0001:00058cd0       ?getScope@UnDecorator@@CA?AVDName@@XZ 00459cd0 f   LIBCMTD:undname.obj
 0001:000590b0       ?getSignedDimension@UnDecorator@@CA?AVDName@@XZ 0045a0b0 f   LIBCMTD:undname.obj
 0001:00059130       ?getDimension@UnDecorator@@CA?AVDName@@_N@Z 0045a130 f   LIBCMTD:undname.obj
 0001:000593e0       ?getNumberOfDimensions@UnDecorator@@CAHXZ 0045a3e0 f   LIBCMTD:undname.obj
 0001:000594e0       ?getTemplateName@UnDecorator@@CA?AVDName@@_N@Z 0045a4e0 f   LIBCMTD:undname.obj
 0001:000596a0       ?getTemplateArgumentList@UnDecorator@@CA?AVDName@@XZ 0045a6a0 f   LIBCMTD:undname.obj
 0001:00059920       ?getTemplateConstant@UnDecorator@@CA?AVDName@@XZ 0045a920 f   LIBCMTD:undname.obj
 0001:00059db0       ?composeDeclaration@UnDecorator@@CA?AVDName@@ABV2@@Z 0045adb0 f i LIBCMTD:undname.obj
 0001:0005b3b0       ?getTypeEncoding@UnDecorator@@CAHXZ 0045c3b0 f i LIBCMTD:undname.obj
 0001:0005bdf0       ?getBasedType@UnDecorator@@CA?AVDName@@XZ 0045cdf0 f   LIBCMTD:undname.obj
 0001:0005beb0       ?getScopedName@UnDecorator@@CA?AVDName@@XZ 0045ceb0 f   LIBCMTD:undname.obj
 0001:0005bfd0       ?getCallingConvention@UnDecorator@@CA?AVDName@@XZ 0045cfd0 f   LIBCMTD:undname.obj
 0001:0005c150       ?getReturnType@UnDecorator@@CA?AVDName@@PAV2@@Z 0045d150 f   LIBCMTD:undname.obj
 0001:0005c1a0       ?getDataType@UnDecorator@@CA?AVDName@@PAV2@@Z 0045d1a0 f   LIBCMTD:undname.obj
 0001:0005c2c0       ?getPrimaryDataType@UnDecorator@@CA?AVDName@@ABV2@@Z 0045d2c0 f   LIBCMTD:undname.obj
 0001:0005c660       ?getArgumentTypes@UnDecorator@@CA?AVDName@@XZ 0045d660 f   LIBCMTD:undname.obj
 0001:0005c7c0       ?getArgumentList@UnDecorator@@CA?AVDName@@XZ 0045d7c0 f   LIBCMTD:undname.obj
 0001:0005c910       ?getThrowTypes@UnDecorator@@CA?AVDName@@XZ 0045d910 f   LIBCMTD:undname.obj
 0001:0005c9c0       ?getBasicDataType@UnDecorator@@CA?AVDName@@ABV2@@Z 0045d9c0 f   LIBCMTD:undname.obj
 0001:0005cfa0       ?getECSUDataType@UnDecorator@@CA?AVDName@@XZ 0045dfa0 f   LIBCMTD:undname.obj
 0001:0005d170       ?getECSUName@UnDecorator@@CA?AVDName@@XZ 0045e170 f i LIBCMTD:undname.obj
 0001:0005d190       ?getEnumType@UnDecorator@@CA?AVDName@@XZ 0045e190 f i LIBCMTD:undname.obj
 0001:0005d2e0       ?getFunctionIndirectType@UnDecorator@@CA?AVDName@@ABV2@@Z 0045e2e0 f   LIBCMTD:undname.obj
 0001:0005d720       ?getPtrRefType@UnDecorator@@CA?AVDName@@ABV2@0PBD@Z 0045e720 f   LIBCMTD:undname.obj
 0001:0005d880       ?getExtendedDataIndirectType@UnDecorator@@CA?AVDName@@AAPBDAA_NH@Z 0045e880 f   LIBCMTD:undname.obj
 0001:0005daa0       ?getDataIndirectType@UnDecorator@@CA?AVDName@@ABV2@PBD0H@Z 0045eaa0 f   LIBCMTD:undname.obj
 0001:0005e1a0       ?getPtrRefDataType@UnDecorator@@CA?AVDName@@ABV2@H@Z 0045f1a0 f i LIBCMTD:undname.obj
 0001:0005e2e0       ?getArrayType@UnDecorator@@CA?AVDName@@ABV2@@Z 0045f2e0 f i LIBCMTD:undname.obj
 0001:0005e510       ?getLexicalFrame@UnDecorator@@CA?AVDName@@XZ 0045f510 f i LIBCMTD:undname.obj
 0001:0005e550       ?getThisType@UnDecorator@@CA?AVDName@@XZ 0045f550 f i LIBCMTD:undname.obj
 0001:0005e590       ?getPointerType@UnDecorator@@CA?AVDName@@ABV2@0@Z 0045f590 f i LIBCMTD:undname.obj
 0001:0005e5c0       ?getPointerTypeArray@UnDecorator@@CA?AVDName@@ABV2@0@Z 0045f5c0 f i LIBCMTD:undname.obj
 0001:0005e5f0       ?getReferenceType@UnDecorator@@CA?AVDName@@ABV2@0PBD@Z 0045f5f0 f i LIBCMTD:undname.obj
 0001:0005e620       ?getDisplacement@UnDecorator@@CA?AVDName@@XZ 0045f620 f i LIBCMTD:undname.obj
 0001:0005e640       ?getCallIndex@UnDecorator@@CA?AVDName@@XZ 0045f640 f i LIBCMTD:undname.obj
 0001:0005e660       ?getGuardNumber@UnDecorator@@CA?AVDName@@XZ 0045f660 f i LIBCMTD:undname.obj
 0001:0005e680       ?getVbTableType@UnDecorator@@CA?AVDName@@ABV2@@Z 0045f680 f i LIBCMTD:undname.obj
 0001:0005e6a0       ?getVCallThunkType@UnDecorator@@CA?AVDName@@XZ 0045f6a0 f i LIBCMTD:undname.obj
 0001:0005e700       ?getVfTableType@UnDecorator@@CA?AVDName@@ABV2@@Z 0045f700 f i LIBCMTD:undname.obj
 0001:0005e8c0       ?getStorageConvention@UnDecorator@@CA?AVDName@@XZ 0045f8c0 f i LIBCMTD:undname.obj
 0001:0005e8e0       ?getDataIndirectType@UnDecorator@@CA?AVDName@@XZ 0045f8e0 f i LIBCMTD:undname.obj
 0001:0005e920       ?getVdispMapType@UnDecorator@@CA?AVDName@@ABV2@@Z 0045f920 f i LIBCMTD:undname.obj
 0001:0005e990       ?getExternalDataType@UnDecorator@@CA?AVDName@@ABV2@@Z 0045f990 f i LIBCMTD:undname.obj
 0001:0005ea20       ?doMSKeywords@UnDecorator@@SAHXZ 0045fa20 f i LIBCMTD:undname.obj
 0001:0005ea40       ?doPtr64@UnDecorator@@SAHXZ 0045fa40 f i LIBCMTD:undname.obj
 0001:0005ea60       ?doFunctionReturns@UnDecorator@@SAHXZ 0045fa60 f i LIBCMTD:undname.obj
 0001:0005ea80       ?doAllocationModel@UnDecorator@@SAHXZ 0045fa80 f i LIBCMTD:undname.obj
 0001:0005eaa0       ?doAllocationLanguage@UnDecorator@@SAHXZ 0045faa0 f i LIBCMTD:undname.obj
 0001:0005eac0       ?doThisTypes@UnDecorator@@SAHXZ 0045fac0 f i LIBCMTD:undname.obj
 0001:0005eae0       ?doAccessSpecifiers@UnDecorator@@SAHXZ 0045fae0 f i LIBCMTD:undname.obj
 0001:0005eb00       ?doThrowTypes@UnDecorator@@SAHXZ 0045fb00 f i LIBCMTD:undname.obj
 0001:0005eb20       ?doMemberTypes@UnDecorator@@SAHXZ 0045fb20 f i LIBCMTD:undname.obj
 0001:0005eb40       ?doNameOnly@UnDecorator@@SAHXZ 0045fb40 f i LIBCMTD:undname.obj
 0001:0005eb60       ?doTypeOnly@UnDecorator@@SAHXZ 0045fb60 f i LIBCMTD:undname.obj
 0001:0005eb80       ?haveTemplateParameters@UnDecorator@@SAHXZ 0045fb80 f i LIBCMTD:undname.obj
 0001:0005eba0       ?doEcsu@UnDecorator@@SAHXZ 0045fba0 f i LIBCMTD:undname.obj
 0001:0005ebc0       ?doEllipsis@UnDecorator@@SAHXZ 0045fbc0 f i LIBCMTD:undname.obj
 0001:0005ebe0       ?UScore@UnDecorator@@SAPBDW4Tokens@@@Z 0045fbe0 f   LIBCMTD:undname.obj
 0001:0005ec10       ?doUnderScore@UnDecorator@@SAHXZ 0045fc10 f i LIBCMTD:undname.obj
 0001:0005ec30       ??2@YAPAXIAAV_HeapManager@@H@Z 0045fc30 f i LIBCMTD:undname.obj
 0001:0005ec50       ?getMemory@_HeapManager@@QAEPAXIH@Z 0045fc50 f   LIBCMTD:undname.obj
 0001:0005ed60       ??0Block@_HeapManager@@QAE@XZ 0045fd60 f i LIBCMTD:undname.obj
 0001:0005ed80       ??H@YA?AVDName@@DABV0@@Z   0045fd80 f i LIBCMTD:undname.obj
 0001:0005edb0       ??H@YA?AVDName@@W4DNameStatus@@ABV0@@Z 0045fdb0 f i LIBCMTD:undname.obj
 0001:0005ede0       ??H@YA?AVDName@@PBDABV0@@Z 0045fde0 f i LIBCMTD:undname.obj
 0001:0005ee10       ??0DName@@QAE@XZ           0045fe10 f i LIBCMTD:undname.obj
 0001:0005eed0       ??0DName@@QAE@D@Z          0045fed0 f   LIBCMTD:undname.obj
 0001:0005efb0       ??0DName@@QAE@ABV0@@Z      0045ffb0 f i LIBCMTD:undname.obj
 0001:0005efe0       ??0DName@@QAE@PAV0@@Z      0045ffe0 f   LIBCMTD:undname.obj
 0001:0005f110       ??0DName@@QAE@PBD@Z        00460110 f   LIBCMTD:undname.obj
 0001:0005f200       ??0DName@@QAE@AAPBDD@Z     00460200 f   LIBCMTD:undname.obj
 0001:0005f4c0       ?doNoIdentCharCheck@UnDecorator@@SAHXZ 004604c0 f i LIBCMTD:undname.obj
 0001:0005f4e0       ??0DName@@QAE@_K@Z         004604e0 f   LIBCMTD:undname.obj
 0001:0005f620       ??0DName@@QAE@_J@Z         00460620 f   LIBCMTD:undname.obj
 0001:0005f7a0       ??0DName@@QAE@W4DNameStatus@@@Z 004607a0 f   LIBCMTD:undname.obj
 0001:0005f8c0       ?isValid@DName@@QBEHXZ     004608c0 f i LIBCMTD:undname.obj
 0001:0005f8f0       ?isEmpty@DName@@QBEHXZ     004608f0 f i LIBCMTD:undname.obj
 0001:0005f910       ?status@DName@@QBE?AW4DNameStatus@@XZ 00460910 f i LIBCMTD:undname.obj
 0001:0005f930       ?setPtrRef@DName@@QAEAAV1@XZ 00460930 f i LIBCMTD:undname.obj
 0001:0005f960       ?isPtrRef@DName@@QBEHXZ    00460960 f i LIBCMTD:undname.obj
 0001:0005f980       ?isUDC@DName@@QBEHXZ       00460980 f i LIBCMTD:undname.obj
 0001:0005f9c0       ?setIsUDC@DName@@QAEXXZ    004609c0 f i LIBCMTD:undname.obj
 0001:0005f9f0       ?isUDTThunk@DName@@QBEHXZ  004609f0 f i LIBCMTD:undname.obj
 0001:0005fa30       ?setIsArray@DName@@QAEXXZ  00460a30 f i LIBCMTD:undname.obj
 0001:0005fa50       ?isArray@DName@@QBEHXZ     00460a50 f i LIBCMTD:undname.obj
 0001:0005fa70       ?isNoTE@DName@@QBEHXZ      00460a70 f i LIBCMTD:undname.obj
 0001:0005fa90       ?setIsNoTE@DName@@QAEXXZ   00460a90 f i LIBCMTD:undname.obj
 0001:0005fab0       ?isPinPtr@DName@@QBEHXZ    00460ab0 f i LIBCMTD:undname.obj
 0001:0005fad0       ?setIsPinPtr@DName@@QAEXXZ 00460ad0 f i LIBCMTD:undname.obj
 0001:0005faf0       ?isComArray@DName@@QBEHXZ  00460af0 f i LIBCMTD:undname.obj
 0001:0005fb10       ?setIsComArray@DName@@QAEXXZ 00460b10 f i LIBCMTD:undname.obj
 0001:0005fb30       ?isVCallThunk@DName@@QBEHXZ 00460b30 f i LIBCMTD:undname.obj
 0001:0005fb50       ?setIsVCallThunk@DName@@QAEXXZ 00460b50 f i LIBCMTD:undname.obj
 0001:0005fb70       ?length@DName@@QBEHXZ      00460b70 f i LIBCMTD:undname.obj
 0001:0005fba0       ?getLastChar@DName@@QBEDXZ 00460ba0 f i LIBCMTD:undname.obj
 0001:0005fbd0       ?getString@DName@@QBEPADPADH@Z 00460bd0 f i LIBCMTD:undname.obj
 0001:0005fc60       ?getString@DName@@QBEPADPAD0@Z 00460c60 f i LIBCMTD:undname.obj
 0001:0005fca0       ??HDName@@QBE?AV0@D@Z      00460ca0 f   LIBCMTD:undname.obj
 0001:0005fce0       ??HDName@@QBE?AV0@PBD@Z    00460ce0 f   LIBCMTD:undname.obj
 0001:0005fd20       ??HDName@@QBE?AV0@ABV0@@Z  00460d20 f   LIBCMTD:undname.obj
 0001:0005fd60       ??HDName@@QBE?AV0@PAV0@@Z  00460d60 f   LIBCMTD:undname.obj
 0001:0005fda0       ??HDName@@QBE?AV0@W4DNameStatus@@@Z 00460da0 f   LIBCMTD:undname.obj
 0001:0005fde0       ?append@DName@@AAEXPAVDNameNode@@@Z 00460de0 f   LIBCMTD:undname.obj
 0001:0005fe70       ??YDName@@QAEAAV0@D@Z      00460e70 f   LIBCMTD:undname.obj
 0001:0005ff00       ??YDName@@QAEAAV0@PBD@Z    00460f00 f   LIBCMTD:undname.obj
 0001:0005ffa0       ??YDName@@QAEAAV0@ABV0@@Z  00460fa0 f   LIBCMTD:undname.obj
 0001:00060010       ??YDName@@QAEAAV0@PAV0@@Z  00461010 f   LIBCMTD:undname.obj
 0001:000600d0       ??YDName@@QAEAAV0@W4DNameStatus@@@Z 004610d0 f   LIBCMTD:undname.obj
 0001:00060140       ??_5DName@@QAEAAV0@ABV0@@Z 00461140 f   LIBCMTD:undname.obj
 0001:000601a0       ??4DName@@QAEAAV0@D@Z      004611a0 f i LIBCMTD:undname.obj
 0001:00060280       ??4DName@@QAEAAV0@PBD@Z    00461280 f   LIBCMTD:undname.obj
 0001:00060360       ??4DName@@QAEAAV0@ABV0@@Z  00461360 f   LIBCMTD:undname.obj
 0001:00060390       ??4DName@@QAEAAV0@PAV0@@Z  00461390 f   LIBCMTD:undname.obj
 0001:000604d0       ??4DName@@QAEAAV0@W4DNameStatus@@@Z 004614d0 f   LIBCMTD:undname.obj
 0001:000605d0       ?doPchar@DName@@AAEXPBDH@Z 004615d0 f   LIBCMTD:undname.obj
 0001:00060710       ?isFull@Replicator@@QBEHXZ 00461710 f i LIBCMTD:undname.obj
 0001:00060730       ??0Replicator@@QAE@XZ      00461730 f i LIBCMTD:undname.obj
 0001:00060750       ??YReplicator@@QAEAAV0@ABVDName@@@Z 00461750 f   LIBCMTD:undname.obj
 0001:000607e0       ??AReplicator@@QBE?AVDName@@H@Z 004617e0 f   LIBCMTD:undname.obj
 0001:00060850       ??0DNameNode@@IAE@XZ       00461850 f   LIBCMTD:undname.obj
 0001:00060870       ??0charNode@@QAE@D@Z       00461870 f   LIBCMTD:undname.obj
 0001:000608a0       ?length@charNode@@UBEHXZ   004618a0 f i LIBCMTD:undname.obj
 0001:000608c0       ?getLastChar@charNode@@UBEDXZ 004618c0 f i LIBCMTD:undname.obj
 0001:000608e0       ?getString@charNode@@UBEPADPAD0@Z 004618e0 f i LIBCMTD:undname.obj
 0001:00060910       ??0pcharNode@@QAE@PBDH@Z   00461910 f   LIBCMTD:undname.obj
 0001:000609a0       ?length@pcharNode@@UBEHXZ  004619a0 f i LIBCMTD:undname.obj
 0001:000609c0       ?getLastChar@pcharNode@@UBEDXZ 004619c0 f i LIBCMTD:undname.obj
 0001:00060a00       ?getString@pcharNode@@UBEPADPAD0@Z 00461a00 f i LIBCMTD:undname.obj
 0001:00060a30       ?getStringHelper@@YAPADPAD00H@Z 00461a30 f i LIBCMTD:undname.obj
 0001:00060a70       ??0pDNameNode@@QAE@PAVDName@@@Z 00461a70 f   LIBCMTD:undname.obj
 0001:00060ad0       ?length@pDNameNode@@UBEHXZ 00461ad0 f i LIBCMTD:undname.obj
 0001:00060b10       ?getLastChar@pDNameNode@@UBEDXZ 00461b10 f i LIBCMTD:undname.obj
 0001:00060b40       ?getString@pDNameNode@@UBEPADPAD0@Z 00461b40 f i LIBCMTD:undname.obj
 0001:00060b80       ??0DNameStatusNode@@AAE@W4DNameStatus@@@Z 00461b80 f   LIBCMTD:undname.obj
 0001:00060bd0       ?length@DNameStatusNode@@UBEHXZ 00461bd0 f i LIBCMTD:undname.obj
 0001:00060bf0       ?getLastChar@DNameStatusNode@@UBEDXZ 00461bf0 f i LIBCMTD:undname.obj
 0001:00060c10       ?getString@DNameStatusNode@@UBEPADPAD0@Z 00461c10 f i LIBCMTD:undname.obj
 0001:00060c50       ?make@DNameStatusNode@@SAPAV1@W4DNameStatus@@@Z 00461c50 f i LIBCMTD:undname.obj
 0001:00060d00       ??0pairNode@@QAE@PAVDNameNode@@0@Z 00461d00 f   LIBCMTD:undname.obj
 0001:00060d40       ?length@pairNode@@UBEHXZ   00461d40 f i LIBCMTD:undname.obj
 0001:00060d90       ?getLastChar@pairNode@@UBEDXZ 00461d90 f i LIBCMTD:undname.obj
 0001:00060de0       ?getString@pairNode@@UBEPADPAD0@Z 00461de0 f i LIBCMTD:undname.obj
 0001:00060f20       _strncpy_s                 00461f20 f   LIBCMTD:strncpy_s.obj
 0001:00061310       ___crtGetLocaleInfoA       00462310 f   LIBCMTD:a_loc.obj
 0001:00061470       __MarkAllocaS              00462470 f i LIBCMTD:a_loc.obj
 0001:000614a0       __freea                    004624a0 f i LIBCMTD:a_loc.obj
 0001:00061510       __mbstowcs_l_helper        00462510 f   LIBCMTD:mbstowcs.obj
 0001:00061860       __mbstowcs_l               00462860 f   LIBCMTD:mbstowcs.obj
 0001:00061880       _mbstowcs                  00462880 f   LIBCMTD:mbstowcs.obj
 0001:000618d0       __mbstowcs_s_l             004628d0 f   LIBCMTD:mbstowcs.obj
 0001:00061c50       _mbstowcs_s                00462c50 f   LIBCMTD:mbstowcs.obj
 0001:00061c80       _strcat_s                  00462c80 f   LIBCMTD:strcat_s.obj
 0001:00062060       __vsnprintf_helper         00463060 f   LIBCMTD:vsnprnc.obj
 0001:00062250       __vsnprintf_c              00463250 f   LIBCMTD:vsnprnc.obj
 0001:000622a0       __vsnprintf_c_l            004632a0 f   LIBCMTD:vsnprnc.obj
 0001:000622f0       __vsprintf_s_l             004632f0 f   LIBCMTD:vsnprnc.obj
 0001:00062560       _vsprintf_s                00463560 f   LIBCMTD:vsnprnc.obj
 0001:00062590       __vsnprintf_s_l            00463590 f   LIBCMTD:vsnprnc.obj
 0001:00062930       __vsnprintf_s              00463930 f   LIBCMTD:vsnprnc.obj
 0001:00062960       __vsprintf_p               00463960 f   LIBCMTD:vsnprnc.obj
 0001:000629b0       __vsprintf_p_l             004639b0 f   LIBCMTD:vsnprnc.obj
 0001:00062a00       __itoa_s                   00463a00 f   LIBCMTD:xtoas.obj
 0001:00062dd0       __ltoa_s                   00463dd0 f   LIBCMTD:xtoas.obj
 0001:00062e10       __ultoa_s                  00463e10 f   LIBCMTD:xtoas.obj
 0001:00062e30       __i64toa_s                 00463e30 f   LIBCMTD:xtoas.obj
 0001:00063230       __ui64toa_s                00464230 f   LIBCMTD:xtoas.obj
 0001:00063250       __wcstombs_l_helper        00464250 f   LIBCMTD:wcstombs.obj
 0001:00063790       __wcstombs_l               00464790 f   LIBCMTD:wcstombs.obj
 0001:000637b0       _wcstombs                  004647b0 f   LIBCMTD:wcstombs.obj
 0001:000637d0       __wcstombs_s_l             004647d0 f   LIBCMTD:wcstombs.obj
 0001:00063b00       _wcstombs_s                00464b00 f   LIBCMTD:wcstombs.obj
 0001:00063b30       __initp_misc_cfltcvt_tab   00464b30 f   LIBCMTD:cmiscdat.obj
 0001:00063b70       __initp_misc_rand_s        00464b70 f   LIBCMTD:rand_s.obj
 0001:00063b80       _rand_s                    00464b80 f   LIBCMTD:rand_s.obj
 0001:00063da0       __woutput_l                00464da0 f   LIBCMTD:woutput.obj
 0001:00064f70       __vswprintf_l              00465f70 f   LIBCMTD:vswprint.obj
 0001:00065160       __vswprintf                00466160 f   LIBCMTD:vswprint.obj
 0001:00065180       ___vswprintf_l             00466180 f   LIBCMTD:vswprint.obj
 0001:000651a0       __vscwprintf_helper        004661a0 f   LIBCMTD:vswprint.obj
 0001:00065280       __vscwprintf               00466280 f   LIBCMTD:vswprint.obj
 0001:000652a0       __vscwprintf_l             004662a0 f   LIBCMTD:vswprint.obj
 0001:000652c0       __vscwprintf_p             004662c0 f   LIBCMTD:vswprint.obj
 0001:000652e0       __vscwprintf_p_l           004662e0 f   LIBCMTD:vswprint.obj
 0001:00065300       __ismbbkalnum_l            00466300 f   LIBCMTD:ismbbyte.obj
 0001:00065320       __ismbbkalnum              00466320 f   LIBCMTD:ismbbyte.obj
 0001:00065340       __ismbbkprint_l            00466340 f   LIBCMTD:ismbbyte.obj
 0001:00065360       __ismbbkprint              00466360 f   LIBCMTD:ismbbyte.obj
 0001:00065380       __ismbbkpunct_l            00466380 f   LIBCMTD:ismbbyte.obj
 0001:000653a0       __ismbbkpunct              004663a0 f   LIBCMTD:ismbbyte.obj
 0001:000653c0       __ismbbalnum_l             004663c0 f   LIBCMTD:ismbbyte.obj
 0001:000653e0       __ismbbalnum               004663e0 f   LIBCMTD:ismbbyte.obj
 0001:00065400       __ismbbalpha_l             00466400 f   LIBCMTD:ismbbyte.obj
 0001:00065420       __ismbbalpha               00466420 f   LIBCMTD:ismbbyte.obj
 0001:00065440       __ismbbgraph_l             00466440 f   LIBCMTD:ismbbyte.obj
 0001:00065460       __ismbbgraph               00466460 f   LIBCMTD:ismbbyte.obj
 0001:00065480       __ismbbprint_l             00466480 f   LIBCMTD:ismbbyte.obj
 0001:000654a0       __ismbbprint               004664a0 f   LIBCMTD:ismbbyte.obj
 0001:000654c0       __ismbbpunct_l             004664c0 f   LIBCMTD:ismbbyte.obj
 0001:000654e0       __ismbbpunct               004664e0 f   LIBCMTD:ismbbyte.obj
 0001:00065500       __ismbblead_l              00466500 f   LIBCMTD:ismbbyte.obj
 0001:00065520       __ismbblead                00466520 f   LIBCMTD:ismbbyte.obj
 0001:00065540       __ismbbtrail_l             00466540 f   LIBCMTD:ismbbyte.obj
 0001:00065560       __ismbbtrail               00466560 f   LIBCMTD:ismbbyte.obj
 0001:00065580       __ismbbkana_l              00466580 f   LIBCMTD:ismbbyte.obj
 0001:000655f0       __ismbbkana                004665f0 f   LIBCMTD:ismbbyte.obj
 0001:000656e0       _vfwprintf_helper          004666e0 f   LIBCMTD:vfwprint.obj
 0001:00065860       __vfwprintf_l              00466860 f   LIBCMTD:vfwprint.obj
 0001:00065890       __vfwprintf_s_l            00466890 f   LIBCMTD:vfwprint.obj
 0001:000658c0       __vfwprintf_p_l            004668c0 f   LIBCMTD:vfwprint.obj
 0001:000658f0       _vfwprintf                 004668f0 f   LIBCMTD:vfwprint.obj
 0001:00065920       _vfwprintf_s               00466920 f   LIBCMTD:vfwprint.obj
 0001:00065950       __vfwprintf_p              00466950 f   LIBCMTD:vfwprint.obj
 0001:00065980       __freebuf                  00466980 f   LIBCMTD:_freebuf.obj
 0001:00065a10       __woutput_s_l              00466a10 f   LIBCMTD:woutputs.obj
 0001:00066d30       __validate_param_reuseW    00467d30 f   LIBCMTD:woutputp.obj
 0001:00066fa0       __woutput_p_l              00467fa0 f   LIBCMTD:woutputp.obj
 0001:0006a6f0       ____setlc_active_func      0046b6f0 f   LIBCMTD:setlocal.obj
 0001:0006a700       ____unguarded_readlc_active_add_func 0046b700 f   LIBCMTD:setlocal.obj
 0001:0006a710       __configthreadlocale       0046b710 f   LIBCMTD:setlocal.obj
 0001:0006a820       __locterm                  0046b820 f   LIBCMTD:setlocal.obj
 0001:0006a8c0       __free_locale              0046b8c0 f   LIBCMTD:setlocal.obj
 0001:0006aa00       ___free_locale             0046ba00 f   LIBCMTD:setlocal.obj
 0001:0006aa20       __create_locale            0046ba20 f   LIBCMTD:setlocal.obj
 0001:0006ac50       ___create_locale           0046bc50 f   LIBCMTD:setlocal.obj
 0001:0006ac70       __get_current_locale       0046bc70 f   LIBCMTD:setlocal.obj
 0001:0006ad90       ___get_current_locale      0046bd90 f   LIBCMTD:setlocal.obj
 0001:0006ada0       _setlocale                 0046bda0 f   LIBCMTD:setlocal.obj
 0001:0006bc50       __expandlocale             0046cc50 f   LIBCMTD:setlocal.obj
 0001:0006bf00       ___init_dummy              0046cf00 f   LIBCMTD:setlocal.obj
 0001:0006bf10       __strcats                  0046cf10 f   LIBCMTD:setlocal.obj
 0001:0006bf90       ___lc_strtolc              0046cf90 f   LIBCMTD:setlocal.obj
 0001:0006c190       ___lc_lctostr              0046d190 f   LIBCMTD:setlocal.obj
 0001:0006c230       ___crtCompareStringA       0046d230 f   LIBCMTD:a_cmp.obj
 0001:0006c670       __strnicoll_l              0046d670 f   LIBCMTD:strnicol.obj
 0001:0006c8c0       __strnicoll                0046d8c0 f   LIBCMTD:strnicol.obj
 0001:0006c900       ___crtsetenv               0046d900 f   LIBCMTD:setenv.obj
 0001:0006cf80       __alloc_osfhnd             0046df80 f   LIBCMTD:osfinfo.obj
 0001:0006d230       __set_osfhnd               0046e230 f   LIBCMTD:osfinfo.obj
 0001:0006d300       __free_osfhnd              0046e300 f   LIBCMTD:osfinfo.obj
 0001:0006d3f0       __get_osfhandle            0046e3f0 f   LIBCMTD:osfinfo.obj
 0001:0006d560       __open_osfhandle           0046e560 f   LIBCMTD:osfinfo.obj
 0001:0006d790       ___lock_fhandle            0046e790 f   LIBCMTD:osfinfo.obj
 0001:0006d890       __unlock_fhandle           0046e890 f   LIBCMTD:osfinfo.obj
 0001:0006d8c0       __putwch                   0046e8c0 f   LIBCMTD:putwch.obj
 0001:0006d950       __putwch_nolock            0046e950 f   LIBCMTD:putwch.obj
 0001:0006d9a0       __mbtowc_l                 0046e9a0 f   LIBCMTD:mbtowc.obj
 0001:0006dbc0       _mbtowc                    0046ebc0 f   LIBCMTD:mbtowc.obj
 0001:0006dbe0       __isleadbyte_l             0046ebe0 f i LIBCMTD:_wctype.obj
 0001:0006dc30       _isleadbyte                0046ec30 f i LIBCMTD:_wctype.obj
 0001:0006dc50       __iswalpha_l               0046ec50 f i LIBCMTD:_wctype.obj
 0001:0006dc70       _iswalpha                  0046ec70 f i LIBCMTD:_wctype.obj
 0001:0006dc90       __iswupper_l               0046ec90 f i LIBCMTD:_wctype.obj
 0001:0006dcb0       _iswupper                  0046ecb0 f i LIBCMTD:_wctype.obj
 0001:0006dcd0       __iswlower_l               0046ecd0 f i LIBCMTD:_wctype.obj
 0001:0006dcf0       _iswlower                  0046ecf0 f i LIBCMTD:_wctype.obj
 0001:0006dd10       __iswdigit_l               0046ed10 f i LIBCMTD:_wctype.obj
 0001:0006dd30       _iswdigit                  0046ed30 f i LIBCMTD:_wctype.obj
 0001:0006dd50       __iswxdigit_l              0046ed50 f i LIBCMTD:_wctype.obj
 0001:0006dd70       _iswxdigit                 0046ed70 f i LIBCMTD:_wctype.obj
 0001:0006dd90       __iswspace_l               0046ed90 f i LIBCMTD:_wctype.obj
 0001:0006ddb0       _iswspace                  0046edb0 f i LIBCMTD:_wctype.obj
 0001:0006ddd0       __iswpunct_l               0046edd0 f i LIBCMTD:_wctype.obj
 0001:0006ddf0       _iswpunct                  0046edf0 f i LIBCMTD:_wctype.obj
 0001:0006de10       __iswalnum_l               0046ee10 f i LIBCMTD:_wctype.obj
 0001:0006de30       _iswalnum                  0046ee30 f i LIBCMTD:_wctype.obj
 0001:0006de50       __iswprint_l               0046ee50 f i LIBCMTD:_wctype.obj
 0001:0006de70       _iswprint                  0046ee70 f i LIBCMTD:_wctype.obj
 0001:0006de90       __iswgraph_l               0046ee90 f i LIBCMTD:_wctype.obj
 0001:0006deb0       _iswgraph                  0046eeb0 f i LIBCMTD:_wctype.obj
 0001:0006ded0       __iswcntrl_l               0046eed0 f i LIBCMTD:_wctype.obj
 0001:0006def0       _iswcntrl                  0046eef0 f i LIBCMTD:_wctype.obj
 0001:0006df10       _iswascii                  0046ef10 f i LIBCMTD:_wctype.obj
 0001:0006df30       __iswcsym_l                0046ef30 f i LIBCMTD:_wctype.obj
 0001:0006df70       ___iswcsym                 0046ef70 f i LIBCMTD:_wctype.obj
 0001:0006dfb0       __iswcsymf_l               0046efb0 f i LIBCMTD:_wctype.obj
 0001:0006dff0       ___iswcsymf                0046eff0 f i LIBCMTD:_wctype.obj
 0001:0006e030       __isatty                   0046f030 f   LIBCMTD:isatty.obj
 0001:0006e0f0       __lseeki64                 0046f0f0 f   LIBCMTD:lseeki64.obj
 0001:0006e340       __lseeki64_nolock          0046f340 f   LIBCMTD:lseeki64.obj
 0001:0006e430       _printf                    0046f430 f   LIBCMTD:printf.obj
 0001:0006e570       __printf_l                 0046f570 f   LIBCMTD:printf.obj
 0001:0006e5a0       __printf_s_l               0046f5a0 f   LIBCMTD:printf.obj
 0001:0006e5d0       _printf_s                  0046f5d0 f   LIBCMTD:printf.obj
 0001:0006e600       __printf_p_l               0046f600 f   LIBCMTD:printf.obj
 0001:0006e630       __printf_p                 0046f630 f   LIBCMTD:printf.obj
 0001:0006e660       __set_printf_count_output  0046f660 f   LIBCMTD:printf.obj
 0001:0006e6b0       __get_printf_count_output  0046f6b0 f   LIBCMTD:printf.obj
 0001:0006e6d0       __wctomb_s_l               0046f6d0 f   LIBCMTD:wctomb.obj
 0001:0006e9d0       _wctomb_s                  0046f9d0 f   LIBCMTD:wctomb.obj
 0001:0006ea00       __wctomb_l                 0046fa00 f   LIBCMTD:wctomb.obj
 0001:0006ea80       _wctomb                    0046fa80 f   LIBCMTD:wctomb.obj
 0001:0006ead0       __output_s_l               0046fad0 f   LIBCMTD:outputs.obj
 0001:00070060       __validate_param_reuseA    00471060 f   LIBCMTD:outputp.obj
 0001:000702d0       __output_p_l               004712d0 f   LIBCMTD:outputp.obj
 0001:00073ea0       _get_crtdouble_arg         00474ea0 f i LIBCMTD:outputp.obj
 0001:00073ec0       _fclose                    00474ec0 f   LIBCMTD:fclose.obj
 0001:00073fd0       __fclose_nolock            00474fd0 f   LIBCMTD:fclose.obj
 0001:000740d0       __getbuf                   004750d0 f   LIBCMTD:_getbuf.obj
 0001:000741a0       ___crtMessageBoxA          004751a0 f   LIBCMTD:crtmbox.obj
 0001:000743c0       ___crtLCMapStringA         004753c0 f   LIBCMTD:a_map.obj
 0001:00074700       ___crtGetStringTypeA       00475700 f   LIBCMTD:a_str.obj
 0001:00074870       ___init_time               00475870 f   LIBCMTD:inittime.obj
 0001:000755a0       ___free_lc_time            004765a0 f   LIBCMTD:inittime.obj
 0001:00075c10       ___init_numeric            00476c10 f   LIBCMTD:initnum.obj
 0001:00075fc0       ___free_lconv_num          00476fc0 f   LIBCMTD:initnum.obj
 0001:00076070       ___init_monetary           00477070 f   LIBCMTD:initmon.obj
 0001:00076660       ___free_lconv_mon          00477660 f   LIBCMTD:initmon.obj
 0001:00076810       _localeconv                00477810 f   LIBCMTD:lconv.obj
 0001:00076860       ___pwctype_func            00477860 f   LIBCMTD:ctype.obj
 0001:00076870       ___pctype_func             00477870 f   LIBCMTD:ctype.obj
 0001:000768c0       __vsprintf_l               004778c0 f   LIBCMTD:vsprintf.obj
 0001:00076a60       _vsprintf                  00477a60 f   LIBCMTD:vsprintf.obj
 0001:00076a80       __vscprintf_helper         00477a80 f   LIBCMTD:vsprintf.obj
 0001:00076b60       __vscprintf                00477b60 f   LIBCMTD:vsprintf.obj
 0001:00076b80       __vscprintf_l              00477b80 f   LIBCMTD:vsprintf.obj
 0001:00076ba0       __vscprintf_p              00477ba0 f   LIBCMTD:vsprintf.obj
 0001:00076bc0       __vscprintf_p_l            00477bc0 f   LIBCMTD:vsprintf.obj
 0001:00076be0       __fptrap                   00477be0 f   LIBCMTD:crt0fp.obj
 0001:00076c00       _fputwc                    00477c00 f   LIBCMTD:fputwc.obj
 0001:00076d00       __fputwc_nolock            00477d00 f   LIBCMTD:fputwc.obj
 0001:00076ff0       _putwc                     00477ff0 f   LIBCMTD:fputwc.obj
 0001:00077010       _wcstol                    00478010 f   LIBCMTD:wcstol.obj
 0001:000773e0       __wcstol_l                 004783e0 f   LIBCMTD:wcstol.obj
 0001:00077400       _wcstoul                   00478400 f   LIBCMTD:wcstol.obj
 0001:00077420       __wcstoul_l                00478420 f   LIBCMTD:wcstol.obj
 0001:00077440       ___init_ctype              00478440 f   LIBCMTD:initctyp.obj
 0001:000779f0       ____mb_cur_max_func        004789f0 f   LIBCMTD:initctyp.obj
 0001:00077a40       ____mb_cur_max_l_func      00478a40 f   LIBCMTD:initctyp.obj
 0001:00077a70       ____lc_codepage_func       00478a70 f   LIBCMTD:initctyp.obj
 0001:00077ac0       ____lc_collate_cp_func     00478ac0 f   LIBCMTD:initctyp.obj
 0001:00077b10       ____lc_handle_func         00478b10 f   LIBCMTD:initctyp.obj
 0001:00077b60       ___init_collate            00478b60 f   LIBCMTD:initcoll.obj
 0001:00077b70       _strcspn                   00478b70 f   LIBCMTD:strcspn.obj
 0001:00077bc0       _strncmp                   00478bc0 f   LIBCMTD:strncmp.obj
 0001:00077d40       _strpbrk                   00478d40 f   LIBCMTD:strpbrk.obj
 0001:00077d80       ___get_qualified_locale    00478d80 f   LIBCMTD:getqloc.obj
 0001:00078be0       __strnicmp_l               00479be0 f   LIBCMTD:strnicmp.obj
 0001:00078e20       __strnicmp                 00479e20 f   LIBCMTD:strnicmp.obj
 0001:00078fb0       __mbschr_l                 00479fb0 f   LIBCMTD:mbschr.obj
 0001:00079140       __mbschr                   0047a140 f   LIBCMTD:mbschr.obj
 0001:00079160       ___initconout              0047a160 f   LIBCMTD:initcon.obj
 0001:00079190       ___termconout              0047a190 f   LIBCMTD:initcon.obj
 0001:000791c0       __iswctype_l               0047a1c0 f   LIBCMTD:iswctype.obj
 0001:000791e0       _iswctype                  0047a1e0 f   LIBCMTD:iswctype.obj
 0001:00079240       _is_wctype                 0047a240 f   LIBCMTD:iswctype.obj
 0001:00079260       _vprintf_helper            0047a260 f   LIBCMTD:vprintf.obj
 0001:00079380       __vprintf_l                0047a380 f   LIBCMTD:vprintf.obj
 0001:000793a0       __vprintf_s_l              0047a3a0 f   LIBCMTD:vprintf.obj
 0001:000793c0       __vprintf_p_l              0047a3c0 f   LIBCMTD:vprintf.obj
 0001:000793e0       _vprintf                   0047a3e0 f   LIBCMTD:vprintf.obj
 0001:00079400       _vprintf_s                 0047a400 f   LIBCMTD:vprintf.obj
 0001:00079420       __vprintf_p                0047a420 f   LIBCMTD:vprintf.obj
 0001:00079440       __close                    0047a440 f   LIBCMTD:close.obj
 0001:00079650       __close_nolock             0047a650 f   LIBCMTD:close.obj
 0001:00079720       __flswbuf                  0047a720 f   LIBCMTD:_flswbuf.obj
 0001:00079a00       __wchartodigit             0047aa00 f   LIBCMTD:wchtodig.obj
 0001:00079d30       __stricmp_l                0047ad30 f   LIBCMTD:stricmp.obj
 0001:00079ee0       ___ascii_stricmp           0047aee0 f   LIBCMTD:stricmp.obj
 0001:00079f60       __stricmp                  0047af60 f   LIBCMTD:stricmp.obj
 0001:0007a070       __tolower                  0047b070 f   LIBCMTD:tolower.obj
 0001:0007a080       __tolower_l                0047b080 f   LIBCMTD:tolower.obj
 0001:0007a260       _tolower                   0047b260 f   LIBCMTD:tolower.obj
 0001:0007a2b0       ___ascii_strnicmp          0047b2b0 f   LIBCMTD:_strnicm.obj
 0001:0007a330       _strchr                    0047b330 f   LIBCMTD:strchr.obj
 0001:0007a336       ___from_strstr_to_strchr   0047b336     LIBCMTD:strchr.obj
 0001:0007a3ee       _TlsFree@4                 0047b3ee f   kernel32:KERNEL32.dll
 0001:0007a3f4       _TlsAlloc@0                0047b3f4 f   kernel32:KERNEL32.dll
 0001:0007a3fa       _GetSystemTimeAsFileTime@4 0047b3fa f   kernel32:KERNEL32.dll
 0001:0007a400       _CloseHandle@4             0047b400 f   kernel32:KERNEL32.dll
 0001:0007a406       _WaitForSingleObject@8     0047b406 f   kernel32:KERNEL32.dll
 0001:0007a40c       _GetVersionExA@4           0047b40c f   kernel32:KERNEL32.dll
 0001:0007a412       _CreateSemaphoreA@16       0047b412 f   kernel32:KERNEL32.dll
 0001:0007a418       _ReleaseSemaphore@12       0047b418 f   kernel32:KERNEL32.dll
 0001:0007a41e       _InitializeCriticalSection@4 0047b41e f   kernel32:KERNEL32.dll
 0001:0007a424       _DeleteCriticalSection@4   0047b424 f   kernel32:KERNEL32.dll
 0001:0007a42a       _LeaveCriticalSection@4    0047b42a f   kernel32:KERNEL32.dll
 0001:0007a430       _EnterCriticalSection@4    0047b430 f   kernel32:KERNEL32.dll
 0001:0007a436       _TlsSetValue@8             0047b436 f   kernel32:KERNEL32.dll
 0001:0007a43c       _SetThreadPriority@8       0047b43c f   kernel32:KERNEL32.dll
 0001:0007a442       _CreateThread@24           0047b442 f   kernel32:KERNEL32.dll
 0001:0007a448       _TlsGetValue@4             0047b448 f   kernel32:KERNEL32.dll
 0001:0007a44e       _InterlockedIncrement@4    0047b44e f   kernel32:KERNEL32.dll
 0001:0007a454       _InterlockedDecrement@4    0047b454 f   kernel32:KERNEL32.dll
 0001:0007a45a       _Sleep@4                   0047b45a f   kernel32:KERNEL32.dll
 0001:0007a460       _InterlockedExchange@8     0047b460 f   kernel32:KERNEL32.dll
 0001:0007a466       _RtlUnwind@16              0047b466 f   kernel32:KERNEL32.dll
 0001:0007a46c       _DecodePointer@4           0047b46c f   kernel32:KERNEL32.dll
 0001:0007a472       _EncodePointer@4           0047b472 f   kernel32:KERNEL32.dll
 0001:0007a478       _TerminateProcess@8        0047b478 f   kernel32:KERNEL32.dll
 0001:0007a47e       _GetCurrentProcess@0       0047b47e f   kernel32:KERNEL32.dll
 0001:0007a484       _UnhandledExceptionFilter@4 0047b484 f   kernel32:KERNEL32.dll
 0001:0007a48a       _SetUnhandledExceptionFilter@4 0047b48a f   kernel32:KERNEL32.dll
 0001:0007a490       _IsDebuggerPresent@0       0047b490 f   kernel32:KERNEL32.dll
 0001:0007a496       _GetModuleFileNameW@12     0047b496 f   kernel32:KERNEL32.dll
 0001:0007a49c       _GetCommandLineA@0         0047b49c f   kernel32:KERNEL32.dll
 0001:0007a4a2       _HeapSetInformation@16     0047b4a2 f   kernel32:KERNEL32.dll
 0001:0007a4a8       _RaiseException@16         0047b4a8 f   kernel32:KERNEL32.dll
 0001:0007a4ae       _WriteConsoleW@20          0047b4ae f   kernel32:KERNEL32.dll
 0001:0007a4b4       _GetFileType@4             0047b4b4 f   kernel32:KERNEL32.dll
 0001:0007a4ba       _GetStdHandle@4            0047b4ba f   kernel32:KERNEL32.dll
 0001:0007a4c0       _WideCharToMultiByte@32    0047b4c0 f   kernel32:KERNEL32.dll
 0001:0007a4c6       _MultiByteToWideChar@24    0047b4c6 f   kernel32:KERNEL32.dll
 0001:0007a4cc       _lstrlenA@4                0047b4cc f   kernel32:KERNEL32.dll
 0001:0007a4d2       _GetProcAddress@8          0047b4d2 f   kernel32:KERNEL32.dll
 0001:0007a4d8       _LoadLibraryW@4            0047b4d8 f   kernel32:KERNEL32.dll
 0001:0007a4de       _InitializeCriticalSectionAndSpinCount@8 0047b4de f   kernel32:KERNEL32.dll
 0001:0007a4e4       _FatalAppExitA@8           0047b4e4 f   kernel32:KERNEL32.dll
 0001:0007a4ea       _HeapValidate@12           0047b4ea f   kernel32:KERNEL32.dll
 0001:0007a4f0       _IsBadReadPtr@8            0047b4f0 f   kernel32:KERNEL32.dll
 0001:0007a4f6       _GetCurrentThreadId@0      0047b4f6 f   kernel32:KERNEL32.dll
 0001:0007a4fc       _GetModuleHandleW@4        0047b4fc f   kernel32:KERNEL32.dll
 0001:0007a502       _SetLastError@4            0047b502 f   kernel32:KERNEL32.dll
 0001:0007a508       _GetLastError@0            0047b508 f   kernel32:KERNEL32.dll
 0001:0007a50e       _GetCurrentThread@0        0047b50e f   kernel32:KERNEL32.dll
 0001:0007a514       _WriteFile@20              0047b514 f   kernel32:KERNEL32.dll
 0001:0007a51a       _GetLocaleInfoW@16         0047b51a f   kernel32:KERNEL32.dll
 0001:0007a520       _OutputDebugStringA@4      0047b520 f   kernel32:KERNEL32.dll
 0001:0007a526       _OutputDebugStringW@4      0047b526 f   kernel32:KERNEL32.dll
 0001:0007a52c       _ExitProcess@4             0047b52c f   kernel32:KERNEL32.dll
 0001:0007a532       _SetConsoleCtrlHandler@8   0047b532 f   kernel32:KERNEL32.dll
 0001:0007a538       _QueryPerformanceCounter@4 0047b538 f   kernel32:KERNEL32.dll
 0001:0007a53e       _GetTickCount@0            0047b53e f   kernel32:KERNEL32.dll
 0001:0007a544       _GetCurrentProcessId@0     0047b544 f   kernel32:KERNEL32.dll
 0001:0007a54a       _GetModuleFileNameA@12     0047b54a f   kernel32:KERNEL32.dll
 0001:0007a550       _FreeEnvironmentStringsW@4 0047b550 f   kernel32:KERNEL32.dll
 0001:0007a556       _GetEnvironmentStringsW@0  0047b556 f   kernel32:KERNEL32.dll
 0001:0007a55c       _SetHandleCount@4          0047b55c f   kernel32:KERNEL32.dll
 0001:0007a562       _GetStartupInfoW@4         0047b562 f   kernel32:KERNEL32.dll
 0001:0007a568       _HeapCreate@12             0047b568 f   kernel32:KERNEL32.dll
 0001:0007a56e       _HeapDestroy@4             0047b56e f   kernel32:KERNEL32.dll
 0001:0007a574       _IsProcessorFeaturePresent@4 0047b574 f   kernel32:KERNEL32.dll
 0001:0007a57a       _FlushFileBuffers@4        0047b57a f   kernel32:KERNEL32.dll
 0001:0007a580       _GetConsoleCP@0            0047b580 f   kernel32:KERNEL32.dll
 0001:0007a586       _GetConsoleMode@8          0047b586 f   kernel32:KERNEL32.dll
 0001:0007a58c       _HeapFree@12               0047b58c f   kernel32:KERNEL32.dll
 0001:0007a592       _HeapAlloc@12              0047b592 f   kernel32:KERNEL32.dll
 0001:0007a598       _GetProcessHeap@0          0047b598 f   kernel32:KERNEL32.dll
 0001:0007a59e       _VirtualQuery@12           0047b59e f   kernel32:KERNEL32.dll
 0001:0007a5a4       _FreeLibrary@4             0047b5a4 f   kernel32:KERNEL32.dll
 0001:0007a5aa       _HeapReAlloc@16            0047b5aa f   kernel32:KERNEL32.dll
 0001:0007a5b0       _HeapSize@12               0047b5b0 f   kernel32:KERNEL32.dll
 0001:0007a5b6       _HeapQueryInformation@20   0047b5b6 f   kernel32:KERNEL32.dll
 0001:0007a5bc       _GetACP@0                  0047b5bc f   kernel32:KERNEL32.dll
 0001:0007a5c2       _GetOEMCP@0                0047b5c2 f   kernel32:KERNEL32.dll
 0001:0007a5c8       _GetCPInfo@8               0047b5c8 f   kernel32:KERNEL32.dll
 0001:0007a5ce       _IsValidCodePage@4         0047b5ce f   kernel32:KERNEL32.dll
 0001:0007a5d4       _CompareStringW@24         0047b5d4 f   kernel32:KERNEL32.dll
 0001:0007a5da       _SetEnvironmentVariableA@8 0047b5da f   kernel32:KERNEL32.dll
 0001:0007a5e0       _SetStdHandle@8            0047b5e0 f   kernel32:KERNEL32.dll
 0001:0007a5e6       _SetFilePointer@16         0047b5e6 f   kernel32:KERNEL32.dll
 0001:0007a5ec       _LCMapStringW@24           0047b5ec f   kernel32:KERNEL32.dll
 0001:0007a5f2       _GetStringTypeW@16         0047b5f2 f   kernel32:KERNEL32.dll
 0001:0007a5f8       _GetLocaleInfoA@16         0047b5f8 f   kernel32:KERNEL32.dll
 0001:0007a5fe       _IsValidLocale@8           0047b5fe f   kernel32:KERNEL32.dll
 0001:0007a604       _EnumSystemLocalesA@8      0047b604 f   kernel32:KERNEL32.dll
 0001:0007a60a       _GetUserDefaultLCID@0      0047b60a f   kernel32:KERNEL32.dll
 0001:0007a610       _CreateFileW@28            0047b610 f   kernel32:KERNEL32.dll
 0001:0007a616       _WSAStartup@8              0047b616 f   Ws2_32:WS2_32.dll
 0001:0007a61c       _WSACleanup@0              0047b61c f   Ws2_32:WS2_32.dll
 0001:0007a622       _closesocket@4             0047b622 f   Ws2_32:WS2_32.dll
 0001:0007a628       _WSACloseEvent@4           0047b628 f   Ws2_32:WS2_32.dll
 0001:0007a62e       _WSASetEvent@4             0047b62e f   Ws2_32:WS2_32.dll
 0001:0007a634       _socket@12                 0047b634 f   Ws2_32:WS2_32.dll
 0001:0007a63a       _WSACreateEvent@0          0047b63a f   Ws2_32:WS2_32.dll
 0001:0007a640       _bind@12                   0047b640 f   Ws2_32:WS2_32.dll
 0001:0007a646       _getsockname@12            0047b646 f   Ws2_32:WS2_32.dll
 0001:0007a64c       _WSAWaitForMultipleEvents@20 0047b64c f   Ws2_32:WS2_32.dll
 0001:0007a652       _connect@12                0047b652 f   Ws2_32:WS2_32.dll
 0001:0007a658       _WSAEventSelect@12         0047b658 f   Ws2_32:WS2_32.dll
 0001:0007a65e       _ioctlsocket@12            0047b65e f   Ws2_32:WS2_32.dll
 0001:0007a664       _send@16                   0047b664 f   Ws2_32:WS2_32.dll
 0001:0007a66a       _sendto@24                 0047b66a f   Ws2_32:WS2_32.dll
 0001:0007a670       _WSAGetLastError@0         0047b670 f   Ws2_32:WS2_32.dll
 0001:0007a676       _recv@16                   0047b676 f   Ws2_32:WS2_32.dll
 0001:0007a67c       _recvfrom@24               0047b67c f   Ws2_32:WS2_32.dll
 0001:0007a682       _WSAResetEvent@4           0047b682 f   Ws2_32:WS2_32.dll
 0001:0007a688       _listen@8                  0047b688 f   Ws2_32:WS2_32.dll
 0001:0007a68e       _accept@12                 0047b68e f   Ws2_32:WS2_32.dll
 0001:0007a694       _gethostbyname@4           0047b694 f   Ws2_32:WS2_32.dll
 0001:0007a69a       _setsockopt@20             0047b69a f   Ws2_32:WS2_32.dll
 0001:0007a6a0       _WSAIoctl@36               0047b6a0 f   Ws2_32:WS2_32.dll
 0001:0007a6a6       _GetIfTable@12             0047b6a6 f   Iphlpapi:IPHLPAPI.DLL
 0001:0007a6ac       _GetIpAddrTable@12         0047b6ac f   Iphlpapi:IPHLPAPI.DLL
 0001:0007a6c0       ?Log@Logger@@QAEXPBD@Z     0047b6c0 f   libTestFramework:Main.obj
 0001:0007a710       _main                      0047b710 f   libTestFramework:Main.obj
 0001:0007a820       ??$MakeFunctorMsg@VLogger@@V1@@OpenHome@@YG?AV?$MemberTranslatorMsg@VLogger@@P81@AEXPBD@Z@0@AAVLogger@@ABQ82@AEXPBD@Z@Z 0047b820 f i libTestFramework:Main.obj
 0001:0007a850       ??0?$MemberTranslatorMsg@VLogger@@P81@AEXPBD@Z@OpenHome@@QAE@AAVLogger@@ABQ82@AEXPBD@Z@Z 0047b850 f i libTestFramework:Main.obj
 0001:0007a890       ?Thunk@?$MemberTranslatorMsg@VLogger@@P81@AEXPBD@Z@OpenHome@@SGXABVFunctorMsg@2@PBD@Z 0047b890 f i libTestFramework:Main.obj
 0002:00000000       __imp__GetIpAddrTable@12   00486000     Iphlpapi:IPHLPAPI.DLL
 0002:00000004       __imp__GetIfTable@12       00486004     Iphlpapi:IPHLPAPI.DLL
 0002:00000008       \177IPHLPAPI_NULL_THUNK_DATA 00486008     Iphlpapi:IPHLPAPI.DLL
 0002:0000000c       __imp__CloseHandle@4       0048600c     kernel32:KERNEL32.dll
 0002:00000010       __imp__WaitForSingleObject@8 00486010     kernel32:KERNEL32.dll
 0002:00000014       __imp__GetVersionExA@4     00486014     kernel32:KERNEL32.dll
 0002:00000018       __imp__CreateSemaphoreA@16 00486018     kernel32:KERNEL32.dll
 0002:0000001c       __imp__ReleaseSemaphore@12 0048601c     kernel32:KERNEL32.dll
 0002:00000020       __imp__InitializeCriticalSection@4 00486020     kernel32:KERNEL32.dll
 0002:00000024       __imp__DeleteCriticalSection@4 00486024     kernel32:KERNEL32.dll
 0002:00000028       __imp__LeaveCriticalSection@4 00486028     kernel32:KERNEL32.dll
 0002:0000002c       __imp__EnterCriticalSection@4 0048602c     kernel32:KERNEL32.dll
 0002:00000030       __imp__TlsSetValue@8       00486030     kernel32:KERNEL32.dll
 0002:00000034       __imp__SetThreadPriority@8 00486034     kernel32:KERNEL32.dll
 0002:00000038       __imp__CreateThread@24     00486038     kernel32:KERNEL32.dll
 0002:0000003c       __imp__TlsGetValue@4       0048603c     kernel32:KERNEL32.dll
 0002:00000040       __imp__InterlockedIncrement@4 00486040     kernel32:KERNEL32.dll
 0002:00000044       __imp__InterlockedDecrement@4 00486044     kernel32:KERNEL32.dll
 0002:00000048       __imp__Sleep@4             00486048     kernel32:KERNEL32.dll
 0002:0000004c       __imp__InterlockedExchange@8 0048604c     kernel32:KERNEL32.dll
 0002:00000050       __imp__RtlUnwind@16        00486050     kernel32:KERNEL32.dll
 0002:00000054       __imp__DecodePointer@4     00486054     kernel32:KERNEL32.dll
 0002:00000058       __imp__EncodePointer@4     00486058     kernel32:KERNEL32.dll
 0002:0000005c       __imp__TerminateProcess@8  0048605c     kernel32:KERNEL32.dll
 0002:00000060       __imp__GetCurrentProcess@0 00486060     kernel32:KERNEL32.dll
 0002:00000064       __imp__UnhandledExceptionFilter@4 00486064     kernel32:KERNEL32.dll
 0002:00000068       __imp__SetUnhandledExceptionFilter@4 00486068     kernel32:KERNEL32.dll
 0002:0000006c       __imp__IsDebuggerPresent@0 0048606c     kernel32:KERNEL32.dll
 0002:00000070       __imp__GetModuleFileNameW@12 00486070     kernel32:KERNEL32.dll
 0002:00000074       __imp__GetCommandLineA@0   00486074     kernel32:KERNEL32.dll
 0002:00000078       __imp__HeapSetInformation@16 00486078     kernel32:KERNEL32.dll
 0002:0000007c       __imp__RaiseException@16   0048607c     kernel32:KERNEL32.dll
 0002:00000080       __imp__WriteConsoleW@20    00486080     kernel32:KERNEL32.dll
 0002:00000084       __imp__GetFileType@4       00486084     kernel32:KERNEL32.dll
 0002:00000088       __imp__GetStdHandle@4      00486088     kernel32:KERNEL32.dll
 0002:0000008c       __imp__WideCharToMultiByte@32 0048608c     kernel32:KERNEL32.dll
 0002:00000090       __imp__MultiByteToWideChar@24 00486090     kernel32:KERNEL32.dll
 0002:00000094       __imp__lstrlenA@4          00486094     kernel32:KERNEL32.dll
 0002:00000098       __imp__GetProcAddress@8    00486098     kernel32:KERNEL32.dll
 0002:0000009c       __imp__LoadLibraryW@4      0048609c     kernel32:KERNEL32.dll
 0002:000000a0       __imp__InitializeCriticalSectionAndSpinCount@8 004860a0     kernel32:KERNEL32.dll
 0002:000000a4       __imp__FatalAppExitA@8     004860a4     kernel32:KERNEL32.dll
 0002:000000a8       __imp__HeapValidate@12     004860a8     kernel32:KERNEL32.dll
 0002:000000ac       __imp__IsBadReadPtr@8      004860ac     kernel32:KERNEL32.dll
 0002:000000b0       __imp__GetCurrentThreadId@0 004860b0     kernel32:KERNEL32.dll
 0002:000000b4       __imp__GetModuleHandleW@4  004860b4     kernel32:KERNEL32.dll
 0002:000000b8       __imp__SetLastError@4      004860b8     kernel32:KERNEL32.dll
 0002:000000bc       __imp__GetSystemTimeAsFileTime@4 004860bc     kernel32:KERNEL32.dll
 0002:000000c0       __imp__GetCurrentThread@0  004860c0     kernel32:KERNEL32.dll
 0002:000000c4       __imp__WriteFile@20        004860c4     kernel32:KERNEL32.dll
 0002:000000c8       __imp__GetLocaleInfoW@16   004860c8     kernel32:KERNEL32.dll
 0002:000000cc       __imp__OutputDebugStringA@4 004860cc     kernel32:KERNEL32.dll
 0002:000000d0       __imp__OutputDebugStringW@4 004860d0     kernel32:KERNEL32.dll
 0002:000000d4       __imp__ExitProcess@4       004860d4     kernel32:KERNEL32.dll
 0002:000000d8       __imp__SetConsoleCtrlHandler@8 004860d8     kernel32:KERNEL32.dll
 0002:000000dc       __imp__QueryPerformanceCounter@4 004860dc     kernel32:KERNEL32.dll
 0002:000000e0       __imp__GetTickCount@0      004860e0     kernel32:KERNEL32.dll
 0002:000000e4       __imp__GetCurrentProcessId@0 004860e4     kernel32:KERNEL32.dll
 0002:000000e8       __imp__GetModuleFileNameA@12 004860e8     kernel32:KERNEL32.dll
 0002:000000ec       __imp__FreeEnvironmentStringsW@4 004860ec     kernel32:KERNEL32.dll
 0002:000000f0       __imp__GetEnvironmentStringsW@0 004860f0     kernel32:KERNEL32.dll
 0002:000000f4       __imp__SetHandleCount@4    004860f4     kernel32:KERNEL32.dll
 0002:000000f8       __imp__GetStartupInfoW@4   004860f8     kernel32:KERNEL32.dll
 0002:000000fc       __imp__HeapCreate@12       004860fc     kernel32:KERNEL32.dll
 0002:00000100       __imp__HeapDestroy@4       00486100     kernel32:KERNEL32.dll
 0002:00000104       __imp__IsProcessorFeaturePresent@4 00486104     kernel32:KERNEL32.dll
 0002:00000108       __imp__FlushFileBuffers@4  00486108     kernel32:KERNEL32.dll
 0002:0000010c       __imp__GetConsoleCP@0      0048610c     kernel32:KERNEL32.dll
 0002:00000110       __imp__GetConsoleMode@8    00486110     kernel32:KERNEL32.dll
 0002:00000114       __imp__HeapFree@12         00486114     kernel32:KERNEL32.dll
 0002:00000118       __imp__HeapAlloc@12        00486118     kernel32:KERNEL32.dll
 0002:0000011c       __imp__GetProcessHeap@0    0048611c     kernel32:KERNEL32.dll
 0002:00000120       __imp__VirtualQuery@12     00486120     kernel32:KERNEL32.dll
 0002:00000124       __imp__FreeLibrary@4       00486124     kernel32:KERNEL32.dll
 0002:00000128       __imp__HeapReAlloc@16      00486128     kernel32:KERNEL32.dll
 0002:0000012c       __imp__HeapSize@12         0048612c     kernel32:KERNEL32.dll
 0002:00000130       __imp__HeapQueryInformation@20 00486130     kernel32:KERNEL32.dll
 0002:00000134       __imp__GetACP@0            00486134     kernel32:KERNEL32.dll
 0002:00000138       __imp__GetOEMCP@0          00486138     kernel32:KERNEL32.dll
 0002:0000013c       __imp__GetCPInfo@8         0048613c     kernel32:KERNEL32.dll
 0002:00000140       __imp__IsValidCodePage@4   00486140     kernel32:KERNEL32.dll
 0002:00000144       __imp__CompareStringW@24   00486144     kernel32:KERNEL32.dll
 0002:00000148       __imp__SetEnvironmentVariableA@8 00486148     kernel32:KERNEL32.dll
 0002:0000014c       __imp__SetStdHandle@8      0048614c     kernel32:KERNEL32.dll
 0002:00000150       __imp__SetFilePointer@16   00486150     kernel32:KERNEL32.dll
 0002:00000154       __imp__LCMapStringW@24     00486154     kernel32:KERNEL32.dll
 0002:00000158       __imp__GetStringTypeW@16   00486158     kernel32:KERNEL32.dll
 0002:0000015c       __imp__GetLocaleInfoA@16   0048615c     kernel32:KERNEL32.dll
 0002:00000160       __imp__IsValidLocale@8     00486160     kernel32:KERNEL32.dll
 0002:00000164       __imp__EnumSystemLocalesA@8 00486164     kernel32:KERNEL32.dll
 0002:00000168       __imp__GetUserDefaultLCID@0 00486168     kernel32:KERNEL32.dll
 0002:0000016c       __imp__CreateFileW@28      0048616c     kernel32:KERNEL32.dll
 0002:00000170       __imp__TlsAlloc@0          00486170     kernel32:KERNEL32.dll
 0002:00000174       __imp__GetLastError@0      00486174     kernel32:KERNEL32.dll
 0002:00000178       __imp__TlsFree@4           00486178     kernel32:KERNEL32.dll
 0002:0000017c       \177KERNEL32_NULL_THUNK_DATA 0048617c     kernel32:KERNEL32.dll
 0002:00000180       __imp__WSACloseEvent@4     00486180     Ws2_32:WS2_32.dll
 0002:00000184       __imp__WSASetEvent@4       00486184     Ws2_32:WS2_32.dll
 0002:00000188       __imp__socket@12           00486188     Ws2_32:WS2_32.dll
 0002:0000018c       __imp__WSACreateEvent@0    0048618c     Ws2_32:WS2_32.dll
 0002:00000190       __imp__bind@12             00486190     Ws2_32:WS2_32.dll
 0002:00000194       __imp__getsockname@12      00486194     Ws2_32:WS2_32.dll
 0002:00000198       __imp__WSAWaitForMultipleEvents@20 00486198     Ws2_32:WS2_32.dll
 0002:0000019c       __imp__connect@12          0048619c     Ws2_32:WS2_32.dll
 0002:000001a0       __imp__WSAEventSelect@12   004861a0     Ws2_32:WS2_32.dll
 0002:000001a4       __imp__ioctlsocket@12      004861a4     Ws2_32:WS2_32.dll
 0002:000001a8       __imp__send@16             004861a8     Ws2_32:WS2_32.dll
 0002:000001ac       __imp__sendto@24           004861ac     Ws2_32:WS2_32.dll
 0002:000001b0       __imp__WSAGetLastError@0   004861b0     Ws2_32:WS2_32.dll
 0002:000001b4       __imp__recv@16             004861b4     Ws2_32:WS2_32.dll
 0002:000001b8       __imp__recvfrom@24         004861b8     Ws2_32:WS2_32.dll
 0002:000001bc       __imp__WSAResetEvent@4     004861bc     Ws2_32:WS2_32.dll
 0002:000001c0       __imp__listen@8            004861c0     Ws2_32:WS2_32.dll
 0002:000001c4       __imp__accept@12           004861c4     Ws2_32:WS2_32.dll
 0002:000001c8       __imp__gethostbyname@4     004861c8     Ws2_32:WS2_32.dll
 0002:000001cc       __imp__setsockopt@20       004861cc     Ws2_32:WS2_32.dll
 0002:000001d0       __imp__WSAIoctl@36         004861d0     Ws2_32:WS2_32.dll
 0002:000001d4       __imp__WSACleanup@0        004861d4     Ws2_32:WS2_32.dll
 0002:000001d8       __imp__WSAStartup@8        004861d8     Ws2_32:WS2_32.dll
 0002:000001dc       __imp__closesocket@4       004861dc     Ws2_32:WS2_32.dll
 0002:000001e0       \177WS2_32_NULL_THUNK_DATA 004861e0     Ws2_32:WS2_32.dll
 0002:000001e4       ___xc_a                    004861e4     LIBCMTD:crt0init.obj
 0002:00000470       ___xc_z                    00486470     LIBCMTD:crt0init.obj
 0002:00000474       ___xi_a                    00486474     LIBCMTD:crt0init.obj
 0002:0000048c       ___xi_z                    0048648c     LIBCMTD:crt0init.obj
 0002:00000490       ___xp_a                    00486490     LIBCMTD:crt0init.obj
 0002:000004a0       ___xp_z                    004864a0     LIBCMTD:crt0init.obj
 0002:000004a4       ___xt_a                    004864a4     LIBCMTD:crt0init.obj
 0002:000004a8       ___xt_z                    004864a8     LIBCMTD:crt0init.obj
 0002:000004cc       ?kFudgeFactor@Functor@OpenHome@@2IB 004864cc     TestSsdpUListen.obj
 0002:000004d0       ?kFudgeFactor@FunctorAsync@Net@OpenHome@@2IB 004864d0     TestSsdpUListen.obj
 0002:000004d4       ?kFudgeFactor@FunctorMsg@OpenHome@@2IB 004864d4     TestSsdpUListen.obj
 0002:000004d8       ?has_denorm@_Num_base@std@@2W4float_denorm_style@2@B 004864d8     TestSsdpUListen.obj
 0002:000004dc       ?has_denorm_loss@_Num_base@std@@2_NB 004864dc     TestSsdpUListen.obj
 0002:000004dd       ?has_infinity@_Num_base@std@@2_NB 004864dd     TestSsdpUListen.obj
 0002:000004de       ?has_quiet_NaN@_Num_base@std@@2_NB 004864de     TestSsdpUListen.obj
 0002:000004df       ?has_signaling_NaN@_Num_base@std@@2_NB 004864df     TestSsdpUListen.obj
 0002:000004e0       ?is_bounded@_Num_base@std@@2_NB 004864e0     TestSsdpUListen.obj
 0002:000004e1       ?is_exact@_Num_base@std@@2_NB 004864e1     TestSsdpUListen.obj
 0002:000004e2       ?is_iec559@_Num_base@std@@2_NB 004864e2     TestSsdpUListen.obj
 0002:000004e3       ?is_integer@_Num_base@std@@2_NB 004864e3     TestSsdpUListen.obj
 0002:000004e4       ?is_modulo@_Num_base@std@@2_NB 004864e4     TestSsdpUListen.obj
 0002:000004e5       ?is_signed@_Num_base@std@@2_NB 004864e5     TestSsdpUListen.obj
 0002:000004e6       ?is_specialized@_Num_base@std@@2_NB 004864e6     TestSsdpUListen.obj
 0002:000004e7       ?tinyness_before@_Num_base@std@@2_NB 004864e7     TestSsdpUListen.obj
 0002:000004e8       ?traps@_Num_base@std@@2_NB 004864e8     TestSsdpUListen.obj
 0002:000004ec       ?round_style@_Num_base@std@@2W4float_round_style@2@B 004864ec     TestSsdpUListen.obj
 0002:000004f0       ?digits@_Num_base@std@@2HB 004864f0     TestSsdpUListen.obj
 0002:000004f4       ?digits10@_Num_base@std@@2HB 004864f4     TestSsdpUListen.obj
 0002:000004f8       ?max_digits10@_Num_base@std@@2HB 004864f8     TestSsdpUListen.obj
 0002:000004fc       ?max_exponent@_Num_base@std@@2HB 004864fc     TestSsdpUListen.obj
 0002:00000500       ?max_exponent10@_Num_base@std@@2HB 00486500     TestSsdpUListen.obj
 0002:00000504       ?min_exponent@_Num_base@std@@2HB 00486504     TestSsdpUListen.obj
 0002:00000508       ?min_exponent10@_Num_base@std@@2HB 00486508     TestSsdpUListen.obj
 0002:0000050c       ?radix@_Num_base@std@@2HB  0048650c     TestSsdpUListen.obj
 0002:00000510       ?is_bounded@_Num_int_base@std@@2_NB 00486510     TestSsdpUListen.obj
 0002:00000511       ?is_exact@_Num_int_base@std@@2_NB 00486511     TestSsdpUListen.obj
 0002:00000512       ?is_integer@_Num_int_base@std@@2_NB 00486512     TestSsdpUListen.obj
 0002:00000513       ?is_modulo@_Num_int_base@std@@2_NB 00486513     TestSsdpUListen.obj
 0002:00000514       ?is_specialized@_Num_int_base@std@@2_NB 00486514     TestSsdpUListen.obj
 0002:00000518       ?radix@_Num_int_base@std@@2HB 00486518     TestSsdpUListen.obj
 0002:0000051c       ?has_denorm@_Num_float_base@std@@2W4float_denorm_style@2@B 0048651c     TestSsdpUListen.obj
 0002:00000520       ?has_denorm_loss@_Num_float_base@std@@2_NB 00486520     TestSsdpUListen.obj
 0002:00000521       ?has_infinity@_Num_float_base@std@@2_NB 00486521     TestSsdpUListen.obj
 0002:00000522       ?has_quiet_NaN@_Num_float_base@std@@2_NB 00486522     TestSsdpUListen.obj
 0002:00000523       ?has_signaling_NaN@_Num_float_base@std@@2_NB 00486523     TestSsdpUListen.obj
 0002:00000524       ?is_bounded@_Num_float_base@std@@2_NB 00486524     TestSsdpUListen.obj
 0002:00000525       ?is_exact@_Num_float_base@std@@2_NB 00486525     TestSsdpUListen.obj
 0002:00000526       ?is_iec559@_Num_float_base@std@@2_NB 00486526     TestSsdpUListen.obj
 0002:00000527       ?is_integer@_Num_float_base@std@@2_NB 00486527     TestSsdpUListen.obj
 0002:00000528       ?is_modulo@_Num_float_base@std@@2_NB 00486528     TestSsdpUListen.obj
 0002:00000529       ?is_signed@_Num_float_base@std@@2_NB 00486529     TestSsdpUListen.obj
 0002:0000052a       ?is_specialized@_Num_float_base@std@@2_NB 0048652a     TestSsdpUListen.obj
 0002:0000052b       ?tinyness_before@_Num_float_base@std@@2_NB 0048652b     TestSsdpUListen.obj
 0002:0000052c       ?traps@_Num_float_base@std@@2_NB 0048652c     TestSsdpUListen.obj
 0002:00000530       ?round_style@_Num_float_base@std@@2W4float_round_style@2@B 00486530     TestSsdpUListen.obj
 0002:00000534       ?radix@_Num_float_base@std@@2HB 00486534     TestSsdpUListen.obj
 0002:00000538       ?is_signed@?$numeric_limits@D@std@@2_NB 00486538     TestSsdpUListen.obj
 0002:0000053c       ?digits@?$numeric_limits@D@std@@2HB 0048653c     TestSsdpUListen.obj
 0002:00000540       ?digits10@?$numeric_limits@D@std@@2HB 00486540     TestSsdpUListen.obj
 0002:00000544       ?max_digits10@?$numeric_limits@D@std@@2HB 00486544     TestSsdpUListen.obj
 0002:00000548       ?is_signed@?$numeric_limits@_W@std@@2_NB 00486548     TestSsdpUListen.obj
 0002:0000054c       ?digits@?$numeric_limits@_W@std@@2HB 0048654c     TestSsdpUListen.obj
 0002:00000550       ?digits10@?$numeric_limits@_W@std@@2HB 00486550     TestSsdpUListen.obj
 0002:00000554       ?max_digits10@?$numeric_limits@_W@std@@2HB 00486554     TestSsdpUListen.obj
 0002:00000558       ?is_modulo@?$numeric_limits@_N@std@@2_NB 00486558     TestSsdpUListen.obj
 0002:00000559       ?is_signed@?$numeric_limits@_N@std@@2_NB 00486559     TestSsdpUListen.obj
 0002:0000055c       ?digits@?$numeric_limits@_N@std@@2HB 0048655c     TestSsdpUListen.obj
 0002:00000560       ?digits10@?$numeric_limits@_N@std@@2HB 00486560     TestSsdpUListen.obj
 0002:00000564       ?max_digits10@?$numeric_limits@_N@std@@2HB 00486564     TestSsdpUListen.obj
 0002:00000568       ?is_signed@?$numeric_limits@C@std@@2_NB 00486568     TestSsdpUListen.obj
 0002:0000056c       ?digits@?$numeric_limits@C@std@@2HB 0048656c     TestSsdpUListen.obj
 0002:00000570       ?digits10@?$numeric_limits@C@std@@2HB 00486570     TestSsdpUListen.obj
 0002:00000574       ?max_digits10@?$numeric_limits@C@std@@2HB 00486574     TestSsdpUListen.obj
 0002:00000578       ?is_signed@?$numeric_limits@E@std@@2_NB 00486578     TestSsdpUListen.obj
 0002:0000057c       ?digits@?$numeric_limits@E@std@@2HB 0048657c     TestSsdpUListen.obj
 0002:00000580       ?digits10@?$numeric_limits@E@std@@2HB 00486580     TestSsdpUListen.obj
 0002:00000584       ?max_digits10@?$numeric_limits@E@std@@2HB 00486584     TestSsdpUListen.obj
 0002:00000588       ?is_signed@?$numeric_limits@F@std@@2_NB 00486588     TestSsdpUListen.obj
 0002:0000058c       ?digits@?$numeric_limits@F@std@@2HB 0048658c     TestSsdpUListen.obj
 0002:00000590       ?digits10@?$numeric_limits@F@std@@2HB 00486590     TestSsdpUListen.obj
 0002:00000594       ?max_digits10@?$numeric_limits@F@std@@2HB 00486594     TestSsdpUListen.obj
 0002:00000598       ?is_signed@?$numeric_limits@G@std@@2_NB 00486598     TestSsdpUListen.obj
 0002:0000059c       ?digits@?$numeric_limits@G@std@@2HB 0048659c     TestSsdpUListen.obj
 0002:000005a0       ?digits10@?$numeric_limits@G@std@@2HB 004865a0     TestSsdpUListen.obj
 0002:000005a4       ?max_digits10@?$numeric_limits@G@std@@2HB 004865a4     TestSsdpUListen.obj
 0002:000005a8       ?is_signed@?$numeric_limits@H@std@@2_NB 004865a8     TestSsdpUListen.obj
 0002:000005ac       ?digits@?$numeric_limits@H@std@@2HB 004865ac     TestSsdpUListen.obj
 0002:000005b0       ?digits10@?$numeric_limits@H@std@@2HB 004865b0     TestSsdpUListen.obj
 0002:000005b4       ?max_digits10@?$numeric_limits@H@std@@2HB 004865b4     TestSsdpUListen.obj
 0002:000005b8       ?is_signed@?$numeric_limits@I@std@@2_NB 004865b8     TestSsdpUListen.obj
 0002:000005bc       ?digits@?$numeric_limits@I@std@@2HB 004865bc     TestSsdpUListen.obj
 0002:000005c0       ?digits10@?$numeric_limits@I@std@@2HB 004865c0     TestSsdpUListen.obj
 0002:000005c4       ?max_digits10@?$numeric_limits@I@std@@2HB 004865c4     TestSsdpUListen.obj
 0002:000005c8       ?is_signed@?$numeric_limits@J@std@@2_NB 004865c8     TestSsdpUListen.obj
 0002:000005cc       ?digits@?$numeric_limits@J@std@@2HB 004865cc     TestSsdpUListen.obj
 0002:000005d0       ?digits10@?$numeric_limits@J@std@@2HB 004865d0     TestSsdpUListen.obj
 0002:000005d4       ?max_digits10@?$numeric_limits@J@std@@2HB 004865d4     TestSsdpUListen.obj
 0002:000005d8       ?is_signed@?$numeric_limits@K@std@@2_NB 004865d8     TestSsdpUListen.obj
 0002:000005dc       ?digits@?$numeric_limits@K@std@@2HB 004865dc     TestSsdpUListen.obj
 0002:000005e0       ?digits10@?$numeric_limits@K@std@@2HB 004865e0     TestSsdpUListen.obj
 0002:000005e4       ?max_digits10@?$numeric_limits@K@std@@2HB 004865e4     TestSsdpUListen.obj
 0002:000005e8       ?is_signed@?$numeric_limits@_J@std@@2_NB 004865e8     TestSsdpUListen.obj
 0002:000005ec       ?digits@?$numeric_limits@_J@std@@2HB 004865ec     TestSsdpUListen.obj
 0002:000005f0       ?digits10@?$numeric_limits@_J@std@@2HB 004865f0     TestSsdpUListen.obj
 0002:000005f4       ?max_digits10@?$numeric_limits@_J@std@@2HB 004865f4     TestSsdpUListen.obj
 0002:000005f8       ?is_signed@?$numeric_limits@_K@std@@2_NB 004865f8     TestSsdpUListen.obj
 0002:000005fc       ?digits@?$numeric_limits@_K@std@@2HB 004865fc     TestSsdpUListen.obj
 0002:00000600       ?digits10@?$numeric_limits@_K@std@@2HB 00486600     TestSsdpUListen.obj
 0002:00000604       ?max_digits10@?$numeric_limits@_K@std@@2HB 00486604     TestSsdpUListen.obj
 0002:00000608       ?digits@?$numeric_limits@M@std@@2HB 00486608     TestSsdpUListen.obj
 0002:0000060c       ?digits10@?$numeric_limits@M@std@@2HB 0048660c     TestSsdpUListen.obj
 0002:00000610       ?max_digits10@?$numeric_limits@M@std@@2HB 00486610     TestSsdpUListen.obj
 0002:00000614       ?max_exponent@?$numeric_limits@M@std@@2HB 00486614     TestSsdpUListen.obj
 0002:00000618       ?max_exponent10@?$numeric_limits@M@std@@2HB 00486618     TestSsdpUListen.obj
 0002:0000061c       ?min_exponent@?$numeric_limits@M@std@@2HB 0048661c     TestSsdpUListen.obj
 0002:00000620       ?min_exponent10@?$numeric_limits@M@std@@2HB 00486620     TestSsdpUListen.obj
 0002:00000624       ?digits@?$numeric_limits@N@std@@2HB 00486624     TestSsdpUListen.obj
 0002:00000628       ?digits10@?$numeric_limits@N@std@@2HB 00486628     TestSsdpUListen.obj
 0002:0000062c       ?max_digits10@?$numeric_limits@N@std@@2HB 0048662c     TestSsdpUListen.obj
 0002:00000630       ?max_exponent@?$numeric_limits@N@std@@2HB 00486630     TestSsdpUListen.obj
 0002:00000634       ?max_exponent10@?$numeric_limits@N@std@@2HB 00486634     TestSsdpUListen.obj
 0002:00000638       ?min_exponent@?$numeric_limits@N@std@@2HB 00486638     TestSsdpUListen.obj
 0002:0000063c       ?min_exponent10@?$numeric_limits@N@std@@2HB 0048663c     TestSsdpUListen.obj
 0002:00000640       ?digits@?$numeric_limits@O@std@@2HB 00486640     TestSsdpUListen.obj
 0002:00000644       ?digits10@?$numeric_limits@O@std@@2HB 00486644     TestSsdpUListen.obj
 0002:00000648       ?max_digits10@?$numeric_limits@O@std@@2HB 00486648     TestSsdpUListen.obj
 0002:0000064c       ?max_exponent@?$numeric_limits@O@std@@2HB 0048664c     TestSsdpUListen.obj
 0002:00000650       ?max_exponent10@?$numeric_limits@O@std@@2HB 00486650     TestSsdpUListen.obj
 0002:00000654       ?min_exponent@?$numeric_limits@O@std@@2HB 00486654     TestSsdpUListen.obj
 0002:00000658       ?min_exponent10@?$numeric_limits@O@std@@2HB 00486658     TestSsdpUListen.obj
 0002:0000065c       ?value@?$integral_constant@_N$0A@@tr1@std@@2_NB 0048665c     TestSsdpUListen.obj
 0002:0000065d       ?value@?$integral_constant@_N$00@tr1@std@@2_NB 0048665d     TestSsdpUListen.obj
 0002:00000660       ?value@?$integral_constant@I$0A@@tr1@std@@2IB 00486660     TestSsdpUListen.obj
 0002:00000664       ?_Rank@?$_Arithmetic_traits@_N@std@@2HB 00486664     TestSsdpUListen.obj
 0002:00000668       ?_Rank@?$_Arithmetic_traits@D@std@@2HB 00486668     TestSsdpUListen.obj
 0002:0000066c       ?_Rank@?$_Arithmetic_traits@C@std@@2HB 0048666c     TestSsdpUListen.obj
 0002:00000670       ?_Rank@?$_Arithmetic_traits@E@std@@2HB 00486670     TestSsdpUListen.obj
 0002:00000674       ?_Rank@?$_Arithmetic_traits@F@std@@2HB 00486674     TestSsdpUListen.obj
 0002:00000678       ?_Rank@?$_Arithmetic_traits@G@std@@2HB 00486678     TestSsdpUListen.obj
 0002:0000067c       ?_Rank@?$_Arithmetic_traits@H@std@@2HB 0048667c     TestSsdpUListen.obj
 0002:00000680       ?_Rank@?$_Arithmetic_traits@I@std@@2HB 00486680     TestSsdpUListen.obj
 0002:00000684       ?_Rank@?$_Arithmetic_traits@J@std@@2HB 00486684     TestSsdpUListen.obj
 0002:00000688       ?_Rank@?$_Arithmetic_traits@K@std@@2HB 00486688     TestSsdpUListen.obj
 0002:0000068c       ?_Rank@?$_Arithmetic_traits@_J@std@@2HB 0048668c     TestSsdpUListen.obj
 0002:00000690       ?_Rank@?$_Arithmetic_traits@_K@std@@2HB 00486690     TestSsdpUListen.obj
 0002:00000694       ?_Rank@?$_Arithmetic_traits@M@std@@2HB 00486694     TestSsdpUListen.obj
 0002:00000698       ?_Rank@?$_Arithmetic_traits@N@std@@2HB 00486698     TestSsdpUListen.obj
 0002:0000069c       ?_Rank@?$_Arithmetic_traits@O@std@@2HB 0048669c     TestSsdpUListen.obj
 0002:000006a0       ?kNone@Debug@OpenHome@@2IB 004866a0     TestSsdpUListen.obj
 0002:000006a4       ?kError@Debug@OpenHome@@2IB 004866a4     TestSsdpUListen.obj
 0002:000006a8       ?kThread@Debug@OpenHome@@2IB 004866a8     TestSsdpUListen.obj
 0002:000006ac       ?kNetwork@Debug@OpenHome@@2IB 004866ac     TestSsdpUListen.obj
 0002:000006b0       ?kTimer@Debug@OpenHome@@2IB 004866b0     TestSsdpUListen.obj
 0002:000006b4       ?kSsdpMulticast@Debug@OpenHome@@2IB 004866b4     TestSsdpUListen.obj
 0002:000006b8       ?kSsdpUnicast@Debug@OpenHome@@2IB 004866b8     TestSsdpUListen.obj
 0002:000006bc       ?kHttp@Debug@OpenHome@@2IB 004866bc     TestSsdpUListen.obj
 0002:000006c0       ?kDevice@Debug@OpenHome@@2IB 004866c0     TestSsdpUListen.obj
 0002:000006c4       ?kXmlFetch@Debug@OpenHome@@2IB 004866c4     TestSsdpUListen.obj
 0002:000006c8       ?kService@Debug@OpenHome@@2IB 004866c8     TestSsdpUListen.obj
 0002:000006cc       ?kEvent@Debug@OpenHome@@2IB 004866cc     TestSsdpUListen.obj
 0002:000006d0       ?kTopology@Debug@OpenHome@@2IB 004866d0     TestSsdpUListen.obj
 0002:000006d4       ?kDvInvocation@Debug@OpenHome@@2IB 004866d4     TestSsdpUListen.obj
 0002:000006d8       ?kDvEvent@Debug@OpenHome@@2IB 004866d8     TestSsdpUListen.obj
 0002:000006dc       ?kDvWebSocket@Debug@OpenHome@@2IB 004866dc     TestSsdpUListen.obj
 0002:000006e0       ?kMedia@Debug@OpenHome@@2IB 004866e0     TestSsdpUListen.obj
 0002:000006e4       ?kBonjour@Debug@OpenHome@@2IB 004866e4     TestSsdpUListen.obj
 0002:000006e8       ?kAll@Debug@OpenHome@@2IB  004866e8     TestSsdpUListen.obj
 0002:000006ec       ?kVerbose@Debug@OpenHome@@2IB 004866ec     TestSsdpUListen.obj
 0002:000006f0       ?kMaxDebugPrintBytes@Debug@OpenHome@@0IB 004866f0     TestSsdpUListen.obj
 0002:000006f4       ?kWaitForever@Semaphore@OpenHome@@2IB 004866f4     TestSsdpUListen.obj
 0002:000006f8       ?kNameBytes@Thread@OpenHome@@1IB 004866f8     TestSsdpUListen.obj
 0002:000006fc       ?kMaxAddressBytes@Endpoint@OpenHome@@2IB 004866fc     TestSsdpUListen.obj
 0002:00000700       ?kMaxEndpointBytes@Endpoint@OpenHome@@2IB 00486700     TestSsdpUListen.obj
 0002:00000704       ?kLogNone@Socket@OpenHome@@0IB 00486704     TestSsdpUListen.obj
 0002:00000708       ?kLogPlainText@Socket@OpenHome@@0IB 00486708     TestSsdpUListen.obj
 0002:0000070c       ?kLogHex@Socket@OpenHome@@0IB 0048670c     TestSsdpUListen.obj
 0002:00000710       ?kNul@Ascii@OpenHome@@2EB  00486710     TestSsdpUListen.obj
 0002:00000711       ?kSoh@Ascii@OpenHome@@2EB  00486711     TestSsdpUListen.obj
 0002:00000712       ?kStx@Ascii@OpenHome@@2EB  00486712     TestSsdpUListen.obj
 0002:00000713       ?kEtx@Ascii@OpenHome@@2EB  00486713     TestSsdpUListen.obj
 0002:00000714       ?kEot@Ascii@OpenHome@@2EB  00486714     TestSsdpUListen.obj
 0002:00000715       ?kEnq@Ascii@OpenHome@@2EB  00486715     TestSsdpUListen.obj
 0002:00000716       ?kAck@Ascii@OpenHome@@2EB  00486716     TestSsdpUListen.obj
 0002:00000717       ?kBel@Ascii@OpenHome@@2EB  00486717     TestSsdpUListen.obj
 0002:00000718       ?kBs@Ascii@OpenHome@@2EB   00486718     TestSsdpUListen.obj
 0002:00000719       ?kHt@Ascii@OpenHome@@2EB   00486719     TestSsdpUListen.obj
 0002:0000071a       ?kLf@Ascii@OpenHome@@2EB   0048671a     TestSsdpUListen.obj
 0002:0000071b       ?kVt@Ascii@OpenHome@@2EB   0048671b     TestSsdpUListen.obj
 0002:0000071c       ?kFf@Ascii@OpenHome@@2EB   0048671c     TestSsdpUListen.obj
 0002:0000071d       ?kCr@Ascii@OpenHome@@2EB   0048671d     TestSsdpUListen.obj
 0002:0000071e       ?kSo@Ascii@OpenHome@@2EB   0048671e     TestSsdpUListen.obj
 0002:0000071f       ?kSi@Ascii@OpenHome@@2EB   0048671f     TestSsdpUListen.obj
 0002:00000720       ?kDle@Ascii@OpenHome@@2EB  00486720     TestSsdpUListen.obj
 0002:00000721       ?kDc1@Ascii@OpenHome@@2EB  00486721     TestSsdpUListen.obj
 0002:00000722       ?kDc2@Ascii@OpenHome@@2EB  00486722     TestSsdpUListen.obj
 0002:00000723       ?kDc3@Ascii@OpenHome@@2EB  00486723     TestSsdpUListen.obj
 0002:00000724       ?kDc4@Ascii@OpenHome@@2EB  00486724     TestSsdpUListen.obj
 0002:00000725       ?kNak@Ascii@OpenHome@@2EB  00486725     TestSsdpUListen.obj
 0002:00000726       ?kSyn@Ascii@OpenHome@@2EB  00486726     TestSsdpUListen.obj
 0002:00000727       ?kEtb@Ascii@OpenHome@@2EB  00486727     TestSsdpUListen.obj
 0002:00000728       ?kCan@Ascii@OpenHome@@2EB  00486728     TestSsdpUListen.obj
 0002:00000729       ?kEm@Ascii@OpenHome@@2EB   00486729     TestSsdpUListen.obj
 0002:0000072a       ?kSub@Ascii@OpenHome@@2EB  0048672a     TestSsdpUListen.obj
 0002:0000072b       ?kEsc@Ascii@OpenHome@@2EB  0048672b     TestSsdpUListen.obj
 0002:0000072c       ?kFs@Ascii@OpenHome@@2EB   0048672c     TestSsdpUListen.obj
 0002:0000072d       ?kGs@Ascii@OpenHome@@2EB   0048672d     TestSsdpUListen.obj
 0002:0000072e       ?kRs@Ascii@OpenHome@@2EB   0048672e     TestSsdpUListen.obj
 0002:0000072f       ?kUs@Ascii@OpenHome@@2EB   0048672f     TestSsdpUListen.obj
 0002:00000730       ?kSp@Ascii@OpenHome@@2EB   00486730     TestSsdpUListen.obj
 0002:00000731       ?kDel@Ascii@OpenHome@@2EB  00486731     TestSsdpUListen.obj
 0002:00000734       ?kMaxIntStringBytes@Ascii@OpenHome@@2IB 00486734     TestSsdpUListen.obj
 0002:00000738       ?kMaxUintStringBytes@Ascii@OpenHome@@2IB 00486738     TestSsdpUListen.obj
 0002:0000073c       ?kMaxInt64StringBytes@Ascii@OpenHome@@2IB 0048673c     TestSsdpUListen.obj
 0002:00000740       ?kMaxUint64StringBytes@Ascii@OpenHome@@2IB 00486740     TestSsdpUListen.obj
 0002:00000744       ?kMaxUintHexStringBytes@Ascii@OpenHome@@2IB 00486744     TestSsdpUListen.obj
 0002:00000748       ?kMaxByteHexStringBytes@Ascii@OpenHome@@2IB 00486748     TestSsdpUListen.obj
 0002:0000074c       ?kMaxDirLevels@Uri@OpenHome@@2IB 0048674c     TestSsdpUListen.obj
 0002:00000750       ?kMaxUriBytes@Uri@OpenHome@@2IB 00486750     TestSsdpUListen.obj
 0002:00000754       ?kInformationCodes@HttpStatus@OpenHome@@2IB 00486754     TestSsdpUListen.obj
 0002:00000758       ?kSuccessCodes@HttpStatus@OpenHome@@2IB 00486758     TestSsdpUListen.obj
 0002:0000075c       ?kRedirectionCodes@HttpStatus@OpenHome@@2IB 0048675c     TestSsdpUListen.obj
 0002:00000760       ?kClientErrorCodes@HttpStatus@OpenHome@@2IB 00486760     TestSsdpUListen.obj
 0002:00000764       ?kServerErrorCodes@HttpStatus@OpenHome@@2IB 00486764     TestSsdpUListen.obj
 0002:00000768       ?kMaxMethodBytes@ReaderHttpRequest@OpenHome@@0IB 00486768     TestSsdpUListen.obj
 0002:0000076c       ?kMaxUriBytes@ReaderHttpRequest@OpenHome@@0IB 0048676c     TestSsdpUListen.obj
 0002:00000770       ?kMaxDescriptionBytes@ReaderHttpResponse@OpenHome@@2IB 00486770     TestSsdpUListen.obj
 0002:00000774       ?kMaxUriBytes@ReaderHttpResponse@OpenHome@@2IB 00486774     TestSsdpUListen.obj
 0002:00000778       ?kMaxLocationBytes@HttpHeaderLocation@OpenHome@@0IB 00486778     TestSsdpUListen.obj
 0002:0000077c       ?kMaxTypeBytes@HttpHeaderContentType@OpenHome@@0IB 0048677c     TestSsdpUListen.obj
 0002:00000780       ?kMaxBufferBytes@WriterHttpChunked@OpenHome@@0IB 00486780     TestSsdpUListen.obj
 0002:00000784       ?kMaxUuidBytes@SsdpHeaderSt@Net@OpenHome@@0IB 00486784     TestSsdpUListen.obj
 0002:00000788       ?kMaxDomainBytes@SsdpHeaderSt@Net@OpenHome@@0IB 00486788     TestSsdpUListen.obj
 0002:0000078c       ?kMaxTypeBytes@SsdpHeaderSt@Net@OpenHome@@0IB 0048678c     TestSsdpUListen.obj
 0002:00000790       ?kMaxUuidBytes@SsdpHeaderNt@Net@OpenHome@@0IB 00486790     TestSsdpUListen.obj
 0002:00000794       ?kMaxDomainBytes@SsdpHeaderNt@Net@OpenHome@@0IB 00486794     TestSsdpUListen.obj
 0002:00000798       ?kMaxTypeBytes@SsdpHeaderNt@Net@OpenHome@@0IB 00486798     TestSsdpUListen.obj
 0002:0000079c       ?kMaxUuidBytes@SsdpHeaderUsn@Net@OpenHome@@0IB 0048679c     TestSsdpUListen.obj
 0002:000007a0       ?kMaxDomainBytes@SsdpHeaderUsn@Net@OpenHome@@0IB 004867a0     TestSsdpUListen.obj
 0002:000007a4       ?kMaxTypeBytes@SsdpHeaderUsn@Net@OpenHome@@0IB 004867a4     TestSsdpUListen.obj
 0002:000007a8       ?kMinMsearchSeconds@SsdpWriterMsearchRequest@Net@OpenHome@@0IB 004867a8     TestSsdpUListen.obj
 0002:000007ac       ?kMaxMsearchSeconds@SsdpWriterMsearchRequest@Net@OpenHome@@0IB 004867ac     TestSsdpUListen.obj
 0002:000007b0       ?kMaxBufferBytes@SsdpNotifier@Net@OpenHome@@0IB 004867b0     TestSsdpUListen.obj
 0002:000007b4       ?kTimeToLive@SsdpNotifier@Net@OpenHome@@0IB 004867b4     TestSsdpUListen.obj
 0002:000007b8       ?kMaxBufferBytes@SsdpMsearchResponder@Net@OpenHome@@0IB 004867b8     TestSsdpUListen.obj
 0002:000007bc       ?kPriority@SsdpListener@Net@OpenHome@@0IB 004867bc     TestSsdpUListen.obj
 0002:000007c0       ?kMaxBufferBytes@SsdpListenerMulticast@Net@OpenHome@@0IB 004867c0     TestSsdpUListen.obj
 0002:000007c4       ?kRecvBufBytes@SsdpListenerMulticast@Net@OpenHome@@0IB 004867c4     TestSsdpUListen.obj
 0002:000007c8       ?kMaxBufferBytes@SsdpListenerUnicast@Net@OpenHome@@0IB 004867c8     TestSsdpUListen.obj
 0002:000007cc       ?kRecvBufBytes@SsdpListenerUnicast@Net@OpenHome@@0IB 004867cc     TestSsdpUListen.obj
 0002:000007d0       ?kListenerIdNull@NetworkAdapterList@OpenHome@@2IB 004867d0     TestSsdpUListen.obj
 0002:00000c20       ??_7Brn@OpenHome@@6B@      00486c20     TestSsdpUListen.obj
 0002:00000c2c       ??_7Brx@OpenHome@@6B@      00486c2c     TestSsdpUListen.obj
 0002:00000c38       ??_7SsdpNotifyLogger@@6B@  00486c38     TestSsdpUListen.obj
 0002:00000c60       ??_7ISsdpNotifyHandler@Net@OpenHome@@6B@ 00486c60     TestSsdpUListen.obj
 0002:00000c84       ??_C@_1BO@MEPPHOO@?$AA?$CC?$AAo?$AAu?$AAt?$AA?5?$AAo?$AAf?$AA?5?$AAr?$AAa?$AAn?$AAg?$AAe?$AA?$CC?$AA?$AA@ 00486c84     TestSsdpUListen.obj
 0002:00000ca8       ??_C@_1OG@JCALBKPI@?$AAs?$AAt?$AAd?$AA?3?$AA?3?$AAv?$AAe?$AAc?$AAt?$AAo?$AAr?$AA?$DM?$AAc?$AAl?$AAa?$AAs?$AAs?$AA?5?$AAO?$AAp?$AAe?$AAn?$AAH?$AAo?$AAm?$AAe?$AA?3?$AA?3?$AAN?$AAe?$AAt?$AAw@ 00486ca8     TestSsdpUListen.obj
 0002:00000d90       ??_C@_1FG@IBPIFFN@?$AA?$CC?$AAS?$AAt?$AAa?$AAn?$AAd?$AAa?$AAr?$AAd?$AA?5?$AAC?$AA?$CL?$AA?$CL?$AA?5?$AAL?$AAi?$AAb?$AAr?$AAa?$AAr?$AAi?$AAe?$AAs?$AA?5?$AAO?$AAu?$AAt?$AA?5?$AAo?$AAf?$AA?5?$AAR@ 00486d90     TestSsdpUListen.obj
 0002:00000de8       ??_C@_0CE@OFMIGAMM@Standard?5C?$CL?$CL?5Libraries?5Out?5of?5Ra@ 00486de8     TestSsdpUListen.obj
 0002:00000e0c       ??_C@_1DM@LHGCHCBA@?$AAv?$AAe?$AAc?$AAt?$AAo?$AAr?$AA?5?$AAs?$AAu?$AAb?$AAs?$AAc?$AAr?$AAi?$AAp?$AAt?$AA?5?$AAo?$AAu?$AAt?$AA?5?$AAo?$AAf?$AA?5?$AAr?$AAa?$AAn?$AAg?$AAe?$AA?$AA@ 00486e0c     TestSsdpUListen.obj
 0002:00000e48       ??_C@_1IM@KDKPEFIN@?$AAc?$AA?3?$AA?2?$AAP?$AAr?$AAo?$AAg?$AAr?$AAa?$AAm?$AA?5?$AAF?$AAi?$AAl?$AAe?$AAs?$AA?5?$AA?$CI?$AAx?$AA8?$AA6?$AA?$CJ?$AA?2?$AAM?$AAi?$AAc?$AAr?$AAo?$AAs?$AAo?$AAf?$AAt@ 00486e48     TestSsdpUListen.obj
 0002:00000ed8       ??_7?$Bws@$0BA@@OpenHome@@6B@ 00486ed8     TestSsdpUListen.obj
 0002:000010e0       ??_C@_0BA@KCEOBHMI@AssertionFailed?$AA@ 004870e0     libTestFramework:TestFramework.obj
 0002:000010f4       ??_7Suite@TestFramework@OpenHome@@6B@ 004870f4     libTestFramework:TestFramework.obj
 0002:00001210       ??_7Option@TestFramework@OpenHome@@6B@ 00487210     libTestFramework:OptionParser.obj
 0002:00001220       ??_7OptionString@TestFramework@OpenHome@@6B@ 00487220     libTestFramework:OptionParser.obj
 0002:00001230       ??_7Brhz@OpenHome@@6B@     00487230     libTestFramework:OptionParser.obj
 0002:0000123c       ??_7Brv@OpenHome@@6B@      0048723c     libTestFramework:OptionParser.obj
 0002:00001248       ??_7OptionInt@TestFramework@OpenHome@@6B@ 00487248     libTestFramework:OptionParser.obj
 0002:00001258       ??_7OptionUint@TestFramework@OpenHome@@6B@ 00487258     libTestFramework:OptionParser.obj
 0002:00001268       ??_7OptionBool@TestFramework@OpenHome@@6B@ 00487268     libTestFramework:OptionParser.obj
 0002:00001274       ??_C@_0BC@JHJJGLHI@OptionParserError?$AA@ 00487274     libTestFramework:OptionParser.obj
 0002:00001288       ??_C@_1BAC@MNMONKIK@?$AAs?$AAt?$AAd?$AA?3?$AA?3?$AAv?$AAe?$AAc?$AAt?$AAo?$AAr?$AA?$DM?$AAc?$AAl?$AAa?$AAs?$AAs?$AA?5?$AAO?$AAp?$AAe?$AAn?$AAH?$AAo?$AAm?$AAe?$AA?3?$AA?3?$AAT?$AAe?$AAs?$AAt@ 00487288     libTestFramework:OptionParser.obj
 0002:0000138c       ??_C@_1DC@POOIKBAO@?$AAI?$AAT?$AAE?$AAR?$AAA?$AAT?$AAO?$AAR?$AA?5?$AAL?$AAI?$AAS?$AAT?$AA?5?$AAC?$AAO?$AAR?$AAR?$AAU?$AAP?$AAT?$AAE?$AAD?$AA?$CB?$AA?$AA@ 0048738c     libTestFramework:OptionParser.obj
 0002:000013c0       ??_C@_1JA@CNICBDKP@?$AAc?$AA?3?$AA?2?$AAP?$AAr?$AAo?$AAg?$AAr?$AAa?$AAm?$AA?5?$AAF?$AAi?$AAl?$AAe?$AAs?$AA?5?$AA?$CI?$AAx?$AA8?$AA6?$AA?$CJ?$AA?2?$AAM?$AAi?$AAc?$AAr?$AAo?$AAs?$AAo?$AAf?$AAt@ 004873c0     libTestFramework:OptionParser.obj
 0002:00001450       ??_C@_1EI@HGIDLLCM@?$AAv?$AAe?$AAc?$AAt?$AAo?$AAr?$AA?5?$AAe?$AAr?$AAa?$AAs?$AAe?$AA?5?$AAi?$AAt?$AAe?$AAr?$AAa?$AAt?$AAo?$AAr?$AA?5?$AAo?$AAu?$AAt?$AAs?$AAi?$AAd?$AAe?$AA?5?$AAr?$AAa@ 00487450     libTestFramework:OptionParser.obj
 0002:00001498       ??_C@_0BD@OLBABOEK@vector?$DMT?$DO?5too?5long?$AA@ 00487498     libTestFramework:OptionParser.obj
 0002:000014ac       ??_C@_1CG@JNLFBNGN@?$AA?$CC?$AAi?$AAn?$AAv?$AAa?$AAl?$AAi?$AAd?$AA?5?$AAa?$AAr?$AAg?$AAu?$AAm?$AAe?$AAn?$AAt?$AA?$CC?$AA?$AA@ 004874ac     libTestFramework:OptionParser.obj
 0002:000014d8       ??_C@_1MI@HJEELIIL@?$AAs?$AAt?$AAd?$AA?3?$AA?3?$AA_?$AAV?$AAe?$AAc?$AAt?$AAo?$AAr?$AA_?$AAc?$AAo?$AAn?$AAs?$AAt?$AA_?$AAi?$AAt?$AAe?$AAr?$AAa?$AAt?$AAo?$AAr?$AA?$DM?$AAc?$AAl?$AAa?$AAs@ 004874d8     libTestFramework:OptionParser.obj
 0002:000015a0       ??_C@_1FO@GJIHNDLM@?$AA?$CC?$AAS?$AAt?$AAa?$AAn?$AAd?$AAa?$AAr?$AAd?$AA?5?$AAC?$AA?$CL?$AA?$CL?$AA?5?$AAL?$AAi?$AAb?$AAr?$AAa?$AAr?$AAi?$AAe?$AAs?$AA?5?$AAI?$AAn?$AAv?$AAa?$AAl?$AAi?$AAd?$AA?5@ 004875a0     libTestFramework:OptionParser.obj
 0002:00001600       ??_C@_0CI@FNPHFCCM@Standard?5C?$CL?$CL?5Libraries?5Invalid?5A@ 00487600     libTestFramework:OptionParser.obj
 0002:00001628       ??_C@_1DM@HINDPMBP@?$AAv?$AAe?$AAc?$AAt?$AAo?$AAr?$AA?5?$AAi?$AAt?$AAe?$AAr?$AAa?$AAt?$AAo?$AAr?$AAs?$AA?5?$AAi?$AAn?$AAc?$AAo?$AAm?$AAp?$AAa?$AAt?$AAi?$AAb?$AAl?$AAe?$AA?$AA@ 00487628     libTestFramework:OptionParser.obj
 0002:00001668       ??_7?$Bws@$0L@@OpenHome@@6B@ 00487668     libTestFramework:OptionParser.obj
 0002:00001674       ??_7?$Bws@$09@OpenHome@@6B@ 00487674     libTestFramework:OptionParser.obj
 0002:00001680       ??_7bad_alloc@std@@6B@     00487680     libTestFramework:OptionParser.obj
 0002:00001688       ??_C@_1IM@NNHEMJIG@?$AAc?$AA?3?$AA?2?$AAP?$AAr?$AAo?$AAg?$AAr?$AAa?$AAm?$AA?5?$AAF?$AAi?$AAl?$AAe?$AAs?$AA?5?$AA?$CI?$AAx?$AA8?$AA6?$AA?$CJ?$AA?2?$AAM?$AAi?$AAc?$AAr?$AAo?$AAs?$AAo?$AAf?$AAt@ 00487688     libTestFramework:OptionParser.obj
 0002:00001714       ??_C@_1CK@EOPGIILJ@?$AAi?$AAn?$AAv?$AAa?$AAl?$AAi?$AAd?$AA?5?$AAn?$AAu?$AAl?$AAl?$AA?5?$AAp?$AAo?$AAi?$AAn?$AAt?$AAe?$AAr?$AA?$AA@ 00487714     libTestFramework:OptionParser.obj
 0002:00001740       ??_C@_1CO@DGLIKNHI@?$AAi?$AAn?$AAv?$AAa?$AAl?$AAi?$AAd?$AA?5?$AAi?$AAt?$AAe?$AAr?$AAa?$AAt?$AAo?$AAr?$AA?5?$AAr?$AAa?$AAn?$AAg?$AAe?$AA?$AA@ 00487740     libTestFramework:OptionParser.obj
 0002:0000191c       ??_7DefaultAsyncHandler@Net@OpenHome@@6B@ 0048791c     libohNetCore:OhNet.obj
 0002:00001924       ??_7IAsyncOutput@Net@OpenHome@@6B@ 00487924     libohNetCore:OhNet.obj
 0002:00001928       ??_C@_0P@GHFPNOJB@bad?5allocation?$AA@ 00487928     libohNetCore:OhNet.obj
 0002:00001df4       ??_7SsdpSocketReader@Net@OpenHome@@6BIReaderSource@2@@ 00487df4     libohNetCore:Discovery.obj
 0002:00001e08       ??_7SsdpSocketReader@Net@OpenHome@@6BSocketUdpMulticast@2@@ 00487e08     libohNetCore:Discovery.obj
 0002:00001e10       ??_7IReaderSource@OpenHome@@6B@ 00487e10     libohNetCore:Discovery.obj
 0002:00001e24       ??_7SsdpListener@Net@OpenHome@@6B@ 00487e24     libohNetCore:Discovery.obj
 0002:00001e30       ??_7SsdpHeaderCacheControl@Net@OpenHome@@6B@ 00487e30     libohNetCore:Discovery.obj
 0002:00001e44       ??_7HttpHeaderLocation@OpenHome@@6B@ 00487e44     libohNetCore:Discovery.obj
 0002:00001e58       ??_7SsdpHeaderServer@Net@OpenHome@@6B@ 00487e58     libohNetCore:Discovery.obj
 0002:00001e6c       ??_7SsdpHeaderSt@Net@OpenHome@@6B@ 00487e6c     libohNetCore:Discovery.obj
 0002:00001e80       ??_7SsdpHeaderUsn@Net@OpenHome@@6B@ 00487e80     libohNetCore:Discovery.obj
 0002:00001e94       ??_7IHttpHeader@OpenHome@@6B@ 00487e94     libohNetCore:Discovery.obj
 0002:00001ea8       ??_7SsdpListenerMulticast@Net@OpenHome@@6B@ 00487ea8     libohNetCore:Discovery.obj
 0002:00001eb4       ??_7SsdpHeaderHost@Net@OpenHome@@6B@ 00487eb4     libohNetCore:Discovery.obj
 0002:00001ec8       ??_7SsdpHeaderMan@Net@OpenHome@@6B@ 00487ec8     libohNetCore:Discovery.obj
 0002:00001edc       ??_7SsdpHeaderMx@Net@OpenHome@@6B@ 00487edc     libohNetCore:Discovery.obj
 0002:00001ef0       ??_7SsdpHeaderNt@Net@OpenHome@@6B@ 00487ef0     libohNetCore:Discovery.obj
 0002:00001f04       ??_7SsdpHeaderNts@Net@OpenHome@@6B@ 00487f04     libohNetCore:Discovery.obj
 0002:00001f18       ??_7IReader@OpenHome@@6B@  00487f18     libohNetCore:Discovery.obj
 0002:00001f2c       ??_C@_04KNJCAJOB@SSDM?$AA@ 00487f2c     libohNetCore:Discovery.obj
 0002:00001f38       ??_7SsdpListenerUnicast@Net@OpenHome@@6B@ 00487f38     libohNetCore:Discovery.obj
 0002:00001f44       ??_7IWriter@OpenHome@@6B@  00487f44     libohNetCore:Discovery.obj
 0002:00001f58       ??_7SsdpHeaderExt@Net@OpenHome@@6B@ 00487f58     libohNetCore:Discovery.obj
 0002:00001f6c       ??_7IWriterHttpMethod@OpenHome@@6B@ 00487f6c     libohNetCore:Discovery.obj
 0002:00001f78       ??_7IWriterHttpHeader@OpenHome@@6B@ 00487f78     libohNetCore:Discovery.obj
 0002:00001f94       ??_7IWriterAscii@OpenHome@@6B@ 00487f94     libohNetCore:Discovery.obj
 0002:00001fd8       ??_7?$Sws@$0EAA@@OpenHome@@6BIWriter@1@@ 00487fd8     libohNetCore:Discovery.obj
 0002:00001fec       ??_7?$Sws@$0EAA@@OpenHome@@6BSxx@1@@ 00487fec     libohNetCore:Discovery.obj
 0002:00001ff8       ??_C@_1BFC@MEFHADCK@?$AAs?$AAt?$AAd?$AA?3?$AA?3?$AAv?$AAe?$AAc?$AAt?$AAo?$AAr?$AA?$DM?$AAc?$AAl?$AAa?$AAs?$AAs?$AA?5?$AAO?$AAp?$AAe?$AAn?$AAH?$AAo?$AAm?$AAe?$AA?3?$AA?3?$AAN?$AAe?$AAt?$AA?3@ 00487ff8     libohNetCore:Discovery.obj
 0002:00002150       ??_C@_1BFG@DKMCFOOJ@?$AAs?$AAt?$AAd?$AA?3?$AA?3?$AAv?$AAe?$AAc?$AAt?$AAo?$AAr?$AA?$DM?$AAc?$AAl?$AAa?$AAs?$AAs?$AA?5?$AAO?$AAp?$AAe?$AAn?$AAH?$AAo?$AAm?$AAe?$AA?3?$AA?3?$AAN?$AAe?$AAt?$AA?3@ 00488150     libohNetCore:Discovery.obj
 0002:000022ac       ??_7?$Srs@$0EAA@@OpenHome@@6BIReader@1@@ 004882ac     libohNetCore:Discovery.obj
 0002:000022c4       ??_7?$Srs@$0EAA@@OpenHome@@6BSxx@1@@ 004882c4     libohNetCore:Discovery.obj
 0002:000022d0       ??_C@_1BKC@MFHILGBM@?$AAs?$AAt?$AAd?$AA?3?$AA?3?$AA_?$AAV?$AAe?$AAc?$AAt?$AAo?$AAr?$AA_?$AAc?$AAo?$AAn?$AAs?$AAt?$AA_?$AAi?$AAt?$AAe?$AAr?$AAa?$AAt?$AAo?$AAr?$AA?$DM?$AAc?$AAl?$AAa?$AAs@ 004882d0     libohNetCore:Discovery.obj
 0002:00002478       ??_C@_1EG@FOHJJHAC@?$AAv?$AAe?$AAc?$AAt?$AAo?$AAr?$AA?5?$AAi?$AAt?$AAe?$AAr?$AAa?$AAt?$AAo?$AAr?$AA?5?$AAn?$AAo?$AAt?$AA?5?$AAd?$AAe?$AAr?$AAe?$AAf?$AAe?$AAr?$AAe?$AAn?$AAc?$AAa?$AAb@ 00488478     libohNetCore:Discovery.obj
 0002:000024c0       ??_C@_1BKG@ELBCJCGE@?$AAs?$AAt?$AAd?$AA?3?$AA?3?$AA_?$AAV?$AAe?$AAc?$AAt?$AAo?$AAr?$AA_?$AAc?$AAo?$AAn?$AAs?$AAt?$AA_?$AAi?$AAt?$AAe?$AAr?$AAa?$AAt?$AAo?$AAr?$AA?$DM?$AAc?$AAl?$AAa?$AAs@ 004884c0     libohNetCore:Discovery.obj
 0002:00002668       ??_C@_1BKE@HIBKHFAG@?$AAs?$AAt?$AAd?$AA?3?$AA?3?$AA_?$AAV?$AAe?$AAc?$AAt?$AAo?$AAr?$AA_?$AAc?$AAo?$AAn?$AAs?$AAt?$AA_?$AAi?$AAt?$AAe?$AAr?$AAa?$AAt?$AAo?$AAr?$AA?$DM?$AAc?$AAl?$AAa?$AAs@ 00488668     libohNetCore:Discovery.obj
 0002:00002810       ??_C@_1EE@EJDKCLKB@?$AAv?$AAe?$AAc?$AAt?$AAo?$AAr?$AA?5?$AAi?$AAt?$AAe?$AAr?$AAa?$AAt?$AAo?$AAr?$AA?5?$AAn?$AAo?$AAt?$AA?5?$AAi?$AAn?$AAc?$AAr?$AAe?$AAm?$AAe?$AAn?$AAt?$AAa?$AAb?$AAl@ 00488810     libohNetCore:Discovery.obj
 0002:00002858       ??_C@_1BJM@IABICBIB@?$AAs?$AAt?$AAd?$AA?3?$AA?3?$AA_?$AAV?$AAe?$AAc?$AAt?$AAo?$AAr?$AA_?$AAc?$AAo?$AAn?$AAs?$AAt?$AA_?$AAi?$AAt?$AAe?$AAr?$AAa?$AAt?$AAo?$AAr?$AA?$DM?$AAc?$AAl?$AAa?$AAs@ 00488858     libohNetCore:Discovery.obj
 0002:000029f8       ??_C@_1BKI@KDPPOMED@?$AAs?$AAt?$AAd?$AA?3?$AA?3?$AA_?$AAV?$AAe?$AAc?$AAt?$AAo?$AAr?$AA_?$AAc?$AAo?$AAn?$AAs?$AAt?$AA_?$AAi?$AAt?$AAe?$AAr?$AAa?$AAt?$AAo?$AAr?$AA?$DM?$AAc?$AAl?$AAa?$AAs@ 004889f8     libohNetCore:Discovery.obj
 0002:00002ba0       ??_C@_1BKA@BDMGFPIO@?$AAs?$AAt?$AAd?$AA?3?$AA?3?$AA_?$AAV?$AAe?$AAc?$AAt?$AAo?$AAr?$AA_?$AAc?$AAo?$AAn?$AAs?$AAt?$AA_?$AAi?$AAt?$AAe?$AAr?$AAa?$AAt?$AAo?$AAr?$AA?$DM?$AAc?$AAl?$AAa?$AAs@ 00488ba0     libohNetCore:Discovery.obj
 0002:00002d44       ??_7?$Bws@$0DOI@@OpenHome@@6B@ 00488d44     libohNetCore:Discovery.obj
 0002:00002d50       ??_7?$Bws@$0EA@@OpenHome@@6B@ 00488d50     libohNetCore:Discovery.obj
 0002:00002d63       ?kUrnSeparator@Ssdp@Net@OpenHome@@2EB 00488d63     libohNetCore:Ssdp.obj
 0002:00002e18       ?kMulticastPort@Ssdp@Net@OpenHome@@2IB 00488e18     libohNetCore:Ssdp.obj
 0002:000030b8       ??_C@_09LLBGNKEL@HttpError?$AA@ 004890b8     libohNetCore:Ssdp.obj
 0002:000031d4       ?kDefaultStackBytes@Thread@OpenHome@@2IB 004891d4     libohNetCore:Thread.obj
 0002:00003350       ??_7Semaphore@OpenHome@@6B@ 00489350     libohNetCore:Thread.obj
 0002:00003354       ??_C@_0CO@DMLLNKJC@C?3?2git?2ohnet?2Upnp?2Build?2Include?2@ 00489354     libohNetCore:Thread.obj
 0002:00003384       ??_C@_07MKALMBDJ@Timeout?$AA@ 00489384     libohNetCore:Thread.obj
 0002:00003390       ??_7Mutex@OpenHome@@6B@    00489390     libohNetCore:Thread.obj
 0002:00003398       ??_7Thread@OpenHome@@6B@   00489398     libohNetCore:Thread.obj
 0002:000033a0       ??_C@_0L@IHFNCMJO@ThreadKill?$AA@ 004893a0     libohNetCore:Thread.obj
 0002:000033b0       ??_7ThreadFunctor@OpenHome@@6B@ 004893b0     libohNetCore:Thread.obj
 0002:000033bc       ??_7?$Bws@$04@OpenHome@@6B@ 004893bc     libohNetCore:Thread.obj
 0002:000035ac       ??_7Brh@OpenHome@@6B@      004895ac     libohNetCore:Buffer.obj
 0002:000035b8       ??_7Bwx@OpenHome@@6B@      004895b8     libohNetCore:Buffer.obj
 0002:000035c0       ??_C@_0P@CONMHKFL@BufferOverflow?$AA@ 004895c0     libohNetCore:Buffer.obj
 0002:000035d0       ??_C@_0L@KPHCNFND@BufferFull?$AA@ 004895d0     libohNetCore:Buffer.obj
 0002:000035e0       ??_7Bwn@OpenHome@@6B@      004895e0     libohNetCore:Buffer.obj
 0002:000035ec       ??_7Bwh@OpenHome@@6B@      004895ec     libohNetCore:Buffer.obj
 0002:00004a0c       ??_7Socket@OpenHome@@6B@   0048aa0c     libohNetCore:Network.obj
 0002:00004a10       ??_C@_0N@PKFCJHGH@NetworkError?$AA@ 0048aa10     libohNetCore:Network.obj
 0002:00004a24       ??_7SocketTcp@OpenHome@@6BIReaderSource@1@@ 0048aa24     libohNetCore:Network.obj
 0002:00004a38       ??_7SocketTcp@OpenHome@@6BIWriter@1@@ 0048aa38     libohNetCore:Network.obj
 0002:00004a4c       ??_7SocketTcp@OpenHome@@6BSocket@1@@ 0048aa4c     libohNetCore:Network.obj
 0002:00004a50       ??_C@_0M@EKPFGEJB@WriterError?$AA@ 0048aa50     libohNetCore:Network.obj
 0002:00004a5c       ??_C@_0M@OKIMMAEM@ReaderError?$AA@ 0048aa5c     libohNetCore:Network.obj
 0002:00004a6c       ??_7SocketTcpServer@OpenHome@@6B@ 0048aa6c     libohNetCore:Network.obj
 0002:00004a74       ??_7SocketTcpSession@OpenHome@@6BIReaderSource@1@@ 0048aa74     libohNetCore:Network.obj
 0002:00004a88       ??_7SocketTcpSession@OpenHome@@6BIWriter@1@@ 0048aa88     libohNetCore:Network.obj
 0002:00004a9c       ??_7SocketTcpSession@OpenHome@@6BSocket@1@@ 0048aa9c     libohNetCore:Network.obj
 0002:00004aa8       ??_7SocketUdp@OpenHome@@6B@ 0048aaa8     libohNetCore:Network.obj
 0002:00004ab0       ??_7SocketUdpMulticast@OpenHome@@6B@ 0048aab0     libohNetCore:Network.obj
 0002:00004ab8       ??_7UdpReader@OpenHome@@6B@ 0048aab8     libohNetCore:Network.obj
 0002:00004acc       ??_7UdpWriter@OpenHome@@6B@ 0048aacc     libohNetCore:Network.obj
 0002:00004ae0       ??_C@_1OO@LKOOOFKI@?$AAs?$AAt?$AAd?$AA?3?$AA?3?$AAv?$AAe?$AAc?$AAt?$AAo?$AAr?$AA?$DM?$AAc?$AAl?$AAa?$AAs?$AAs?$AA?5?$AAO?$AAp?$AAe?$AAn?$AAH?$AAo?$AAm?$AAe?$AA?3?$AA?3?$AAS?$AAo?$AAc?$AAk@ 0048aae0     libohNetCore:Network.obj
 0002:00004bd0       ??_C@_1DA@JIKEAPDO@?$AAv?$AAe?$AAc?$AAt?$AAo?$AAr?$AA?5?$AAe?$AAm?$AAp?$AAt?$AAy?$AA?5?$AAb?$AAe?$AAf?$AAo?$AAr?$AAe?$AA?5?$AAp?$AAo?$AAp?$AA?$AA@ 0048abd0     libohNetCore:Network.obj
 0002:00004ce8       ??_C@_1EK@PPDBPCAN@?$AAm?$AAa?$AAp?$AA?1?$AAs?$AAe?$AAt?$AA?5?$AAe?$AAr?$AAa?$AAs?$AAe?$AA?5?$AAi?$AAt?$AAe?$AAr?$AAa?$AAt?$AAo?$AAr?$AA?5?$AAo?$AAu?$AAt?$AAs?$AAi?$AAd?$AAe?$AA?5?$AAr@ 0048ace8     libohNetCore:NetworkAdapterList.obj
 0002:00004d38       ??_C@_1IK@CBDBGEL@?$AAc?$AA?3?$AA?2?$AAP?$AAr?$AAo?$AAg?$AAr?$AAa?$AAm?$AA?5?$AAF?$AAi?$AAl?$AAe?$AAs?$AA?5?$AA?$CI?$AAx?$AA8?$AA6?$AA?$CJ?$AA?2?$AAM?$AAi?$AAc?$AAr?$AAo?$AAs?$AAo?$AAf?$AAt@ 0048ad38     libohNetCore:NetworkAdapterList.obj
 0002:00004dc8       ??_C@_1BOI@EOEFLMOE@?$AAs?$AAt?$AAd?$AA?3?$AA?3?$AA_?$AAT?$AAr?$AAe?$AAe?$AA_?$AAc?$AAo?$AAn?$AAs?$AAt?$AA_?$AAi?$AAt?$AAe?$AAr?$AAa?$AAt?$AAo?$AAr?$AA?$DM?$AAc?$AAl?$AAa?$AAs?$AAs?$AA?5@ 0048adc8     libohNetCore:NetworkAdapterList.obj
 0002:00004fb0       ??_C@_1EG@EHJFMBHJ@?$AAm?$AAa?$AAp?$AA?1?$AAs?$AAe?$AAt?$AA?5?$AAi?$AAt?$AAe?$AAr?$AAa?$AAt?$AAo?$AAr?$AA?5?$AAn?$AAo?$AAt?$AA?5?$AAi?$AAn?$AAc?$AAr?$AAe?$AAm?$AAe?$AAn?$AAt?$AAa?$AAb@ 0048afb0     libohNetCore:NetworkAdapterList.obj
 0002:00004ff8       ??_C@_1BOI@OOLIFFCB@?$AAs?$AAt?$AAd?$AA?3?$AA?3?$AA_?$AAT?$AAr?$AAe?$AAe?$AA_?$AAc?$AAo?$AAn?$AAs?$AAt?$AA_?$AAi?$AAt?$AAe?$AAr?$AAa?$AAt?$AAo?$AAr?$AA?$DM?$AAc?$AAl?$AAa?$AAs?$AAs?$AA?5@ 0048aff8     libohNetCore:NetworkAdapterList.obj
 0002:000051e0       ??_C@_1DO@CFEEPGGJ@?$AAm?$AAa?$AAp?$AA?1?$AAs?$AAe?$AAt?$AA?5?$AAi?$AAt?$AAe?$AAr?$AAa?$AAt?$AAo?$AAr?$AAs?$AA?5?$AAi?$AAn?$AAc?$AAo?$AAm?$AAp?$AAa?$AAt?$AAi?$AAb?$AAl?$AAe?$AA?$AA@ 0048b1e0     libohNetCore:NetworkAdapterList.obj
 0002:00005220       ??_C@_1BOG@PFAGBIKH@?$AAs?$AAt?$AAd?$AA?3?$AA?3?$AA_?$AAT?$AAr?$AAe?$AAe?$AA_?$AAc?$AAo?$AAn?$AAs?$AAt?$AA_?$AAi?$AAt?$AAe?$AAr?$AAa?$AAt?$AAo?$AAr?$AA?$DM?$AAc?$AAl?$AAa?$AAs?$AAs?$AA?5@ 0048b220     libohNetCore:NetworkAdapterList.obj
 0002:00005408       ??_C@_1EI@FHEHNNNM@?$AAm?$AAa?$AAp?$AA?1?$AAs?$AAe?$AAt?$AA?5?$AAi?$AAt?$AAe?$AAr?$AAa?$AAt?$AAo?$AAr?$AA?5?$AAn?$AAo?$AAt?$AA?5?$AAd?$AAe?$AAr?$AAe?$AAf?$AAe?$AAr?$AAe?$AAn?$AAc?$AAa@ 0048b408     libohNetCore:NetworkAdapterList.obj
 0002:00005450       ??_C@_1CE@IGJMOCCK@?$AAi?$AAn?$AAv?$AAa?$AAl?$AAi?$AAd?$AA?5?$AAo?$AAp?$AAe?$AAr?$AAa?$AAt?$AAo?$AAr?$AA?$DM?$AA?$AA@ 0048b450     libohNetCore:NetworkAdapterList.obj
 0002:00005474       ??_C@_0BE@JONHPENG@map?1set?$DMT?$DO?5too?5long?$AA@ 0048b474     libohNetCore:NetworkAdapterList.obj
 0002:00005488       ??_C@_1BOI@LNHHAACF@?$AAs?$AAt?$AAd?$AA?3?$AA?3?$AA_?$AAT?$AAr?$AAe?$AAe?$AA_?$AAc?$AAo?$AAn?$AAs?$AAt?$AA_?$AAi?$AAt?$AAe?$AAr?$AAa?$AAt?$AAo?$AAr?$AA?$DM?$AAc?$AAl?$AAa?$AAs?$AAs?$AA?5@ 0048b488     libohNetCore:NetworkAdapterList.obj
 0002:00005670       ??_C@_1EG@OKCGOALM@?$AAm?$AAa?$AAp?$AA?1?$AAs?$AAe?$AAt?$AA?5?$AAi?$AAt?$AAe?$AAr?$AAa?$AAt?$AAo?$AAr?$AA?5?$AAn?$AAo?$AAt?$AA?5?$AAd?$AAe?$AAc?$AAr?$AAe?$AAm?$AAe?$AAn?$AAt?$AAa?$AAb@ 0048b670     libohNetCore:NetworkAdapterList.obj
 0002:000056b8       ?kOhNetMimeTypeCss@@3QBDB  0048b6b8     libohNetCore:Stack.obj
 0002:000056c4       ?kOhNetMimeTypeHtml@@3QBDB 0048b6c4     libohNetCore:Stack.obj
 0002:000056d0       ?kOhNetMimeTypeJs@@3QBDB   0048b6d0     libohNetCore:Stack.obj
 0002:000056ec       ?kOhNetMimeTypeXml@@3QBDB  0048b6ec     libohNetCore:Stack.obj
 0002:000056fc       ?kOhNetMimeTypeBmp@@3QBDB  0048b6fc     libohNetCore:Stack.obj
 0002:00005708       ?kOhNetMimeTypeGif@@3QBDB  0048b708     libohNetCore:Stack.obj
 0002:00005714       ?kOhNetMimeTypeJpeg@@3QBDB 0048b714     libohNetCore:Stack.obj
 0002:00005720       ?kOhNetMimeTypePng@@3QBDB  0048b720     libohNetCore:Stack.obj
 0002:000057f8       ??_C@_1BAC@KDFNAFOI@?$AAs?$AAt?$AAd?$AA?3?$AA?3?$AAv?$AAe?$AAc?$AAt?$AAo?$AAr?$AA?$DM?$AAc?$AAl?$AAa?$AAs?$AAs?$AA?5?$AAO?$AAp?$AAe?$AAn?$AAH?$AAo?$AAm?$AAe?$AA?3?$AA?3?$AAN?$AAe?$AAt?$AA?3@ 0048b7f8     libohNetCore:Stack.obj
 0002:00005900       ??_C@_1CDO@JFIJPCE@?$AAs?$AAt?$AAd?$AA?3?$AA?3?$AA_?$AAT?$AAr?$AAe?$AAe?$AA_?$AAc?$AAo?$AAn?$AAs?$AAt?$AA_?$AAi?$AAt?$AAe?$AAr?$AAa?$AAt?$AAo?$AAr?$AA?$DM?$AAc?$AAl?$AAa?$AAs?$AAs?$AA?5@ 0048b900     libohNetCore:Stack.obj
 0002:00005b40       ??_C@_1CDO@KJKFHGOB@?$AAs?$AAt?$AAd?$AA?3?$AA?3?$AA_?$AAT?$AAr?$AAe?$AAe?$AA_?$AAc?$AAo?$AAn?$AAs?$AAt?$AA_?$AAi?$AAt?$AAe?$AAr?$AAa?$AAt?$AAo?$AAr?$AA?$DM?$AAc?$AAl?$AAa?$AAs?$AAs?$AA?5@ 0048bb40     libohNetCore:Stack.obj
 0002:00005d80       ??_C@_1BHO@EGFLFDNA@?$AAs?$AAt?$AAd?$AA?3?$AA?3?$AA_?$AAT?$AAr?$AAe?$AAe?$AA_?$AAc?$AAo?$AAn?$AAs?$AAt?$AA_?$AAi?$AAt?$AAe?$AAr?$AAa?$AAt?$AAo?$AAr?$AA?$DM?$AAc?$AAl?$AAa?$AAs?$AAs?$AA?5@ 0048bd80     libohNetCore:Stack.obj
 0002:00005f00       ??_C@_1BHO@OGKGLKBF@?$AAs?$AAt?$AAd?$AA?3?$AA?3?$AA_?$AAT?$AAr?$AAe?$AAe?$AA_?$AAc?$AAo?$AAn?$AAs?$AAt?$AA_?$AAi?$AAt?$AAe?$AAr?$AAa?$AAt?$AAo?$AAr?$AA?$DM?$AAc?$AAl?$AAa?$AAs?$AAs?$AA?5@ 0048bf00     libohNetCore:Stack.obj
 0002:00006080       ??_C@_1BFE@LJAAGJKJ@?$AAs?$AAt?$AAd?$AA?3?$AA?3?$AA_?$AAV?$AAe?$AAc?$AAt?$AAo?$AAr?$AA_?$AAc?$AAo?$AAn?$AAs?$AAt?$AA_?$AAi?$AAt?$AAe?$AAr?$AAa?$AAt?$AAo?$AAr?$AA?$DM?$AAc?$AAl?$AAa?$AAs@ 0048c080     libohNetCore:Stack.obj
 0002:000061d8       ??_C@_1EM@FKAOCOMF@?$AAv?$AAe?$AAc?$AAt?$AAo?$AAr?$AA?5?$AAi?$AAt?$AAe?$AAr?$AAa?$AAt?$AAo?$AAr?$AA?5?$AA?$CL?$AA?5?$AAo?$AAf?$AAf?$AAs?$AAe?$AAt?$AA?5?$AAo?$AAu?$AAt?$AA?5?$AAo?$AAf?$AA?5@ 0048c1d8     libohNetCore:Stack.obj
 0002:00006228       ??_C@_1CDM@BDKCLKAO@?$AAs?$AAt?$AAd?$AA?3?$AA?3?$AA_?$AAT?$AAr?$AAe?$AAe?$AA_?$AAc?$AAo?$AAn?$AAs?$AAt?$AA_?$AAi?$AAt?$AAe?$AAr?$AAa?$AAt?$AAo?$AAr?$AA?$DM?$AAc?$AAl?$AAa?$AAs?$AAs?$AA?5@ 0048c228     libohNetCore:Stack.obj
 0002:00006468       ??_C@_1BHM@PLAJNGCA@?$AAs?$AAt?$AAd?$AA?3?$AA?3?$AA_?$AAT?$AAr?$AAe?$AAe?$AA_?$AAc?$AAo?$AAn?$AAs?$AAt?$AA_?$AAi?$AAt?$AAe?$AAr?$AAa?$AAt?$AAo?$AAr?$AA?$DM?$AAc?$AAl?$AAa?$AAs?$AAs?$AA?5@ 0048c468     libohNetCore:Stack.obj
 0002:000065e8       ??_C@_1CDO@PKGKCDOF@?$AAs?$AAt?$AAd?$AA?3?$AA?3?$AA_?$AAT?$AAr?$AAe?$AAe?$AA_?$AAc?$AAo?$AAn?$AAs?$AAt?$AA_?$AAi?$AAt?$AAe?$AAr?$AAa?$AAt?$AAo?$AAr?$AA?$DM?$AAc?$AAl?$AAa?$AAs?$AAs?$AA?5@ 0048c5e8     libohNetCore:Stack.obj
 0002:00006828       ??_C@_1BHO@LFGJOPBB@?$AAs?$AAt?$AAd?$AA?3?$AA?3?$AA_?$AAT?$AAr?$AAe?$AAe?$AA_?$AAc?$AAo?$AAn?$AAs?$AAt?$AA_?$AAi?$AAt?$AAe?$AAr?$AAa?$AAt?$AAo?$AAr?$AA?$DM?$AAc?$AAl?$AAa?$AAs?$AAs?$AA?5@ 0048c828     libohNetCore:Stack.obj
 0002:000069dc       ??_7?$Bws@$0EAB@@OpenHome@@6B@ 0048c9dc     libohNetCore:Printer.obj
 0002:00006cdc       ??_7TimerManager@OpenHome@@6B@ 0048ccdc     libohNetCore:Timer.obj
 0002:00006cec       ??_7?$QueueSorted@VTimer@OpenHome@@@OpenHome@@6B@ 0048ccec     libohNetCore:Timer.obj
 0002:00006e08       ??_C@_0L@GJJHGOGO@AsciiError?$AA@ 0048ce08     libohNetCore:Ascii.obj
 0002:00006e18       ??_7ReaderAscii@OpenHome@@6B@ 0048ce18     libohNetCore:Ascii.obj
 0002:00006e34       ??_7WriterAscii@OpenHome@@6B@ 0048ce34     libohNetCore:Ascii.obj
 0002:00006e78       ??_7?$Bws@$0BE@@OpenHome@@6B@ 0048ce78     libohNetCore:Ascii.obj
 0002:00006e84       ??_7?$Bws@$07@OpenHome@@6B@ 0048ce84     libohNetCore:Ascii.obj
 0002:00006e90       ??_7?$Bws@$01@OpenHome@@6B@ 0048ce90     libohNetCore:Ascii.obj
 0002:00007658       ??_7ReaderHttpResponse@OpenHome@@6B@ 0048d658     libohNetCore:Http.obj
 0002:00007664       ??_7WriterHttpField@OpenHome@@6B@ 0048d664     libohNetCore:Http.obj
 0002:000076a8       ??_7WriterHttpHeader@OpenHome@@6B@ 0048d6a8     libohNetCore:Http.obj
 0002:000076c4       ??_7WriterHttpRequest@OpenHome@@6BIWriterHttpMethod@1@@ 0048d6c4     libohNetCore:Http.obj
 0002:000076d0       ??_7WriterHttpRequest@OpenHome@@6BWriterHttpHeader@1@@ 0048d6d0     libohNetCore:Http.obj
 0002:000076ec       ??_7WriterHttpResponse@OpenHome@@6BIWriterHttpStatus@1@@ 0048d6ec     libohNetCore:Http.obj
 0002:000076f8       ??_7WriterHttpResponse@OpenHome@@6BWriterHttpHeader@1@@ 0048d6f8     libohNetCore:Http.obj
 0002:00007714       ??_7IWriterHttpStatus@OpenHome@@6B@ 0048d714     libohNetCore:Http.obj
 0002:00007720       ??_7HttpHeader@OpenHome@@6B@ 0048d720     libohNetCore:Http.obj
 0002:00007734       ??_7WriterHttpChunked@OpenHome@@6B@ 0048d734     libohNetCore:Http.obj
 0002:00007748       ??_C@_1NK@KMBABFAN@?$AAs?$AAt?$AAd?$AA?3?$AA?3?$AAv?$AAe?$AAc?$AAt?$AAo?$AAr?$AA?$DM?$AAc?$AAl?$AAa?$AAs?$AAs?$AA?5?$AAO?$AAp?$AAe?$AAn?$AAH?$AAo?$AAm?$AAe?$AA?3?$AA?3?$AAI?$AAH?$AAt?$AAt@ 0048d748     libohNetCore:Http.obj
 0002:00007828       ??_C@_1NC@JMMDDDNI@?$AAs?$AAt?$AAd?$AA?3?$AA?3?$AAv?$AAe?$AAc?$AAt?$AAo?$AAr?$AA?$DM?$AAc?$AAl?$AAa?$AAs?$AAs?$AA?5?$AAO?$AAp?$AAe?$AAn?$AAH?$AAo?$AAm?$AAe?$AA?3?$AA?3?$AAB?$AAr?$AAx?$AA?5@ 0048d828     libohNetCore:Http.obj
 0002:00007900       ??_7?$Sws@$0BHHA@@OpenHome@@6BIWriter@1@@ 0048d900     libohNetCore:Http.obj
 0002:00007914       ??_7?$Sws@$0BHHA@@OpenHome@@6BSxx@1@@ 0048d914     libohNetCore:Http.obj
 0002:00007920       ??_7?$Bws@$0MI@@OpenHome@@6B@ 0048d920     libohNetCore:Http.obj
 0002:0000792c       ??_7?$Bws@$0GE@@OpenHome@@6B@ 0048d92c     libohNetCore:Http.obj
 0002:00007938       ??_7?$Bws@$0BL@@OpenHome@@6B@ 0048d938     libohNetCore:Http.obj
 0002:00007944       ??_7?$Bws@$0CP@@OpenHome@@6B@ 0048d944     libohNetCore:Http.obj
 0002:00007a90       ??_7Sxx@OpenHome@@6B@      0048da90     libohNetCore:Stream.obj
 0002:00007a9c       ??_7Srx@OpenHome@@6BIReader@1@@ 0048da9c     libohNetCore:Stream.obj
 0002:00007ab4       ??_7Srx@OpenHome@@6BSxx@1@@ 0048dab4     libohNetCore:Stream.obj
 0002:00007ac0       ??_7Srd@OpenHome@@6BIReader@1@@ 0048dac0     libohNetCore:Stream.obj
 0002:00007ad8       ??_7Srd@OpenHome@@6BSxx@1@@ 0048dad8     libohNetCore:Stream.obj
 0002:00007ae4       ??_7Swx@OpenHome@@6BIWriter@1@@ 0048dae4     libohNetCore:Stream.obj
 0002:00007af8       ??_7Swx@OpenHome@@6BSxx@1@@ 0048daf8     libohNetCore:Stream.obj
 0002:00007b04       ??_7Swd@OpenHome@@6BIWriter@1@@ 0048db04     libohNetCore:Stream.obj
 0002:00007b18       ??_7Swd@OpenHome@@6BSxx@1@@ 0048db18     libohNetCore:Stream.obj
 0002:00007b24       ??_7Swp@OpenHome@@6BIWriter@1@@ 0048db24     libohNetCore:Stream.obj
 0002:00007b38       ??_7Swp@OpenHome@@6BSxx@1@@ 0048db38     libohNetCore:Stream.obj
 0002:00007b44       ??_7ReaderBuffer@OpenHome@@6B@ 0048db44     libohNetCore:Stream.obj
 0002:00007b5c       ??_7WriterBuffer@OpenHome@@6B@ 0048db5c     libohNetCore:Stream.obj
 0002:00007b70       ??_7WriterBwh@OpenHome@@6B@ 0048db70     libohNetCore:Stream.obj
 0002:000080b8       ??_C@_0L@OOOPLAPK@QueueEmpty?$AA@ 0048e0b8     libohNetCore:Queue.obj
 0002:000080c8       ??_7QueueSortedBase@OpenHome@@6B@ 0048e0c8     libohNetCore:Queue.obj
 0002:000080d8       ??_7invalid_argument@std@@6B@ 0048e0d8     libcpmtd:xthrow.obj
 0002:000080e4       ??_7logic_error@std@@6B@   0048e0e4     libcpmtd:xthrow.obj
 0002:000080f0       ??_7length_error@std@@6B@  0048e0f0     libcpmtd:xthrow.obj
 0002:000080fc       ??_7out_of_range@std@@6B@  0048e0fc     libcpmtd:xthrow.obj
 0002:00008108       ??_7overflow_error@std@@6B@ 0048e108     libcpmtd:xthrow.obj
 0002:00008114       ??_7runtime_error@std@@6B@ 0048e114     libcpmtd:xthrow.obj
 0002:00008120       ??_C@_1GE@BDAODJCD@?$AAf?$AA?3?$AA?2?$AAd?$AAd?$AA?2?$AAv?$AAc?$AAt?$AAo?$AAo?$AAl?$AAs?$AA?2?$AAc?$AAr?$AAt?$AA_?$AAb?$AAl?$AAd?$AA?2?$AAs?$AAe?$AAl?$AAf?$AA_?$AAx?$AA8?$AA6?$AA?2?$AAc@ 0048e120     LIBCMTD:dbgdel.obj
 0002:00008188       ??_C@_1EO@LHDAJOCM@?$AA_?$AAB?$AAL?$AAO?$AAC?$AAK?$AA_?$AAT?$AAY?$AAP?$AAE?$AA_?$AAI?$AAS?$AA_?$AAV?$AAA?$AAL?$AAI?$AAD?$AA?$CI?$AAp?$AAH?$AAe?$AAa?$AAd?$AA?9?$AA?$DO?$AAn?$AAB?$AAl?$AAo@ 0048e188     LIBCMTD:dbgdel.obj
 0002:000081d8       ?ProcessDetach@NativeDll@<CrtImplementationDetails>@@0IB 0048e1d8     LIBCMTD:_trnsctrl_.obj
 0002:000081dc       ?ProcessAttach@NativeDll@<CrtImplementationDetails>@@0IB 0048e1dc     LIBCMTD:_trnsctrl_.obj
 0002:000081e0       ?ThreadAttach@NativeDll@<CrtImplementationDetails>@@0IB 0048e1e0     LIBCMTD:_trnsctrl_.obj
 0002:000081e4       ?ThreadDetach@NativeDll@<CrtImplementationDetails>@@0IB 0048e1e4     LIBCMTD:_trnsctrl_.obj
 0002:000081e8       ?ProcessVerifier@NativeDll@<CrtImplementationDetails>@@0IB 0048e1e8     LIBCMTD:_trnsctrl_.obj
 0002:000081f0       ??_7type_info@@6B@         0048e1f0     LIBCMTD:typinfo.obj
 0002:000081f4       ??_C@_17LGKOMLJ@?$AA?4?$AA?4?$AA?4?$AA?$AA@ 0048e1f4     LIBCMTD:dbgrptw.obj
 0002:000081fc       ??_C@_1CC@CGHMNGDG@?$AAA?$AAs?$AAs?$AAe?$AAr?$AAt?$AAi?$AAo?$AAn?$AA?5?$AAF?$AAa?$AAi?$AAl?$AAe?$AAd?$AA?$AA@ 0048e1fc     LIBCMTD:dbgrptw.obj
 0002:00008220       ??_C@_1M@ILHOPKA@?$AAE?$AAr?$AAr?$AAo?$AAr?$AA?$AA@ 0048e220     LIBCMTD:dbgrptw.obj
 0002:0000822c       ??_C@_1BA@GLMCNLEM@?$AAW?$AAa?$AAr?$AAn?$AAi?$AAn?$AAg?$AA?$AA@ 0048e22c     LIBCMTD:dbgrptw.obj
 0002:00008248       ??_C@_0DA@PCCBBBID@f?3?2dd?2vctools?2crt_bld?2self_x86?2c@ 0048e248     LIBCMTD:dbgrptw.obj
 0002:00008278       ??_C@_1FI@PHIAFFHM@?$AA?$CI?$AA?$CC?$AAT?$AAh?$AAe?$AA?5?$AAh?$AAo?$AAo?$AAk?$AA?5?$AAf?$AAu?$AAn?$AAc?$AAt?$AAi?$AAo?$AAn?$AA?5?$AAi?$AAs?$AA?5?$AAn?$AAo?$AAt?$AA?5?$AAi?$AAn?$AA?5?$AAt?$AAh@ 0048e278     LIBCMTD:dbgrptw.obj
 0002:000082d0       ??_C@_1CG@JBJEFOCM@?$AAp?$AAf?$AAn?$AAN?$AAe?$AAw?$AAH?$AAo?$AAo?$AAk?$AA?5?$AA?$CB?$AA?$DN?$AA?5?$AAN?$AAU?$AAL?$AAL?$AA?$AA@ 0048e2d0     LIBCMTD:dbgrptw.obj
 0002:000082f8       ??_C@_1CI@IIHEAKEI@?$AA_?$AAC?$AAr?$AAt?$AAS?$AAe?$AAt?$AAR?$AAe?$AAp?$AAo?$AAr?$AAt?$AAH?$AAo?$AAo?$AAk?$AAW?$AA2?$AA?$AA@ 0048e2f8     LIBCMTD:dbgrptw.obj
 0002:00008320       ??_C@_1GA@IBJGKIFE@?$AAf?$AA?3?$AA?2?$AAd?$AAd?$AA?2?$AAv?$AAc?$AAt?$AAo?$AAo?$AAl?$AAs?$AA?2?$AAc?$AAr?$AAt?$AA_?$AAb?$AAl?$AAd?$AA?2?$AAs?$AAe?$AAl?$AAf?$AA_?$AAx?$AA8?$AA6?$AA?2?$AAc@ 0048e320     LIBCMTD:dbgrptw.obj
 0002:00008380       ??_C@_1HI@OFEHGPPC@?$AAm?$AAo?$AAd?$AAe?$AA?5?$AA?$DN?$AA?$DN?$AA?5?$AA_?$AAC?$AAR?$AAT?$AA_?$AAR?$AAP?$AAT?$AAH?$AAO?$AAO?$AAK?$AA_?$AAI?$AAN?$AAS?$AAT?$AAA?$AAL?$AAL?$AA?5?$AA?$HM?$AA?$HM?$AA?5@ 0048e380     LIBCMTD:dbgrptw.obj
 0002:000083f8       ??_C@_1EG@PEOEAKBB@?$AAM?$AAi?$AAc?$AAr?$AAo?$AAs?$AAo?$AAf?$AAt?$AA?5?$AAV?$AAi?$AAs?$AAu?$AAa?$AAl?$AA?5?$AAC?$AA?$CL?$AA?$CL?$AA?5?$AAD?$AAe?$AAb?$AAu?$AAg?$AA?5?$AAL?$AAi?$AAb?$AAr?$AAa@ 0048e3f8     LIBCMTD:dbgrptw.obj
 0002:00008440       ??_C@_1FG@BBOLDHGF@?$AA_?$AAC?$AAr?$AAt?$AAD?$AAb?$AAg?$AAR?$AAe?$AAp?$AAo?$AAr?$AAt?$AA?3?$AA?5?$AAS?$AAt?$AAr?$AAi?$AAn?$AAg?$AA?5?$AAt?$AAo?$AAo?$AA?5?$AAl?$AAo?$AAn?$AAg?$AA?5?$AAo@ 0048e440     LIBCMTD:dbgrptw.obj
 0002:00008498       ??_C@_1JI@EACPGHID@?$AAw?$AAc?$AAs?$AAc?$AAp?$AAy?$AA_?$AAs?$AA?$CI?$AAs?$AAz?$AAO?$AAu?$AAt?$AAM?$AAe?$AAs?$AAs?$AAa?$AAg?$AAe?$AA?0?$AA?5?$AA4?$AA0?$AA9?$AA6?$AA?0?$AA?5?$AAL?$AA?$CC?$AA_@ 0048e498     LIBCMTD:dbgrptw.obj
 0002:00008530       ??_C@_1BI@KALLJECN@?$AA?$CI?$AA?$CK?$AA_?$AAe?$AAr?$AAr?$AAn?$AAo?$AA?$CI?$AA?$CJ?$AA?$CJ?$AA?$AA@ 0048e530     LIBCMTD:dbgrptw.obj
 0002:00008548       ??_C@_1KK@MEFMPOLM@?$AAD?$AAe?$AAb?$AAu?$AAg?$AA?5?$AA?$CF?$AAs?$AA?$CB?$AA?6?$AA?6?$AAP?$AAr?$AAo?$AAg?$AAr?$AAa?$AAm?$AA?3?$AA?5?$AA?$CF?$AAs?$AA?$CF?$AAs?$AA?$CF?$AAs?$AA?$CF?$AAs?$AA?$CF?$AAs?$AA?$CF?$AAs@ 0048e548     LIBCMTD:dbgrptw.obj
 0002:000085f4       ??_C@_1BE@CGCJKGHI@?$AA?6?$AAM?$AAo?$AAd?$AAu?$AAl?$AAe?$AA?3?$AA?5?$AA?$AA@ 0048e5f4     LIBCMTD:dbgrptw.obj
 0002:00008608       ??_C@_1BA@LNHECFIM@?$AA?6?$AAF?$AAi?$AAl?$AAe?$AA?3?$AA?5?$AA?$AA@ 0048e608     LIBCMTD:dbgrptw.obj
 0002:00008618       ??_C@_1BA@GLLGCPCK@?$AA?6?$AAL?$AAi?$AAn?$AAe?$AA?3?$AA?5?$AA?$AA@ 0048e618     LIBCMTD:dbgrptw.obj
 0002:00008628       ??_C@_15IABLJNFO@?$AA?6?$AA?6?$AA?$AA@ 0048e628     LIBCMTD:dbgrptw.obj
 0002:00008630       ??_C@_1BK@PEDCIPMA@?$AAE?$AAx?$AAp?$AAr?$AAe?$AAs?$AAs?$AAi?$AAo?$AAn?$AA?3?$AA?5?$AA?$AA@ 0048e630     LIBCMTD:dbgrptw.obj
 0002:0000864c       ??_C@_11LOCGONAA@?$AA?$AA@ 0048e64c     LIBCMTD:dbgrptw.obj
 0002:00008650       ??_C@_1OG@PMPPFHAF@?$AA?6?$AA?6?$AAF?$AAo?$AAr?$AA?5?$AAi?$AAn?$AAf?$AAo?$AAr?$AAm?$AAa?$AAt?$AAi?$AAo?$AAn?$AA?5?$AAo?$AAn?$AA?5?$AAh?$AAo?$AAw?$AA?5?$AAy?$AAo?$AAu?$AAr?$AA?5?$AAp?$AAr@ 0048e650     LIBCMTD:dbgrptw.obj
 0002:00008738       ??_C@_1NO@LECLLHOL@?$AAm?$AAe?$AAm?$AAc?$AAp?$AAy?$AA_?$AAs?$AA?$CI?$AAs?$AAz?$AAS?$AAh?$AAo?$AAr?$AAt?$AAP?$AAr?$AAo?$AAg?$AAN?$AAa?$AAm?$AAe?$AA?0?$AA?5?$AAs?$AAi?$AAz?$AAe?$AAo?$AAf@ 0048e738     LIBCMTD:dbgrptw.obj
 0002:00008818       ??_C@_1CO@EAEJAADC@?$AA?$DM?$AAp?$AAr?$AAo?$AAg?$AAr?$AAa?$AAm?$AA?5?$AAn?$AAa?$AAm?$AAe?$AA?5?$AAu?$AAn?$AAk?$AAn?$AAo?$AAw?$AAn?$AA?$DO?$AA?$AA@ 0048e818     LIBCMTD:dbgrptw.obj
 0002:00008848       ??_C@_1GI@DEDNNLCI@?$AAw?$AAc?$AAs?$AAc?$AAp?$AAy?$AA_?$AAs?$AA?$CI?$AAs?$AAz?$AAE?$AAx?$AAe?$AAN?$AAa?$AAm?$AAe?$AA?0?$AA?5?$AA2?$AA6?$AA0?$AA?0?$AA?5?$AAL?$AA?$CC?$AA?$DM?$AAp?$AAr?$AAo?$AAg@ 0048e848     LIBCMTD:dbgrptw.obj
 0002:000088b0       ??_C@_1CI@PGJIFDEK@?$AA_?$AA_?$AAc?$AAr?$AAt?$AAM?$AAe?$AAs?$AAs?$AAa?$AAg?$AAe?$AAW?$AAi?$AAn?$AAd?$AAo?$AAw?$AAW?$AA?$AA@ 0048e8b0     LIBCMTD:dbgrptw.obj
 0002:000088f8       ??_C@_13LBAGMAIH@?$AA?6?$AA?$AA@ 0048e8f8     LIBCMTD:wassert.obj
 0002:00008900       ??_C@_1EK@MBDPDCGA@?$AAM?$AAi?$AAc?$AAr?$AAo?$AAs?$AAo?$AAf?$AAt?$AA?5?$AAV?$AAi?$AAs?$AAu?$AAa?$AAl?$AA?5?$AAC?$AA?$CL?$AA?$CL?$AA?5?$AAR?$AAu?$AAn?$AAt?$AAi?$AAm?$AAe?$AA?5?$AAL?$AAi?$AAb@ 0048e900     LIBCMTD:wassert.obj
 0002:00008950       ??_C@_1HK@POCJMFGK@?$AA?$CI?$AAP?$AAr?$AAe?$AAs?$AAs?$AA?5?$AAR?$AAe?$AAt?$AAr?$AAy?$AA?5?$AAt?$AAo?$AA?5?$AAd?$AAe?$AAb?$AAu?$AAg?$AA?5?$AAt?$AAh?$AAe?$AA?5?$AAa?$AAp?$AAp?$AAl?$AAi?$AAc@ 0048e950     LIBCMTD:wassert.obj
 0002:000089d0       ??_C@_1LO@HBAMOOPN@?$AAw?$AAc?$AAs?$AAc?$AAa?$AAt?$AA_?$AAs?$AA?$CI?$AAa?$AAs?$AAs?$AAe?$AAr?$AAt?$AAb?$AAu?$AAf?$AA?0?$AA?5?$AA?$CI?$AA6?$AA0?$AA?5?$AA?$CK?$AA?5?$AA9?$AA?$CJ?$AA?0?$AA?5?$AAL?$AA?$CC@ 0048e9d0     LIBCMTD:wassert.obj
 0002:00008a90       ??_C@_1FG@GMPCGFKH@?$AAw?$AAc?$AAs?$AAc?$AAa?$AAt?$AA_?$AAs?$AA?$CI?$AAa?$AAs?$AAs?$AAe?$AAr?$AAt?$AAb?$AAu?$AAf?$AA?0?$AA?5?$AA?$CI?$AA6?$AA0?$AA?5?$AA?$CK?$AA?5?$AA9?$AA?$CJ?$AA?0?$AA?5?$AAd?$AAb@ 0048ea90     LIBCMTD:wassert.obj
 0002:00008ae8       ??_C@_1OA@EGMLFBHJ@?$AAF?$AAo?$AAr?$AA?5?$AAi?$AAn?$AAf?$AAo?$AAr?$AAm?$AAa?$AAt?$AAi?$AAo?$AAn?$AA?5?$AAo?$AAn?$AA?5?$AAh?$AAo?$AAw?$AA?5?$AAy?$AAo?$AAu?$AAr?$AA?5?$AAp?$AAr?$AAo?$AAg@ 0048eae8     LIBCMTD:wassert.obj
 0002:00008bc8       ??_C@_1BCO@FMFFDPPF@?$AAw?$AAc?$AAs?$AAc?$AAa?$AAt?$AA_?$AAs?$AA?$CI?$AAa?$AAs?$AAs?$AAe?$AAr?$AAt?$AAb?$AAu?$AAf?$AA?0?$AA?5?$AA?$CI?$AA6?$AA0?$AA?5?$AA?$CK?$AA?5?$AA9?$AA?$CJ?$AA?0?$AA?5?$AAL?$AA?$CC@ 0048ebc8     LIBCMTD:wassert.obj
 0002:00008cf8       ??_C@_1EM@MBEKCGIC@?$AAw?$AAc?$AAs?$AAc?$AAa?$AAt?$AA_?$AAs?$AA?$CI?$AA?5?$AAa?$AAs?$AAs?$AAe?$AAr?$AAt?$AAb?$AAu?$AAf?$AA?0?$AA?5?$AA?$CI?$AA6?$AA0?$AA?5?$AA?$CK?$AA?5?$AA9?$AA?$CJ?$AA?0?$AA?5?$AAe@ 0048ecf8     LIBCMTD:wassert.obj
 0002:00008d48       ??_C@_1CHM@CEIMNDLH@?$AAw?$AAc?$AAs?$AAn?$AAc?$AAa?$AAt?$AA_?$AAs?$AA?$CI?$AA?5?$AAa?$AAs?$AAs?$AAe?$AAr?$AAt?$AAb?$AAu?$AAf?$AA?0?$AA?5?$AA?$CI?$AA6?$AA0?$AA?5?$AA?$CK?$AA?5?$AA9?$AA?$CJ?$AA?0?$AA?5@ 0048ed48     LIBCMTD:wassert.obj
 0002:00008fc8       ??_C@_1GC@HOBBPFHJ@?$AAw?$AAc?$AAs?$AAc?$AAa?$AAt?$AA_?$AAs?$AA?$CI?$AA?5?$AAa?$AAs?$AAs?$AAe?$AAr?$AAt?$AAb?$AAu?$AAf?$AA?0?$AA?5?$AA?$CI?$AA6?$AA0?$AA?5?$AA?$CK?$AA?5?$AA9?$AA?$CJ?$AA?0?$AA?5?$AAL@ 0048efc8     LIBCMTD:wassert.obj
 0002:00009030       ??_C@_1KG@CFEIMPNH@?$AA_?$AAi?$AAt?$AAo?$AAw?$AA_?$AAs?$AA?$CI?$AA?5?$AAl?$AAi?$AAn?$AAe?$AAn?$AAo?$AA?0?$AA?5?$AAa?$AAs?$AAs?$AAe?$AAr?$AAt?$AAb?$AAu?$AAf?$AA?5?$AA?$CL?$AA?5?$AAw?$AAc?$AAs@ 0048f030     LIBCMTD:wassert.obj
 0002:000090d8       ??_C@_1O@KCAFKHJE@?$AAL?$AAi?$AAn?$AAe?$AA?3?$AA?5?$AA?$AA@ 0048f0d8     LIBCMTD:wassert.obj
 0002:000090e8       ??_C@_1FG@NHDGJLMI@?$AAw?$AAc?$AAs?$AAc?$AAa?$AAt?$AA_?$AAs?$AA?$CI?$AA?5?$AAa?$AAs?$AAs?$AAe?$AAr?$AAt?$AAb?$AAu?$AAf?$AA?0?$AA?5?$AA?$CI?$AA6?$AA0?$AA?5?$AA?$CK?$AA?5?$AA9?$AA?$CJ?$AA?0?$AA?5?$AAL@ 0048f0e8     LIBCMTD:wassert.obj
 0002:00009140       ??_C@_1FE@IIFBBPFI@?$AAw?$AAc?$AAs?$AAc?$AAa?$AAt?$AA_?$AAs?$AA?$CI?$AA?5?$AAa?$AAs?$AAs?$AAe?$AAr?$AAt?$AAb?$AAu?$AAf?$AA?0?$AA?5?$AA?$CI?$AA6?$AA0?$AA?5?$AA?$CK?$AA?5?$AA9?$AA?$CJ?$AA?0?$AA?5?$AAf@ 0048f140     LIBCMTD:wassert.obj
 0002:00009198       ??_C@_1IC@CFFJBMAD@?$AAw?$AAc?$AAs?$AAc?$AAa?$AAt?$AA_?$AAs?$AA?$CI?$AA?5?$AAa?$AAs?$AAs?$AAe?$AAr?$AAt?$AAb?$AAu?$AAf?$AA?0?$AA?5?$AA?$CI?$AA6?$AA0?$AA?5?$AA?$CK?$AA?5?$AA9?$AA?$CJ?$AA?0?$AA?5?$AAp@ 0048f198     LIBCMTD:wassert.obj
 0002:00009220       ??_C@_1HG@OJJMBIKO@?$AAw?$AAc?$AAs?$AAn?$AAc?$AAa?$AAt?$AA_?$AAs?$AA?$CI?$AA?5?$AAa?$AAs?$AAs?$AAe?$AAr?$AAt?$AAb?$AAu?$AAf?$AA?0?$AA?5?$AA?$CI?$AA6?$AA0?$AA?5?$AA?$CK?$AA?5?$AA9?$AA?$CJ?$AA?0?$AA?5@ 0048f220     LIBCMTD:wassert.obj
 0002:00009298       ??_C@_1GO@BIHLMMND@?$AAw?$AAc?$AAs?$AAn?$AAc?$AAa?$AAt?$AA_?$AAs?$AA?$CI?$AA?5?$AAa?$AAs?$AAs?$AAe?$AAr?$AAt?$AAb?$AAu?$AAf?$AA?0?$AA?5?$AA?$CI?$AA6?$AA0?$AA?5?$AA?$CK?$AA?5?$AA9?$AA?$CJ?$AA?0?$AA?5@ 0048f298     LIBCMTD:wassert.obj
 0002:00009308       ??_C@_1FO@IJLLDBEB@?$AAw?$AAc?$AAs?$AAc?$AAa?$AAt?$AA_?$AAs?$AA?$CI?$AA?5?$AAa?$AAs?$AAs?$AAe?$AAr?$AAt?$AAb?$AAu?$AAf?$AA?0?$AA?5?$AA?$CI?$AA6?$AA0?$AA?5?$AA?$CK?$AA?5?$AA9?$AA?$CJ?$AA?0?$AA?5?$AAp@ 0048f308     LIBCMTD:wassert.obj
 0002:00009368       ??_C@_1FG@CLEECKIJ@?$AAw?$AAc?$AAs?$AAc?$AAa?$AAt?$AA_?$AAs?$AA?$CI?$AA?5?$AAa?$AAs?$AAs?$AAe?$AAr?$AAt?$AAb?$AAu?$AAf?$AA?0?$AA?5?$AA?$CI?$AA6?$AA0?$AA?5?$AA?$CK?$AA?5?$AA9?$AA?$CJ?$AA?0?$AA?5?$AAd@ 0048f368     LIBCMTD:wassert.obj
 0002:000093c0       ??_C@_1GG@PMHOPJKA@?$AAw?$AAc?$AAs?$AAn?$AAc?$AAa?$AAt?$AA_?$AAs?$AA?$CI?$AA?5?$AAa?$AAs?$AAs?$AAe?$AAr?$AAt?$AAb?$AAu?$AAf?$AA?0?$AA?5?$AA?$CI?$AA6?$AA0?$AA?5?$AA?$CK?$AA?5?$AA9?$AA?$CJ?$AA?0?$AA?5@ 0048f3c0     LIBCMTD:wassert.obj
 0002:00009428       ??_C@_1O@HEMHKNDC@?$AAF?$AAi?$AAl?$AAe?$AA?3?$AA?5?$AA?$AA@ 0048f428     LIBCMTD:wassert.obj
 0002:00009438       ??_C@_1FG@HIDBOJF@?$AAw?$AAc?$AAs?$AAc?$AAa?$AAt?$AA_?$AAs?$AA?$CI?$AA?5?$AAa?$AAs?$AAs?$AAe?$AAr?$AAt?$AAb?$AAu?$AAf?$AA?0?$AA?5?$AA?$CI?$AA6?$AA0?$AA?5?$AA?$CK?$AA?5?$AA9?$AA?$CJ?$AA?0?$AA?5?$AAL@ 0048f438     LIBCMTD:wassert.obj
 0002:00009490       ??_C@_1FC@FFKGGIKO@?$AAw?$AAc?$AAs?$AAc?$AAa?$AAt?$AA_?$AAs?$AA?$CI?$AA?5?$AAa?$AAs?$AAs?$AAe?$AAr?$AAt?$AAb?$AAu?$AAf?$AA?0?$AA?5?$AA?$CI?$AA6?$AA0?$AA?5?$AA?$CK?$AA?5?$AA9?$AA?$CJ?$AA?0?$AA?5?$AAn@ 0048f490     LIBCMTD:wassert.obj
 0002:000094e8       ??_C@_1EK@BDNABPEK@?$AAw?$AAc?$AAs?$AAc?$AAa?$AAt?$AA_?$AAs?$AA?$CI?$AA?5?$AAa?$AAs?$AAs?$AAe?$AAr?$AAt?$AAb?$AAu?$AAf?$AA?0?$AA?5?$AA?$CI?$AA6?$AA0?$AA?5?$AA?$CK?$AA?5?$AA9?$AA?$CJ?$AA?0?$AA?5?$AAp@ 0048f4e8     LIBCMTD:wassert.obj
 0002:00009538       ??_C@_1HK@JKBDGMGN@?$AAw?$AAc?$AAs?$AAn?$AAc?$AAp?$AAy?$AA_?$AAs?$AA?$CI?$AA?5?$AAp?$AAc?$AAh?$AA?0?$AA?5?$AA?$CI?$AA2?$AA6?$AA0?$AA?5?$AA?$CL?$AA?5?$AA1?$AA?$CJ?$AA?5?$AA?9?$AA?5?$AA?$CI?$AAp?$AAc?$AAh@ 0048f538     LIBCMTD:wassert.obj
 0002:000095b8       ??_C@_1HA@EPFCONEE@?$AAw?$AAc?$AAs?$AAc?$AAp?$AAy?$AA_?$AAs?$AA?$CI?$AA?5?$AAp?$AAr?$AAo?$AAg?$AAn?$AAa?$AAm?$AAe?$AA?0?$AA?5?$AA2?$AA6?$AA0?$AA?5?$AA?$CL?$AA?5?$AA1?$AA?0?$AA?5?$AAL?$AA?$CC?$AA?$DM@ 0048f5b8     LIBCMTD:wassert.obj
 0002:00009628       ??_C@_1BE@PHKBBGE@?$AAP?$AAr?$AAo?$AAg?$AAr?$AAa?$AAm?$AA?3?$AA?5?$AA?$AA@ 0048f628     LIBCMTD:wassert.obj
 0002:00009640       ??_C@_1FM@LKICECBD@?$AAw?$AAc?$AAs?$AAc?$AAa?$AAt?$AA_?$AAs?$AA?$CI?$AA?5?$AAa?$AAs?$AAs?$AAe?$AAr?$AAt?$AAb?$AAu?$AAf?$AA?0?$AA?5?$AA?$CI?$AA6?$AA0?$AA?5?$AA?$CK?$AA?5?$AA9?$AA?$CJ?$AA?0?$AA?5?$AAL@ 0048f640     LIBCMTD:wassert.obj
 0002:000096a0       ??_C@_1FI@JIGMFG@?$AAw?$AAc?$AAs?$AAc?$AAa?$AAt?$AA_?$AAs?$AA?$CI?$AA?5?$AAa?$AAs?$AAs?$AAe?$AAr?$AAt?$AAb?$AAu?$AAf?$AA?0?$AA?5?$AA?$CI?$AA6?$AA0?$AA?5?$AA?$CK?$AA?5?$AA9?$AA?$CJ?$AA?0?$AA?5?$AAd@ 0048f6a0     LIBCMTD:wassert.obj
 0002:000096f8       ??_C@_1CE@OJBNHDMO@?$AAA?$AAs?$AAs?$AAe?$AAr?$AAt?$AAi?$AAo?$AAn?$AA?5?$AAf?$AAa?$AAi?$AAl?$AAe?$AAd?$AA?$CB?$AA?$AA@ 0048f6f8     LIBCMTD:wassert.obj
 0002:00009720       ??_C@_1GM@EFCJNBAA@?$AAw?$AAc?$AAs?$AAc?$AAp?$AAy?$AA_?$AAs?$AA?$CI?$AA?5?$AAa?$AAs?$AAs?$AAe?$AAr?$AAt?$AAb?$AAu?$AAf?$AA?0?$AA?5?$AA?$CI?$AA6?$AA0?$AA?5?$AA?$CK?$AA?5?$AA9?$AA?$CJ?$AA?0?$AA?5?$AAL@ 0048f720     LIBCMTD:wassert.obj
 0002:0000978c       ??_C@_1BC@LNOOMFNA@?$AA_?$AAw?$AAa?$AAs?$AAs?$AAe?$AAr?$AAt?$AA?$AA@ 0048f78c     LIBCMTD:wassert.obj
 0002:000097a0       ??_C@_1GA@COEIABIF@?$AAf?$AA?3?$AA?2?$AAd?$AAd?$AA?2?$AAv?$AAc?$AAt?$AAo?$AAo?$AAl?$AAs?$AA?2?$AAc?$AAr?$AAt?$AA_?$AAb?$AAl?$AAd?$AA?2?$AAs?$AAe?$AAl?$AAf?$AA_?$AAx?$AA8?$AA6?$AA?2?$AAc@ 0048f7a0     LIBCMTD:wassert.obj
 0002:00009800       ??_C@_1FA@HILOOCMA@?$AA?$CI?$AA_?$AAt?$AAc?$AAs?$AAn?$AAl?$AAe?$AAn?$AA?$CI?$AAo?$AAp?$AAt?$AAi?$AAo?$AAn?$AA?0?$AA?5?$AA_?$AAM?$AAA?$AAX?$AA_?$AAE?$AAN?$AAV?$AA?$CJ?$AA?5?$AA?$DM?$AA?5?$AA_?$AAM@ 0048f800     LIBCMTD:getenv.obj
 0002:00009850       ??_C@_1O@GMKGKCJO@?$AAg?$AAe?$AAt?$AAe?$AAn?$AAv?$AA?$AA@ 0048f850     LIBCMTD:getenv.obj
 0002:00009860       ??_C@_1GA@IPPICGKB@?$AAf?$AA?3?$AA?2?$AAd?$AAd?$AA?2?$AAv?$AAc?$AAt?$AAo?$AAo?$AAl?$AAs?$AA?2?$AAc?$AAr?$AAt?$AA_?$AAb?$AAl?$AAd?$AA?2?$AAs?$AAe?$AAl?$AAf?$AA_?$AAx?$AA8?$AA6?$AA?2?$AAc@ 0048f860     LIBCMTD:getenv.obj
 0002:000098c0       ??_C@_1CC@FKAOHHLO@?$AA?$CI?$AAo?$AAp?$AAt?$AAi?$AAo?$AAn?$AA?5?$AA?$CB?$AA?$DN?$AA?5?$AAN?$AAU?$AAL?$AAL?$AA?$CJ?$AA?$AA@ 0048f8c0     LIBCMTD:getenv.obj
 0002:000098e8       ??_C@_1GI@JBIFPFJH@?$AA_?$AAt?$AAc?$AAs?$AAn?$AAl?$AAe?$AAn?$AA?$CI?$AA?$CK?$AAs?$AAe?$AAa?$AAr?$AAc?$AAh?$AA?5?$AA?$CL?$AA?5?$AAl?$AAe?$AAn?$AAg?$AAt?$AAh?$AA?5?$AA?$CL?$AA?5?$AA1?$AA?0?$AA?5?$AA_@ 0048f8e8     LIBCMTD:getenv.obj
 0002:00009950       ??_C@_1EI@HHOBPCFK@?$AAs?$AAt?$AAr?$AAc?$AAp?$AAy?$AA_?$AAs?$AA?$CI?$AAb?$AAu?$AAf?$AAf?$AAe?$AAr?$AA?0?$AA?5?$AAs?$AAi?$AAz?$AAe?$AAI?$AAn?$AAT?$AAC?$AAh?$AAa?$AAr?$AAs?$AA?0?$AA?5?$AAs@ 0048f950     LIBCMTD:getenv.obj
 0002:00009998       ??_C@_1JM@NLPGJJPH@?$AA?$CI?$AAb?$AAu?$AAf?$AAf?$AAe?$AAr?$AA?5?$AA?$CB?$AA?$DN?$AA?5?$AAN?$AAU?$AAL?$AAL?$AA?5?$AA?$CG?$AA?$CG?$AA?5?$AAs?$AAi?$AAz?$AAe?$AAI?$AAn?$AAT?$AAC?$AAh?$AAa?$AAr?$AAs?$AA?5@ 0048f998     LIBCMTD:getenv.obj
 0002:00009a34       ??_C@_1CC@BAJKDIIF@?$AA_?$AAg?$AAe?$AAt?$AAe?$AAn?$AAv?$AA_?$AAs?$AA_?$AAh?$AAe?$AAl?$AAp?$AAe?$AAr?$AA?$AA@ 0048fa34     LIBCMTD:getenv.obj
 0002:00009a58       ??_C@_1CK@PIKDAOCL@?$AAp?$AAR?$AAe?$AAt?$AAu?$AAr?$AAn?$AAV?$AAa?$AAl?$AAu?$AAe?$AA?5?$AA?$CB?$AA?$DN?$AA?5?$AAN?$AAU?$AAL?$AAL?$AA?$AA@ 0048fa58     LIBCMTD:getenv.obj
 0002:00009a84       ??_C@_1DM@GNKNEGJO@?$AAs?$AAt?$AAr?$AAc?$AAp?$AAy?$AA_?$AAs?$AA?$CI?$AA?$CK?$AAp?$AAB?$AAu?$AAf?$AAf?$AAe?$AAr?$AA?0?$AA?5?$AAs?$AAi?$AAz?$AAe?$AA?0?$AA?5?$AAs?$AAt?$AAr?$AA?$CJ?$AA?$AA@ 0048fa84     LIBCMTD:getenv.obj
 0002:00009ac0       ??_C@_1CA@GDBKELOE@?$AAv?$AAa?$AAr?$AAn?$AAa?$AAm?$AAe?$AA?5?$AA?$CB?$AA?$DN?$AA?5?$AAN?$AAU?$AAL?$AAL?$AA?$AA@ 0048fac0     LIBCMTD:getenv.obj
 0002:00009ae0       ??_C@_1CC@KPLOPIEM@?$AA_?$AAd?$AAu?$AAp?$AAe?$AAn?$AAv?$AA_?$AAs?$AA_?$AAh?$AAe?$AAl?$AAp?$AAe?$AAr?$AA?$AA@ 0048fae0     LIBCMTD:getenv.obj
 0002:00009b04       ??_C@_1CA@FHNFMDOJ@?$AAp?$AAB?$AAu?$AAf?$AAf?$AAe?$AAr?$AA?5?$AA?$CB?$AA?$DN?$AA?5?$AAN?$AAU?$AAL?$AAL?$AA?$AA@ 0048fb04     LIBCMTD:getenv.obj
 0002:00009b28       ??_7exception@std@@6B@     0048fb28     LIBCMTD:stdexcpt.obj
 0002:00009b30       ??_C@_0BC@EOODALEL@Unknown?5exception?$AA@ 0048fb30     LIBCMTD:stdexcpt.obj
 0002:00009b48       ??_7bad_cast@std@@6B@      0048fb48     LIBCMTD:stdexcpt.obj
 0002:00009b54       ??_7bad_typeid@std@@6B@    0048fb54     LIBCMTD:stdexcpt.obj
 0002:00009b60       ??_7__non_rtti_object@std@@6B@ 0048fb60     LIBCMTD:stdexcpt.obj
 0002:00009b68       ??_C@_1BAA@ODEGEDCK@?$AA?$CI?$AA?5?$AA?$CI?$AA_?$AAS?$AAt?$AAr?$AAe?$AAa?$AAm?$AA?9?$AA?$DO?$AA_?$AAf?$AAl?$AAa?$AAg?$AA?5?$AA?$CG?$AA?5?$AA_?$AAI?$AAO?$AAS?$AAT?$AAR?$AAG?$AA?$CJ?$AA?5?$AA?$HM?$AA?$HM?$AA?5@ 0048fb68     LIBCMTD:fprintf.obj
 0002:00009c68       ??_C@_1CC@MGIEJOME@?$AA?$CI?$AAf?$AAo?$AAr?$AAm?$AAa?$AAt?$AA?5?$AA?$CB?$AA?$DN?$AA?5?$AAN?$AAU?$AAL?$AAL?$AA?$CJ?$AA?$AA@ 0048fc68     LIBCMTD:fprintf.obj
 0002:00009c8c       ??_C@_1BA@DNOHIGNM@?$AAf?$AAp?$AAr?$AAi?$AAn?$AAt?$AAf?$AA?$AA@ 0048fc8c     LIBCMTD:fprintf.obj
 0002:00009ca0       ??_C@_1GC@NHJDDBOH@?$AAf?$AA?3?$AA?2?$AAd?$AAd?$AA?2?$AAv?$AAc?$AAt?$AAo?$AAo?$AAl?$AAs?$AA?2?$AAc?$AAr?$AAt?$AA_?$AAb?$AAl?$AAd?$AA?2?$AAs?$AAe?$AAl?$AAf?$AA_?$AAx?$AA8?$AA6?$AA?2?$AAc@ 0048fca0     LIBCMTD:fprintf.obj
 0002:00009d04       ??_C@_1BM@JMKHIAHP@?$AA?$CI?$AAs?$AAt?$AAr?$AA?5?$AA?$CB?$AA?$DN?$AA?5?$AAN?$AAU?$AAL?$AAL?$AA?$CJ?$AA?$AA@ 0048fd04     LIBCMTD:fprintf.obj
 0002:00009d20       ??_C@_0CP@BNKDODJJ@f?3?2dd?2vctools?2crt_bld?2self_x86?2c@ 0048fd20     LIBCMTD:_file.obj
 0002:00009d50       ??_C@_0DA@HMCPFNKN@f?3?2dd?2vctools?2crt_bld?2self_x86?2c@ 0048fd50     LIBCMTD:onexit.obj
 0002:00009d80       ??_C@_1EC@FABAOFFO@?$AA?$CI?$AAc?$AAo?$AAu?$AAn?$AAt?$AA?5?$AA?$DN?$AA?$DN?$AA?5?$AA0?$AA?$CJ?$AA?5?$AA?$HM?$AA?$HM?$AA?5?$AA?$CI?$AAs?$AAt?$AAr?$AAi?$AAn?$AAg?$AA?5?$AA?$CB?$AA?$DN?$AA?5?$AAN?$AAU?$AAL?$AAL?$AA?$CJ@ 0048fd80     LIBCMTD:snprintf.obj
 0002:00009dc4       ??_C@_1BE@CHNFPLHD@?$AA_?$AAs?$AAn?$AAp?$AAr?$AAi?$AAn?$AAt?$AAf?$AA?$AA@ 0048fdc4     LIBCMTD:snprintf.obj
 0002:00009dd8       ??_C@_1GC@BMNPEKNN@?$AAf?$AA?3?$AA?2?$AAd?$AAd?$AA?2?$AAv?$AAc?$AAt?$AAo?$AAo?$AAl?$AAs?$AA?2?$AAc?$AAr?$AAt?$AA_?$AAb?$AAl?$AAd?$AA?2?$AAs?$AAe?$AAl?$AAf?$AA_?$AAx?$AA8?$AA6?$AA?2?$AAc@ 0048fdd8     LIBCMTD:snprintf.obj
 0002:00009e3c       ??_C@_0BO@GNIAFIKK@Unknown?5Runtime?5Check?5Error?6?$AN?$AA@ 0048fe3c     LIBCMTD:_error_.obj
 0002:00009e5c       ??_C@_0CM@NGINOKPC@Stack?5memory?5around?5_alloca?5was?5@ 0048fe5c     LIBCMTD:_error_.obj
 0002:00009e88       ??_C@_0DG@HKJMLLLP@A?5local?5variable?5was?5used?5before@ 0048fe88     LIBCMTD:_error_.obj
 0002:00009ec0       ??_C@_0BN@FFOINMNJ@Stack?5memory?5was?5corrupted?6?$AN?$AA@ 0048fec0     LIBCMTD:_error_.obj
 0002:00009ee0       ??_C@_0BBN@GPMLNJCF@A?5cast?5to?5a?5smaller?5data?5type?5ha@ 0048fee0     LIBCMTD:_error_.obj
 0002:0000a000       ??_C@_0NN@NGPKDKPD@The?5value?5of?5ESP?5was?5not?5properl@ 00490000     LIBCMTD:_error_.obj
 0002:0000a17c       ??_C@_0CA@IODNCDPG@Run?9Time?5Check?5Failure?5?$CD?$CFd?5?9?5?$CFs?$AA@ 0049017c     LIBCMTD:_error_.obj
 0002:0000a19c       ??_C@_0BE@GNBOBNCK@Unknown?5Module?5Name?$AA@ 0049019c     LIBCMTD:_error_.obj
 0002:0000a1b0       ??_C@_0BB@PFFGGCJP@Unknown?5Filename?$AA@ 004901b0     LIBCMTD:_error_.obj
 0002:0000a1c8       ??_C@_1EA@NFKNIFJP@?$AAR?$AAu?$AAn?$AA?9?$AAT?$AAi?$AAm?$AAe?$AA?5?$AAC?$AAh?$AAe?$AAc?$AAk?$AA?5?$AAF?$AAa?$AAi?$AAl?$AAu?$AAr?$AAe?$AA?5?$AA?$CD?$AA?$CF?$AAd?$AA?5?$AA?9?$AA?5?$AA?$CF?$AAs?$AA?$AA@ 004901c8     LIBCMTD:_error_.obj
 0002:0000a208       ??_C@_1GM@OLMCBDMB@?$AAR?$AAu?$AAn?$AAt?$AAi?$AAm?$AAe?$AA?5?$AAC?$AAh?$AAe?$AAc?$AAk?$AA?5?$AAE?$AAr?$AAr?$AAo?$AAr?$AA?4?$AA?6?$AA?$AN?$AA?5?$AAU?$AAn?$AAa?$AAb?$AAl?$AAe?$AA?5?$AAt?$AAo@ 00490208     LIBCMTD:_error_.obj
 0002:0000a274       ??_C@_0CG@IAFNJNEE@Stack?5corrupted?5near?5unknown?5var@ 00490274     LIBCMTD:_error_.obj
 0002:0000a2a0       ??_C@_0EJ@LJKNEOLN@Stack?5area?5around?5_alloca?5memory@ 004902a0     LIBCMTD:_error_.obj
 0002:0000a2ec       ??_C@_08KJEDNCKC@?$CFs?$CFs?$CFs?$CFs?$AA@ 004902ec     LIBCMTD:_error_.obj
 0002:0000a2f8       ??_C@_02LLMPMKNF@?$DO?5?$AA@ 004902f8     LIBCMTD:_error_.obj
 0002:0000a2fc       ??_C@_01EEMJAFIK@?6?$AA@   004902fc     LIBCMTD:_error_.obj
 0002:0000a300       ??_C@_0BC@KIBAILCI@?$CFs?$CFs?$CFp?$CFs?$CFld?$CFs?$CFd?$CFs?$AA@ 00490300     LIBCMTD:_error_.obj
 0002:0000a318       ??_C@_0EI@CLEPFNGI@Stack?5area?5around?5_alloca?5memory@ 00490318     LIBCMTD:_error_.obj
 0002:0000a360       ??_C@_0N@MHFFIMFG@?6Address?3?50x?$AA@ 00490360     LIBCMTD:_error_.obj
 0002:0000a370       ??_C@_07DFDJCKFN@?6Size?3?5?$AA@ 00490370     LIBCMTD:_error_.obj
 0002:0000a378       ??_C@_0CK@DKGBICFE@?6Allocation?5number?5within?5this?5f@ 00490378     LIBCMTD:_error_.obj
 0002:0000a3a4       ??_C@_08OMAHNMHJ@?6Data?3?5?$DM?$AA@ 004903a4     LIBCMTD:_error_.obj
 0002:0000a3b0       ??_C@_09FOPFMPEJ@wsprintfA?$AA@ 004903b0     LIBCMTD:_error_.obj
 0002:0000a3bc       ??_C@_1BG@OILDLIOJ@?$AAu?$AAs?$AAe?$AAr?$AA3?$AA2?$AA?4?$AAd?$AAl?$AAl?$AA?$AA@ 004903bc     LIBCMTD:_error_.obj
 0002:0000a3d4       ??_C@_05MKKEDADM@?$CF?42X?5?$AA@ 004903d4     LIBCMTD:_error_.obj
 0002:0000a3dc       ??_C@_0DE@OHJBPMBP@A?5variable?5is?5being?5used?5without@ 004903dc     LIBCMTD:_error_.obj
 0002:0000a410       ??_C@_0BP@OGBCLIBO@Stack?5around?5_alloca?5corrupted?$AA@ 00490410     LIBCMTD:_userapi_.obj
